ARM GAS  C:\Users\daniel01\AppData\Local\Temp\ccFPInc7.s 			page 1


   1              		.syntax unified
   2              		.cpu cortex-m3
   3              		.fpu softvfp
   4              		.eabi_attribute 20, 1
   5              		.eabi_attribute 21, 1
   6              		.eabi_attribute 23, 3
   7              		.eabi_attribute 24, 1
   8              		.eabi_attribute 25, 1
   9              		.eabi_attribute 26, 1
  10              		.eabi_attribute 30, 6
  11              		.eabi_attribute 18, 4
  12              		.thumb
  13              		.file	"os_flag.c"
  20 0000 61030000 		.text
  20      0200D600 
  20      00000201 
  20      FB0E0D00 
  20      01010101 
  21              	.Ltext0:
  22              		.cfi_sections	.debug_frame
  23              		.section	.text.OSFlagCreate,"ax",%progbits
  24              		.align	2
  25              		.global	OSFlagCreate
  26              		.thumb
  27              		.thumb_func
  28              		.type	OSFlagCreate, %function
  29              	OSFlagCreate:
  30              	.LFB0:
  31              		.file 1 "C:\\Micrium\\Software\\uCOS-III\\Source\\os_flag.c"
   1:C:\Micrium\Software\uCOS-III\Source\os_flag.c **** /*
   2:C:\Micrium\Software\uCOS-III\Source\os_flag.c **** ***************************************************************************************************
   3:C:\Micrium\Software\uCOS-III\Source\os_flag.c **** *                                                      uC/OS-III
   4:C:\Micrium\Software\uCOS-III\Source\os_flag.c **** *                                                 The Real-Time Kernel
   5:C:\Micrium\Software\uCOS-III\Source\os_flag.c **** *
   6:C:\Micrium\Software\uCOS-III\Source\os_flag.c **** *                                  (c) Copyright 2009-2012; Micrium, Inc.; Weston, FL
   7:C:\Micrium\Software\uCOS-III\Source\os_flag.c **** *                           All rights reserved.  Protected by international copyright laws.
   8:C:\Micrium\Software\uCOS-III\Source\os_flag.c **** *
   9:C:\Micrium\Software\uCOS-III\Source\os_flag.c **** *                                                EVENT FLAG MANAGEMENT
  10:C:\Micrium\Software\uCOS-III\Source\os_flag.c **** *
  11:C:\Micrium\Software\uCOS-III\Source\os_flag.c **** * File    : OS_FLAG.C
  12:C:\Micrium\Software\uCOS-III\Source\os_flag.c **** * By      : JJL
  13:C:\Micrium\Software\uCOS-III\Source\os_flag.c **** * Version : V3.03.01
  14:C:\Micrium\Software\uCOS-III\Source\os_flag.c **** *
  15:C:\Micrium\Software\uCOS-III\Source\os_flag.c **** * LICENSING TERMS:
  16:C:\Micrium\Software\uCOS-III\Source\os_flag.c **** * ---------------
  17:C:\Micrium\Software\uCOS-III\Source\os_flag.c **** *           uC/OS-III is provided in source form for FREE short-term evaluation, for educational us
  18:C:\Micrium\Software\uCOS-III\Source\os_flag.c **** *           for peaceful research.  If you plan or intend to use uC/OS-III in a commercial applicat
  19:C:\Micrium\Software\uCOS-III\Source\os_flag.c **** *           product then, you need to contact Micrium to properly license uC/OS-III for its use in 
  20:C:\Micrium\Software\uCOS-III\Source\os_flag.c **** *           application/product.   We provide ALL the source code for your convenience and to help 
  21:C:\Micrium\Software\uCOS-III\Source\os_flag.c **** *           experience uC/OS-III.  The fact that the source is provided does NOT mean that you can 
  22:C:\Micrium\Software\uCOS-III\Source\os_flag.c **** *           it commercially without paying a licensing fee.
ARM GAS  C:\Users\daniel01\AppData\Local\Temp\ccFPInc7.s 			page 2


  23:C:\Micrium\Software\uCOS-III\Source\os_flag.c **** *
  24:C:\Micrium\Software\uCOS-III\Source\os_flag.c **** *           Knowledge of the source code may NOT be used to develop a similar product.
  25:C:\Micrium\Software\uCOS-III\Source\os_flag.c **** *
  26:C:\Micrium\Software\uCOS-III\Source\os_flag.c **** *           Please help us continue to provide the embedded community with the finest software avai
  27:C:\Micrium\Software\uCOS-III\Source\os_flag.c **** *           Your honesty is greatly appreciated.
  28:C:\Micrium\Software\uCOS-III\Source\os_flag.c **** *
  29:C:\Micrium\Software\uCOS-III\Source\os_flag.c **** *           You can contact us at www.micrium.com, or by phone at +1 (954) 217-2036.
  30:C:\Micrium\Software\uCOS-III\Source\os_flag.c **** ***************************************************************************************************
  31:C:\Micrium\Software\uCOS-III\Source\os_flag.c **** */
  32:C:\Micrium\Software\uCOS-III\Source\os_flag.c **** 
  33:C:\Micrium\Software\uCOS-III\Source\os_flag.c **** #define  MICRIUM_SOURCE
  34:C:\Micrium\Software\uCOS-III\Source\os_flag.c **** #include <os.h>
  35:C:\Micrium\Software\uCOS-III\Source\os_flag.c **** 
  36:C:\Micrium\Software\uCOS-III\Source\os_flag.c **** #ifdef VSC_INCLUDE_SOURCE_FILE_NAMES
  37:C:\Micrium\Software\uCOS-III\Source\os_flag.c **** const  CPU_CHAR  *os_flag__c = "$Id: $";
  38:C:\Micrium\Software\uCOS-III\Source\os_flag.c **** #endif
  39:C:\Micrium\Software\uCOS-III\Source\os_flag.c **** 
  40:C:\Micrium\Software\uCOS-III\Source\os_flag.c **** 
  41:C:\Micrium\Software\uCOS-III\Source\os_flag.c **** #if OS_CFG_FLAG_EN > 0u
  42:C:\Micrium\Software\uCOS-III\Source\os_flag.c **** 
  43:C:\Micrium\Software\uCOS-III\Source\os_flag.c **** /*$PAGE*/
  44:C:\Micrium\Software\uCOS-III\Source\os_flag.c **** /*
  45:C:\Micrium\Software\uCOS-III\Source\os_flag.c **** ***************************************************************************************************
  46:C:\Micrium\Software\uCOS-III\Source\os_flag.c **** *                                                 CREATE AN EVENT FLAG
  47:C:\Micrium\Software\uCOS-III\Source\os_flag.c **** *
  48:C:\Micrium\Software\uCOS-III\Source\os_flag.c **** * Description: This function is called to create an event flag group.
  49:C:\Micrium\Software\uCOS-III\Source\os_flag.c **** *
  50:C:\Micrium\Software\uCOS-III\Source\os_flag.c **** * Arguments  : p_grp          is a pointer to the event flag group to create
  51:C:\Micrium\Software\uCOS-III\Source\os_flag.c **** *
  52:C:\Micrium\Software\uCOS-III\Source\os_flag.c **** *              p_name         is the name of the event flag group
  53:C:\Micrium\Software\uCOS-III\Source\os_flag.c **** *
  54:C:\Micrium\Software\uCOS-III\Source\os_flag.c **** *              flags          contains the initial value to store in the event flag group (typicall
  55:C:\Micrium\Software\uCOS-III\Source\os_flag.c **** *
  56:C:\Micrium\Software\uCOS-III\Source\os_flag.c **** *              p_err          is a pointer to an error code which will be returned to your applicat
  57:C:\Micrium\Software\uCOS-III\Source\os_flag.c **** *
  58:C:\Micrium\Software\uCOS-III\Source\os_flag.c **** *                                 OS_ERR_NONE                    if the call was successful.
  59:C:\Micrium\Software\uCOS-III\Source\os_flag.c **** *                                 OS_ERR_CREATE_ISR              if you attempted to create an Even
  60:C:\Micrium\Software\uCOS-III\Source\os_flag.c **** *                                 OS_ERR_ILLEGAL_CREATE_RUN_TIME if you are trying to create the Ev
  61:C:\Micrium\Software\uCOS-III\Source\os_flag.c **** *                                                                   called OSSafetyCriticalStart().
  62:C:\Micrium\Software\uCOS-III\Source\os_flag.c **** *                                 OS_ERR_NAME                    if 'p_name' is a NULL pointer
  63:C:\Micrium\Software\uCOS-III\Source\os_flag.c **** *                                 OS_ERR_OBJ_CREATED             if the event flag group has alread
  64:C:\Micrium\Software\uCOS-III\Source\os_flag.c **** *                                 OS_ERR_OBJ_PTR_NULL            if 'p_grp' is a NULL pointer
  65:C:\Micrium\Software\uCOS-III\Source\os_flag.c **** *
  66:C:\Micrium\Software\uCOS-III\Source\os_flag.c **** * Returns    : none
  67:C:\Micrium\Software\uCOS-III\Source\os_flag.c **** ***************************************************************************************************
  68:C:\Micrium\Software\uCOS-III\Source\os_flag.c **** */
  69:C:\Micrium\Software\uCOS-III\Source\os_flag.c **** 
  70:C:\Micrium\Software\uCOS-III\Source\os_flag.c **** void  OSFlagCreate (OS_FLAG_GRP  *p_grp,
  71:C:\Micrium\Software\uCOS-III\Source\os_flag.c ****                     CPU_CHAR     *p_name,
  72:C:\Micrium\Software\uCOS-III\Source\os_flag.c ****                     OS_FLAGS      flags,
  73:C:\Micrium\Software\uCOS-III\Source\os_flag.c ****                     OS_ERR       *p_err)
  74:C:\Micrium\Software\uCOS-III\Source\os_flag.c **** {
  32              		.loc 1 74 0
  33              		.cfi_startproc
  34              		@ args = 0, pretend = 0, frame = 24
  35              		@ frame_needed = 1, uses_anonymous_args = 0
  36 0000 80B5     		push	{r7, lr}
ARM GAS  C:\Users\daniel01\AppData\Local\Temp\ccFPInc7.s 			page 3


  37              	.LCFI0:
  38              		.cfi_def_cfa_offset 8
  39 0002 86B0     		sub	sp, sp, #24
  40              	.LCFI1:
  41              		.cfi_def_cfa_offset 32
  42 0004 00AF     		add	r7, sp, #0
  43              		.cfi_offset 14, -4
  44              		.cfi_offset 7, -8
  45              	.LCFI2:
  46              		.cfi_def_cfa_register 7
  47 0006 F860     		str	r0, [r7, #12]
  48 0008 B960     		str	r1, [r7, #8]
  49 000a 7A60     		str	r2, [r7, #4]
  50 000c 3B60     		str	r3, [r7, #0]
  75:C:\Micrium\Software\uCOS-III\Source\os_flag.c ****     CPU_SR_ALLOC();
  51              		.loc 1 75 0
  52 000e 4FF00003 		mov	r3, #0
  53 0012 7B61     		str	r3, [r7, #20]
  76:C:\Micrium\Software\uCOS-III\Source\os_flag.c **** 
  77:C:\Micrium\Software\uCOS-III\Source\os_flag.c **** 
  78:C:\Micrium\Software\uCOS-III\Source\os_flag.c **** 
  79:C:\Micrium\Software\uCOS-III\Source\os_flag.c **** #ifdef OS_SAFETY_CRITICAL
  80:C:\Micrium\Software\uCOS-III\Source\os_flag.c ****     if (p_err == (OS_ERR *)0) {
  81:C:\Micrium\Software\uCOS-III\Source\os_flag.c ****         OS_SAFETY_CRITICAL_EXCEPTION();
  82:C:\Micrium\Software\uCOS-III\Source\os_flag.c ****         return;
  83:C:\Micrium\Software\uCOS-III\Source\os_flag.c ****     }
  84:C:\Micrium\Software\uCOS-III\Source\os_flag.c **** #endif
  85:C:\Micrium\Software\uCOS-III\Source\os_flag.c **** 
  86:C:\Micrium\Software\uCOS-III\Source\os_flag.c **** #ifdef OS_SAFETY_CRITICAL_IEC61508
  87:C:\Micrium\Software\uCOS-III\Source\os_flag.c ****     if (OSSafetyCriticalStartFlag == DEF_TRUE) {
  88:C:\Micrium\Software\uCOS-III\Source\os_flag.c ****        *p_err = OS_ERR_ILLEGAL_CREATE_RUN_TIME;
  89:C:\Micrium\Software\uCOS-III\Source\os_flag.c ****         return;
  90:C:\Micrium\Software\uCOS-III\Source\os_flag.c ****     }
  91:C:\Micrium\Software\uCOS-III\Source\os_flag.c **** #endif
  92:C:\Micrium\Software\uCOS-III\Source\os_flag.c **** 
  93:C:\Micrium\Software\uCOS-III\Source\os_flag.c **** #if OS_CFG_CALLED_FROM_ISR_CHK_EN > 0u
  94:C:\Micrium\Software\uCOS-III\Source\os_flag.c ****     if (OSIntNestingCtr > (OS_NESTING_CTR)0) {              /* See if called from ISR ...          
  54              		.loc 1 94 0
  55 0014 40F20003 		movw	r3, #:lower16:OSIntNestingCtr
  56 0018 C0F20003 		movt	r3, #:upper16:OSIntNestingCtr
  57 001c 1B78     		ldrb	r3, [r3, #0]	@ zero_extendqisi2
  58 001e 002B     		cmp	r3, #0
  59 0020 04D0     		beq	.L2
  95:C:\Micrium\Software\uCOS-III\Source\os_flag.c ****        *p_err = OS_ERR_CREATE_ISR;                          /* ... can't CREATE from an ISR        
  60              		.loc 1 95 0
  61 0022 3B68     		ldr	r3, [r7, #0]
  62 0024 42F6E162 		movw	r2, #12001
  63 0028 1A80     		strh	r2, [r3, #0]	@ movhi
  96:C:\Micrium\Software\uCOS-III\Source\os_flag.c ****         return;
  64              		.loc 1 96 0
  65 002a 38E0     		b	.L5
  66              	.L2:
  97:C:\Micrium\Software\uCOS-III\Source\os_flag.c ****     }
  98:C:\Micrium\Software\uCOS-III\Source\os_flag.c **** #endif
  99:C:\Micrium\Software\uCOS-III\Source\os_flag.c **** 
 100:C:\Micrium\Software\uCOS-III\Source\os_flag.c **** #if OS_CFG_ARG_CHK_EN > 0u
 101:C:\Micrium\Software\uCOS-III\Source\os_flag.c ****     if (p_grp == (OS_FLAG_GRP *)0) {                        /* Validate 'p_grp'                    
ARM GAS  C:\Users\daniel01\AppData\Local\Temp\ccFPInc7.s 			page 4


  67              		.loc 1 101 0
  68 002c FB68     		ldr	r3, [r7, #12]
  69 002e 002B     		cmp	r3, #0
  70 0030 04D1     		bne	.L4
 102:C:\Micrium\Software\uCOS-III\Source\os_flag.c ****        *p_err = OS_ERR_OBJ_PTR_NULL;
  71              		.loc 1 102 0
  72 0032 3B68     		ldr	r3, [r7, #0]
  73 0034 45F6C352 		movw	r2, #24003
  74 0038 1A80     		strh	r2, [r3, #0]	@ movhi
 103:C:\Micrium\Software\uCOS-III\Source\os_flag.c ****         return;
  75              		.loc 1 103 0
  76 003a 30E0     		b	.L5
  77              	.L4:
 104:C:\Micrium\Software\uCOS-III\Source\os_flag.c ****     }
 105:C:\Micrium\Software\uCOS-III\Source\os_flag.c **** #endif
 106:C:\Micrium\Software\uCOS-III\Source\os_flag.c **** 
 107:C:\Micrium\Software\uCOS-III\Source\os_flag.c ****     OS_CRITICAL_ENTER();
  78              		.loc 1 107 0
  79 003c FFF7FEFF 		bl	CPU_SR_Save
  80 0040 0346     		mov	r3, r0
  81 0042 7B61     		str	r3, [r7, #20]
 108:C:\Micrium\Software\uCOS-III\Source\os_flag.c ****     p_grp->Type    = OS_OBJ_TYPE_FLAG;                      /* Set to event flag group type        
  82              		.loc 1 108 0
  83 0044 FA68     		ldr	r2, [r7, #12]
  84 0046 44F64643 		movw	r3, #:lower16:1195461702
  85 004a C4F24173 		movt	r3, #:upper16:1195461702
  86 004e 1360     		str	r3, [r2, #0]
 109:C:\Micrium\Software\uCOS-III\Source\os_flag.c ****     p_grp->NamePtr = p_name;
  87              		.loc 1 109 0
  88 0050 FB68     		ldr	r3, [r7, #12]
  89 0052 BA68     		ldr	r2, [r7, #8]
  90 0054 5A60     		str	r2, [r3, #4]
 110:C:\Micrium\Software\uCOS-III\Source\os_flag.c ****     p_grp->Flags   = flags;                                 /* Set to desired initial value        
  91              		.loc 1 110 0
  92 0056 FB68     		ldr	r3, [r7, #12]
  93 0058 7A68     		ldr	r2, [r7, #4]
  94 005a 1A62     		str	r2, [r3, #32]
 111:C:\Micrium\Software\uCOS-III\Source\os_flag.c ****     p_grp->TS      = (CPU_TS)0;
  95              		.loc 1 111 0
  96 005c FB68     		ldr	r3, [r7, #12]
  97 005e 4FF00002 		mov	r2, #0
  98 0062 5A62     		str	r2, [r3, #36]
 112:C:\Micrium\Software\uCOS-III\Source\os_flag.c ****     OS_PendListInit(&p_grp->PendList);
  99              		.loc 1 112 0
 100 0064 FB68     		ldr	r3, [r7, #12]
 101 0066 03F10803 		add	r3, r3, #8
 102 006a 1846     		mov	r0, r3
 103 006c FFF7FEFF 		bl	OS_PendListInit
 113:C:\Micrium\Software\uCOS-III\Source\os_flag.c **** 
 114:C:\Micrium\Software\uCOS-III\Source\os_flag.c **** #if OS_CFG_DBG_EN > 0u
 115:C:\Micrium\Software\uCOS-III\Source\os_flag.c ****     OS_FlagDbgListAdd(p_grp);
 104              		.loc 1 115 0
 105 0070 F868     		ldr	r0, [r7, #12]
 106 0072 FFF7FEFF 		bl	OS_FlagDbgListAdd
 116:C:\Micrium\Software\uCOS-III\Source\os_flag.c **** #endif
 117:C:\Micrium\Software\uCOS-III\Source\os_flag.c ****     OSFlagQty++;
 107              		.loc 1 117 0
ARM GAS  C:\Users\daniel01\AppData\Local\Temp\ccFPInc7.s 			page 5


 108 0076 40F20003 		movw	r3, #:lower16:OSFlagQty
 109 007a C0F20003 		movt	r3, #:upper16:OSFlagQty
 110 007e 1B88     		ldrh	r3, [r3, #0]
 111 0080 03F10103 		add	r3, r3, #1
 112 0084 9AB2     		uxth	r2, r3
 113 0086 40F20003 		movw	r3, #:lower16:OSFlagQty
 114 008a C0F20003 		movt	r3, #:upper16:OSFlagQty
 115 008e 1A80     		strh	r2, [r3, #0]	@ movhi
 118:C:\Micrium\Software\uCOS-III\Source\os_flag.c **** 
 119:C:\Micrium\Software\uCOS-III\Source\os_flag.c ****     OS_CRITICAL_EXIT_NO_SCHED();
 116              		.loc 1 119 0
 117 0090 7869     		ldr	r0, [r7, #20]
 118 0092 FFF7FEFF 		bl	CPU_SR_Restore
 120:C:\Micrium\Software\uCOS-III\Source\os_flag.c ****    *p_err = OS_ERR_NONE;
 119              		.loc 1 120 0
 120 0096 3B68     		ldr	r3, [r7, #0]
 121 0098 4FF00002 		mov	r2, #0
 122 009c 1A80     		strh	r2, [r3, #0]	@ movhi
 123              	.L5:
 121:C:\Micrium\Software\uCOS-III\Source\os_flag.c **** }
 124              		.loc 1 121 0
 125 009e 07F11807 		add	r7, r7, #24
 126 00a2 BD46     		mov	sp, r7
 127 00a4 80BD     		pop	{r7, pc}
 128              		.cfi_endproc
 129              	.LFE0:
 130              		.size	OSFlagCreate, .-OSFlagCreate
 131 00a6 00BF     		.section	.text.OSFlagDel,"ax",%progbits
 132              		.align	2
 133              		.global	OSFlagDel
 134              		.thumb
 135              		.thumb_func
 136              		.type	OSFlagDel, %function
 137              	OSFlagDel:
 138              	.LFB1:
 122:C:\Micrium\Software\uCOS-III\Source\os_flag.c **** 
 123:C:\Micrium\Software\uCOS-III\Source\os_flag.c **** /*$PAGE*/
 124:C:\Micrium\Software\uCOS-III\Source\os_flag.c **** /*
 125:C:\Micrium\Software\uCOS-III\Source\os_flag.c **** ***************************************************************************************************
 126:C:\Micrium\Software\uCOS-III\Source\os_flag.c **** *                                             DELETE AN EVENT FLAG GROUP
 127:C:\Micrium\Software\uCOS-III\Source\os_flag.c **** *
 128:C:\Micrium\Software\uCOS-III\Source\os_flag.c **** * Description: This function deletes an event flag group and readies all tasks pending on the event
 129:C:\Micrium\Software\uCOS-III\Source\os_flag.c **** *
 130:C:\Micrium\Software\uCOS-III\Source\os_flag.c **** * Arguments  : p_grp     is a pointer to the desired event flag group.
 131:C:\Micrium\Software\uCOS-III\Source\os_flag.c **** *
 132:C:\Micrium\Software\uCOS-III\Source\os_flag.c **** *              opt       determines delete options as follows:
 133:C:\Micrium\Software\uCOS-III\Source\os_flag.c **** *
 134:C:\Micrium\Software\uCOS-III\Source\os_flag.c **** *                            OS_OPT_DEL_NO_PEND           Deletes the event flag group ONLY if no t
 135:C:\Micrium\Software\uCOS-III\Source\os_flag.c **** *                            OS_OPT_DEL_ALWAYS            Deletes the event flag group even if task
 136:C:\Micrium\Software\uCOS-III\Source\os_flag.c **** *                                                         In this case, all the tasks pending will 
 137:C:\Micrium\Software\uCOS-III\Source\os_flag.c **** *
 138:C:\Micrium\Software\uCOS-III\Source\os_flag.c **** *              p_err     is a pointer to an error code that can contain one of the following values
 139:C:\Micrium\Software\uCOS-III\Source\os_flag.c **** *
 140:C:\Micrium\Software\uCOS-III\Source\os_flag.c **** *                            OS_ERR_NONE                  The call was successful and the event fla
 141:C:\Micrium\Software\uCOS-III\Source\os_flag.c **** *                            OS_ERR_DEL_ISR               If you attempted to delete the event flag
 142:C:\Micrium\Software\uCOS-III\Source\os_flag.c **** *                            OS_ERR_OBJ_PTR_NULL          If 'p_grp' is a NULL pointer.
 143:C:\Micrium\Software\uCOS-III\Source\os_flag.c **** *                            OS_ERR_OBJ_TYPE              If you didn't pass a pointer to an event 
ARM GAS  C:\Users\daniel01\AppData\Local\Temp\ccFPInc7.s 			page 6


 144:C:\Micrium\Software\uCOS-III\Source\os_flag.c **** *                            OS_ERR_OPT_INVALID           An invalid option was specified
 145:C:\Micrium\Software\uCOS-III\Source\os_flag.c **** *                            OS_ERR_TASK_WAITING          One or more tasks were waiting on the eve
 146:C:\Micrium\Software\uCOS-III\Source\os_flag.c **** *
 147:C:\Micrium\Software\uCOS-III\Source\os_flag.c **** * Returns    : == 0          if no tasks were waiting on the event flag group, or upon error.
 148:C:\Micrium\Software\uCOS-III\Source\os_flag.c **** *              >  0          if one or more tasks waiting on the event flag group are now readied a
 149:C:\Micrium\Software\uCOS-III\Source\os_flag.c **** *
 150:C:\Micrium\Software\uCOS-III\Source\os_flag.c **** * Note(s)    : 1) This function must be used with care.  Tasks that would normally expect the prese
 151:C:\Micrium\Software\uCOS-III\Source\os_flag.c **** *                 group MUST check the return code of OSFlagPost and OSFlagPend().
 152:C:\Micrium\Software\uCOS-III\Source\os_flag.c **** ***************************************************************************************************
 153:C:\Micrium\Software\uCOS-III\Source\os_flag.c **** */
 154:C:\Micrium\Software\uCOS-III\Source\os_flag.c **** 
 155:C:\Micrium\Software\uCOS-III\Source\os_flag.c **** #if OS_CFG_FLAG_DEL_EN > 0u
 156:C:\Micrium\Software\uCOS-III\Source\os_flag.c **** OS_OBJ_QTY  OSFlagDel (OS_FLAG_GRP  *p_grp,
 157:C:\Micrium\Software\uCOS-III\Source\os_flag.c ****                        OS_OPT        opt,
 158:C:\Micrium\Software\uCOS-III\Source\os_flag.c ****                        OS_ERR       *p_err)
 159:C:\Micrium\Software\uCOS-III\Source\os_flag.c **** {
 139              		.loc 1 159 0
 140              		.cfi_startproc
 141              		@ args = 0, pretend = 0, frame = 40
 142              		@ frame_needed = 1, uses_anonymous_args = 0
 143 0000 80B5     		push	{r7, lr}
 144              	.LCFI3:
 145              		.cfi_def_cfa_offset 8
 146 0002 8AB0     		sub	sp, sp, #40
 147              	.LCFI4:
 148              		.cfi_def_cfa_offset 48
 149 0004 00AF     		add	r7, sp, #0
 150              		.cfi_offset 14, -4
 151              		.cfi_offset 7, -8
 152              	.LCFI5:
 153              		.cfi_def_cfa_register 7
 154 0006 F860     		str	r0, [r7, #12]
 155 0008 0B46     		mov	r3, r1
 156 000a 7A60     		str	r2, [r7, #4]
 157 000c 7B81     		strh	r3, [r7, #10]	@ movhi
 160:C:\Micrium\Software\uCOS-III\Source\os_flag.c ****     OS_OBJ_QTY        cnt;
 161:C:\Micrium\Software\uCOS-III\Source\os_flag.c ****     OS_OBJ_QTY        nbr_tasks;
 162:C:\Micrium\Software\uCOS-III\Source\os_flag.c ****     OS_PEND_DATA     *p_pend_data;
 163:C:\Micrium\Software\uCOS-III\Source\os_flag.c ****     OS_PEND_LIST     *p_pend_list;
 164:C:\Micrium\Software\uCOS-III\Source\os_flag.c ****     OS_TCB           *p_tcb;
 165:C:\Micrium\Software\uCOS-III\Source\os_flag.c ****     CPU_TS            ts;
 166:C:\Micrium\Software\uCOS-III\Source\os_flag.c ****     CPU_SR_ALLOC();
 158              		.loc 1 166 0
 159 000e 4FF00003 		mov	r3, #0
 160 0012 7B62     		str	r3, [r7, #36]
 167:C:\Micrium\Software\uCOS-III\Source\os_flag.c **** 
 168:C:\Micrium\Software\uCOS-III\Source\os_flag.c **** 
 169:C:\Micrium\Software\uCOS-III\Source\os_flag.c **** 
 170:C:\Micrium\Software\uCOS-III\Source\os_flag.c **** #ifdef OS_SAFETY_CRITICAL
 171:C:\Micrium\Software\uCOS-III\Source\os_flag.c ****     if (p_err == (OS_ERR *)0) {
 172:C:\Micrium\Software\uCOS-III\Source\os_flag.c ****         OS_SAFETY_CRITICAL_EXCEPTION();
 173:C:\Micrium\Software\uCOS-III\Source\os_flag.c ****         return ((OS_OBJ_QTY)0);
 174:C:\Micrium\Software\uCOS-III\Source\os_flag.c ****     }
 175:C:\Micrium\Software\uCOS-III\Source\os_flag.c **** #endif
 176:C:\Micrium\Software\uCOS-III\Source\os_flag.c **** 
 177:C:\Micrium\Software\uCOS-III\Source\os_flag.c **** #if OS_CFG_CALLED_FROM_ISR_CHK_EN > 0u
 178:C:\Micrium\Software\uCOS-III\Source\os_flag.c ****     if (OSIntNestingCtr > (OS_NESTING_CTR)0) {              /* See if called from ISR ...          
ARM GAS  C:\Users\daniel01\AppData\Local\Temp\ccFPInc7.s 			page 7


 161              		.loc 1 178 0
 162 0014 40F20003 		movw	r3, #:lower16:OSIntNestingCtr
 163 0018 C0F20003 		movt	r3, #:upper16:OSIntNestingCtr
 164 001c 1B78     		ldrb	r3, [r3, #0]	@ zero_extendqisi2
 165 001e 002B     		cmp	r3, #0
 166 0020 06D0     		beq	.L7
 179:C:\Micrium\Software\uCOS-III\Source\os_flag.c ****        *p_err = OS_ERR_DEL_ISR;                             /* ... can't DELETE from an ISR        
 167              		.loc 1 179 0
 168 0022 7B68     		ldr	r3, [r7, #4]
 169 0024 43F2C922 		movw	r2, #13001
 170 0028 1A80     		strh	r2, [r3, #0]	@ movhi
 180:C:\Micrium\Software\uCOS-III\Source\os_flag.c ****         return ((OS_OBJ_QTY)0);
 171              		.loc 1 180 0
 172 002a 4FF00003 		mov	r3, #0
 173 002e 8BE0     		b	.L8
 174              	.L7:
 181:C:\Micrium\Software\uCOS-III\Source\os_flag.c ****     }
 182:C:\Micrium\Software\uCOS-III\Source\os_flag.c **** #endif
 183:C:\Micrium\Software\uCOS-III\Source\os_flag.c **** 
 184:C:\Micrium\Software\uCOS-III\Source\os_flag.c **** #if OS_CFG_ARG_CHK_EN > 0u
 185:C:\Micrium\Software\uCOS-III\Source\os_flag.c ****     if (p_grp == (OS_FLAG_GRP *)0) {                        /* Validate 'p_grp'                    
 175              		.loc 1 185 0
 176 0030 FB68     		ldr	r3, [r7, #12]
 177 0032 002B     		cmp	r3, #0
 178 0034 06D1     		bne	.L9
 186:C:\Micrium\Software\uCOS-III\Source\os_flag.c ****        *p_err  = OS_ERR_OBJ_PTR_NULL;
 179              		.loc 1 186 0
 180 0036 7B68     		ldr	r3, [r7, #4]
 181 0038 45F6C352 		movw	r2, #24003
 182 003c 1A80     		strh	r2, [r3, #0]	@ movhi
 187:C:\Micrium\Software\uCOS-III\Source\os_flag.c ****         return ((OS_OBJ_QTY)0);
 183              		.loc 1 187 0
 184 003e 4FF00003 		mov	r3, #0
 185 0042 81E0     		b	.L8
 186              	.L9:
 188:C:\Micrium\Software\uCOS-III\Source\os_flag.c ****     }
 189:C:\Micrium\Software\uCOS-III\Source\os_flag.c ****     switch (opt) {                                          /* Validate 'opt'                      
 187              		.loc 1 189 0
 188 0044 7B89     		ldrh	r3, [r7, #10]
 189 0046 03F10003 		add	r3, r3, #0
 190 004a 012B     		cmp	r3, #1
 191 004c 12D8     		bhi	.L10
 190:C:\Micrium\Software\uCOS-III\Source\os_flag.c ****         case OS_OPT_DEL_NO_PEND:
 191:C:\Micrium\Software\uCOS-III\Source\os_flag.c ****         case OS_OPT_DEL_ALWAYS:
 192:C:\Micrium\Software\uCOS-III\Source\os_flag.c ****              break;
 193:C:\Micrium\Software\uCOS-III\Source\os_flag.c **** 
 194:C:\Micrium\Software\uCOS-III\Source\os_flag.c ****         default:
 195:C:\Micrium\Software\uCOS-III\Source\os_flag.c ****             *p_err = OS_ERR_OPT_INVALID;
 196:C:\Micrium\Software\uCOS-III\Source\os_flag.c ****              return ((OS_OBJ_QTY)0);
 197:C:\Micrium\Software\uCOS-III\Source\os_flag.c ****     }
 198:C:\Micrium\Software\uCOS-III\Source\os_flag.c **** #endif
 199:C:\Micrium\Software\uCOS-III\Source\os_flag.c **** 
 200:C:\Micrium\Software\uCOS-III\Source\os_flag.c **** #if OS_CFG_OBJ_TYPE_CHK_EN > 0u
 201:C:\Micrium\Software\uCOS-III\Source\os_flag.c ****     if (p_grp->Type != OS_OBJ_TYPE_FLAG) {                  /* Validate event group object         
 202:C:\Micrium\Software\uCOS-III\Source\os_flag.c ****        *p_err = OS_ERR_OBJ_TYPE;
 203:C:\Micrium\Software\uCOS-III\Source\os_flag.c ****         return ((OS_OBJ_QTY)0);
 204:C:\Micrium\Software\uCOS-III\Source\os_flag.c ****     }
ARM GAS  C:\Users\daniel01\AppData\Local\Temp\ccFPInc7.s 			page 8


 205:C:\Micrium\Software\uCOS-III\Source\os_flag.c **** #endif
 206:C:\Micrium\Software\uCOS-III\Source\os_flag.c ****     OS_CRITICAL_ENTER();
 192              		.loc 1 206 0
 193 004e FFF7FEFF 		bl	CPU_SR_Save
 194 0052 0346     		mov	r3, r0
 195 0054 7B62     		str	r3, [r7, #36]
 207:C:\Micrium\Software\uCOS-III\Source\os_flag.c ****     p_pend_list = &p_grp->PendList;
 196              		.loc 1 207 0
 197 0056 FB68     		ldr	r3, [r7, #12]
 198 0058 03F10803 		add	r3, r3, #8
 199 005c BB61     		str	r3, [r7, #24]
 208:C:\Micrium\Software\uCOS-III\Source\os_flag.c ****     cnt         = p_pend_list->NbrEntries;
 200              		.loc 1 208 0
 201 005e BB69     		ldr	r3, [r7, #24]
 202 0060 1B89     		ldrh	r3, [r3, #8]	@ movhi
 203 0062 3B82     		strh	r3, [r7, #16]	@ movhi
 209:C:\Micrium\Software\uCOS-III\Source\os_flag.c ****     nbr_tasks   = cnt;
 204              		.loc 1 209 0
 205 0064 3B8A     		ldrh	r3, [r7, #16]	@ movhi
 206 0066 7B82     		strh	r3, [r7, #18]	@ movhi
 210:C:\Micrium\Software\uCOS-III\Source\os_flag.c ****     switch (opt) {
 207              		.loc 1 210 0
 208 0068 7B89     		ldrh	r3, [r7, #10]
 209 006a 002B     		cmp	r3, #0
 210 006c 09D0     		beq	.L13
 211 006e 012B     		cmp	r3, #1
 212 0070 2DD0     		beq	.L14
 213 0072 61E0     		b	.L21
 214              	.L10:
 215              		.loc 1 195 0
 216 0074 7B68     		ldr	r3, [r7, #4]
 217 0076 45F62562 		movw	r2, #24101
 218 007a 1A80     		strh	r2, [r3, #0]	@ movhi
 219              		.loc 1 196 0
 220 007c 4FF00003 		mov	r3, #0
 221 0080 62E0     		b	.L8
 222              	.L13:
 211:C:\Micrium\Software\uCOS-III\Source\os_flag.c ****         case OS_OPT_DEL_NO_PEND:                            /* Delete group if no task waiting     
 212:C:\Micrium\Software\uCOS-III\Source\os_flag.c ****              if (nbr_tasks == (OS_OBJ_QTY)0) {
 223              		.loc 1 212 0
 224 0082 7B8A     		ldrh	r3, [r7, #18]
 225 0084 002B     		cmp	r3, #0
 226 0086 1AD1     		bne	.L15
 213:C:\Micrium\Software\uCOS-III\Source\os_flag.c **** #if OS_CFG_DBG_EN > 0u
 214:C:\Micrium\Software\uCOS-III\Source\os_flag.c ****                  OS_FlagDbgListRemove(p_grp);
 227              		.loc 1 214 0
 228 0088 F868     		ldr	r0, [r7, #12]
 229 008a FFF7FEFF 		bl	OS_FlagDbgListRemove
 215:C:\Micrium\Software\uCOS-III\Source\os_flag.c **** #endif
 216:C:\Micrium\Software\uCOS-III\Source\os_flag.c ****                  OSFlagQty--;
 230              		.loc 1 216 0
 231 008e 40F20003 		movw	r3, #:lower16:OSFlagQty
 232 0092 C0F20003 		movt	r3, #:upper16:OSFlagQty
 233 0096 1B88     		ldrh	r3, [r3, #0]
 234 0098 03F1FF33 		add	r3, r3, #-1
 235 009c 9AB2     		uxth	r2, r3
 236 009e 40F20003 		movw	r3, #:lower16:OSFlagQty
ARM GAS  C:\Users\daniel01\AppData\Local\Temp\ccFPInc7.s 			page 9


 237 00a2 C0F20003 		movt	r3, #:upper16:OSFlagQty
 238 00a6 1A80     		strh	r2, [r3, #0]	@ movhi
 217:C:\Micrium\Software\uCOS-III\Source\os_flag.c ****                  OS_FlagClr(p_grp);
 239              		.loc 1 217 0
 240 00a8 F868     		ldr	r0, [r7, #12]
 241 00aa FFF7FEFF 		bl	OS_FlagClr
 218:C:\Micrium\Software\uCOS-III\Source\os_flag.c **** 
 219:C:\Micrium\Software\uCOS-III\Source\os_flag.c ****                  OS_CRITICAL_EXIT();
 242              		.loc 1 219 0
 243 00ae 786A     		ldr	r0, [r7, #36]
 244 00b0 FFF7FEFF 		bl	CPU_SR_Restore
 220:C:\Micrium\Software\uCOS-III\Source\os_flag.c ****                 *p_err = OS_ERR_NONE;
 245              		.loc 1 220 0
 246 00b4 7B68     		ldr	r3, [r7, #4]
 247 00b6 4FF00002 		mov	r2, #0
 248 00ba 1A80     		strh	r2, [r3, #0]	@ movhi
 221:C:\Micrium\Software\uCOS-III\Source\os_flag.c ****              } else {
 222:C:\Micrium\Software\uCOS-III\Source\os_flag.c ****                  OS_CRITICAL_EXIT();
 223:C:\Micrium\Software\uCOS-III\Source\os_flag.c ****                 *p_err = OS_ERR_TASK_WAITING;
 224:C:\Micrium\Software\uCOS-III\Source\os_flag.c ****              }
 225:C:\Micrium\Software\uCOS-III\Source\os_flag.c ****              break;
 249              		.loc 1 225 0
 250 00bc 43E0     		b	.L17
 251              	.L15:
 252              		.loc 1 222 0
 253 00be 786A     		ldr	r0, [r7, #36]
 254 00c0 FFF7FEFF 		bl	CPU_SR_Restore
 255              		.loc 1 223 0
 256 00c4 7B68     		ldr	r3, [r7, #4]
 257 00c6 47F25F12 		movw	r2, #29023
 258 00ca 1A80     		strh	r2, [r3, #0]	@ movhi
 259              		.loc 1 225 0
 260 00cc 3BE0     		b	.L17
 261              	.L14:
 226:C:\Micrium\Software\uCOS-III\Source\os_flag.c **** 
 227:C:\Micrium\Software\uCOS-III\Source\os_flag.c ****         case OS_OPT_DEL_ALWAYS:                             /* Always delete the event flag group  
 228:C:\Micrium\Software\uCOS-III\Source\os_flag.c ****              ts = OS_TS_GET();                              /* Get local time stamp so all tasks ge
 262              		.loc 1 228 0
 263 00ce FFF7FEFF 		bl	CPU_TS_TmrRd
 264 00d2 0346     		mov	r3, r0
 265 00d4 3B62     		str	r3, [r7, #32]
 229:C:\Micrium\Software\uCOS-III\Source\os_flag.c ****              while (cnt > 0u) {                             /* Remove all tasks from the pend list 
 266              		.loc 1 229 0
 267 00d6 0FE0     		b	.L18
 268              	.L19:
 230:C:\Micrium\Software\uCOS-III\Source\os_flag.c ****                  p_pend_data = p_pend_list->HeadPtr;
 269              		.loc 1 230 0
 270 00d8 BB69     		ldr	r3, [r7, #24]
 271 00da 1B68     		ldr	r3, [r3, #0]
 272 00dc 7B61     		str	r3, [r7, #20]
 231:C:\Micrium\Software\uCOS-III\Source\os_flag.c ****                  p_tcb       = p_pend_data->TCBPtr;
 273              		.loc 1 231 0
 274 00de 7B69     		ldr	r3, [r7, #20]
 275 00e0 9B68     		ldr	r3, [r3, #8]
 276 00e2 FB61     		str	r3, [r7, #28]
 232:C:\Micrium\Software\uCOS-III\Source\os_flag.c ****                  OS_PendObjDel((OS_PEND_OBJ *)((void *)p_grp),
 277              		.loc 1 232 0
ARM GAS  C:\Users\daniel01\AppData\Local\Temp\ccFPInc7.s 			page 10


 278 00e4 FB68     		ldr	r3, [r7, #12]
 279 00e6 1846     		mov	r0, r3
 280 00e8 F969     		ldr	r1, [r7, #28]
 281 00ea 3A6A     		ldr	r2, [r7, #32]
 282 00ec FFF7FEFF 		bl	OS_PendObjDel
 233:C:\Micrium\Software\uCOS-III\Source\os_flag.c ****                                p_tcb,
 234:C:\Micrium\Software\uCOS-III\Source\os_flag.c ****                                ts);
 235:C:\Micrium\Software\uCOS-III\Source\os_flag.c ****                  cnt--;
 283              		.loc 1 235 0
 284 00f0 3B8A     		ldrh	r3, [r7, #16]	@ movhi
 285 00f2 03F1FF33 		add	r3, r3, #-1
 286 00f6 3B82     		strh	r3, [r7, #16]	@ movhi
 287              	.L18:
 288              		.loc 1 229 0
 289 00f8 3B8A     		ldrh	r3, [r7, #16]
 290 00fa 002B     		cmp	r3, #0
 291 00fc ECD1     		bne	.L19
 236:C:\Micrium\Software\uCOS-III\Source\os_flag.c ****              }
 237:C:\Micrium\Software\uCOS-III\Source\os_flag.c **** #if OS_CFG_DBG_EN > 0u
 238:C:\Micrium\Software\uCOS-III\Source\os_flag.c ****              OS_FlagDbgListRemove(p_grp);
 292              		.loc 1 238 0
 293 00fe F868     		ldr	r0, [r7, #12]
 294 0100 FFF7FEFF 		bl	OS_FlagDbgListRemove
 239:C:\Micrium\Software\uCOS-III\Source\os_flag.c **** #endif
 240:C:\Micrium\Software\uCOS-III\Source\os_flag.c ****              OSFlagQty--;
 295              		.loc 1 240 0
 296 0104 40F20003 		movw	r3, #:lower16:OSFlagQty
 297 0108 C0F20003 		movt	r3, #:upper16:OSFlagQty
 298 010c 1B88     		ldrh	r3, [r3, #0]
 299 010e 03F1FF33 		add	r3, r3, #-1
 300 0112 9AB2     		uxth	r2, r3
 301 0114 40F20003 		movw	r3, #:lower16:OSFlagQty
 302 0118 C0F20003 		movt	r3, #:upper16:OSFlagQty
 303 011c 1A80     		strh	r2, [r3, #0]	@ movhi
 241:C:\Micrium\Software\uCOS-III\Source\os_flag.c ****              OS_FlagClr(p_grp);
 304              		.loc 1 241 0
 305 011e F868     		ldr	r0, [r7, #12]
 306 0120 FFF7FEFF 		bl	OS_FlagClr
 242:C:\Micrium\Software\uCOS-III\Source\os_flag.c ****              OS_CRITICAL_EXIT_NO_SCHED();
 307              		.loc 1 242 0
 308 0124 786A     		ldr	r0, [r7, #36]
 309 0126 FFF7FEFF 		bl	CPU_SR_Restore
 243:C:\Micrium\Software\uCOS-III\Source\os_flag.c ****              OSSched();                                     /* Find highest priority task ready to 
 310              		.loc 1 243 0
 311 012a FFF7FEFF 		bl	OSSched
 244:C:\Micrium\Software\uCOS-III\Source\os_flag.c ****             *p_err = OS_ERR_NONE;
 312              		.loc 1 244 0
 313 012e 7B68     		ldr	r3, [r7, #4]
 314 0130 4FF00002 		mov	r2, #0
 315 0134 1A80     		strh	r2, [r3, #0]	@ movhi
 245:C:\Micrium\Software\uCOS-III\Source\os_flag.c ****              break;
 316              		.loc 1 245 0
 317 0136 06E0     		b	.L17
 318              	.L21:
 246:C:\Micrium\Software\uCOS-III\Source\os_flag.c **** 
 247:C:\Micrium\Software\uCOS-III\Source\os_flag.c ****         default:
 248:C:\Micrium\Software\uCOS-III\Source\os_flag.c ****              OS_CRITICAL_EXIT();
ARM GAS  C:\Users\daniel01\AppData\Local\Temp\ccFPInc7.s 			page 11


 319              		.loc 1 248 0
 320 0138 786A     		ldr	r0, [r7, #36]
 321 013a FFF7FEFF 		bl	CPU_SR_Restore
 249:C:\Micrium\Software\uCOS-III\Source\os_flag.c ****             *p_err = OS_ERR_OPT_INVALID;
 322              		.loc 1 249 0
 323 013e 7B68     		ldr	r3, [r7, #4]
 324 0140 45F62562 		movw	r2, #24101
 325 0144 1A80     		strh	r2, [r3, #0]	@ movhi
 326              	.L17:
 250:C:\Micrium\Software\uCOS-III\Source\os_flag.c ****              break;
 251:C:\Micrium\Software\uCOS-III\Source\os_flag.c ****     }
 252:C:\Micrium\Software\uCOS-III\Source\os_flag.c ****     return (nbr_tasks);
 327              		.loc 1 252 0
 328 0146 7B8A     		ldrh	r3, [r7, #18]
 329              	.L8:
 253:C:\Micrium\Software\uCOS-III\Source\os_flag.c **** }
 330              		.loc 1 253 0
 331 0148 1846     		mov	r0, r3
 332 014a 07F12807 		add	r7, r7, #40
 333 014e BD46     		mov	sp, r7
 334 0150 80BD     		pop	{r7, pc}
 335              		.cfi_endproc
 336              	.LFE1:
 337              		.size	OSFlagDel, .-OSFlagDel
 338 0152 00BF     		.section	.text.OSFlagPend,"ax",%progbits
 339              		.align	2
 340              		.global	OSFlagPend
 341              		.thumb
 342              		.thumb_func
 343              		.type	OSFlagPend, %function
 344              	OSFlagPend:
 345              	.LFB2:
 254:C:\Micrium\Software\uCOS-III\Source\os_flag.c **** #endif
 255:C:\Micrium\Software\uCOS-III\Source\os_flag.c **** 
 256:C:\Micrium\Software\uCOS-III\Source\os_flag.c **** /*
 257:C:\Micrium\Software\uCOS-III\Source\os_flag.c **** ***************************************************************************************************
 258:C:\Micrium\Software\uCOS-III\Source\os_flag.c **** *                                             WAIT ON AN EVENT FLAG GROUP
 259:C:\Micrium\Software\uCOS-III\Source\os_flag.c **** *
 260:C:\Micrium\Software\uCOS-III\Source\os_flag.c **** * Description: This function is called to wait for a combination of bits to be set in an event flag
 261:C:\Micrium\Software\uCOS-III\Source\os_flag.c **** *              application can wait for ANY bit to be set or ALL bits to be set.
 262:C:\Micrium\Software\uCOS-III\Source\os_flag.c **** *
 263:C:\Micrium\Software\uCOS-III\Source\os_flag.c **** * Arguments  : p_grp         is a pointer to the desired event flag group.
 264:C:\Micrium\Software\uCOS-III\Source\os_flag.c **** *
 265:C:\Micrium\Software\uCOS-III\Source\os_flag.c **** *              flags         Is a bit pattern indicating which bit(s) (i.e. flags) you wish to wait
 266:C:\Micrium\Software\uCOS-III\Source\os_flag.c **** *                            The bits you want are specified by setting the corresponding bits in '
 267:C:\Micrium\Software\uCOS-III\Source\os_flag.c **** *                            e.g. if your application wants to wait for bits 0 and 1 then 'flags' w
 268:C:\Micrium\Software\uCOS-III\Source\os_flag.c **** *
 269:C:\Micrium\Software\uCOS-III\Source\os_flag.c **** *              timeout       is an optional timeout (in clock ticks) that your task will wait for t
 270:C:\Micrium\Software\uCOS-III\Source\os_flag.c **** *                            desired bit combination.  If you specify 0, however, your task will wa
 271:C:\Micrium\Software\uCOS-III\Source\os_flag.c **** *                            forever at the specified event flag group or, until a message arrives.
 272:C:\Micrium\Software\uCOS-III\Source\os_flag.c **** *
 273:C:\Micrium\Software\uCOS-III\Source\os_flag.c **** *              opt           specifies whether you want ALL bits to be set or ANY of the bits to be
 274:C:\Micrium\Software\uCOS-III\Source\os_flag.c **** *                            You can specify the 'ONE' of the following arguments:
 275:C:\Micrium\Software\uCOS-III\Source\os_flag.c **** *
 276:C:\Micrium\Software\uCOS-III\Source\os_flag.c **** *                                OS_OPT_PEND_FLAG_CLR_ALL   You will wait for ALL bits in 'flags' t
 277:C:\Micrium\Software\uCOS-III\Source\os_flag.c **** *                                OS_OPT_PEND_FLAG_CLR_ANY   You will wait for ANY bit  in 'flags' t
 278:C:\Micrium\Software\uCOS-III\Source\os_flag.c **** *                                OS_OPT_PEND_FLAG_SET_ALL   You will wait for ALL bits in 'flags' t
ARM GAS  C:\Users\daniel01\AppData\Local\Temp\ccFPInc7.s 			page 12


 279:C:\Micrium\Software\uCOS-III\Source\os_flag.c **** *                                OS_OPT_PEND_FLAG_SET_ANY   You will wait for ANY bit  in 'flags' t
 280:C:\Micrium\Software\uCOS-III\Source\os_flag.c **** *
 281:C:\Micrium\Software\uCOS-III\Source\os_flag.c **** *                            You can 'ADD' OS_OPT_PEND_FLAG_CONSUME if you want the event flag to b
 282:C:\Micrium\Software\uCOS-III\Source\os_flag.c **** *                                      the call.  Example, to wait for any flag in a group AND then
 283:C:\Micrium\Software\uCOS-III\Source\os_flag.c **** *                                      the flags that are present, set 'wait_opt' to:
 284:C:\Micrium\Software\uCOS-III\Source\os_flag.c **** *
 285:C:\Micrium\Software\uCOS-III\Source\os_flag.c **** *                                      OS_OPT_PEND_FLAG_SET_ANY + OS_OPT_PEND_FLAG_CONSUME
 286:C:\Micrium\Software\uCOS-III\Source\os_flag.c **** *
 287:C:\Micrium\Software\uCOS-III\Source\os_flag.c **** *                            You can also 'ADD' the type of pend with 'ONE' of the two option:
 288:C:\Micrium\Software\uCOS-III\Source\os_flag.c **** *
 289:C:\Micrium\Software\uCOS-III\Source\os_flag.c **** *                                OS_OPT_PEND_NON_BLOCKING   Task will NOT block if flags are not av
 290:C:\Micrium\Software\uCOS-III\Source\os_flag.c **** *                                OS_OPT_PEND_BLOCKING       Task will     block if flags are not av
 291:C:\Micrium\Software\uCOS-III\Source\os_flag.c **** *
 292:C:\Micrium\Software\uCOS-III\Source\os_flag.c **** *              p_ts          is a pointer to a variable that will receive the timestamp of when the
 293:C:\Micrium\Software\uCOS-III\Source\os_flag.c **** *                            posted, aborted or the event flag group deleted.  If you pass a NULL p
 294:C:\Micrium\Software\uCOS-III\Source\os_flag.c **** *                            then you will not get the timestamp.  In other words, passing a NULL p
 295:C:\Micrium\Software\uCOS-III\Source\os_flag.c **** *                            indicates that you don't need the timestamp.
 296:C:\Micrium\Software\uCOS-III\Source\os_flag.c **** *
 297:C:\Micrium\Software\uCOS-III\Source\os_flag.c **** *              p_err         is a pointer to an error code and can be:
 298:C:\Micrium\Software\uCOS-III\Source\os_flag.c **** *
 299:C:\Micrium\Software\uCOS-III\Source\os_flag.c **** *                                OS_ERR_NONE                The desired bits have been set within t
 300:C:\Micrium\Software\uCOS-III\Source\os_flag.c **** *                                OS_ERR_OBJ_PTR_NULL        If 'p_grp' is a NULL pointer.
 301:C:\Micrium\Software\uCOS-III\Source\os_flag.c **** *                                OS_ERR_OBJ_TYPE            You are not pointing to an event flag g
 302:C:\Micrium\Software\uCOS-III\Source\os_flag.c **** *                                OS_ERR_OPT_INVALID         You didn't specify a proper 'opt' argum
 303:C:\Micrium\Software\uCOS-III\Source\os_flag.c **** *                                OS_ERR_PEND_ABORT          The wait on the flag was aborted.
 304:C:\Micrium\Software\uCOS-III\Source\os_flag.c **** *                                OS_ERR_PEND_ISR            If you tried to PEND from an ISR
 305:C:\Micrium\Software\uCOS-III\Source\os_flag.c **** *                                OS_ERR_PEND_WOULD_BLOCK    If you specified non-blocking but the f
 306:C:\Micrium\Software\uCOS-III\Source\os_flag.c **** *                                                           available.
 307:C:\Micrium\Software\uCOS-III\Source\os_flag.c **** *                                OS_ERR_SCHED_LOCKED        If you called this function when the sc
 308:C:\Micrium\Software\uCOS-III\Source\os_flag.c **** *                                OS_ERR_TIMEOUT             The bit(s) have not been set in the spe
 309:C:\Micrium\Software\uCOS-III\Source\os_flag.c **** *
 310:C:\Micrium\Software\uCOS-III\Source\os_flag.c **** * Returns    : The flags in the event flag group that made the task ready or, 0 if a timeout or an 
 311:C:\Micrium\Software\uCOS-III\Source\os_flag.c **** *              occurred.
 312:C:\Micrium\Software\uCOS-III\Source\os_flag.c **** ***************************************************************************************************
 313:C:\Micrium\Software\uCOS-III\Source\os_flag.c **** */
 314:C:\Micrium\Software\uCOS-III\Source\os_flag.c **** 
 315:C:\Micrium\Software\uCOS-III\Source\os_flag.c **** OS_FLAGS  OSFlagPend (OS_FLAG_GRP  *p_grp,
 316:C:\Micrium\Software\uCOS-III\Source\os_flag.c ****                       OS_FLAGS      flags,
 317:C:\Micrium\Software\uCOS-III\Source\os_flag.c ****                       OS_TICK       timeout,
 318:C:\Micrium\Software\uCOS-III\Source\os_flag.c ****                       OS_OPT        opt,
 319:C:\Micrium\Software\uCOS-III\Source\os_flag.c ****                       CPU_TS       *p_ts,
 320:C:\Micrium\Software\uCOS-III\Source\os_flag.c ****                       OS_ERR       *p_err)
 321:C:\Micrium\Software\uCOS-III\Source\os_flag.c **** {
 346              		.loc 1 321 0
 347              		.cfi_startproc
 348              		@ args = 8, pretend = 0, frame = 64
 349              		@ frame_needed = 1, uses_anonymous_args = 0
 350 0000 80B5     		push	{r7, lr}
 351              	.LCFI6:
 352              		.cfi_def_cfa_offset 8
 353 0002 92B0     		sub	sp, sp, #72
 354              	.LCFI7:
 355              		.cfi_def_cfa_offset 80
 356 0004 02AF     		add	r7, sp, #8
 357              		.cfi_offset 14, -4
 358              		.cfi_offset 7, -8
 359              	.LCFI8:
ARM GAS  C:\Users\daniel01\AppData\Local\Temp\ccFPInc7.s 			page 13


 360              		.cfi_def_cfa 7, 72
 361 0006 F860     		str	r0, [r7, #12]
 362 0008 B960     		str	r1, [r7, #8]
 363 000a 7A60     		str	r2, [r7, #4]
 364 000c 7B80     		strh	r3, [r7, #2]	@ movhi
 322:C:\Micrium\Software\uCOS-III\Source\os_flag.c ****     CPU_BOOLEAN   consume;
 323:C:\Micrium\Software\uCOS-III\Source\os_flag.c ****     OS_FLAGS      flags_rdy;
 324:C:\Micrium\Software\uCOS-III\Source\os_flag.c ****     OS_OPT        mode;
 325:C:\Micrium\Software\uCOS-III\Source\os_flag.c ****     OS_PEND_DATA  pend_data;
 326:C:\Micrium\Software\uCOS-III\Source\os_flag.c ****     CPU_SR_ALLOC();
 365              		.loc 1 326 0
 366 000e 4FF00003 		mov	r3, #0
 367 0012 FB63     		str	r3, [r7, #60]
 327:C:\Micrium\Software\uCOS-III\Source\os_flag.c **** 
 328:C:\Micrium\Software\uCOS-III\Source\os_flag.c **** 
 329:C:\Micrium\Software\uCOS-III\Source\os_flag.c **** 
 330:C:\Micrium\Software\uCOS-III\Source\os_flag.c **** #ifdef OS_SAFETY_CRITICAL
 331:C:\Micrium\Software\uCOS-III\Source\os_flag.c ****     if (p_err == (OS_ERR *)0) {
 332:C:\Micrium\Software\uCOS-III\Source\os_flag.c ****         OS_SAFETY_CRITICAL_EXCEPTION();
 333:C:\Micrium\Software\uCOS-III\Source\os_flag.c ****         return ((OS_FLAGS)0);
 334:C:\Micrium\Software\uCOS-III\Source\os_flag.c ****     }
 335:C:\Micrium\Software\uCOS-III\Source\os_flag.c **** #endif
 336:C:\Micrium\Software\uCOS-III\Source\os_flag.c **** 
 337:C:\Micrium\Software\uCOS-III\Source\os_flag.c **** #if OS_CFG_CALLED_FROM_ISR_CHK_EN > 0u
 338:C:\Micrium\Software\uCOS-III\Source\os_flag.c ****     if (OSIntNestingCtr > (OS_NESTING_CTR)0) {              /* See if called from ISR ...          
 368              		.loc 1 338 0
 369 0014 40F20003 		movw	r3, #:lower16:OSIntNestingCtr
 370 0018 C0F20003 		movt	r3, #:upper16:OSIntNestingCtr
 371 001c 1B78     		ldrb	r3, [r3, #0]	@ zero_extendqisi2
 372 001e 002B     		cmp	r3, #0
 373 0020 06D0     		beq	.L23
 339:C:\Micrium\Software\uCOS-III\Source\os_flag.c ****        *p_err = OS_ERR_PEND_ISR;                            /* ... can't PEND from an ISR          
 374              		.loc 1 339 0
 375 0022 FB6C     		ldr	r3, [r7, #76]
 376 0024 46F2AE12 		movw	r2, #25006
 377 0028 1A80     		strh	r2, [r3, #0]	@ movhi
 340:C:\Micrium\Software\uCOS-III\Source\os_flag.c ****         return ((OS_FLAGS)0);
 378              		.loc 1 340 0
 379 002a 4FF00003 		mov	r3, #0
 380 002e BBE2     		b	.L24
 381              	.L23:
 341:C:\Micrium\Software\uCOS-III\Source\os_flag.c ****     }
 342:C:\Micrium\Software\uCOS-III\Source\os_flag.c **** #endif
 343:C:\Micrium\Software\uCOS-III\Source\os_flag.c **** 
 344:C:\Micrium\Software\uCOS-III\Source\os_flag.c **** #if OS_CFG_ARG_CHK_EN > 0u
 345:C:\Micrium\Software\uCOS-III\Source\os_flag.c ****     if (p_grp == (OS_FLAG_GRP *)0) {                        /* Validate 'p_grp'                    
 382              		.loc 1 345 0
 383 0030 FB68     		ldr	r3, [r7, #12]
 384 0032 002B     		cmp	r3, #0
 385 0034 06D1     		bne	.L25
 346:C:\Micrium\Software\uCOS-III\Source\os_flag.c ****        *p_err = OS_ERR_OBJ_PTR_NULL;
 386              		.loc 1 346 0
 387 0036 FB6C     		ldr	r3, [r7, #76]
 388 0038 45F6C352 		movw	r2, #24003
 389 003c 1A80     		strh	r2, [r3, #0]	@ movhi
 347:C:\Micrium\Software\uCOS-III\Source\os_flag.c ****         return ((OS_FLAGS)0);
 390              		.loc 1 347 0
ARM GAS  C:\Users\daniel01\AppData\Local\Temp\ccFPInc7.s 			page 14


 391 003e 4FF00003 		mov	r3, #0
 392 0042 B1E2     		b	.L24
 393              	.L25:
 348:C:\Micrium\Software\uCOS-III\Source\os_flag.c ****     }
 349:C:\Micrium\Software\uCOS-III\Source\os_flag.c ****     switch (opt) {                                          /* Validate 'opt'                      
 394              		.loc 1 349 0
 395 0044 7B88     		ldrh	r3, [r7, #2]
 396 0046 B3F5847F 		cmp	r3, #264
 397 004a 41D0     		beq	.L27
 398 004c B3F5847F 		cmp	r3, #264
 399 0050 15DC     		bgt	.L28
 400 0052 082B     		cmp	r3, #8
 401 0054 3CD0     		beq	.L27
 402 0056 082B     		cmp	r3, #8
 403 0058 06DC     		bgt	.L29
 404 005a 012B     		cmp	r3, #1
 405 005c 3EDB     		blt	.L26
 406 005e 022B     		cmp	r3, #2
 407 0060 36DD     		ble	.L27
 408 0062 042B     		cmp	r3, #4
 409 0064 34D0     		beq	.L27
 410 0066 39E0     		b	.L26
 411              	.L29:
 412 0068 40F20112 		movw	r2, #257
 413 006c 9342     		cmp	r3, r2
 414 006e 35DB     		blt	.L26
 415 0070 B3F5817F 		cmp	r3, #258
 416 0074 2CDD     		ble	.L27
 417 0076 B3F5827F 		cmp	r3, #260
 418 007a 29D0     		beq	.L27
 419 007c 2EE0     		b	.L26
 420              	.L28:
 421 007e 48F20802 		movw	r2, #32776
 422 0082 9342     		cmp	r3, r2
 423 0084 24D0     		beq	.L27
 424 0086 48F20802 		movw	r2, #32776
 425 008a 9342     		cmp	r3, r2
 426 008c 0CDC     		bgt	.L30
 427 008e 48F20102 		movw	r2, #32769
 428 0092 9342     		cmp	r3, r2
 429 0094 22DB     		blt	.L26
 430 0096 48F20202 		movw	r2, #32770
 431 009a 9342     		cmp	r3, r2
 432 009c 18DD     		ble	.L27
 433 009e 48F20402 		movw	r2, #32772
 434 00a2 9342     		cmp	r3, r2
 435 00a4 14D0     		beq	.L27
 436 00a6 19E0     		b	.L26
 437              	.L30:
 438 00a8 48F20412 		movw	r2, #33028
 439 00ac 9342     		cmp	r3, r2
 440 00ae 0FD0     		beq	.L27
 441 00b0 48F20412 		movw	r2, #33028
 442 00b4 9342     		cmp	r3, r2
 443 00b6 07DC     		bgt	.L31
 444 00b8 47F6FF62 		movw	r2, #:lower16:-33025
 445 00bc CFF6FF72 		movt	r2, #:upper16:-33025
ARM GAS  C:\Users\daniel01\AppData\Local\Temp\ccFPInc7.s 			page 15


 446 00c0 1A44     		add	r2, r3, r2
 447 00c2 012A     		cmp	r2, #1
 448 00c4 0AD8     		bhi	.L26
 449 00c6 03E0     		b	.L27
 450              	.L31:
 451 00c8 48F20812 		movw	r2, #33032
 452 00cc 9342     		cmp	r3, r2
 453 00ce 05D1     		bne	.L26
 454              	.L27:
 350:C:\Micrium\Software\uCOS-III\Source\os_flag.c ****         case OS_OPT_PEND_FLAG_CLR_ALL:
 351:C:\Micrium\Software\uCOS-III\Source\os_flag.c ****         case OS_OPT_PEND_FLAG_CLR_ANY:
 352:C:\Micrium\Software\uCOS-III\Source\os_flag.c ****         case OS_OPT_PEND_FLAG_SET_ALL:
 353:C:\Micrium\Software\uCOS-III\Source\os_flag.c ****         case OS_OPT_PEND_FLAG_SET_ANY:
 354:C:\Micrium\Software\uCOS-III\Source\os_flag.c ****         case OS_OPT_PEND_FLAG_CLR_ALL | OS_OPT_PEND_FLAG_CONSUME:
 355:C:\Micrium\Software\uCOS-III\Source\os_flag.c ****         case OS_OPT_PEND_FLAG_CLR_ANY | OS_OPT_PEND_FLAG_CONSUME:
 356:C:\Micrium\Software\uCOS-III\Source\os_flag.c ****         case OS_OPT_PEND_FLAG_SET_ALL | OS_OPT_PEND_FLAG_CONSUME:
 357:C:\Micrium\Software\uCOS-III\Source\os_flag.c ****         case OS_OPT_PEND_FLAG_SET_ANY | OS_OPT_PEND_FLAG_CONSUME:
 358:C:\Micrium\Software\uCOS-III\Source\os_flag.c ****         case OS_OPT_PEND_FLAG_CLR_ALL | OS_OPT_PEND_NON_BLOCKING:
 359:C:\Micrium\Software\uCOS-III\Source\os_flag.c ****         case OS_OPT_PEND_FLAG_CLR_ANY | OS_OPT_PEND_NON_BLOCKING:
 360:C:\Micrium\Software\uCOS-III\Source\os_flag.c ****         case OS_OPT_PEND_FLAG_SET_ALL | OS_OPT_PEND_NON_BLOCKING:
 361:C:\Micrium\Software\uCOS-III\Source\os_flag.c ****         case OS_OPT_PEND_FLAG_SET_ANY | OS_OPT_PEND_NON_BLOCKING:
 362:C:\Micrium\Software\uCOS-III\Source\os_flag.c ****         case OS_OPT_PEND_FLAG_CLR_ALL | OS_OPT_PEND_FLAG_CONSUME | OS_OPT_PEND_NON_BLOCKING:
 363:C:\Micrium\Software\uCOS-III\Source\os_flag.c ****         case OS_OPT_PEND_FLAG_CLR_ANY | OS_OPT_PEND_FLAG_CONSUME | OS_OPT_PEND_NON_BLOCKING:
 364:C:\Micrium\Software\uCOS-III\Source\os_flag.c ****         case OS_OPT_PEND_FLAG_SET_ALL | OS_OPT_PEND_FLAG_CONSUME | OS_OPT_PEND_NON_BLOCKING:
 365:C:\Micrium\Software\uCOS-III\Source\os_flag.c ****         case OS_OPT_PEND_FLAG_SET_ANY | OS_OPT_PEND_FLAG_CONSUME | OS_OPT_PEND_NON_BLOCKING:
 366:C:\Micrium\Software\uCOS-III\Source\os_flag.c ****              break;
 367:C:\Micrium\Software\uCOS-III\Source\os_flag.c **** 
 368:C:\Micrium\Software\uCOS-III\Source\os_flag.c ****         default:
 369:C:\Micrium\Software\uCOS-III\Source\os_flag.c ****             *p_err = OS_ERR_OPT_INVALID;
 370:C:\Micrium\Software\uCOS-III\Source\os_flag.c ****              return ((OS_OBJ_QTY)0);
 371:C:\Micrium\Software\uCOS-III\Source\os_flag.c ****     }
 372:C:\Micrium\Software\uCOS-III\Source\os_flag.c **** #endif
 373:C:\Micrium\Software\uCOS-III\Source\os_flag.c **** 
 374:C:\Micrium\Software\uCOS-III\Source\os_flag.c **** #if OS_CFG_OBJ_TYPE_CHK_EN > 0u
 375:C:\Micrium\Software\uCOS-III\Source\os_flag.c ****     if (p_grp->Type != OS_OBJ_TYPE_FLAG) {                  /* Validate that we are pointing at an 
 376:C:\Micrium\Software\uCOS-III\Source\os_flag.c ****        *p_err = OS_ERR_OBJ_TYPE;
 377:C:\Micrium\Software\uCOS-III\Source\os_flag.c ****         return ((OS_FLAGS)0);
 378:C:\Micrium\Software\uCOS-III\Source\os_flag.c ****     }
 379:C:\Micrium\Software\uCOS-III\Source\os_flag.c **** #endif
 380:C:\Micrium\Software\uCOS-III\Source\os_flag.c **** 
 381:C:\Micrium\Software\uCOS-III\Source\os_flag.c ****     if ((opt & OS_OPT_PEND_FLAG_CONSUME) != (OS_OPT)0) {    /* See if we need to consume the flags 
 455              		.loc 1 381 0
 456 00d0 7B88     		ldrh	r3, [r7, #2]
 457 00d2 03F48073 		and	r3, r3, #256
 458 00d6 002B     		cmp	r3, #0
 459 00d8 07D1     		bne	.L32
 460 00da 0BE0     		b	.L81
 461              	.L26:
 462              		.loc 1 369 0
 463 00dc FB6C     		ldr	r3, [r7, #76]
 464 00de 45F62562 		movw	r2, #24101
 465 00e2 1A80     		strh	r2, [r3, #0]	@ movhi
 466              		.loc 1 370 0
 467 00e4 4FF00003 		mov	r3, #0
 468 00e8 5EE2     		b	.L24
 469              	.L32:
 382:C:\Micrium\Software\uCOS-III\Source\os_flag.c ****         consume = DEF_TRUE;
ARM GAS  C:\Users\daniel01\AppData\Local\Temp\ccFPInc7.s 			page 16


 470              		.loc 1 382 0
 471 00ea 4FF00103 		mov	r3, #1
 472 00ee 87F83330 		strb	r3, [r7, #51]
 473 00f2 03E0     		b	.L34
 474              	.L81:
 383:C:\Micrium\Software\uCOS-III\Source\os_flag.c ****     } else {
 384:C:\Micrium\Software\uCOS-III\Source\os_flag.c ****         consume = DEF_FALSE;
 475              		.loc 1 384 0
 476 00f4 4FF00003 		mov	r3, #0
 477 00f8 87F83330 		strb	r3, [r7, #51]
 478              	.L34:
 385:C:\Micrium\Software\uCOS-III\Source\os_flag.c ****     }
 386:C:\Micrium\Software\uCOS-III\Source\os_flag.c **** 
 387:C:\Micrium\Software\uCOS-III\Source\os_flag.c ****     if (p_ts != (CPU_TS *)0) {
 479              		.loc 1 387 0
 480 00fc BB6C     		ldr	r3, [r7, #72]
 481 00fe 002B     		cmp	r3, #0
 482 0100 03D0     		beq	.L35
 388:C:\Micrium\Software\uCOS-III\Source\os_flag.c ****        *p_ts = (CPU_TS)0;                                   /* Initialize the returned timestamp   
 483              		.loc 1 388 0
 484 0102 BB6C     		ldr	r3, [r7, #72]
 485 0104 4FF00002 		mov	r2, #0
 486 0108 1A60     		str	r2, [r3, #0]
 487              	.L35:
 389:C:\Micrium\Software\uCOS-III\Source\os_flag.c ****     }
 390:C:\Micrium\Software\uCOS-III\Source\os_flag.c **** 
 391:C:\Micrium\Software\uCOS-III\Source\os_flag.c ****     mode = opt & OS_OPT_PEND_FLAG_MASK;
 488              		.loc 1 391 0
 489 010a 7B88     		ldrh	r3, [r7, #2]	@ movhi
 490 010c 03F00F03 		and	r3, r3, #15
 491 0110 7B87     		strh	r3, [r7, #58]	@ movhi
 392:C:\Micrium\Software\uCOS-III\Source\os_flag.c ****     CPU_CRITICAL_ENTER();
 492              		.loc 1 392 0
 493 0112 FFF7FEFF 		bl	CPU_SR_Save
 494 0116 0346     		mov	r3, r0
 495 0118 FB63     		str	r3, [r7, #60]
 393:C:\Micrium\Software\uCOS-III\Source\os_flag.c ****     switch (mode) {
 496              		.loc 1 393 0
 497 011a 7B8F     		ldrh	r3, [r7, #58]
 498 011c 03F1FF33 		add	r3, r3, #-1
 499 0120 072B     		cmp	r3, #7
 500 0122 00F28181 		bhi	.L36
 501 0126 01A2     		adr	r2, .L41
 502 0128 52F823F0 		ldr	pc, [r2, r3, lsl #2]
 503              		.align	2
 504              	.L41:
 505 012c BB020000 		.word	.L37+1
 506 0130 73030000 		.word	.L38+1
 507 0134 29040000 		.word	.L36+1
 508 0138 4D010000 		.word	.L39+1
 509 013c 29040000 		.word	.L36+1
 510 0140 29040000 		.word	.L36+1
 511 0144 29040000 		.word	.L36+1
 512 0148 05020000 		.word	.L40+1
 513              	.L39:
 394:C:\Micrium\Software\uCOS-III\Source\os_flag.c ****         case OS_OPT_PEND_FLAG_SET_ALL:                      /* See if all required flags are set   
 395:C:\Micrium\Software\uCOS-III\Source\os_flag.c ****              flags_rdy = (OS_FLAGS)(p_grp->Flags & flags);  /* Extract only the bits we want       
ARM GAS  C:\Users\daniel01\AppData\Local\Temp\ccFPInc7.s 			page 17


 514              		.loc 1 395 0
 515 014c FB68     		ldr	r3, [r7, #12]
 516 014e 1A6A     		ldr	r2, [r3, #32]
 517 0150 BB68     		ldr	r3, [r7, #8]
 518 0152 02EA0303 		and	r3, r2, r3
 519 0156 7B63     		str	r3, [r7, #52]
 396:C:\Micrium\Software\uCOS-III\Source\os_flag.c ****              if (flags_rdy == flags) {                      /* Must match ALL the bits that we want
 520              		.loc 1 396 0
 521 0158 7A6B     		ldr	r2, [r7, #52]
 522 015a BB68     		ldr	r3, [r7, #8]
 523 015c 9A42     		cmp	r2, r3
 524 015e 24D1     		bne	.L42
 397:C:\Micrium\Software\uCOS-III\Source\os_flag.c ****                  if (consume == DEF_TRUE) {                 /* See if we need to consume the flags 
 525              		.loc 1 397 0
 526 0160 97F83330 		ldrb	r3, [r7, #51]	@ zero_extendqisi2
 527 0164 012B     		cmp	r3, #1
 528 0166 08D1     		bne	.L43
 398:C:\Micrium\Software\uCOS-III\Source\os_flag.c ****                      p_grp->Flags &= ~flags_rdy;            /* Clear ONLY the flags that we wanted 
 529              		.loc 1 398 0
 530 0168 FB68     		ldr	r3, [r7, #12]
 531 016a 1A6A     		ldr	r2, [r3, #32]
 532 016c 7B6B     		ldr	r3, [r7, #52]
 533 016e 6FEA0303 		mvn	r3, r3
 534 0172 02EA0302 		and	r2, r2, r3
 535 0176 FB68     		ldr	r3, [r7, #12]
 536 0178 1A62     		str	r2, [r3, #32]
 537              	.L43:
 399:C:\Micrium\Software\uCOS-III\Source\os_flag.c ****                  }
 400:C:\Micrium\Software\uCOS-III\Source\os_flag.c ****                  OSTCBCurPtr->FlagsRdy = flags_rdy;         /* Save flags that were ready          
 538              		.loc 1 400 0
 539 017a 40F20003 		movw	r3, #:lower16:OSTCBCurPtr
 540 017e C0F20003 		movt	r3, #:upper16:OSTCBCurPtr
 541 0182 1B68     		ldr	r3, [r3, #0]
 542 0184 7A6B     		ldr	r2, [r7, #52]
 543 0186 C3F88420 		str	r2, [r3, #132]
 401:C:\Micrium\Software\uCOS-III\Source\os_flag.c ****                  if (p_ts != (CPU_TS *)0) {
 544              		.loc 1 401 0
 545 018a BB6C     		ldr	r3, [r7, #72]
 546 018c 002B     		cmp	r3, #0
 547 018e 03D0     		beq	.L44
 402:C:\Micrium\Software\uCOS-III\Source\os_flag.c ****                     *p_ts  = p_grp->TS;
 548              		.loc 1 402 0
 549 0190 FB68     		ldr	r3, [r7, #12]
 550 0192 5A6A     		ldr	r2, [r3, #36]
 551 0194 BB6C     		ldr	r3, [r7, #72]
 552 0196 1A60     		str	r2, [r3, #0]
 553              	.L44:
 403:C:\Micrium\Software\uCOS-III\Source\os_flag.c ****                  }
 404:C:\Micrium\Software\uCOS-III\Source\os_flag.c ****                  CPU_CRITICAL_EXIT();                       /* Yes, condition met, return to caller
 554              		.loc 1 404 0
 555 0198 F86B     		ldr	r0, [r7, #60]
 556 019a FFF7FEFF 		bl	CPU_SR_Restore
 405:C:\Micrium\Software\uCOS-III\Source\os_flag.c ****                 *p_err = OS_ERR_NONE;
 557              		.loc 1 405 0
 558 019e FB6C     		ldr	r3, [r7, #76]
 559 01a0 4FF00002 		mov	r2, #0
 560 01a4 1A80     		strh	r2, [r3, #0]	@ movhi
ARM GAS  C:\Users\daniel01\AppData\Local\Temp\ccFPInc7.s 			page 18


 406:C:\Micrium\Software\uCOS-III\Source\os_flag.c ****                  return (flags_rdy);
 561              		.loc 1 406 0
 562 01a6 7B6B     		ldr	r3, [r7, #52]
 563 01a8 FEE1     		b	.L24
 564              	.L42:
 407:C:\Micrium\Software\uCOS-III\Source\os_flag.c ****              } else {                                       /* Block task until events occur or tim
 408:C:\Micrium\Software\uCOS-III\Source\os_flag.c ****                  if ((opt & OS_OPT_PEND_NON_BLOCKING) != (OS_OPT)0) {
 565              		.loc 1 408 0
 566 01aa 7B88     		ldrh	r3, [r7, #2]
 567 01ac 1BB2     		sxth	r3, r3
 568 01ae 002B     		cmp	r3, #0
 569 01b0 09DA     		bge	.L45
 409:C:\Micrium\Software\uCOS-III\Source\os_flag.c ****                      CPU_CRITICAL_EXIT();
 570              		.loc 1 409 0
 571 01b2 F86B     		ldr	r0, [r7, #60]
 572 01b4 FFF7FEFF 		bl	CPU_SR_Restore
 410:C:\Micrium\Software\uCOS-III\Source\os_flag.c ****                     *p_err = OS_ERR_PEND_WOULD_BLOCK;       /* Specified non-blocking so task would
 573              		.loc 1 410 0
 574 01b8 FB6C     		ldr	r3, [r7, #76]
 575 01ba 46F2B012 		movw	r2, #25008
 576 01be 1A80     		strh	r2, [r3, #0]	@ movhi
 411:C:\Micrium\Software\uCOS-III\Source\os_flag.c ****                      return ((OS_FLAGS)0);
 577              		.loc 1 411 0
 578 01c0 4FF00003 		mov	r3, #0
 579 01c4 F0E1     		b	.L24
 580              	.L45:
 412:C:\Micrium\Software\uCOS-III\Source\os_flag.c ****                  } else {                                   /* Specified blocking so check is sched
 413:C:\Micrium\Software\uCOS-III\Source\os_flag.c ****                      if (OSSchedLockNestingCtr > (OS_NESTING_CTR)0) { /* See if called with schedul
 581              		.loc 1 413 0
 582 01c6 40F20003 		movw	r3, #:lower16:OSSchedLockNestingCtr
 583 01ca C0F20003 		movt	r3, #:upper16:OSSchedLockNestingCtr
 584 01ce 1B78     		ldrb	r3, [r3, #0]	@ zero_extendqisi2
 585 01d0 002B     		cmp	r3, #0
 586 01d2 09D0     		beq	.L46
 414:C:\Micrium\Software\uCOS-III\Source\os_flag.c ****                          CPU_CRITICAL_EXIT();
 587              		.loc 1 414 0
 588 01d4 F86B     		ldr	r0, [r7, #60]
 589 01d6 FFF7FEFF 		bl	CPU_SR_Restore
 415:C:\Micrium\Software\uCOS-III\Source\os_flag.c ****                         *p_err = OS_ERR_SCHED_LOCKED;                 /* ... can't PEND when locked
 590              		.loc 1 415 0
 591 01da FB6C     		ldr	r3, [r7, #76]
 592 01dc 46F66352 		movw	r2, #28003
 593 01e0 1A80     		strh	r2, [r3, #0]	@ movhi
 416:C:\Micrium\Software\uCOS-III\Source\os_flag.c ****                          return ((OS_FLAGS)0);
 594              		.loc 1 416 0
 595 01e2 4FF00003 		mov	r3, #0
 596 01e6 DFE1     		b	.L24
 597              	.L46:
 417:C:\Micrium\Software\uCOS-III\Source\os_flag.c ****                      }
 418:C:\Micrium\Software\uCOS-III\Source\os_flag.c ****                  }
 419:C:\Micrium\Software\uCOS-III\Source\os_flag.c ****                                                             /* Lock the scheduler/re-enable interru
 420:C:\Micrium\Software\uCOS-III\Source\os_flag.c ****                  OS_CRITICAL_ENTER_CPU_EXIT();              
 421:C:\Micrium\Software\uCOS-III\Source\os_flag.c ****                  OS_FlagBlock(&pend_data,
 598              		.loc 1 421 0
 599 01e8 07F11002 		add	r2, r7, #16
 600 01ec 7B88     		ldrh	r3, [r7, #2]
 601 01ee 7968     		ldr	r1, [r7, #4]
ARM GAS  C:\Users\daniel01\AppData\Local\Temp\ccFPInc7.s 			page 19


 602 01f0 0091     		str	r1, [sp, #0]
 603 01f2 1046     		mov	r0, r2
 604 01f4 F968     		ldr	r1, [r7, #12]
 605 01f6 BA68     		ldr	r2, [r7, #8]
 606 01f8 FFF7FEFF 		bl	OS_FlagBlock
 422:C:\Micrium\Software\uCOS-III\Source\os_flag.c ****                               p_grp,
 423:C:\Micrium\Software\uCOS-III\Source\os_flag.c ****                               flags,
 424:C:\Micrium\Software\uCOS-III\Source\os_flag.c ****                               opt,
 425:C:\Micrium\Software\uCOS-III\Source\os_flag.c ****                               timeout);
 426:C:\Micrium\Software\uCOS-III\Source\os_flag.c ****                  OS_CRITICAL_EXIT_NO_SCHED();
 607              		.loc 1 426 0
 608 01fc F86B     		ldr	r0, [r7, #60]
 609 01fe FFF7FEFF 		bl	CPU_SR_Restore
 427:C:\Micrium\Software\uCOS-III\Source\os_flag.c ****              }
 428:C:\Micrium\Software\uCOS-III\Source\os_flag.c ****              break;
 610              		.loc 1 428 0
 611 0202 1BE1     		b	.L47
 612              	.L40:
 429:C:\Micrium\Software\uCOS-III\Source\os_flag.c **** 
 430:C:\Micrium\Software\uCOS-III\Source\os_flag.c ****         case OS_OPT_PEND_FLAG_SET_ANY:
 431:C:\Micrium\Software\uCOS-III\Source\os_flag.c ****              flags_rdy = (OS_FLAGS)(p_grp->Flags & flags);  /* Extract only the bits we want       
 613              		.loc 1 431 0
 614 0204 FB68     		ldr	r3, [r7, #12]
 615 0206 1A6A     		ldr	r2, [r3, #32]
 616 0208 BB68     		ldr	r3, [r7, #8]
 617 020a 02EA0303 		and	r3, r2, r3
 618 020e 7B63     		str	r3, [r7, #52]
 432:C:\Micrium\Software\uCOS-III\Source\os_flag.c ****              if (flags_rdy != (OS_FLAGS)0) {                /* See if any flag set                 
 619              		.loc 1 432 0
 620 0210 7B6B     		ldr	r3, [r7, #52]
 621 0212 002B     		cmp	r3, #0
 622 0214 24D0     		beq	.L48
 433:C:\Micrium\Software\uCOS-III\Source\os_flag.c ****                  if (consume == DEF_TRUE) {                 /* See if we need to consume the flags 
 623              		.loc 1 433 0
 624 0216 97F83330 		ldrb	r3, [r7, #51]	@ zero_extendqisi2
 625 021a 012B     		cmp	r3, #1
 626 021c 08D1     		bne	.L49
 434:C:\Micrium\Software\uCOS-III\Source\os_flag.c ****                      p_grp->Flags &= ~flags_rdy;            /* Clear ONLY the flags that we got    
 627              		.loc 1 434 0
 628 021e FB68     		ldr	r3, [r7, #12]
 629 0220 1A6A     		ldr	r2, [r3, #32]
 630 0222 7B6B     		ldr	r3, [r7, #52]
 631 0224 6FEA0303 		mvn	r3, r3
 632 0228 02EA0302 		and	r2, r2, r3
 633 022c FB68     		ldr	r3, [r7, #12]
 634 022e 1A62     		str	r2, [r3, #32]
 635              	.L49:
 435:C:\Micrium\Software\uCOS-III\Source\os_flag.c ****                  }
 436:C:\Micrium\Software\uCOS-III\Source\os_flag.c ****                  OSTCBCurPtr->FlagsRdy = flags_rdy;         /* Save flags that were ready          
 636              		.loc 1 436 0
 637 0230 40F20003 		movw	r3, #:lower16:OSTCBCurPtr
 638 0234 C0F20003 		movt	r3, #:upper16:OSTCBCurPtr
 639 0238 1B68     		ldr	r3, [r3, #0]
 640 023a 7A6B     		ldr	r2, [r7, #52]
 641 023c C3F88420 		str	r2, [r3, #132]
 437:C:\Micrium\Software\uCOS-III\Source\os_flag.c ****                  if (p_ts != (CPU_TS *)0) {
 642              		.loc 1 437 0
ARM GAS  C:\Users\daniel01\AppData\Local\Temp\ccFPInc7.s 			page 20


 643 0240 BB6C     		ldr	r3, [r7, #72]
 644 0242 002B     		cmp	r3, #0
 645 0244 03D0     		beq	.L50
 438:C:\Micrium\Software\uCOS-III\Source\os_flag.c ****                     *p_ts  = p_grp->TS;
 646              		.loc 1 438 0
 647 0246 FB68     		ldr	r3, [r7, #12]
 648 0248 5A6A     		ldr	r2, [r3, #36]
 649 024a BB6C     		ldr	r3, [r7, #72]
 650 024c 1A60     		str	r2, [r3, #0]
 651              	.L50:
 439:C:\Micrium\Software\uCOS-III\Source\os_flag.c ****                  }
 440:C:\Micrium\Software\uCOS-III\Source\os_flag.c ****                  CPU_CRITICAL_EXIT();                       /* Yes, condition met, return to caller
 652              		.loc 1 440 0
 653 024e F86B     		ldr	r0, [r7, #60]
 654 0250 FFF7FEFF 		bl	CPU_SR_Restore
 441:C:\Micrium\Software\uCOS-III\Source\os_flag.c ****                 *p_err = OS_ERR_NONE;
 655              		.loc 1 441 0
 656 0254 FB6C     		ldr	r3, [r7, #76]
 657 0256 4FF00002 		mov	r2, #0
 658 025a 1A80     		strh	r2, [r3, #0]	@ movhi
 442:C:\Micrium\Software\uCOS-III\Source\os_flag.c ****                  return (flags_rdy);
 659              		.loc 1 442 0
 660 025c 7B6B     		ldr	r3, [r7, #52]
 661 025e A3E1     		b	.L24
 662              	.L48:
 443:C:\Micrium\Software\uCOS-III\Source\os_flag.c ****              } else {                                       /* Block task until events occur or tim
 444:C:\Micrium\Software\uCOS-III\Source\os_flag.c ****                  if ((opt & OS_OPT_PEND_NON_BLOCKING) != (OS_OPT)0) {
 663              		.loc 1 444 0
 664 0260 7B88     		ldrh	r3, [r7, #2]
 665 0262 1BB2     		sxth	r3, r3
 666 0264 002B     		cmp	r3, #0
 667 0266 09DA     		bge	.L51
 445:C:\Micrium\Software\uCOS-III\Source\os_flag.c ****                      CPU_CRITICAL_EXIT();
 668              		.loc 1 445 0
 669 0268 F86B     		ldr	r0, [r7, #60]
 670 026a FFF7FEFF 		bl	CPU_SR_Restore
 446:C:\Micrium\Software\uCOS-III\Source\os_flag.c ****                     *p_err = OS_ERR_PEND_WOULD_BLOCK;       /* Specified non-blocking so task would
 671              		.loc 1 446 0
 672 026e FB6C     		ldr	r3, [r7, #76]
 673 0270 46F2B012 		movw	r2, #25008
 674 0274 1A80     		strh	r2, [r3, #0]	@ movhi
 447:C:\Micrium\Software\uCOS-III\Source\os_flag.c ****                      return ((OS_FLAGS)0);
 675              		.loc 1 447 0
 676 0276 4FF00003 		mov	r3, #0
 677 027a 95E1     		b	.L24
 678              	.L51:
 448:C:\Micrium\Software\uCOS-III\Source\os_flag.c ****                  } else {                                   /* Specified blocking so check is sched
 449:C:\Micrium\Software\uCOS-III\Source\os_flag.c ****                      if (OSSchedLockNestingCtr > (OS_NESTING_CTR)0) { /* See if called with schedul
 679              		.loc 1 449 0
 680 027c 40F20003 		movw	r3, #:lower16:OSSchedLockNestingCtr
 681 0280 C0F20003 		movt	r3, #:upper16:OSSchedLockNestingCtr
 682 0284 1B78     		ldrb	r3, [r3, #0]	@ zero_extendqisi2
 683 0286 002B     		cmp	r3, #0
 684 0288 09D0     		beq	.L52
 450:C:\Micrium\Software\uCOS-III\Source\os_flag.c ****                          CPU_CRITICAL_EXIT();
 685              		.loc 1 450 0
 686 028a F86B     		ldr	r0, [r7, #60]
ARM GAS  C:\Users\daniel01\AppData\Local\Temp\ccFPInc7.s 			page 21


 687 028c FFF7FEFF 		bl	CPU_SR_Restore
 451:C:\Micrium\Software\uCOS-III\Source\os_flag.c ****                         *p_err = OS_ERR_SCHED_LOCKED;                 /* ... can't PEND when locked
 688              		.loc 1 451 0
 689 0290 FB6C     		ldr	r3, [r7, #76]
 690 0292 46F66352 		movw	r2, #28003
 691 0296 1A80     		strh	r2, [r3, #0]	@ movhi
 452:C:\Micrium\Software\uCOS-III\Source\os_flag.c ****                          return ((OS_FLAGS)0);
 692              		.loc 1 452 0
 693 0298 4FF00003 		mov	r3, #0
 694 029c 84E1     		b	.L24
 695              	.L52:
 453:C:\Micrium\Software\uCOS-III\Source\os_flag.c ****                      }
 454:C:\Micrium\Software\uCOS-III\Source\os_flag.c ****                  }
 455:C:\Micrium\Software\uCOS-III\Source\os_flag.c ****                                                             /* Lock the scheduler/re-enable interru
 456:C:\Micrium\Software\uCOS-III\Source\os_flag.c ****                  OS_CRITICAL_ENTER_CPU_EXIT();              
 457:C:\Micrium\Software\uCOS-III\Source\os_flag.c ****                  OS_FlagBlock(&pend_data,
 696              		.loc 1 457 0
 697 029e 07F11002 		add	r2, r7, #16
 698 02a2 7B88     		ldrh	r3, [r7, #2]
 699 02a4 7968     		ldr	r1, [r7, #4]
 700 02a6 0091     		str	r1, [sp, #0]
 701 02a8 1046     		mov	r0, r2
 702 02aa F968     		ldr	r1, [r7, #12]
 703 02ac BA68     		ldr	r2, [r7, #8]
 704 02ae FFF7FEFF 		bl	OS_FlagBlock
 458:C:\Micrium\Software\uCOS-III\Source\os_flag.c ****                               p_grp,
 459:C:\Micrium\Software\uCOS-III\Source\os_flag.c ****                               flags,
 460:C:\Micrium\Software\uCOS-III\Source\os_flag.c ****                               opt,
 461:C:\Micrium\Software\uCOS-III\Source\os_flag.c ****                               timeout);
 462:C:\Micrium\Software\uCOS-III\Source\os_flag.c ****                  OS_CRITICAL_EXIT_NO_SCHED();
 705              		.loc 1 462 0
 706 02b2 F86B     		ldr	r0, [r7, #60]
 707 02b4 FFF7FEFF 		bl	CPU_SR_Restore
 463:C:\Micrium\Software\uCOS-III\Source\os_flag.c ****              }
 464:C:\Micrium\Software\uCOS-III\Source\os_flag.c ****              break;
 708              		.loc 1 464 0
 709 02b8 C0E0     		b	.L47
 710              	.L37:
 465:C:\Micrium\Software\uCOS-III\Source\os_flag.c **** 
 466:C:\Micrium\Software\uCOS-III\Source\os_flag.c **** #if OS_CFG_FLAG_MODE_CLR_EN > 0u
 467:C:\Micrium\Software\uCOS-III\Source\os_flag.c ****         case OS_OPT_PEND_FLAG_CLR_ALL:                      /* See if all required flags are cleare
 468:C:\Micrium\Software\uCOS-III\Source\os_flag.c ****              flags_rdy = (OS_FLAGS)(~p_grp->Flags & flags); /* Extract only the bits we want       
 711              		.loc 1 468 0
 712 02ba FB68     		ldr	r3, [r7, #12]
 713 02bc 1B6A     		ldr	r3, [r3, #32]
 714 02be 6FEA0302 		mvn	r2, r3
 715 02c2 BB68     		ldr	r3, [r7, #8]
 716 02c4 02EA0303 		and	r3, r2, r3
 717 02c8 7B63     		str	r3, [r7, #52]
 469:C:\Micrium\Software\uCOS-III\Source\os_flag.c ****              if (flags_rdy == flags) {                      /* Must match ALL the bits that we want
 718              		.loc 1 469 0
 719 02ca 7A6B     		ldr	r2, [r7, #52]
 720 02cc BB68     		ldr	r3, [r7, #8]
 721 02ce 9A42     		cmp	r2, r3
 722 02d0 22D1     		bne	.L53
 470:C:\Micrium\Software\uCOS-III\Source\os_flag.c ****                  if (consume == DEF_TRUE) {                 /* See if we need to consume the flags 
 723              		.loc 1 470 0
ARM GAS  C:\Users\daniel01\AppData\Local\Temp\ccFPInc7.s 			page 22


 724 02d2 97F83330 		ldrb	r3, [r7, #51]	@ zero_extendqisi2
 725 02d6 012B     		cmp	r3, #1
 726 02d8 06D1     		bne	.L54
 471:C:\Micrium\Software\uCOS-III\Source\os_flag.c ****                      p_grp->Flags |= flags_rdy;             /* Set ONLY the flags that we wanted   
 727              		.loc 1 471 0
 728 02da FB68     		ldr	r3, [r7, #12]
 729 02dc 1A6A     		ldr	r2, [r3, #32]
 730 02de 7B6B     		ldr	r3, [r7, #52]
 731 02e0 42EA0302 		orr	r2, r2, r3
 732 02e4 FB68     		ldr	r3, [r7, #12]
 733 02e6 1A62     		str	r2, [r3, #32]
 734              	.L54:
 472:C:\Micrium\Software\uCOS-III\Source\os_flag.c ****                  }
 473:C:\Micrium\Software\uCOS-III\Source\os_flag.c ****                  OSTCBCurPtr->FlagsRdy = flags_rdy;         /* Save flags that were ready          
 735              		.loc 1 473 0
 736 02e8 40F20003 		movw	r3, #:lower16:OSTCBCurPtr
 737 02ec C0F20003 		movt	r3, #:upper16:OSTCBCurPtr
 738 02f0 1B68     		ldr	r3, [r3, #0]
 739 02f2 7A6B     		ldr	r2, [r7, #52]
 740 02f4 C3F88420 		str	r2, [r3, #132]
 474:C:\Micrium\Software\uCOS-III\Source\os_flag.c ****                  if (p_ts != (CPU_TS *)0) {
 741              		.loc 1 474 0
 742 02f8 BB6C     		ldr	r3, [r7, #72]
 743 02fa 002B     		cmp	r3, #0
 744 02fc 03D0     		beq	.L55
 475:C:\Micrium\Software\uCOS-III\Source\os_flag.c ****                     *p_ts  = p_grp->TS;
 745              		.loc 1 475 0
 746 02fe FB68     		ldr	r3, [r7, #12]
 747 0300 5A6A     		ldr	r2, [r3, #36]
 748 0302 BB6C     		ldr	r3, [r7, #72]
 749 0304 1A60     		str	r2, [r3, #0]
 750              	.L55:
 476:C:\Micrium\Software\uCOS-III\Source\os_flag.c ****                  }
 477:C:\Micrium\Software\uCOS-III\Source\os_flag.c ****                  CPU_CRITICAL_EXIT();                       /* Yes, condition met, return to caller
 751              		.loc 1 477 0
 752 0306 F86B     		ldr	r0, [r7, #60]
 753 0308 FFF7FEFF 		bl	CPU_SR_Restore
 478:C:\Micrium\Software\uCOS-III\Source\os_flag.c ****                 *p_err = OS_ERR_NONE;
 754              		.loc 1 478 0
 755 030c FB6C     		ldr	r3, [r7, #76]
 756 030e 4FF00002 		mov	r2, #0
 757 0312 1A80     		strh	r2, [r3, #0]	@ movhi
 479:C:\Micrium\Software\uCOS-III\Source\os_flag.c ****                  return (flags_rdy);
 758              		.loc 1 479 0
 759 0314 7B6B     		ldr	r3, [r7, #52]
 760 0316 47E1     		b	.L24
 761              	.L53:
 480:C:\Micrium\Software\uCOS-III\Source\os_flag.c ****              } else {                                       /* Block task until events occur or tim
 481:C:\Micrium\Software\uCOS-III\Source\os_flag.c ****                  if ((opt & OS_OPT_PEND_NON_BLOCKING) != (OS_OPT)0) {
 762              		.loc 1 481 0
 763 0318 7B88     		ldrh	r3, [r7, #2]
 764 031a 1BB2     		sxth	r3, r3
 765 031c 002B     		cmp	r3, #0
 766 031e 09DA     		bge	.L56
 482:C:\Micrium\Software\uCOS-III\Source\os_flag.c ****                      CPU_CRITICAL_EXIT();
 767              		.loc 1 482 0
 768 0320 F86B     		ldr	r0, [r7, #60]
ARM GAS  C:\Users\daniel01\AppData\Local\Temp\ccFPInc7.s 			page 23


 769 0322 FFF7FEFF 		bl	CPU_SR_Restore
 483:C:\Micrium\Software\uCOS-III\Source\os_flag.c ****                     *p_err = OS_ERR_PEND_WOULD_BLOCK;       /* Specified non-blocking so task would
 770              		.loc 1 483 0
 771 0326 FB6C     		ldr	r3, [r7, #76]
 772 0328 46F2B012 		movw	r2, #25008
 773 032c 1A80     		strh	r2, [r3, #0]	@ movhi
 484:C:\Micrium\Software\uCOS-III\Source\os_flag.c ****                      return ((OS_FLAGS)0);
 774              		.loc 1 484 0
 775 032e 4FF00003 		mov	r3, #0
 776 0332 39E1     		b	.L24
 777              	.L56:
 485:C:\Micrium\Software\uCOS-III\Source\os_flag.c ****                  } else {                                   /* Specified blocking so check is sched
 486:C:\Micrium\Software\uCOS-III\Source\os_flag.c ****                      if (OSSchedLockNestingCtr > (OS_NESTING_CTR)0) { /* See if called with schedul
 778              		.loc 1 486 0
 779 0334 40F20003 		movw	r3, #:lower16:OSSchedLockNestingCtr
 780 0338 C0F20003 		movt	r3, #:upper16:OSSchedLockNestingCtr
 781 033c 1B78     		ldrb	r3, [r3, #0]	@ zero_extendqisi2
 782 033e 002B     		cmp	r3, #0
 783 0340 09D0     		beq	.L57
 487:C:\Micrium\Software\uCOS-III\Source\os_flag.c ****                          CPU_CRITICAL_EXIT();
 784              		.loc 1 487 0
 785 0342 F86B     		ldr	r0, [r7, #60]
 786 0344 FFF7FEFF 		bl	CPU_SR_Restore
 488:C:\Micrium\Software\uCOS-III\Source\os_flag.c ****                         *p_err = OS_ERR_SCHED_LOCKED;                 /* ... can't PEND when locked
 787              		.loc 1 488 0
 788 0348 FB6C     		ldr	r3, [r7, #76]
 789 034a 46F66352 		movw	r2, #28003
 790 034e 1A80     		strh	r2, [r3, #0]	@ movhi
 489:C:\Micrium\Software\uCOS-III\Source\os_flag.c ****                          return ((OS_FLAGS)0);
 791              		.loc 1 489 0
 792 0350 4FF00003 		mov	r3, #0
 793 0354 28E1     		b	.L24
 794              	.L57:
 490:C:\Micrium\Software\uCOS-III\Source\os_flag.c ****                      }
 491:C:\Micrium\Software\uCOS-III\Source\os_flag.c ****                  }
 492:C:\Micrium\Software\uCOS-III\Source\os_flag.c ****                                                             
 493:C:\Micrium\Software\uCOS-III\Source\os_flag.c ****                  OS_CRITICAL_ENTER_CPU_EXIT();              /* Lock the scheduler/re-enable interru
 494:C:\Micrium\Software\uCOS-III\Source\os_flag.c ****                  OS_FlagBlock(&pend_data,
 795              		.loc 1 494 0
 796 0356 07F11002 		add	r2, r7, #16
 797 035a 7B88     		ldrh	r3, [r7, #2]
 798 035c 7968     		ldr	r1, [r7, #4]
 799 035e 0091     		str	r1, [sp, #0]
 800 0360 1046     		mov	r0, r2
 801 0362 F968     		ldr	r1, [r7, #12]
 802 0364 BA68     		ldr	r2, [r7, #8]
 803 0366 FFF7FEFF 		bl	OS_FlagBlock
 495:C:\Micrium\Software\uCOS-III\Source\os_flag.c ****                               p_grp,
 496:C:\Micrium\Software\uCOS-III\Source\os_flag.c ****                               flags,
 497:C:\Micrium\Software\uCOS-III\Source\os_flag.c ****                               opt,
 498:C:\Micrium\Software\uCOS-III\Source\os_flag.c ****                               timeout);
 499:C:\Micrium\Software\uCOS-III\Source\os_flag.c ****                  OS_CRITICAL_EXIT_NO_SCHED();
 804              		.loc 1 499 0
 805 036a F86B     		ldr	r0, [r7, #60]
 806 036c FFF7FEFF 		bl	CPU_SR_Restore
 500:C:\Micrium\Software\uCOS-III\Source\os_flag.c ****              }
 501:C:\Micrium\Software\uCOS-III\Source\os_flag.c ****              break;
ARM GAS  C:\Users\daniel01\AppData\Local\Temp\ccFPInc7.s 			page 24


 807              		.loc 1 501 0
 808 0370 64E0     		b	.L47
 809              	.L38:
 502:C:\Micrium\Software\uCOS-III\Source\os_flag.c **** 
 503:C:\Micrium\Software\uCOS-III\Source\os_flag.c ****         case OS_OPT_PEND_FLAG_CLR_ANY:
 504:C:\Micrium\Software\uCOS-III\Source\os_flag.c ****              flags_rdy = (OS_FLAGS)(~p_grp->Flags & flags); /* Extract only the bits we want       
 810              		.loc 1 504 0
 811 0372 FB68     		ldr	r3, [r7, #12]
 812 0374 1B6A     		ldr	r3, [r3, #32]
 813 0376 6FEA0302 		mvn	r2, r3
 814 037a BB68     		ldr	r3, [r7, #8]
 815 037c 02EA0303 		and	r3, r2, r3
 816 0380 7B63     		str	r3, [r7, #52]
 505:C:\Micrium\Software\uCOS-III\Source\os_flag.c ****              if (flags_rdy != (OS_FLAGS)0) {                /* See if any flag cleared             
 817              		.loc 1 505 0
 818 0382 7B6B     		ldr	r3, [r7, #52]
 819 0384 002B     		cmp	r3, #0
 820 0386 22D0     		beq	.L58
 506:C:\Micrium\Software\uCOS-III\Source\os_flag.c ****                  if (consume == DEF_TRUE) {                 /* See if we need to consume the flags 
 821              		.loc 1 506 0
 822 0388 97F83330 		ldrb	r3, [r7, #51]	@ zero_extendqisi2
 823 038c 012B     		cmp	r3, #1
 824 038e 06D1     		bne	.L59
 507:C:\Micrium\Software\uCOS-III\Source\os_flag.c ****                      p_grp->Flags |= flags_rdy;             /* Set ONLY the flags that we got      
 825              		.loc 1 507 0
 826 0390 FB68     		ldr	r3, [r7, #12]
 827 0392 1A6A     		ldr	r2, [r3, #32]
 828 0394 7B6B     		ldr	r3, [r7, #52]
 829 0396 42EA0302 		orr	r2, r2, r3
 830 039a FB68     		ldr	r3, [r7, #12]
 831 039c 1A62     		str	r2, [r3, #32]
 832              	.L59:
 508:C:\Micrium\Software\uCOS-III\Source\os_flag.c ****                  }
 509:C:\Micrium\Software\uCOS-III\Source\os_flag.c ****                  OSTCBCurPtr->FlagsRdy = flags_rdy;         /* Save flags that were ready          
 833              		.loc 1 509 0
 834 039e 40F20003 		movw	r3, #:lower16:OSTCBCurPtr
 835 03a2 C0F20003 		movt	r3, #:upper16:OSTCBCurPtr
 836 03a6 1B68     		ldr	r3, [r3, #0]
 837 03a8 7A6B     		ldr	r2, [r7, #52]
 838 03aa C3F88420 		str	r2, [r3, #132]
 510:C:\Micrium\Software\uCOS-III\Source\os_flag.c ****                  if (p_ts != (CPU_TS *)0) {
 839              		.loc 1 510 0
 840 03ae BB6C     		ldr	r3, [r7, #72]
 841 03b0 002B     		cmp	r3, #0
 842 03b2 03D0     		beq	.L60
 511:C:\Micrium\Software\uCOS-III\Source\os_flag.c ****                     *p_ts  = p_grp->TS;
 843              		.loc 1 511 0
 844 03b4 FB68     		ldr	r3, [r7, #12]
 845 03b6 5A6A     		ldr	r2, [r3, #36]
 846 03b8 BB6C     		ldr	r3, [r7, #72]
 847 03ba 1A60     		str	r2, [r3, #0]
 848              	.L60:
 512:C:\Micrium\Software\uCOS-III\Source\os_flag.c ****                  }
 513:C:\Micrium\Software\uCOS-III\Source\os_flag.c ****                  CPU_CRITICAL_EXIT();                       /* Yes, condition met, return to caller
 849              		.loc 1 513 0
 850 03bc F86B     		ldr	r0, [r7, #60]
 851 03be FFF7FEFF 		bl	CPU_SR_Restore
ARM GAS  C:\Users\daniel01\AppData\Local\Temp\ccFPInc7.s 			page 25


 514:C:\Micrium\Software\uCOS-III\Source\os_flag.c ****                 *p_err = OS_ERR_NONE;
 852              		.loc 1 514 0
 853 03c2 FB6C     		ldr	r3, [r7, #76]
 854 03c4 4FF00002 		mov	r2, #0
 855 03c8 1A80     		strh	r2, [r3, #0]	@ movhi
 515:C:\Micrium\Software\uCOS-III\Source\os_flag.c ****                  return (flags_rdy);
 856              		.loc 1 515 0
 857 03ca 7B6B     		ldr	r3, [r7, #52]
 858 03cc ECE0     		b	.L24
 859              	.L58:
 516:C:\Micrium\Software\uCOS-III\Source\os_flag.c ****              } else {                                       /* Block task until events occur or tim
 517:C:\Micrium\Software\uCOS-III\Source\os_flag.c ****                  if ((opt & OS_OPT_PEND_NON_BLOCKING) != (OS_OPT)0) {
 860              		.loc 1 517 0
 861 03ce 7B88     		ldrh	r3, [r7, #2]
 862 03d0 1BB2     		sxth	r3, r3
 863 03d2 002B     		cmp	r3, #0
 864 03d4 09DA     		bge	.L61
 518:C:\Micrium\Software\uCOS-III\Source\os_flag.c ****                      CPU_CRITICAL_EXIT();
 865              		.loc 1 518 0
 866 03d6 F86B     		ldr	r0, [r7, #60]
 867 03d8 FFF7FEFF 		bl	CPU_SR_Restore
 519:C:\Micrium\Software\uCOS-III\Source\os_flag.c ****                     *p_err = OS_ERR_PEND_WOULD_BLOCK;       /* Specified non-blocking so task would
 868              		.loc 1 519 0
 869 03dc FB6C     		ldr	r3, [r7, #76]
 870 03de 46F2B012 		movw	r2, #25008
 871 03e2 1A80     		strh	r2, [r3, #0]	@ movhi
 520:C:\Micrium\Software\uCOS-III\Source\os_flag.c ****                      return ((OS_FLAGS)0);
 872              		.loc 1 520 0
 873 03e4 4FF00003 		mov	r3, #0
 874 03e8 DEE0     		b	.L24
 875              	.L61:
 521:C:\Micrium\Software\uCOS-III\Source\os_flag.c ****                  } else {                                   /* Specified blocking so check is sched
 522:C:\Micrium\Software\uCOS-III\Source\os_flag.c ****                      if (OSSchedLockNestingCtr > (OS_NESTING_CTR)0) { /* See if called with schedul
 876              		.loc 1 522 0
 877 03ea 40F20003 		movw	r3, #:lower16:OSSchedLockNestingCtr
 878 03ee C0F20003 		movt	r3, #:upper16:OSSchedLockNestingCtr
 879 03f2 1B78     		ldrb	r3, [r3, #0]	@ zero_extendqisi2
 880 03f4 002B     		cmp	r3, #0
 881 03f6 09D0     		beq	.L62
 523:C:\Micrium\Software\uCOS-III\Source\os_flag.c ****                          CPU_CRITICAL_EXIT();
 882              		.loc 1 523 0
 883 03f8 F86B     		ldr	r0, [r7, #60]
 884 03fa FFF7FEFF 		bl	CPU_SR_Restore
 524:C:\Micrium\Software\uCOS-III\Source\os_flag.c ****                         *p_err = OS_ERR_SCHED_LOCKED;                 /* ... can't PEND when locked
 885              		.loc 1 524 0
 886 03fe FB6C     		ldr	r3, [r7, #76]
 887 0400 46F66352 		movw	r2, #28003
 888 0404 1A80     		strh	r2, [r3, #0]	@ movhi
 525:C:\Micrium\Software\uCOS-III\Source\os_flag.c ****                          return ((OS_FLAGS)0);
 889              		.loc 1 525 0
 890 0406 4FF00003 		mov	r3, #0
 891 040a CDE0     		b	.L24
 892              	.L62:
 526:C:\Micrium\Software\uCOS-III\Source\os_flag.c ****                      }
 527:C:\Micrium\Software\uCOS-III\Source\os_flag.c ****                  }
 528:C:\Micrium\Software\uCOS-III\Source\os_flag.c ****                                                             
 529:C:\Micrium\Software\uCOS-III\Source\os_flag.c ****                  OS_CRITICAL_ENTER_CPU_EXIT();              /* Lock the scheduler/re-enable interru
ARM GAS  C:\Users\daniel01\AppData\Local\Temp\ccFPInc7.s 			page 26


 530:C:\Micrium\Software\uCOS-III\Source\os_flag.c ****                  OS_FlagBlock(&pend_data,              
 893              		.loc 1 530 0
 894 040c 07F11002 		add	r2, r7, #16
 895 0410 7B88     		ldrh	r3, [r7, #2]
 896 0412 7968     		ldr	r1, [r7, #4]
 897 0414 0091     		str	r1, [sp, #0]
 898 0416 1046     		mov	r0, r2
 899 0418 F968     		ldr	r1, [r7, #12]
 900 041a BA68     		ldr	r2, [r7, #8]
 901 041c FFF7FEFF 		bl	OS_FlagBlock
 531:C:\Micrium\Software\uCOS-III\Source\os_flag.c ****                               p_grp,
 532:C:\Micrium\Software\uCOS-III\Source\os_flag.c ****                               flags,
 533:C:\Micrium\Software\uCOS-III\Source\os_flag.c ****                               opt,
 534:C:\Micrium\Software\uCOS-III\Source\os_flag.c ****                               timeout);
 535:C:\Micrium\Software\uCOS-III\Source\os_flag.c ****                  OS_CRITICAL_EXIT_NO_SCHED();
 902              		.loc 1 535 0
 903 0420 F86B     		ldr	r0, [r7, #60]
 904 0422 FFF7FEFF 		bl	CPU_SR_Restore
 536:C:\Micrium\Software\uCOS-III\Source\os_flag.c ****              }
 537:C:\Micrium\Software\uCOS-III\Source\os_flag.c ****              break;
 905              		.loc 1 537 0
 906 0426 09E0     		b	.L47
 907              	.L36:
 538:C:\Micrium\Software\uCOS-III\Source\os_flag.c **** #endif
 539:C:\Micrium\Software\uCOS-III\Source\os_flag.c **** 
 540:C:\Micrium\Software\uCOS-III\Source\os_flag.c ****         default:
 541:C:\Micrium\Software\uCOS-III\Source\os_flag.c ****              CPU_CRITICAL_EXIT();
 908              		.loc 1 541 0
 909 0428 F86B     		ldr	r0, [r7, #60]
 910 042a FFF7FEFF 		bl	CPU_SR_Restore
 542:C:\Micrium\Software\uCOS-III\Source\os_flag.c ****             *p_err = OS_ERR_OPT_INVALID;
 911              		.loc 1 542 0
 912 042e FB6C     		ldr	r3, [r7, #76]
 913 0430 45F62562 		movw	r2, #24101
 914 0434 1A80     		strh	r2, [r3, #0]	@ movhi
 543:C:\Micrium\Software\uCOS-III\Source\os_flag.c ****              return ((OS_FLAGS)0);
 915              		.loc 1 543 0
 916 0436 4FF00003 		mov	r3, #0
 917 043a B5E0     		b	.L24
 918              	.L47:
 544:C:\Micrium\Software\uCOS-III\Source\os_flag.c ****     }
 545:C:\Micrium\Software\uCOS-III\Source\os_flag.c **** 
 546:C:\Micrium\Software\uCOS-III\Source\os_flag.c ****     OSSched();                                              /* Find next HPT ready to run          
 919              		.loc 1 546 0
 920 043c FFF7FEFF 		bl	OSSched
 547:C:\Micrium\Software\uCOS-III\Source\os_flag.c **** 
 548:C:\Micrium\Software\uCOS-III\Source\os_flag.c ****     CPU_CRITICAL_ENTER();
 921              		.loc 1 548 0
 922 0440 FFF7FEFF 		bl	CPU_SR_Save
 923 0444 0346     		mov	r3, r0
 924 0446 FB63     		str	r3, [r7, #60]
 549:C:\Micrium\Software\uCOS-III\Source\os_flag.c ****     switch (OSTCBCurPtr->PendStatus) {
 925              		.loc 1 549 0
 926 0448 40F20003 		movw	r3, #:lower16:OSTCBCurPtr
 927 044c C0F20003 		movt	r3, #:upper16:OSTCBCurPtr
 928 0450 1B68     		ldr	r3, [r3, #0]
 929 0452 93F83530 		ldrb	r3, [r3, #53]	@ zero_extendqisi2
ARM GAS  C:\Users\daniel01\AppData\Local\Temp\ccFPInc7.s 			page 27


 930 0456 032B     		cmp	r3, #3
 931 0458 4FD8     		bhi	.L63
 932 045a 01A2     		adr	r2, .L68
 933 045c 52F823F0 		ldr	pc, [r2, r3, lsl #2]
 934              		.align	2
 935              	.L68:
 936 0460 71040000 		.word	.L64+1
 937 0464 91040000 		.word	.L65+1
 938 0468 D5040000 		.word	.L66+1
 939 046c B7040000 		.word	.L67+1
 940              	.L64:
 550:C:\Micrium\Software\uCOS-III\Source\os_flag.c ****         case OS_STATUS_PEND_OK:                             /* We got the vent flags               
 551:C:\Micrium\Software\uCOS-III\Source\os_flag.c ****              if (p_ts != (CPU_TS *)0) {
 941              		.loc 1 551 0
 942 0470 BB6C     		ldr	r3, [r7, #72]
 943 0472 002B     		cmp	r3, #0
 944 0474 07D0     		beq	.L69
 552:C:\Micrium\Software\uCOS-III\Source\os_flag.c ****                 *p_ts  = OSTCBCurPtr->TS;
 945              		.loc 1 552 0
 946 0476 40F20003 		movw	r3, #:lower16:OSTCBCurPtr
 947 047a C0F20003 		movt	r3, #:upper16:OSTCBCurPtr
 948 047e 1B68     		ldr	r3, [r3, #0]
 949 0480 1A6C     		ldr	r2, [r3, #64]
 950 0482 BB6C     		ldr	r3, [r7, #72]
 951 0484 1A60     		str	r2, [r3, #0]
 952              	.L69:
 553:C:\Micrium\Software\uCOS-III\Source\os_flag.c ****              }
 554:C:\Micrium\Software\uCOS-III\Source\os_flag.c ****             *p_err = OS_ERR_NONE;
 953              		.loc 1 554 0
 954 0486 FB6C     		ldr	r3, [r7, #76]
 955 0488 4FF00002 		mov	r2, #0
 956 048c 1A80     		strh	r2, [r3, #0]	@ movhi
 555:C:\Micrium\Software\uCOS-III\Source\os_flag.c ****              break;
 957              		.loc 1 555 0
 958 048e 3BE0     		b	.L70
 959              	.L65:
 556:C:\Micrium\Software\uCOS-III\Source\os_flag.c **** 
 557:C:\Micrium\Software\uCOS-III\Source\os_flag.c ****         case OS_STATUS_PEND_ABORT:                          /* Indicate that we aborted            
 558:C:\Micrium\Software\uCOS-III\Source\os_flag.c ****              if (p_ts != (CPU_TS *)0) {
 960              		.loc 1 558 0
 961 0490 BB6C     		ldr	r3, [r7, #72]
 962 0492 002B     		cmp	r3, #0
 963 0494 07D0     		beq	.L71
 559:C:\Micrium\Software\uCOS-III\Source\os_flag.c ****                 *p_ts  = OSTCBCurPtr->TS;
 964              		.loc 1 559 0
 965 0496 40F20003 		movw	r3, #:lower16:OSTCBCurPtr
 966 049a C0F20003 		movt	r3, #:upper16:OSTCBCurPtr
 967 049e 1B68     		ldr	r3, [r3, #0]
 968 04a0 1A6C     		ldr	r2, [r3, #64]
 969 04a2 BB6C     		ldr	r3, [r7, #72]
 970 04a4 1A60     		str	r2, [r3, #0]
 971              	.L71:
 560:C:\Micrium\Software\uCOS-III\Source\os_flag.c ****              }
 561:C:\Micrium\Software\uCOS-III\Source\os_flag.c ****              CPU_CRITICAL_EXIT();
 972              		.loc 1 561 0
 973 04a6 F86B     		ldr	r0, [r7, #60]
 974 04a8 FFF7FEFF 		bl	CPU_SR_Restore
ARM GAS  C:\Users\daniel01\AppData\Local\Temp\ccFPInc7.s 			page 28


 562:C:\Micrium\Software\uCOS-III\Source\os_flag.c ****             *p_err = OS_ERR_PEND_ABORT;
 975              		.loc 1 562 0
 976 04ac FB6C     		ldr	r3, [r7, #76]
 977 04ae 46F2A912 		movw	r2, #25001
 978 04b2 1A80     		strh	r2, [r3, #0]	@ movhi
 563:C:\Micrium\Software\uCOS-III\Source\os_flag.c ****              break;
 979              		.loc 1 563 0
 980 04b4 28E0     		b	.L70
 981              	.L67:
 564:C:\Micrium\Software\uCOS-III\Source\os_flag.c **** 
 565:C:\Micrium\Software\uCOS-III\Source\os_flag.c ****         case OS_STATUS_PEND_TIMEOUT:                        /* Indicate that we didn't get semaphor
 566:C:\Micrium\Software\uCOS-III\Source\os_flag.c ****              if (p_ts != (CPU_TS *)0) {
 982              		.loc 1 566 0
 983 04b6 BB6C     		ldr	r3, [r7, #72]
 984 04b8 002B     		cmp	r3, #0
 985 04ba 03D0     		beq	.L72
 567:C:\Micrium\Software\uCOS-III\Source\os_flag.c ****                 *p_ts  = (CPU_TS  )0;
 986              		.loc 1 567 0
 987 04bc BB6C     		ldr	r3, [r7, #72]
 988 04be 4FF00002 		mov	r2, #0
 989 04c2 1A60     		str	r2, [r3, #0]
 990              	.L72:
 568:C:\Micrium\Software\uCOS-III\Source\os_flag.c ****              }
 569:C:\Micrium\Software\uCOS-III\Source\os_flag.c ****              CPU_CRITICAL_EXIT();
 991              		.loc 1 569 0
 992 04c4 F86B     		ldr	r0, [r7, #60]
 993 04c6 FFF7FEFF 		bl	CPU_SR_Restore
 570:C:\Micrium\Software\uCOS-III\Source\os_flag.c ****             *p_err = OS_ERR_TIMEOUT;
 994              		.loc 1 570 0
 995 04ca FB6C     		ldr	r3, [r7, #76]
 996 04cc 47F2D922 		movw	r2, #29401
 997 04d0 1A80     		strh	r2, [r3, #0]	@ movhi
 571:C:\Micrium\Software\uCOS-III\Source\os_flag.c ****              break;
 998              		.loc 1 571 0
 999 04d2 19E0     		b	.L70
 1000              	.L66:
 572:C:\Micrium\Software\uCOS-III\Source\os_flag.c **** 
 573:C:\Micrium\Software\uCOS-III\Source\os_flag.c ****         case OS_STATUS_PEND_DEL:                            /* Indicate that object pended on has b
 574:C:\Micrium\Software\uCOS-III\Source\os_flag.c ****              if (p_ts != (CPU_TS *)0) {
 1001              		.loc 1 574 0
 1002 04d4 BB6C     		ldr	r3, [r7, #72]
 1003 04d6 002B     		cmp	r3, #0
 1004 04d8 07D0     		beq	.L73
 575:C:\Micrium\Software\uCOS-III\Source\os_flag.c ****                 *p_ts  = OSTCBCurPtr->TS;
 1005              		.loc 1 575 0
 1006 04da 40F20003 		movw	r3, #:lower16:OSTCBCurPtr
 1007 04de C0F20003 		movt	r3, #:upper16:OSTCBCurPtr
 1008 04e2 1B68     		ldr	r3, [r3, #0]
 1009 04e4 1A6C     		ldr	r2, [r3, #64]
 1010 04e6 BB6C     		ldr	r3, [r7, #72]
 1011 04e8 1A60     		str	r2, [r3, #0]
 1012              	.L73:
 576:C:\Micrium\Software\uCOS-III\Source\os_flag.c ****              }
 577:C:\Micrium\Software\uCOS-III\Source\os_flag.c ****              CPU_CRITICAL_EXIT();
 1013              		.loc 1 577 0
 1014 04ea F86B     		ldr	r0, [r7, #60]
 1015 04ec FFF7FEFF 		bl	CPU_SR_Restore
ARM GAS  C:\Users\daniel01\AppData\Local\Temp\ccFPInc7.s 			page 29


 578:C:\Micrium\Software\uCOS-III\Source\os_flag.c ****             *p_err = OS_ERR_OBJ_DEL;
 1016              		.loc 1 578 0
 1017 04f0 FB6C     		ldr	r3, [r7, #76]
 1018 04f2 45F6C252 		movw	r2, #24002
 1019 04f6 1A80     		strh	r2, [r3, #0]	@ movhi
 579:C:\Micrium\Software\uCOS-III\Source\os_flag.c ****              break;
 1020              		.loc 1 579 0
 1021 04f8 06E0     		b	.L70
 1022              	.L63:
 580:C:\Micrium\Software\uCOS-III\Source\os_flag.c **** 
 581:C:\Micrium\Software\uCOS-III\Source\os_flag.c ****         default:
 582:C:\Micrium\Software\uCOS-III\Source\os_flag.c ****              CPU_CRITICAL_EXIT();
 1023              		.loc 1 582 0
 1024 04fa F86B     		ldr	r0, [r7, #60]
 1025 04fc FFF7FEFF 		bl	CPU_SR_Restore
 583:C:\Micrium\Software\uCOS-III\Source\os_flag.c ****             *p_err = OS_ERR_STATUS_INVALID;
 1026              		.loc 1 583 0
 1027 0500 FB6C     		ldr	r3, [r7, #76]
 1028 0502 46F62E62 		movw	r2, #28206
 1029 0506 1A80     		strh	r2, [r3, #0]	@ movhi
 1030              	.L70:
 584:C:\Micrium\Software\uCOS-III\Source\os_flag.c ****              break;
 585:C:\Micrium\Software\uCOS-III\Source\os_flag.c ****     }
 586:C:\Micrium\Software\uCOS-III\Source\os_flag.c ****     if (*p_err != OS_ERR_NONE) {
 1031              		.loc 1 586 0
 1032 0508 FB6C     		ldr	r3, [r7, #76]
 1033 050a 1B88     		ldrh	r3, [r3, #0]
 1034 050c 002B     		cmp	r3, #0
 1035 050e 02D0     		beq	.L74
 587:C:\Micrium\Software\uCOS-III\Source\os_flag.c ****         return ((OS_FLAGS)0);
 1036              		.loc 1 587 0
 1037 0510 4FF00003 		mov	r3, #0
 1038 0514 48E0     		b	.L24
 1039              	.L74:
 588:C:\Micrium\Software\uCOS-III\Source\os_flag.c ****     }
 589:C:\Micrium\Software\uCOS-III\Source\os_flag.c **** 
 590:C:\Micrium\Software\uCOS-III\Source\os_flag.c ****     flags_rdy = OSTCBCurPtr->FlagsRdy;
 1040              		.loc 1 590 0
 1041 0516 40F20003 		movw	r3, #:lower16:OSTCBCurPtr
 1042 051a C0F20003 		movt	r3, #:upper16:OSTCBCurPtr
 1043 051e 1B68     		ldr	r3, [r3, #0]
 1044 0520 D3F88430 		ldr	r3, [r3, #132]
 1045 0524 7B63     		str	r3, [r7, #52]
 591:C:\Micrium\Software\uCOS-III\Source\os_flag.c ****     if (consume == DEF_TRUE) {                              /* See if we need to consume the flags 
 1046              		.loc 1 591 0
 1047 0526 97F83330 		ldrb	r3, [r7, #51]	@ zero_extendqisi2
 1048 052a 012B     		cmp	r3, #1
 1049 052c 34D1     		bne	.L75
 592:C:\Micrium\Software\uCOS-III\Source\os_flag.c ****         switch (mode) {
 1050              		.loc 1 592 0
 1051 052e 7B8F     		ldrh	r3, [r7, #58]
 1052 0530 03F1FF33 		add	r3, r3, #-1
 1053 0534 072B     		cmp	r3, #7
 1054 0536 25D8     		bhi	.L76
 1055 0538 01A2     		adr	r2, .L79
 1056 053a 52F823F0 		ldr	pc, [r2, r3, lsl #2]
 1057 053e 00BF     		.align	2
ARM GAS  C:\Users\daniel01\AppData\Local\Temp\ccFPInc7.s 			page 30


 1058              	.L79:
 1059 0540 75050000 		.word	.L77+1
 1060 0544 75050000 		.word	.L77+1
 1061 0548 85050000 		.word	.L76+1
 1062 054c 61050000 		.word	.L78+1
 1063 0550 85050000 		.word	.L76+1
 1064 0554 85050000 		.word	.L76+1
 1065 0558 85050000 		.word	.L76+1
 1066 055c 61050000 		.word	.L78+1
 1067              	.L78:
 593:C:\Micrium\Software\uCOS-III\Source\os_flag.c ****             case OS_OPT_PEND_FLAG_SET_ALL:
 594:C:\Micrium\Software\uCOS-III\Source\os_flag.c ****             case OS_OPT_PEND_FLAG_SET_ANY:                  /* Clear ONLY the flags we got         
 595:C:\Micrium\Software\uCOS-III\Source\os_flag.c ****                  p_grp->Flags &= ~flags_rdy;
 1068              		.loc 1 595 0
 1069 0560 FB68     		ldr	r3, [r7, #12]
 1070 0562 1A6A     		ldr	r2, [r3, #32]
 1071 0564 7B6B     		ldr	r3, [r7, #52]
 1072 0566 6FEA0303 		mvn	r3, r3
 1073 056a 02EA0302 		and	r2, r2, r3
 1074 056e FB68     		ldr	r3, [r7, #12]
 1075 0570 1A62     		str	r2, [r3, #32]
 596:C:\Micrium\Software\uCOS-III\Source\os_flag.c ****                  break;
 1076              		.loc 1 596 0
 1077 0572 11E0     		b	.L75
 1078              	.L77:
 597:C:\Micrium\Software\uCOS-III\Source\os_flag.c **** 
 598:C:\Micrium\Software\uCOS-III\Source\os_flag.c **** #if OS_CFG_FLAG_MODE_CLR_EN > 0u
 599:C:\Micrium\Software\uCOS-III\Source\os_flag.c ****             case OS_OPT_PEND_FLAG_CLR_ALL:
 600:C:\Micrium\Software\uCOS-III\Source\os_flag.c ****             case OS_OPT_PEND_FLAG_CLR_ANY:                  /* Set   ONLY the flags we got         
 601:C:\Micrium\Software\uCOS-III\Source\os_flag.c ****                  p_grp->Flags |=  flags_rdy;
 1079              		.loc 1 601 0
 1080 0574 FB68     		ldr	r3, [r7, #12]
 1081 0576 1A6A     		ldr	r2, [r3, #32]
 1082 0578 7B6B     		ldr	r3, [r7, #52]
 1083 057a 42EA0302 		orr	r2, r2, r3
 1084 057e FB68     		ldr	r3, [r7, #12]
 1085 0580 1A62     		str	r2, [r3, #32]
 602:C:\Micrium\Software\uCOS-III\Source\os_flag.c ****                  break;
 1086              		.loc 1 602 0
 1087 0582 09E0     		b	.L75
 1088              	.L76:
 603:C:\Micrium\Software\uCOS-III\Source\os_flag.c **** #endif
 604:C:\Micrium\Software\uCOS-III\Source\os_flag.c ****             default:
 605:C:\Micrium\Software\uCOS-III\Source\os_flag.c ****                  CPU_CRITICAL_EXIT();
 1089              		.loc 1 605 0
 1090 0584 F86B     		ldr	r0, [r7, #60]
 1091 0586 FFF7FEFF 		bl	CPU_SR_Restore
 606:C:\Micrium\Software\uCOS-III\Source\os_flag.c ****                 *p_err = OS_ERR_OPT_INVALID;
 1092              		.loc 1 606 0
 1093 058a FB6C     		ldr	r3, [r7, #76]
 1094 058c 45F62562 		movw	r2, #24101
 1095 0590 1A80     		strh	r2, [r3, #0]	@ movhi
 607:C:\Micrium\Software\uCOS-III\Source\os_flag.c ****                  return ((OS_FLAGS)0);
 1096              		.loc 1 607 0
 1097 0592 4FF00003 		mov	r3, #0
 1098 0596 07E0     		b	.L24
 1099              	.L75:
ARM GAS  C:\Users\daniel01\AppData\Local\Temp\ccFPInc7.s 			page 31


 608:C:\Micrium\Software\uCOS-III\Source\os_flag.c ****         }
 609:C:\Micrium\Software\uCOS-III\Source\os_flag.c ****     }
 610:C:\Micrium\Software\uCOS-III\Source\os_flag.c ****     CPU_CRITICAL_EXIT();
 1100              		.loc 1 610 0
 1101 0598 F86B     		ldr	r0, [r7, #60]
 1102 059a FFF7FEFF 		bl	CPU_SR_Restore
 611:C:\Micrium\Software\uCOS-III\Source\os_flag.c ****    *p_err = OS_ERR_NONE;                                    /* Event(s) must have occurred         
 1103              		.loc 1 611 0
 1104 059e FB6C     		ldr	r3, [r7, #76]
 1105 05a0 4FF00002 		mov	r2, #0
 1106 05a4 1A80     		strh	r2, [r3, #0]	@ movhi
 612:C:\Micrium\Software\uCOS-III\Source\os_flag.c ****     return (flags_rdy);
 1107              		.loc 1 612 0
 1108 05a6 7B6B     		ldr	r3, [r7, #52]
 1109              	.L24:
 613:C:\Micrium\Software\uCOS-III\Source\os_flag.c **** }
 1110              		.loc 1 613 0
 1111 05a8 1846     		mov	r0, r3
 1112 05aa 07F14007 		add	r7, r7, #64
 1113 05ae BD46     		mov	sp, r7
 1114 05b0 80BD     		pop	{r7, pc}
 1115              		.cfi_endproc
 1116              	.LFE2:
 1117              		.size	OSFlagPend, .-OSFlagPend
 1118 05b2 00BF     		.section	.text.OSFlagPendAbort,"ax",%progbits
 1119              		.align	2
 1120              		.global	OSFlagPendAbort
 1121              		.thumb
 1122              		.thumb_func
 1123              		.type	OSFlagPendAbort, %function
 1124              	OSFlagPendAbort:
 1125              	.LFB3:
 614:C:\Micrium\Software\uCOS-III\Source\os_flag.c **** 
 615:C:\Micrium\Software\uCOS-III\Source\os_flag.c **** /*$PAGE*/
 616:C:\Micrium\Software\uCOS-III\Source\os_flag.c **** /*
 617:C:\Micrium\Software\uCOS-III\Source\os_flag.c **** ***************************************************************************************************
 618:C:\Micrium\Software\uCOS-III\Source\os_flag.c **** *                                          ABORT WAITING ON AN EVENT FLAG GROUP
 619:C:\Micrium\Software\uCOS-III\Source\os_flag.c **** *
 620:C:\Micrium\Software\uCOS-III\Source\os_flag.c **** * Description: This function aborts & readies any tasks currently waiting on an event flag group.  
 621:C:\Micrium\Software\uCOS-III\Source\os_flag.c **** *              be used to fault-abort the wait on the event flag group, rather than to normally pos
 622:C:\Micrium\Software\uCOS-III\Source\os_flag.c **** *              group OSFlagPost().
 623:C:\Micrium\Software\uCOS-III\Source\os_flag.c **** *
 624:C:\Micrium\Software\uCOS-III\Source\os_flag.c **** * Arguments  : p_grp     is a pointer to the event flag group
 625:C:\Micrium\Software\uCOS-III\Source\os_flag.c **** *
 626:C:\Micrium\Software\uCOS-III\Source\os_flag.c **** *              opt       determines the type of ABORT performed:
 627:C:\Micrium\Software\uCOS-III\Source\os_flag.c **** *
 628:C:\Micrium\Software\uCOS-III\Source\os_flag.c **** *                            OS_OPT_PEND_ABORT_1          ABORT wait for a single task (HPT) waitin
 629:C:\Micrium\Software\uCOS-III\Source\os_flag.c **** *                            OS_OPT_PEND_ABORT_ALL        ABORT wait for ALL tasks that are  waitin
 630:C:\Micrium\Software\uCOS-III\Source\os_flag.c **** *                            OS_OPT_POST_NO_SCHED         Do not call the scheduler
 631:C:\Micrium\Software\uCOS-III\Source\os_flag.c **** *
 632:C:\Micrium\Software\uCOS-III\Source\os_flag.c **** *              p_err     is a pointer to a variable that will contain an error code returned by thi
 633:C:\Micrium\Software\uCOS-III\Source\os_flag.c **** *
 634:C:\Micrium\Software\uCOS-III\Source\os_flag.c **** *                            OS_ERR_NONE                  At least one task waiting on the event fl
 635:C:\Micrium\Software\uCOS-III\Source\os_flag.c **** *                                                         readied and informed of the aborted wait;
 636:C:\Micrium\Software\uCOS-III\Source\os_flag.c **** *                                                         for the number of tasks whose wait on the
 637:C:\Micrium\Software\uCOS-III\Source\os_flag.c **** *                                                         was aborted.
 638:C:\Micrium\Software\uCOS-III\Source\os_flag.c **** *                            OS_ERR_OBJ_PTR_NULL          If 'p_grp' is a NULL pointer.
ARM GAS  C:\Users\daniel01\AppData\Local\Temp\ccFPInc7.s 			page 32


 639:C:\Micrium\Software\uCOS-III\Source\os_flag.c **** *                            OS_ERR_OBJ_TYPE              If 'p_grp' is not pointing at an event fl
 640:C:\Micrium\Software\uCOS-III\Source\os_flag.c **** *                            OS_ERR_OPT_INVALID           If you specified an invalid option
 641:C:\Micrium\Software\uCOS-III\Source\os_flag.c **** *                            OS_ERR_PEND_ABORT_ISR        If you called this function from an ISR
 642:C:\Micrium\Software\uCOS-III\Source\os_flag.c **** *                            OS_ERR_PEND_ABORT_NONE       No task were pending
 643:C:\Micrium\Software\uCOS-III\Source\os_flag.c **** *
 644:C:\Micrium\Software\uCOS-III\Source\os_flag.c **** * Returns    : == 0          if no tasks were waiting on the event flag group, or upon error.
 645:C:\Micrium\Software\uCOS-III\Source\os_flag.c **** *              >  0          if one or more tasks waiting on the event flag group are now readied a
 646:C:\Micrium\Software\uCOS-III\Source\os_flag.c **** ***************************************************************************************************
 647:C:\Micrium\Software\uCOS-III\Source\os_flag.c **** */
 648:C:\Micrium\Software\uCOS-III\Source\os_flag.c **** 
 649:C:\Micrium\Software\uCOS-III\Source\os_flag.c **** #if OS_CFG_FLAG_PEND_ABORT_EN > 0u
 650:C:\Micrium\Software\uCOS-III\Source\os_flag.c **** OS_OBJ_QTY  OSFlagPendAbort (OS_FLAG_GRP  *p_grp,
 651:C:\Micrium\Software\uCOS-III\Source\os_flag.c ****                              OS_OPT        opt,
 652:C:\Micrium\Software\uCOS-III\Source\os_flag.c ****                              OS_ERR       *p_err)
 653:C:\Micrium\Software\uCOS-III\Source\os_flag.c **** {
 1126              		.loc 1 653 0
 1127              		.cfi_startproc
 1128              		@ args = 0, pretend = 0, frame = 40
 1129              		@ frame_needed = 1, uses_anonymous_args = 0
 1130 0000 80B5     		push	{r7, lr}
 1131              	.LCFI9:
 1132              		.cfi_def_cfa_offset 8
 1133 0002 8AB0     		sub	sp, sp, #40
 1134              	.LCFI10:
 1135              		.cfi_def_cfa_offset 48
 1136 0004 00AF     		add	r7, sp, #0
 1137              		.cfi_offset 14, -4
 1138              		.cfi_offset 7, -8
 1139              	.LCFI11:
 1140              		.cfi_def_cfa_register 7
 1141 0006 F860     		str	r0, [r7, #12]
 1142 0008 0B46     		mov	r3, r1
 1143 000a 7A60     		str	r2, [r7, #4]
 1144 000c 7B81     		strh	r3, [r7, #10]	@ movhi
 654:C:\Micrium\Software\uCOS-III\Source\os_flag.c ****     OS_PEND_LIST  *p_pend_list;
 655:C:\Micrium\Software\uCOS-III\Source\os_flag.c ****     OS_TCB        *p_tcb;
 656:C:\Micrium\Software\uCOS-III\Source\os_flag.c ****     CPU_TS         ts;
 657:C:\Micrium\Software\uCOS-III\Source\os_flag.c ****     OS_OBJ_QTY     nbr_tasks;
 658:C:\Micrium\Software\uCOS-III\Source\os_flag.c ****     CPU_SR_ALLOC();
 1145              		.loc 1 658 0
 1146 000e 4FF00003 		mov	r3, #0
 1147 0012 7B62     		str	r3, [r7, #36]
 659:C:\Micrium\Software\uCOS-III\Source\os_flag.c **** 
 660:C:\Micrium\Software\uCOS-III\Source\os_flag.c **** 
 661:C:\Micrium\Software\uCOS-III\Source\os_flag.c **** 
 662:C:\Micrium\Software\uCOS-III\Source\os_flag.c **** #ifdef OS_SAFETY_CRITICAL
 663:C:\Micrium\Software\uCOS-III\Source\os_flag.c ****     if (p_err == (OS_ERR *)0) {
 664:C:\Micrium\Software\uCOS-III\Source\os_flag.c ****         OS_SAFETY_CRITICAL_EXCEPTION();
 665:C:\Micrium\Software\uCOS-III\Source\os_flag.c ****         return ((OS_OBJ_QTY)0u);
 666:C:\Micrium\Software\uCOS-III\Source\os_flag.c ****     }
 667:C:\Micrium\Software\uCOS-III\Source\os_flag.c **** #endif
 668:C:\Micrium\Software\uCOS-III\Source\os_flag.c **** 
 669:C:\Micrium\Software\uCOS-III\Source\os_flag.c **** #if OS_CFG_CALLED_FROM_ISR_CHK_EN > 0u
 670:C:\Micrium\Software\uCOS-III\Source\os_flag.c ****     if (OSIntNestingCtr > (OS_NESTING_CTR)0u) {             /* Not allowed to Pend Abort from an IS
 1148              		.loc 1 670 0
 1149 0014 40F20003 		movw	r3, #:lower16:OSIntNestingCtr
 1150 0018 C0F20003 		movt	r3, #:upper16:OSIntNestingCtr
ARM GAS  C:\Users\daniel01\AppData\Local\Temp\ccFPInc7.s 			page 33


 1151 001c 1B78     		ldrb	r3, [r3, #0]	@ zero_extendqisi2
 1152 001e 002B     		cmp	r3, #0
 1153 0020 06D0     		beq	.L83
 671:C:\Micrium\Software\uCOS-III\Source\os_flag.c ****        *p_err = OS_ERR_PEND_ABORT_ISR;
 1154              		.loc 1 671 0
 1155 0022 7B68     		ldr	r3, [r7, #4]
 1156 0024 46F2AA12 		movw	r2, #25002
 1157 0028 1A80     		strh	r2, [r3, #0]	@ movhi
 672:C:\Micrium\Software\uCOS-III\Source\os_flag.c ****         return ((OS_OBJ_QTY)0u);
 1158              		.loc 1 672 0
 1159 002a 4FF00003 		mov	r3, #0
 1160 002e 65E0     		b	.L84
 1161              	.L83:
 673:C:\Micrium\Software\uCOS-III\Source\os_flag.c ****     }
 674:C:\Micrium\Software\uCOS-III\Source\os_flag.c **** #endif
 675:C:\Micrium\Software\uCOS-III\Source\os_flag.c **** 
 676:C:\Micrium\Software\uCOS-III\Source\os_flag.c **** #if OS_CFG_ARG_CHK_EN > 0u
 677:C:\Micrium\Software\uCOS-III\Source\os_flag.c ****     if (p_grp == (OS_FLAG_GRP *)0) {                        /* Validate 'p_grp'                    
 1162              		.loc 1 677 0
 1163 0030 FB68     		ldr	r3, [r7, #12]
 1164 0032 002B     		cmp	r3, #0
 1165 0034 06D1     		bne	.L85
 678:C:\Micrium\Software\uCOS-III\Source\os_flag.c ****        *p_err  =  OS_ERR_OBJ_PTR_NULL;
 1166              		.loc 1 678 0
 1167 0036 7B68     		ldr	r3, [r7, #4]
 1168 0038 45F6C352 		movw	r2, #24003
 1169 003c 1A80     		strh	r2, [r3, #0]	@ movhi
 679:C:\Micrium\Software\uCOS-III\Source\os_flag.c ****         return ((OS_OBJ_QTY)0u);
 1170              		.loc 1 679 0
 1171 003e 4FF00003 		mov	r3, #0
 1172 0042 5BE0     		b	.L84
 1173              	.L85:
 680:C:\Micrium\Software\uCOS-III\Source\os_flag.c ****     }
 681:C:\Micrium\Software\uCOS-III\Source\os_flag.c ****     switch (opt) {                                          /* Validate 'opt'                      
 1174              		.loc 1 681 0
 1175 0044 7B89     		ldrh	r3, [r7, #10]
 1176 0046 B3F5807F 		cmp	r3, #256
 1177 004a 0BD0     		beq	.L87
 1178 004c B3F5807F 		cmp	r3, #256
 1179 0050 02DC     		bgt	.L88
 1180 0052 002B     		cmp	r3, #0
 1181 0054 06D0     		beq	.L87
 1182 0056 12E0     		b	.L86
 1183              	.L88:
 1184 0058 B3F5004F 		cmp	r3, #32768
 1185 005c 02D0     		beq	.L87
 1186 005e B3F5014F 		cmp	r3, #33024
 1187 0062 0CD1     		bne	.L86
 1188              	.L87:
 682:C:\Micrium\Software\uCOS-III\Source\os_flag.c ****         case OS_OPT_PEND_ABORT_1:
 683:C:\Micrium\Software\uCOS-III\Source\os_flag.c ****         case OS_OPT_PEND_ABORT_ALL:
 684:C:\Micrium\Software\uCOS-III\Source\os_flag.c ****         case OS_OPT_PEND_ABORT_1   | OS_OPT_POST_NO_SCHED:
 685:C:\Micrium\Software\uCOS-III\Source\os_flag.c ****         case OS_OPT_PEND_ABORT_ALL | OS_OPT_POST_NO_SCHED:
 686:C:\Micrium\Software\uCOS-III\Source\os_flag.c ****              break;
 687:C:\Micrium\Software\uCOS-III\Source\os_flag.c **** 
 688:C:\Micrium\Software\uCOS-III\Source\os_flag.c ****         default:
 689:C:\Micrium\Software\uCOS-III\Source\os_flag.c ****             *p_err = OS_ERR_OPT_INVALID;
ARM GAS  C:\Users\daniel01\AppData\Local\Temp\ccFPInc7.s 			page 34


 690:C:\Micrium\Software\uCOS-III\Source\os_flag.c ****              return ((OS_OBJ_QTY)0u);
 691:C:\Micrium\Software\uCOS-III\Source\os_flag.c ****     }
 692:C:\Micrium\Software\uCOS-III\Source\os_flag.c **** #endif
 693:C:\Micrium\Software\uCOS-III\Source\os_flag.c **** 
 694:C:\Micrium\Software\uCOS-III\Source\os_flag.c **** #if OS_CFG_OBJ_TYPE_CHK_EN > 0u
 695:C:\Micrium\Software\uCOS-III\Source\os_flag.c ****     if (p_grp->Type != OS_OBJ_TYPE_FLAG) {                  /* Make sure event flag group was creat
 696:C:\Micrium\Software\uCOS-III\Source\os_flag.c ****        *p_err = OS_ERR_OBJ_TYPE;
 697:C:\Micrium\Software\uCOS-III\Source\os_flag.c ****         return ((OS_OBJ_QTY)0u);
 698:C:\Micrium\Software\uCOS-III\Source\os_flag.c ****     }
 699:C:\Micrium\Software\uCOS-III\Source\os_flag.c **** #endif
 700:C:\Micrium\Software\uCOS-III\Source\os_flag.c **** 
 701:C:\Micrium\Software\uCOS-III\Source\os_flag.c ****     CPU_CRITICAL_ENTER();
 1189              		.loc 1 701 0
 1190 0064 FFF7FEFF 		bl	CPU_SR_Save
 1191 0068 0346     		mov	r3, r0
 1192 006a 7B62     		str	r3, [r7, #36]
 702:C:\Micrium\Software\uCOS-III\Source\os_flag.c ****     p_pend_list = &p_grp->PendList;
 1193              		.loc 1 702 0
 1194 006c FB68     		ldr	r3, [r7, #12]
 1195 006e 03F10803 		add	r3, r3, #8
 1196 0072 7B61     		str	r3, [r7, #20]
 703:C:\Micrium\Software\uCOS-III\Source\os_flag.c ****     if (p_pend_list->NbrEntries == (OS_OBJ_QTY)0u) {        /* Any task waiting on flag group?     
 1197              		.loc 1 703 0
 1198 0074 7B69     		ldr	r3, [r7, #20]
 1199 0076 1B89     		ldrh	r3, [r3, #8]
 1200 0078 002B     		cmp	r3, #0
 1201 007a 07D0     		beq	.L89
 1202 007c 10E0     		b	.L96
 1203              	.L86:
 1204              		.loc 1 689 0
 1205 007e 7B68     		ldr	r3, [r7, #4]
 1206 0080 45F62562 		movw	r2, #24101
 1207 0084 1A80     		strh	r2, [r3, #0]	@ movhi
 1208              		.loc 1 690 0
 1209 0086 4FF00003 		mov	r3, #0
 1210 008a 37E0     		b	.L84
 1211              	.L89:
 704:C:\Micrium\Software\uCOS-III\Source\os_flag.c ****         CPU_CRITICAL_EXIT();                                /* No                                  
 1212              		.loc 1 704 0
 1213 008c 786A     		ldr	r0, [r7, #36]
 1214 008e FFF7FEFF 		bl	CPU_SR_Restore
 705:C:\Micrium\Software\uCOS-III\Source\os_flag.c ****        *p_err = OS_ERR_PEND_ABORT_NONE;
 1215              		.loc 1 705 0
 1216 0092 7B68     		ldr	r3, [r7, #4]
 1217 0094 46F2AB12 		movw	r2, #25003
 1218 0098 1A80     		strh	r2, [r3, #0]	@ movhi
 706:C:\Micrium\Software\uCOS-III\Source\os_flag.c ****         return ((OS_OBJ_QTY)0u);
 1219              		.loc 1 706 0
 1220 009a 4FF00003 		mov	r3, #0
 1221 009e 2DE0     		b	.L84
 1222              	.L96:
 707:C:\Micrium\Software\uCOS-III\Source\os_flag.c ****     }
 708:C:\Micrium\Software\uCOS-III\Source\os_flag.c **** 
 709:C:\Micrium\Software\uCOS-III\Source\os_flag.c ****     OS_CRITICAL_ENTER_CPU_EXIT();
 710:C:\Micrium\Software\uCOS-III\Source\os_flag.c ****     nbr_tasks = 0u;
 1223              		.loc 1 710 0
 1224 00a0 4FF00003 		mov	r3, #0
ARM GAS  C:\Users\daniel01\AppData\Local\Temp\ccFPInc7.s 			page 35


 1225 00a4 7B84     		strh	r3, [r7, #34]	@ movhi
 711:C:\Micrium\Software\uCOS-III\Source\os_flag.c ****     ts        = OS_TS_GET();                                /* Get local time stamp so all tasks ge
 1226              		.loc 1 711 0
 1227 00a6 FFF7FEFF 		bl	CPU_TS_TmrRd
 1228 00aa 0346     		mov	r3, r0
 1229 00ac FB61     		str	r3, [r7, #28]
 712:C:\Micrium\Software\uCOS-III\Source\os_flag.c ****     while (p_pend_list->NbrEntries > (OS_OBJ_QTY)0u) {
 1230              		.loc 1 712 0
 1231 00ae 11E0     		b	.L91
 1232              	.L93:
 713:C:\Micrium\Software\uCOS-III\Source\os_flag.c ****         p_tcb = p_pend_list->HeadPtr->TCBPtr;
 1233              		.loc 1 713 0
 1234 00b0 7B69     		ldr	r3, [r7, #20]
 1235 00b2 1B68     		ldr	r3, [r3, #0]
 1236 00b4 9B68     		ldr	r3, [r3, #8]
 1237 00b6 BB61     		str	r3, [r7, #24]
 714:C:\Micrium\Software\uCOS-III\Source\os_flag.c ****         OS_PendAbort((OS_PEND_OBJ *)((void *)p_grp),
 1238              		.loc 1 714 0
 1239 00b8 FB68     		ldr	r3, [r7, #12]
 1240 00ba 1846     		mov	r0, r3
 1241 00bc B969     		ldr	r1, [r7, #24]
 1242 00be FA69     		ldr	r2, [r7, #28]
 1243 00c0 FFF7FEFF 		bl	OS_PendAbort
 715:C:\Micrium\Software\uCOS-III\Source\os_flag.c ****                      p_tcb,
 716:C:\Micrium\Software\uCOS-III\Source\os_flag.c ****                      ts);
 717:C:\Micrium\Software\uCOS-III\Source\os_flag.c ****         nbr_tasks++;
 1244              		.loc 1 717 0
 1245 00c4 7B8C     		ldrh	r3, [r7, #34]	@ movhi
 1246 00c6 03F10103 		add	r3, r3, #1
 1247 00ca 7B84     		strh	r3, [r7, #34]	@ movhi
 718:C:\Micrium\Software\uCOS-III\Source\os_flag.c ****         if (opt != OS_OPT_PEND_ABORT_ALL) {                 /* Pend abort all tasks waiting?       
 1248              		.loc 1 718 0
 1249 00cc 7B89     		ldrh	r3, [r7, #10]
 1250 00ce B3F5807F 		cmp	r3, #256
 1251 00d2 04D1     		bne	.L97
 1252              	.L91:
 1253              		.loc 1 712 0
 1254 00d4 7B69     		ldr	r3, [r7, #20]
 1255 00d6 1B89     		ldrh	r3, [r3, #8]
 1256 00d8 002B     		cmp	r3, #0
 1257 00da E9D1     		bne	.L93
 1258 00dc 00E0     		b	.L92
 1259              	.L97:
 719:C:\Micrium\Software\uCOS-III\Source\os_flag.c ****             break;                                          /* No                                  
 1260              		.loc 1 719 0
 1261 00de 00BF     		nop
 1262              	.L92:
 720:C:\Micrium\Software\uCOS-III\Source\os_flag.c ****         }
 721:C:\Micrium\Software\uCOS-III\Source\os_flag.c ****     }
 722:C:\Micrium\Software\uCOS-III\Source\os_flag.c ****     OS_CRITICAL_EXIT_NO_SCHED();
 1263              		.loc 1 722 0
 1264 00e0 786A     		ldr	r0, [r7, #36]
 1265 00e2 FFF7FEFF 		bl	CPU_SR_Restore
 723:C:\Micrium\Software\uCOS-III\Source\os_flag.c **** 
 724:C:\Micrium\Software\uCOS-III\Source\os_flag.c ****     if ((opt & OS_OPT_POST_NO_SCHED) == (OS_OPT)0u) {
 1266              		.loc 1 724 0
 1267 00e6 7B89     		ldrh	r3, [r7, #10]
ARM GAS  C:\Users\daniel01\AppData\Local\Temp\ccFPInc7.s 			page 36


 1268 00e8 1BB2     		sxth	r3, r3
 1269 00ea 002B     		cmp	r3, #0
 1270 00ec 01DB     		blt	.L94
 725:C:\Micrium\Software\uCOS-III\Source\os_flag.c ****         OSSched();                                          /* Run the scheduler                   
 1271              		.loc 1 725 0
 1272 00ee FFF7FEFF 		bl	OSSched
 1273              	.L94:
 726:C:\Micrium\Software\uCOS-III\Source\os_flag.c ****     }
 727:C:\Micrium\Software\uCOS-III\Source\os_flag.c **** 
 728:C:\Micrium\Software\uCOS-III\Source\os_flag.c ****    *p_err = OS_ERR_NONE;
 1274              		.loc 1 728 0
 1275 00f2 7B68     		ldr	r3, [r7, #4]
 1276 00f4 4FF00002 		mov	r2, #0
 1277 00f8 1A80     		strh	r2, [r3, #0]	@ movhi
 729:C:\Micrium\Software\uCOS-III\Source\os_flag.c ****     return (nbr_tasks);
 1278              		.loc 1 729 0
 1279 00fa 7B8C     		ldrh	r3, [r7, #34]
 1280              	.L84:
 730:C:\Micrium\Software\uCOS-III\Source\os_flag.c **** }
 1281              		.loc 1 730 0
 1282 00fc 1846     		mov	r0, r3
 1283 00fe 07F12807 		add	r7, r7, #40
 1284 0102 BD46     		mov	sp, r7
 1285 0104 80BD     		pop	{r7, pc}
 1286              		.cfi_endproc
 1287              	.LFE3:
 1288              		.size	OSFlagPendAbort, .-OSFlagPendAbort
 1289 0106 00BF     		.section	.text.OSFlagPendGetFlagsRdy,"ax",%progbits
 1290              		.align	2
 1291              		.global	OSFlagPendGetFlagsRdy
 1292              		.thumb
 1293              		.thumb_func
 1294              		.type	OSFlagPendGetFlagsRdy, %function
 1295              	OSFlagPendGetFlagsRdy:
 1296              	.LFB4:
 731:C:\Micrium\Software\uCOS-III\Source\os_flag.c **** #endif
 732:C:\Micrium\Software\uCOS-III\Source\os_flag.c **** 
 733:C:\Micrium\Software\uCOS-III\Source\os_flag.c **** /*$PAGE*/
 734:C:\Micrium\Software\uCOS-III\Source\os_flag.c **** /*
 735:C:\Micrium\Software\uCOS-III\Source\os_flag.c **** ***************************************************************************************************
 736:C:\Micrium\Software\uCOS-III\Source\os_flag.c **** *                                       GET FLAGS WHO CAUSED TASK TO BECOME READY
 737:C:\Micrium\Software\uCOS-III\Source\os_flag.c **** *
 738:C:\Micrium\Software\uCOS-III\Source\os_flag.c **** * Description: This function is called to obtain the flags that caused the task to become ready to 
 739:C:\Micrium\Software\uCOS-III\Source\os_flag.c **** *              In other words, this function allows you to tell "Who done it!".
 740:C:\Micrium\Software\uCOS-III\Source\os_flag.c **** *
 741:C:\Micrium\Software\uCOS-III\Source\os_flag.c **** * Arguments  : p_err     is a pointer to an error code
 742:C:\Micrium\Software\uCOS-III\Source\os_flag.c **** *
 743:C:\Micrium\Software\uCOS-III\Source\os_flag.c **** *                            OS_ERR_NONE       if the call was successful
 744:C:\Micrium\Software\uCOS-III\Source\os_flag.c **** *                            OS_ERR_PEND_ISR   if called from an ISR
 745:C:\Micrium\Software\uCOS-III\Source\os_flag.c **** *
 746:C:\Micrium\Software\uCOS-III\Source\os_flag.c **** * Returns    : The flags that caused the task to be ready.
 747:C:\Micrium\Software\uCOS-III\Source\os_flag.c **** ***************************************************************************************************
 748:C:\Micrium\Software\uCOS-III\Source\os_flag.c **** */
 749:C:\Micrium\Software\uCOS-III\Source\os_flag.c **** 
 750:C:\Micrium\Software\uCOS-III\Source\os_flag.c **** OS_FLAGS  OSFlagPendGetFlagsRdy (OS_ERR  *p_err)
 751:C:\Micrium\Software\uCOS-III\Source\os_flag.c **** {
 1297              		.loc 1 751 0
ARM GAS  C:\Users\daniel01\AppData\Local\Temp\ccFPInc7.s 			page 37


 1298              		.cfi_startproc
 1299              		@ args = 0, pretend = 0, frame = 16
 1300              		@ frame_needed = 1, uses_anonymous_args = 0
 1301 0000 80B5     		push	{r7, lr}
 1302              	.LCFI12:
 1303              		.cfi_def_cfa_offset 8
 1304 0002 84B0     		sub	sp, sp, #16
 1305              	.LCFI13:
 1306              		.cfi_def_cfa_offset 24
 1307 0004 00AF     		add	r7, sp, #0
 1308              		.cfi_offset 14, -4
 1309              		.cfi_offset 7, -8
 1310              	.LCFI14:
 1311              		.cfi_def_cfa_register 7
 1312 0006 7860     		str	r0, [r7, #4]
 752:C:\Micrium\Software\uCOS-III\Source\os_flag.c ****     OS_FLAGS   flags;
 753:C:\Micrium\Software\uCOS-III\Source\os_flag.c ****     CPU_SR_ALLOC();
 1313              		.loc 1 753 0
 1314 0008 4FF00003 		mov	r3, #0
 1315 000c FB60     		str	r3, [r7, #12]
 754:C:\Micrium\Software\uCOS-III\Source\os_flag.c **** 
 755:C:\Micrium\Software\uCOS-III\Source\os_flag.c **** 
 756:C:\Micrium\Software\uCOS-III\Source\os_flag.c **** 
 757:C:\Micrium\Software\uCOS-III\Source\os_flag.c **** #ifdef OS_SAFETY_CRITICAL
 758:C:\Micrium\Software\uCOS-III\Source\os_flag.c ****     if (p_err == (OS_ERR *)0) {
 759:C:\Micrium\Software\uCOS-III\Source\os_flag.c ****         OS_SAFETY_CRITICAL_EXCEPTION();
 760:C:\Micrium\Software\uCOS-III\Source\os_flag.c ****         return ((OS_FLAGS)0);
 761:C:\Micrium\Software\uCOS-III\Source\os_flag.c ****     }
 762:C:\Micrium\Software\uCOS-III\Source\os_flag.c **** #endif
 763:C:\Micrium\Software\uCOS-III\Source\os_flag.c **** 
 764:C:\Micrium\Software\uCOS-III\Source\os_flag.c **** #if OS_CFG_CALLED_FROM_ISR_CHK_EN > 0u
 765:C:\Micrium\Software\uCOS-III\Source\os_flag.c ****     if (OSIntNestingCtr > (OS_NESTING_CTR)0) {              /* See if called from ISR ...          
 1316              		.loc 1 765 0
 1317 000e 40F20003 		movw	r3, #:lower16:OSIntNestingCtr
 1318 0012 C0F20003 		movt	r3, #:upper16:OSIntNestingCtr
 1319 0016 1B78     		ldrb	r3, [r3, #0]	@ zero_extendqisi2
 1320 0018 002B     		cmp	r3, #0
 1321 001a 06D0     		beq	.L99
 766:C:\Micrium\Software\uCOS-III\Source\os_flag.c ****        *p_err = OS_ERR_PEND_ISR;                            /* ... can't get from an ISR           
 1322              		.loc 1 766 0
 1323 001c 7B68     		ldr	r3, [r7, #4]
 1324 001e 46F2AE12 		movw	r2, #25006
 1325 0022 1A80     		strh	r2, [r3, #0]	@ movhi
 767:C:\Micrium\Software\uCOS-III\Source\os_flag.c ****         return ((OS_FLAGS)0);
 1326              		.loc 1 767 0
 1327 0024 4FF00003 		mov	r3, #0
 1328 0028 13E0     		b	.L100
 1329              	.L99:
 768:C:\Micrium\Software\uCOS-III\Source\os_flag.c ****     }
 769:C:\Micrium\Software\uCOS-III\Source\os_flag.c **** #endif
 770:C:\Micrium\Software\uCOS-III\Source\os_flag.c **** 
 771:C:\Micrium\Software\uCOS-III\Source\os_flag.c ****     CPU_CRITICAL_ENTER();
 1330              		.loc 1 771 0
 1331 002a FFF7FEFF 		bl	CPU_SR_Save
 1332 002e 0346     		mov	r3, r0
 1333 0030 FB60     		str	r3, [r7, #12]
 772:C:\Micrium\Software\uCOS-III\Source\os_flag.c ****     flags = OSTCBCurPtr->FlagsRdy;
ARM GAS  C:\Users\daniel01\AppData\Local\Temp\ccFPInc7.s 			page 38


 1334              		.loc 1 772 0
 1335 0032 40F20003 		movw	r3, #:lower16:OSTCBCurPtr
 1336 0036 C0F20003 		movt	r3, #:upper16:OSTCBCurPtr
 1337 003a 1B68     		ldr	r3, [r3, #0]
 1338 003c D3F88430 		ldr	r3, [r3, #132]
 1339 0040 BB60     		str	r3, [r7, #8]
 773:C:\Micrium\Software\uCOS-III\Source\os_flag.c ****     CPU_CRITICAL_EXIT();
 1340              		.loc 1 773 0
 1341 0042 F868     		ldr	r0, [r7, #12]
 1342 0044 FFF7FEFF 		bl	CPU_SR_Restore
 774:C:\Micrium\Software\uCOS-III\Source\os_flag.c ****    *p_err = OS_ERR_NONE;
 1343              		.loc 1 774 0
 1344 0048 7B68     		ldr	r3, [r7, #4]
 1345 004a 4FF00002 		mov	r2, #0
 1346 004e 1A80     		strh	r2, [r3, #0]	@ movhi
 775:C:\Micrium\Software\uCOS-III\Source\os_flag.c ****     return (flags);
 1347              		.loc 1 775 0
 1348 0050 BB68     		ldr	r3, [r7, #8]
 1349              	.L100:
 776:C:\Micrium\Software\uCOS-III\Source\os_flag.c **** }
 1350              		.loc 1 776 0
 1351 0052 1846     		mov	r0, r3
 1352 0054 07F11007 		add	r7, r7, #16
 1353 0058 BD46     		mov	sp, r7
 1354 005a 80BD     		pop	{r7, pc}
 1355              		.cfi_endproc
 1356              	.LFE4:
 1357              		.size	OSFlagPendGetFlagsRdy, .-OSFlagPendGetFlagsRdy
 1358              		.section	.text.OSFlagPost,"ax",%progbits
 1359              		.align	2
 1360              		.global	OSFlagPost
 1361              		.thumb
 1362              		.thumb_func
 1363              		.type	OSFlagPost, %function
 1364              	OSFlagPost:
 1365              	.LFB5:
 777:C:\Micrium\Software\uCOS-III\Source\os_flag.c **** 
 778:C:\Micrium\Software\uCOS-III\Source\os_flag.c **** /*$PAGE*/
 779:C:\Micrium\Software\uCOS-III\Source\os_flag.c **** /*
 780:C:\Micrium\Software\uCOS-III\Source\os_flag.c **** ***************************************************************************************************
 781:C:\Micrium\Software\uCOS-III\Source\os_flag.c **** *                                                POST EVENT FLAG BIT(S)
 782:C:\Micrium\Software\uCOS-III\Source\os_flag.c **** *
 783:C:\Micrium\Software\uCOS-III\Source\os_flag.c **** * Description: This function is called to set or clear some bits in an event flag group.  The bits 
 784:C:\Micrium\Software\uCOS-III\Source\os_flag.c **** *              specified by a 'bit mask'.
 785:C:\Micrium\Software\uCOS-III\Source\os_flag.c **** *
 786:C:\Micrium\Software\uCOS-III\Source\os_flag.c **** * Arguments  : p_grp         is a pointer to the desired event flag group.
 787:C:\Micrium\Software\uCOS-III\Source\os_flag.c **** *
 788:C:\Micrium\Software\uCOS-III\Source\os_flag.c **** *              flags         If 'opt' (see below) is OS_OPT_POST_FLAG_SET, each bit that is set in 
 789:C:\Micrium\Software\uCOS-III\Source\os_flag.c **** *                            set the corresponding bit in the event flag group.  e.g. to set bits 0
 790:C:\Micrium\Software\uCOS-III\Source\os_flag.c **** *                            and 5 you would set 'flags' to:
 791:C:\Micrium\Software\uCOS-III\Source\os_flag.c **** *
 792:C:\Micrium\Software\uCOS-III\Source\os_flag.c **** *                                0x31     (note, bit 0 is least significant bit)
 793:C:\Micrium\Software\uCOS-III\Source\os_flag.c **** *
 794:C:\Micrium\Software\uCOS-III\Source\os_flag.c **** *                            If 'opt' (see below) is OS_OPT_POST_FLAG_CLR, each bit that is set in 
 795:C:\Micrium\Software\uCOS-III\Source\os_flag.c **** *                            CLEAR the corresponding bit in the event flag group.  e.g. to clear bi
 796:C:\Micrium\Software\uCOS-III\Source\os_flag.c **** *                            4 and 5 you would specify 'flags' as:
 797:C:\Micrium\Software\uCOS-III\Source\os_flag.c **** *
ARM GAS  C:\Users\daniel01\AppData\Local\Temp\ccFPInc7.s 			page 39


 798:C:\Micrium\Software\uCOS-III\Source\os_flag.c **** *                                0x31     (note, bit 0 is least significant bit)
 799:C:\Micrium\Software\uCOS-III\Source\os_flag.c **** *
 800:C:\Micrium\Software\uCOS-III\Source\os_flag.c **** *              opt           indicates whether the flags will be:
 801:C:\Micrium\Software\uCOS-III\Source\os_flag.c **** *
 802:C:\Micrium\Software\uCOS-III\Source\os_flag.c **** *                                OS_OPT_POST_FLAG_SET       set
 803:C:\Micrium\Software\uCOS-III\Source\os_flag.c **** *                                OS_OPT_POST_FLAG_CLR       cleared
 804:C:\Micrium\Software\uCOS-III\Source\os_flag.c **** *
 805:C:\Micrium\Software\uCOS-III\Source\os_flag.c **** *                            you can also 'add' OS_OPT_POST_NO_SCHED to prevent the scheduler from 
 806:C:\Micrium\Software\uCOS-III\Source\os_flag.c **** *
 807:C:\Micrium\Software\uCOS-III\Source\os_flag.c **** *              p_err         is a pointer to an error code and can be:
 808:C:\Micrium\Software\uCOS-III\Source\os_flag.c **** *
 809:C:\Micrium\Software\uCOS-III\Source\os_flag.c **** *                                OS_ERR_NONE                The call was successful
 810:C:\Micrium\Software\uCOS-III\Source\os_flag.c **** *                                OS_ERR_OBJ_PTR_NULL        You passed a NULL pointer
 811:C:\Micrium\Software\uCOS-III\Source\os_flag.c **** *                                OS_ERR_OBJ_TYPE            You are not pointing to an event flag g
 812:C:\Micrium\Software\uCOS-III\Source\os_flag.c **** *                                OS_ERR_OPT_INVALID         You specified an invalid option
 813:C:\Micrium\Software\uCOS-III\Source\os_flag.c **** *
 814:C:\Micrium\Software\uCOS-III\Source\os_flag.c **** * Returns    : the new value of the event flags bits that are still set.
 815:C:\Micrium\Software\uCOS-III\Source\os_flag.c **** *
 816:C:\Micrium\Software\uCOS-III\Source\os_flag.c **** * Note(s)    : 1) The execution time of this function depends on the number of tasks waiting on the
 817:C:\Micrium\Software\uCOS-III\Source\os_flag.c **** ***************************************************************************************************
 818:C:\Micrium\Software\uCOS-III\Source\os_flag.c **** */
 819:C:\Micrium\Software\uCOS-III\Source\os_flag.c **** 
 820:C:\Micrium\Software\uCOS-III\Source\os_flag.c **** OS_FLAGS  OSFlagPost (OS_FLAG_GRP  *p_grp,
 821:C:\Micrium\Software\uCOS-III\Source\os_flag.c ****                       OS_FLAGS      flags,
 822:C:\Micrium\Software\uCOS-III\Source\os_flag.c ****                       OS_OPT        opt,
 823:C:\Micrium\Software\uCOS-III\Source\os_flag.c ****                       OS_ERR       *p_err)
 824:C:\Micrium\Software\uCOS-III\Source\os_flag.c **** {
 1366              		.loc 1 824 0
 1367              		.cfi_startproc
 1368              		@ args = 0, pretend = 0, frame = 24
 1369              		@ frame_needed = 1, uses_anonymous_args = 0
 1370 0000 80B5     		push	{r7, lr}
 1371              	.LCFI15:
 1372              		.cfi_def_cfa_offset 8
 1373 0002 88B0     		sub	sp, sp, #32
 1374              	.LCFI16:
 1375              		.cfi_def_cfa_offset 40
 1376 0004 02AF     		add	r7, sp, #8
 1377              		.cfi_offset 14, -4
 1378              		.cfi_offset 7, -8
 1379              	.LCFI17:
 1380              		.cfi_def_cfa 7, 32
 1381 0006 F860     		str	r0, [r7, #12]
 1382 0008 B960     		str	r1, [r7, #8]
 1383 000a 3B60     		str	r3, [r7, #0]
 1384 000c 1346     		mov	r3, r2	@ movhi
 1385 000e FB80     		strh	r3, [r7, #6]	@ movhi
 825:C:\Micrium\Software\uCOS-III\Source\os_flag.c ****     OS_FLAGS  flags_cur;
 826:C:\Micrium\Software\uCOS-III\Source\os_flag.c ****     CPU_TS    ts;
 827:C:\Micrium\Software\uCOS-III\Source\os_flag.c **** 
 828:C:\Micrium\Software\uCOS-III\Source\os_flag.c **** 
 829:C:\Micrium\Software\uCOS-III\Source\os_flag.c **** 
 830:C:\Micrium\Software\uCOS-III\Source\os_flag.c **** #ifdef OS_SAFETY_CRITICAL
 831:C:\Micrium\Software\uCOS-III\Source\os_flag.c ****     if (p_err == (OS_ERR *)0) {
 832:C:\Micrium\Software\uCOS-III\Source\os_flag.c ****         OS_SAFETY_CRITICAL_EXCEPTION();
 833:C:\Micrium\Software\uCOS-III\Source\os_flag.c ****         return ((OS_FLAGS)0);
 834:C:\Micrium\Software\uCOS-III\Source\os_flag.c ****     }
ARM GAS  C:\Users\daniel01\AppData\Local\Temp\ccFPInc7.s 			page 40


 835:C:\Micrium\Software\uCOS-III\Source\os_flag.c **** #endif
 836:C:\Micrium\Software\uCOS-III\Source\os_flag.c **** 
 837:C:\Micrium\Software\uCOS-III\Source\os_flag.c **** #if OS_CFG_ARG_CHK_EN > 0u
 838:C:\Micrium\Software\uCOS-III\Source\os_flag.c ****     if (p_grp == (OS_FLAG_GRP *)0) {                        /* Validate 'p_grp'                    
 1386              		.loc 1 838 0
 1387 0010 FB68     		ldr	r3, [r7, #12]
 1388 0012 002B     		cmp	r3, #0
 1389 0014 06D1     		bne	.L103
 839:C:\Micrium\Software\uCOS-III\Source\os_flag.c ****        *p_err  = OS_ERR_OBJ_PTR_NULL;
 1390              		.loc 1 839 0
 1391 0016 3B68     		ldr	r3, [r7, #0]
 1392 0018 45F6C352 		movw	r2, #24003
 1393 001c 1A80     		strh	r2, [r3, #0]	@ movhi
 840:C:\Micrium\Software\uCOS-III\Source\os_flag.c ****         return ((OS_FLAGS)0);
 1394              		.loc 1 840 0
 1395 001e 4FF00003 		mov	r3, #0
 1396 0022 1FE0     		b	.L104
 1397              	.L103:
 841:C:\Micrium\Software\uCOS-III\Source\os_flag.c ****     }
 842:C:\Micrium\Software\uCOS-III\Source\os_flag.c ****     switch (opt) {                                          /* Validate 'opt'                      
 1398              		.loc 1 842 0
 1399 0024 FB88     		ldrh	r3, [r7, #6]
 1400 0026 002B     		cmp	r3, #0
 1401 0028 16DB     		blt	.L105
 1402 002a 012B     		cmp	r3, #1
 1403 002c 03DD     		ble	.L106
 1404 002e A3F50043 		sub	r3, r3, #32768
 1405 0032 012B     		cmp	r3, #1
 1406 0034 10D8     		bhi	.L105
 1407              	.L106:
 843:C:\Micrium\Software\uCOS-III\Source\os_flag.c ****         case OS_OPT_POST_FLAG_SET:
 844:C:\Micrium\Software\uCOS-III\Source\os_flag.c ****         case OS_OPT_POST_FLAG_CLR:
 845:C:\Micrium\Software\uCOS-III\Source\os_flag.c ****         case OS_OPT_POST_FLAG_SET | OS_OPT_POST_NO_SCHED:
 846:C:\Micrium\Software\uCOS-III\Source\os_flag.c ****         case OS_OPT_POST_FLAG_CLR | OS_OPT_POST_NO_SCHED:
 847:C:\Micrium\Software\uCOS-III\Source\os_flag.c ****              break;
 848:C:\Micrium\Software\uCOS-III\Source\os_flag.c **** 
 849:C:\Micrium\Software\uCOS-III\Source\os_flag.c ****         default:
 850:C:\Micrium\Software\uCOS-III\Source\os_flag.c ****             *p_err = OS_ERR_OPT_INVALID;
 851:C:\Micrium\Software\uCOS-III\Source\os_flag.c ****              return ((OS_FLAGS)0);
 852:C:\Micrium\Software\uCOS-III\Source\os_flag.c ****     }
 853:C:\Micrium\Software\uCOS-III\Source\os_flag.c **** #endif
 854:C:\Micrium\Software\uCOS-III\Source\os_flag.c **** 
 855:C:\Micrium\Software\uCOS-III\Source\os_flag.c **** #if OS_CFG_OBJ_TYPE_CHK_EN > 0u
 856:C:\Micrium\Software\uCOS-III\Source\os_flag.c ****     if (p_grp->Type != OS_OBJ_TYPE_FLAG) {                  /* Make sure we are pointing to an even
 857:C:\Micrium\Software\uCOS-III\Source\os_flag.c ****        *p_err = OS_ERR_OBJ_TYPE;
 858:C:\Micrium\Software\uCOS-III\Source\os_flag.c ****         return ((OS_FLAGS)0);
 859:C:\Micrium\Software\uCOS-III\Source\os_flag.c ****     }
 860:C:\Micrium\Software\uCOS-III\Source\os_flag.c **** #endif
 861:C:\Micrium\Software\uCOS-III\Source\os_flag.c **** 
 862:C:\Micrium\Software\uCOS-III\Source\os_flag.c ****     ts = OS_TS_GET();                                       /* Get timestamp                       
 1408              		.loc 1 862 0
 1409 0036 FFF7FEFF 		bl	CPU_TS_TmrRd
 1410 003a 0346     		mov	r3, r0
 1411 003c 7B61     		str	r3, [r7, #20]
 863:C:\Micrium\Software\uCOS-III\Source\os_flag.c **** #if OS_CFG_ISR_POST_DEFERRED_EN > 0u
 864:C:\Micrium\Software\uCOS-III\Source\os_flag.c ****     if (OSIntNestingCtr > (OS_NESTING_CTR)0) {              /* See if called from an ISR           
 865:C:\Micrium\Software\uCOS-III\Source\os_flag.c ****         OS_IntQPost((OS_OBJ_TYPE)OS_OBJ_TYPE_FLAG,          /* Post to ISR queue                   
ARM GAS  C:\Users\daniel01\AppData\Local\Temp\ccFPInc7.s 			page 41


 866:C:\Micrium\Software\uCOS-III\Source\os_flag.c ****                     (void      *)p_grp,
 867:C:\Micrium\Software\uCOS-III\Source\os_flag.c ****                     (void      *)0,
 868:C:\Micrium\Software\uCOS-III\Source\os_flag.c ****                     (OS_MSG_SIZE)0,
 869:C:\Micrium\Software\uCOS-III\Source\os_flag.c ****                     (OS_FLAGS   )flags,
 870:C:\Micrium\Software\uCOS-III\Source\os_flag.c ****                     (OS_OPT     )opt,
 871:C:\Micrium\Software\uCOS-III\Source\os_flag.c ****                     (CPU_TS     )ts,
 872:C:\Micrium\Software\uCOS-III\Source\os_flag.c ****                     (OS_ERR    *)p_err);
 873:C:\Micrium\Software\uCOS-III\Source\os_flag.c ****         return ((OS_FLAGS)0);
 874:C:\Micrium\Software\uCOS-III\Source\os_flag.c ****     }
 875:C:\Micrium\Software\uCOS-III\Source\os_flag.c **** #endif
 876:C:\Micrium\Software\uCOS-III\Source\os_flag.c **** 
 877:C:\Micrium\Software\uCOS-III\Source\os_flag.c ****     flags_cur = OS_FlagPost(p_grp,
 1412              		.loc 1 877 0
 1413 003e FB88     		ldrh	r3, [r7, #6]
 1414 0040 3A68     		ldr	r2, [r7, #0]
 1415 0042 0092     		str	r2, [sp, #0]
 1416 0044 F868     		ldr	r0, [r7, #12]
 1417 0046 B968     		ldr	r1, [r7, #8]
 1418 0048 1A46     		mov	r2, r3
 1419 004a 7B69     		ldr	r3, [r7, #20]
 1420 004c FFF7FEFF 		bl	OS_FlagPost
 1421 0050 0346     		mov	r3, r0
 1422 0052 3B61     		str	r3, [r7, #16]
 878:C:\Micrium\Software\uCOS-III\Source\os_flag.c ****                             flags,
 879:C:\Micrium\Software\uCOS-III\Source\os_flag.c ****                             opt,
 880:C:\Micrium\Software\uCOS-III\Source\os_flag.c ****                             ts,
 881:C:\Micrium\Software\uCOS-III\Source\os_flag.c ****                             p_err);
 882:C:\Micrium\Software\uCOS-III\Source\os_flag.c **** 
 883:C:\Micrium\Software\uCOS-III\Source\os_flag.c ****     return (flags_cur);
 1423              		.loc 1 883 0
 1424 0054 3B69     		ldr	r3, [r7, #16]
 1425 0056 05E0     		b	.L104
 1426              	.L105:
 1427              		.loc 1 850 0
 1428 0058 3B68     		ldr	r3, [r7, #0]
 1429 005a 45F62562 		movw	r2, #24101
 1430 005e 1A80     		strh	r2, [r3, #0]	@ movhi
 1431              		.loc 1 851 0
 1432 0060 4FF00003 		mov	r3, #0
 1433              	.L104:
 884:C:\Micrium\Software\uCOS-III\Source\os_flag.c **** }
 1434              		.loc 1 884 0
 1435 0064 1846     		mov	r0, r3
 1436 0066 07F11807 		add	r7, r7, #24
 1437 006a BD46     		mov	sp, r7
 1438 006c 80BD     		pop	{r7, pc}
 1439              		.cfi_endproc
 1440              	.LFE5:
 1441              		.size	OSFlagPost, .-OSFlagPost
 1442 006e 00BF     		.section	.text.OS_FlagBlock,"ax",%progbits
 1443              		.align	2
 1444              		.global	OS_FlagBlock
 1445              		.thumb
 1446              		.thumb_func
 1447              		.type	OS_FlagBlock, %function
 1448              	OS_FlagBlock:
 1449              	.LFB6:
ARM GAS  C:\Users\daniel01\AppData\Local\Temp\ccFPInc7.s 			page 42


 885:C:\Micrium\Software\uCOS-III\Source\os_flag.c **** 
 886:C:\Micrium\Software\uCOS-III\Source\os_flag.c **** /*$PAGE*/
 887:C:\Micrium\Software\uCOS-III\Source\os_flag.c **** /*
 888:C:\Micrium\Software\uCOS-III\Source\os_flag.c **** ***************************************************************************************************
 889:C:\Micrium\Software\uCOS-III\Source\os_flag.c **** *                         SUSPEND TASK UNTIL EVENT FLAG(s) RECEIVED OR TIMEOUT OCCURS
 890:C:\Micrium\Software\uCOS-III\Source\os_flag.c **** *
 891:C:\Micrium\Software\uCOS-III\Source\os_flag.c **** * Description: This function is internal to uC/OS-III and is used to put a task to sleep until the 
 892:C:\Micrium\Software\uCOS-III\Source\os_flag.c **** *              event flag bit(s) are set.
 893:C:\Micrium\Software\uCOS-III\Source\os_flag.c **** *
 894:C:\Micrium\Software\uCOS-III\Source\os_flag.c **** * Arguments  : p_pend_data    is a pointer to an object used to link the task being blocked to the 
 895:C:\Micrium\Software\uCOS-III\Source\os_flag.c **** *              -----------    pending on the desired event flag group.
 896:C:\Micrium\Software\uCOS-III\Source\os_flag.c **** *
 897:C:\Micrium\Software\uCOS-III\Source\os_flag.c **** *              p_grp         is a pointer to the desired event flag group.
 898:C:\Micrium\Software\uCOS-III\Source\os_flag.c **** *              -----
 899:C:\Micrium\Software\uCOS-III\Source\os_flag.c **** *
 900:C:\Micrium\Software\uCOS-III\Source\os_flag.c **** *              flags         Is a bit pattern indicating which bit(s) (i.e. flags) you wish to chec
 901:C:\Micrium\Software\uCOS-III\Source\os_flag.c **** *                            The bits you want are specified by setting the corresponding bits in
 902:C:\Micrium\Software\uCOS-III\Source\os_flag.c **** *                            'flags'.  e.g. if your application wants to wait for bits 0 and 1 then
 903:C:\Micrium\Software\uCOS-III\Source\os_flag.c **** *                            'flags' would contain 0x03.
 904:C:\Micrium\Software\uCOS-III\Source\os_flag.c **** *
 905:C:\Micrium\Software\uCOS-III\Source\os_flag.c **** *              opt           specifies whether you want ALL bits to be set/cleared or ANY of the bi
 906:C:\Micrium\Software\uCOS-III\Source\os_flag.c **** *                            to be set/cleared.
 907:C:\Micrium\Software\uCOS-III\Source\os_flag.c **** *                            You can specify the following argument:
 908:C:\Micrium\Software\uCOS-III\Source\os_flag.c **** *
 909:C:\Micrium\Software\uCOS-III\Source\os_flag.c **** *                                OS_OPT_PEND_FLAG_CLR_ALL   You will check ALL bits in 'mask' to be
 910:C:\Micrium\Software\uCOS-III\Source\os_flag.c **** *                                OS_OPT_PEND_FLAG_CLR_ANY   You will check ANY bit  in 'mask' to be
 911:C:\Micrium\Software\uCOS-III\Source\os_flag.c **** *                                OS_OPT_PEND_FLAG_SET_ALL   You will check ALL bits in 'mask' to be
 912:C:\Micrium\Software\uCOS-III\Source\os_flag.c **** *                                OS_OPT_PEND_FLAG_SET_ANY   You will check ANY bit  in 'mask' to be
 913:C:\Micrium\Software\uCOS-III\Source\os_flag.c **** *
 914:C:\Micrium\Software\uCOS-III\Source\os_flag.c **** *              timeout       is the desired amount of time that the task will wait for the event fl
 915:C:\Micrium\Software\uCOS-III\Source\os_flag.c **** *                            bit(s) to be set.
 916:C:\Micrium\Software\uCOS-III\Source\os_flag.c **** *
 917:C:\Micrium\Software\uCOS-III\Source\os_flag.c **** * Returns    : none
 918:C:\Micrium\Software\uCOS-III\Source\os_flag.c **** *
 919:C:\Micrium\Software\uCOS-III\Source\os_flag.c **** * Note(s)    : This function is INTERNAL to uC/OS-III and your application should not call it.
 920:C:\Micrium\Software\uCOS-III\Source\os_flag.c **** ***************************************************************************************************
 921:C:\Micrium\Software\uCOS-III\Source\os_flag.c **** */
 922:C:\Micrium\Software\uCOS-III\Source\os_flag.c **** 
 923:C:\Micrium\Software\uCOS-III\Source\os_flag.c **** void  OS_FlagBlock (OS_PEND_DATA  *p_pend_data,
 924:C:\Micrium\Software\uCOS-III\Source\os_flag.c ****                     OS_FLAG_GRP   *p_grp,
 925:C:\Micrium\Software\uCOS-III\Source\os_flag.c ****                     OS_FLAGS       flags,
 926:C:\Micrium\Software\uCOS-III\Source\os_flag.c ****                     OS_OPT         opt,
 927:C:\Micrium\Software\uCOS-III\Source\os_flag.c ****                     OS_TICK        timeout)
 928:C:\Micrium\Software\uCOS-III\Source\os_flag.c **** {
 1450              		.loc 1 928 0
 1451              		.cfi_startproc
 1452              		@ args = 4, pretend = 0, frame = 16
 1453              		@ frame_needed = 1, uses_anonymous_args = 0
 1454 0000 80B5     		push	{r7, lr}
 1455              	.LCFI18:
 1456              		.cfi_def_cfa_offset 8
 1457 0002 84B0     		sub	sp, sp, #16
 1458              	.LCFI19:
 1459              		.cfi_def_cfa_offset 24
 1460 0004 00AF     		add	r7, sp, #0
 1461              		.cfi_offset 14, -4
 1462              		.cfi_offset 7, -8
ARM GAS  C:\Users\daniel01\AppData\Local\Temp\ccFPInc7.s 			page 43


 1463              	.LCFI20:
 1464              		.cfi_def_cfa_register 7
 1465 0006 F860     		str	r0, [r7, #12]
 1466 0008 B960     		str	r1, [r7, #8]
 1467 000a 7A60     		str	r2, [r7, #4]
 1468 000c 7B80     		strh	r3, [r7, #2]	@ movhi
 929:C:\Micrium\Software\uCOS-III\Source\os_flag.c ****     OSTCBCurPtr->FlagsPend = flags;                         /* Save the flags that we need to wait 
 1469              		.loc 1 929 0
 1470 000e 40F20003 		movw	r3, #:lower16:OSTCBCurPtr
 1471 0012 C0F20003 		movt	r3, #:upper16:OSTCBCurPtr
 1472 0016 1B68     		ldr	r3, [r3, #0]
 1473 0018 7A68     		ldr	r2, [r7, #4]
 1474 001a C3F88020 		str	r2, [r3, #128]
 930:C:\Micrium\Software\uCOS-III\Source\os_flag.c ****     OSTCBCurPtr->FlagsOpt  = opt;                           /* Save the type of wait we are doing  
 1475              		.loc 1 930 0
 1476 001e 40F20003 		movw	r3, #:lower16:OSTCBCurPtr
 1477 0022 C0F20003 		movt	r3, #:upper16:OSTCBCurPtr
 1478 0026 1B68     		ldr	r3, [r3, #0]
 1479 0028 7A88     		ldrh	r2, [r7, #2]	@ movhi
 1480 002a A3F88820 		strh	r2, [r3, #136]	@ movhi
 931:C:\Micrium\Software\uCOS-III\Source\os_flag.c ****     OSTCBCurPtr->FlagsRdy  = (OS_FLAGS)0;
 1481              		.loc 1 931 0
 1482 002e 40F20003 		movw	r3, #:lower16:OSTCBCurPtr
 1483 0032 C0F20003 		movt	r3, #:upper16:OSTCBCurPtr
 1484 0036 1B68     		ldr	r3, [r3, #0]
 1485 0038 4FF00002 		mov	r2, #0
 1486 003c C3F88420 		str	r2, [r3, #132]
 932:C:\Micrium\Software\uCOS-III\Source\os_flag.c **** 
 933:C:\Micrium\Software\uCOS-III\Source\os_flag.c ****     OS_Pend(p_pend_data,
 1487              		.loc 1 933 0
 1488 0040 BB68     		ldr	r3, [r7, #8]
 1489 0042 F868     		ldr	r0, [r7, #12]
 1490 0044 1946     		mov	r1, r3
 1491 0046 4FF00102 		mov	r2, #1
 1492 004a BB69     		ldr	r3, [r7, #24]
 1493 004c FFF7FEFF 		bl	OS_Pend
 934:C:\Micrium\Software\uCOS-III\Source\os_flag.c ****             (OS_PEND_OBJ *)((void *)p_grp),
 935:C:\Micrium\Software\uCOS-III\Source\os_flag.c ****              OS_TASK_PEND_ON_FLAG,
 936:C:\Micrium\Software\uCOS-III\Source\os_flag.c ****              timeout);
 937:C:\Micrium\Software\uCOS-III\Source\os_flag.c **** }
 1494              		.loc 1 937 0
 1495 0050 07F11007 		add	r7, r7, #16
 1496 0054 BD46     		mov	sp, r7
 1497 0056 80BD     		pop	{r7, pc}
 1498              		.cfi_endproc
 1499              	.LFE6:
 1500              		.size	OS_FlagBlock, .-OS_FlagBlock
 1501              		.section	.rodata
 1502              		.align	2
 1503              	.LC0:
 1504 0000 3F464C41 		.ascii	"?FLAG\000"
 1504      4700
 1505              		.section	.text.OS_FlagClr,"ax",%progbits
 1506              		.align	2
 1507              		.global	OS_FlagClr
 1508              		.thumb
 1509              		.thumb_func
ARM GAS  C:\Users\daniel01\AppData\Local\Temp\ccFPInc7.s 			page 44


 1510              		.type	OS_FlagClr, %function
 1511              	OS_FlagClr:
 1512              	.LFB7:
 938:C:\Micrium\Software\uCOS-III\Source\os_flag.c **** 
 939:C:\Micrium\Software\uCOS-III\Source\os_flag.c **** /*$PAGE*/
 940:C:\Micrium\Software\uCOS-III\Source\os_flag.c **** /*
 941:C:\Micrium\Software\uCOS-III\Source\os_flag.c **** ***************************************************************************************************
 942:C:\Micrium\Software\uCOS-III\Source\os_flag.c **** *                                      CLEAR THE CONTENTS OF AN EVENT FLAG GROUP
 943:C:\Micrium\Software\uCOS-III\Source\os_flag.c **** *
 944:C:\Micrium\Software\uCOS-III\Source\os_flag.c **** * Description: This function is called by OSFlagDel() to clear the contents of an event flag group
 945:C:\Micrium\Software\uCOS-III\Source\os_flag.c **** *
 946:C:\Micrium\Software\uCOS-III\Source\os_flag.c **** 
 947:C:\Micrium\Software\uCOS-III\Source\os_flag.c **** * Argument(s): p_grp     is a pointer to the event flag group to clear
 948:C:\Micrium\Software\uCOS-III\Source\os_flag.c **** *              -----
 949:C:\Micrium\Software\uCOS-III\Source\os_flag.c **** *
 950:C:\Micrium\Software\uCOS-III\Source\os_flag.c **** * Returns    : none
 951:C:\Micrium\Software\uCOS-III\Source\os_flag.c **** *
 952:C:\Micrium\Software\uCOS-III\Source\os_flag.c **** * Note(s)    : This function is INTERNAL to uC/OS-III and your application should not call it.
 953:C:\Micrium\Software\uCOS-III\Source\os_flag.c **** ***************************************************************************************************
 954:C:\Micrium\Software\uCOS-III\Source\os_flag.c **** */
 955:C:\Micrium\Software\uCOS-III\Source\os_flag.c **** 
 956:C:\Micrium\Software\uCOS-III\Source\os_flag.c **** void  OS_FlagClr (OS_FLAG_GRP  *p_grp)
 957:C:\Micrium\Software\uCOS-III\Source\os_flag.c **** {
 1513              		.loc 1 957 0
 1514              		.cfi_startproc
 1515              		@ args = 0, pretend = 0, frame = 16
 1516              		@ frame_needed = 1, uses_anonymous_args = 0
 1517 0000 80B5     		push	{r7, lr}
 1518              	.LCFI21:
 1519              		.cfi_def_cfa_offset 8
 1520 0002 84B0     		sub	sp, sp, #16
 1521              	.LCFI22:
 1522              		.cfi_def_cfa_offset 24
 1523 0004 00AF     		add	r7, sp, #0
 1524              		.cfi_offset 14, -4
 1525              		.cfi_offset 7, -8
 1526              	.LCFI23:
 1527              		.cfi_def_cfa_register 7
 1528 0006 7860     		str	r0, [r7, #4]
 958:C:\Micrium\Software\uCOS-III\Source\os_flag.c ****     OS_PEND_LIST  *p_pend_list;
 959:C:\Micrium\Software\uCOS-III\Source\os_flag.c **** 
 960:C:\Micrium\Software\uCOS-III\Source\os_flag.c **** 
 961:C:\Micrium\Software\uCOS-III\Source\os_flag.c **** 
 962:C:\Micrium\Software\uCOS-III\Source\os_flag.c ****     p_grp->Type             = OS_OBJ_TYPE_NONE;
 1529              		.loc 1 962 0
 1530 0008 7A68     		ldr	r2, [r7, #4]
 1531 000a 44F64E73 		movw	r3, #:lower16:1162760014
 1532 000e C4F24E53 		movt	r3, #:upper16:1162760014
 1533 0012 1360     		str	r3, [r2, #0]
 963:C:\Micrium\Software\uCOS-III\Source\os_flag.c ****     p_grp->NamePtr          = (CPU_CHAR *)((void *)"?FLAG");    /* Unknown name                    
 1534              		.loc 1 963 0
 1535 0014 7A68     		ldr	r2, [r7, #4]
 1536 0016 40F20003 		movw	r3, #:lower16:.LC0
 1537 001a C0F20003 		movt	r3, #:upper16:.LC0
 1538 001e 5360     		str	r3, [r2, #4]
 964:C:\Micrium\Software\uCOS-III\Source\os_flag.c ****     p_grp->Flags            = (OS_FLAGS )0;
 1539              		.loc 1 964 0
ARM GAS  C:\Users\daniel01\AppData\Local\Temp\ccFPInc7.s 			page 45


 1540 0020 7B68     		ldr	r3, [r7, #4]
 1541 0022 4FF00002 		mov	r2, #0
 1542 0026 1A62     		str	r2, [r3, #32]
 965:C:\Micrium\Software\uCOS-III\Source\os_flag.c ****     p_pend_list             = &p_grp->PendList;
 1543              		.loc 1 965 0
 1544 0028 7B68     		ldr	r3, [r7, #4]
 1545 002a 03F10803 		add	r3, r3, #8
 1546 002e FB60     		str	r3, [r7, #12]
 966:C:\Micrium\Software\uCOS-III\Source\os_flag.c ****     OS_PendListInit(p_pend_list);
 1547              		.loc 1 966 0
 1548 0030 F868     		ldr	r0, [r7, #12]
 1549 0032 FFF7FEFF 		bl	OS_PendListInit
 967:C:\Micrium\Software\uCOS-III\Source\os_flag.c **** }
 1550              		.loc 1 967 0
 1551 0036 07F11007 		add	r7, r7, #16
 1552 003a BD46     		mov	sp, r7
 1553 003c 80BD     		pop	{r7, pc}
 1554              		.cfi_endproc
 1555              	.LFE7:
 1556              		.size	OS_FlagClr, .-OS_FlagClr
 1557 003e 00BF     		.section	.text.OS_FlagInit,"ax",%progbits
 1558              		.align	2
 1559              		.global	OS_FlagInit
 1560              		.thumb
 1561              		.thumb_func
 1562              		.type	OS_FlagInit, %function
 1563              	OS_FlagInit:
 1564              	.LFB8:
 968:C:\Micrium\Software\uCOS-III\Source\os_flag.c **** 
 969:C:\Micrium\Software\uCOS-III\Source\os_flag.c **** /*$PAGE*/
 970:C:\Micrium\Software\uCOS-III\Source\os_flag.c **** /*
 971:C:\Micrium\Software\uCOS-III\Source\os_flag.c **** ***************************************************************************************************
 972:C:\Micrium\Software\uCOS-III\Source\os_flag.c **** *                                          INITIALIZE THE EVENT FLAG MODULE
 973:C:\Micrium\Software\uCOS-III\Source\os_flag.c **** *
 974:C:\Micrium\Software\uCOS-III\Source\os_flag.c **** * Description: This function is called by uC/OS-III to initialize the event flag module.  Your appl
 975:C:\Micrium\Software\uCOS-III\Source\os_flag.c **** *              this function.  In other words, this function is internal to uC/OS-III.
 976:C:\Micrium\Software\uCOS-III\Source\os_flag.c **** *
 977:C:\Micrium\Software\uCOS-III\Source\os_flag.c **** * Arguments  : p_err     is a pointer to an error code that can contain one of the following values
 978:C:\Micrium\Software\uCOS-III\Source\os_flag.c **** *
 979:C:\Micrium\Software\uCOS-III\Source\os_flag.c **** *                            OS_ERR_NONE   The call was successful.
 980:C:\Micrium\Software\uCOS-III\Source\os_flag.c **** *
 981:C:\Micrium\Software\uCOS-III\Source\os_flag.c **** * Returns    : none
 982:C:\Micrium\Software\uCOS-III\Source\os_flag.c **** *
 983:C:\Micrium\Software\uCOS-III\Source\os_flag.c **** * Note(s)    : This function is INTERNAL to uC/OS-III and your application should not call it.
 984:C:\Micrium\Software\uCOS-III\Source\os_flag.c **** ***************************************************************************************************
 985:C:\Micrium\Software\uCOS-III\Source\os_flag.c **** */
 986:C:\Micrium\Software\uCOS-III\Source\os_flag.c **** 
 987:C:\Micrium\Software\uCOS-III\Source\os_flag.c **** void  OS_FlagInit (OS_ERR  *p_err)
 988:C:\Micrium\Software\uCOS-III\Source\os_flag.c **** {
 1565              		.loc 1 988 0
 1566              		.cfi_startproc
 1567              		@ args = 0, pretend = 0, frame = 8
 1568              		@ frame_needed = 1, uses_anonymous_args = 0
 1569              		@ link register save eliminated.
 1570 0000 80B4     		push	{r7}
 1571              	.LCFI24:
 1572              		.cfi_def_cfa_offset 4
ARM GAS  C:\Users\daniel01\AppData\Local\Temp\ccFPInc7.s 			page 46


 1573 0002 83B0     		sub	sp, sp, #12
 1574              	.LCFI25:
 1575              		.cfi_def_cfa_offset 16
 1576 0004 00AF     		add	r7, sp, #0
 1577              		.cfi_offset 7, -4
 1578              	.LCFI26:
 1579              		.cfi_def_cfa_register 7
 1580 0006 7860     		str	r0, [r7, #4]
 989:C:\Micrium\Software\uCOS-III\Source\os_flag.c **** #ifdef OS_SAFETY_CRITICAL
 990:C:\Micrium\Software\uCOS-III\Source\os_flag.c ****     if (p_err == (OS_ERR *)0) {
 991:C:\Micrium\Software\uCOS-III\Source\os_flag.c ****         OS_SAFETY_CRITICAL_EXCEPTION();
 992:C:\Micrium\Software\uCOS-III\Source\os_flag.c ****         return;
 993:C:\Micrium\Software\uCOS-III\Source\os_flag.c ****     }
 994:C:\Micrium\Software\uCOS-III\Source\os_flag.c **** #endif
 995:C:\Micrium\Software\uCOS-III\Source\os_flag.c **** 
 996:C:\Micrium\Software\uCOS-III\Source\os_flag.c **** #if OS_CFG_DBG_EN > 0u
 997:C:\Micrium\Software\uCOS-III\Source\os_flag.c ****     OSFlagDbgListPtr = (OS_FLAG_GRP *)0;
 1581              		.loc 1 997 0
 1582 0008 40F20003 		movw	r3, #:lower16:OSFlagDbgListPtr
 1583 000c C0F20003 		movt	r3, #:upper16:OSFlagDbgListPtr
 1584 0010 4FF00002 		mov	r2, #0
 1585 0014 1A60     		str	r2, [r3, #0]
 998:C:\Micrium\Software\uCOS-III\Source\os_flag.c **** #endif
 999:C:\Micrium\Software\uCOS-III\Source\os_flag.c **** 
1000:C:\Micrium\Software\uCOS-III\Source\os_flag.c ****     OSFlagQty        = (OS_OBJ_QTY   )0;
 1586              		.loc 1 1000 0
 1587 0016 40F20003 		movw	r3, #:lower16:OSFlagQty
 1588 001a C0F20003 		movt	r3, #:upper16:OSFlagQty
 1589 001e 4FF00002 		mov	r2, #0
 1590 0022 1A80     		strh	r2, [r3, #0]	@ movhi
1001:C:\Micrium\Software\uCOS-III\Source\os_flag.c ****    *p_err            = OS_ERR_NONE;
 1591              		.loc 1 1001 0
 1592 0024 7B68     		ldr	r3, [r7, #4]
 1593 0026 4FF00002 		mov	r2, #0
 1594 002a 1A80     		strh	r2, [r3, #0]	@ movhi
1002:C:\Micrium\Software\uCOS-III\Source\os_flag.c **** }
 1595              		.loc 1 1002 0
 1596 002c 07F10C07 		add	r7, r7, #12
 1597 0030 BD46     		mov	sp, r7
 1598 0032 80BC     		pop	{r7}
 1599 0034 7047     		bx	lr
 1600              		.cfi_endproc
 1601              	.LFE8:
 1602              		.size	OS_FlagInit, .-OS_FlagInit
 1603 0036 00BF     		.section	.rodata
 1604 0006 0000     		.align	2
 1605              	.LC1:
 1606 0008 2000     		.ascii	" \000"
 1607 000a 0000     		.section	.text.OS_FlagDbgListAdd,"ax",%progbits
 1608              		.align	2
 1609              		.global	OS_FlagDbgListAdd
 1610              		.thumb
 1611              		.thumb_func
 1612              		.type	OS_FlagDbgListAdd, %function
 1613              	OS_FlagDbgListAdd:
 1614              	.LFB9:
1003:C:\Micrium\Software\uCOS-III\Source\os_flag.c **** 
ARM GAS  C:\Users\daniel01\AppData\Local\Temp\ccFPInc7.s 			page 47


1004:C:\Micrium\Software\uCOS-III\Source\os_flag.c **** /*$PAGE*/
1005:C:\Micrium\Software\uCOS-III\Source\os_flag.c **** /*
1006:C:\Micrium\Software\uCOS-III\Source\os_flag.c **** ***************************************************************************************************
1007:C:\Micrium\Software\uCOS-III\Source\os_flag.c **** *                                    ADD/REMOVE EVENT FLAG GROUP TO/FROM DEBUG LIST
1008:C:\Micrium\Software\uCOS-III\Source\os_flag.c **** *
1009:C:\Micrium\Software\uCOS-III\Source\os_flag.c **** * Description: These functions are called by uC/OS-III to add or remove an event flag group from th
1010:C:\Micrium\Software\uCOS-III\Source\os_flag.c **** *              list.
1011:C:\Micrium\Software\uCOS-III\Source\os_flag.c **** *
1012:C:\Micrium\Software\uCOS-III\Source\os_flag.c **** * Arguments  : p_grp     is a pointer to the event flag group to add/remove
1013:C:\Micrium\Software\uCOS-III\Source\os_flag.c **** *
1014:C:\Micrium\Software\uCOS-III\Source\os_flag.c **** * Returns    : none
1015:C:\Micrium\Software\uCOS-III\Source\os_flag.c **** *
1016:C:\Micrium\Software\uCOS-III\Source\os_flag.c **** * Note(s)    : These functions are INTERNAL to uC/OS-III and your application should not call it.
1017:C:\Micrium\Software\uCOS-III\Source\os_flag.c **** ***************************************************************************************************
1018:C:\Micrium\Software\uCOS-III\Source\os_flag.c **** */
1019:C:\Micrium\Software\uCOS-III\Source\os_flag.c **** 
1020:C:\Micrium\Software\uCOS-III\Source\os_flag.c **** #if OS_CFG_DBG_EN > 0u
1021:C:\Micrium\Software\uCOS-III\Source\os_flag.c **** void  OS_FlagDbgListAdd (OS_FLAG_GRP  *p_grp)
1022:C:\Micrium\Software\uCOS-III\Source\os_flag.c **** {
 1615              		.loc 1 1022 0
 1616              		.cfi_startproc
 1617              		@ args = 0, pretend = 0, frame = 8
 1618              		@ frame_needed = 1, uses_anonymous_args = 0
 1619              		@ link register save eliminated.
 1620 0000 80B4     		push	{r7}
 1621              	.LCFI27:
 1622              		.cfi_def_cfa_offset 4
 1623 0002 83B0     		sub	sp, sp, #12
 1624              	.LCFI28:
 1625              		.cfi_def_cfa_offset 16
 1626 0004 00AF     		add	r7, sp, #0
 1627              		.cfi_offset 7, -4
 1628              	.LCFI29:
 1629              		.cfi_def_cfa_register 7
 1630 0006 7860     		str	r0, [r7, #4]
1023:C:\Micrium\Software\uCOS-III\Source\os_flag.c ****     p_grp->DbgNamePtr                = (CPU_CHAR    *)((void *)" ");
 1631              		.loc 1 1023 0
 1632 0008 7A68     		ldr	r2, [r7, #4]
 1633 000a 40F20003 		movw	r3, #:lower16:.LC1
 1634 000e C0F20003 		movt	r3, #:upper16:.LC1
 1635 0012 D361     		str	r3, [r2, #28]
1024:C:\Micrium\Software\uCOS-III\Source\os_flag.c ****     p_grp->DbgPrevPtr                = (OS_FLAG_GRP *)0;
 1636              		.loc 1 1024 0
 1637 0014 7B68     		ldr	r3, [r7, #4]
 1638 0016 4FF00002 		mov	r2, #0
 1639 001a 5A61     		str	r2, [r3, #20]
1025:C:\Micrium\Software\uCOS-III\Source\os_flag.c ****     if (OSFlagDbgListPtr == (OS_FLAG_GRP *)0) {
 1640              		.loc 1 1025 0
 1641 001c 40F20003 		movw	r3, #:lower16:OSFlagDbgListPtr
 1642 0020 C0F20003 		movt	r3, #:upper16:OSFlagDbgListPtr
 1643 0024 1B68     		ldr	r3, [r3, #0]
 1644 0026 002B     		cmp	r3, #0
 1645 0028 04D1     		bne	.L115
1026:C:\Micrium\Software\uCOS-III\Source\os_flag.c ****         p_grp->DbgNextPtr            = (OS_FLAG_GRP *)0;
 1646              		.loc 1 1026 0
 1647 002a 7B68     		ldr	r3, [r7, #4]
 1648 002c 4FF00002 		mov	r2, #0
ARM GAS  C:\Users\daniel01\AppData\Local\Temp\ccFPInc7.s 			page 48


 1649 0030 9A61     		str	r2, [r3, #24]
 1650 0032 0DE0     		b	.L116
 1651              	.L115:
1027:C:\Micrium\Software\uCOS-III\Source\os_flag.c ****     } else {
1028:C:\Micrium\Software\uCOS-III\Source\os_flag.c ****         p_grp->DbgNextPtr            =  OSFlagDbgListPtr;
 1652              		.loc 1 1028 0
 1653 0034 40F20003 		movw	r3, #:lower16:OSFlagDbgListPtr
 1654 0038 C0F20003 		movt	r3, #:upper16:OSFlagDbgListPtr
 1655 003c 1A68     		ldr	r2, [r3, #0]
 1656 003e 7B68     		ldr	r3, [r7, #4]
 1657 0040 9A61     		str	r2, [r3, #24]
1029:C:\Micrium\Software\uCOS-III\Source\os_flag.c ****         OSFlagDbgListPtr->DbgPrevPtr =  p_grp;
 1658              		.loc 1 1029 0
 1659 0042 40F20003 		movw	r3, #:lower16:OSFlagDbgListPtr
 1660 0046 C0F20003 		movt	r3, #:upper16:OSFlagDbgListPtr
 1661 004a 1B68     		ldr	r3, [r3, #0]
 1662 004c 7A68     		ldr	r2, [r7, #4]
 1663 004e 5A61     		str	r2, [r3, #20]
 1664              	.L116:
1030:C:\Micrium\Software\uCOS-III\Source\os_flag.c ****     }
1031:C:\Micrium\Software\uCOS-III\Source\os_flag.c ****     OSFlagDbgListPtr                 =  p_grp;
 1665              		.loc 1 1031 0
 1666 0050 40F20003 		movw	r3, #:lower16:OSFlagDbgListPtr
 1667 0054 C0F20003 		movt	r3, #:upper16:OSFlagDbgListPtr
 1668 0058 7A68     		ldr	r2, [r7, #4]
 1669 005a 1A60     		str	r2, [r3, #0]
1032:C:\Micrium\Software\uCOS-III\Source\os_flag.c **** }
 1670              		.loc 1 1032 0
 1671 005c 07F10C07 		add	r7, r7, #12
 1672 0060 BD46     		mov	sp, r7
 1673 0062 80BC     		pop	{r7}
 1674 0064 7047     		bx	lr
 1675              		.cfi_endproc
 1676              	.LFE9:
 1677              		.size	OS_FlagDbgListAdd, .-OS_FlagDbgListAdd
 1678 0066 00BF     		.section	.text.OS_FlagDbgListRemove,"ax",%progbits
 1679              		.align	2
 1680              		.global	OS_FlagDbgListRemove
 1681              		.thumb
 1682              		.thumb_func
 1683              		.type	OS_FlagDbgListRemove, %function
 1684              	OS_FlagDbgListRemove:
 1685              	.LFB10:
1033:C:\Micrium\Software\uCOS-III\Source\os_flag.c **** 
1034:C:\Micrium\Software\uCOS-III\Source\os_flag.c **** 
1035:C:\Micrium\Software\uCOS-III\Source\os_flag.c **** 
1036:C:\Micrium\Software\uCOS-III\Source\os_flag.c **** void  OS_FlagDbgListRemove (OS_FLAG_GRP  *p_grp)
1037:C:\Micrium\Software\uCOS-III\Source\os_flag.c **** {
 1686              		.loc 1 1037 0
 1687              		.cfi_startproc
 1688              		@ args = 0, pretend = 0, frame = 16
 1689              		@ frame_needed = 1, uses_anonymous_args = 0
 1690              		@ link register save eliminated.
 1691 0000 80B4     		push	{r7}
 1692              	.LCFI30:
 1693              		.cfi_def_cfa_offset 4
 1694 0002 85B0     		sub	sp, sp, #20
ARM GAS  C:\Users\daniel01\AppData\Local\Temp\ccFPInc7.s 			page 49


 1695              	.LCFI31:
 1696              		.cfi_def_cfa_offset 24
 1697 0004 00AF     		add	r7, sp, #0
 1698              		.cfi_offset 7, -4
 1699              	.LCFI32:
 1700              		.cfi_def_cfa_register 7
 1701 0006 7860     		str	r0, [r7, #4]
1038:C:\Micrium\Software\uCOS-III\Source\os_flag.c ****     OS_FLAG_GRP  *p_grp_next;
1039:C:\Micrium\Software\uCOS-III\Source\os_flag.c ****     OS_FLAG_GRP  *p_grp_prev;
1040:C:\Micrium\Software\uCOS-III\Source\os_flag.c **** 
1041:C:\Micrium\Software\uCOS-III\Source\os_flag.c **** 
1042:C:\Micrium\Software\uCOS-III\Source\os_flag.c ****     p_grp_prev = p_grp->DbgPrevPtr;
 1702              		.loc 1 1042 0
 1703 0008 7B68     		ldr	r3, [r7, #4]
 1704 000a 5B69     		ldr	r3, [r3, #20]
 1705 000c FB60     		str	r3, [r7, #12]
1043:C:\Micrium\Software\uCOS-III\Source\os_flag.c ****     p_grp_next = p_grp->DbgNextPtr;
 1706              		.loc 1 1043 0
 1707 000e 7B68     		ldr	r3, [r7, #4]
 1708 0010 9B69     		ldr	r3, [r3, #24]
 1709 0012 BB60     		str	r3, [r7, #8]
1044:C:\Micrium\Software\uCOS-III\Source\os_flag.c **** 
1045:C:\Micrium\Software\uCOS-III\Source\os_flag.c ****     if (p_grp_prev == (OS_FLAG_GRP *)0) {
 1710              		.loc 1 1045 0
 1711 0014 FB68     		ldr	r3, [r7, #12]
 1712 0016 002B     		cmp	r3, #0
 1713 0018 11D1     		bne	.L119
1046:C:\Micrium\Software\uCOS-III\Source\os_flag.c ****         OSFlagDbgListPtr = p_grp_next;
 1714              		.loc 1 1046 0
 1715 001a 40F20003 		movw	r3, #:lower16:OSFlagDbgListPtr
 1716 001e C0F20003 		movt	r3, #:upper16:OSFlagDbgListPtr
 1717 0022 BA68     		ldr	r2, [r7, #8]
 1718 0024 1A60     		str	r2, [r3, #0]
1047:C:\Micrium\Software\uCOS-III\Source\os_flag.c ****         if (p_grp_next != (OS_FLAG_GRP *)0) {
 1719              		.loc 1 1047 0
 1720 0026 BB68     		ldr	r3, [r7, #8]
 1721 0028 002B     		cmp	r3, #0
 1722 002a 03D0     		beq	.L120
1048:C:\Micrium\Software\uCOS-III\Source\os_flag.c ****             p_grp_next->DbgPrevPtr = (OS_FLAG_GRP *)0;
 1723              		.loc 1 1048 0
 1724 002c BB68     		ldr	r3, [r7, #8]
 1725 002e 4FF00002 		mov	r2, #0
 1726 0032 5A61     		str	r2, [r3, #20]
 1727              	.L120:
1049:C:\Micrium\Software\uCOS-III\Source\os_flag.c ****         }
1050:C:\Micrium\Software\uCOS-III\Source\os_flag.c ****         p_grp->DbgNextPtr = (OS_FLAG_GRP *)0;
 1728              		.loc 1 1050 0
 1729 0034 7B68     		ldr	r3, [r7, #4]
 1730 0036 4FF00002 		mov	r2, #0
 1731 003a 9A61     		str	r2, [r3, #24]
 1732 003c 19E0     		b	.L123
 1733              	.L119:
1051:C:\Micrium\Software\uCOS-III\Source\os_flag.c **** 
1052:C:\Micrium\Software\uCOS-III\Source\os_flag.c ****     } else if (p_grp_next == (OS_FLAG_GRP *)0) {
 1734              		.loc 1 1052 0
 1735 003e BB68     		ldr	r3, [r7, #8]
 1736 0040 002B     		cmp	r3, #0
ARM GAS  C:\Users\daniel01\AppData\Local\Temp\ccFPInc7.s 			page 50


 1737 0042 08D1     		bne	.L122
1053:C:\Micrium\Software\uCOS-III\Source\os_flag.c ****         p_grp_prev->DbgNextPtr = (OS_FLAG_GRP *)0;
 1738              		.loc 1 1053 0
 1739 0044 FB68     		ldr	r3, [r7, #12]
 1740 0046 4FF00002 		mov	r2, #0
 1741 004a 9A61     		str	r2, [r3, #24]
1054:C:\Micrium\Software\uCOS-III\Source\os_flag.c ****         p_grp->DbgPrevPtr      = (OS_FLAG_GRP *)0;
 1742              		.loc 1 1054 0
 1743 004c 7B68     		ldr	r3, [r7, #4]
 1744 004e 4FF00002 		mov	r2, #0
 1745 0052 5A61     		str	r2, [r3, #20]
 1746 0054 0DE0     		b	.L123
 1747              	.L122:
1055:C:\Micrium\Software\uCOS-III\Source\os_flag.c **** 
1056:C:\Micrium\Software\uCOS-III\Source\os_flag.c ****     } else {
1057:C:\Micrium\Software\uCOS-III\Source\os_flag.c ****         p_grp_prev->DbgNextPtr =  p_grp_next;
 1748              		.loc 1 1057 0
 1749 0056 FB68     		ldr	r3, [r7, #12]
 1750 0058 BA68     		ldr	r2, [r7, #8]
 1751 005a 9A61     		str	r2, [r3, #24]
1058:C:\Micrium\Software\uCOS-III\Source\os_flag.c ****         p_grp_next->DbgPrevPtr =  p_grp_prev;
 1752              		.loc 1 1058 0
 1753 005c BB68     		ldr	r3, [r7, #8]
 1754 005e FA68     		ldr	r2, [r7, #12]
 1755 0060 5A61     		str	r2, [r3, #20]
1059:C:\Micrium\Software\uCOS-III\Source\os_flag.c ****         p_grp->DbgNextPtr      = (OS_FLAG_GRP *)0;
 1756              		.loc 1 1059 0
 1757 0062 7B68     		ldr	r3, [r7, #4]
 1758 0064 4FF00002 		mov	r2, #0
 1759 0068 9A61     		str	r2, [r3, #24]
1060:C:\Micrium\Software\uCOS-III\Source\os_flag.c ****         p_grp->DbgPrevPtr      = (OS_FLAG_GRP *)0;
 1760              		.loc 1 1060 0
 1761 006a 7B68     		ldr	r3, [r7, #4]
 1762 006c 4FF00002 		mov	r2, #0
 1763 0070 5A61     		str	r2, [r3, #20]
 1764              	.L123:
1061:C:\Micrium\Software\uCOS-III\Source\os_flag.c ****     }
1062:C:\Micrium\Software\uCOS-III\Source\os_flag.c **** }
 1765              		.loc 1 1062 0
 1766 0072 07F11407 		add	r7, r7, #20
 1767 0076 BD46     		mov	sp, r7
 1768 0078 80BC     		pop	{r7}
 1769 007a 7047     		bx	lr
 1770              		.cfi_endproc
 1771              	.LFE10:
 1772              		.size	OS_FlagDbgListRemove, .-OS_FlagDbgListRemove
 1773              		.section	.text.OS_FlagPost,"ax",%progbits
 1774              		.align	2
 1775              		.global	OS_FlagPost
 1776              		.thumb
 1777              		.thumb_func
 1778              		.type	OS_FlagPost, %function
 1779              	OS_FlagPost:
 1780              	.LFB11:
1063:C:\Micrium\Software\uCOS-III\Source\os_flag.c **** #endif
1064:C:\Micrium\Software\uCOS-III\Source\os_flag.c **** 
1065:C:\Micrium\Software\uCOS-III\Source\os_flag.c **** /*$PAGE*/
ARM GAS  C:\Users\daniel01\AppData\Local\Temp\ccFPInc7.s 			page 51


1066:C:\Micrium\Software\uCOS-III\Source\os_flag.c **** /*
1067:C:\Micrium\Software\uCOS-III\Source\os_flag.c **** ***************************************************************************************************
1068:C:\Micrium\Software\uCOS-III\Source\os_flag.c **** *                                                POST EVENT FLAG BIT(S)
1069:C:\Micrium\Software\uCOS-III\Source\os_flag.c **** *
1070:C:\Micrium\Software\uCOS-III\Source\os_flag.c **** * Description: This function is called to set or clear some bits in an event flag group.  The bits 
1071:C:\Micrium\Software\uCOS-III\Source\os_flag.c **** *              specified by a 'bit mask'.
1072:C:\Micrium\Software\uCOS-III\Source\os_flag.c **** *
1073:C:\Micrium\Software\uCOS-III\Source\os_flag.c **** * Arguments  : p_grp         is a pointer to the desired event flag group.
1074:C:\Micrium\Software\uCOS-III\Source\os_flag.c **** *
1075:C:\Micrium\Software\uCOS-III\Source\os_flag.c **** *              flags         If 'opt' (see below) is OS_OPT_POST_FLAG_SET, each bit that is set in 
1076:C:\Micrium\Software\uCOS-III\Source\os_flag.c **** *                            set the corresponding bit in the event flag group.  e.g. to set bits 0
1077:C:\Micrium\Software\uCOS-III\Source\os_flag.c **** *                            and 5 you would set 'flags' to:
1078:C:\Micrium\Software\uCOS-III\Source\os_flag.c **** *
1079:C:\Micrium\Software\uCOS-III\Source\os_flag.c **** *                                0x31     (note, bit 0 is least significant bit)
1080:C:\Micrium\Software\uCOS-III\Source\os_flag.c **** *
1081:C:\Micrium\Software\uCOS-III\Source\os_flag.c **** *                            If 'opt' (see below) is OS_OPT_POST_FLAG_CLR, each bit that is set in 
1082:C:\Micrium\Software\uCOS-III\Source\os_flag.c **** *                            CLEAR the corresponding bit in the event flag group.  e.g. to clear bi
1083:C:\Micrium\Software\uCOS-III\Source\os_flag.c **** *                            4 and 5 you would specify 'flags' as:
1084:C:\Micrium\Software\uCOS-III\Source\os_flag.c **** *
1085:C:\Micrium\Software\uCOS-III\Source\os_flag.c **** *                                0x31     (note, bit 0 is least significant bit)
1086:C:\Micrium\Software\uCOS-III\Source\os_flag.c **** *
1087:C:\Micrium\Software\uCOS-III\Source\os_flag.c **** *              opt           indicates whether the flags will be:
1088:C:\Micrium\Software\uCOS-III\Source\os_flag.c **** *
1089:C:\Micrium\Software\uCOS-III\Source\os_flag.c **** *                                OS_OPT_POST_FLAG_SET       set
1090:C:\Micrium\Software\uCOS-III\Source\os_flag.c **** *                                OS_OPT_POST_FLAG_CLR       cleared
1091:C:\Micrium\Software\uCOS-III\Source\os_flag.c **** *
1092:C:\Micrium\Software\uCOS-III\Source\os_flag.c **** *                            you can also 'add' OS_OPT_POST_NO_SCHED to prevent the scheduler from 
1093:C:\Micrium\Software\uCOS-III\Source\os_flag.c **** *
1094:C:\Micrium\Software\uCOS-III\Source\os_flag.c **** *              ts            is the timestamp of the post
1095:C:\Micrium\Software\uCOS-III\Source\os_flag.c **** *
1096:C:\Micrium\Software\uCOS-III\Source\os_flag.c **** *              p_err         is a pointer to an error code and can be:
1097:C:\Micrium\Software\uCOS-III\Source\os_flag.c **** *
1098:C:\Micrium\Software\uCOS-III\Source\os_flag.c **** *                                OS_ERR_NONE                The call was successful
1099:C:\Micrium\Software\uCOS-III\Source\os_flag.c **** *                                OS_ERR_OBJ_PTR_NULL        You passed a NULL pointer
1100:C:\Micrium\Software\uCOS-III\Source\os_flag.c **** *                                OS_ERR_OBJ_TYPE            You are not pointing to an event flag g
1101:C:\Micrium\Software\uCOS-III\Source\os_flag.c **** *                                OS_ERR_OPT_INVALID         You specified an invalid option
1102:C:\Micrium\Software\uCOS-III\Source\os_flag.c **** *
1103:C:\Micrium\Software\uCOS-III\Source\os_flag.c **** * Returns    : the new value of the event flags bits that are still set.
1104:C:\Micrium\Software\uCOS-III\Source\os_flag.c **** *
1105:C:\Micrium\Software\uCOS-III\Source\os_flag.c **** * Note(s)    : 1) The execution time of this function depends on the number of tasks waiting on the
1106:C:\Micrium\Software\uCOS-III\Source\os_flag.c **** ***************************************************************************************************
1107:C:\Micrium\Software\uCOS-III\Source\os_flag.c **** */
1108:C:\Micrium\Software\uCOS-III\Source\os_flag.c **** 
1109:C:\Micrium\Software\uCOS-III\Source\os_flag.c **** OS_FLAGS  OS_FlagPost (OS_FLAG_GRP  *p_grp,
1110:C:\Micrium\Software\uCOS-III\Source\os_flag.c ****                        OS_FLAGS      flags,
1111:C:\Micrium\Software\uCOS-III\Source\os_flag.c ****                        OS_OPT        opt,
1112:C:\Micrium\Software\uCOS-III\Source\os_flag.c ****                        CPU_TS        ts,
1113:C:\Micrium\Software\uCOS-III\Source\os_flag.c ****                        OS_ERR       *p_err)
1114:C:\Micrium\Software\uCOS-III\Source\os_flag.c **** {
 1781              		.loc 1 1114 0
 1782              		.cfi_startproc
 1783              		@ args = 4, pretend = 0, frame = 48
 1784              		@ frame_needed = 1, uses_anonymous_args = 0
 1785 0000 80B5     		push	{r7, lr}
 1786              	.LCFI33:
 1787              		.cfi_def_cfa_offset 8
 1788 0002 8CB0     		sub	sp, sp, #48
ARM GAS  C:\Users\daniel01\AppData\Local\Temp\ccFPInc7.s 			page 52


 1789              	.LCFI34:
 1790              		.cfi_def_cfa_offset 56
 1791 0004 00AF     		add	r7, sp, #0
 1792              		.cfi_offset 14, -4
 1793              		.cfi_offset 7, -8
 1794              	.LCFI35:
 1795              		.cfi_def_cfa_register 7
 1796 0006 F860     		str	r0, [r7, #12]
 1797 0008 B960     		str	r1, [r7, #8]
 1798 000a 3B60     		str	r3, [r7, #0]
 1799 000c 1346     		mov	r3, r2	@ movhi
 1800 000e FB80     		strh	r3, [r7, #6]	@ movhi
1115:C:\Micrium\Software\uCOS-III\Source\os_flag.c ****     OS_FLAGS        flags_cur;
1116:C:\Micrium\Software\uCOS-III\Source\os_flag.c ****     OS_FLAGS        flags_rdy;
1117:C:\Micrium\Software\uCOS-III\Source\os_flag.c ****     OS_OPT          mode;
1118:C:\Micrium\Software\uCOS-III\Source\os_flag.c ****     OS_PEND_DATA   *p_pend_data;
1119:C:\Micrium\Software\uCOS-III\Source\os_flag.c ****     OS_PEND_DATA   *p_pend_data_next;
1120:C:\Micrium\Software\uCOS-III\Source\os_flag.c ****     OS_PEND_LIST   *p_pend_list;
1121:C:\Micrium\Software\uCOS-III\Source\os_flag.c ****     OS_TCB         *p_tcb;
1122:C:\Micrium\Software\uCOS-III\Source\os_flag.c ****     CPU_SR_ALLOC();
 1801              		.loc 1 1122 0
 1802 0010 4FF00003 		mov	r3, #0
 1803 0014 FB62     		str	r3, [r7, #44]
1123:C:\Micrium\Software\uCOS-III\Source\os_flag.c **** 
1124:C:\Micrium\Software\uCOS-III\Source\os_flag.c **** 
1125:C:\Micrium\Software\uCOS-III\Source\os_flag.c **** 
1126:C:\Micrium\Software\uCOS-III\Source\os_flag.c ****     CPU_CRITICAL_ENTER();
 1804              		.loc 1 1126 0
 1805 0016 FFF7FEFF 		bl	CPU_SR_Save
 1806 001a 0346     		mov	r3, r0
 1807 001c FB62     		str	r3, [r7, #44]
1127:C:\Micrium\Software\uCOS-III\Source\os_flag.c ****     switch (opt) {
 1808              		.loc 1 1127 0
 1809 001e FB88     		ldrh	r3, [r7, #6]
 1810 0020 012B     		cmp	r3, #1
 1811 0022 14D0     		beq	.L127
 1812 0024 012B     		cmp	r3, #1
 1813 0026 02DC     		bgt	.L128
 1814 0028 002B     		cmp	r3, #0
 1815 002a 08D0     		beq	.L126
 1816 002c 19E0     		b	.L125
 1817              	.L128:
 1818 002e B3F5004F 		cmp	r3, #32768
 1819 0032 04D0     		beq	.L126
 1820 0034 48F20102 		movw	r2, #32769
 1821 0038 9342     		cmp	r3, r2
 1822 003a 08D0     		beq	.L127
 1823 003c 11E0     		b	.L125
 1824              	.L126:
1128:C:\Micrium\Software\uCOS-III\Source\os_flag.c ****         case OS_OPT_POST_FLAG_SET:
1129:C:\Micrium\Software\uCOS-III\Source\os_flag.c ****         case OS_OPT_POST_FLAG_SET | OS_OPT_POST_NO_SCHED:
1130:C:\Micrium\Software\uCOS-III\Source\os_flag.c ****              p_grp->Flags |=  flags;                            /* Set   the flags specified in the
 1825              		.loc 1 1130 0
 1826 003e FB68     		ldr	r3, [r7, #12]
 1827 0040 1A6A     		ldr	r2, [r3, #32]
 1828 0042 BB68     		ldr	r3, [r7, #8]
 1829 0044 42EA0302 		orr	r2, r2, r3
ARM GAS  C:\Users\daniel01\AppData\Local\Temp\ccFPInc7.s 			page 53


 1830 0048 FB68     		ldr	r3, [r7, #12]
 1831 004a 1A62     		str	r2, [r3, #32]
1131:C:\Micrium\Software\uCOS-III\Source\os_flag.c ****              break;
 1832              		.loc 1 1131 0
 1833 004c 13E0     		b	.L129
 1834              	.L127:
1132:C:\Micrium\Software\uCOS-III\Source\os_flag.c **** 
1133:C:\Micrium\Software\uCOS-III\Source\os_flag.c ****         case OS_OPT_POST_FLAG_CLR:
1134:C:\Micrium\Software\uCOS-III\Source\os_flag.c ****         case OS_OPT_POST_FLAG_CLR | OS_OPT_POST_NO_SCHED:
1135:C:\Micrium\Software\uCOS-III\Source\os_flag.c ****              p_grp->Flags &= ~flags;                            /* Clear the flags specified in the
 1835              		.loc 1 1135 0
 1836 004e FB68     		ldr	r3, [r7, #12]
 1837 0050 1A6A     		ldr	r2, [r3, #32]
 1838 0052 BB68     		ldr	r3, [r7, #8]
 1839 0054 6FEA0303 		mvn	r3, r3
 1840 0058 02EA0302 		and	r2, r2, r3
 1841 005c FB68     		ldr	r3, [r7, #12]
 1842 005e 1A62     		str	r2, [r3, #32]
1136:C:\Micrium\Software\uCOS-III\Source\os_flag.c ****              break;
 1843              		.loc 1 1136 0
 1844 0060 09E0     		b	.L129
 1845              	.L125:
1137:C:\Micrium\Software\uCOS-III\Source\os_flag.c **** 
1138:C:\Micrium\Software\uCOS-III\Source\os_flag.c ****         default:
1139:C:\Micrium\Software\uCOS-III\Source\os_flag.c ****              CPU_CRITICAL_EXIT();                               /* INVALID option                  
 1846              		.loc 1 1139 0
 1847 0062 F86A     		ldr	r0, [r7, #44]
 1848 0064 FFF7FEFF 		bl	CPU_SR_Restore
1140:C:\Micrium\Software\uCOS-III\Source\os_flag.c ****             *p_err = OS_ERR_OPT_INVALID;
 1849              		.loc 1 1140 0
 1850 0068 BB6B     		ldr	r3, [r7, #56]
 1851 006a 45F62562 		movw	r2, #24101
 1852 006e 1A80     		strh	r2, [r3, #0]	@ movhi
1141:C:\Micrium\Software\uCOS-III\Source\os_flag.c ****              return ((OS_FLAGS)0);
 1853              		.loc 1 1141 0
 1854 0070 4FF00003 		mov	r3, #0
 1855 0074 C3E0     		b	.L130
 1856              	.L129:
1142:C:\Micrium\Software\uCOS-III\Source\os_flag.c ****     }
1143:C:\Micrium\Software\uCOS-III\Source\os_flag.c ****     p_grp->TS   = ts;
 1857              		.loc 1 1143 0
 1858 0076 FB68     		ldr	r3, [r7, #12]
 1859 0078 3A68     		ldr	r2, [r7, #0]
 1860 007a 5A62     		str	r2, [r3, #36]
1144:C:\Micrium\Software\uCOS-III\Source\os_flag.c ****     p_pend_list = &p_grp->PendList;
 1861              		.loc 1 1144 0
 1862 007c FB68     		ldr	r3, [r7, #12]
 1863 007e 03F10803 		add	r3, r3, #8
 1864 0082 7B62     		str	r3, [r7, #36]
1145:C:\Micrium\Software\uCOS-III\Source\os_flag.c ****     if (p_pend_list->NbrEntries == 0u) {                        /* Any task waiting on event flag g
 1865              		.loc 1 1145 0
 1866 0084 7B6A     		ldr	r3, [r7, #36]
 1867 0086 1B89     		ldrh	r3, [r3, #8]
 1868 0088 002B     		cmp	r3, #0
 1869 008a 09D1     		bne	.L131
1146:C:\Micrium\Software\uCOS-III\Source\os_flag.c ****         CPU_CRITICAL_EXIT();                                    /* No                              
 1870              		.loc 1 1146 0
ARM GAS  C:\Users\daniel01\AppData\Local\Temp\ccFPInc7.s 			page 54


 1871 008c F86A     		ldr	r0, [r7, #44]
 1872 008e FFF7FEFF 		bl	CPU_SR_Restore
1147:C:\Micrium\Software\uCOS-III\Source\os_flag.c ****        *p_err = OS_ERR_NONE;
 1873              		.loc 1 1147 0
 1874 0092 BB6B     		ldr	r3, [r7, #56]
 1875 0094 4FF00002 		mov	r2, #0
 1876 0098 1A80     		strh	r2, [r3, #0]	@ movhi
1148:C:\Micrium\Software\uCOS-III\Source\os_flag.c ****         return (p_grp->Flags);
 1877              		.loc 1 1148 0
 1878 009a FB68     		ldr	r3, [r7, #12]
 1879 009c 1B6A     		ldr	r3, [r3, #32]
 1880 009e AEE0     		b	.L130
 1881              	.L131:
1149:C:\Micrium\Software\uCOS-III\Source\os_flag.c ****     }
1150:C:\Micrium\Software\uCOS-III\Source\os_flag.c **** 
1151:C:\Micrium\Software\uCOS-III\Source\os_flag.c ****     OS_CRITICAL_ENTER_CPU_EXIT();
1152:C:\Micrium\Software\uCOS-III\Source\os_flag.c ****     p_pend_data = p_pend_list->HeadPtr;
 1882              		.loc 1 1152 0
 1883 00a0 7B6A     		ldr	r3, [r7, #36]
 1884 00a2 1B68     		ldr	r3, [r3, #0]
 1885 00a4 FB61     		str	r3, [r7, #28]
1153:C:\Micrium\Software\uCOS-III\Source\os_flag.c ****     p_tcb       = p_pend_data->TCBPtr;
 1886              		.loc 1 1153 0
 1887 00a6 FB69     		ldr	r3, [r7, #28]
 1888 00a8 9B68     		ldr	r3, [r3, #8]
 1889 00aa BB62     		str	r3, [r7, #40]
1154:C:\Micrium\Software\uCOS-III\Source\os_flag.c ****     while (p_tcb != (OS_TCB *)0) {                              /* Go through all tasks waiting on 
 1890              		.loc 1 1154 0
 1891 00ac 8BE0     		b	.L132
 1892              	.L145:
1155:C:\Micrium\Software\uCOS-III\Source\os_flag.c ****         p_pend_data_next = p_pend_data->NextPtr;
 1893              		.loc 1 1155 0
 1894 00ae FB69     		ldr	r3, [r7, #28]
 1895 00b0 5B68     		ldr	r3, [r3, #4]
 1896 00b2 3B62     		str	r3, [r7, #32]
1156:C:\Micrium\Software\uCOS-III\Source\os_flag.c ****         mode             = p_tcb->FlagsOpt & OS_OPT_PEND_FLAG_MASK;
 1897              		.loc 1 1156 0
 1898 00b4 BB6A     		ldr	r3, [r7, #40]
 1899 00b6 B3F88830 		ldrh	r3, [r3, #136]
 1900 00ba 03F00F03 		and	r3, r3, #15
 1901 00be 7B83     		strh	r3, [r7, #26]	@ movhi
1157:C:\Micrium\Software\uCOS-III\Source\os_flag.c ****         switch (mode) {
 1902              		.loc 1 1157 0
 1903 00c0 7B8B     		ldrh	r3, [r7, #26]
 1904 00c2 03F1FF33 		add	r3, r3, #-1
 1905 00c6 072B     		cmp	r3, #7
 1906 00c8 60D8     		bhi	.L133
 1907 00ca 01A2     		adr	r2, .L138
 1908 00cc 52F823F0 		ldr	pc, [r2, r3, lsl #2]
 1909              		.align	2
 1910              	.L138:
 1911 00d0 3B010000 		.word	.L134+1
 1912 00d4 67010000 		.word	.L135+1
 1913 00d8 8D010000 		.word	.L133+1
 1914 00dc F1000000 		.word	.L136+1
 1915 00e0 8D010000 		.word	.L133+1
 1916 00e4 8D010000 		.word	.L133+1
ARM GAS  C:\Users\daniel01\AppData\Local\Temp\ccFPInc7.s 			page 55


 1917 00e8 8D010000 		.word	.L133+1
 1918 00ec 19010000 		.word	.L137+1
 1919              	.L136:
1158:C:\Micrium\Software\uCOS-III\Source\os_flag.c ****             case OS_OPT_PEND_FLAG_SET_ALL:                      /* See if all req. flags are set fo
1159:C:\Micrium\Software\uCOS-III\Source\os_flag.c ****                  flags_rdy = (OS_FLAGS)(p_grp->Flags & p_tcb->FlagsPend);
 1920              		.loc 1 1159 0
 1921 00f0 FB68     		ldr	r3, [r7, #12]
 1922 00f2 1A6A     		ldr	r2, [r3, #32]
 1923 00f4 BB6A     		ldr	r3, [r7, #40]
 1924 00f6 D3F88030 		ldr	r3, [r3, #128]
 1925 00fa 02EA0303 		and	r3, r2, r3
 1926 00fe 7B61     		str	r3, [r7, #20]
1160:C:\Micrium\Software\uCOS-III\Source\os_flag.c ****                  if (flags_rdy == p_tcb->FlagsPend) {
 1927              		.loc 1 1160 0
 1928 0100 BB6A     		ldr	r3, [r7, #40]
 1929 0102 D3F88020 		ldr	r2, [r3, #128]
 1930 0106 7B69     		ldr	r3, [r7, #20]
 1931 0108 9A42     		cmp	r2, r3
 1932 010a 49D1     		bne	.L148
1161:C:\Micrium\Software\uCOS-III\Source\os_flag.c ****                      OS_FlagTaskRdy(p_tcb,                      /* Make task RTR, event(s) Rx'd    
 1933              		.loc 1 1161 0
 1934 010c B86A     		ldr	r0, [r7, #40]
 1935 010e 7969     		ldr	r1, [r7, #20]
 1936 0110 3A68     		ldr	r2, [r7, #0]
 1937 0112 FFF7FEFF 		bl	OS_FlagTaskRdy
1162:C:\Micrium\Software\uCOS-III\Source\os_flag.c ****                                     flags_rdy,
1163:C:\Micrium\Software\uCOS-III\Source\os_flag.c ****                                     ts);
1164:C:\Micrium\Software\uCOS-III\Source\os_flag.c ****                  }
1165:C:\Micrium\Software\uCOS-III\Source\os_flag.c ****                  break;
 1938              		.loc 1 1165 0
 1939 0116 4AE0     		b	.L140
 1940              	.L137:
1166:C:\Micrium\Software\uCOS-III\Source\os_flag.c **** 
1167:C:\Micrium\Software\uCOS-III\Source\os_flag.c ****             case OS_OPT_PEND_FLAG_SET_ANY:                      /* See if any flag set             
1168:C:\Micrium\Software\uCOS-III\Source\os_flag.c ****                  flags_rdy = (OS_FLAGS)(p_grp->Flags & p_tcb->FlagsPend);
 1941              		.loc 1 1168 0
 1942 0118 FB68     		ldr	r3, [r7, #12]
 1943 011a 1A6A     		ldr	r2, [r3, #32]
 1944 011c BB6A     		ldr	r3, [r7, #40]
 1945 011e D3F88030 		ldr	r3, [r3, #128]
 1946 0122 02EA0303 		and	r3, r2, r3
 1947 0126 7B61     		str	r3, [r7, #20]
1169:C:\Micrium\Software\uCOS-III\Source\os_flag.c ****                  if (flags_rdy != (OS_FLAGS)0) {
 1948              		.loc 1 1169 0
 1949 0128 7B69     		ldr	r3, [r7, #20]
 1950 012a 002B     		cmp	r3, #0
 1951 012c 3AD0     		beq	.L149
1170:C:\Micrium\Software\uCOS-III\Source\os_flag.c ****                      OS_FlagTaskRdy(p_tcb,                      /* Make task RTR, event(s) Rx'd    
 1952              		.loc 1 1170 0
 1953 012e B86A     		ldr	r0, [r7, #40]
 1954 0130 7969     		ldr	r1, [r7, #20]
 1955 0132 3A68     		ldr	r2, [r7, #0]
 1956 0134 FFF7FEFF 		bl	OS_FlagTaskRdy
1171:C:\Micrium\Software\uCOS-III\Source\os_flag.c ****                                     flags_rdy,
1172:C:\Micrium\Software\uCOS-III\Source\os_flag.c ****                                     ts);
1173:C:\Micrium\Software\uCOS-III\Source\os_flag.c ****                  }
1174:C:\Micrium\Software\uCOS-III\Source\os_flag.c ****                  break;
ARM GAS  C:\Users\daniel01\AppData\Local\Temp\ccFPInc7.s 			page 56


 1957              		.loc 1 1174 0
 1958 0138 39E0     		b	.L140
 1959              	.L134:
1175:C:\Micrium\Software\uCOS-III\Source\os_flag.c **** 
1176:C:\Micrium\Software\uCOS-III\Source\os_flag.c **** #if OS_CFG_FLAG_MODE_CLR_EN > 0u
1177:C:\Micrium\Software\uCOS-III\Source\os_flag.c ****             case OS_OPT_PEND_FLAG_CLR_ALL:                      /* See if all req. flags are set fo
1178:C:\Micrium\Software\uCOS-III\Source\os_flag.c ****                  flags_rdy = (OS_FLAGS)(~p_grp->Flags & p_tcb->FlagsPend);
 1960              		.loc 1 1178 0
 1961 013a FB68     		ldr	r3, [r7, #12]
 1962 013c 1B6A     		ldr	r3, [r3, #32]
 1963 013e 6FEA0302 		mvn	r2, r3
 1964 0142 BB6A     		ldr	r3, [r7, #40]
 1965 0144 D3F88030 		ldr	r3, [r3, #128]
 1966 0148 02EA0303 		and	r3, r2, r3
 1967 014c 7B61     		str	r3, [r7, #20]
1179:C:\Micrium\Software\uCOS-III\Source\os_flag.c ****                  if (flags_rdy == p_tcb->FlagsPend) {
 1968              		.loc 1 1179 0
 1969 014e BB6A     		ldr	r3, [r7, #40]
 1970 0150 D3F88020 		ldr	r2, [r3, #128]
 1971 0154 7B69     		ldr	r3, [r7, #20]
 1972 0156 9A42     		cmp	r2, r3
 1973 0158 26D1     		bne	.L150
1180:C:\Micrium\Software\uCOS-III\Source\os_flag.c ****                      OS_FlagTaskRdy(p_tcb,                      /* Make task RTR, event(s) Rx'd    
 1974              		.loc 1 1180 0
 1975 015a B86A     		ldr	r0, [r7, #40]
 1976 015c 7969     		ldr	r1, [r7, #20]
 1977 015e 3A68     		ldr	r2, [r7, #0]
 1978 0160 FFF7FEFF 		bl	OS_FlagTaskRdy
1181:C:\Micrium\Software\uCOS-III\Source\os_flag.c ****                                     flags_rdy,
1182:C:\Micrium\Software\uCOS-III\Source\os_flag.c ****                                     ts);
1183:C:\Micrium\Software\uCOS-III\Source\os_flag.c ****                  }
1184:C:\Micrium\Software\uCOS-III\Source\os_flag.c ****                  break;
 1979              		.loc 1 1184 0
 1980 0164 23E0     		b	.L140
 1981              	.L135:
1185:C:\Micrium\Software\uCOS-III\Source\os_flag.c **** 
1186:C:\Micrium\Software\uCOS-III\Source\os_flag.c ****             case OS_OPT_PEND_FLAG_CLR_ANY:                      /* See if any flag set             
1187:C:\Micrium\Software\uCOS-III\Source\os_flag.c ****                  flags_rdy = (OS_FLAGS)(~p_grp->Flags & p_tcb->FlagsPend);
 1982              		.loc 1 1187 0
 1983 0166 FB68     		ldr	r3, [r7, #12]
 1984 0168 1B6A     		ldr	r3, [r3, #32]
 1985 016a 6FEA0302 		mvn	r2, r3
 1986 016e BB6A     		ldr	r3, [r7, #40]
 1987 0170 D3F88030 		ldr	r3, [r3, #128]
 1988 0174 02EA0303 		and	r3, r2, r3
 1989 0178 7B61     		str	r3, [r7, #20]
1188:C:\Micrium\Software\uCOS-III\Source\os_flag.c ****                  if (flags_rdy != (OS_FLAGS)0) {
 1990              		.loc 1 1188 0
 1991 017a 7B69     		ldr	r3, [r7, #20]
 1992 017c 002B     		cmp	r3, #0
 1993 017e 15D0     		beq	.L151
1189:C:\Micrium\Software\uCOS-III\Source\os_flag.c ****                      OS_FlagTaskRdy(p_tcb,                      /* Make task RTR, event(s) Rx'd    
 1994              		.loc 1 1189 0
 1995 0180 B86A     		ldr	r0, [r7, #40]
 1996 0182 7969     		ldr	r1, [r7, #20]
 1997 0184 3A68     		ldr	r2, [r7, #0]
 1998 0186 FFF7FEFF 		bl	OS_FlagTaskRdy
ARM GAS  C:\Users\daniel01\AppData\Local\Temp\ccFPInc7.s 			page 57


1190:C:\Micrium\Software\uCOS-III\Source\os_flag.c ****                                     flags_rdy,
1191:C:\Micrium\Software\uCOS-III\Source\os_flag.c ****                                     ts);
1192:C:\Micrium\Software\uCOS-III\Source\os_flag.c ****                  }
1193:C:\Micrium\Software\uCOS-III\Source\os_flag.c ****                  break;
 1999              		.loc 1 1193 0
 2000 018a 10E0     		b	.L140
 2001              	.L133:
1194:C:\Micrium\Software\uCOS-III\Source\os_flag.c **** #endif
1195:C:\Micrium\Software\uCOS-III\Source\os_flag.c ****             default:
1196:C:\Micrium\Software\uCOS-III\Source\os_flag.c ****                  OS_CRITICAL_EXIT();
 2002              		.loc 1 1196 0
 2003 018c F86A     		ldr	r0, [r7, #44]
 2004 018e FFF7FEFF 		bl	CPU_SR_Restore
1197:C:\Micrium\Software\uCOS-III\Source\os_flag.c ****                 *p_err = OS_ERR_FLAG_PEND_OPT;
 2005              		.loc 1 1197 0
 2006 0192 BB6B     		ldr	r3, [r7, #56]
 2007 0194 43F6FF22 		movw	r2, #15103
 2008 0198 1A80     		strh	r2, [r3, #0]	@ movhi
1198:C:\Micrium\Software\uCOS-III\Source\os_flag.c ****                  return ((OS_FLAGS)0);
 2009              		.loc 1 1198 0
 2010 019a 4FF00003 		mov	r3, #0
 2011 019e 2EE0     		b	.L130
 2012              	.L148:
 2013              		.loc 1 1165 0
 2014 01a0 00BF     		nop
 2015 01a2 04E0     		b	.L140
 2016              	.L149:
 2017              		.loc 1 1174 0
 2018 01a4 00BF     		nop
 2019 01a6 02E0     		b	.L140
 2020              	.L150:
 2021              		.loc 1 1184 0
 2022 01a8 00BF     		nop
 2023 01aa 00E0     		b	.L140
 2024              	.L151:
 2025              		.loc 1 1193 0
 2026 01ac 00BF     		nop
 2027              	.L140:
1199:C:\Micrium\Software\uCOS-III\Source\os_flag.c ****         }
1200:C:\Micrium\Software\uCOS-III\Source\os_flag.c ****         p_pend_data = p_pend_data_next;                         /* Point to next task waiting for e
 2028              		.loc 1 1200 0
 2029 01ae 3B6A     		ldr	r3, [r7, #32]
 2030 01b0 FB61     		str	r3, [r7, #28]
1201:C:\Micrium\Software\uCOS-III\Source\os_flag.c ****         if (p_pend_data != (OS_PEND_DATA *)0) {
 2031              		.loc 1 1201 0
 2032 01b2 FB69     		ldr	r3, [r7, #28]
 2033 01b4 002B     		cmp	r3, #0
 2034 01b6 03D0     		beq	.L144
1202:C:\Micrium\Software\uCOS-III\Source\os_flag.c ****             p_tcb = p_pend_data->TCBPtr;
 2035              		.loc 1 1202 0
 2036 01b8 FB69     		ldr	r3, [r7, #28]
 2037 01ba 9B68     		ldr	r3, [r3, #8]
 2038 01bc BB62     		str	r3, [r7, #40]
 2039 01be 02E0     		b	.L132
 2040              	.L144:
1203:C:\Micrium\Software\uCOS-III\Source\os_flag.c ****         } else {
1204:C:\Micrium\Software\uCOS-III\Source\os_flag.c ****             p_tcb = (OS_TCB *)0;
ARM GAS  C:\Users\daniel01\AppData\Local\Temp\ccFPInc7.s 			page 58


 2041              		.loc 1 1204 0
 2042 01c0 4FF00003 		mov	r3, #0
 2043 01c4 BB62     		str	r3, [r7, #40]
 2044              	.L132:
 2045              		.loc 1 1154 0
 2046 01c6 BB6A     		ldr	r3, [r7, #40]
 2047 01c8 002B     		cmp	r3, #0
 2048 01ca 7FF470AF 		bne	.L145
1205:C:\Micrium\Software\uCOS-III\Source\os_flag.c ****         }
1206:C:\Micrium\Software\uCOS-III\Source\os_flag.c ****     }
1207:C:\Micrium\Software\uCOS-III\Source\os_flag.c ****     OS_CRITICAL_EXIT_NO_SCHED();
 2049              		.loc 1 1207 0
 2050 01ce F86A     		ldr	r0, [r7, #44]
 2051 01d0 FFF7FEFF 		bl	CPU_SR_Restore
1208:C:\Micrium\Software\uCOS-III\Source\os_flag.c **** 
1209:C:\Micrium\Software\uCOS-III\Source\os_flag.c ****     if ((opt & OS_OPT_POST_NO_SCHED) == (OS_OPT)0) {
 2052              		.loc 1 1209 0
 2053 01d4 FB88     		ldrh	r3, [r7, #6]
 2054 01d6 1BB2     		sxth	r3, r3
 2055 01d8 002B     		cmp	r3, #0
 2056 01da 01DB     		blt	.L146
1210:C:\Micrium\Software\uCOS-III\Source\os_flag.c ****         OSSched();
 2057              		.loc 1 1210 0
 2058 01dc FFF7FEFF 		bl	OSSched
 2059              	.L146:
1211:C:\Micrium\Software\uCOS-III\Source\os_flag.c ****     }
1212:C:\Micrium\Software\uCOS-III\Source\os_flag.c **** 
1213:C:\Micrium\Software\uCOS-III\Source\os_flag.c ****     CPU_CRITICAL_ENTER();
 2060              		.loc 1 1213 0
 2061 01e0 FFF7FEFF 		bl	CPU_SR_Save
 2062 01e4 0346     		mov	r3, r0
 2063 01e6 FB62     		str	r3, [r7, #44]
1214:C:\Micrium\Software\uCOS-III\Source\os_flag.c ****     flags_cur = p_grp->Flags;
 2064              		.loc 1 1214 0
 2065 01e8 FB68     		ldr	r3, [r7, #12]
 2066 01ea 1B6A     		ldr	r3, [r3, #32]
 2067 01ec 3B61     		str	r3, [r7, #16]
1215:C:\Micrium\Software\uCOS-III\Source\os_flag.c ****     CPU_CRITICAL_EXIT();
 2068              		.loc 1 1215 0
 2069 01ee F86A     		ldr	r0, [r7, #44]
 2070 01f0 FFF7FEFF 		bl	CPU_SR_Restore
1216:C:\Micrium\Software\uCOS-III\Source\os_flag.c ****    *p_err     = OS_ERR_NONE;
 2071              		.loc 1 1216 0
 2072 01f4 BB6B     		ldr	r3, [r7, #56]
 2073 01f6 4FF00002 		mov	r2, #0
 2074 01fa 1A80     		strh	r2, [r3, #0]	@ movhi
1217:C:\Micrium\Software\uCOS-III\Source\os_flag.c ****     return (flags_cur);
 2075              		.loc 1 1217 0
 2076 01fc 3B69     		ldr	r3, [r7, #16]
 2077              	.L130:
1218:C:\Micrium\Software\uCOS-III\Source\os_flag.c **** }
 2078              		.loc 1 1218 0
 2079 01fe 1846     		mov	r0, r3
 2080 0200 07F13007 		add	r7, r7, #48
 2081 0204 BD46     		mov	sp, r7
 2082 0206 80BD     		pop	{r7, pc}
 2083              		.cfi_endproc
ARM GAS  C:\Users\daniel01\AppData\Local\Temp\ccFPInc7.s 			page 59


 2084              	.LFE11:
 2085              		.size	OS_FlagPost, .-OS_FlagPost
 2086              		.section	.text.OS_FlagTaskRdy,"ax",%progbits
 2087              		.align	2
 2088              		.global	OS_FlagTaskRdy
 2089              		.thumb
 2090              		.thumb_func
 2091              		.type	OS_FlagTaskRdy, %function
 2092              	OS_FlagTaskRdy:
 2093              	.LFB12:
1219:C:\Micrium\Software\uCOS-III\Source\os_flag.c **** 
1220:C:\Micrium\Software\uCOS-III\Source\os_flag.c **** /*$PAGE*/
1221:C:\Micrium\Software\uCOS-III\Source\os_flag.c **** /*
1222:C:\Micrium\Software\uCOS-III\Source\os_flag.c **** ***************************************************************************************************
1223:C:\Micrium\Software\uCOS-III\Source\os_flag.c **** *                                        MAKE TASK READY-TO-RUN, EVENT(s) OCCURRED
1224:C:\Micrium\Software\uCOS-III\Source\os_flag.c **** *
1225:C:\Micrium\Software\uCOS-III\Source\os_flag.c **** * Description: This function is internal to uC/OS-III and is used to make a task ready-to-run becau
1226:C:\Micrium\Software\uCOS-III\Source\os_flag.c **** *              flag bits have been set.
1227:C:\Micrium\Software\uCOS-III\Source\os_flag.c **** *
1228:C:\Micrium\Software\uCOS-III\Source\os_flag.c **** * Arguments  : p_tcb         is a pointer to the OS_TCB of the task to remove
1229:C:\Micrium\Software\uCOS-III\Source\os_flag.c **** *              -----
1230:C:\Micrium\Software\uCOS-III\Source\os_flag.c **** *
1231:C:\Micrium\Software\uCOS-III\Source\os_flag.c **** *              flags_rdy     contains the bit pattern of the event flags that cause the task to bec
1232:C:\Micrium\Software\uCOS-III\Source\os_flag.c **** *
1233:C:\Micrium\Software\uCOS-III\Source\os_flag.c **** *              ts            is a timestamp associated with the post
1234:C:\Micrium\Software\uCOS-III\Source\os_flag.c **** *
1235:C:\Micrium\Software\uCOS-III\Source\os_flag.c **** * Returns    : none
1236:C:\Micrium\Software\uCOS-III\Source\os_flag.c **** *
1237:C:\Micrium\Software\uCOS-III\Source\os_flag.c **** * Note(s)    : This function is INTERNAL to uC/OS-III and your application should not call it.
1238:C:\Micrium\Software\uCOS-III\Source\os_flag.c **** ***************************************************************************************************
1239:C:\Micrium\Software\uCOS-III\Source\os_flag.c **** */
1240:C:\Micrium\Software\uCOS-III\Source\os_flag.c **** 
1241:C:\Micrium\Software\uCOS-III\Source\os_flag.c **** void   OS_FlagTaskRdy (OS_TCB    *p_tcb,
1242:C:\Micrium\Software\uCOS-III\Source\os_flag.c ****                        OS_FLAGS   flags_rdy,
1243:C:\Micrium\Software\uCOS-III\Source\os_flag.c ****                        CPU_TS     ts)
1244:C:\Micrium\Software\uCOS-III\Source\os_flag.c **** {
 2094              		.loc 1 1244 0
 2095              		.cfi_startproc
 2096              		@ args = 0, pretend = 0, frame = 16
 2097              		@ frame_needed = 1, uses_anonymous_args = 0
 2098 0000 80B5     		push	{r7, lr}
 2099              	.LCFI36:
 2100              		.cfi_def_cfa_offset 8
 2101 0002 84B0     		sub	sp, sp, #16
 2102              	.LCFI37:
 2103              		.cfi_def_cfa_offset 24
 2104 0004 00AF     		add	r7, sp, #0
 2105              		.cfi_offset 14, -4
 2106              		.cfi_offset 7, -8
 2107              	.LCFI38:
 2108              		.cfi_def_cfa_register 7
 2109 0006 F860     		str	r0, [r7, #12]
 2110 0008 B960     		str	r1, [r7, #8]
 2111 000a 7A60     		str	r2, [r7, #4]
1245:C:\Micrium\Software\uCOS-III\Source\os_flag.c ****     p_tcb->FlagsRdy   = flags_rdy;
 2112              		.loc 1 1245 0
 2113 000c FB68     		ldr	r3, [r7, #12]
ARM GAS  C:\Users\daniel01\AppData\Local\Temp\ccFPInc7.s 			page 60


 2114 000e BA68     		ldr	r2, [r7, #8]
 2115 0010 C3F88420 		str	r2, [r3, #132]
1246:C:\Micrium\Software\uCOS-III\Source\os_flag.c ****     p_tcb->PendStatus = OS_STATUS_PEND_OK;                  /* Clear pend status                   
 2116              		.loc 1 1246 0
 2117 0014 FB68     		ldr	r3, [r7, #12]
 2118 0016 4FF00002 		mov	r2, #0
 2119 001a 83F83520 		strb	r2, [r3, #53]
1247:C:\Micrium\Software\uCOS-III\Source\os_flag.c ****     p_tcb->PendOn     = OS_TASK_PEND_ON_NOTHING;            /* Indicate no longer pending          
 2120              		.loc 1 1247 0
 2121 001e FB68     		ldr	r3, [r7, #12]
 2122 0020 4FF00002 		mov	r2, #0
 2123 0024 83F83420 		strb	r2, [r3, #52]
1248:C:\Micrium\Software\uCOS-III\Source\os_flag.c ****     p_tcb->TS         = ts;
 2124              		.loc 1 1248 0
 2125 0028 FB68     		ldr	r3, [r7, #12]
 2126 002a 7A68     		ldr	r2, [r7, #4]
 2127 002c 1A64     		str	r2, [r3, #64]
1249:C:\Micrium\Software\uCOS-III\Source\os_flag.c ****     switch (p_tcb->TaskState) {
 2128              		.loc 1 1249 0
 2129 002e FB68     		ldr	r3, [r7, #12]
 2130 0030 93F83630 		ldrb	r3, [r3, #54]	@ zero_extendqisi2
 2131 0034 072B     		cmp	r3, #7
 2132 0036 1FD8     		bhi	.L153
 2133 0038 4FF00102 		mov	r2, #1
 2134 003c 02FA03F3 		lsl	r3, r2, r3
 2135 0040 03F03302 		and	r2, r3, #51
 2136 0044 002A     		cmp	r2, #0
 2137 0046 16D1     		bne	.L158
 2138 0048 03F0C002 		and	r2, r3, #192
 2139 004c 002A     		cmp	r2, #0
 2140 004e 0CD1     		bne	.L156
 2141 0050 03F00C03 		and	r3, r3, #12
 2142 0054 002B     		cmp	r3, #0
 2143 0056 0FD0     		beq	.L153
 2144              	.L155:
1250:C:\Micrium\Software\uCOS-III\Source\os_flag.c ****         case OS_TASK_STATE_RDY:
1251:C:\Micrium\Software\uCOS-III\Source\os_flag.c ****         case OS_TASK_STATE_DLY:
1252:C:\Micrium\Software\uCOS-III\Source\os_flag.c ****         case OS_TASK_STATE_DLY_SUSPENDED:
1253:C:\Micrium\Software\uCOS-III\Source\os_flag.c ****         case OS_TASK_STATE_SUSPENDED:
1254:C:\Micrium\Software\uCOS-III\Source\os_flag.c ****              break;
1255:C:\Micrium\Software\uCOS-III\Source\os_flag.c **** 
1256:C:\Micrium\Software\uCOS-III\Source\os_flag.c ****         case OS_TASK_STATE_PEND:
1257:C:\Micrium\Software\uCOS-III\Source\os_flag.c ****         case OS_TASK_STATE_PEND_TIMEOUT:
1258:C:\Micrium\Software\uCOS-III\Source\os_flag.c ****              OS_TaskRdy(p_tcb);
 2145              		.loc 1 1258 0
 2146 0058 F868     		ldr	r0, [r7, #12]
 2147 005a FFF7FEFF 		bl	OS_TaskRdy
1259:C:\Micrium\Software\uCOS-III\Source\os_flag.c ****              p_tcb->TaskState = OS_TASK_STATE_RDY;
 2148              		.loc 1 1259 0
 2149 005e FB68     		ldr	r3, [r7, #12]
 2150 0060 4FF00002 		mov	r2, #0
 2151 0064 83F83620 		strb	r2, [r3, #54]
1260:C:\Micrium\Software\uCOS-III\Source\os_flag.c ****              break;
 2152              		.loc 1 1260 0
 2153 0068 06E0     		b	.L153
 2154              	.L156:
1261:C:\Micrium\Software\uCOS-III\Source\os_flag.c **** 
ARM GAS  C:\Users\daniel01\AppData\Local\Temp\ccFPInc7.s 			page 61


1262:C:\Micrium\Software\uCOS-III\Source\os_flag.c ****         case OS_TASK_STATE_PEND_SUSPENDED:
1263:C:\Micrium\Software\uCOS-III\Source\os_flag.c ****         case OS_TASK_STATE_PEND_TIMEOUT_SUSPENDED:
1264:C:\Micrium\Software\uCOS-III\Source\os_flag.c ****              p_tcb->TaskState = OS_TASK_STATE_SUSPENDED;
 2155              		.loc 1 1264 0
 2156 006a FB68     		ldr	r3, [r7, #12]
 2157 006c 4FF00402 		mov	r2, #4
 2158 0070 83F83620 		strb	r2, [r3, #54]
 2159 0074 00E0     		b	.L153
 2160              	.L158:
 2161              		.loc 1 1254 0
 2162 0076 00BF     		nop
 2163              	.L153:
1265:C:\Micrium\Software\uCOS-III\Source\os_flag.c ****              break;
1266:C:\Micrium\Software\uCOS-III\Source\os_flag.c **** 
1267:C:\Micrium\Software\uCOS-III\Source\os_flag.c ****         default:
1268:C:\Micrium\Software\uCOS-III\Source\os_flag.c ****              break;
1269:C:\Micrium\Software\uCOS-III\Source\os_flag.c ****     }
1270:C:\Micrium\Software\uCOS-III\Source\os_flag.c ****     OS_PendListRemove(p_tcb);
 2164              		.loc 1 1270 0
 2165 0078 F868     		ldr	r0, [r7, #12]
 2166 007a FFF7FEFF 		bl	OS_PendListRemove
1271:C:\Micrium\Software\uCOS-III\Source\os_flag.c **** }
 2167              		.loc 1 1271 0
 2168 007e 07F11007 		add	r7, r7, #16
 2169 0082 BD46     		mov	sp, r7
 2170 0084 80BD     		pop	{r7, pc}
 2171              		.cfi_endproc
 2172              	.LFE12:
 2173              		.size	OS_FlagTaskRdy, .-OS_FlagTaskRdy
 2174 0086 00BF     		.text
 2175              	.Letext0: