ARM GAS  C:\Users\daniel01\AppData\Local\Temp\cca70qYo.s 			page 1


   1              		.syntax unified
   2              		.cpu cortex-m3
   3              		.fpu softvfp
   4              		.eabi_attribute 20, 1
   5              		.eabi_attribute 21, 1
   6              		.eabi_attribute 23, 3
   7              		.eabi_attribute 24, 1
   8              		.eabi_attribute 25, 1
   9              		.eabi_attribute 26, 1
  10              		.eabi_attribute 30, 6
  11              		.eabi_attribute 18, 4
  12              		.thumb
  13              		.file	"os_msg.c"
  20 0000 98010000 		.text
  20      0200D500 
  20      00000201 
  20      FB0E0D00 
  20      01010101 
  21              	.Ltext0:
  22              		.cfi_sections	.debug_frame
  23              		.section	.text.OS_MsgPoolInit,"ax",%progbits
  24              		.align	2
  25              		.global	OS_MsgPoolInit
  26              		.thumb
  27              		.thumb_func
  28              		.type	OS_MsgPoolInit, %function
  29              	OS_MsgPoolInit:
  30              	.LFB0:
  31              		.file 1 "C:\\Micrium\\Software\\uCOS-III\\Source\\os_msg.c"
   1:C:\Micrium\Software\uCOS-III\Source\os_msg.c **** /*
   2:C:\Micrium\Software\uCOS-III\Source\os_msg.c **** ***************************************************************************************************
   3:C:\Micrium\Software\uCOS-III\Source\os_msg.c **** *                                                      uC/OS-III
   4:C:\Micrium\Software\uCOS-III\Source\os_msg.c **** *                                                 The Real-Time Kernel
   5:C:\Micrium\Software\uCOS-III\Source\os_msg.c **** *
   6:C:\Micrium\Software\uCOS-III\Source\os_msg.c **** *                                  (c) Copyright 2009-2012; Micrium, Inc.; Weston, FL
   7:C:\Micrium\Software\uCOS-III\Source\os_msg.c **** *                           All rights reserved.  Protected by international copyright laws.
   8:C:\Micrium\Software\uCOS-III\Source\os_msg.c **** *
   9:C:\Micrium\Software\uCOS-III\Source\os_msg.c **** *                                              MESSAGE HANDLING SERVICES
  10:C:\Micrium\Software\uCOS-III\Source\os_msg.c **** *
  11:C:\Micrium\Software\uCOS-III\Source\os_msg.c **** * File    : OS_MSG.C
  12:C:\Micrium\Software\uCOS-III\Source\os_msg.c **** * By      : JJL
  13:C:\Micrium\Software\uCOS-III\Source\os_msg.c **** * Version : V3.03.01
  14:C:\Micrium\Software\uCOS-III\Source\os_msg.c **** *
  15:C:\Micrium\Software\uCOS-III\Source\os_msg.c **** * LICENSING TERMS:
  16:C:\Micrium\Software\uCOS-III\Source\os_msg.c **** * ---------------
  17:C:\Micrium\Software\uCOS-III\Source\os_msg.c **** *           uC/OS-III is provided in source form for FREE short-term evaluation, for educational us
  18:C:\Micrium\Software\uCOS-III\Source\os_msg.c **** *           for peaceful research.  If you plan or intend to use uC/OS-III in a commercial applicat
  19:C:\Micrium\Software\uCOS-III\Source\os_msg.c **** *           product then, you need to contact Micrium to properly license uC/OS-III for its use in 
  20:C:\Micrium\Software\uCOS-III\Source\os_msg.c **** *           application/product.   We provide ALL the source code for your convenience and to help 
  21:C:\Micrium\Software\uCOS-III\Source\os_msg.c **** *           experience uC/OS-III.  The fact that the source is provided does NOT mean that you can 
  22:C:\Micrium\Software\uCOS-III\Source\os_msg.c **** *           it commercially without paying a licensing fee.
ARM GAS  C:\Users\daniel01\AppData\Local\Temp\cca70qYo.s 			page 2


  23:C:\Micrium\Software\uCOS-III\Source\os_msg.c **** *
  24:C:\Micrium\Software\uCOS-III\Source\os_msg.c **** *           Knowledge of the source code may NOT be used to develop a similar product.
  25:C:\Micrium\Software\uCOS-III\Source\os_msg.c **** *
  26:C:\Micrium\Software\uCOS-III\Source\os_msg.c **** *           Please help us continue to provide the embedded community with the finest software avai
  27:C:\Micrium\Software\uCOS-III\Source\os_msg.c **** *           Your honesty is greatly appreciated.
  28:C:\Micrium\Software\uCOS-III\Source\os_msg.c **** *
  29:C:\Micrium\Software\uCOS-III\Source\os_msg.c **** *           You can contact us at www.micrium.com, or by phone at +1 (954) 217-2036.
  30:C:\Micrium\Software\uCOS-III\Source\os_msg.c **** ***************************************************************************************************
  31:C:\Micrium\Software\uCOS-III\Source\os_msg.c **** */
  32:C:\Micrium\Software\uCOS-III\Source\os_msg.c **** 
  33:C:\Micrium\Software\uCOS-III\Source\os_msg.c **** #define  MICRIUM_SOURCE
  34:C:\Micrium\Software\uCOS-III\Source\os_msg.c **** #include <os.h>
  35:C:\Micrium\Software\uCOS-III\Source\os_msg.c **** 
  36:C:\Micrium\Software\uCOS-III\Source\os_msg.c **** #ifdef VSC_INCLUDE_SOURCE_FILE_NAMES
  37:C:\Micrium\Software\uCOS-III\Source\os_msg.c **** const  CPU_CHAR  *os_msg__c = "$Id: $";
  38:C:\Micrium\Software\uCOS-III\Source\os_msg.c **** #endif
  39:C:\Micrium\Software\uCOS-III\Source\os_msg.c **** 
  40:C:\Micrium\Software\uCOS-III\Source\os_msg.c **** 
  41:C:\Micrium\Software\uCOS-III\Source\os_msg.c **** #if OS_MSG_EN > 0u
  42:C:\Micrium\Software\uCOS-III\Source\os_msg.c **** /*$PAGE*/
  43:C:\Micrium\Software\uCOS-III\Source\os_msg.c **** /*
  44:C:\Micrium\Software\uCOS-III\Source\os_msg.c **** ***************************************************************************************************
  45:C:\Micrium\Software\uCOS-III\Source\os_msg.c **** *                                            INITIALIZE THE POOL OF 'OS_MSG'
  46:C:\Micrium\Software\uCOS-III\Source\os_msg.c **** *
  47:C:\Micrium\Software\uCOS-III\Source\os_msg.c **** * Description: This function is called by OSInit() to initialize the free list of OS_MSGs.
  48:C:\Micrium\Software\uCOS-III\Source\os_msg.c **** *
  49:C:\Micrium\Software\uCOS-III\Source\os_msg.c **** * Argument(s): p_err     is a pointer to a variable that will contain an error code returned by thi
  50:C:\Micrium\Software\uCOS-III\Source\os_msg.c **** *
  51:C:\Micrium\Software\uCOS-III\Source\os_msg.c **** *                            OS_ERR_MSG_POOL_NULL_PTR
  52:C:\Micrium\Software\uCOS-III\Source\os_msg.c **** *                            OS_ERR_MSG_POOL_EMPTY
  53:C:\Micrium\Software\uCOS-III\Source\os_msg.c **** *                            OS_ERR_NONE
  54:C:\Micrium\Software\uCOS-III\Source\os_msg.c **** *
  55:C:\Micrium\Software\uCOS-III\Source\os_msg.c **** * Returns    : none
  56:C:\Micrium\Software\uCOS-III\Source\os_msg.c **** *
  57:C:\Micrium\Software\uCOS-III\Source\os_msg.c **** * Note(s)    : 1) This function is INTERNAL to uC/OS-III and your application MUST NOT call it.
  58:C:\Micrium\Software\uCOS-III\Source\os_msg.c **** ***************************************************************************************************
  59:C:\Micrium\Software\uCOS-III\Source\os_msg.c **** */
  60:C:\Micrium\Software\uCOS-III\Source\os_msg.c **** 
  61:C:\Micrium\Software\uCOS-III\Source\os_msg.c **** void  OS_MsgPoolInit (OS_ERR  *p_err)
  62:C:\Micrium\Software\uCOS-III\Source\os_msg.c **** {
  32              		.loc 1 62 0
  33              		.cfi_startproc
  34              		@ args = 0, pretend = 0, frame = 24
  35              		@ frame_needed = 1, uses_anonymous_args = 0
  36              		@ link register save eliminated.
  37 0000 80B4     		push	{r7}
  38              	.LCFI0:
  39              		.cfi_def_cfa_offset 4
  40 0002 87B0     		sub	sp, sp, #28
  41              	.LCFI1:
  42              		.cfi_def_cfa_offset 32
  43 0004 00AF     		add	r7, sp, #0
  44              		.cfi_offset 7, -4
  45              	.LCFI2:
  46              		.cfi_def_cfa_register 7
  47 0006 7860     		str	r0, [r7, #4]
  63:C:\Micrium\Software\uCOS-III\Source\os_msg.c ****     OS_MSG      *p_msg1;
ARM GAS  C:\Users\daniel01\AppData\Local\Temp\cca70qYo.s 			page 3


  64:C:\Micrium\Software\uCOS-III\Source\os_msg.c ****     OS_MSG      *p_msg2;
  65:C:\Micrium\Software\uCOS-III\Source\os_msg.c ****     OS_MSG_QTY   i;
  66:C:\Micrium\Software\uCOS-III\Source\os_msg.c ****     OS_MSG_QTY   loops;
  67:C:\Micrium\Software\uCOS-III\Source\os_msg.c **** 
  68:C:\Micrium\Software\uCOS-III\Source\os_msg.c **** 
  69:C:\Micrium\Software\uCOS-III\Source\os_msg.c **** 
  70:C:\Micrium\Software\uCOS-III\Source\os_msg.c **** #ifdef OS_SAFETY_CRITICAL
  71:C:\Micrium\Software\uCOS-III\Source\os_msg.c ****     if (p_err == (OS_ERR *)0) {
  72:C:\Micrium\Software\uCOS-III\Source\os_msg.c ****         OS_SAFETY_CRITICAL_EXCEPTION();
  73:C:\Micrium\Software\uCOS-III\Source\os_msg.c ****         return;
  74:C:\Micrium\Software\uCOS-III\Source\os_msg.c ****     }
  75:C:\Micrium\Software\uCOS-III\Source\os_msg.c **** #endif
  76:C:\Micrium\Software\uCOS-III\Source\os_msg.c **** 
  77:C:\Micrium\Software\uCOS-III\Source\os_msg.c **** #if OS_CFG_ARG_CHK_EN > 0u
  78:C:\Micrium\Software\uCOS-III\Source\os_msg.c ****     if (OSCfg_MsgPoolBasePtr == (OS_MSG *)0) {
  48              		.loc 1 78 0
  49 0008 40F20003 		movw	r3, #:lower16:OSCfg_MsgPoolBasePtr
  50 000c C0F20003 		movt	r3, #:upper16:OSCfg_MsgPoolBasePtr
  51 0010 1B68     		ldr	r3, [r3, #0]
  52 0012 002B     		cmp	r3, #0
  53 0014 04D1     		bne	.L2
  79:C:\Micrium\Software\uCOS-III\Source\os_msg.c ****        *p_err = OS_ERR_MSG_POOL_NULL_PTR;
  54              		.loc 1 79 0
  55 0016 7B68     		ldr	r3, [r7, #4]
  56 0018 45F21E72 		movw	r2, #22302
  57 001c 1A80     		strh	r2, [r3, #0]	@ movhi
  80:C:\Micrium\Software\uCOS-III\Source\os_msg.c ****         return;
  58              		.loc 1 80 0
  59 001e 7CE0     		b	.L7
  60              	.L2:
  81:C:\Micrium\Software\uCOS-III\Source\os_msg.c ****     }
  82:C:\Micrium\Software\uCOS-III\Source\os_msg.c ****     if (OSCfg_MsgPoolSize == (OS_MSG_QTY)0) {
  61              		.loc 1 82 0
  62 0020 40F20003 		movw	r3, #:lower16:OSCfg_MsgPoolSize
  63 0024 C0F20003 		movt	r3, #:upper16:OSCfg_MsgPoolSize
  64 0028 1B88     		ldrh	r3, [r3, #0]
  65 002a 002B     		cmp	r3, #0
  66 002c 04D1     		bne	.L4
  83:C:\Micrium\Software\uCOS-III\Source\os_msg.c ****        *p_err = OS_ERR_MSG_POOL_EMPTY;
  67              		.loc 1 83 0
  68 002e 7B68     		ldr	r3, [r7, #4]
  69 0030 45F21D72 		movw	r2, #22301
  70 0034 1A80     		strh	r2, [r3, #0]	@ movhi
  84:C:\Micrium\Software\uCOS-III\Source\os_msg.c ****         return;
  71              		.loc 1 84 0
  72 0036 70E0     		b	.L7
  73              	.L4:
  85:C:\Micrium\Software\uCOS-III\Source\os_msg.c ****     }
  86:C:\Micrium\Software\uCOS-III\Source\os_msg.c **** #endif
  87:C:\Micrium\Software\uCOS-III\Source\os_msg.c **** 
  88:C:\Micrium\Software\uCOS-III\Source\os_msg.c ****     p_msg1 = OSCfg_MsgPoolBasePtr;
  74              		.loc 1 88 0
  75 0038 40F20003 		movw	r3, #:lower16:OSCfg_MsgPoolBasePtr
  76 003c C0F20003 		movt	r3, #:upper16:OSCfg_MsgPoolBasePtr
  77 0040 1B68     		ldr	r3, [r3, #0]
  78 0042 FB60     		str	r3, [r7, #12]
  89:C:\Micrium\Software\uCOS-III\Source\os_msg.c ****     p_msg2 = OSCfg_MsgPoolBasePtr;
ARM GAS  C:\Users\daniel01\AppData\Local\Temp\cca70qYo.s 			page 4


  79              		.loc 1 89 0
  80 0044 40F20003 		movw	r3, #:lower16:OSCfg_MsgPoolBasePtr
  81 0048 C0F20003 		movt	r3, #:upper16:OSCfg_MsgPoolBasePtr
  82 004c 1B68     		ldr	r3, [r3, #0]
  83 004e 3B61     		str	r3, [r7, #16]
  90:C:\Micrium\Software\uCOS-III\Source\os_msg.c ****     p_msg2++;
  84              		.loc 1 90 0
  85 0050 3B69     		ldr	r3, [r7, #16]
  86 0052 03F11003 		add	r3, r3, #16
  87 0056 3B61     		str	r3, [r7, #16]
  91:C:\Micrium\Software\uCOS-III\Source\os_msg.c ****     loops  = OSCfg_MsgPoolSize - 1u;
  88              		.loc 1 91 0
  89 0058 40F20003 		movw	r3, #:lower16:OSCfg_MsgPoolSize
  90 005c C0F20003 		movt	r3, #:upper16:OSCfg_MsgPoolSize
  91 0060 1B88     		ldrh	r3, [r3, #0]
  92 0062 03F1FF33 		add	r3, r3, #-1
  93 0066 FB82     		strh	r3, [r7, #22]	@ movhi
  92:C:\Micrium\Software\uCOS-III\Source\os_msg.c ****     for (i = 0u; i < loops; i++) {                          /* Init. list of free OS_MSGs          
  94              		.loc 1 92 0
  95 0068 4FF00003 		mov	r3, #0
  96 006c BB82     		strh	r3, [r7, #20]	@ movhi
  97 006e 1AE0     		b	.L5
  98              	.L6:
  93:C:\Micrium\Software\uCOS-III\Source\os_msg.c ****         p_msg1->NextPtr = p_msg2;
  99              		.loc 1 93 0
 100 0070 FB68     		ldr	r3, [r7, #12]
 101 0072 3A69     		ldr	r2, [r7, #16]
 102 0074 1A60     		str	r2, [r3, #0]
  94:C:\Micrium\Software\uCOS-III\Source\os_msg.c ****         p_msg1->MsgPtr  = (void      *)0;
 103              		.loc 1 94 0
 104 0076 FB68     		ldr	r3, [r7, #12]
 105 0078 4FF00002 		mov	r2, #0
 106 007c 5A60     		str	r2, [r3, #4]
  95:C:\Micrium\Software\uCOS-III\Source\os_msg.c ****         p_msg1->MsgSize = (OS_MSG_SIZE)0u;
 107              		.loc 1 95 0
 108 007e FB68     		ldr	r3, [r7, #12]
 109 0080 4FF00002 		mov	r2, #0
 110 0084 1A81     		strh	r2, [r3, #8]	@ movhi
  96:C:\Micrium\Software\uCOS-III\Source\os_msg.c ****         p_msg1->MsgTS   = (CPU_TS     )0u;
 111              		.loc 1 96 0
 112 0086 FB68     		ldr	r3, [r7, #12]
 113 0088 4FF00002 		mov	r2, #0
 114 008c DA60     		str	r2, [r3, #12]
  97:C:\Micrium\Software\uCOS-III\Source\os_msg.c ****         p_msg1++;
 115              		.loc 1 97 0
 116 008e FB68     		ldr	r3, [r7, #12]
 117 0090 03F11003 		add	r3, r3, #16
 118 0094 FB60     		str	r3, [r7, #12]
  98:C:\Micrium\Software\uCOS-III\Source\os_msg.c ****         p_msg2++;
 119              		.loc 1 98 0
 120 0096 3B69     		ldr	r3, [r7, #16]
 121 0098 03F11003 		add	r3, r3, #16
 122 009c 3B61     		str	r3, [r7, #16]
 123              		.loc 1 92 0
 124 009e BB8A     		ldrh	r3, [r7, #20]	@ movhi
 125 00a0 03F10103 		add	r3, r3, #1
 126 00a4 BB82     		strh	r3, [r7, #20]	@ movhi
ARM GAS  C:\Users\daniel01\AppData\Local\Temp\cca70qYo.s 			page 5


 127              	.L5:
 128 00a6 BA8A     		ldrh	r2, [r7, #20]
 129 00a8 FB8A     		ldrh	r3, [r7, #22]
 130 00aa 9A42     		cmp	r2, r3
 131 00ac E0D3     		bcc	.L6
  99:C:\Micrium\Software\uCOS-III\Source\os_msg.c ****     }
 100:C:\Micrium\Software\uCOS-III\Source\os_msg.c ****     p_msg1->NextPtr = (OS_MSG    *)0;                       /* Last OS_MSG                         
 132              		.loc 1 100 0
 133 00ae FB68     		ldr	r3, [r7, #12]
 134 00b0 4FF00002 		mov	r2, #0
 135 00b4 1A60     		str	r2, [r3, #0]
 101:C:\Micrium\Software\uCOS-III\Source\os_msg.c ****     p_msg1->MsgPtr  = (void      *)0;
 136              		.loc 1 101 0
 137 00b6 FB68     		ldr	r3, [r7, #12]
 138 00b8 4FF00002 		mov	r2, #0
 139 00bc 5A60     		str	r2, [r3, #4]
 102:C:\Micrium\Software\uCOS-III\Source\os_msg.c ****     p_msg1->MsgSize = (OS_MSG_SIZE)0u;
 140              		.loc 1 102 0
 141 00be FB68     		ldr	r3, [r7, #12]
 142 00c0 4FF00002 		mov	r2, #0
 143 00c4 1A81     		strh	r2, [r3, #8]	@ movhi
 103:C:\Micrium\Software\uCOS-III\Source\os_msg.c ****     p_msg1->MsgTS   = (CPU_TS     )0u;
 144              		.loc 1 103 0
 145 00c6 FB68     		ldr	r3, [r7, #12]
 146 00c8 4FF00002 		mov	r2, #0
 147 00cc DA60     		str	r2, [r3, #12]
 104:C:\Micrium\Software\uCOS-III\Source\os_msg.c **** 
 105:C:\Micrium\Software\uCOS-III\Source\os_msg.c ****     OSMsgPool.NextPtr    =  OSCfg_MsgPoolBasePtr;
 148              		.loc 1 105 0
 149 00ce 40F20003 		movw	r3, #:lower16:OSCfg_MsgPoolBasePtr
 150 00d2 C0F20003 		movt	r3, #:upper16:OSCfg_MsgPoolBasePtr
 151 00d6 1A68     		ldr	r2, [r3, #0]
 152 00d8 40F20003 		movw	r3, #:lower16:OSMsgPool
 153 00dc C0F20003 		movt	r3, #:upper16:OSMsgPool
 154 00e0 1A60     		str	r2, [r3, #0]
 106:C:\Micrium\Software\uCOS-III\Source\os_msg.c ****     OSMsgPool.NbrFree    =  OSCfg_MsgPoolSize;
 155              		.loc 1 106 0
 156 00e2 40F20003 		movw	r3, #:lower16:OSCfg_MsgPoolSize
 157 00e6 C0F20003 		movt	r3, #:upper16:OSCfg_MsgPoolSize
 158 00ea 1A88     		ldrh	r2, [r3, #0]
 159 00ec 40F20003 		movw	r3, #:lower16:OSMsgPool
 160 00f0 C0F20003 		movt	r3, #:upper16:OSMsgPool
 161 00f4 9A80     		strh	r2, [r3, #4]	@ movhi
 107:C:\Micrium\Software\uCOS-III\Source\os_msg.c ****     OSMsgPool.NbrUsed    = (OS_MSG_QTY)0;
 162              		.loc 1 107 0
 163 00f6 40F20003 		movw	r3, #:lower16:OSMsgPool
 164 00fa C0F20003 		movt	r3, #:upper16:OSMsgPool
 165 00fe 4FF00002 		mov	r2, #0
 166 0102 DA80     		strh	r2, [r3, #6]	@ movhi
 108:C:\Micrium\Software\uCOS-III\Source\os_msg.c ****     OSMsgPool.NbrUsedMax = (OS_MSG_QTY)0;
 167              		.loc 1 108 0
 168 0104 40F20003 		movw	r3, #:lower16:OSMsgPool
 169 0108 C0F20003 		movt	r3, #:upper16:OSMsgPool
 170 010c 4FF00002 		mov	r2, #0
 171 0110 1A81     		strh	r2, [r3, #8]	@ movhi
 109:C:\Micrium\Software\uCOS-III\Source\os_msg.c ****    *p_err                =  OS_ERR_NONE;
 172              		.loc 1 109 0
ARM GAS  C:\Users\daniel01\AppData\Local\Temp\cca70qYo.s 			page 6


 173 0112 7B68     		ldr	r3, [r7, #4]
 174 0114 4FF00002 		mov	r2, #0
 175 0118 1A80     		strh	r2, [r3, #0]	@ movhi
 176              	.L7:
 110:C:\Micrium\Software\uCOS-III\Source\os_msg.c **** }
 177              		.loc 1 110 0
 178 011a 07F11C07 		add	r7, r7, #28
 179 011e BD46     		mov	sp, r7
 180 0120 80BC     		pop	{r7}
 181 0122 7047     		bx	lr
 182              		.cfi_endproc
 183              	.LFE0:
 184              		.size	OS_MsgPoolInit, .-OS_MsgPoolInit
 185              		.section	.text.OS_MsgQFreeAll,"ax",%progbits
 186              		.align	2
 187              		.global	OS_MsgQFreeAll
 188              		.thumb
 189              		.thumb_func
 190              		.type	OS_MsgQFreeAll, %function
 191              	OS_MsgQFreeAll:
 192              	.LFB1:
 111:C:\Micrium\Software\uCOS-III\Source\os_msg.c **** 
 112:C:\Micrium\Software\uCOS-III\Source\os_msg.c **** /*$PAGE*/
 113:C:\Micrium\Software\uCOS-III\Source\os_msg.c **** /*
 114:C:\Micrium\Software\uCOS-III\Source\os_msg.c **** ***************************************************************************************************
 115:C:\Micrium\Software\uCOS-III\Source\os_msg.c **** *                                        RELEASE ALL MESSAGE IN MESSAGE QUEUE
 116:C:\Micrium\Software\uCOS-III\Source\os_msg.c **** *
 117:C:\Micrium\Software\uCOS-III\Source\os_msg.c **** * Description: This function returns all the messages in a message queue to the free list.
 118:C:\Micrium\Software\uCOS-III\Source\os_msg.c **** *
 119:C:\Micrium\Software\uCOS-III\Source\os_msg.c **** * Arguments  : p_msg_q       is a pointer to the OS_MSG_Q structure containing messages to free.
 120:C:\Micrium\Software\uCOS-III\Source\os_msg.c **** *              -------
 121:C:\Micrium\Software\uCOS-III\Source\os_msg.c **** *
 122:C:\Micrium\Software\uCOS-III\Source\os_msg.c **** * Returns    : the number of OS_MSGs returned to the free list
 123:C:\Micrium\Software\uCOS-III\Source\os_msg.c **** *
 124:C:\Micrium\Software\uCOS-III\Source\os_msg.c **** * Note(s)    : 1) This function is INTERNAL to uC/OS-III and your application MUST NOT call it.
 125:C:\Micrium\Software\uCOS-III\Source\os_msg.c **** ***************************************************************************************************
 126:C:\Micrium\Software\uCOS-III\Source\os_msg.c **** */
 127:C:\Micrium\Software\uCOS-III\Source\os_msg.c **** 
 128:C:\Micrium\Software\uCOS-III\Source\os_msg.c **** OS_MSG_QTY  OS_MsgQFreeAll (OS_MSG_Q  *p_msg_q)
 129:C:\Micrium\Software\uCOS-III\Source\os_msg.c **** {
 193              		.loc 1 129 0
 194              		.cfi_startproc
 195              		@ args = 0, pretend = 0, frame = 16
 196              		@ frame_needed = 1, uses_anonymous_args = 0
 197              		@ link register save eliminated.
 198 0000 80B4     		push	{r7}
 199              	.LCFI3:
 200              		.cfi_def_cfa_offset 4
 201 0002 85B0     		sub	sp, sp, #20
 202              	.LCFI4:
 203              		.cfi_def_cfa_offset 24
 204 0004 00AF     		add	r7, sp, #0
 205              		.cfi_offset 7, -4
 206              	.LCFI5:
 207              		.cfi_def_cfa_register 7
 208 0006 7860     		str	r0, [r7, #4]
 130:C:\Micrium\Software\uCOS-III\Source\os_msg.c ****     OS_MSG      *p_msg;
ARM GAS  C:\Users\daniel01\AppData\Local\Temp\cca70qYo.s 			page 7


 131:C:\Micrium\Software\uCOS-III\Source\os_msg.c ****     OS_MSG_QTY   qty;
 132:C:\Micrium\Software\uCOS-III\Source\os_msg.c **** 
 133:C:\Micrium\Software\uCOS-III\Source\os_msg.c **** 
 134:C:\Micrium\Software\uCOS-III\Source\os_msg.c **** 
 135:C:\Micrium\Software\uCOS-III\Source\os_msg.c ****     qty = p_msg_q->NbrEntries;                              /* Get the number of OS_MSGs being free
 209              		.loc 1 135 0
 210 0008 7B68     		ldr	r3, [r7, #4]
 211 000a 5B89     		ldrh	r3, [r3, #10]	@ movhi
 212 000c FB81     		strh	r3, [r7, #14]	@ movhi
 136:C:\Micrium\Software\uCOS-III\Source\os_msg.c ****     if (p_msg_q->NbrEntries > (OS_MSG_QTY)0) {
 213              		.loc 1 136 0
 214 000e 7B68     		ldr	r3, [r7, #4]
 215 0010 5B89     		ldrh	r3, [r3, #10]
 216 0012 002B     		cmp	r3, #0
 217 0014 3DD0     		beq	.L9
 137:C:\Micrium\Software\uCOS-III\Source\os_msg.c ****         p_msg                   = p_msg_q->InPtr;           /* Point to end of message chain       
 218              		.loc 1 137 0
 219 0016 7B68     		ldr	r3, [r7, #4]
 220 0018 1B68     		ldr	r3, [r3, #0]
 221 001a BB60     		str	r3, [r7, #8]
 138:C:\Micrium\Software\uCOS-III\Source\os_msg.c ****         p_msg->NextPtr          = OSMsgPool.NextPtr;
 222              		.loc 1 138 0
 223 001c 40F20003 		movw	r3, #:lower16:OSMsgPool
 224 0020 C0F20003 		movt	r3, #:upper16:OSMsgPool
 225 0024 1A68     		ldr	r2, [r3, #0]
 226 0026 BB68     		ldr	r3, [r7, #8]
 227 0028 1A60     		str	r2, [r3, #0]
 139:C:\Micrium\Software\uCOS-III\Source\os_msg.c ****         OSMsgPool.NextPtr       = p_msg_q->OutPtr;          /* Point to beginning of message chain 
 228              		.loc 1 139 0
 229 002a 7B68     		ldr	r3, [r7, #4]
 230 002c 5A68     		ldr	r2, [r3, #4]
 231 002e 40F20003 		movw	r3, #:lower16:OSMsgPool
 232 0032 C0F20003 		movt	r3, #:upper16:OSMsgPool
 233 0036 1A60     		str	r2, [r3, #0]
 140:C:\Micrium\Software\uCOS-III\Source\os_msg.c ****         OSMsgPool.NbrUsed      -= p_msg_q->NbrEntries;      /* Update statistics for free list of m
 234              		.loc 1 140 0
 235 0038 40F20003 		movw	r3, #:lower16:OSMsgPool
 236 003c C0F20003 		movt	r3, #:upper16:OSMsgPool
 237 0040 DA88     		ldrh	r2, [r3, #6]
 238 0042 7B68     		ldr	r3, [r7, #4]
 239 0044 5B89     		ldrh	r3, [r3, #10]
 240 0046 C3EB0203 		rsb	r3, r3, r2
 241 004a 9AB2     		uxth	r2, r3
 242 004c 40F20003 		movw	r3, #:lower16:OSMsgPool
 243 0050 C0F20003 		movt	r3, #:upper16:OSMsgPool
 244 0054 DA80     		strh	r2, [r3, #6]	@ movhi
 141:C:\Micrium\Software\uCOS-III\Source\os_msg.c ****         OSMsgPool.NbrFree      += p_msg_q->NbrEntries;
 245              		.loc 1 141 0
 246 0056 40F20003 		movw	r3, #:lower16:OSMsgPool
 247 005a C0F20003 		movt	r3, #:upper16:OSMsgPool
 248 005e 9A88     		ldrh	r2, [r3, #4]
 249 0060 7B68     		ldr	r3, [r7, #4]
 250 0062 5B89     		ldrh	r3, [r3, #10]
 251 0064 1344     		add	r3, r2, r3
 252 0066 9AB2     		uxth	r2, r3
 253 0068 40F20003 		movw	r3, #:lower16:OSMsgPool
 254 006c C0F20003 		movt	r3, #:upper16:OSMsgPool
ARM GAS  C:\Users\daniel01\AppData\Local\Temp\cca70qYo.s 			page 8


 255 0070 9A80     		strh	r2, [r3, #4]	@ movhi
 142:C:\Micrium\Software\uCOS-III\Source\os_msg.c ****         p_msg_q->NbrEntries     = (OS_MSG_QTY)0;            /* Flush the message queue             
 256              		.loc 1 142 0
 257 0072 7B68     		ldr	r3, [r7, #4]
 258 0074 4FF00002 		mov	r2, #0
 259 0078 5A81     		strh	r2, [r3, #10]	@ movhi
 143:C:\Micrium\Software\uCOS-III\Source\os_msg.c ****         p_msg_q->NbrEntriesMax  = (OS_MSG_QTY)0;
 260              		.loc 1 143 0
 261 007a 7B68     		ldr	r3, [r7, #4]
 262 007c 4FF00002 		mov	r2, #0
 263 0080 9A81     		strh	r2, [r3, #12]	@ movhi
 144:C:\Micrium\Software\uCOS-III\Source\os_msg.c ****         p_msg_q->InPtr          = (OS_MSG   *)0;
 264              		.loc 1 144 0
 265 0082 7B68     		ldr	r3, [r7, #4]
 266 0084 4FF00002 		mov	r2, #0
 267 0088 1A60     		str	r2, [r3, #0]
 145:C:\Micrium\Software\uCOS-III\Source\os_msg.c ****         p_msg_q->OutPtr         = (OS_MSG   *)0;
 268              		.loc 1 145 0
 269 008a 7B68     		ldr	r3, [r7, #4]
 270 008c 4FF00002 		mov	r2, #0
 271 0090 5A60     		str	r2, [r3, #4]
 272              	.L9:
 146:C:\Micrium\Software\uCOS-III\Source\os_msg.c ****     }
 147:C:\Micrium\Software\uCOS-III\Source\os_msg.c ****     return (qty);
 273              		.loc 1 147 0
 274 0092 FB89     		ldrh	r3, [r7, #14]
 148:C:\Micrium\Software\uCOS-III\Source\os_msg.c **** }
 275              		.loc 1 148 0
 276 0094 1846     		mov	r0, r3
 277 0096 07F11407 		add	r7, r7, #20
 278 009a BD46     		mov	sp, r7
 279 009c 80BC     		pop	{r7}
 280 009e 7047     		bx	lr
 281              		.cfi_endproc
 282              	.LFE1:
 283              		.size	OS_MsgQFreeAll, .-OS_MsgQFreeAll
 284              		.section	.text.OS_MsgQInit,"ax",%progbits
 285              		.align	2
 286              		.global	OS_MsgQInit
 287              		.thumb
 288              		.thumb_func
 289              		.type	OS_MsgQInit, %function
 290              	OS_MsgQInit:
 291              	.LFB2:
 149:C:\Micrium\Software\uCOS-III\Source\os_msg.c **** 
 150:C:\Micrium\Software\uCOS-III\Source\os_msg.c **** /*$PAGE*/
 151:C:\Micrium\Software\uCOS-III\Source\os_msg.c **** /*
 152:C:\Micrium\Software\uCOS-III\Source\os_msg.c **** ***************************************************************************************************
 153:C:\Micrium\Software\uCOS-III\Source\os_msg.c **** *                                               INITIALIZE A MESSAGE QUEUE
 154:C:\Micrium\Software\uCOS-III\Source\os_msg.c **** *
 155:C:\Micrium\Software\uCOS-III\Source\os_msg.c **** * Description: This function is called to initialize a message queue
 156:C:\Micrium\Software\uCOS-III\Source\os_msg.c **** *
 157:C:\Micrium\Software\uCOS-III\Source\os_msg.c **** * Arguments  : p_msg_q      is a pointer to the message queue to initialize
 158:C:\Micrium\Software\uCOS-III\Source\os_msg.c **** *              -------
 159:C:\Micrium\Software\uCOS-III\Source\os_msg.c **** *
 160:C:\Micrium\Software\uCOS-III\Source\os_msg.c **** *              max          is the maximum number of entries that a message queue can have.
 161:C:\Micrium\Software\uCOS-III\Source\os_msg.c **** *
ARM GAS  C:\Users\daniel01\AppData\Local\Temp\cca70qYo.s 			page 9


 162:C:\Micrium\Software\uCOS-III\Source\os_msg.c **** * Returns    : none
 163:C:\Micrium\Software\uCOS-III\Source\os_msg.c **** *
 164:C:\Micrium\Software\uCOS-III\Source\os_msg.c **** * Note(s)    : 1) This function is INTERNAL to uC/OS-III and your application MUST NOT call it.
 165:C:\Micrium\Software\uCOS-III\Source\os_msg.c **** ***************************************************************************************************
 166:C:\Micrium\Software\uCOS-III\Source\os_msg.c **** */
 167:C:\Micrium\Software\uCOS-III\Source\os_msg.c **** 
 168:C:\Micrium\Software\uCOS-III\Source\os_msg.c **** void  OS_MsgQInit (OS_MSG_Q    *p_msg_q,
 169:C:\Micrium\Software\uCOS-III\Source\os_msg.c ****                    OS_MSG_QTY   size)
 170:C:\Micrium\Software\uCOS-III\Source\os_msg.c **** {
 292              		.loc 1 170 0
 293              		.cfi_startproc
 294              		@ args = 0, pretend = 0, frame = 8
 295              		@ frame_needed = 1, uses_anonymous_args = 0
 296              		@ link register save eliminated.
 297 0000 80B4     		push	{r7}
 298              	.LCFI6:
 299              		.cfi_def_cfa_offset 4
 300 0002 83B0     		sub	sp, sp, #12
 301              	.LCFI7:
 302              		.cfi_def_cfa_offset 16
 303 0004 00AF     		add	r7, sp, #0
 304              		.cfi_offset 7, -4
 305              	.LCFI8:
 306              		.cfi_def_cfa_register 7
 307 0006 7860     		str	r0, [r7, #4]
 308 0008 0B46     		mov	r3, r1
 309 000a 7B80     		strh	r3, [r7, #2]	@ movhi
 171:C:\Micrium\Software\uCOS-III\Source\os_msg.c ****     p_msg_q->NbrEntriesSize = (OS_MSG_QTY)size;
 310              		.loc 1 171 0
 311 000c 7B68     		ldr	r3, [r7, #4]
 312 000e 7A88     		ldrh	r2, [r7, #2]	@ movhi
 313 0010 1A81     		strh	r2, [r3, #8]	@ movhi
 172:C:\Micrium\Software\uCOS-III\Source\os_msg.c ****     p_msg_q->NbrEntries     = (OS_MSG_QTY)0;
 314              		.loc 1 172 0
 315 0012 7B68     		ldr	r3, [r7, #4]
 316 0014 4FF00002 		mov	r2, #0
 317 0018 5A81     		strh	r2, [r3, #10]	@ movhi
 173:C:\Micrium\Software\uCOS-III\Source\os_msg.c ****     p_msg_q->NbrEntriesMax  = (OS_MSG_QTY)0;
 318              		.loc 1 173 0
 319 001a 7B68     		ldr	r3, [r7, #4]
 320 001c 4FF00002 		mov	r2, #0
 321 0020 9A81     		strh	r2, [r3, #12]	@ movhi
 174:C:\Micrium\Software\uCOS-III\Source\os_msg.c ****     p_msg_q->InPtr          = (OS_MSG   *)0;
 322              		.loc 1 174 0
 323 0022 7B68     		ldr	r3, [r7, #4]
 324 0024 4FF00002 		mov	r2, #0
 325 0028 1A60     		str	r2, [r3, #0]
 175:C:\Micrium\Software\uCOS-III\Source\os_msg.c ****     p_msg_q->OutPtr         = (OS_MSG   *)0;
 326              		.loc 1 175 0
 327 002a 7B68     		ldr	r3, [r7, #4]
 328 002c 4FF00002 		mov	r2, #0
 329 0030 5A60     		str	r2, [r3, #4]
 176:C:\Micrium\Software\uCOS-III\Source\os_msg.c **** }
 330              		.loc 1 176 0
 331 0032 07F10C07 		add	r7, r7, #12
 332 0036 BD46     		mov	sp, r7
 333 0038 80BC     		pop	{r7}
ARM GAS  C:\Users\daniel01\AppData\Local\Temp\cca70qYo.s 			page 10


 334 003a 7047     		bx	lr
 335              		.cfi_endproc
 336              	.LFE2:
 337              		.size	OS_MsgQInit, .-OS_MsgQInit
 338              		.section	.text.OS_MsgQGet,"ax",%progbits
 339              		.align	2
 340              		.global	OS_MsgQGet
 341              		.thumb
 342              		.thumb_func
 343              		.type	OS_MsgQGet, %function
 344              	OS_MsgQGet:
 345              	.LFB3:
 177:C:\Micrium\Software\uCOS-III\Source\os_msg.c **** 
 178:C:\Micrium\Software\uCOS-III\Source\os_msg.c **** /*$PAGE*/
 179:C:\Micrium\Software\uCOS-III\Source\os_msg.c **** /*
 180:C:\Micrium\Software\uCOS-III\Source\os_msg.c **** ***************************************************************************************************
 181:C:\Micrium\Software\uCOS-III\Source\os_msg.c **** *                                           RETRIEVE MESSAGE FROM MESSAGE QUEUE
 182:C:\Micrium\Software\uCOS-III\Source\os_msg.c **** *
 183:C:\Micrium\Software\uCOS-III\Source\os_msg.c **** * Description: This function retrieves a message from a message queue
 184:C:\Micrium\Software\uCOS-III\Source\os_msg.c **** *
 185:C:\Micrium\Software\uCOS-III\Source\os_msg.c **** * Arguments  : p_msg_q     is a pointer to the message queue where we want to extract the message f
 186:C:\Micrium\Software\uCOS-III\Source\os_msg.c **** *              -------
 187:C:\Micrium\Software\uCOS-III\Source\os_msg.c **** *
 188:C:\Micrium\Software\uCOS-III\Source\os_msg.c **** *              p_msg_size  is a pointer to where the size (in bytes) of the message will be placed
 189:C:\Micrium\Software\uCOS-III\Source\os_msg.c **** *
 190:C:\Micrium\Software\uCOS-III\Source\os_msg.c **** *              p_ts        is a pointer to where the time stamp will be placed
 191:C:\Micrium\Software\uCOS-III\Source\os_msg.c **** *
 192:C:\Micrium\Software\uCOS-III\Source\os_msg.c **** *              p_err       is a pointer to an error code that will be returned from this call.
 193:C:\Micrium\Software\uCOS-III\Source\os_msg.c **** *
 194:C:\Micrium\Software\uCOS-III\Source\os_msg.c **** *                              OS_ERR_Q_EMPTY
 195:C:\Micrium\Software\uCOS-III\Source\os_msg.c **** *                              OS_ERR_NONE
 196:C:\Micrium\Software\uCOS-III\Source\os_msg.c **** *
 197:C:\Micrium\Software\uCOS-III\Source\os_msg.c **** * Returns    : The message (a pointer)
 198:C:\Micrium\Software\uCOS-III\Source\os_msg.c **** *
 199:C:\Micrium\Software\uCOS-III\Source\os_msg.c **** * Note(s)    : 1) This function is INTERNAL to uC/OS-III and your application MUST NOT call it.
 200:C:\Micrium\Software\uCOS-III\Source\os_msg.c **** ***************************************************************************************************
 201:C:\Micrium\Software\uCOS-III\Source\os_msg.c **** */
 202:C:\Micrium\Software\uCOS-III\Source\os_msg.c **** 
 203:C:\Micrium\Software\uCOS-III\Source\os_msg.c **** void  *OS_MsgQGet (OS_MSG_Q     *p_msg_q,
 204:C:\Micrium\Software\uCOS-III\Source\os_msg.c ****                    OS_MSG_SIZE  *p_msg_size,
 205:C:\Micrium\Software\uCOS-III\Source\os_msg.c ****                    CPU_TS       *p_ts,
 206:C:\Micrium\Software\uCOS-III\Source\os_msg.c ****                    OS_ERR       *p_err)
 207:C:\Micrium\Software\uCOS-III\Source\os_msg.c **** {
 346              		.loc 1 207 0
 347              		.cfi_startproc
 348              		@ args = 0, pretend = 0, frame = 24
 349              		@ frame_needed = 1, uses_anonymous_args = 0
 350              		@ link register save eliminated.
 351 0000 80B4     		push	{r7}
 352              	.LCFI9:
 353              		.cfi_def_cfa_offset 4
 354 0002 87B0     		sub	sp, sp, #28
 355              	.LCFI10:
 356              		.cfi_def_cfa_offset 32
 357 0004 00AF     		add	r7, sp, #0
 358              		.cfi_offset 7, -4
 359              	.LCFI11:
ARM GAS  C:\Users\daniel01\AppData\Local\Temp\cca70qYo.s 			page 11


 360              		.cfi_def_cfa_register 7
 361 0006 F860     		str	r0, [r7, #12]
 362 0008 B960     		str	r1, [r7, #8]
 363 000a 7A60     		str	r2, [r7, #4]
 364 000c 3B60     		str	r3, [r7, #0]
 208:C:\Micrium\Software\uCOS-III\Source\os_msg.c ****     OS_MSG  *p_msg;
 209:C:\Micrium\Software\uCOS-III\Source\os_msg.c ****     void    *p_void;
 210:C:\Micrium\Software\uCOS-III\Source\os_msg.c **** 
 211:C:\Micrium\Software\uCOS-III\Source\os_msg.c **** 
 212:C:\Micrium\Software\uCOS-III\Source\os_msg.c **** 
 213:C:\Micrium\Software\uCOS-III\Source\os_msg.c **** #ifdef OS_SAFETY_CRITICAL
 214:C:\Micrium\Software\uCOS-III\Source\os_msg.c ****     if (p_err == (OS_ERR *)0) {
 215:C:\Micrium\Software\uCOS-III\Source\os_msg.c ****         OS_SAFETY_CRITICAL_EXCEPTION();
 216:C:\Micrium\Software\uCOS-III\Source\os_msg.c ****         return ((void *)0);
 217:C:\Micrium\Software\uCOS-III\Source\os_msg.c ****     }
 218:C:\Micrium\Software\uCOS-III\Source\os_msg.c **** #endif
 219:C:\Micrium\Software\uCOS-III\Source\os_msg.c **** 
 220:C:\Micrium\Software\uCOS-III\Source\os_msg.c ****     if (p_msg_q->NbrEntries == (OS_MSG_QTY)0) {             /* Is the queue empty?                 
 365              		.loc 1 220 0
 366 000e FB68     		ldr	r3, [r7, #12]
 367 0010 5B89     		ldrh	r3, [r3, #10]
 368 0012 002B     		cmp	r3, #0
 369 0014 11D1     		bne	.L14
 221:C:\Micrium\Software\uCOS-III\Source\os_msg.c ****        *p_msg_size = (OS_MSG_SIZE)0;                        /* Yes                                 
 370              		.loc 1 221 0
 371 0016 BB68     		ldr	r3, [r7, #8]
 372 0018 4FF00002 		mov	r2, #0
 373 001c 1A80     		strh	r2, [r3, #0]	@ movhi
 222:C:\Micrium\Software\uCOS-III\Source\os_msg.c ****         if (p_ts != (CPU_TS *)0) {
 374              		.loc 1 222 0
 375 001e 7B68     		ldr	r3, [r7, #4]
 376 0020 002B     		cmp	r3, #0
 377 0022 03D0     		beq	.L15
 223:C:\Micrium\Software\uCOS-III\Source\os_msg.c ****            *p_ts  = (CPU_TS  )0;
 378              		.loc 1 223 0
 379 0024 7B68     		ldr	r3, [r7, #4]
 380 0026 4FF00002 		mov	r2, #0
 381 002a 1A60     		str	r2, [r3, #0]
 382              	.L15:
 224:C:\Micrium\Software\uCOS-III\Source\os_msg.c ****         }
 225:C:\Micrium\Software\uCOS-III\Source\os_msg.c ****        *p_err = OS_ERR_Q_EMPTY;
 383              		.loc 1 225 0
 384 002c 3B68     		ldr	r3, [r7, #0]
 385 002e 46F29252 		movw	r2, #26002
 386 0032 1A80     		strh	r2, [r3, #0]	@ movhi
 226:C:\Micrium\Software\uCOS-III\Source\os_msg.c ****         return ((void *)0);
 387              		.loc 1 226 0
 388 0034 4FF00003 		mov	r3, #0
 389 0038 54E0     		b	.L16
 390              	.L14:
 227:C:\Micrium\Software\uCOS-III\Source\os_msg.c ****     }
 228:C:\Micrium\Software\uCOS-III\Source\os_msg.c **** 
 229:C:\Micrium\Software\uCOS-III\Source\os_msg.c ****     p_msg           = p_msg_q->OutPtr;                      /* No, get the next message to extract 
 391              		.loc 1 229 0
 392 003a FB68     		ldr	r3, [r7, #12]
 393 003c 5B68     		ldr	r3, [r3, #4]
 394 003e 3B61     		str	r3, [r7, #16]
ARM GAS  C:\Users\daniel01\AppData\Local\Temp\cca70qYo.s 			page 12


 230:C:\Micrium\Software\uCOS-III\Source\os_msg.c ****     p_void          = p_msg->MsgPtr;
 395              		.loc 1 230 0
 396 0040 3B69     		ldr	r3, [r7, #16]
 397 0042 5B68     		ldr	r3, [r3, #4]
 398 0044 7B61     		str	r3, [r7, #20]
 231:C:\Micrium\Software\uCOS-III\Source\os_msg.c ****    *p_msg_size      = p_msg->MsgSize;
 399              		.loc 1 231 0
 400 0046 3B69     		ldr	r3, [r7, #16]
 401 0048 1A89     		ldrh	r2, [r3, #8]
 402 004a BB68     		ldr	r3, [r7, #8]
 403 004c 1A80     		strh	r2, [r3, #0]	@ movhi
 232:C:\Micrium\Software\uCOS-III\Source\os_msg.c ****     if (p_ts != (CPU_TS *)0) {
 404              		.loc 1 232 0
 405 004e 7B68     		ldr	r3, [r7, #4]
 406 0050 002B     		cmp	r3, #0
 407 0052 03D0     		beq	.L17
 233:C:\Micrium\Software\uCOS-III\Source\os_msg.c ****        *p_ts  = p_msg->MsgTS;
 408              		.loc 1 233 0
 409 0054 3B69     		ldr	r3, [r7, #16]
 410 0056 DA68     		ldr	r2, [r3, #12]
 411 0058 7B68     		ldr	r3, [r7, #4]
 412 005a 1A60     		str	r2, [r3, #0]
 413              	.L17:
 234:C:\Micrium\Software\uCOS-III\Source\os_msg.c ****     }
 235:C:\Micrium\Software\uCOS-III\Source\os_msg.c **** 
 236:C:\Micrium\Software\uCOS-III\Source\os_msg.c ****     p_msg_q->OutPtr = p_msg->NextPtr;                       /* Point to next message to extract    
 414              		.loc 1 236 0
 415 005c 3B69     		ldr	r3, [r7, #16]
 416 005e 1A68     		ldr	r2, [r3, #0]
 417 0060 FB68     		ldr	r3, [r7, #12]
 418 0062 5A60     		str	r2, [r3, #4]
 237:C:\Micrium\Software\uCOS-III\Source\os_msg.c **** 
 238:C:\Micrium\Software\uCOS-III\Source\os_msg.c ****     if (p_msg_q->OutPtr == (OS_MSG *)0) {                   /* Are there any more messages in the q
 419              		.loc 1 238 0
 420 0064 FB68     		ldr	r3, [r7, #12]
 421 0066 5B68     		ldr	r3, [r3, #4]
 422 0068 002B     		cmp	r3, #0
 423 006a 08D1     		bne	.L18
 239:C:\Micrium\Software\uCOS-III\Source\os_msg.c ****         p_msg_q->InPtr      = (OS_MSG   *)0;                /* No                                  
 424              		.loc 1 239 0
 425 006c FB68     		ldr	r3, [r7, #12]
 426 006e 4FF00002 		mov	r2, #0
 427 0072 1A60     		str	r2, [r3, #0]
 240:C:\Micrium\Software\uCOS-III\Source\os_msg.c ****         p_msg_q->NbrEntries = (OS_MSG_QTY)0;
 428              		.loc 1 240 0
 429 0074 FB68     		ldr	r3, [r7, #12]
 430 0076 4FF00002 		mov	r2, #0
 431 007a 5A81     		strh	r2, [r3, #10]	@ movhi
 432 007c 06E0     		b	.L19
 433              	.L18:
 241:C:\Micrium\Software\uCOS-III\Source\os_msg.c ****     } else {
 242:C:\Micrium\Software\uCOS-III\Source\os_msg.c ****         p_msg_q->NbrEntries--;                              /* Yes, One less message in the queue  
 434              		.loc 1 242 0
 435 007e FB68     		ldr	r3, [r7, #12]
 436 0080 5B89     		ldrh	r3, [r3, #10]
 437 0082 03F1FF33 		add	r3, r3, #-1
 438 0086 9AB2     		uxth	r2, r3
ARM GAS  C:\Users\daniel01\AppData\Local\Temp\cca70qYo.s 			page 13


 439 0088 FB68     		ldr	r3, [r7, #12]
 440 008a 5A81     		strh	r2, [r3, #10]	@ movhi
 441              	.L19:
 243:C:\Micrium\Software\uCOS-III\Source\os_msg.c ****     }
 244:C:\Micrium\Software\uCOS-III\Source\os_msg.c **** 
 245:C:\Micrium\Software\uCOS-III\Source\os_msg.c ****     p_msg->NextPtr    = OSMsgPool.NextPtr;                  /* Return message control block to free
 442              		.loc 1 245 0
 443 008c 40F20003 		movw	r3, #:lower16:OSMsgPool
 444 0090 C0F20003 		movt	r3, #:upper16:OSMsgPool
 445 0094 1A68     		ldr	r2, [r3, #0]
 446 0096 3B69     		ldr	r3, [r7, #16]
 447 0098 1A60     		str	r2, [r3, #0]
 246:C:\Micrium\Software\uCOS-III\Source\os_msg.c ****     OSMsgPool.NextPtr = p_msg;
 448              		.loc 1 246 0
 449 009a 40F20003 		movw	r3, #:lower16:OSMsgPool
 450 009e C0F20003 		movt	r3, #:upper16:OSMsgPool
 451 00a2 3A69     		ldr	r2, [r7, #16]
 452 00a4 1A60     		str	r2, [r3, #0]
 247:C:\Micrium\Software\uCOS-III\Source\os_msg.c ****     OSMsgPool.NbrFree++;
 453              		.loc 1 247 0
 454 00a6 40F20003 		movw	r3, #:lower16:OSMsgPool
 455 00aa C0F20003 		movt	r3, #:upper16:OSMsgPool
 456 00ae 9B88     		ldrh	r3, [r3, #4]
 457 00b0 03F10103 		add	r3, r3, #1
 458 00b4 9AB2     		uxth	r2, r3
 459 00b6 40F20003 		movw	r3, #:lower16:OSMsgPool
 460 00ba C0F20003 		movt	r3, #:upper16:OSMsgPool
 461 00be 9A80     		strh	r2, [r3, #4]	@ movhi
 248:C:\Micrium\Software\uCOS-III\Source\os_msg.c ****     OSMsgPool.NbrUsed--;
 462              		.loc 1 248 0
 463 00c0 40F20003 		movw	r3, #:lower16:OSMsgPool
 464 00c4 C0F20003 		movt	r3, #:upper16:OSMsgPool
 465 00c8 DB88     		ldrh	r3, [r3, #6]
 466 00ca 03F1FF33 		add	r3, r3, #-1
 467 00ce 9AB2     		uxth	r2, r3
 468 00d0 40F20003 		movw	r3, #:lower16:OSMsgPool
 469 00d4 C0F20003 		movt	r3, #:upper16:OSMsgPool
 470 00d8 DA80     		strh	r2, [r3, #6]	@ movhi
 249:C:\Micrium\Software\uCOS-III\Source\os_msg.c **** 
 250:C:\Micrium\Software\uCOS-III\Source\os_msg.c ****    *p_err             = OS_ERR_NONE;
 471              		.loc 1 250 0
 472 00da 3B68     		ldr	r3, [r7, #0]
 473 00dc 4FF00002 		mov	r2, #0
 474 00e0 1A80     		strh	r2, [r3, #0]	@ movhi
 251:C:\Micrium\Software\uCOS-III\Source\os_msg.c ****     return (p_void);
 475              		.loc 1 251 0
 476 00e2 7B69     		ldr	r3, [r7, #20]
 477              	.L16:
 252:C:\Micrium\Software\uCOS-III\Source\os_msg.c **** }
 478              		.loc 1 252 0
 479 00e4 1846     		mov	r0, r3
 480 00e6 07F11C07 		add	r7, r7, #28
 481 00ea BD46     		mov	sp, r7
 482 00ec 80BC     		pop	{r7}
 483 00ee 7047     		bx	lr
 484              		.cfi_endproc
 485              	.LFE3:
ARM GAS  C:\Users\daniel01\AppData\Local\Temp\cca70qYo.s 			page 14


 486              		.size	OS_MsgQGet, .-OS_MsgQGet
 487              		.section	.text.OS_MsgQPut,"ax",%progbits
 488              		.align	2
 489              		.global	OS_MsgQPut
 490              		.thumb
 491              		.thumb_func
 492              		.type	OS_MsgQPut, %function
 493              	OS_MsgQPut:
 494              	.LFB4:
 253:C:\Micrium\Software\uCOS-III\Source\os_msg.c **** 
 254:C:\Micrium\Software\uCOS-III\Source\os_msg.c **** /*$PAGE*/
 255:C:\Micrium\Software\uCOS-III\Source\os_msg.c **** /*
 256:C:\Micrium\Software\uCOS-III\Source\os_msg.c **** ***************************************************************************************************
 257:C:\Micrium\Software\uCOS-III\Source\os_msg.c **** *                                           DEPOSIT MESSAGE IN MESSAGE QUEUE
 258:C:\Micrium\Software\uCOS-III\Source\os_msg.c **** *
 259:C:\Micrium\Software\uCOS-III\Source\os_msg.c **** * Description: This function places a message in a message queue
 260:C:\Micrium\Software\uCOS-III\Source\os_msg.c **** *
 261:C:\Micrium\Software\uCOS-III\Source\os_msg.c **** * Arguments  : p_msg_q     is a pointer to the OS_TCB of the task to post the message to
 262:C:\Micrium\Software\uCOS-III\Source\os_msg.c **** *              -------
 263:C:\Micrium\Software\uCOS-III\Source\os_msg.c **** *
 264:C:\Micrium\Software\uCOS-III\Source\os_msg.c **** *              p_void      is a pointer to the message to send.
 265:C:\Micrium\Software\uCOS-III\Source\os_msg.c **** *
 266:C:\Micrium\Software\uCOS-III\Source\os_msg.c **** *              msg_size    is the size of the message (in bytes)
 267:C:\Micrium\Software\uCOS-III\Source\os_msg.c **** *
 268:C:\Micrium\Software\uCOS-III\Source\os_msg.c **** *              opt         specifies whether the message will be posted in FIFO or LIFO order
 269:C:\Micrium\Software\uCOS-III\Source\os_msg.c **** *
 270:C:\Micrium\Software\uCOS-III\Source\os_msg.c **** *                              OS_OPT_POST_FIFO
 271:C:\Micrium\Software\uCOS-III\Source\os_msg.c **** *                              OS_OPT_POST_LIFO
 272:C:\Micrium\Software\uCOS-III\Source\os_msg.c **** *
 273:C:\Micrium\Software\uCOS-III\Source\os_msg.c **** *              ts          is a timestamp as to when the message was posted
 274:C:\Micrium\Software\uCOS-III\Source\os_msg.c **** *
 275:C:\Micrium\Software\uCOS-III\Source\os_msg.c **** *              p_err       is a pointer to a variable that will contain an error code returned by t
 276:C:\Micrium\Software\uCOS-III\Source\os_msg.c **** *
 277:C:\Micrium\Software\uCOS-III\Source\os_msg.c **** *                              OS_ERR_Q_MAX           if the queue is full
 278:C:\Micrium\Software\uCOS-III\Source\os_msg.c **** *                              OS_ERR_MSG_POOL_EMPTY  if we no longer have any OS_MSG to use
 279:C:\Micrium\Software\uCOS-III\Source\os_msg.c **** *                              OS_ERR_NONE            the message was deposited in the queue
 280:C:\Micrium\Software\uCOS-III\Source\os_msg.c **** *
 281:C:\Micrium\Software\uCOS-III\Source\os_msg.c **** * Returns    : none
 282:C:\Micrium\Software\uCOS-III\Source\os_msg.c **** *
 283:C:\Micrium\Software\uCOS-III\Source\os_msg.c **** * Note(s)    : 1) This function is INTERNAL to uC/OS-III and your application MUST NOT call it.
 284:C:\Micrium\Software\uCOS-III\Source\os_msg.c **** ***************************************************************************************************
 285:C:\Micrium\Software\uCOS-III\Source\os_msg.c **** */
 286:C:\Micrium\Software\uCOS-III\Source\os_msg.c **** 
 287:C:\Micrium\Software\uCOS-III\Source\os_msg.c **** void  OS_MsgQPut (OS_MSG_Q     *p_msg_q,
 288:C:\Micrium\Software\uCOS-III\Source\os_msg.c ****                   void         *p_void,
 289:C:\Micrium\Software\uCOS-III\Source\os_msg.c ****                   OS_MSG_SIZE   msg_size,
 290:C:\Micrium\Software\uCOS-III\Source\os_msg.c ****                   OS_OPT        opt,
 291:C:\Micrium\Software\uCOS-III\Source\os_msg.c ****                   CPU_TS        ts,
 292:C:\Micrium\Software\uCOS-III\Source\os_msg.c ****                   OS_ERR       *p_err)
 293:C:\Micrium\Software\uCOS-III\Source\os_msg.c **** {
 495              		.loc 1 293 0
 496              		.cfi_startproc
 497              		@ args = 8, pretend = 0, frame = 24
 498              		@ frame_needed = 1, uses_anonymous_args = 0
 499              		@ link register save eliminated.
 500 0000 80B4     		push	{r7}
 501              	.LCFI12:
ARM GAS  C:\Users\daniel01\AppData\Local\Temp\cca70qYo.s 			page 15


 502              		.cfi_def_cfa_offset 4
 503 0002 87B0     		sub	sp, sp, #28
 504              	.LCFI13:
 505              		.cfi_def_cfa_offset 32
 506 0004 00AF     		add	r7, sp, #0
 507              		.cfi_offset 7, -4
 508              	.LCFI14:
 509              		.cfi_def_cfa_register 7
 510 0006 F860     		str	r0, [r7, #12]
 511 0008 B960     		str	r1, [r7, #8]
 512 000a FA80     		strh	r2, [r7, #6]	@ movhi
 513 000c BB80     		strh	r3, [r7, #4]	@ movhi
 294:C:\Micrium\Software\uCOS-III\Source\os_msg.c ****     OS_MSG  *p_msg;
 295:C:\Micrium\Software\uCOS-III\Source\os_msg.c ****     OS_MSG  *p_msg_in;
 296:C:\Micrium\Software\uCOS-III\Source\os_msg.c **** 
 297:C:\Micrium\Software\uCOS-III\Source\os_msg.c **** 
 298:C:\Micrium\Software\uCOS-III\Source\os_msg.c **** 
 299:C:\Micrium\Software\uCOS-III\Source\os_msg.c **** #ifdef OS_SAFETY_CRITICAL
 300:C:\Micrium\Software\uCOS-III\Source\os_msg.c ****     if (p_err == (OS_ERR *)0) {
 301:C:\Micrium\Software\uCOS-III\Source\os_msg.c ****         OS_SAFETY_CRITICAL_EXCEPTION();
 302:C:\Micrium\Software\uCOS-III\Source\os_msg.c ****         return;
 303:C:\Micrium\Software\uCOS-III\Source\os_msg.c ****     }
 304:C:\Micrium\Software\uCOS-III\Source\os_msg.c **** #endif
 305:C:\Micrium\Software\uCOS-III\Source\os_msg.c **** 
 306:C:\Micrium\Software\uCOS-III\Source\os_msg.c ****     if (p_msg_q->NbrEntries >= p_msg_q->NbrEntriesSize) {
 514              		.loc 1 306 0
 515 000e FB68     		ldr	r3, [r7, #12]
 516 0010 5A89     		ldrh	r2, [r3, #10]
 517 0012 FB68     		ldr	r3, [r7, #12]
 518 0014 1B89     		ldrh	r3, [r3, #8]
 519 0016 9A42     		cmp	r2, r3
 520 0018 04D3     		bcc	.L22
 307:C:\Micrium\Software\uCOS-III\Source\os_msg.c ****        *p_err = OS_ERR_Q_MAX;                               /* Message queue cannot accept any more
 521              		.loc 1 307 0
 522 001a 7B6A     		ldr	r3, [r7, #36]
 523 001c 46F29352 		movw	r2, #26003
 524 0020 1A80     		strh	r2, [r3, #0]	@ movhi
 308:C:\Micrium\Software\uCOS-III\Source\os_msg.c ****         return;
 525              		.loc 1 308 0
 526 0022 93E0     		b	.L31
 527              	.L22:
 309:C:\Micrium\Software\uCOS-III\Source\os_msg.c ****     }
 310:C:\Micrium\Software\uCOS-III\Source\os_msg.c **** 
 311:C:\Micrium\Software\uCOS-III\Source\os_msg.c ****     if (OSMsgPool.NbrFree == (OS_MSG_QTY)0) {
 528              		.loc 1 311 0
 529 0024 40F20003 		movw	r3, #:lower16:OSMsgPool
 530 0028 C0F20003 		movt	r3, #:upper16:OSMsgPool
 531 002c 9B88     		ldrh	r3, [r3, #4]
 532 002e 002B     		cmp	r3, #0
 533 0030 04D1     		bne	.L24
 312:C:\Micrium\Software\uCOS-III\Source\os_msg.c ****        *p_err = OS_ERR_MSG_POOL_EMPTY;                      /* No more OS_MSG to use               
 534              		.loc 1 312 0
 535 0032 7B6A     		ldr	r3, [r7, #36]
 536 0034 45F21D72 		movw	r2, #22301
 537 0038 1A80     		strh	r2, [r3, #0]	@ movhi
 313:C:\Micrium\Software\uCOS-III\Source\os_msg.c ****         return;
 538              		.loc 1 313 0
ARM GAS  C:\Users\daniel01\AppData\Local\Temp\cca70qYo.s 			page 16


 539 003a 87E0     		b	.L31
 540              	.L24:
 314:C:\Micrium\Software\uCOS-III\Source\os_msg.c ****     }
 315:C:\Micrium\Software\uCOS-III\Source\os_msg.c **** 
 316:C:\Micrium\Software\uCOS-III\Source\os_msg.c ****     p_msg             = OSMsgPool.NextPtr;                  /* Remove message control block from fr
 541              		.loc 1 316 0
 542 003c 40F20003 		movw	r3, #:lower16:OSMsgPool
 543 0040 C0F20003 		movt	r3, #:upper16:OSMsgPool
 544 0044 1B68     		ldr	r3, [r3, #0]
 545 0046 3B61     		str	r3, [r7, #16]
 317:C:\Micrium\Software\uCOS-III\Source\os_msg.c ****     OSMsgPool.NextPtr = p_msg->NextPtr;
 546              		.loc 1 317 0
 547 0048 3B69     		ldr	r3, [r7, #16]
 548 004a 1A68     		ldr	r2, [r3, #0]
 549 004c 40F20003 		movw	r3, #:lower16:OSMsgPool
 550 0050 C0F20003 		movt	r3, #:upper16:OSMsgPool
 551 0054 1A60     		str	r2, [r3, #0]
 318:C:\Micrium\Software\uCOS-III\Source\os_msg.c ****     OSMsgPool.NbrFree--;
 552              		.loc 1 318 0
 553 0056 40F20003 		movw	r3, #:lower16:OSMsgPool
 554 005a C0F20003 		movt	r3, #:upper16:OSMsgPool
 555 005e 9B88     		ldrh	r3, [r3, #4]
 556 0060 03F1FF33 		add	r3, r3, #-1
 557 0064 9AB2     		uxth	r2, r3
 558 0066 40F20003 		movw	r3, #:lower16:OSMsgPool
 559 006a C0F20003 		movt	r3, #:upper16:OSMsgPool
 560 006e 9A80     		strh	r2, [r3, #4]	@ movhi
 319:C:\Micrium\Software\uCOS-III\Source\os_msg.c ****     OSMsgPool.NbrUsed++;
 561              		.loc 1 319 0
 562 0070 40F20003 		movw	r3, #:lower16:OSMsgPool
 563 0074 C0F20003 		movt	r3, #:upper16:OSMsgPool
 564 0078 DB88     		ldrh	r3, [r3, #6]
 565 007a 03F10103 		add	r3, r3, #1
 566 007e 9AB2     		uxth	r2, r3
 567 0080 40F20003 		movw	r3, #:lower16:OSMsgPool
 568 0084 C0F20003 		movt	r3, #:upper16:OSMsgPool
 569 0088 DA80     		strh	r2, [r3, #6]	@ movhi
 320:C:\Micrium\Software\uCOS-III\Source\os_msg.c ****     if (OSMsgPool.NbrUsedMax < OSMsgPool.NbrUsed) {
 570              		.loc 1 320 0
 571 008a 40F20003 		movw	r3, #:lower16:OSMsgPool
 572 008e C0F20003 		movt	r3, #:upper16:OSMsgPool
 573 0092 1A89     		ldrh	r2, [r3, #8]
 574 0094 40F20003 		movw	r3, #:lower16:OSMsgPool
 575 0098 C0F20003 		movt	r3, #:upper16:OSMsgPool
 576 009c DB88     		ldrh	r3, [r3, #6]
 577 009e 9A42     		cmp	r2, r3
 578 00a0 09D2     		bcs	.L25
 321:C:\Micrium\Software\uCOS-III\Source\os_msg.c ****         OSMsgPool.NbrUsedMax = OSMsgPool.NbrUsed;
 579              		.loc 1 321 0
 580 00a2 40F20003 		movw	r3, #:lower16:OSMsgPool
 581 00a6 C0F20003 		movt	r3, #:upper16:OSMsgPool
 582 00aa DA88     		ldrh	r2, [r3, #6]
 583 00ac 40F20003 		movw	r3, #:lower16:OSMsgPool
 584 00b0 C0F20003 		movt	r3, #:upper16:OSMsgPool
 585 00b4 1A81     		strh	r2, [r3, #8]	@ movhi
 586              	.L25:
 322:C:\Micrium\Software\uCOS-III\Source\os_msg.c ****     }
ARM GAS  C:\Users\daniel01\AppData\Local\Temp\cca70qYo.s 			page 17


 323:C:\Micrium\Software\uCOS-III\Source\os_msg.c **** 
 324:C:\Micrium\Software\uCOS-III\Source\os_msg.c ****     if (p_msg_q->NbrEntries == (OS_MSG_QTY)0) {             /* Is this first message placed in the 
 587              		.loc 1 324 0
 588 00b6 FB68     		ldr	r3, [r7, #12]
 589 00b8 5B89     		ldrh	r3, [r3, #10]
 590 00ba 002B     		cmp	r3, #0
 591 00bc 0ED1     		bne	.L26
 325:C:\Micrium\Software\uCOS-III\Source\os_msg.c ****         p_msg_q->InPtr         = p_msg;                     /* Yes                                 
 592              		.loc 1 325 0
 593 00be FB68     		ldr	r3, [r7, #12]
 594 00c0 3A69     		ldr	r2, [r7, #16]
 595 00c2 1A60     		str	r2, [r3, #0]
 326:C:\Micrium\Software\uCOS-III\Source\os_msg.c ****         p_msg_q->OutPtr        = p_msg;
 596              		.loc 1 326 0
 597 00c4 FB68     		ldr	r3, [r7, #12]
 598 00c6 3A69     		ldr	r2, [r7, #16]
 599 00c8 5A60     		str	r2, [r3, #4]
 327:C:\Micrium\Software\uCOS-III\Source\os_msg.c ****         p_msg_q->NbrEntries    = (OS_MSG_QTY)1;
 600              		.loc 1 327 0
 601 00ca FB68     		ldr	r3, [r7, #12]
 602 00cc 4FF00102 		mov	r2, #1
 603 00d0 5A81     		strh	r2, [r3, #10]	@ movhi
 328:C:\Micrium\Software\uCOS-III\Source\os_msg.c ****         p_msg->NextPtr         = (OS_MSG *)0;
 604              		.loc 1 328 0
 605 00d2 3B69     		ldr	r3, [r7, #16]
 606 00d4 4FF00002 		mov	r2, #0
 607 00d8 1A60     		str	r2, [r3, #0]
 608 00da 20E0     		b	.L27
 609              	.L26:
 329:C:\Micrium\Software\uCOS-III\Source\os_msg.c ****     } else {                                                /* No                                  
 330:C:\Micrium\Software\uCOS-III\Source\os_msg.c ****         if ((opt & OS_OPT_POST_LIFO) == OS_OPT_POST_FIFO) { /* Is it FIFO or LIFO?                 
 610              		.loc 1 330 0
 611 00dc BB88     		ldrh	r3, [r7, #4]
 612 00de 03F01003 		and	r3, r3, #16
 613 00e2 002B     		cmp	r3, #0
 614 00e4 0DD1     		bne	.L28
 331:C:\Micrium\Software\uCOS-III\Source\os_msg.c ****             p_msg_in           = p_msg_q->InPtr;            /* FIFO, add to the head               
 615              		.loc 1 331 0
 616 00e6 FB68     		ldr	r3, [r7, #12]
 617 00e8 1B68     		ldr	r3, [r3, #0]
 618 00ea 7B61     		str	r3, [r7, #20]
 332:C:\Micrium\Software\uCOS-III\Source\os_msg.c ****             p_msg_in->NextPtr  = p_msg;
 619              		.loc 1 332 0
 620 00ec 7B69     		ldr	r3, [r7, #20]
 621 00ee 3A69     		ldr	r2, [r7, #16]
 622 00f0 1A60     		str	r2, [r3, #0]
 333:C:\Micrium\Software\uCOS-III\Source\os_msg.c ****             p_msg_q->InPtr     = p_msg;
 623              		.loc 1 333 0
 624 00f2 FB68     		ldr	r3, [r7, #12]
 625 00f4 3A69     		ldr	r2, [r7, #16]
 626 00f6 1A60     		str	r2, [r3, #0]
 334:C:\Micrium\Software\uCOS-III\Source\os_msg.c ****             p_msg->NextPtr     = (OS_MSG *)0;
 627              		.loc 1 334 0
 628 00f8 3B69     		ldr	r3, [r7, #16]
 629 00fa 4FF00002 		mov	r2, #0
 630 00fe 1A60     		str	r2, [r3, #0]
 631 0100 06E0     		b	.L29
ARM GAS  C:\Users\daniel01\AppData\Local\Temp\cca70qYo.s 			page 18


 632              	.L28:
 335:C:\Micrium\Software\uCOS-III\Source\os_msg.c ****         } else {
 336:C:\Micrium\Software\uCOS-III\Source\os_msg.c ****             p_msg->NextPtr     = p_msg_q->OutPtr;           /* LIFO, add to the tail               
 633              		.loc 1 336 0
 634 0102 FB68     		ldr	r3, [r7, #12]
 635 0104 5A68     		ldr	r2, [r3, #4]
 636 0106 3B69     		ldr	r3, [r7, #16]
 637 0108 1A60     		str	r2, [r3, #0]
 337:C:\Micrium\Software\uCOS-III\Source\os_msg.c ****             p_msg_q->OutPtr    = p_msg;
 638              		.loc 1 337 0
 639 010a FB68     		ldr	r3, [r7, #12]
 640 010c 3A69     		ldr	r2, [r7, #16]
 641 010e 5A60     		str	r2, [r3, #4]
 642              	.L29:
 338:C:\Micrium\Software\uCOS-III\Source\os_msg.c ****         }
 339:C:\Micrium\Software\uCOS-III\Source\os_msg.c ****         p_msg_q->NbrEntries++;
 643              		.loc 1 339 0
 644 0110 FB68     		ldr	r3, [r7, #12]
 645 0112 5B89     		ldrh	r3, [r3, #10]
 646 0114 03F10103 		add	r3, r3, #1
 647 0118 9AB2     		uxth	r2, r3
 648 011a FB68     		ldr	r3, [r7, #12]
 649 011c 5A81     		strh	r2, [r3, #10]	@ movhi
 650              	.L27:
 340:C:\Micrium\Software\uCOS-III\Source\os_msg.c ****     }
 341:C:\Micrium\Software\uCOS-III\Source\os_msg.c ****     if (p_msg_q->NbrEntriesMax < p_msg_q->NbrEntries) {
 651              		.loc 1 341 0
 652 011e FB68     		ldr	r3, [r7, #12]
 653 0120 9A89     		ldrh	r2, [r3, #12]
 654 0122 FB68     		ldr	r3, [r7, #12]
 655 0124 5B89     		ldrh	r3, [r3, #10]
 656 0126 9A42     		cmp	r2, r3
 657 0128 03D2     		bcs	.L30
 342:C:\Micrium\Software\uCOS-III\Source\os_msg.c ****         p_msg_q->NbrEntriesMax = p_msg_q->NbrEntries;
 658              		.loc 1 342 0
 659 012a FB68     		ldr	r3, [r7, #12]
 660 012c 5A89     		ldrh	r2, [r3, #10]
 661 012e FB68     		ldr	r3, [r7, #12]
 662 0130 9A81     		strh	r2, [r3, #12]	@ movhi
 663              	.L30:
 343:C:\Micrium\Software\uCOS-III\Source\os_msg.c ****     }
 344:C:\Micrium\Software\uCOS-III\Source\os_msg.c ****     p_msg->MsgPtr  = p_void;                                /* Deposit message in the message queue
 664              		.loc 1 344 0
 665 0132 3B69     		ldr	r3, [r7, #16]
 666 0134 BA68     		ldr	r2, [r7, #8]
 667 0136 5A60     		str	r2, [r3, #4]
 345:C:\Micrium\Software\uCOS-III\Source\os_msg.c ****     p_msg->MsgSize = msg_size;
 668              		.loc 1 345 0
 669 0138 3B69     		ldr	r3, [r7, #16]
 670 013a FA88     		ldrh	r2, [r7, #6]	@ movhi
 671 013c 1A81     		strh	r2, [r3, #8]	@ movhi
 346:C:\Micrium\Software\uCOS-III\Source\os_msg.c ****     p_msg->MsgTS   = ts;
 672              		.loc 1 346 0
 673 013e 3B69     		ldr	r3, [r7, #16]
 674 0140 3A6A     		ldr	r2, [r7, #32]
 675 0142 DA60     		str	r2, [r3, #12]
 347:C:\Micrium\Software\uCOS-III\Source\os_msg.c ****    *p_err          = OS_ERR_NONE;
ARM GAS  C:\Users\daniel01\AppData\Local\Temp\cca70qYo.s 			page 19


 676              		.loc 1 347 0
 677 0144 7B6A     		ldr	r3, [r7, #36]
 678 0146 4FF00002 		mov	r2, #0
 679 014a 1A80     		strh	r2, [r3, #0]	@ movhi
 680              	.L31:
 348:C:\Micrium\Software\uCOS-III\Source\os_msg.c **** }
 681              		.loc 1 348 0
 682 014c 07F11C07 		add	r7, r7, #28
 683 0150 BD46     		mov	sp, r7
 684 0152 80BC     		pop	{r7}
 685 0154 7047     		bx	lr
 686              		.cfi_endproc
 687              	.LFE4:
 688              		.size	OS_MsgQPut, .-OS_MsgQPut
 689 0156 00BF     		.text
 690              	.Letext0: