ARM GAS  C:\Users\daniel01\AppData\Local\Temp\ccW97xDN.s 			page 1


   1              		.syntax unified
   2              		.cpu cortex-m3
   3              		.fpu softvfp
   4              		.eabi_attribute 20, 1
   5              		.eabi_attribute 21, 1
   6              		.eabi_attribute 23, 3
   7              		.eabi_attribute 24, 1
   8              		.eabi_attribute 25, 1
   9              		.eabi_attribute 26, 1
  10              		.eabi_attribute 30, 6
  11              		.eabi_attribute 18, 4
  12              		.thumb
  13              		.file	"os_pend_multi.c"
  20 0000 AB010000 		.text
  20      0200DC00 
  20      00000201 
  20      FB0E0D00 
  20      01010101 
  21              	.Ltext0:
  22              		.cfi_sections	.debug_frame
  23              		.section	.text.OSPendMulti,"ax",%progbits
  24              		.align	2
  25              		.global	OSPendMulti
  26              		.thumb
  27              		.thumb_func
  28              		.type	OSPendMulti, %function
  29              	OSPendMulti:
  30              	.LFB0:
  31              		.file 1 "C:\\Micrium\\Software\\uCOS-III\\Source\\os_pend_multi.c"
   1:C:\Micrium\Software\uCOS-III\Source\os_pend_multi.c **** /*
   2:C:\Micrium\Software\uCOS-III\Source\os_pend_multi.c **** ***************************************************************************************************
   3:C:\Micrium\Software\uCOS-III\Source\os_pend_multi.c **** *                                                      uC/OS-III
   4:C:\Micrium\Software\uCOS-III\Source\os_pend_multi.c **** *                                                 The Real-Time Kernel
   5:C:\Micrium\Software\uCOS-III\Source\os_pend_multi.c **** *
   6:C:\Micrium\Software\uCOS-III\Source\os_pend_multi.c **** *                                  (c) Copyright 2009-2012; Micrium, Inc.; Weston, FL
   7:C:\Micrium\Software\uCOS-III\Source\os_pend_multi.c **** *                           All rights reserved.  Protected by international copyright laws.
   8:C:\Micrium\Software\uCOS-III\Source\os_pend_multi.c **** *
   9:C:\Micrium\Software\uCOS-III\Source\os_pend_multi.c **** *                                               PEND ON MULTIPLE OBJECTS
  10:C:\Micrium\Software\uCOS-III\Source\os_pend_multi.c **** *
  11:C:\Micrium\Software\uCOS-III\Source\os_pend_multi.c **** * File    : OS_PEND_MULTI.C
  12:C:\Micrium\Software\uCOS-III\Source\os_pend_multi.c **** * By      : JJL
  13:C:\Micrium\Software\uCOS-III\Source\os_pend_multi.c **** * Version : V3.03.01
  14:C:\Micrium\Software\uCOS-III\Source\os_pend_multi.c **** *
  15:C:\Micrium\Software\uCOS-III\Source\os_pend_multi.c **** * LICENSING TERMS:
  16:C:\Micrium\Software\uCOS-III\Source\os_pend_multi.c **** * ---------------
  17:C:\Micrium\Software\uCOS-III\Source\os_pend_multi.c **** *           uC/OS-III is provided in source form for FREE short-term evaluation, for educational us
  18:C:\Micrium\Software\uCOS-III\Source\os_pend_multi.c **** *           for peaceful research.  If you plan or intend to use uC/OS-III in a commercial applicat
  19:C:\Micrium\Software\uCOS-III\Source\os_pend_multi.c **** *           product then, you need to contact Micrium to properly license uC/OS-III for its use in 
  20:C:\Micrium\Software\uCOS-III\Source\os_pend_multi.c **** *           application/product.   We provide ALL the source code for your convenience and to help 
  21:C:\Micrium\Software\uCOS-III\Source\os_pend_multi.c **** *           experience uC/OS-III.  The fact that the source is provided does NOT mean that you can 
  22:C:\Micrium\Software\uCOS-III\Source\os_pend_multi.c **** *           it commercially without paying a licensing fee.
ARM GAS  C:\Users\daniel01\AppData\Local\Temp\ccW97xDN.s 			page 2


  23:C:\Micrium\Software\uCOS-III\Source\os_pend_multi.c **** *
  24:C:\Micrium\Software\uCOS-III\Source\os_pend_multi.c **** *           Knowledge of the source code may NOT be used to develop a similar product.
  25:C:\Micrium\Software\uCOS-III\Source\os_pend_multi.c **** *
  26:C:\Micrium\Software\uCOS-III\Source\os_pend_multi.c **** *           Please help us continue to provide the embedded community with the finest software avai
  27:C:\Micrium\Software\uCOS-III\Source\os_pend_multi.c **** *           Your honesty is greatly appreciated.
  28:C:\Micrium\Software\uCOS-III\Source\os_pend_multi.c **** *
  29:C:\Micrium\Software\uCOS-III\Source\os_pend_multi.c **** *           You can contact us at www.micrium.com, or by phone at +1 (954) 217-2036.
  30:C:\Micrium\Software\uCOS-III\Source\os_pend_multi.c **** ***************************************************************************************************
  31:C:\Micrium\Software\uCOS-III\Source\os_pend_multi.c **** */
  32:C:\Micrium\Software\uCOS-III\Source\os_pend_multi.c **** 
  33:C:\Micrium\Software\uCOS-III\Source\os_pend_multi.c **** #define  MICRIUM_SOURCE
  34:C:\Micrium\Software\uCOS-III\Source\os_pend_multi.c **** #include <os.h>
  35:C:\Micrium\Software\uCOS-III\Source\os_pend_multi.c **** 
  36:C:\Micrium\Software\uCOS-III\Source\os_pend_multi.c **** #ifdef VSC_INCLUDE_SOURCE_FILE_NAMES
  37:C:\Micrium\Software\uCOS-III\Source\os_pend_multi.c **** const  CPU_CHAR  *os_pend_multi__c = "$Id: $";
  38:C:\Micrium\Software\uCOS-III\Source\os_pend_multi.c **** #endif
  39:C:\Micrium\Software\uCOS-III\Source\os_pend_multi.c **** 
  40:C:\Micrium\Software\uCOS-III\Source\os_pend_multi.c **** 
  41:C:\Micrium\Software\uCOS-III\Source\os_pend_multi.c **** #if (((OS_CFG_Q_EN > 0u) || (OS_CFG_SEM_EN > 0u)) && (OS_CFG_PEND_MULTI_EN > 0u))
  42:C:\Micrium\Software\uCOS-III\Source\os_pend_multi.c **** /*
  43:C:\Micrium\Software\uCOS-III\Source\os_pend_multi.c **** ***************************************************************************************************
  44:C:\Micrium\Software\uCOS-III\Source\os_pend_multi.c **** *                                               PEND ON MULTIPLE OBJECTS
  45:C:\Micrium\Software\uCOS-III\Source\os_pend_multi.c **** *
  46:C:\Micrium\Software\uCOS-III\Source\os_pend_multi.c **** * Description: This function pends on multiple objects.  The objects pended on MUST be either semap
  47:C:\Micrium\Software\uCOS-III\Source\os_pend_multi.c **** *              queues.  If multiple objects are ready at the start of the pend call, then all avail
  48:C:\Micrium\Software\uCOS-III\Source\os_pend_multi.c **** *              are ready will be indicated to the caller.  If the task must pend on the multiple ev
  49:C:\Micrium\Software\uCOS-III\Source\os_pend_multi.c **** *              as one of the object is either posted, aborted or deleted, the task will be readied.
  50:C:\Micrium\Software\uCOS-III\Source\os_pend_multi.c **** *
  51:C:\Micrium\Software\uCOS-III\Source\os_pend_multi.c **** *              This function only allows you to pend on semaphores and/or message queues.
  52:C:\Micrium\Software\uCOS-III\Source\os_pend_multi.c **** *
  53:C:\Micrium\Software\uCOS-III\Source\os_pend_multi.c **** * Arguments  : p_pend_data_tbl   is a pointer to an array of type OS_PEND_DATA which contains a lis
  54:C:\Micrium\Software\uCOS-III\Source\os_pend_multi.c **** *                                objects we will be waiting on.  The caller must declare an array o
  55:C:\Micrium\Software\uCOS-III\Source\os_pend_multi.c **** *                                and initialize the .PendObjPtr (see below) with a pointer to the o
  56:C:\Micrium\Software\uCOS-III\Source\os_pend_multi.c **** *                                message queue) to pend on.
  57:C:\Micrium\Software\uCOS-III\Source\os_pend_multi.c **** *
  58:C:\Micrium\Software\uCOS-III\Source\os_pend_multi.c **** *                                    OS_PEND_DATA  MyPendArray[?];
  59:C:\Micrium\Software\uCOS-III\Source\os_pend_multi.c **** *
  60:C:\Micrium\Software\uCOS-III\Source\os_pend_multi.c **** *                                The OS_PEND_DATA field are as follows:
  61:C:\Micrium\Software\uCOS-III\Source\os_pend_multi.c **** *
  62:C:\Micrium\Software\uCOS-III\Source\os_pend_multi.c **** *                                    OS_PEND_DATA  *PrevPtr;      Used to link OS_PEND_DATA objects
  63:C:\Micrium\Software\uCOS-III\Source\os_pend_multi.c **** *                                    OS_PEND_DATA  *NextPtr;      Used to link OS_PEND_DATA objects
  64:C:\Micrium\Software\uCOS-III\Source\os_pend_multi.c **** *                                    OS_TCB        *TCBPtr;       Pointer to the TCB that is pendin
  65:C:\Micrium\Software\uCOS-III\Source\os_pend_multi.c **** *                                    OS_PEND_OBJ   *PendObjPtr;   USER supplied field which is a po
  66:C:\Micrium\Software\uCOS-III\Source\os_pend_multi.c **** *                                                                 semaphore or message queue you wa
  67:C:\Micrium\Software\uCOS-III\Source\os_pend_multi.c **** *                                                                 you call OSPendMulti() you MUST f
  68:C:\Micrium\Software\uCOS-III\Source\os_pend_multi.c **** *                                                                 each of the objects you want to p
  69:C:\Micrium\Software\uCOS-III\Source\os_pend_multi.c **** *                                    OS_PEND_OBJ   *RdyObjPtr;    OSPendMulti() will return the obj
  70:C:\Micrium\Software\uCOS-III\Source\os_pend_multi.c **** *                                                                 aborted or deleted in this field.
  71:C:\Micrium\Software\uCOS-III\Source\os_pend_multi.c **** *                                    void          *RdyMsgPtr;    OSPendMulti() will fill in this f
  72:C:\Micrium\Software\uCOS-III\Source\os_pend_multi.c **** *                                                                 posted was a message queue.  This
  73:C:\Micrium\Software\uCOS-III\Source\os_pend_multi.c **** *                                                                 message posted.
  74:C:\Micrium\Software\uCOS-III\Source\os_pend_multi.c **** *                                    OS_MSG_SIZE    RdyMsgSize;   OSPendMulti() will fill in this f
  75:C:\Micrium\Software\uCOS-III\Source\os_pend_multi.c **** *                                                                 posted was a message queue.  This
  76:C:\Micrium\Software\uCOS-III\Source\os_pend_multi.c **** *                                                                 size of the message posted.
  77:C:\Micrium\Software\uCOS-III\Source\os_pend_multi.c **** *                                    CPU_TS         RdyTS;        OSPendMulti() will fill in this f
  78:C:\Micrium\Software\uCOS-III\Source\os_pend_multi.c **** *                                                                 was a message queue.  This corres
  79:C:\Micrium\Software\uCOS-III\Source\os_pend_multi.c **** *                                                                 stamp when the message was posted
ARM GAS  C:\Users\daniel01\AppData\Local\Temp\ccW97xDN.s 			page 3


  80:C:\Micrium\Software\uCOS-III\Source\os_pend_multi.c **** *                                                                 object is a semaphore and the obj
  81:C:\Micrium\Software\uCOS-III\Source\os_pend_multi.c **** *                                                                 the this field will be set to (CP
  82:C:\Micrium\Software\uCOS-III\Source\os_pend_multi.c **** *                                                                 not possible to know when the sem
  83:C:\Micrium\Software\uCOS-III\Source\os_pend_multi.c **** *
  84:C:\Micrium\Software\uCOS-III\Source\os_pend_multi.c **** *              tbl_size      is the size (in number of elements) of the OS_PEND_DATA array passed t
  85:C:\Micrium\Software\uCOS-III\Source\os_pend_multi.c **** *                            other words, if the called needs to pend on 4 separate objects (semaph
  86:C:\Micrium\Software\uCOS-III\Source\os_pend_multi.c **** *                            then you would pass 4 to this call.
  87:C:\Micrium\Software\uCOS-III\Source\os_pend_multi.c **** *
  88:C:\Micrium\Software\uCOS-III\Source\os_pend_multi.c **** *              timeout       is an optional timeout period (in clock ticks).  If non-zero, your tas
  89:C:\Micrium\Software\uCOS-III\Source\os_pend_multi.c **** *                            the objects up to the amount of time specified by this argument. If yo
  90:C:\Micrium\Software\uCOS-III\Source\os_pend_multi.c **** *                            your task will wait forever for the specified objects or, until an obj
  91:C:\Micrium\Software\uCOS-III\Source\os_pend_multi.c **** *                            aborted or deleted.
  92:C:\Micrium\Software\uCOS-III\Source\os_pend_multi.c **** *
  93:C:\Micrium\Software\uCOS-III\Source\os_pend_multi.c **** *              opt           determines whether the user wants to block if none of the objects are 
  94:C:\Micrium\Software\uCOS-III\Source\os_pend_multi.c **** *
  95:C:\Micrium\Software\uCOS-III\Source\os_pend_multi.c **** *                                OS_OPT_PEND_BLOCKING
  96:C:\Micrium\Software\uCOS-III\Source\os_pend_multi.c **** *                                OS_OPT_PEND_NON_BLOCKING
  97:C:\Micrium\Software\uCOS-III\Source\os_pend_multi.c **** *
  98:C:\Micrium\Software\uCOS-III\Source\os_pend_multi.c **** *              p_err         is a pointer to where an error message will be deposited.  Possible er
  99:C:\Micrium\Software\uCOS-III\Source\os_pend_multi.c **** *
 100:C:\Micrium\Software\uCOS-III\Source\os_pend_multi.c **** *                                OS_ERR_NONE              The call was successful and your task own
 101:C:\Micrium\Software\uCOS-III\Source\os_pend_multi.c **** *                                                         the objects you are waiting for occurred.
 102:C:\Micrium\Software\uCOS-III\Source\os_pend_multi.c **** *                                                         fields to know which objects have been po
 103:C:\Micrium\Software\uCOS-III\Source\os_pend_multi.c **** *                                OS_ERR_OBJ_TYPE          If any of the .PendPtr is NOT a semaphore
 104:C:\Micrium\Software\uCOS-III\Source\os_pend_multi.c **** *                                OS_ERR_OPT_INVALID       If you specified an invalid option for 'o
 105:C:\Micrium\Software\uCOS-III\Source\os_pend_multi.c **** *                                OS_ERR_PEND_ABORT        The wait on the events was aborted; check
 106:C:\Micrium\Software\uCOS-III\Source\os_pend_multi.c **** *                                                         for which objects were aborted.
 107:C:\Micrium\Software\uCOS-III\Source\os_pend_multi.c **** *                                OS_ERR_PEND_DEL          The wait on the events was aborted; check
 108:C:\Micrium\Software\uCOS-III\Source\os_pend_multi.c **** *                                                         for which objects were aborted.
 109:C:\Micrium\Software\uCOS-III\Source\os_pend_multi.c **** *                                OS_ERR_PEND_ISR          If you called this function from an ISR
 110:C:\Micrium\Software\uCOS-III\Source\os_pend_multi.c **** *                                OS_ERR_PEND_LOCKED       If you called this function when the sche
 111:C:\Micrium\Software\uCOS-III\Source\os_pend_multi.c **** *                                OS_ERR_PEND_WOULD_BLOCK  If the caller didn't want to block and no
 112:C:\Micrium\Software\uCOS-III\Source\os_pend_multi.c **** *                                OS_ERR_STATUS_INVALID    Invalid pend status
 113:C:\Micrium\Software\uCOS-III\Source\os_pend_multi.c **** *                                OS_ERR_PTR_INVALID       If you passes a NULL pointer of 'p_pend_d
 114:C:\Micrium\Software\uCOS-III\Source\os_pend_multi.c **** *                                OS_ERR_TIMEOUT           The objects were not posted within the sp
 115:C:\Micrium\Software\uCOS-III\Source\os_pend_multi.c **** *
 116:C:\Micrium\Software\uCOS-III\Source\os_pend_multi.c **** * Returns    : >  0          the number of objects returned as ready, aborted or deleted
 117:C:\Micrium\Software\uCOS-III\Source\os_pend_multi.c **** *              == 0          if no events are returned as ready because of timeout or upon error.
 118:C:\Micrium\Software\uCOS-III\Source\os_pend_multi.c **** ***************************************************************************************************
 119:C:\Micrium\Software\uCOS-III\Source\os_pend_multi.c **** */
 120:C:\Micrium\Software\uCOS-III\Source\os_pend_multi.c **** /*$PAGE*/
 121:C:\Micrium\Software\uCOS-III\Source\os_pend_multi.c **** OS_OBJ_QTY  OSPendMulti (OS_PEND_DATA  *p_pend_data_tbl,
 122:C:\Micrium\Software\uCOS-III\Source\os_pend_multi.c ****                          OS_OBJ_QTY     tbl_size,
 123:C:\Micrium\Software\uCOS-III\Source\os_pend_multi.c ****                          OS_TICK        timeout,
 124:C:\Micrium\Software\uCOS-III\Source\os_pend_multi.c ****                          OS_OPT         opt,
 125:C:\Micrium\Software\uCOS-III\Source\os_pend_multi.c ****                          OS_ERR        *p_err)
 126:C:\Micrium\Software\uCOS-III\Source\os_pend_multi.c **** {
  32              		.loc 1 126 0
  33              		.cfi_startproc
  34              		@ args = 4, pretend = 0, frame = 24
  35              		@ frame_needed = 1, uses_anonymous_args = 0
  36 0000 80B5     		push	{r7, lr}
  37              	.LCFI0:
  38              		.cfi_def_cfa_offset 8
  39 0002 86B0     		sub	sp, sp, #24
  40              	.LCFI1:
  41              		.cfi_def_cfa_offset 32
ARM GAS  C:\Users\daniel01\AppData\Local\Temp\ccW97xDN.s 			page 4


  42 0004 00AF     		add	r7, sp, #0
  43              		.cfi_offset 14, -4
  44              		.cfi_offset 7, -8
  45              	.LCFI2:
  46              		.cfi_def_cfa_register 7
  47 0006 F860     		str	r0, [r7, #12]
  48 0008 7A60     		str	r2, [r7, #4]
  49 000a 0A46     		mov	r2, r1	@ movhi
  50 000c 7A81     		strh	r2, [r7, #10]	@ movhi
  51 000e 7B80     		strh	r3, [r7, #2]	@ movhi
 127:C:\Micrium\Software\uCOS-III\Source\os_pend_multi.c ****     CPU_BOOLEAN   valid;
 128:C:\Micrium\Software\uCOS-III\Source\os_pend_multi.c ****     OS_OBJ_QTY    nbr_obj_rdy;
 129:C:\Micrium\Software\uCOS-III\Source\os_pend_multi.c ****     CPU_SR_ALLOC();
  52              		.loc 1 129 0
  53 0010 4FF00003 		mov	r3, #0
  54 0014 7B61     		str	r3, [r7, #20]
 130:C:\Micrium\Software\uCOS-III\Source\os_pend_multi.c **** 
 131:C:\Micrium\Software\uCOS-III\Source\os_pend_multi.c **** 
 132:C:\Micrium\Software\uCOS-III\Source\os_pend_multi.c **** 
 133:C:\Micrium\Software\uCOS-III\Source\os_pend_multi.c **** #ifdef OS_SAFETY_CRITICAL
 134:C:\Micrium\Software\uCOS-III\Source\os_pend_multi.c ****     if (p_err == (OS_ERR *)0) {
 135:C:\Micrium\Software\uCOS-III\Source\os_pend_multi.c ****         OS_SAFETY_CRITICAL_EXCEPTION();
 136:C:\Micrium\Software\uCOS-III\Source\os_pend_multi.c ****         return ((OS_OBJ_QTY)0);
 137:C:\Micrium\Software\uCOS-III\Source\os_pend_multi.c ****     }
 138:C:\Micrium\Software\uCOS-III\Source\os_pend_multi.c **** #endif
 139:C:\Micrium\Software\uCOS-III\Source\os_pend_multi.c **** 
 140:C:\Micrium\Software\uCOS-III\Source\os_pend_multi.c **** #if OS_CFG_CALLED_FROM_ISR_CHK_EN > 0u
 141:C:\Micrium\Software\uCOS-III\Source\os_pend_multi.c ****     if (OSIntNestingCtr > (OS_NESTING_CTR)0) {              /* Can't pend from an ISR              
  55              		.loc 1 141 0
  56 0016 40F20003 		movw	r3, #:lower16:OSIntNestingCtr
  57 001a C0F20003 		movt	r3, #:upper16:OSIntNestingCtr
  58 001e 1B78     		ldrb	r3, [r3, #0]	@ zero_extendqisi2
  59 0020 002B     		cmp	r3, #0
  60 0022 06D0     		beq	.L2
 142:C:\Micrium\Software\uCOS-III\Source\os_pend_multi.c ****        *p_err = OS_ERR_PEND_ISR;
  61              		.loc 1 142 0
  62 0024 3B6A     		ldr	r3, [r7, #32]
  63 0026 46F2AE12 		movw	r2, #25006
  64 002a 1A80     		strh	r2, [r3, #0]	@ movhi
 143:C:\Micrium\Software\uCOS-III\Source\os_pend_multi.c ****         return ((OS_OBJ_QTY)0);
  65              		.loc 1 143 0
  66 002c 4FF00003 		mov	r3, #0
  67 0030 B2E0     		b	.L3
  68              	.L2:
 144:C:\Micrium\Software\uCOS-III\Source\os_pend_multi.c ****     }
 145:C:\Micrium\Software\uCOS-III\Source\os_pend_multi.c **** #endif
 146:C:\Micrium\Software\uCOS-III\Source\os_pend_multi.c **** 
 147:C:\Micrium\Software\uCOS-III\Source\os_pend_multi.c **** #if OS_CFG_ARG_CHK_EN > 0u
 148:C:\Micrium\Software\uCOS-III\Source\os_pend_multi.c ****     if (p_pend_data_tbl == (OS_PEND_DATA *)0) {             /* Validate 'p_pend_data_tbl'          
  69              		.loc 1 148 0
  70 0032 FB68     		ldr	r3, [r7, #12]
  71 0034 002B     		cmp	r3, #0
  72 0036 06D1     		bne	.L4
 149:C:\Micrium\Software\uCOS-III\Source\os_pend_multi.c ****        *p_err = OS_ERR_PTR_INVALID;
  73              		.loc 1 149 0
  74 0038 3B6A     		ldr	r3, [r7, #32]
  75 003a 46F2D522 		movw	r2, #25301
ARM GAS  C:\Users\daniel01\AppData\Local\Temp\ccW97xDN.s 			page 5


  76 003e 1A80     		strh	r2, [r3, #0]	@ movhi
 150:C:\Micrium\Software\uCOS-III\Source\os_pend_multi.c ****         return ((OS_OBJ_QTY)0);
  77              		.loc 1 150 0
  78 0040 4FF00003 		mov	r3, #0
  79 0044 A8E0     		b	.L3
  80              	.L4:
 151:C:\Micrium\Software\uCOS-III\Source\os_pend_multi.c ****     }
 152:C:\Micrium\Software\uCOS-III\Source\os_pend_multi.c ****     if (tbl_size == (OS_OBJ_QTY)0) {                        /* Array size must be > 0              
  81              		.loc 1 152 0
  82 0046 7B89     		ldrh	r3, [r7, #10]
  83 0048 002B     		cmp	r3, #0
  84 004a 06D1     		bne	.L5
 153:C:\Micrium\Software\uCOS-III\Source\os_pend_multi.c ****        *p_err = OS_ERR_PTR_INVALID;
  85              		.loc 1 153 0
  86 004c 3B6A     		ldr	r3, [r7, #32]
  87 004e 46F2D522 		movw	r2, #25301
  88 0052 1A80     		strh	r2, [r3, #0]	@ movhi
 154:C:\Micrium\Software\uCOS-III\Source\os_pend_multi.c ****         return ((OS_OBJ_QTY)0);
  89              		.loc 1 154 0
  90 0054 4FF00003 		mov	r3, #0
  91 0058 9EE0     		b	.L3
  92              	.L5:
 155:C:\Micrium\Software\uCOS-III\Source\os_pend_multi.c ****     }
 156:C:\Micrium\Software\uCOS-III\Source\os_pend_multi.c ****     switch (opt) {
  93              		.loc 1 156 0
  94 005a 7B88     		ldrh	r3, [r7, #2]
  95 005c 002B     		cmp	r3, #0
  96 005e 02D0     		beq	.L7
  97 0060 B3F5004F 		cmp	r3, #32768
  98 0064 0AD1     		bne	.L21
  99              	.L7:
 157:C:\Micrium\Software\uCOS-III\Source\os_pend_multi.c ****         case OS_OPT_PEND_BLOCKING:
 158:C:\Micrium\Software\uCOS-III\Source\os_pend_multi.c ****         case OS_OPT_PEND_NON_BLOCKING:
 159:C:\Micrium\Software\uCOS-III\Source\os_pend_multi.c ****              break;
 160:C:\Micrium\Software\uCOS-III\Source\os_pend_multi.c **** 
 161:C:\Micrium\Software\uCOS-III\Source\os_pend_multi.c ****         default:
 162:C:\Micrium\Software\uCOS-III\Source\os_pend_multi.c ****             *p_err = OS_ERR_OPT_INVALID;
 163:C:\Micrium\Software\uCOS-III\Source\os_pend_multi.c ****              return ((OS_OBJ_QTY)0);
 164:C:\Micrium\Software\uCOS-III\Source\os_pend_multi.c ****     }
 165:C:\Micrium\Software\uCOS-III\Source\os_pend_multi.c **** #endif
 166:C:\Micrium\Software\uCOS-III\Source\os_pend_multi.c **** 
 167:C:\Micrium\Software\uCOS-III\Source\os_pend_multi.c ****     valid = OS_PendMultiValidate(p_pend_data_tbl,           /* -------- Validate objects to be OS_S
 100              		.loc 1 167 0
 101 0066 7B89     		ldrh	r3, [r7, #10]
 102 0068 F868     		ldr	r0, [r7, #12]
 103 006a 1946     		mov	r1, r3
 104 006c FFF7FEFF 		bl	OS_PendMultiValidate
 105 0070 0346     		mov	r3, r0
 106 0072 7B74     		strb	r3, [r7, #17]
 168:C:\Micrium\Software\uCOS-III\Source\os_pend_multi.c ****                                  tbl_size);
 169:C:\Micrium\Software\uCOS-III\Source\os_pend_multi.c ****     if (valid == DEF_FALSE) {
 107              		.loc 1 169 0
 108 0074 7B7C     		ldrb	r3, [r7, #17]	@ zero_extendqisi2
 109 0076 002B     		cmp	r3, #0
 110 0078 07D0     		beq	.L8
 111 007a 0DE0     		b	.L22
 112              	.L21:
ARM GAS  C:\Users\daniel01\AppData\Local\Temp\ccW97xDN.s 			page 6


 113              		.loc 1 162 0
 114 007c 3B6A     		ldr	r3, [r7, #32]
 115 007e 45F62562 		movw	r2, #24101
 116 0082 1A80     		strh	r2, [r3, #0]	@ movhi
 117              		.loc 1 163 0
 118 0084 4FF00003 		mov	r3, #0
 119 0088 86E0     		b	.L3
 120              	.L8:
 170:C:\Micrium\Software\uCOS-III\Source\os_pend_multi.c ****        *p_err = OS_ERR_OBJ_TYPE;                            /* Invalid, not OS_SEM or OS_Q         
 121              		.loc 1 170 0
 122 008a 3B6A     		ldr	r3, [r7, #32]
 123 008c 45F6C452 		movw	r2, #24004
 124 0090 1A80     		strh	r2, [r3, #0]	@ movhi
 171:C:\Micrium\Software\uCOS-III\Source\os_pend_multi.c ****         return ((OS_OBJ_QTY)0);
 125              		.loc 1 171 0
 126 0092 4FF00003 		mov	r3, #0
 127 0096 7FE0     		b	.L3
 128              	.L22:
 172:C:\Micrium\Software\uCOS-III\Source\os_pend_multi.c ****     }
 173:C:\Micrium\Software\uCOS-III\Source\os_pend_multi.c **** 
 174:C:\Micrium\Software\uCOS-III\Source\os_pend_multi.c **** /*$PAGE*/
 175:C:\Micrium\Software\uCOS-III\Source\os_pend_multi.c ****     CPU_CRITICAL_ENTER();
 129              		.loc 1 175 0
 130 0098 FFF7FEFF 		bl	CPU_SR_Save
 131 009c 0346     		mov	r3, r0
 132 009e 7B61     		str	r3, [r7, #20]
 176:C:\Micrium\Software\uCOS-III\Source\os_pend_multi.c ****     nbr_obj_rdy = OS_PendMultiGetRdy(p_pend_data_tbl,       /* --------- SEE IF OBJECT(s) HAVE BEEN
 133              		.loc 1 176 0
 134 00a0 7B89     		ldrh	r3, [r7, #10]
 135 00a2 F868     		ldr	r0, [r7, #12]
 136 00a4 1946     		mov	r1, r3
 137 00a6 FFF7FEFF 		bl	OS_PendMultiGetRdy
 138 00aa 0346     		mov	r3, r0
 139 00ac 7B82     		strh	r3, [r7, #18]	@ movhi
 177:C:\Micrium\Software\uCOS-III\Source\os_pend_multi.c ****                                      tbl_size);
 178:C:\Micrium\Software\uCOS-III\Source\os_pend_multi.c ****     if (nbr_obj_rdy > (OS_OBJ_QTY)0) {
 140              		.loc 1 178 0
 141 00ae 7B8A     		ldrh	r3, [r7, #18]
 142 00b0 002B     		cmp	r3, #0
 143 00b2 08D0     		beq	.L10
 179:C:\Micrium\Software\uCOS-III\Source\os_pend_multi.c ****         CPU_CRITICAL_EXIT();
 144              		.loc 1 179 0
 145 00b4 7869     		ldr	r0, [r7, #20]
 146 00b6 FFF7FEFF 		bl	CPU_SR_Restore
 180:C:\Micrium\Software\uCOS-III\Source\os_pend_multi.c ****        *p_err = OS_ERR_NONE;
 147              		.loc 1 180 0
 148 00ba 3B6A     		ldr	r3, [r7, #32]
 149 00bc 4FF00002 		mov	r2, #0
 150 00c0 1A80     		strh	r2, [r3, #0]	@ movhi
 181:C:\Micrium\Software\uCOS-III\Source\os_pend_multi.c ****         return ((OS_OBJ_QTY)nbr_obj_rdy);
 151              		.loc 1 181 0
 152 00c2 7B8A     		ldrh	r3, [r7, #18]
 153 00c4 68E0     		b	.L3
 154              	.L10:
 182:C:\Micrium\Software\uCOS-III\Source\os_pend_multi.c ****     }
 183:C:\Micrium\Software\uCOS-III\Source\os_pend_multi.c **** 
 184:C:\Micrium\Software\uCOS-III\Source\os_pend_multi.c ****     if ((opt & OS_OPT_PEND_NON_BLOCKING) != (OS_OPT)0) {    /* Caller wants to block if not availab
ARM GAS  C:\Users\daniel01\AppData\Local\Temp\ccW97xDN.s 			page 7


 155              		.loc 1 184 0
 156 00c6 7B88     		ldrh	r3, [r7, #2]
 157 00c8 1BB2     		sxth	r3, r3
 158 00ca 002B     		cmp	r3, #0
 159 00cc 09DA     		bge	.L11
 185:C:\Micrium\Software\uCOS-III\Source\os_pend_multi.c ****         CPU_CRITICAL_EXIT();
 160              		.loc 1 185 0
 161 00ce 7869     		ldr	r0, [r7, #20]
 162 00d0 FFF7FEFF 		bl	CPU_SR_Restore
 186:C:\Micrium\Software\uCOS-III\Source\os_pend_multi.c ****        *p_err = OS_ERR_PEND_WOULD_BLOCK;                    /* No                                  
 163              		.loc 1 186 0
 164 00d4 3B6A     		ldr	r3, [r7, #32]
 165 00d6 46F2B012 		movw	r2, #25008
 166 00da 1A80     		strh	r2, [r3, #0]	@ movhi
 187:C:\Micrium\Software\uCOS-III\Source\os_pend_multi.c ****         return ((OS_OBJ_QTY)0);
 167              		.loc 1 187 0
 168 00dc 4FF00003 		mov	r3, #0
 169 00e0 5AE0     		b	.L3
 170              	.L11:
 188:C:\Micrium\Software\uCOS-III\Source\os_pend_multi.c ****     } else {
 189:C:\Micrium\Software\uCOS-III\Source\os_pend_multi.c ****         if (OSSchedLockNestingCtr > (OS_NESTING_CTR)0) {    /* Can't pend when the scheduler is loc
 171              		.loc 1 189 0
 172 00e2 40F20003 		movw	r3, #:lower16:OSSchedLockNestingCtr
 173 00e6 C0F20003 		movt	r3, #:upper16:OSSchedLockNestingCtr
 174 00ea 1B78     		ldrb	r3, [r3, #0]	@ zero_extendqisi2
 175 00ec 002B     		cmp	r3, #0
 176 00ee 09D0     		beq	.L12
 190:C:\Micrium\Software\uCOS-III\Source\os_pend_multi.c ****             CPU_CRITICAL_EXIT();
 177              		.loc 1 190 0
 178 00f0 7869     		ldr	r0, [r7, #20]
 179 00f2 FFF7FEFF 		bl	CPU_SR_Restore
 191:C:\Micrium\Software\uCOS-III\Source\os_pend_multi.c ****            *p_err = OS_ERR_SCHED_LOCKED;
 180              		.loc 1 191 0
 181 00f6 3B6A     		ldr	r3, [r7, #32]
 182 00f8 46F66352 		movw	r2, #28003
 183 00fc 1A80     		strh	r2, [r3, #0]	@ movhi
 192:C:\Micrium\Software\uCOS-III\Source\os_pend_multi.c ****             return ((OS_OBJ_QTY)0);
 184              		.loc 1 192 0
 185 00fe 4FF00003 		mov	r3, #0
 186 0102 49E0     		b	.L3
 187              	.L12:
 193:C:\Micrium\Software\uCOS-III\Source\os_pend_multi.c ****         }
 194:C:\Micrium\Software\uCOS-III\Source\os_pend_multi.c ****     }
 195:C:\Micrium\Software\uCOS-III\Source\os_pend_multi.c ****                                                             /* Lock the scheduler/re-enable interru
 196:C:\Micrium\Software\uCOS-III\Source\os_pend_multi.c ****     OS_CRITICAL_ENTER_CPU_EXIT();
 197:C:\Micrium\Software\uCOS-III\Source\os_pend_multi.c ****                                                             /* ------ NO OBJECT READY, PEND ON MULT
 198:C:\Micrium\Software\uCOS-III\Source\os_pend_multi.c ****     OS_PendMultiWait(p_pend_data_tbl,                       /* Suspend task until object posted or 
 188              		.loc 1 198 0
 189 0104 7B89     		ldrh	r3, [r7, #10]
 190 0106 F868     		ldr	r0, [r7, #12]
 191 0108 1946     		mov	r1, r3
 192 010a 7A68     		ldr	r2, [r7, #4]
 193 010c FFF7FEFF 		bl	OS_PendMultiWait
 199:C:\Micrium\Software\uCOS-III\Source\os_pend_multi.c ****                      tbl_size,
 200:C:\Micrium\Software\uCOS-III\Source\os_pend_multi.c ****                      timeout);
 201:C:\Micrium\Software\uCOS-III\Source\os_pend_multi.c **** 
 202:C:\Micrium\Software\uCOS-III\Source\os_pend_multi.c ****     OS_CRITICAL_EXIT_NO_SCHED();
ARM GAS  C:\Users\daniel01\AppData\Local\Temp\ccW97xDN.s 			page 8


 194              		.loc 1 202 0
 195 0110 7869     		ldr	r0, [r7, #20]
 196 0112 FFF7FEFF 		bl	CPU_SR_Restore
 203:C:\Micrium\Software\uCOS-III\Source\os_pend_multi.c **** 
 204:C:\Micrium\Software\uCOS-III\Source\os_pend_multi.c ****     OSSched();                                              /* Find next highest priority task read
 197              		.loc 1 204 0
 198 0116 FFF7FEFF 		bl	OSSched
 205:C:\Micrium\Software\uCOS-III\Source\os_pend_multi.c **** 
 206:C:\Micrium\Software\uCOS-III\Source\os_pend_multi.c ****     CPU_CRITICAL_ENTER();
 199              		.loc 1 206 0
 200 011a FFF7FEFF 		bl	CPU_SR_Save
 201 011e 0346     		mov	r3, r0
 202 0120 7B61     		str	r3, [r7, #20]
 207:C:\Micrium\Software\uCOS-III\Source\os_pend_multi.c ****     switch (OSTCBCurPtr->PendStatus) {
 203              		.loc 1 207 0
 204 0122 40F20003 		movw	r3, #:lower16:OSTCBCurPtr
 205 0126 C0F20003 		movt	r3, #:upper16:OSTCBCurPtr
 206 012a 1B68     		ldr	r3, [r3, #0]
 207 012c 93F83530 		ldrb	r3, [r3, #53]	@ zero_extendqisi2
 208 0130 032B     		cmp	r3, #3
 209 0132 1FD8     		bhi	.L13
 210 0134 01A2     		adr	r2, .L18
 211 0136 52F823F0 		ldr	pc, [r2, r3, lsl #2]
 212 013a 00BF     		.align	2
 213              	.L18:
 214 013c 4D010000 		.word	.L14+1
 215 0140 57010000 		.word	.L15+1
 216 0144 6B010000 		.word	.L16+1
 217 0148 61010000 		.word	.L17+1
 218              	.L14:
 208:C:\Micrium\Software\uCOS-III\Source\os_pend_multi.c ****         case OS_STATUS_PEND_OK:                             /* We got one of the objects posted to 
 209:C:\Micrium\Software\uCOS-III\Source\os_pend_multi.c ****             *p_err = OS_ERR_NONE;
 219              		.loc 1 209 0
 220 014c 3B6A     		ldr	r3, [r7, #32]
 221 014e 4FF00002 		mov	r2, #0
 222 0152 1A80     		strh	r2, [r3, #0]	@ movhi
 210:C:\Micrium\Software\uCOS-III\Source\os_pend_multi.c ****              break;
 223              		.loc 1 210 0
 224 0154 12E0     		b	.L19
 225              	.L15:
 211:C:\Micrium\Software\uCOS-III\Source\os_pend_multi.c **** 
 212:C:\Micrium\Software\uCOS-III\Source\os_pend_multi.c ****         case OS_STATUS_PEND_ABORT:                          /* Indicate that the multi-pend was abo
 213:C:\Micrium\Software\uCOS-III\Source\os_pend_multi.c ****             *p_err = OS_ERR_PEND_ABORT;
 226              		.loc 1 213 0
 227 0156 3B6A     		ldr	r3, [r7, #32]
 228 0158 46F2A912 		movw	r2, #25001
 229 015c 1A80     		strh	r2, [r3, #0]	@ movhi
 214:C:\Micrium\Software\uCOS-III\Source\os_pend_multi.c ****              break;
 230              		.loc 1 214 0
 231 015e 0DE0     		b	.L19
 232              	.L17:
 215:C:\Micrium\Software\uCOS-III\Source\os_pend_multi.c **** 
 216:C:\Micrium\Software\uCOS-III\Source\os_pend_multi.c ****         case OS_STATUS_PEND_TIMEOUT:                        /* Indicate that we didn't get semaphor
 217:C:\Micrium\Software\uCOS-III\Source\os_pend_multi.c ****             *p_err = OS_ERR_TIMEOUT;
 233              		.loc 1 217 0
 234 0160 3B6A     		ldr	r3, [r7, #32]
 235 0162 47F2D922 		movw	r2, #29401
ARM GAS  C:\Users\daniel01\AppData\Local\Temp\ccW97xDN.s 			page 9


 236 0166 1A80     		strh	r2, [r3, #0]	@ movhi
 218:C:\Micrium\Software\uCOS-III\Source\os_pend_multi.c ****              break;
 237              		.loc 1 218 0
 238 0168 08E0     		b	.L19
 239              	.L16:
 219:C:\Micrium\Software\uCOS-III\Source\os_pend_multi.c **** 
 220:C:\Micrium\Software\uCOS-III\Source\os_pend_multi.c ****         case OS_STATUS_PEND_DEL:                            /* Indicate that an object pended on ha
 221:C:\Micrium\Software\uCOS-III\Source\os_pend_multi.c ****             *p_err = OS_ERR_OBJ_DEL;
 240              		.loc 1 221 0
 241 016a 3B6A     		ldr	r3, [r7, #32]
 242 016c 45F6C252 		movw	r2, #24002
 243 0170 1A80     		strh	r2, [r3, #0]	@ movhi
 222:C:\Micrium\Software\uCOS-III\Source\os_pend_multi.c ****             break;
 244              		.loc 1 222 0
 245 0172 03E0     		b	.L19
 246              	.L13:
 223:C:\Micrium\Software\uCOS-III\Source\os_pend_multi.c **** 
 224:C:\Micrium\Software\uCOS-III\Source\os_pend_multi.c ****         default:
 225:C:\Micrium\Software\uCOS-III\Source\os_pend_multi.c ****             *p_err = OS_ERR_STATUS_INVALID;
 247              		.loc 1 225 0
 248 0174 3B6A     		ldr	r3, [r7, #32]
 249 0176 46F62E62 		movw	r2, #28206
 250 017a 1A80     		strh	r2, [r3, #0]	@ movhi
 251              	.L19:
 226:C:\Micrium\Software\uCOS-III\Source\os_pend_multi.c ****              break;
 227:C:\Micrium\Software\uCOS-III\Source\os_pend_multi.c ****     }
 228:C:\Micrium\Software\uCOS-III\Source\os_pend_multi.c **** 
 229:C:\Micrium\Software\uCOS-III\Source\os_pend_multi.c ****     OSTCBCurPtr->PendStatus = OS_STATUS_PEND_OK;
 252              		.loc 1 229 0
 253 017c 40F20003 		movw	r3, #:lower16:OSTCBCurPtr
 254 0180 C0F20003 		movt	r3, #:upper16:OSTCBCurPtr
 255 0184 1B68     		ldr	r3, [r3, #0]
 256 0186 4FF00002 		mov	r2, #0
 257 018a 83F83520 		strb	r2, [r3, #53]
 230:C:\Micrium\Software\uCOS-III\Source\os_pend_multi.c ****     CPU_CRITICAL_EXIT();
 258              		.loc 1 230 0
 259 018e 7869     		ldr	r0, [r7, #20]
 260 0190 FFF7FEFF 		bl	CPU_SR_Restore
 231:C:\Micrium\Software\uCOS-III\Source\os_pend_multi.c **** 
 232:C:\Micrium\Software\uCOS-III\Source\os_pend_multi.c ****     return ((OS_OBJ_QTY)1);
 261              		.loc 1 232 0
 262 0194 4FF00103 		mov	r3, #1
 263              	.L3:
 233:C:\Micrium\Software\uCOS-III\Source\os_pend_multi.c **** }
 264              		.loc 1 233 0
 265 0198 1846     		mov	r0, r3
 266 019a 07F11807 		add	r7, r7, #24
 267 019e BD46     		mov	sp, r7
 268 01a0 80BD     		pop	{r7, pc}
 269              		.cfi_endproc
 270              	.LFE0:
 271              		.size	OSPendMulti, .-OSPendMulti
 272 01a2 00BF     		.section	.text.OS_PendMultiGetRdy,"ax",%progbits
 273              		.align	2
 274              		.global	OS_PendMultiGetRdy
 275              		.thumb
 276              		.thumb_func
ARM GAS  C:\Users\daniel01\AppData\Local\Temp\ccW97xDN.s 			page 10


 277              		.type	OS_PendMultiGetRdy, %function
 278              	OS_PendMultiGetRdy:
 279              	.LFB1:
 234:C:\Micrium\Software\uCOS-III\Source\os_pend_multi.c **** 
 235:C:\Micrium\Software\uCOS-III\Source\os_pend_multi.c **** /*$PAGE*/
 236:C:\Micrium\Software\uCOS-III\Source\os_pend_multi.c **** /*
 237:C:\Micrium\Software\uCOS-III\Source\os_pend_multi.c **** ***************************************************************************************************
 238:C:\Micrium\Software\uCOS-III\Source\os_pend_multi.c **** *                                              GET A LIST OF OBJECTS READY
 239:C:\Micrium\Software\uCOS-III\Source\os_pend_multi.c **** *
 240:C:\Micrium\Software\uCOS-III\Source\os_pend_multi.c **** * Description: This function is called by OSPendMulti() to obtain the list of object that are ready
 241:C:\Micrium\Software\uCOS-III\Source\os_pend_multi.c **** *
 242:C:\Micrium\Software\uCOS-III\Source\os_pend_multi.c **** * Arguments  : p_pend_data_tbl   is a pointer to an array of OS_PEND_DATA
 243:C:\Micrium\Software\uCOS-III\Source\os_pend_multi.c **** *              ---------------
 244:C:\Micrium\Software\uCOS-III\Source\os_pend_multi.c **** *
 245:C:\Micrium\Software\uCOS-III\Source\os_pend_multi.c **** *              tbl_size          is the size of the array
 246:C:\Micrium\Software\uCOS-III\Source\os_pend_multi.c **** *
 247:C:\Micrium\Software\uCOS-III\Source\os_pend_multi.c **** * Returns    :  > 0              the number of objects ready
 248:C:\Micrium\Software\uCOS-III\Source\os_pend_multi.c **** *              == 0              if no object ready
 249:C:\Micrium\Software\uCOS-III\Source\os_pend_multi.c **** *
 250:C:\Micrium\Software\uCOS-III\Source\os_pend_multi.c **** * Note       : This function is INTERNAL to uC/OS-III and your application should not call it.
 251:C:\Micrium\Software\uCOS-III\Source\os_pend_multi.c **** ***************************************************************************************************
 252:C:\Micrium\Software\uCOS-III\Source\os_pend_multi.c **** */
 253:C:\Micrium\Software\uCOS-III\Source\os_pend_multi.c **** 
 254:C:\Micrium\Software\uCOS-III\Source\os_pend_multi.c **** OS_OBJ_QTY  OS_PendMultiGetRdy (OS_PEND_DATA  *p_pend_data_tbl,
 255:C:\Micrium\Software\uCOS-III\Source\os_pend_multi.c ****                                 OS_OBJ_QTY     tbl_size)
 256:C:\Micrium\Software\uCOS-III\Source\os_pend_multi.c **** {
 280              		.loc 1 256 0
 281              		.cfi_startproc
 282              		@ args = 0, pretend = 0, frame = 32
 283              		@ frame_needed = 1, uses_anonymous_args = 0
 284 0000 80B5     		push	{r7, lr}
 285              	.LCFI3:
 286              		.cfi_def_cfa_offset 8
 287 0002 88B0     		sub	sp, sp, #32
 288              	.LCFI4:
 289              		.cfi_def_cfa_offset 40
 290 0004 00AF     		add	r7, sp, #0
 291              		.cfi_offset 14, -4
 292              		.cfi_offset 7, -8
 293              	.LCFI5:
 294              		.cfi_def_cfa_register 7
 295 0006 7860     		str	r0, [r7, #4]
 296 0008 0B46     		mov	r3, r1
 297 000a 7B80     		strh	r3, [r7, #2]	@ movhi
 257:C:\Micrium\Software\uCOS-III\Source\os_pend_multi.c ****     OS_OBJ_QTY   i;
 258:C:\Micrium\Software\uCOS-III\Source\os_pend_multi.c ****     OS_OBJ_QTY   nbr_obj_rdy;
 259:C:\Micrium\Software\uCOS-III\Source\os_pend_multi.c **** #if OS_CFG_Q_EN > 0u
 260:C:\Micrium\Software\uCOS-III\Source\os_pend_multi.c ****     OS_ERR       err;
 261:C:\Micrium\Software\uCOS-III\Source\os_pend_multi.c ****     OS_MSG_SIZE  msg_size;
 262:C:\Micrium\Software\uCOS-III\Source\os_pend_multi.c ****     OS_Q        *p_q;
 263:C:\Micrium\Software\uCOS-III\Source\os_pend_multi.c ****     void        *p_void;
 264:C:\Micrium\Software\uCOS-III\Source\os_pend_multi.c ****     CPU_TS       ts;
 265:C:\Micrium\Software\uCOS-III\Source\os_pend_multi.c **** #endif
 266:C:\Micrium\Software\uCOS-III\Source\os_pend_multi.c **** #if OS_CFG_SEM_EN  > 0u
 267:C:\Micrium\Software\uCOS-III\Source\os_pend_multi.c ****     OS_SEM      *p_sem;
 268:C:\Micrium\Software\uCOS-III\Source\os_pend_multi.c **** #endif
 269:C:\Micrium\Software\uCOS-III\Source\os_pend_multi.c **** 
ARM GAS  C:\Users\daniel01\AppData\Local\Temp\ccW97xDN.s 			page 11


 270:C:\Micrium\Software\uCOS-III\Source\os_pend_multi.c **** 
 271:C:\Micrium\Software\uCOS-III\Source\os_pend_multi.c **** 
 272:C:\Micrium\Software\uCOS-III\Source\os_pend_multi.c ****     nbr_obj_rdy = (OS_OBJ_QTY)0;
 298              		.loc 1 272 0
 299 000c 4FF00003 		mov	r3, #0
 300 0010 7B82     		strh	r3, [r7, #18]	@ movhi
 273:C:\Micrium\Software\uCOS-III\Source\os_pend_multi.c ****     for (i = 0u; i < tbl_size; i++) {
 301              		.loc 1 273 0
 302 0012 4FF00003 		mov	r3, #0
 303 0016 3B82     		strh	r3, [r7, #16]	@ movhi
 304 0018 70E0     		b	.L24
 305              	.L27:
 274:C:\Micrium\Software\uCOS-III\Source\os_pend_multi.c ****         p_pend_data_tbl->RdyObjPtr  = (OS_PEND_OBJ  *)0;         /* Clear all fields               
 306              		.loc 1 274 0
 307 001a 7B68     		ldr	r3, [r7, #4]
 308 001c 4FF00002 		mov	r2, #0
 309 0020 1A61     		str	r2, [r3, #16]
 275:C:\Micrium\Software\uCOS-III\Source\os_pend_multi.c ****         p_pend_data_tbl->RdyMsgPtr  = (void         *)0;
 310              		.loc 1 275 0
 311 0022 7B68     		ldr	r3, [r7, #4]
 312 0024 4FF00002 		mov	r2, #0
 313 0028 5A61     		str	r2, [r3, #20]
 276:C:\Micrium\Software\uCOS-III\Source\os_pend_multi.c ****         p_pend_data_tbl->RdyMsgSize = (OS_MSG_SIZE   )0;
 314              		.loc 1 276 0
 315 002a 7B68     		ldr	r3, [r7, #4]
 316 002c 4FF00002 		mov	r2, #0
 317 0030 1A83     		strh	r2, [r3, #24]	@ movhi
 277:C:\Micrium\Software\uCOS-III\Source\os_pend_multi.c ****         p_pend_data_tbl->RdyTS      = (CPU_TS        )0;
 318              		.loc 1 277 0
 319 0032 7B68     		ldr	r3, [r7, #4]
 320 0034 4FF00002 		mov	r2, #0
 321 0038 DA61     		str	r2, [r3, #28]
 278:C:\Micrium\Software\uCOS-III\Source\os_pend_multi.c ****         p_pend_data_tbl->NextPtr    = (OS_PEND_DATA *)0;
 322              		.loc 1 278 0
 323 003a 7B68     		ldr	r3, [r7, #4]
 324 003c 4FF00002 		mov	r2, #0
 325 0040 5A60     		str	r2, [r3, #4]
 279:C:\Micrium\Software\uCOS-III\Source\os_pend_multi.c ****         p_pend_data_tbl->PrevPtr    = (OS_PEND_DATA *)0;
 326              		.loc 1 279 0
 327 0042 7B68     		ldr	r3, [r7, #4]
 328 0044 4FF00002 		mov	r2, #0
 329 0048 1A60     		str	r2, [r3, #0]
 280:C:\Micrium\Software\uCOS-III\Source\os_pend_multi.c ****         p_pend_data_tbl->TCBPtr     = (OS_TCB       *)0;
 330              		.loc 1 280 0
 331 004a 7B68     		ldr	r3, [r7, #4]
 332 004c 4FF00002 		mov	r2, #0
 333 0050 9A60     		str	r2, [r3, #8]
 281:C:\Micrium\Software\uCOS-III\Source\os_pend_multi.c **** #if OS_CFG_Q_EN > 0u
 282:C:\Micrium\Software\uCOS-III\Source\os_pend_multi.c ****         p_q = (OS_Q *)((void *)p_pend_data_tbl->PendObjPtr);     /* Assume we are pointing to a mes
 334              		.loc 1 282 0
 335 0052 7B68     		ldr	r3, [r7, #4]
 336 0054 DB68     		ldr	r3, [r3, #12]
 337 0056 7B61     		str	r3, [r7, #20]
 283:C:\Micrium\Software\uCOS-III\Source\os_pend_multi.c ****         if (p_q->Type == OS_OBJ_TYPE_Q) {                        /* Is it a message queue?         
 338              		.loc 1 283 0
 339 0058 7B69     		ldr	r3, [r7, #20]
 340 005a 1A68     		ldr	r2, [r3, #0]
ARM GAS  C:\Users\daniel01\AppData\Local\Temp\ccW97xDN.s 			page 12


 341 005c 45F25153 		movw	r3, #:lower16:1430607185
 342 0060 C5F24553 		movt	r3, #:upper16:1430607185
 343 0064 9A42     		cmp	r2, r3
 344 0066 20D1     		bne	.L25
 284:C:\Micrium\Software\uCOS-III\Source\os_pend_multi.c ****             p_void = OS_MsgQGet(&p_q->MsgQ,                      /* Yes, Any message waiting in the
 345              		.loc 1 284 0
 346 0068 7B69     		ldr	r3, [r7, #20]
 347 006a 03F12000 		add	r0, r3, #32
 348 006e 07F10C01 		add	r1, r7, #12
 349 0072 07F10802 		add	r2, r7, #8
 350 0076 07F10E03 		add	r3, r7, #14
 351 007a FFF7FEFF 		bl	OS_MsgQGet
 352 007e 0346     		mov	r3, r0
 353 0080 BB61     		str	r3, [r7, #24]
 285:C:\Micrium\Software\uCOS-III\Source\os_pend_multi.c ****                                 &msg_size,
 286:C:\Micrium\Software\uCOS-III\Source\os_pend_multi.c ****                                 &ts,
 287:C:\Micrium\Software\uCOS-III\Source\os_pend_multi.c ****                                 &err);
 288:C:\Micrium\Software\uCOS-III\Source\os_pend_multi.c ****             if (err == OS_ERR_NONE) {
 354              		.loc 1 288 0
 355 0082 FB89     		ldrh	r3, [r7, #14]
 356 0084 002B     		cmp	r3, #0
 357 0086 10D1     		bne	.L25
 289:C:\Micrium\Software\uCOS-III\Source\os_pend_multi.c ****                 p_pend_data_tbl->RdyObjPtr  = p_pend_data_tbl->PendObjPtr;
 358              		.loc 1 289 0
 359 0088 7B68     		ldr	r3, [r7, #4]
 360 008a DA68     		ldr	r2, [r3, #12]
 361 008c 7B68     		ldr	r3, [r7, #4]
 362 008e 1A61     		str	r2, [r3, #16]
 290:C:\Micrium\Software\uCOS-III\Source\os_pend_multi.c ****                 p_pend_data_tbl->RdyMsgPtr  = p_void;            /*      Yes, save the message rece
 363              		.loc 1 290 0
 364 0090 7B68     		ldr	r3, [r7, #4]
 365 0092 BA69     		ldr	r2, [r7, #24]
 366 0094 5A61     		str	r2, [r3, #20]
 291:C:\Micrium\Software\uCOS-III\Source\os_pend_multi.c ****                 p_pend_data_tbl->RdyMsgSize = msg_size;
 367              		.loc 1 291 0
 368 0096 BA89     		ldrh	r2, [r7, #12]
 369 0098 7B68     		ldr	r3, [r7, #4]
 370 009a 1A83     		strh	r2, [r3, #24]	@ movhi
 292:C:\Micrium\Software\uCOS-III\Source\os_pend_multi.c ****                 p_pend_data_tbl->RdyTS      = ts;
 371              		.loc 1 292 0
 372 009c BA68     		ldr	r2, [r7, #8]
 373 009e 7B68     		ldr	r3, [r7, #4]
 374 00a0 DA61     		str	r2, [r3, #28]
 293:C:\Micrium\Software\uCOS-III\Source\os_pend_multi.c ****                 nbr_obj_rdy++;
 375              		.loc 1 293 0
 376 00a2 7B8A     		ldrh	r3, [r7, #18]	@ movhi
 377 00a4 03F10103 		add	r3, r3, #1
 378 00a8 7B82     		strh	r3, [r7, #18]	@ movhi
 379              	.L25:
 294:C:\Micrium\Software\uCOS-III\Source\os_pend_multi.c ****             }
 295:C:\Micrium\Software\uCOS-III\Source\os_pend_multi.c ****         }
 296:C:\Micrium\Software\uCOS-III\Source\os_pend_multi.c **** #endif
 297:C:\Micrium\Software\uCOS-III\Source\os_pend_multi.c **** 
 298:C:\Micrium\Software\uCOS-III\Source\os_pend_multi.c **** #if OS_CFG_SEM_EN > 0u
 299:C:\Micrium\Software\uCOS-III\Source\os_pend_multi.c ****         p_sem = (OS_SEM *)((void *)p_pend_data_tbl->PendObjPtr); /* Assume we are pointing to a sem
 380              		.loc 1 299 0
 381 00aa 7B68     		ldr	r3, [r7, #4]
ARM GAS  C:\Users\daniel01\AppData\Local\Temp\ccW97xDN.s 			page 13


 382 00ac DB68     		ldr	r3, [r3, #12]
 383 00ae FB61     		str	r3, [r7, #28]
 300:C:\Micrium\Software\uCOS-III\Source\os_pend_multi.c ****         if (p_sem->Type == OS_OBJ_TYPE_SEM) {                    /* Is it a semaphore?             
 384              		.loc 1 300 0
 385 00b0 FB69     		ldr	r3, [r7, #28]
 386 00b2 1A68     		ldr	r2, [r3, #0]
 387 00b4 44F25353 		movw	r3, #:lower16:1095583059
 388 00b8 C4F24D13 		movt	r3, #:upper16:1095583059
 389 00bc 9A42     		cmp	r2, r3
 390 00be 15D1     		bne	.L26
 301:C:\Micrium\Software\uCOS-III\Source\os_pend_multi.c ****             if (p_sem->Ctr > 0u) {                               /* Yes, Semaphore has been signale
 391              		.loc 1 301 0
 392 00c0 FB69     		ldr	r3, [r7, #28]
 393 00c2 1B6A     		ldr	r3, [r3, #32]
 394 00c4 002B     		cmp	r3, #0
 395 00c6 11D0     		beq	.L26
 302:C:\Micrium\Software\uCOS-III\Source\os_pend_multi.c ****                 p_sem->Ctr--;                                    /*      Yes, caller may proceed   
 396              		.loc 1 302 0
 397 00c8 FB69     		ldr	r3, [r7, #28]
 398 00ca 1B6A     		ldr	r3, [r3, #32]
 399 00cc 03F1FF32 		add	r2, r3, #-1
 400 00d0 FB69     		ldr	r3, [r7, #28]
 401 00d2 1A62     		str	r2, [r3, #32]
 303:C:\Micrium\Software\uCOS-III\Source\os_pend_multi.c ****                 p_pend_data_tbl->RdyObjPtr  = p_pend_data_tbl->PendObjPtr;
 402              		.loc 1 303 0
 403 00d4 7B68     		ldr	r3, [r7, #4]
 404 00d6 DA68     		ldr	r2, [r3, #12]
 405 00d8 7B68     		ldr	r3, [r7, #4]
 406 00da 1A61     		str	r2, [r3, #16]
 304:C:\Micrium\Software\uCOS-III\Source\os_pend_multi.c ****                 p_pend_data_tbl->RdyTS      = p_sem->TS;
 407              		.loc 1 304 0
 408 00dc FB69     		ldr	r3, [r7, #28]
 409 00de 5A6A     		ldr	r2, [r3, #36]
 410 00e0 7B68     		ldr	r3, [r7, #4]
 411 00e2 DA61     		str	r2, [r3, #28]
 305:C:\Micrium\Software\uCOS-III\Source\os_pend_multi.c ****                 nbr_obj_rdy++;
 412              		.loc 1 305 0
 413 00e4 7B8A     		ldrh	r3, [r7, #18]	@ movhi
 414 00e6 03F10103 		add	r3, r3, #1
 415 00ea 7B82     		strh	r3, [r7, #18]	@ movhi
 416              	.L26:
 306:C:\Micrium\Software\uCOS-III\Source\os_pend_multi.c ****             }
 307:C:\Micrium\Software\uCOS-III\Source\os_pend_multi.c ****         }
 308:C:\Micrium\Software\uCOS-III\Source\os_pend_multi.c **** #endif
 309:C:\Micrium\Software\uCOS-III\Source\os_pend_multi.c **** 
 310:C:\Micrium\Software\uCOS-III\Source\os_pend_multi.c ****         p_pend_data_tbl++;
 417              		.loc 1 310 0
 418 00ec 7B68     		ldr	r3, [r7, #4]
 419 00ee 03F12003 		add	r3, r3, #32
 420 00f2 7B60     		str	r3, [r7, #4]
 421              		.loc 1 273 0
 422 00f4 3B8A     		ldrh	r3, [r7, #16]	@ movhi
 423 00f6 03F10103 		add	r3, r3, #1
 424 00fa 3B82     		strh	r3, [r7, #16]	@ movhi
 425              	.L24:
 426 00fc 3A8A     		ldrh	r2, [r7, #16]
 427 00fe 7B88     		ldrh	r3, [r7, #2]
ARM GAS  C:\Users\daniel01\AppData\Local\Temp\ccW97xDN.s 			page 14


 428 0100 9A42     		cmp	r2, r3
 429 0102 8AD3     		bcc	.L27
 311:C:\Micrium\Software\uCOS-III\Source\os_pend_multi.c ****     }
 312:C:\Micrium\Software\uCOS-III\Source\os_pend_multi.c ****     return (nbr_obj_rdy);
 430              		.loc 1 312 0
 431 0104 7B8A     		ldrh	r3, [r7, #18]
 313:C:\Micrium\Software\uCOS-III\Source\os_pend_multi.c **** }
 432              		.loc 1 313 0
 433 0106 1846     		mov	r0, r3
 434 0108 07F12007 		add	r7, r7, #32
 435 010c BD46     		mov	sp, r7
 436 010e 80BD     		pop	{r7, pc}
 437              		.cfi_endproc
 438              	.LFE1:
 439              		.size	OS_PendMultiGetRdy, .-OS_PendMultiGetRdy
 440              		.section	.text.OS_PendMultiValidate,"ax",%progbits
 441              		.align	2
 442              		.global	OS_PendMultiValidate
 443              		.thumb
 444              		.thumb_func
 445              		.type	OS_PendMultiValidate, %function
 446              	OS_PendMultiValidate:
 447              	.LFB2:
 314:C:\Micrium\Software\uCOS-III\Source\os_pend_multi.c **** 
 315:C:\Micrium\Software\uCOS-III\Source\os_pend_multi.c **** /*$PAGE*/
 316:C:\Micrium\Software\uCOS-III\Source\os_pend_multi.c **** /*
 317:C:\Micrium\Software\uCOS-III\Source\os_pend_multi.c **** ***************************************************************************************************
 318:C:\Micrium\Software\uCOS-III\Source\os_pend_multi.c **** *                                 VERIFY THAT OBJECTS PENDED ON ARE EITHER SEMAPHORES or QUEUES
 319:C:\Micrium\Software\uCOS-III\Source\os_pend_multi.c **** *
 320:C:\Micrium\Software\uCOS-III\Source\os_pend_multi.c **** * Description: This function is called by OSPendMulti() to verify that we are multi-pending on eith
 321:C:\Micrium\Software\uCOS-III\Source\os_pend_multi.c **** *              message queues.
 322:C:\Micrium\Software\uCOS-III\Source\os_pend_multi.c **** *
 323:C:\Micrium\Software\uCOS-III\Source\os_pend_multi.c **** * Arguments  : p_pend_data_tbl    is a pointer to an array of OS_PEND_DATA
 324:C:\Micrium\Software\uCOS-III\Source\os_pend_multi.c **** *              ---------------
 325:C:\Micrium\Software\uCOS-III\Source\os_pend_multi.c **** *
 326:C:\Micrium\Software\uCOS-III\Source\os_pend_multi.c **** *              tbl_size           is the size of the array
 327:C:\Micrium\Software\uCOS-III\Source\os_pend_multi.c **** *
 328:C:\Micrium\Software\uCOS-III\Source\os_pend_multi.c **** * Returns    : TRUE               if all objects pended on are either semaphores of queues
 329:C:\Micrium\Software\uCOS-III\Source\os_pend_multi.c **** *              FALSE              if at least one object is not a semaphore or queue.
 330:C:\Micrium\Software\uCOS-III\Source\os_pend_multi.c **** *
 331:C:\Micrium\Software\uCOS-III\Source\os_pend_multi.c **** * Note       : This function is INTERNAL to uC/OS-III and your application should not call it.
 332:C:\Micrium\Software\uCOS-III\Source\os_pend_multi.c **** ***************************************************************************************************
 333:C:\Micrium\Software\uCOS-III\Source\os_pend_multi.c **** */
 334:C:\Micrium\Software\uCOS-III\Source\os_pend_multi.c **** 
 335:C:\Micrium\Software\uCOS-III\Source\os_pend_multi.c **** CPU_BOOLEAN  OS_PendMultiValidate (OS_PEND_DATA  *p_pend_data_tbl,
 336:C:\Micrium\Software\uCOS-III\Source\os_pend_multi.c ****                                    OS_OBJ_QTY     tbl_size)
 337:C:\Micrium\Software\uCOS-III\Source\os_pend_multi.c **** {
 448              		.loc 1 337 0
 449              		.cfi_startproc
 450              		@ args = 0, pretend = 0, frame = 24
 451              		@ frame_needed = 1, uses_anonymous_args = 0
 452              		@ link register save eliminated.
 453 0000 80B4     		push	{r7}
 454              	.LCFI6:
 455              		.cfi_def_cfa_offset 4
 456 0002 87B0     		sub	sp, sp, #28
 457              	.LCFI7:
ARM GAS  C:\Users\daniel01\AppData\Local\Temp\ccW97xDN.s 			page 15


 458              		.cfi_def_cfa_offset 32
 459 0004 00AF     		add	r7, sp, #0
 460              		.cfi_offset 7, -4
 461              	.LCFI8:
 462              		.cfi_def_cfa_register 7
 463 0006 7860     		str	r0, [r7, #4]
 464 0008 0B46     		mov	r3, r1
 465 000a 7B80     		strh	r3, [r7, #2]	@ movhi
 338:C:\Micrium\Software\uCOS-III\Source\os_pend_multi.c ****     OS_OBJ_QTY  i;
 339:C:\Micrium\Software\uCOS-III\Source\os_pend_multi.c ****     OS_OBJ_QTY  ctr;
 340:C:\Micrium\Software\uCOS-III\Source\os_pend_multi.c **** #if OS_CFG_SEM_EN  > 0u
 341:C:\Micrium\Software\uCOS-III\Source\os_pend_multi.c ****     OS_SEM      *p_sem;
 342:C:\Micrium\Software\uCOS-III\Source\os_pend_multi.c **** #endif
 343:C:\Micrium\Software\uCOS-III\Source\os_pend_multi.c **** #if OS_CFG_Q_EN > 0u
 344:C:\Micrium\Software\uCOS-III\Source\os_pend_multi.c ****     OS_Q        *p_q;
 345:C:\Micrium\Software\uCOS-III\Source\os_pend_multi.c **** #endif
 346:C:\Micrium\Software\uCOS-III\Source\os_pend_multi.c **** 
 347:C:\Micrium\Software\uCOS-III\Source\os_pend_multi.c **** 
 348:C:\Micrium\Software\uCOS-III\Source\os_pend_multi.c ****     for (i = 0u; i < tbl_size; i++) {
 466              		.loc 1 348 0
 467 000c 4FF00003 		mov	r3, #0
 468 0010 BB81     		strh	r3, [r7, #12]	@ movhi
 469 0012 35E0     		b	.L30
 470              	.L36:
 349:C:\Micrium\Software\uCOS-III\Source\os_pend_multi.c ****         if (p_pend_data_tbl->PendObjPtr == (OS_PEND_OBJ *)0) {   /* All .PendObjPtr in the table MU
 471              		.loc 1 349 0
 472 0014 7B68     		ldr	r3, [r7, #4]
 473 0016 DB68     		ldr	r3, [r3, #12]
 474 0018 002B     		cmp	r3, #0
 475 001a 02D1     		bne	.L31
 350:C:\Micrium\Software\uCOS-III\Source\os_pend_multi.c ****             return (DEF_FALSE);
 476              		.loc 1 350 0
 477 001c 4FF00003 		mov	r3, #0
 478 0020 34E0     		b	.L32
 479              	.L31:
 351:C:\Micrium\Software\uCOS-III\Source\os_pend_multi.c ****         }
 352:C:\Micrium\Software\uCOS-III\Source\os_pend_multi.c **** 
 353:C:\Micrium\Software\uCOS-III\Source\os_pend_multi.c ****         ctr = 0u;
 480              		.loc 1 353 0
 481 0022 4FF00003 		mov	r3, #0
 482 0026 FB81     		strh	r3, [r7, #14]	@ movhi
 354:C:\Micrium\Software\uCOS-III\Source\os_pend_multi.c **** #if OS_CFG_SEM_EN  > 0u
 355:C:\Micrium\Software\uCOS-III\Source\os_pend_multi.c ****         p_sem = (OS_SEM *)((void *)p_pend_data_tbl->PendObjPtr); /* All objects to pend on must be 
 483              		.loc 1 355 0
 484 0028 7B68     		ldr	r3, [r7, #4]
 485 002a DB68     		ldr	r3, [r3, #12]
 486 002c 3B61     		str	r3, [r7, #16]
 356:C:\Micrium\Software\uCOS-III\Source\os_pend_multi.c ****         if (p_sem->Type == OS_OBJ_TYPE_SEM) {
 487              		.loc 1 356 0
 488 002e 3B69     		ldr	r3, [r7, #16]
 489 0030 1A68     		ldr	r2, [r3, #0]
 490 0032 44F25353 		movw	r3, #:lower16:1095583059
 491 0036 C4F24D13 		movt	r3, #:upper16:1095583059
 492 003a 9A42     		cmp	r2, r3
 493 003c 03D1     		bne	.L33
 357:C:\Micrium\Software\uCOS-III\Source\os_pend_multi.c ****             ctr++;
 494              		.loc 1 357 0
ARM GAS  C:\Users\daniel01\AppData\Local\Temp\ccW97xDN.s 			page 16


 495 003e FB89     		ldrh	r3, [r7, #14]	@ movhi
 496 0040 03F10103 		add	r3, r3, #1
 497 0044 FB81     		strh	r3, [r7, #14]	@ movhi
 498              	.L33:
 358:C:\Micrium\Software\uCOS-III\Source\os_pend_multi.c ****         }
 359:C:\Micrium\Software\uCOS-III\Source\os_pend_multi.c **** #endif
 360:C:\Micrium\Software\uCOS-III\Source\os_pend_multi.c **** 
 361:C:\Micrium\Software\uCOS-III\Source\os_pend_multi.c **** #if OS_CFG_Q_EN > 0u
 362:C:\Micrium\Software\uCOS-III\Source\os_pend_multi.c ****         p_q = (OS_Q *)((void *)p_pend_data_tbl->PendObjPtr);     /* ... or of type OS_Q            
 499              		.loc 1 362 0
 500 0046 7B68     		ldr	r3, [r7, #4]
 501 0048 DB68     		ldr	r3, [r3, #12]
 502 004a 7B61     		str	r3, [r7, #20]
 363:C:\Micrium\Software\uCOS-III\Source\os_pend_multi.c ****         if (p_q->Type == OS_OBJ_TYPE_Q) {
 503              		.loc 1 363 0
 504 004c 7B69     		ldr	r3, [r7, #20]
 505 004e 1A68     		ldr	r2, [r3, #0]
 506 0050 45F25153 		movw	r3, #:lower16:1430607185
 507 0054 C5F24553 		movt	r3, #:upper16:1430607185
 508 0058 9A42     		cmp	r2, r3
 509 005a 03D1     		bne	.L34
 364:C:\Micrium\Software\uCOS-III\Source\os_pend_multi.c ****             ctr++;
 510              		.loc 1 364 0
 511 005c FB89     		ldrh	r3, [r7, #14]	@ movhi
 512 005e 03F10103 		add	r3, r3, #1
 513 0062 FB81     		strh	r3, [r7, #14]	@ movhi
 514              	.L34:
 365:C:\Micrium\Software\uCOS-III\Source\os_pend_multi.c ****         }
 366:C:\Micrium\Software\uCOS-III\Source\os_pend_multi.c **** #endif
 367:C:\Micrium\Software\uCOS-III\Source\os_pend_multi.c **** 
 368:C:\Micrium\Software\uCOS-III\Source\os_pend_multi.c ****         if (ctr == (OS_OBJ_QTY)0) {
 515              		.loc 1 368 0
 516 0064 FB89     		ldrh	r3, [r7, #14]
 517 0066 002B     		cmp	r3, #0
 518 0068 02D1     		bne	.L35
 369:C:\Micrium\Software\uCOS-III\Source\os_pend_multi.c ****             return (DEF_FALSE);                                  /* Found at least one invalid obje
 519              		.loc 1 369 0
 520 006a 4FF00003 		mov	r3, #0
 521 006e 0DE0     		b	.L32
 522              	.L35:
 370:C:\Micrium\Software\uCOS-III\Source\os_pend_multi.c ****         }
 371:C:\Micrium\Software\uCOS-III\Source\os_pend_multi.c ****         p_pend_data_tbl++;
 523              		.loc 1 371 0
 524 0070 7B68     		ldr	r3, [r7, #4]
 525 0072 03F12003 		add	r3, r3, #32
 526 0076 7B60     		str	r3, [r7, #4]
 527              		.loc 1 348 0
 528 0078 BB89     		ldrh	r3, [r7, #12]	@ movhi
 529 007a 03F10103 		add	r3, r3, #1
 530 007e BB81     		strh	r3, [r7, #12]	@ movhi
 531              	.L30:
 532 0080 BA89     		ldrh	r2, [r7, #12]
 533 0082 7B88     		ldrh	r3, [r7, #2]
 534 0084 9A42     		cmp	r2, r3
 535 0086 C5D3     		bcc	.L36
 372:C:\Micrium\Software\uCOS-III\Source\os_pend_multi.c ****     }
 373:C:\Micrium\Software\uCOS-III\Source\os_pend_multi.c ****     return (DEF_TRUE);
ARM GAS  C:\Users\daniel01\AppData\Local\Temp\ccW97xDN.s 			page 17


 536              		.loc 1 373 0
 537 0088 4FF00103 		mov	r3, #1
 538              	.L32:
 374:C:\Micrium\Software\uCOS-III\Source\os_pend_multi.c **** }
 539              		.loc 1 374 0
 540 008c 1846     		mov	r0, r3
 541 008e 07F11C07 		add	r7, r7, #28
 542 0092 BD46     		mov	sp, r7
 543 0094 80BC     		pop	{r7}
 544 0096 7047     		bx	lr
 545              		.cfi_endproc
 546              	.LFE2:
 547              		.size	OS_PendMultiValidate, .-OS_PendMultiValidate
 548              		.section	.text.OS_PendMultiWait,"ax",%progbits
 549              		.align	2
 550              		.global	OS_PendMultiWait
 551              		.thumb
 552              		.thumb_func
 553              		.type	OS_PendMultiWait, %function
 554              	OS_PendMultiWait:
 555              	.LFB3:
 375:C:\Micrium\Software\uCOS-III\Source\os_pend_multi.c **** 
 376:C:\Micrium\Software\uCOS-III\Source\os_pend_multi.c **** /*$PAGE*/
 377:C:\Micrium\Software\uCOS-III\Source\os_pend_multi.c **** /*
 378:C:\Micrium\Software\uCOS-III\Source\os_pend_multi.c **** ***************************************************************************************************
 379:C:\Micrium\Software\uCOS-III\Source\os_pend_multi.c **** *                                 MAKE TASK WAIT FOR ANY OF MULTIPLE EVENTS TO OCCUR
 380:C:\Micrium\Software\uCOS-III\Source\os_pend_multi.c **** *
 381:C:\Micrium\Software\uCOS-III\Source\os_pend_multi.c **** * Description: This function is called by OSPendMulti() to suspend a task because any one of multip
 382:C:\Micrium\Software\uCOS-III\Source\os_pend_multi.c **** *              not been posted to.
 383:C:\Micrium\Software\uCOS-III\Source\os_pend_multi.c **** *
 384:C:\Micrium\Software\uCOS-III\Source\os_pend_multi.c **** * Arguments  : p_pend_data_tbl    is a pointer to an array of OS_PEND_DATA
 385:C:\Micrium\Software\uCOS-III\Source\os_pend_multi.c **** *              ---------------
 386:C:\Micrium\Software\uCOS-III\Source\os_pend_multi.c **** *
 387:C:\Micrium\Software\uCOS-III\Source\os_pend_multi.c **** *              tbl_size           is the size of the array
 388:C:\Micrium\Software\uCOS-III\Source\os_pend_multi.c **** *
 389:C:\Micrium\Software\uCOS-III\Source\os_pend_multi.c **** *              timeout            is the timeout to wait in case none of the objects become ready
 390:C:\Micrium\Software\uCOS-III\Source\os_pend_multi.c **** *
 391:C:\Micrium\Software\uCOS-III\Source\os_pend_multi.c **** * Returns    : none
 392:C:\Micrium\Software\uCOS-III\Source\os_pend_multi.c **** *
 393:C:\Micrium\Software\uCOS-III\Source\os_pend_multi.c **** * Note       : This function is INTERNAL to uC/OS-III and your application should not call it.
 394:C:\Micrium\Software\uCOS-III\Source\os_pend_multi.c **** ***************************************************************************************************
 395:C:\Micrium\Software\uCOS-III\Source\os_pend_multi.c **** */
 396:C:\Micrium\Software\uCOS-III\Source\os_pend_multi.c **** 
 397:C:\Micrium\Software\uCOS-III\Source\os_pend_multi.c **** void  OS_PendMultiWait (OS_PEND_DATA  *p_pend_data_tbl,
 398:C:\Micrium\Software\uCOS-III\Source\os_pend_multi.c ****                         OS_OBJ_QTY     tbl_size,
 399:C:\Micrium\Software\uCOS-III\Source\os_pend_multi.c ****                         OS_TICK        timeout)
 400:C:\Micrium\Software\uCOS-III\Source\os_pend_multi.c **** {
 556              		.loc 1 400 0
 557              		.cfi_startproc
 558              		@ args = 0, pretend = 0, frame = 32
 559              		@ frame_needed = 1, uses_anonymous_args = 0
 560 0000 80B5     		push	{r7, lr}
 561              	.LCFI9:
 562              		.cfi_def_cfa_offset 8
 563 0002 88B0     		sub	sp, sp, #32
 564              	.LCFI10:
 565              		.cfi_def_cfa_offset 40
ARM GAS  C:\Users\daniel01\AppData\Local\Temp\ccW97xDN.s 			page 18


 566 0004 00AF     		add	r7, sp, #0
 567              		.cfi_offset 14, -4
 568              		.cfi_offset 7, -8
 569              	.LCFI11:
 570              		.cfi_def_cfa_register 7
 571 0006 F860     		str	r0, [r7, #12]
 572 0008 0B46     		mov	r3, r1
 573 000a 7A60     		str	r2, [r7, #4]
 574 000c 7B81     		strh	r3, [r7, #10]	@ movhi
 401:C:\Micrium\Software\uCOS-III\Source\os_pend_multi.c ****     OS_OBJ_QTY      i;
 402:C:\Micrium\Software\uCOS-III\Source\os_pend_multi.c ****     OS_PEND_LIST   *p_pend_list;
 403:C:\Micrium\Software\uCOS-III\Source\os_pend_multi.c **** 
 404:C:\Micrium\Software\uCOS-III\Source\os_pend_multi.c **** #if OS_CFG_Q_EN > 0u
 405:C:\Micrium\Software\uCOS-III\Source\os_pend_multi.c ****     OS_Q           *p_q;
 406:C:\Micrium\Software\uCOS-III\Source\os_pend_multi.c **** #endif
 407:C:\Micrium\Software\uCOS-III\Source\os_pend_multi.c **** 
 408:C:\Micrium\Software\uCOS-III\Source\os_pend_multi.c **** #if OS_CFG_SEM_EN > 0u
 409:C:\Micrium\Software\uCOS-III\Source\os_pend_multi.c ****     OS_SEM         *p_sem;
 410:C:\Micrium\Software\uCOS-III\Source\os_pend_multi.c **** #endif
 411:C:\Micrium\Software\uCOS-III\Source\os_pend_multi.c **** 
 412:C:\Micrium\Software\uCOS-III\Source\os_pend_multi.c **** 
 413:C:\Micrium\Software\uCOS-III\Source\os_pend_multi.c **** 
 414:C:\Micrium\Software\uCOS-III\Source\os_pend_multi.c ****     OSTCBCurPtr->PendOn             = OS_TASK_PEND_ON_MULTI;   /* Resource not available, wait unti
 575              		.loc 1 414 0
 576 000e 40F20003 		movw	r3, #:lower16:OSTCBCurPtr
 577 0012 C0F20003 		movt	r3, #:upper16:OSTCBCurPtr
 578 0016 1B68     		ldr	r3, [r3, #0]
 579 0018 4FF00302 		mov	r2, #3
 580 001c 83F83420 		strb	r2, [r3, #52]
 415:C:\Micrium\Software\uCOS-III\Source\os_pend_multi.c ****     OSTCBCurPtr->PendStatus         = OS_STATUS_PEND_OK;
 581              		.loc 1 415 0
 582 0020 40F20003 		movw	r3, #:lower16:OSTCBCurPtr
 583 0024 C0F20003 		movt	r3, #:upper16:OSTCBCurPtr
 584 0028 1B68     		ldr	r3, [r3, #0]
 585 002a 4FF00002 		mov	r2, #0
 586 002e 83F83520 		strb	r2, [r3, #53]
 416:C:\Micrium\Software\uCOS-III\Source\os_pend_multi.c ****     OSTCBCurPtr->PendDataTblEntries = tbl_size;
 587              		.loc 1 416 0
 588 0032 40F20003 		movw	r3, #:lower16:OSTCBCurPtr
 589 0036 C0F20003 		movt	r3, #:upper16:OSTCBCurPtr
 590 003a 1B68     		ldr	r3, [r3, #0]
 591 003c 7A89     		ldrh	r2, [r7, #10]	@ movhi
 592 003e DA87     		strh	r2, [r3, #62]	@ movhi
 417:C:\Micrium\Software\uCOS-III\Source\os_pend_multi.c ****     OSTCBCurPtr->PendDataTblPtr     = p_pend_data_tbl;
 593              		.loc 1 417 0
 594 0040 40F20003 		movw	r3, #:lower16:OSTCBCurPtr
 595 0044 C0F20003 		movt	r3, #:upper16:OSTCBCurPtr
 596 0048 1B68     		ldr	r3, [r3, #0]
 597 004a FA68     		ldr	r2, [r7, #12]
 598 004c 1A63     		str	r2, [r3, #48]
 418:C:\Micrium\Software\uCOS-III\Source\os_pend_multi.c **** 
 419:C:\Micrium\Software\uCOS-III\Source\os_pend_multi.c ****     OS_TaskBlock(OSTCBCurPtr,                                  /* Block the task waiting for object
 599              		.loc 1 419 0
 600 004e 40F20003 		movw	r3, #:lower16:OSTCBCurPtr
 601 0052 C0F20003 		movt	r3, #:upper16:OSTCBCurPtr
 602 0056 1B68     		ldr	r3, [r3, #0]
 603 0058 1846     		mov	r0, r3
ARM GAS  C:\Users\daniel01\AppData\Local\Temp\ccW97xDN.s 			page 19


 604 005a 7968     		ldr	r1, [r7, #4]
 605 005c FFF7FEFF 		bl	OS_TaskBlock
 420:C:\Micrium\Software\uCOS-III\Source\os_pend_multi.c ****                  timeout);                                     /* ... but with a timeout if not    
 421:C:\Micrium\Software\uCOS-III\Source\os_pend_multi.c **** 
 422:C:\Micrium\Software\uCOS-III\Source\os_pend_multi.c ****     for (i = 0u; i < tbl_size; i++) {
 606              		.loc 1 422 0
 607 0060 4FF00003 		mov	r3, #0
 608 0064 7B82     		strh	r3, [r7, #18]	@ movhi
 609 0066 34E0     		b	.L39
 610              	.L42:
 423:C:\Micrium\Software\uCOS-III\Source\os_pend_multi.c ****         p_pend_data_tbl->TCBPtr = OSTCBCurPtr;                 /* Every entry points back to the TC
 611              		.loc 1 423 0
 612 0068 40F20003 		movw	r3, #:lower16:OSTCBCurPtr
 613 006c C0F20003 		movt	r3, #:upper16:OSTCBCurPtr
 614 0070 1A68     		ldr	r2, [r3, #0]
 615 0072 FB68     		ldr	r3, [r7, #12]
 616 0074 9A60     		str	r2, [r3, #8]
 424:C:\Micrium\Software\uCOS-III\Source\os_pend_multi.c **** 
 425:C:\Micrium\Software\uCOS-III\Source\os_pend_multi.c **** #if OS_CFG_SEM_EN > 0u
 426:C:\Micrium\Software\uCOS-III\Source\os_pend_multi.c ****         p_sem = (OS_SEM *)((void *)p_pend_data_tbl->PendObjPtr);
 617              		.loc 1 426 0
 618 0076 FB68     		ldr	r3, [r7, #12]
 619 0078 DB68     		ldr	r3, [r3, #12]
 620 007a FB61     		str	r3, [r7, #28]
 427:C:\Micrium\Software\uCOS-III\Source\os_pend_multi.c ****         if (p_sem->Type == OS_OBJ_TYPE_SEM) {
 621              		.loc 1 427 0
 622 007c FB69     		ldr	r3, [r7, #28]
 623 007e 1A68     		ldr	r2, [r3, #0]
 624 0080 44F25353 		movw	r3, #:lower16:1095583059
 625 0084 C4F24D13 		movt	r3, #:upper16:1095583059
 626 0088 9A42     		cmp	r2, r3
 627 008a 07D1     		bne	.L40
 428:C:\Micrium\Software\uCOS-III\Source\os_pend_multi.c ****             p_pend_list = &p_sem->PendList;
 628              		.loc 1 428 0
 629 008c FB69     		ldr	r3, [r7, #28]
 630 008e 03F10803 		add	r3, r3, #8
 631 0092 7B61     		str	r3, [r7, #20]
 429:C:\Micrium\Software\uCOS-III\Source\os_pend_multi.c ****             OS_PendListInsertPrio(p_pend_list,
 632              		.loc 1 429 0
 633 0094 7869     		ldr	r0, [r7, #20]
 634 0096 F968     		ldr	r1, [r7, #12]
 635 0098 FFF7FEFF 		bl	OS_PendListInsertPrio
 636              	.L40:
 430:C:\Micrium\Software\uCOS-III\Source\os_pend_multi.c ****                                   p_pend_data_tbl);
 431:C:\Micrium\Software\uCOS-III\Source\os_pend_multi.c ****         }
 432:C:\Micrium\Software\uCOS-III\Source\os_pend_multi.c **** #endif
 433:C:\Micrium\Software\uCOS-III\Source\os_pend_multi.c **** 
 434:C:\Micrium\Software\uCOS-III\Source\os_pend_multi.c **** #if OS_CFG_Q_EN > 0u
 435:C:\Micrium\Software\uCOS-III\Source\os_pend_multi.c ****         p_q = (OS_Q *)((void *)p_pend_data_tbl->PendObjPtr);
 637              		.loc 1 435 0
 638 009c FB68     		ldr	r3, [r7, #12]
 639 009e DB68     		ldr	r3, [r3, #12]
 640 00a0 BB61     		str	r3, [r7, #24]
 436:C:\Micrium\Software\uCOS-III\Source\os_pend_multi.c ****         if (p_q->Type == OS_OBJ_TYPE_Q) {
 641              		.loc 1 436 0
 642 00a2 BB69     		ldr	r3, [r7, #24]
 643 00a4 1A68     		ldr	r2, [r3, #0]
ARM GAS  C:\Users\daniel01\AppData\Local\Temp\ccW97xDN.s 			page 20


 644 00a6 45F25153 		movw	r3, #:lower16:1430607185
 645 00aa C5F24553 		movt	r3, #:upper16:1430607185
 646 00ae 9A42     		cmp	r2, r3
 647 00b0 07D1     		bne	.L41
 437:C:\Micrium\Software\uCOS-III\Source\os_pend_multi.c ****             p_pend_list = &p_q->PendList;
 648              		.loc 1 437 0
 649 00b2 BB69     		ldr	r3, [r7, #24]
 650 00b4 03F10803 		add	r3, r3, #8
 651 00b8 7B61     		str	r3, [r7, #20]
 438:C:\Micrium\Software\uCOS-III\Source\os_pend_multi.c ****             OS_PendListInsertPrio(p_pend_list,
 652              		.loc 1 438 0
 653 00ba 7869     		ldr	r0, [r7, #20]
 654 00bc F968     		ldr	r1, [r7, #12]
 655 00be FFF7FEFF 		bl	OS_PendListInsertPrio
 656              	.L41:
 439:C:\Micrium\Software\uCOS-III\Source\os_pend_multi.c ****                                   p_pend_data_tbl);
 440:C:\Micrium\Software\uCOS-III\Source\os_pend_multi.c ****         }
 441:C:\Micrium\Software\uCOS-III\Source\os_pend_multi.c **** #endif
 442:C:\Micrium\Software\uCOS-III\Source\os_pend_multi.c **** 
 443:C:\Micrium\Software\uCOS-III\Source\os_pend_multi.c ****         p_pend_data_tbl++;
 657              		.loc 1 443 0
 658 00c2 FB68     		ldr	r3, [r7, #12]
 659 00c4 03F12003 		add	r3, r3, #32
 660 00c8 FB60     		str	r3, [r7, #12]
 661              		.loc 1 422 0
 662 00ca 7B8A     		ldrh	r3, [r7, #18]	@ movhi
 663 00cc 03F10103 		add	r3, r3, #1
 664 00d0 7B82     		strh	r3, [r7, #18]	@ movhi
 665              	.L39:
 666 00d2 7A8A     		ldrh	r2, [r7, #18]
 667 00d4 7B89     		ldrh	r3, [r7, #10]
 668 00d6 9A42     		cmp	r2, r3
 669 00d8 C6D3     		bcc	.L42
 444:C:\Micrium\Software\uCOS-III\Source\os_pend_multi.c ****     }
 445:C:\Micrium\Software\uCOS-III\Source\os_pend_multi.c **** }
 670              		.loc 1 445 0
 671 00da 07F12007 		add	r7, r7, #32
 672 00de BD46     		mov	sp, r7
 673 00e0 80BD     		pop	{r7, pc}
 674              		.cfi_endproc
 675              	.LFE3:
 676              		.size	OS_PendMultiWait, .-OS_PendMultiWait
 677 00e2 00BF     		.text
 678              	.Letext0: