ARM GAS  C:\Users\daniel01\AppData\Local\Temp\ccp4URRj.s 			page 1


   1              		.syntax unified
   2              		.cpu cortex-m3
   3              		.fpu softvfp
   4              		.eabi_attribute 20, 1
   5              		.eabi_attribute 21, 1
   6              		.eabi_attribute 23, 3
   7              		.eabi_attribute 24, 1
   8              		.eabi_attribute 25, 1
   9              		.eabi_attribute 26, 1
  10              		.eabi_attribute 30, 6
  11              		.eabi_attribute 18, 4
  12              		.thumb
  13              		.file	"os_stat.c"
  20 0000 EB010000 		.text
  20      0200D600 
  20      00000201 
  20      FB0E0D00 
  20      01010101 
  21              	.Ltext0:
  22              		.cfi_sections	.debug_frame
  23              		.section	.text.OSStatReset,"ax",%progbits
  24              		.align	2
  25              		.global	OSStatReset
  26              		.thumb
  27              		.thumb_func
  28              		.type	OSStatReset, %function
  29              	OSStatReset:
  30              	.LFB0:
  31              		.file 1 "C:\\Micrium\\Software\\uCOS-III\\Source\\os_stat.c"
   1:C:\Micrium\Software\uCOS-III\Source\os_stat.c **** /*
   2:C:\Micrium\Software\uCOS-III\Source\os_stat.c **** ***************************************************************************************************
   3:C:\Micrium\Software\uCOS-III\Source\os_stat.c **** *                                                      uC/OS-III
   4:C:\Micrium\Software\uCOS-III\Source\os_stat.c **** *                                                 The Real-Time Kernel
   5:C:\Micrium\Software\uCOS-III\Source\os_stat.c **** *
   6:C:\Micrium\Software\uCOS-III\Source\os_stat.c **** *                                  (c) Copyright 2009-2012; Micrium, Inc.; Weston, FL
   7:C:\Micrium\Software\uCOS-III\Source\os_stat.c **** *                           All rights reserved.  Protected by international copyright laws.
   8:C:\Micrium\Software\uCOS-III\Source\os_stat.c **** *
   9:C:\Micrium\Software\uCOS-III\Source\os_stat.c **** *                                                  STATISTICS MODULE
  10:C:\Micrium\Software\uCOS-III\Source\os_stat.c **** *
  11:C:\Micrium\Software\uCOS-III\Source\os_stat.c **** * File    : OS_STAT.C
  12:C:\Micrium\Software\uCOS-III\Source\os_stat.c **** * By      : JJL
  13:C:\Micrium\Software\uCOS-III\Source\os_stat.c **** * Version : V3.03.01
  14:C:\Micrium\Software\uCOS-III\Source\os_stat.c **** *
  15:C:\Micrium\Software\uCOS-III\Source\os_stat.c **** * LICENSING TERMS:
  16:C:\Micrium\Software\uCOS-III\Source\os_stat.c **** * ---------------
  17:C:\Micrium\Software\uCOS-III\Source\os_stat.c **** *           uC/OS-III is provided in source form for FREE short-term evaluation, for educational us
  18:C:\Micrium\Software\uCOS-III\Source\os_stat.c **** *           for peaceful research.  If you plan or intend to use uC/OS-III in a commercial applicat
  19:C:\Micrium\Software\uCOS-III\Source\os_stat.c **** *           product then, you need to contact Micrium to properly license uC/OS-III for its use in 
  20:C:\Micrium\Software\uCOS-III\Source\os_stat.c **** *           application/product.   We provide ALL the source code for your convenience and to help 
  21:C:\Micrium\Software\uCOS-III\Source\os_stat.c **** *           experience uC/OS-III.  The fact that the source is provided does NOT mean that you can 
  22:C:\Micrium\Software\uCOS-III\Source\os_stat.c **** *           it commercially without paying a licensing fee.
ARM GAS  C:\Users\daniel01\AppData\Local\Temp\ccp4URRj.s 			page 2


  23:C:\Micrium\Software\uCOS-III\Source\os_stat.c **** *
  24:C:\Micrium\Software\uCOS-III\Source\os_stat.c **** *           Knowledge of the source code may NOT be used to develop a similar product.
  25:C:\Micrium\Software\uCOS-III\Source\os_stat.c **** *
  26:C:\Micrium\Software\uCOS-III\Source\os_stat.c **** *           Please help us continue to provide the embedded community with the finest software avai
  27:C:\Micrium\Software\uCOS-III\Source\os_stat.c **** *           Your honesty is greatly appreciated.
  28:C:\Micrium\Software\uCOS-III\Source\os_stat.c **** *
  29:C:\Micrium\Software\uCOS-III\Source\os_stat.c **** *           You can contact us at www.micrium.com, or by phone at +1 (954) 217-2036.
  30:C:\Micrium\Software\uCOS-III\Source\os_stat.c **** ***************************************************************************************************
  31:C:\Micrium\Software\uCOS-III\Source\os_stat.c **** */
  32:C:\Micrium\Software\uCOS-III\Source\os_stat.c **** 
  33:C:\Micrium\Software\uCOS-III\Source\os_stat.c **** #define  MICRIUM_SOURCE
  34:C:\Micrium\Software\uCOS-III\Source\os_stat.c **** #include <os.h>
  35:C:\Micrium\Software\uCOS-III\Source\os_stat.c **** 
  36:C:\Micrium\Software\uCOS-III\Source\os_stat.c **** #ifdef VSC_INCLUDE_SOURCE_FILE_NAMES
  37:C:\Micrium\Software\uCOS-III\Source\os_stat.c **** const  CPU_CHAR  *os_stat__c = "$Id: $";
  38:C:\Micrium\Software\uCOS-III\Source\os_stat.c **** #endif
  39:C:\Micrium\Software\uCOS-III\Source\os_stat.c **** 
  40:C:\Micrium\Software\uCOS-III\Source\os_stat.c **** 
  41:C:\Micrium\Software\uCOS-III\Source\os_stat.c **** #if OS_CFG_STAT_TASK_EN > 0u
  42:C:\Micrium\Software\uCOS-III\Source\os_stat.c **** 
  43:C:\Micrium\Software\uCOS-III\Source\os_stat.c **** /*
  44:C:\Micrium\Software\uCOS-III\Source\os_stat.c **** ***************************************************************************************************
  45:C:\Micrium\Software\uCOS-III\Source\os_stat.c **** *                                                   RESET STATISTICS
  46:C:\Micrium\Software\uCOS-III\Source\os_stat.c **** *
  47:C:\Micrium\Software\uCOS-III\Source\os_stat.c **** * Description: This function is called by your application to reset the statistics.
  48:C:\Micrium\Software\uCOS-III\Source\os_stat.c **** *
  49:C:\Micrium\Software\uCOS-III\Source\os_stat.c **** * Argument(s): p_err      is a pointer to a variable that will contain an error code returned by th
  50:C:\Micrium\Software\uCOS-III\Source\os_stat.c **** *
  51:C:\Micrium\Software\uCOS-III\Source\os_stat.c **** *                             OS_ERR_NONE
  52:C:\Micrium\Software\uCOS-III\Source\os_stat.c **** *
  53:C:\Micrium\Software\uCOS-III\Source\os_stat.c **** * Returns    : none
  54:C:\Micrium\Software\uCOS-III\Source\os_stat.c **** ***************************************************************************************************
  55:C:\Micrium\Software\uCOS-III\Source\os_stat.c **** */
  56:C:\Micrium\Software\uCOS-III\Source\os_stat.c **** 
  57:C:\Micrium\Software\uCOS-III\Source\os_stat.c **** void  OSStatReset (OS_ERR  *p_err)
  58:C:\Micrium\Software\uCOS-III\Source\os_stat.c **** {
  32              		.loc 1 58 0
  33              		.cfi_startproc
  34              		@ args = 0, pretend = 0, frame = 24
  35              		@ frame_needed = 1, uses_anonymous_args = 0
  36 0000 80B5     		push	{r7, lr}
  37              	.LCFI0:
  38              		.cfi_def_cfa_offset 8
  39 0002 86B0     		sub	sp, sp, #24
  40              	.LCFI1:
  41              		.cfi_def_cfa_offset 32
  42 0004 00AF     		add	r7, sp, #0
  43              		.cfi_offset 14, -4
  44              		.cfi_offset 7, -8
  45              	.LCFI2:
  46              		.cfi_def_cfa_register 7
  47 0006 7860     		str	r0, [r7, #4]
  59:C:\Micrium\Software\uCOS-III\Source\os_stat.c **** #if (OS_CFG_DBG_EN > 0u)
  60:C:\Micrium\Software\uCOS-III\Source\os_stat.c ****     OS_TCB      *p_tcb;
  61:C:\Micrium\Software\uCOS-III\Source\os_stat.c **** #if (OS_MSG_EN > 0u)
  62:C:\Micrium\Software\uCOS-III\Source\os_stat.c ****     OS_MSG_Q    *p_msg_q;
  63:C:\Micrium\Software\uCOS-III\Source\os_stat.c **** #endif
ARM GAS  C:\Users\daniel01\AppData\Local\Temp\ccp4URRj.s 			page 3


  64:C:\Micrium\Software\uCOS-III\Source\os_stat.c **** #if (OS_CFG_Q_EN > 0u)
  65:C:\Micrium\Software\uCOS-III\Source\os_stat.c ****     OS_Q        *p_q;
  66:C:\Micrium\Software\uCOS-III\Source\os_stat.c **** #endif
  67:C:\Micrium\Software\uCOS-III\Source\os_stat.c **** #endif
  68:C:\Micrium\Software\uCOS-III\Source\os_stat.c ****     CPU_SR_ALLOC();
  48              		.loc 1 68 0
  49 0008 4FF00003 		mov	r3, #0
  50 000c 7B61     		str	r3, [r7, #20]
  69:C:\Micrium\Software\uCOS-III\Source\os_stat.c **** 
  70:C:\Micrium\Software\uCOS-III\Source\os_stat.c **** 
  71:C:\Micrium\Software\uCOS-III\Source\os_stat.c **** 
  72:C:\Micrium\Software\uCOS-III\Source\os_stat.c **** #ifdef OS_SAFETY_CRITICAL
  73:C:\Micrium\Software\uCOS-III\Source\os_stat.c ****     if (p_err == (OS_ERR *)0) {
  74:C:\Micrium\Software\uCOS-III\Source\os_stat.c ****         OS_SAFETY_CRITICAL_EXCEPTION();
  75:C:\Micrium\Software\uCOS-III\Source\os_stat.c ****         return;
  76:C:\Micrium\Software\uCOS-III\Source\os_stat.c ****     }
  77:C:\Micrium\Software\uCOS-III\Source\os_stat.c **** #endif
  78:C:\Micrium\Software\uCOS-III\Source\os_stat.c **** 
  79:C:\Micrium\Software\uCOS-III\Source\os_stat.c ****     CPU_CRITICAL_ENTER();
  51              		.loc 1 79 0
  52 000e FFF7FEFF 		bl	CPU_SR_Save
  53 0012 0346     		mov	r3, r0
  54 0014 7B61     		str	r3, [r7, #20]
  80:C:\Micrium\Software\uCOS-III\Source\os_stat.c **** #if OS_CFG_ISR_POST_DEFERRED_EN > 0u
  81:C:\Micrium\Software\uCOS-III\Source\os_stat.c ****     OSIntQTaskTimeMax     = (CPU_TS    )0;                  /* Reset the task execution times      
  82:C:\Micrium\Software\uCOS-III\Source\os_stat.c ****     OSIntQNbrEntriesMax   = (OS_OBJ_QTY)0;                  /* Reset the queue maximum number of en
  83:C:\Micrium\Software\uCOS-III\Source\os_stat.c **** #endif
  84:C:\Micrium\Software\uCOS-III\Source\os_stat.c **** 
  85:C:\Micrium\Software\uCOS-III\Source\os_stat.c **** #if OS_CFG_STAT_TASK_EN > 0u
  86:C:\Micrium\Software\uCOS-III\Source\os_stat.c ****     OSStatTaskCPUUsageMax = 0u;
  55              		.loc 1 86 0
  56 0016 40F20003 		movw	r3, #:lower16:OSStatTaskCPUUsageMax
  57 001a C0F20003 		movt	r3, #:upper16:OSStatTaskCPUUsageMax
  58 001e 4FF00002 		mov	r2, #0
  59 0022 1A80     		strh	r2, [r3, #0]	@ movhi
  87:C:\Micrium\Software\uCOS-III\Source\os_stat.c ****     OSStatTaskTimeMax     = (CPU_TS)0;
  60              		.loc 1 87 0
  61 0024 40F20003 		movw	r3, #:lower16:OSStatTaskTimeMax
  62 0028 C0F20003 		movt	r3, #:upper16:OSStatTaskTimeMax
  63 002c 4FF00002 		mov	r2, #0
  64 0030 1A60     		str	r2, [r3, #0]
  88:C:\Micrium\Software\uCOS-III\Source\os_stat.c **** #endif
  89:C:\Micrium\Software\uCOS-III\Source\os_stat.c **** 
  90:C:\Micrium\Software\uCOS-III\Source\os_stat.c ****     OSTickTaskTimeMax     = (CPU_TS)0;
  65              		.loc 1 90 0
  66 0032 40F20003 		movw	r3, #:lower16:OSTickTaskTimeMax
  67 0036 C0F20003 		movt	r3, #:upper16:OSTickTaskTimeMax
  68 003a 4FF00002 		mov	r2, #0
  69 003e 1A60     		str	r2, [r3, #0]
  91:C:\Micrium\Software\uCOS-III\Source\os_stat.c **** 
  92:C:\Micrium\Software\uCOS-III\Source\os_stat.c **** #if OS_CFG_TMR_EN > 0u
  93:C:\Micrium\Software\uCOS-III\Source\os_stat.c ****     OSTmrTaskTimeMax      = (CPU_TS)0;
  70              		.loc 1 93 0
  71 0040 40F20003 		movw	r3, #:lower16:OSTmrTaskTimeMax
  72 0044 C0F20003 		movt	r3, #:upper16:OSTmrTaskTimeMax
  73 0048 4FF00002 		mov	r2, #0
  74 004c 1A60     		str	r2, [r3, #0]
ARM GAS  C:\Users\daniel01\AppData\Local\Temp\ccp4URRj.s 			page 4


  94:C:\Micrium\Software\uCOS-III\Source\os_stat.c **** #endif
  95:C:\Micrium\Software\uCOS-III\Source\os_stat.c **** 
  96:C:\Micrium\Software\uCOS-III\Source\os_stat.c **** #ifdef CPU_CFG_INT_DIS_MEAS_EN
  97:C:\Micrium\Software\uCOS-III\Source\os_stat.c ****     OSIntDisTimeMax       = (CPU_TS)0;                      /* Reset the maximum interrupt disable 
  98:C:\Micrium\Software\uCOS-III\Source\os_stat.c **** #endif
  99:C:\Micrium\Software\uCOS-III\Source\os_stat.c **** 
 100:C:\Micrium\Software\uCOS-III\Source\os_stat.c **** #if OS_CFG_SCHED_LOCK_TIME_MEAS_EN > 0u
 101:C:\Micrium\Software\uCOS-III\Source\os_stat.c ****     OSSchedLockTimeMax    = (CPU_TS)0;                      /* Reset the maximum scheduler lock tim
 102:C:\Micrium\Software\uCOS-III\Source\os_stat.c **** #endif
 103:C:\Micrium\Software\uCOS-III\Source\os_stat.c **** 
 104:C:\Micrium\Software\uCOS-III\Source\os_stat.c **** #if OS_MSG_EN > 0u
 105:C:\Micrium\Software\uCOS-III\Source\os_stat.c ****     OSMsgPool.NbrUsedMax  = 0u;
  75              		.loc 1 105 0
  76 004e 40F20003 		movw	r3, #:lower16:OSMsgPool
  77 0052 C0F20003 		movt	r3, #:upper16:OSMsgPool
  78 0056 4FF00002 		mov	r2, #0
  79 005a 1A81     		strh	r2, [r3, #8]	@ movhi
 106:C:\Micrium\Software\uCOS-III\Source\os_stat.c **** #endif
 107:C:\Micrium\Software\uCOS-III\Source\os_stat.c ****     CPU_CRITICAL_EXIT();
  80              		.loc 1 107 0
  81 005c 7869     		ldr	r0, [r7, #20]
  82 005e FFF7FEFF 		bl	CPU_SR_Restore
 108:C:\Micrium\Software\uCOS-III\Source\os_stat.c **** 
 109:C:\Micrium\Software\uCOS-III\Source\os_stat.c **** #if OS_CFG_DBG_EN > 0u
 110:C:\Micrium\Software\uCOS-III\Source\os_stat.c ****     CPU_CRITICAL_ENTER();
  83              		.loc 1 110 0
  84 0062 FFF7FEFF 		bl	CPU_SR_Save
  85 0066 0346     		mov	r3, r0
  86 0068 7B61     		str	r3, [r7, #20]
 111:C:\Micrium\Software\uCOS-III\Source\os_stat.c ****     p_tcb = OSTaskDbgListPtr;
  87              		.loc 1 111 0
  88 006a 40F20003 		movw	r3, #:lower16:OSTaskDbgListPtr
  89 006e C0F20003 		movt	r3, #:upper16:OSTaskDbgListPtr
  90 0072 1B68     		ldr	r3, [r3, #0]
  91 0074 BB60     		str	r3, [r7, #8]
 112:C:\Micrium\Software\uCOS-III\Source\os_stat.c ****     CPU_CRITICAL_EXIT();
  92              		.loc 1 112 0
  93 0076 7869     		ldr	r0, [r7, #20]
  94 0078 FFF7FEFF 		bl	CPU_SR_Restore
 113:C:\Micrium\Software\uCOS-III\Source\os_stat.c ****     while (p_tcb != (OS_TCB *)0) {                          /* Reset per-Task statistics           
  95              		.loc 1 113 0
  96 007c 3AE0     		b	.L2
  97              	.L3:
 114:C:\Micrium\Software\uCOS-III\Source\os_stat.c ****         CPU_CRITICAL_ENTER();
  98              		.loc 1 114 0
  99 007e FFF7FEFF 		bl	CPU_SR_Save
 100 0082 0346     		mov	r3, r0
 101 0084 7B61     		str	r3, [r7, #20]
 115:C:\Micrium\Software\uCOS-III\Source\os_stat.c **** 
 116:C:\Micrium\Software\uCOS-III\Source\os_stat.c **** #ifdef CPU_CFG_INT_DIS_MEAS_EN
 117:C:\Micrium\Software\uCOS-III\Source\os_stat.c ****         p_tcb->IntDisTimeMax    = (CPU_TS      )0;
 118:C:\Micrium\Software\uCOS-III\Source\os_stat.c **** #endif
 119:C:\Micrium\Software\uCOS-III\Source\os_stat.c **** 
 120:C:\Micrium\Software\uCOS-III\Source\os_stat.c **** #if OS_CFG_SCHED_LOCK_TIME_MEAS_EN > 0u
 121:C:\Micrium\Software\uCOS-III\Source\os_stat.c ****         p_tcb->SchedLockTimeMax = (CPU_TS      )0;
 122:C:\Micrium\Software\uCOS-III\Source\os_stat.c **** #endif
 123:C:\Micrium\Software\uCOS-III\Source\os_stat.c **** 
ARM GAS  C:\Users\daniel01\AppData\Local\Temp\ccp4URRj.s 			page 5


 124:C:\Micrium\Software\uCOS-III\Source\os_stat.c **** #if OS_CFG_TASK_PROFILE_EN > 0u
 125:C:\Micrium\Software\uCOS-III\Source\os_stat.c **** #if OS_CFG_TASK_Q_EN > 0u
 126:C:\Micrium\Software\uCOS-III\Source\os_stat.c ****         p_tcb->MsgQPendTimeMax  = (CPU_TS      )0;
 102              		.loc 1 126 0
 103 0086 BB68     		ldr	r3, [r7, #8]
 104 0088 4FF00002 		mov	r2, #0
 105 008c 9A67     		str	r2, [r3, #120]
 127:C:\Micrium\Software\uCOS-III\Source\os_stat.c **** #endif
 128:C:\Micrium\Software\uCOS-III\Source\os_stat.c ****         p_tcb->SemPendTimeMax   = (CPU_TS      )0;
 106              		.loc 1 128 0
 107 008e BB68     		ldr	r3, [r7, #8]
 108 0090 4FF00002 		mov	r2, #0
 109 0094 C3F8A820 		str	r2, [r3, #168]
 129:C:\Micrium\Software\uCOS-III\Source\os_stat.c ****         p_tcb->CtxSwCtr         = (OS_CTR      )0;
 110              		.loc 1 129 0
 111 0098 BB68     		ldr	r3, [r7, #8]
 112 009a 4FF00002 		mov	r2, #0
 113 009e C3F89020 		str	r2, [r3, #144]
 130:C:\Micrium\Software\uCOS-III\Source\os_stat.c ****         p_tcb->CPUUsage         = (OS_CPU_USAGE)0;
 114              		.loc 1 130 0
 115 00a2 BB68     		ldr	r3, [r7, #8]
 116 00a4 4FF00002 		mov	r2, #0
 117 00a8 A3F88C20 		strh	r2, [r3, #140]	@ movhi
 131:C:\Micrium\Software\uCOS-III\Source\os_stat.c ****         p_tcb->CPUUsageMax      = (OS_CPU_USAGE)0;
 118              		.loc 1 131 0
 119 00ac BB68     		ldr	r3, [r7, #8]
 120 00ae 4FF00002 		mov	r2, #0
 121 00b2 A3F88E20 		strh	r2, [r3, #142]	@ movhi
 132:C:\Micrium\Software\uCOS-III\Source\os_stat.c ****         p_tcb->CyclesTotal      = (OS_CYCLES   )0;
 122              		.loc 1 132 0
 123 00b6 BB68     		ldr	r3, [r7, #8]
 124 00b8 4FF00002 		mov	r2, #0
 125 00bc C3F89C20 		str	r2, [r3, #156]
 133:C:\Micrium\Software\uCOS-III\Source\os_stat.c ****         p_tcb->CyclesTotalPrev  = (OS_CYCLES   )0;
 126              		.loc 1 133 0
 127 00c0 BB68     		ldr	r3, [r7, #8]
 128 00c2 4FF00002 		mov	r2, #0
 129 00c6 C3F8A020 		str	r2, [r3, #160]
 134:C:\Micrium\Software\uCOS-III\Source\os_stat.c ****         p_tcb->CyclesStart      =  OS_TS_GET();
 130              		.loc 1 134 0
 131 00ca FFF7FEFF 		bl	CPU_TS_TmrRd
 132 00ce 0246     		mov	r2, r0
 133 00d0 BB68     		ldr	r3, [r7, #8]
 134 00d2 C3F89820 		str	r2, [r3, #152]
 135:C:\Micrium\Software\uCOS-III\Source\os_stat.c **** #endif
 136:C:\Micrium\Software\uCOS-III\Source\os_stat.c **** 
 137:C:\Micrium\Software\uCOS-III\Source\os_stat.c **** #if OS_CFG_TASK_Q_EN > 0u
 138:C:\Micrium\Software\uCOS-III\Source\os_stat.c ****         p_msg_q                 = &p_tcb->MsgQ;
 135              		.loc 1 138 0
 136 00d6 BB68     		ldr	r3, [r7, #8]
 137 00d8 03F16403 		add	r3, r3, #100
 138 00dc FB60     		str	r3, [r7, #12]
 139:C:\Micrium\Software\uCOS-III\Source\os_stat.c ****         p_msg_q->NbrEntriesMax  = (OS_MSG_QTY  )0;
 139              		.loc 1 139 0
 140 00de FB68     		ldr	r3, [r7, #12]
 141 00e0 4FF00002 		mov	r2, #0
 142 00e4 9A81     		strh	r2, [r3, #12]	@ movhi
ARM GAS  C:\Users\daniel01\AppData\Local\Temp\ccp4URRj.s 			page 6


 140:C:\Micrium\Software\uCOS-III\Source\os_stat.c **** #endif
 141:C:\Micrium\Software\uCOS-III\Source\os_stat.c ****         p_tcb                   = p_tcb->DbgNextPtr;
 143              		.loc 1 141 0
 144 00e6 BB68     		ldr	r3, [r7, #8]
 145 00e8 D3F8B830 		ldr	r3, [r3, #184]
 146 00ec BB60     		str	r3, [r7, #8]
 142:C:\Micrium\Software\uCOS-III\Source\os_stat.c ****         CPU_CRITICAL_EXIT();
 147              		.loc 1 142 0
 148 00ee 7869     		ldr	r0, [r7, #20]
 149 00f0 FFF7FEFF 		bl	CPU_SR_Restore
 150              	.L2:
 151              		.loc 1 113 0
 152 00f4 BB68     		ldr	r3, [r7, #8]
 153 00f6 002B     		cmp	r3, #0
 154 00f8 C1D1     		bne	.L3
 143:C:\Micrium\Software\uCOS-III\Source\os_stat.c ****     }
 144:C:\Micrium\Software\uCOS-III\Source\os_stat.c **** #endif
 145:C:\Micrium\Software\uCOS-III\Source\os_stat.c **** 
 146:C:\Micrium\Software\uCOS-III\Source\os_stat.c **** #if (OS_CFG_Q_EN > 0u) && (OS_CFG_DBG_EN > 0u)
 147:C:\Micrium\Software\uCOS-III\Source\os_stat.c ****     CPU_CRITICAL_ENTER();
 155              		.loc 1 147 0
 156 00fa FFF7FEFF 		bl	CPU_SR_Save
 157 00fe 0346     		mov	r3, r0
 158 0100 7B61     		str	r3, [r7, #20]
 148:C:\Micrium\Software\uCOS-III\Source\os_stat.c ****     p_q = OSQDbgListPtr;
 159              		.loc 1 148 0
 160 0102 40F20003 		movw	r3, #:lower16:OSQDbgListPtr
 161 0106 C0F20003 		movt	r3, #:upper16:OSQDbgListPtr
 162 010a 1B68     		ldr	r3, [r3, #0]
 163 010c 3B61     		str	r3, [r7, #16]
 149:C:\Micrium\Software\uCOS-III\Source\os_stat.c ****     CPU_CRITICAL_EXIT();
 164              		.loc 1 149 0
 165 010e 7869     		ldr	r0, [r7, #20]
 166 0110 FFF7FEFF 		bl	CPU_SR_Restore
 150:C:\Micrium\Software\uCOS-III\Source\os_stat.c ****     while (p_q != (OS_Q *)0) {                              /* Reset message queues statistics     
 167              		.loc 1 150 0
 168 0114 11E0     		b	.L4
 169              	.L5:
 151:C:\Micrium\Software\uCOS-III\Source\os_stat.c ****         CPU_CRITICAL_ENTER();
 170              		.loc 1 151 0
 171 0116 FFF7FEFF 		bl	CPU_SR_Save
 172 011a 0346     		mov	r3, r0
 173 011c 7B61     		str	r3, [r7, #20]
 152:C:\Micrium\Software\uCOS-III\Source\os_stat.c ****         p_msg_q                = &p_q->MsgQ;
 174              		.loc 1 152 0
 175 011e 3B69     		ldr	r3, [r7, #16]
 176 0120 03F12003 		add	r3, r3, #32
 177 0124 FB60     		str	r3, [r7, #12]
 153:C:\Micrium\Software\uCOS-III\Source\os_stat.c ****         p_msg_q->NbrEntriesMax = (OS_MSG_QTY)0;
 178              		.loc 1 153 0
 179 0126 FB68     		ldr	r3, [r7, #12]
 180 0128 4FF00002 		mov	r2, #0
 181 012c 9A81     		strh	r2, [r3, #12]	@ movhi
 154:C:\Micrium\Software\uCOS-III\Source\os_stat.c ****         p_q                    = p_q->DbgNextPtr;
 182              		.loc 1 154 0
 183 012e 3B69     		ldr	r3, [r7, #16]
 184 0130 9B69     		ldr	r3, [r3, #24]
ARM GAS  C:\Users\daniel01\AppData\Local\Temp\ccp4URRj.s 			page 7


 185 0132 3B61     		str	r3, [r7, #16]
 155:C:\Micrium\Software\uCOS-III\Source\os_stat.c ****         CPU_CRITICAL_EXIT();
 186              		.loc 1 155 0
 187 0134 7869     		ldr	r0, [r7, #20]
 188 0136 FFF7FEFF 		bl	CPU_SR_Restore
 189              	.L4:
 190              		.loc 1 150 0
 191 013a 3B69     		ldr	r3, [r7, #16]
 192 013c 002B     		cmp	r3, #0
 193 013e EAD1     		bne	.L5
 156:C:\Micrium\Software\uCOS-III\Source\os_stat.c ****     }
 157:C:\Micrium\Software\uCOS-III\Source\os_stat.c **** #endif
 158:C:\Micrium\Software\uCOS-III\Source\os_stat.c **** 
 159:C:\Micrium\Software\uCOS-III\Source\os_stat.c ****     OS_TickListResetPeak();                                 /* Reset tick wheel statistics         
 194              		.loc 1 159 0
 195 0140 FFF7FEFF 		bl	OS_TickListResetPeak
 160:C:\Micrium\Software\uCOS-III\Source\os_stat.c **** 
 161:C:\Micrium\Software\uCOS-III\Source\os_stat.c **** #if OS_CFG_TMR_EN > 0u
 162:C:\Micrium\Software\uCOS-III\Source\os_stat.c ****     OS_TmrResetPeak();
 196              		.loc 1 162 0
 197 0144 FFF7FEFF 		bl	OS_TmrResetPeak
 163:C:\Micrium\Software\uCOS-III\Source\os_stat.c **** #endif
 164:C:\Micrium\Software\uCOS-III\Source\os_stat.c **** 
 165:C:\Micrium\Software\uCOS-III\Source\os_stat.c **** 
 166:C:\Micrium\Software\uCOS-III\Source\os_stat.c ****    *p_err = OS_ERR_NONE;
 198              		.loc 1 166 0
 199 0148 7B68     		ldr	r3, [r7, #4]
 200 014a 4FF00002 		mov	r2, #0
 201 014e 1A80     		strh	r2, [r3, #0]	@ movhi
 167:C:\Micrium\Software\uCOS-III\Source\os_stat.c **** }
 202              		.loc 1 167 0
 203 0150 07F11807 		add	r7, r7, #24
 204 0154 BD46     		mov	sp, r7
 205 0156 80BD     		pop	{r7, pc}
 206              		.cfi_endproc
 207              	.LFE0:
 208              		.size	OSStatReset, .-OSStatReset
 209              		.section	.text.OSStatTaskCPUUsageInit,"ax",%progbits
 210              		.align	2
 211              		.global	OSStatTaskCPUUsageInit
 212              		.thumb
 213              		.thumb_func
 214              		.type	OSStatTaskCPUUsageInit, %function
 215              	OSStatTaskCPUUsageInit:
 216              	.LFB1:
 168:C:\Micrium\Software\uCOS-III\Source\os_stat.c **** 
 169:C:\Micrium\Software\uCOS-III\Source\os_stat.c **** /*$PAGE*/
 170:C:\Micrium\Software\uCOS-III\Source\os_stat.c **** /*
 171:C:\Micrium\Software\uCOS-III\Source\os_stat.c **** ***************************************************************************************************
 172:C:\Micrium\Software\uCOS-III\Source\os_stat.c **** *                                                DETERMINE THE CPU CAPACITY
 173:C:\Micrium\Software\uCOS-III\Source\os_stat.c **** *
 174:C:\Micrium\Software\uCOS-III\Source\os_stat.c **** * Description: This function is called by your application to establish CPU usage by first determin
 175:C:\Micrium\Software\uCOS-III\Source\os_stat.c **** *              counter would count to in 1/10 second if no other tasks were to execute during that 
 176:C:\Micrium\Software\uCOS-III\Source\os_stat.c **** *              then determined by a low priority task which keeps track of this 32-bit counter ever
 177:C:\Micrium\Software\uCOS-III\Source\os_stat.c **** *              time, with other tasks running.  CPU usage is determined by:
 178:C:\Micrium\Software\uCOS-III\Source\os_stat.c **** *
 179:C:\Micrium\Software\uCOS-III\Source\os_stat.c **** *                                             OS_Stat_IdleCtr
ARM GAS  C:\Users\daniel01\AppData\Local\Temp\ccp4URRj.s 			page 8


 180:C:\Micrium\Software\uCOS-III\Source\os_stat.c **** *                 CPU Usage (%) = 100 * (1 - ------------------)
 181:C:\Micrium\Software\uCOS-III\Source\os_stat.c **** *                                            OS_Stat_IdleCtrMax
 182:C:\Micrium\Software\uCOS-III\Source\os_stat.c **** *
 183:C:\Micrium\Software\uCOS-III\Source\os_stat.c **** * Argument(s): p_err      is a pointer to a variable that will contain an error code returned by th
 184:C:\Micrium\Software\uCOS-III\Source\os_stat.c **** *
 185:C:\Micrium\Software\uCOS-III\Source\os_stat.c **** *                             OS_ERR_NONE
 186:C:\Micrium\Software\uCOS-III\Source\os_stat.c **** *
 187:C:\Micrium\Software\uCOS-III\Source\os_stat.c **** * Returns    : none
 188:C:\Micrium\Software\uCOS-III\Source\os_stat.c **** ***************************************************************************************************
 189:C:\Micrium\Software\uCOS-III\Source\os_stat.c **** */
 190:C:\Micrium\Software\uCOS-III\Source\os_stat.c **** 
 191:C:\Micrium\Software\uCOS-III\Source\os_stat.c **** void  OSStatTaskCPUUsageInit (OS_ERR  *p_err)
 192:C:\Micrium\Software\uCOS-III\Source\os_stat.c **** {
 217              		.loc 1 192 0
 218              		.cfi_startproc
 219              		@ args = 0, pretend = 0, frame = 24
 220              		@ frame_needed = 1, uses_anonymous_args = 0
 221 0000 80B5     		push	{r7, lr}
 222              	.LCFI3:
 223              		.cfi_def_cfa_offset 8
 224 0002 86B0     		sub	sp, sp, #24
 225              	.LCFI4:
 226              		.cfi_def_cfa_offset 32
 227 0004 00AF     		add	r7, sp, #0
 228              		.cfi_offset 14, -4
 229              		.cfi_offset 7, -8
 230              	.LCFI5:
 231              		.cfi_def_cfa_register 7
 232 0006 7860     		str	r0, [r7, #4]
 193:C:\Micrium\Software\uCOS-III\Source\os_stat.c ****     OS_ERR   err;
 194:C:\Micrium\Software\uCOS-III\Source\os_stat.c ****     OS_TICK  dly;
 195:C:\Micrium\Software\uCOS-III\Source\os_stat.c ****     CPU_SR_ALLOC();
 233              		.loc 1 195 0
 234 0008 4FF00003 		mov	r3, #0
 235 000c 7B61     		str	r3, [r7, #20]
 196:C:\Micrium\Software\uCOS-III\Source\os_stat.c **** 
 197:C:\Micrium\Software\uCOS-III\Source\os_stat.c **** 
 198:C:\Micrium\Software\uCOS-III\Source\os_stat.c **** 
 199:C:\Micrium\Software\uCOS-III\Source\os_stat.c **** #ifdef OS_SAFETY_CRITICAL
 200:C:\Micrium\Software\uCOS-III\Source\os_stat.c ****     if (p_err == (OS_ERR *)0) {
 201:C:\Micrium\Software\uCOS-III\Source\os_stat.c ****         OS_SAFETY_CRITICAL_EXCEPTION();
 202:C:\Micrium\Software\uCOS-III\Source\os_stat.c ****         return;
 203:C:\Micrium\Software\uCOS-III\Source\os_stat.c ****     }
 204:C:\Micrium\Software\uCOS-III\Source\os_stat.c **** #endif
 205:C:\Micrium\Software\uCOS-III\Source\os_stat.c **** 
 206:C:\Micrium\Software\uCOS-III\Source\os_stat.c **** #if (OS_CFG_TMR_EN > 0u)
 207:C:\Micrium\Software\uCOS-III\Source\os_stat.c ****     OSTaskSuspend(&OSTmrTaskTCB, &err);
 236              		.loc 1 207 0
 237 000e 07F10E03 		add	r3, r7, #14
 238 0012 40F20000 		movw	r0, #:lower16:OSTmrTaskTCB
 239 0016 C0F20000 		movt	r0, #:upper16:OSTmrTaskTCB
 240 001a 1946     		mov	r1, r3
 241 001c FFF7FEFF 		bl	OSTaskSuspend
 208:C:\Micrium\Software\uCOS-III\Source\os_stat.c ****     if (err != OS_ERR_NONE) {
 242              		.loc 1 208 0
 243 0020 FB89     		ldrh	r3, [r7, #14]
 244 0022 002B     		cmp	r3, #0
ARM GAS  C:\Users\daniel01\AppData\Local\Temp\ccp4URRj.s 			page 9


 245 0024 03D0     		beq	.L8
 209:C:\Micrium\Software\uCOS-III\Source\os_stat.c ****        *p_err = err;
 246              		.loc 1 209 0
 247 0026 FA89     		ldrh	r2, [r7, #14]
 248 0028 7B68     		ldr	r3, [r7, #4]
 249 002a 1A80     		strh	r2, [r3, #0]	@ movhi
 210:C:\Micrium\Software\uCOS-III\Source\os_stat.c ****         return;
 250              		.loc 1 210 0
 251 002c 85E0     		b	.L14
 252              	.L8:
 211:C:\Micrium\Software\uCOS-III\Source\os_stat.c ****     }
 212:C:\Micrium\Software\uCOS-III\Source\os_stat.c **** #endif
 213:C:\Micrium\Software\uCOS-III\Source\os_stat.c **** 
 214:C:\Micrium\Software\uCOS-III\Source\os_stat.c ****     OSTimeDly((OS_TICK )2,                                  /* Synchronize with clock tick         
 253              		.loc 1 214 0
 254 002e 07F10E03 		add	r3, r7, #14
 255 0032 4FF00200 		mov	r0, #2
 256 0036 4FF00001 		mov	r1, #0
 257 003a 1A46     		mov	r2, r3
 258 003c FFF7FEFF 		bl	OSTimeDly
 215:C:\Micrium\Software\uCOS-III\Source\os_stat.c ****               (OS_OPT  )OS_OPT_TIME_DLY,
 216:C:\Micrium\Software\uCOS-III\Source\os_stat.c ****               (OS_ERR *)&err);
 217:C:\Micrium\Software\uCOS-III\Source\os_stat.c ****     if (err != OS_ERR_NONE) {
 259              		.loc 1 217 0
 260 0040 FB89     		ldrh	r3, [r7, #14]
 261 0042 002B     		cmp	r3, #0
 262 0044 03D0     		beq	.L10
 218:C:\Micrium\Software\uCOS-III\Source\os_stat.c ****        *p_err = err;
 263              		.loc 1 218 0
 264 0046 FA89     		ldrh	r2, [r7, #14]
 265 0048 7B68     		ldr	r3, [r7, #4]
 266 004a 1A80     		strh	r2, [r3, #0]	@ movhi
 219:C:\Micrium\Software\uCOS-III\Source\os_stat.c ****         return;
 267              		.loc 1 219 0
 268 004c 75E0     		b	.L14
 269              	.L10:
 220:C:\Micrium\Software\uCOS-III\Source\os_stat.c ****     }
 221:C:\Micrium\Software\uCOS-III\Source\os_stat.c ****     CPU_CRITICAL_ENTER();
 270              		.loc 1 221 0
 271 004e FFF7FEFF 		bl	CPU_SR_Save
 272 0052 0346     		mov	r3, r0
 273 0054 7B61     		str	r3, [r7, #20]
 222:C:\Micrium\Software\uCOS-III\Source\os_stat.c ****     OSStatTaskCtr = (OS_TICK)0;                             /* Clear idle counter                  
 274              		.loc 1 222 0
 275 0056 40F20003 		movw	r3, #:lower16:OSStatTaskCtr
 276 005a C0F20003 		movt	r3, #:upper16:OSStatTaskCtr
 277 005e 4FF00002 		mov	r2, #0
 278 0062 1A60     		str	r2, [r3, #0]
 223:C:\Micrium\Software\uCOS-III\Source\os_stat.c ****     CPU_CRITICAL_EXIT();
 279              		.loc 1 223 0
 280 0064 7869     		ldr	r0, [r7, #20]
 281 0066 FFF7FEFF 		bl	CPU_SR_Restore
 224:C:\Micrium\Software\uCOS-III\Source\os_stat.c **** 
 225:C:\Micrium\Software\uCOS-III\Source\os_stat.c ****     dly = (OS_TICK)0;
 282              		.loc 1 225 0
 283 006a 4FF00003 		mov	r3, #0
 284 006e 3B61     		str	r3, [r7, #16]
ARM GAS  C:\Users\daniel01\AppData\Local\Temp\ccp4URRj.s 			page 10


 226:C:\Micrium\Software\uCOS-III\Source\os_stat.c ****     if (OSCfg_TickRate_Hz > OSCfg_StatTaskRate_Hz) {
 285              		.loc 1 226 0
 286 0070 40F20003 		movw	r3, #:lower16:OSCfg_TickRate_Hz
 287 0074 C0F20003 		movt	r3, #:upper16:OSCfg_TickRate_Hz
 288 0078 1A68     		ldr	r2, [r3, #0]
 289 007a 40F20003 		movw	r3, #:lower16:OSCfg_StatTaskRate_Hz
 290 007e C0F20003 		movt	r3, #:upper16:OSCfg_StatTaskRate_Hz
 291 0082 1B68     		ldr	r3, [r3, #0]
 292 0084 9A42     		cmp	r2, r3
 293 0086 0CD9     		bls	.L11
 227:C:\Micrium\Software\uCOS-III\Source\os_stat.c ****         dly = (OS_TICK)(OSCfg_TickRate_Hz / OSCfg_StatTaskRate_Hz);
 294              		.loc 1 227 0
 295 0088 40F20003 		movw	r3, #:lower16:OSCfg_TickRate_Hz
 296 008c C0F20003 		movt	r3, #:upper16:OSCfg_TickRate_Hz
 297 0090 1A68     		ldr	r2, [r3, #0]
 298 0092 40F20003 		movw	r3, #:lower16:OSCfg_StatTaskRate_Hz
 299 0096 C0F20003 		movt	r3, #:upper16:OSCfg_StatTaskRate_Hz
 300 009a 1B68     		ldr	r3, [r3, #0]
 301 009c B2FBF3F3 		udiv	r3, r2, r3
 302 00a0 3B61     		str	r3, [r7, #16]
 303              	.L11:
 228:C:\Micrium\Software\uCOS-III\Source\os_stat.c ****     }
 229:C:\Micrium\Software\uCOS-III\Source\os_stat.c ****     if (dly == (OS_TICK)0) {
 304              		.loc 1 229 0
 305 00a2 3B69     		ldr	r3, [r7, #16]
 306 00a4 002B     		cmp	r3, #0
 307 00a6 0DD1     		bne	.L12
 230:C:\Micrium\Software\uCOS-III\Source\os_stat.c ****         dly =  (OS_TICK)(OSCfg_TickRate_Hz / (OS_RATE_HZ)10);
 308              		.loc 1 230 0
 309 00a8 40F20003 		movw	r3, #:lower16:OSCfg_TickRate_Hz
 310 00ac C0F20003 		movt	r3, #:upper16:OSCfg_TickRate_Hz
 311 00b0 1A68     		ldr	r2, [r3, #0]
 312 00b2 4CF6CD43 		movw	r3, #:lower16:-858993459
 313 00b6 CCF6CC43 		movt	r3, #:upper16:-858993459
 314 00ba A3FB0213 		umull	r1, r3, r3, r2
 315 00be 4FEAD303 		lsr	r3, r3, #3
 316 00c2 3B61     		str	r3, [r7, #16]
 317              	.L12:
 231:C:\Micrium\Software\uCOS-III\Source\os_stat.c ****     }
 232:C:\Micrium\Software\uCOS-III\Source\os_stat.c **** 
 233:C:\Micrium\Software\uCOS-III\Source\os_stat.c ****     OSTimeDly(dly,                                          /* Determine MAX. idle counter value   
 318              		.loc 1 233 0
 319 00c4 07F10E03 		add	r3, r7, #14
 320 00c8 3869     		ldr	r0, [r7, #16]
 321 00ca 4FF00001 		mov	r1, #0
 322 00ce 1A46     		mov	r2, r3
 323 00d0 FFF7FEFF 		bl	OSTimeDly
 234:C:\Micrium\Software\uCOS-III\Source\os_stat.c ****               OS_OPT_TIME_DLY,
 235:C:\Micrium\Software\uCOS-III\Source\os_stat.c ****               &err);
 236:C:\Micrium\Software\uCOS-III\Source\os_stat.c **** 
 237:C:\Micrium\Software\uCOS-III\Source\os_stat.c **** #if (OS_CFG_TMR_EN > 0u)
 238:C:\Micrium\Software\uCOS-III\Source\os_stat.c ****     OSTaskResume(&OSTmrTaskTCB, &err);
 324              		.loc 1 238 0
 325 00d4 07F10E03 		add	r3, r7, #14
 326 00d8 40F20000 		movw	r0, #:lower16:OSTmrTaskTCB
 327 00dc C0F20000 		movt	r0, #:upper16:OSTmrTaskTCB
 328 00e0 1946     		mov	r1, r3
ARM GAS  C:\Users\daniel01\AppData\Local\Temp\ccp4URRj.s 			page 11


 329 00e2 FFF7FEFF 		bl	OSTaskResume
 239:C:\Micrium\Software\uCOS-III\Source\os_stat.c ****     if (err != OS_ERR_NONE) {
 330              		.loc 1 239 0
 331 00e6 FB89     		ldrh	r3, [r7, #14]
 332 00e8 002B     		cmp	r3, #0
 333 00ea 03D0     		beq	.L13
 240:C:\Micrium\Software\uCOS-III\Source\os_stat.c ****        *p_err = err;
 334              		.loc 1 240 0
 335 00ec FA89     		ldrh	r2, [r7, #14]
 336 00ee 7B68     		ldr	r3, [r7, #4]
 337 00f0 1A80     		strh	r2, [r3, #0]	@ movhi
 241:C:\Micrium\Software\uCOS-III\Source\os_stat.c ****         return;
 338              		.loc 1 241 0
 339 00f2 22E0     		b	.L14
 340              	.L13:
 242:C:\Micrium\Software\uCOS-III\Source\os_stat.c ****     }
 243:C:\Micrium\Software\uCOS-III\Source\os_stat.c **** #endif
 244:C:\Micrium\Software\uCOS-III\Source\os_stat.c **** 
 245:C:\Micrium\Software\uCOS-III\Source\os_stat.c ****     CPU_CRITICAL_ENTER();
 341              		.loc 1 245 0
 342 00f4 FFF7FEFF 		bl	CPU_SR_Save
 343 00f8 0346     		mov	r3, r0
 344 00fa 7B61     		str	r3, [r7, #20]
 246:C:\Micrium\Software\uCOS-III\Source\os_stat.c ****     OSStatTaskTimeMax = (CPU_TS)0;
 345              		.loc 1 246 0
 346 00fc 40F20003 		movw	r3, #:lower16:OSStatTaskTimeMax
 347 0100 C0F20003 		movt	r3, #:upper16:OSStatTaskTimeMax
 348 0104 4FF00002 		mov	r2, #0
 349 0108 1A60     		str	r2, [r3, #0]
 247:C:\Micrium\Software\uCOS-III\Source\os_stat.c **** 
 248:C:\Micrium\Software\uCOS-III\Source\os_stat.c ****     OSStatTaskCtrMax  = OSStatTaskCtr;                      /* Store maximum idle counter count    
 350              		.loc 1 248 0
 351 010a 40F20003 		movw	r3, #:lower16:OSStatTaskCtr
 352 010e C0F20003 		movt	r3, #:upper16:OSStatTaskCtr
 353 0112 1A68     		ldr	r2, [r3, #0]
 354 0114 40F20003 		movw	r3, #:lower16:OSStatTaskCtrMax
 355 0118 C0F20003 		movt	r3, #:upper16:OSStatTaskCtrMax
 356 011c 1A60     		str	r2, [r3, #0]
 249:C:\Micrium\Software\uCOS-III\Source\os_stat.c ****     OSStatTaskRdy     = OS_STATE_RDY;
 357              		.loc 1 249 0
 358 011e 40F20003 		movw	r3, #:lower16:OSStatTaskRdy
 359 0122 C0F20003 		movt	r3, #:upper16:OSStatTaskRdy
 360 0126 4FF00102 		mov	r2, #1
 361 012a 1A70     		strb	r2, [r3, #0]
 250:C:\Micrium\Software\uCOS-III\Source\os_stat.c ****     CPU_CRITICAL_EXIT();
 362              		.loc 1 250 0
 363 012c 7869     		ldr	r0, [r7, #20]
 364 012e FFF7FEFF 		bl	CPU_SR_Restore
 251:C:\Micrium\Software\uCOS-III\Source\os_stat.c ****    *p_err             = OS_ERR_NONE;
 365              		.loc 1 251 0
 366 0132 7B68     		ldr	r3, [r7, #4]
 367 0134 4FF00002 		mov	r2, #0
 368 0138 1A80     		strh	r2, [r3, #0]	@ movhi
 369              	.L14:
 252:C:\Micrium\Software\uCOS-III\Source\os_stat.c **** }
 370              		.loc 1 252 0
 371 013a 07F11807 		add	r7, r7, #24
ARM GAS  C:\Users\daniel01\AppData\Local\Temp\ccp4URRj.s 			page 12


 372 013e BD46     		mov	sp, r7
 373 0140 80BD     		pop	{r7, pc}
 374              		.cfi_endproc
 375              	.LFE1:
 376              		.size	OSStatTaskCPUUsageInit, .-OSStatTaskCPUUsageInit
 377 0142 00BF     		.section	.text.OS_StatTask,"ax",%progbits
 378              		.align	2
 379              		.global	OS_StatTask
 380              		.thumb
 381              		.thumb_func
 382              		.type	OS_StatTask, %function
 383              	OS_StatTask:
 384              	.LFB2:
 253:C:\Micrium\Software\uCOS-III\Source\os_stat.c **** 
 254:C:\Micrium\Software\uCOS-III\Source\os_stat.c **** /*$PAGE*/
 255:C:\Micrium\Software\uCOS-III\Source\os_stat.c **** /*
 256:C:\Micrium\Software\uCOS-III\Source\os_stat.c **** ***************************************************************************************************
 257:C:\Micrium\Software\uCOS-III\Source\os_stat.c **** *                                                    STATISTICS TASK
 258:C:\Micrium\Software\uCOS-III\Source\os_stat.c **** *
 259:C:\Micrium\Software\uCOS-III\Source\os_stat.c **** * Description: This task is internal to uC/OS-III and is used to compute some statistics about the 
 260:C:\Micrium\Software\uCOS-III\Source\os_stat.c **** *              environment.  Specifically, OS_StatTask() computes the CPU usage.  CPU usage is dete
 261:C:\Micrium\Software\uCOS-III\Source\os_stat.c **** *
 262:C:\Micrium\Software\uCOS-III\Source\os_stat.c **** *                                                   OSStatTaskCtr
 263:C:\Micrium\Software\uCOS-III\Source\os_stat.c **** *                 OSStatTaskCPUUsage = 100 * (1 - ------------------)     (units are in %)
 264:C:\Micrium\Software\uCOS-III\Source\os_stat.c **** *                                                  OSStatTaskCtrMax
 265:C:\Micrium\Software\uCOS-III\Source\os_stat.c **** *
 266:C:\Micrium\Software\uCOS-III\Source\os_stat.c **** * Arguments  : p_arg     this pointer is not used at this time.
 267:C:\Micrium\Software\uCOS-III\Source\os_stat.c **** *
 268:C:\Micrium\Software\uCOS-III\Source\os_stat.c **** * Returns    : none
 269:C:\Micrium\Software\uCOS-III\Source\os_stat.c **** *
 270:C:\Micrium\Software\uCOS-III\Source\os_stat.c **** * Note(s)    : 1) This task runs at a priority level higher than the idle task.
 271:C:\Micrium\Software\uCOS-III\Source\os_stat.c **** *
 272:C:\Micrium\Software\uCOS-III\Source\os_stat.c **** *              2) You can disable this task by setting the configuration #define OS_CFG_STAT_TASK_E
 273:C:\Micrium\Software\uCOS-III\Source\os_stat.c **** *
 274:C:\Micrium\Software\uCOS-III\Source\os_stat.c **** *              3) You MUST have at least a delay of 2/10 seconds to allow for the system to establi
 275:C:\Micrium\Software\uCOS-III\Source\os_stat.c **** *                 for the idle counter.
 276:C:\Micrium\Software\uCOS-III\Source\os_stat.c **** *
 277:C:\Micrium\Software\uCOS-III\Source\os_stat.c **** *              4) This function is INTERNAL to uC/OS-III and your application should not call it.
 278:C:\Micrium\Software\uCOS-III\Source\os_stat.c **** ***************************************************************************************************
 279:C:\Micrium\Software\uCOS-III\Source\os_stat.c **** */
 280:C:\Micrium\Software\uCOS-III\Source\os_stat.c **** 
 281:C:\Micrium\Software\uCOS-III\Source\os_stat.c **** void  OS_StatTask (void  *p_arg)
 282:C:\Micrium\Software\uCOS-III\Source\os_stat.c **** {
 385              		.loc 1 282 0
 386              		.cfi_startproc
 387              		@ args = 0, pretend = 0, frame = 64
 388              		@ frame_needed = 1, uses_anonymous_args = 0
 389 0000 80B5     		push	{r7, lr}
 390              	.LCFI6:
 391              		.cfi_def_cfa_offset 8
 392 0002 90B0     		sub	sp, sp, #64
 393              	.LCFI7:
 394              		.cfi_def_cfa_offset 72
 395 0004 00AF     		add	r7, sp, #0
 396              		.cfi_offset 14, -4
 397              		.cfi_offset 7, -8
 398              	.LCFI8:
ARM GAS  C:\Users\daniel01\AppData\Local\Temp\ccp4URRj.s 			page 13


 399              		.cfi_def_cfa_register 7
 400 0006 7860     		str	r0, [r7, #4]
 283:C:\Micrium\Software\uCOS-III\Source\os_stat.c **** #if OS_CFG_DBG_EN > 0u
 284:C:\Micrium\Software\uCOS-III\Source\os_stat.c **** #if OS_CFG_TASK_PROFILE_EN > 0u
 285:C:\Micrium\Software\uCOS-III\Source\os_stat.c ****     OS_CPU_USAGE usage;
 286:C:\Micrium\Software\uCOS-III\Source\os_stat.c ****     OS_CYCLES    cycles_total;
 287:C:\Micrium\Software\uCOS-III\Source\os_stat.c ****     OS_CYCLES    cycles_div;
 288:C:\Micrium\Software\uCOS-III\Source\os_stat.c ****     OS_CYCLES    cycles_mult;
 289:C:\Micrium\Software\uCOS-III\Source\os_stat.c ****     OS_CYCLES    cycles_max;
 290:C:\Micrium\Software\uCOS-III\Source\os_stat.c **** #endif
 291:C:\Micrium\Software\uCOS-III\Source\os_stat.c ****     OS_TCB      *p_tcb;
 292:C:\Micrium\Software\uCOS-III\Source\os_stat.c **** #endif
 293:C:\Micrium\Software\uCOS-III\Source\os_stat.c ****     OS_TICK      ctr_max;
 294:C:\Micrium\Software\uCOS-III\Source\os_stat.c ****     OS_TICK      ctr_mult;
 295:C:\Micrium\Software\uCOS-III\Source\os_stat.c ****     OS_TICK      ctr_div;
 296:C:\Micrium\Software\uCOS-III\Source\os_stat.c ****     OS_ERR       err;
 297:C:\Micrium\Software\uCOS-III\Source\os_stat.c ****     OS_TICK      dly;
 298:C:\Micrium\Software\uCOS-III\Source\os_stat.c ****     CPU_TS       ts_start;
 299:C:\Micrium\Software\uCOS-III\Source\os_stat.c ****     CPU_TS       ts_end;
 300:C:\Micrium\Software\uCOS-III\Source\os_stat.c ****     CPU_SR_ALLOC();
 401              		.loc 1 300 0
 402 0008 4FF00003 		mov	r3, #0
 403 000c FB63     		str	r3, [r7, #60]
 301:C:\Micrium\Software\uCOS-III\Source\os_stat.c **** 
 302:C:\Micrium\Software\uCOS-III\Source\os_stat.c **** 
 303:C:\Micrium\Software\uCOS-III\Source\os_stat.c **** 
 304:C:\Micrium\Software\uCOS-III\Source\os_stat.c ****     p_arg = p_arg;                                          /* Prevent compiler warning for not usi
 305:C:\Micrium\Software\uCOS-III\Source\os_stat.c ****     while (OSStatTaskRdy != DEF_TRUE) {
 404              		.loc 1 305 0
 405 000e 0EE0     		b	.L16
 406              	.L17:
 306:C:\Micrium\Software\uCOS-III\Source\os_stat.c ****         OSTimeDly(2u * OSCfg_StatTaskRate_Hz,               /* Wait until statistic task is ready  
 407              		.loc 1 306 0
 408 0010 40F20003 		movw	r3, #:lower16:OSCfg_StatTaskRate_Hz
 409 0014 C0F20003 		movt	r3, #:upper16:OSCfg_StatTaskRate_Hz
 410 0018 1B68     		ldr	r3, [r3, #0]
 411 001a 4FEA4302 		lsl	r2, r3, #1
 412 001e 07F10C03 		add	r3, r7, #12
 413 0022 1046     		mov	r0, r2
 414 0024 4FF00001 		mov	r1, #0
 415 0028 1A46     		mov	r2, r3
 416 002a FFF7FEFF 		bl	OSTimeDly
 417              	.L16:
 418              		.loc 1 305 0
 419 002e 40F20003 		movw	r3, #:lower16:OSStatTaskRdy
 420 0032 C0F20003 		movt	r3, #:upper16:OSStatTaskRdy
 421 0036 1B78     		ldrb	r3, [r3, #0]	@ zero_extendqisi2
 422 0038 012B     		cmp	r3, #1
 423 003a E9D1     		bne	.L17
 307:C:\Micrium\Software\uCOS-III\Source\os_stat.c ****                   OS_OPT_TIME_DLY,
 308:C:\Micrium\Software\uCOS-III\Source\os_stat.c ****                   &err);
 309:C:\Micrium\Software\uCOS-III\Source\os_stat.c ****     }
 310:C:\Micrium\Software\uCOS-III\Source\os_stat.c ****     OSStatReset(&err);                                      /* Reset statistics                    
 424              		.loc 1 310 0
 425 003c 07F10C03 		add	r3, r7, #12
 426 0040 1846     		mov	r0, r3
 427 0042 FFF7FEFF 		bl	OSStatReset
ARM GAS  C:\Users\daniel01\AppData\Local\Temp\ccp4URRj.s 			page 14


 311:C:\Micrium\Software\uCOS-III\Source\os_stat.c **** 
 312:C:\Micrium\Software\uCOS-III\Source\os_stat.c ****     dly = (OS_TICK)0;                                       /* Compute statistic task sleep delay  
 428              		.loc 1 312 0
 429 0046 4FF00003 		mov	r3, #0
 430 004a 3B63     		str	r3, [r7, #48]
 313:C:\Micrium\Software\uCOS-III\Source\os_stat.c ****     if (OSCfg_TickRate_Hz > OSCfg_StatTaskRate_Hz) {
 431              		.loc 1 313 0
 432 004c 40F20003 		movw	r3, #:lower16:OSCfg_TickRate_Hz
 433 0050 C0F20003 		movt	r3, #:upper16:OSCfg_TickRate_Hz
 434 0054 1A68     		ldr	r2, [r3, #0]
 435 0056 40F20003 		movw	r3, #:lower16:OSCfg_StatTaskRate_Hz
 436 005a C0F20003 		movt	r3, #:upper16:OSCfg_StatTaskRate_Hz
 437 005e 1B68     		ldr	r3, [r3, #0]
 438 0060 9A42     		cmp	r2, r3
 439 0062 0CD9     		bls	.L18
 314:C:\Micrium\Software\uCOS-III\Source\os_stat.c ****         dly = (OS_TICK)(OSCfg_TickRate_Hz / OSCfg_StatTaskRate_Hz);
 440              		.loc 1 314 0
 441 0064 40F20003 		movw	r3, #:lower16:OSCfg_TickRate_Hz
 442 0068 C0F20003 		movt	r3, #:upper16:OSCfg_TickRate_Hz
 443 006c 1A68     		ldr	r2, [r3, #0]
 444 006e 40F20003 		movw	r3, #:lower16:OSCfg_StatTaskRate_Hz
 445 0072 C0F20003 		movt	r3, #:upper16:OSCfg_StatTaskRate_Hz
 446 0076 1B68     		ldr	r3, [r3, #0]
 447 0078 B2FBF3F3 		udiv	r3, r2, r3
 448 007c 3B63     		str	r3, [r7, #48]
 449              	.L18:
 315:C:\Micrium\Software\uCOS-III\Source\os_stat.c ****     }
 316:C:\Micrium\Software\uCOS-III\Source\os_stat.c ****     if (dly == (OS_TICK)0) {
 450              		.loc 1 316 0
 451 007e 3B6B     		ldr	r3, [r7, #48]
 452 0080 002B     		cmp	r3, #0
 453 0082 0DD1     		bne	.L19
 317:C:\Micrium\Software\uCOS-III\Source\os_stat.c ****         dly =  (OS_TICK)(OSCfg_TickRate_Hz / (OS_RATE_HZ)10);
 454              		.loc 1 317 0
 455 0084 40F20003 		movw	r3, #:lower16:OSCfg_TickRate_Hz
 456 0088 C0F20003 		movt	r3, #:upper16:OSCfg_TickRate_Hz
 457 008c 1A68     		ldr	r2, [r3, #0]
 458 008e 4CF6CD43 		movw	r3, #:lower16:-858993459
 459 0092 CCF6CC43 		movt	r3, #:upper16:-858993459
 460 0096 A3FB0213 		umull	r1, r3, r3, r2
 461 009a 4FEAD303 		lsr	r3, r3, #3
 462 009e 3B63     		str	r3, [r7, #48]
 463              	.L19:
 318:C:\Micrium\Software\uCOS-III\Source\os_stat.c ****     }
 319:C:\Micrium\Software\uCOS-III\Source\os_stat.c **** 
 320:C:\Micrium\Software\uCOS-III\Source\os_stat.c ****     while (DEF_ON) {
 321:C:\Micrium\Software\uCOS-III\Source\os_stat.c ****         ts_start        = OS_TS_GET();
 464              		.loc 1 321 0
 465 00a0 FFF7FEFF 		bl	CPU_TS_TmrRd
 466 00a4 0346     		mov	r3, r0
 467 00a6 7B63     		str	r3, [r7, #52]
 322:C:\Micrium\Software\uCOS-III\Source\os_stat.c **** #ifdef  CPU_CFG_INT_DIS_MEAS_EN
 323:C:\Micrium\Software\uCOS-III\Source\os_stat.c ****         OSIntDisTimeMax = CPU_IntDisMeasMaxGet();
 324:C:\Micrium\Software\uCOS-III\Source\os_stat.c **** #endif
 325:C:\Micrium\Software\uCOS-III\Source\os_stat.c **** 
 326:C:\Micrium\Software\uCOS-III\Source\os_stat.c ****         CPU_CRITICAL_ENTER();                               /* ----------------- OVERALL CPU USAGE 
 468              		.loc 1 326 0
ARM GAS  C:\Users\daniel01\AppData\Local\Temp\ccp4URRj.s 			page 15


 469 00a8 FFF7FEFF 		bl	CPU_SR_Save
 470 00ac 0346     		mov	r3, r0
 471 00ae FB63     		str	r3, [r7, #60]
 327:C:\Micrium\Software\uCOS-III\Source\os_stat.c ****         OSStatTaskCtrRun   = OSStatTaskCtr;                 /* Obtain the of the stat counter for t
 472              		.loc 1 327 0
 473 00b0 40F20003 		movw	r3, #:lower16:OSStatTaskCtr
 474 00b4 C0F20003 		movt	r3, #:upper16:OSStatTaskCtr
 475 00b8 1A68     		ldr	r2, [r3, #0]
 476 00ba 40F20003 		movw	r3, #:lower16:OSStatTaskCtrRun
 477 00be C0F20003 		movt	r3, #:upper16:OSStatTaskCtrRun
 478 00c2 1A60     		str	r2, [r3, #0]
 328:C:\Micrium\Software\uCOS-III\Source\os_stat.c ****         OSStatTaskCtr      = (OS_TICK)0;                    /* Reset the stat counter for the next 
 479              		.loc 1 328 0
 480 00c4 40F20003 		movw	r3, #:lower16:OSStatTaskCtr
 481 00c8 C0F20003 		movt	r3, #:upper16:OSStatTaskCtr
 482 00cc 4FF00002 		mov	r2, #0
 483 00d0 1A60     		str	r2, [r3, #0]
 329:C:\Micrium\Software\uCOS-III\Source\os_stat.c ****         CPU_CRITICAL_EXIT();
 484              		.loc 1 329 0
 485 00d2 F86B     		ldr	r0, [r7, #60]
 486 00d4 FFF7FEFF 		bl	CPU_SR_Restore
 330:C:\Micrium\Software\uCOS-III\Source\os_stat.c **** 
 331:C:\Micrium\Software\uCOS-III\Source\os_stat.c ****         if (OSStatTaskCtrMax > OSStatTaskCtrRun) {          /* Compute CPU Usage with best resoluti
 487              		.loc 1 331 0
 488 00d8 40F20003 		movw	r3, #:lower16:OSStatTaskCtrMax
 489 00dc C0F20003 		movt	r3, #:upper16:OSStatTaskCtrMax
 490 00e0 1A68     		ldr	r2, [r3, #0]
 491 00e2 40F20003 		movw	r3, #:lower16:OSStatTaskCtrRun
 492 00e6 C0F20003 		movt	r3, #:upper16:OSStatTaskCtrRun
 493 00ea 1B68     		ldr	r3, [r3, #0]
 494 00ec 9A42     		cmp	r2, r3
 495 00ee 40F28480 		bls	.L20
 332:C:\Micrium\Software\uCOS-III\Source\os_stat.c ****             if (OSStatTaskCtrMax < 400000u) {                                        /*            
 496              		.loc 1 332 0
 497 00f2 40F20003 		movw	r3, #:lower16:OSStatTaskCtrMax
 498 00f6 C0F20003 		movt	r3, #:upper16:OSStatTaskCtrMax
 499 00fa 1A68     		ldr	r2, [r3, #0]
 500 00fc 41F67F23 		movw	r3, #:lower16:399999
 501 0100 C0F20603 		movt	r3, #:upper16:399999
 502 0104 9A42     		cmp	r2, r3
 503 0106 06D8     		bhi	.L21
 333:C:\Micrium\Software\uCOS-III\Source\os_stat.c ****                 ctr_mult = 10000u;
 504              		.loc 1 333 0
 505 0108 42F21073 		movw	r3, #10000
 506 010c BB62     		str	r3, [r7, #40]
 334:C:\Micrium\Software\uCOS-III\Source\os_stat.c ****                 ctr_div  =     1u;
 507              		.loc 1 334 0
 508 010e 4FF00103 		mov	r3, #1
 509 0112 FB62     		str	r3, [r7, #44]
 510 0114 3BE0     		b	.L22
 511              	.L21:
 335:C:\Micrium\Software\uCOS-III\Source\os_stat.c ****             } else if (OSStatTaskCtrMax <   4000000u) {                              /*      400,00
 512              		.loc 1 335 0
 513 0116 40F20003 		movw	r3, #:lower16:OSStatTaskCtrMax
 514 011a C0F20003 		movt	r3, #:upper16:OSStatTaskCtrMax
 515 011e 1A68     		ldr	r2, [r3, #0]
 516 0120 40F6FF03 		movw	r3, #:lower16:3999999
ARM GAS  C:\Users\daniel01\AppData\Local\Temp\ccp4URRj.s 			page 16


 517 0124 C0F23D03 		movt	r3, #:upper16:3999999
 518 0128 9A42     		cmp	r2, r3
 519 012a 06D8     		bhi	.L23
 336:C:\Micrium\Software\uCOS-III\Source\os_stat.c ****                 ctr_mult =  1000u;
 520              		.loc 1 336 0
 521 012c 4FF47A73 		mov	r3, #1000
 522 0130 BB62     		str	r3, [r7, #40]
 337:C:\Micrium\Software\uCOS-III\Source\os_stat.c ****                 ctr_div  =    10u;
 523              		.loc 1 337 0
 524 0132 4FF00A03 		mov	r3, #10
 525 0136 FB62     		str	r3, [r7, #44]
 526 0138 29E0     		b	.L22
 527              	.L23:
 338:C:\Micrium\Software\uCOS-III\Source\os_stat.c ****             } else if (OSStatTaskCtrMax <  40000000u) {                              /*    4,000,00
 528              		.loc 1 338 0
 529 013a 40F20003 		movw	r3, #:lower16:OSStatTaskCtrMax
 530 013e C0F20003 		movt	r3, #:upper16:OSStatTaskCtrMax
 531 0142 1A68     		ldr	r2, [r3, #0]
 532 0144 45F6FF13 		movw	r3, #:lower16:39999999
 533 0148 C0F26223 		movt	r3, #:upper16:39999999
 534 014c 9A42     		cmp	r2, r3
 535 014e 06D8     		bhi	.L24
 339:C:\Micrium\Software\uCOS-III\Source\os_stat.c ****                 ctr_mult =   100u;
 536              		.loc 1 339 0
 537 0150 4FF06403 		mov	r3, #100
 538 0154 BB62     		str	r3, [r7, #40]
 340:C:\Micrium\Software\uCOS-III\Source\os_stat.c ****                 ctr_div  =   100u;
 539              		.loc 1 340 0
 540 0156 4FF06403 		mov	r3, #100
 541 015a FB62     		str	r3, [r7, #44]
 542 015c 17E0     		b	.L22
 543              	.L24:
 341:C:\Micrium\Software\uCOS-III\Source\os_stat.c ****             } else if (OSStatTaskCtrMax < 400000000u) {                              /*   40,000,00
 544              		.loc 1 341 0
 545 015e 40F20003 		movw	r3, #:lower16:OSStatTaskCtrMax
 546 0162 C0F20003 		movt	r3, #:upper16:OSStatTaskCtrMax
 547 0166 1A68     		ldr	r2, [r3, #0]
 548 0168 48F2FF33 		movw	r3, #:lower16:399999999
 549 016c C1F2D773 		movt	r3, #:upper16:399999999
 550 0170 9A42     		cmp	r2, r3
 551 0172 06D8     		bhi	.L25
 342:C:\Micrium\Software\uCOS-III\Source\os_stat.c ****                 ctr_mult =    10u;
 552              		.loc 1 342 0
 553 0174 4FF00A03 		mov	r3, #10
 554 0178 BB62     		str	r3, [r7, #40]
 343:C:\Micrium\Software\uCOS-III\Source\os_stat.c ****                 ctr_div  =  1000u;
 555              		.loc 1 343 0
 556 017a 4FF47A73 		mov	r3, #1000
 557 017e FB62     		str	r3, [r7, #44]
 558 0180 05E0     		b	.L22
 559              	.L25:
 344:C:\Micrium\Software\uCOS-III\Source\os_stat.c ****             } else {                                                                 /*  400,000,00
 345:C:\Micrium\Software\uCOS-III\Source\os_stat.c ****                 ctr_mult =     1u;
 560              		.loc 1 345 0
 561 0182 4FF00103 		mov	r3, #1
 562 0186 BB62     		str	r3, [r7, #40]
 346:C:\Micrium\Software\uCOS-III\Source\os_stat.c ****                 ctr_div  = 10000u;
ARM GAS  C:\Users\daniel01\AppData\Local\Temp\ccp4URRj.s 			page 17


 563              		.loc 1 346 0
 564 0188 42F21073 		movw	r3, #10000
 565 018c FB62     		str	r3, [r7, #44]
 566              	.L22:
 347:C:\Micrium\Software\uCOS-III\Source\os_stat.c ****             }
 348:C:\Micrium\Software\uCOS-III\Source\os_stat.c ****             ctr_max            = OSStatTaskCtrMax / ctr_div;
 567              		.loc 1 348 0
 568 018e 40F20003 		movw	r3, #:lower16:OSStatTaskCtrMax
 569 0192 C0F20003 		movt	r3, #:upper16:OSStatTaskCtrMax
 570 0196 1A68     		ldr	r2, [r3, #0]
 571 0198 FB6A     		ldr	r3, [r7, #44]
 572 019a B2FBF3F3 		udiv	r3, r2, r3
 573 019e 7B62     		str	r3, [r7, #36]
 349:C:\Micrium\Software\uCOS-III\Source\os_stat.c ****             OSStatTaskCPUUsage = (OS_CPU_USAGE)((OS_TICK)10000u - ctr_mult * OSStatTaskCtrRun / ctr
 574              		.loc 1 349 0
 575 01a0 40F20003 		movw	r3, #:lower16:OSStatTaskCtrRun
 576 01a4 C0F20003 		movt	r3, #:upper16:OSStatTaskCtrRun
 577 01a8 1B68     		ldr	r3, [r3, #0]
 578 01aa BA6A     		ldr	r2, [r7, #40]
 579 01ac 02FB03F2 		mul	r2, r2, r3
 580 01b0 7B6A     		ldr	r3, [r7, #36]
 581 01b2 B2FBF3F3 		udiv	r3, r2, r3
 582 01b6 9BB2     		uxth	r3, r3
 583 01b8 C3F51C53 		rsb	r3, r3, #9984
 584 01bc 03F11003 		add	r3, r3, #16
 585 01c0 9AB2     		uxth	r2, r3
 586 01c2 40F20003 		movw	r3, #:lower16:OSStatTaskCPUUsage
 587 01c6 C0F20003 		movt	r3, #:upper16:OSStatTaskCPUUsage
 588 01ca 1A80     		strh	r2, [r3, #0]	@ movhi
 350:C:\Micrium\Software\uCOS-III\Source\os_stat.c ****             if (OSStatTaskCPUUsageMax < OSStatTaskCPUUsage) {
 589              		.loc 1 350 0
 590 01cc 40F20003 		movw	r3, #:lower16:OSStatTaskCPUUsageMax
 591 01d0 C0F20003 		movt	r3, #:upper16:OSStatTaskCPUUsageMax
 592 01d4 1A88     		ldrh	r2, [r3, #0]
 593 01d6 40F20003 		movw	r3, #:lower16:OSStatTaskCPUUsage
 594 01da C0F20003 		movt	r3, #:upper16:OSStatTaskCPUUsage
 595 01de 1B88     		ldrh	r3, [r3, #0]
 596 01e0 9A42     		cmp	r2, r3
 597 01e2 12D2     		bcs	.L44
 351:C:\Micrium\Software\uCOS-III\Source\os_stat.c ****                 OSStatTaskCPUUsageMax = OSStatTaskCPUUsage;
 598              		.loc 1 351 0
 599 01e4 40F20003 		movw	r3, #:lower16:OSStatTaskCPUUsage
 600 01e8 C0F20003 		movt	r3, #:upper16:OSStatTaskCPUUsage
 601 01ec 1A88     		ldrh	r2, [r3, #0]
 602 01ee 40F20003 		movw	r3, #:lower16:OSStatTaskCPUUsageMax
 603 01f2 C0F20003 		movt	r3, #:upper16:OSStatTaskCPUUsageMax
 604 01f6 1A80     		strh	r2, [r3, #0]	@ movhi
 605 01f8 08E0     		b	.L27
 606              	.L20:
 352:C:\Micrium\Software\uCOS-III\Source\os_stat.c ****             }
 353:C:\Micrium\Software\uCOS-III\Source\os_stat.c ****         } else {
 354:C:\Micrium\Software\uCOS-III\Source\os_stat.c ****             OSStatTaskCPUUsage = (OS_CPU_USAGE)10000u;
 607              		.loc 1 354 0
 608 01fa 40F20003 		movw	r3, #:lower16:OSStatTaskCPUUsage
 609 01fe C0F20003 		movt	r3, #:upper16:OSStatTaskCPUUsage
 610 0202 42F21072 		movw	r2, #10000
 611 0206 1A80     		strh	r2, [r3, #0]	@ movhi
ARM GAS  C:\Users\daniel01\AppData\Local\Temp\ccp4URRj.s 			page 18


 612 0208 00E0     		b	.L27
 613              	.L44:
 614              		.loc 1 351 0
 615 020a 00BF     		nop
 616              	.L27:
 355:C:\Micrium\Software\uCOS-III\Source\os_stat.c ****         }
 356:C:\Micrium\Software\uCOS-III\Source\os_stat.c **** 
 357:C:\Micrium\Software\uCOS-III\Source\os_stat.c ****         OSStatTaskHook();                                   /* Invoke user definable hook          
 617              		.loc 1 357 0
 618 020c FFF7FEFF 		bl	OSStatTaskHook
 358:C:\Micrium\Software\uCOS-III\Source\os_stat.c **** 
 359:C:\Micrium\Software\uCOS-III\Source\os_stat.c **** 
 360:C:\Micrium\Software\uCOS-III\Source\os_stat.c **** #if OS_CFG_DBG_EN > 0u
 361:C:\Micrium\Software\uCOS-III\Source\os_stat.c **** #if OS_CFG_TASK_PROFILE_EN > 0u
 362:C:\Micrium\Software\uCOS-III\Source\os_stat.c ****         cycles_total = (OS_CYCLES)0;
 619              		.loc 1 362 0
 620 0210 4FF00003 		mov	r3, #0
 621 0214 3B61     		str	r3, [r7, #16]
 363:C:\Micrium\Software\uCOS-III\Source\os_stat.c **** 
 364:C:\Micrium\Software\uCOS-III\Source\os_stat.c ****         CPU_CRITICAL_ENTER();
 622              		.loc 1 364 0
 623 0216 FFF7FEFF 		bl	CPU_SR_Save
 624 021a 0346     		mov	r3, r0
 625 021c FB63     		str	r3, [r7, #60]
 365:C:\Micrium\Software\uCOS-III\Source\os_stat.c ****         p_tcb = OSTaskDbgListPtr;
 626              		.loc 1 365 0
 627 021e 40F20003 		movw	r3, #:lower16:OSTaskDbgListPtr
 628 0222 C0F20003 		movt	r3, #:upper16:OSTaskDbgListPtr
 629 0226 1B68     		ldr	r3, [r3, #0]
 630 0228 3B62     		str	r3, [r7, #32]
 366:C:\Micrium\Software\uCOS-III\Source\os_stat.c ****         CPU_CRITICAL_EXIT();
 631              		.loc 1 366 0
 632 022a F86B     		ldr	r0, [r7, #60]
 633 022c FFF7FEFF 		bl	CPU_SR_Restore
 367:C:\Micrium\Software\uCOS-III\Source\os_stat.c ****         while (p_tcb != (OS_TCB *)0) {                      /* ----------------- TOTAL CYCLES COUNT
 634              		.loc 1 367 0
 635 0230 22E0     		b	.L28
 636              	.L29:
 368:C:\Micrium\Software\uCOS-III\Source\os_stat.c ****             OS_CRITICAL_ENTER();
 637              		.loc 1 368 0
 638 0232 FFF7FEFF 		bl	CPU_SR_Save
 639 0236 0346     		mov	r3, r0
 640 0238 FB63     		str	r3, [r7, #60]
 369:C:\Micrium\Software\uCOS-III\Source\os_stat.c ****             p_tcb->CyclesTotalPrev =  p_tcb->CyclesTotal;   /* Save accumulated # cycles into a tem
 641              		.loc 1 369 0
 642 023a 3B6A     		ldr	r3, [r7, #32]
 643 023c D3F89C20 		ldr	r2, [r3, #156]
 644 0240 3B6A     		ldr	r3, [r7, #32]
 645 0242 C3F8A020 		str	r2, [r3, #160]
 370:C:\Micrium\Software\uCOS-III\Source\os_stat.c ****             p_tcb->CyclesTotal     = (OS_CYCLES)0;          /* Reset total cycles for task for next
 646              		.loc 1 370 0
 647 0246 3B6A     		ldr	r3, [r7, #32]
 648 0248 4FF00002 		mov	r2, #0
 649 024c C3F89C20 		str	r2, [r3, #156]
 371:C:\Micrium\Software\uCOS-III\Source\os_stat.c ****             OS_CRITICAL_EXIT();
 650              		.loc 1 371 0
 651 0250 F86B     		ldr	r0, [r7, #60]
ARM GAS  C:\Users\daniel01\AppData\Local\Temp\ccp4URRj.s 			page 19


 652 0252 FFF7FEFF 		bl	CPU_SR_Restore
 372:C:\Micrium\Software\uCOS-III\Source\os_stat.c **** 
 373:C:\Micrium\Software\uCOS-III\Source\os_stat.c ****             cycles_total          += p_tcb->CyclesTotalPrev;/* Perform sum of all task # cycles    
 653              		.loc 1 373 0
 654 0256 3B6A     		ldr	r3, [r7, #32]
 655 0258 D3F8A030 		ldr	r3, [r3, #160]
 656 025c 3A69     		ldr	r2, [r7, #16]
 657 025e 1344     		add	r3, r2, r3
 658 0260 3B61     		str	r3, [r7, #16]
 374:C:\Micrium\Software\uCOS-III\Source\os_stat.c **** 
 375:C:\Micrium\Software\uCOS-III\Source\os_stat.c ****             CPU_CRITICAL_ENTER();
 659              		.loc 1 375 0
 660 0262 FFF7FEFF 		bl	CPU_SR_Save
 661 0266 0346     		mov	r3, r0
 662 0268 FB63     		str	r3, [r7, #60]
 376:C:\Micrium\Software\uCOS-III\Source\os_stat.c ****             p_tcb                  = p_tcb->DbgNextPtr;
 663              		.loc 1 376 0
 664 026a 3B6A     		ldr	r3, [r7, #32]
 665 026c D3F8B830 		ldr	r3, [r3, #184]
 666 0270 3B62     		str	r3, [r7, #32]
 377:C:\Micrium\Software\uCOS-III\Source\os_stat.c ****             CPU_CRITICAL_EXIT();
 667              		.loc 1 377 0
 668 0272 F86B     		ldr	r0, [r7, #60]
 669 0274 FFF7FEFF 		bl	CPU_SR_Restore
 670              	.L28:
 671              		.loc 1 367 0
 672 0278 3B6A     		ldr	r3, [r7, #32]
 673 027a 002B     		cmp	r3, #0
 674 027c D9D1     		bne	.L29
 378:C:\Micrium\Software\uCOS-III\Source\os_stat.c ****         }
 379:C:\Micrium\Software\uCOS-III\Source\os_stat.c **** #endif
 380:C:\Micrium\Software\uCOS-III\Source\os_stat.c **** 
 381:C:\Micrium\Software\uCOS-III\Source\os_stat.c **** 
 382:C:\Micrium\Software\uCOS-III\Source\os_stat.c **** #if OS_CFG_TASK_PROFILE_EN > 0u
 383:C:\Micrium\Software\uCOS-III\Source\os_stat.c ****                                                             /* ------------- INDIVIDUAL TASK CPU US
 384:C:\Micrium\Software\uCOS-III\Source\os_stat.c ****         if (cycles_total > (OS_CYCLES)0u) {                                          /* 'cycles_tot
 675              		.loc 1 384 0
 676 027e 3B69     		ldr	r3, [r7, #16]
 677 0280 002B     		cmp	r3, #0
 678 0282 43D0     		beq	.L30
 385:C:\Micrium\Software\uCOS-III\Source\os_stat.c ****             if (cycles_total < 400000u) {                                            /*            
 679              		.loc 1 385 0
 680 0284 3A69     		ldr	r2, [r7, #16]
 681 0286 41F67F23 		movw	r3, #:lower16:399999
 682 028a C0F20603 		movt	r3, #:upper16:399999
 683 028e 9A42     		cmp	r2, r3
 684 0290 06D8     		bhi	.L31
 386:C:\Micrium\Software\uCOS-III\Source\os_stat.c ****                 cycles_mult = 10000u;
 685              		.loc 1 386 0
 686 0292 42F21073 		movw	r3, #10000
 687 0296 BB61     		str	r3, [r7, #24]
 387:C:\Micrium\Software\uCOS-III\Source\os_stat.c ****                 cycles_div  =     1u;
 688              		.loc 1 387 0
 689 0298 4FF00103 		mov	r3, #1
 690 029c 7B61     		str	r3, [r7, #20]
 691 029e 2FE0     		b	.L32
 692              	.L31:
ARM GAS  C:\Users\daniel01\AppData\Local\Temp\ccp4URRj.s 			page 20


 388:C:\Micrium\Software\uCOS-III\Source\os_stat.c ****             } else if (cycles_total <   4000000u) {                                  /*      400,00
 693              		.loc 1 388 0
 694 02a0 3A69     		ldr	r2, [r7, #16]
 695 02a2 40F6FF03 		movw	r3, #:lower16:3999999
 696 02a6 C0F23D03 		movt	r3, #:upper16:3999999
 697 02aa 9A42     		cmp	r2, r3
 698 02ac 06D8     		bhi	.L33
 389:C:\Micrium\Software\uCOS-III\Source\os_stat.c ****                 cycles_mult =  1000u;
 699              		.loc 1 389 0
 700 02ae 4FF47A73 		mov	r3, #1000
 701 02b2 BB61     		str	r3, [r7, #24]
 390:C:\Micrium\Software\uCOS-III\Source\os_stat.c ****                 cycles_div  =    10u;
 702              		.loc 1 390 0
 703 02b4 4FF00A03 		mov	r3, #10
 704 02b8 7B61     		str	r3, [r7, #20]
 705 02ba 21E0     		b	.L32
 706              	.L33:
 391:C:\Micrium\Software\uCOS-III\Source\os_stat.c ****             } else if (cycles_total <  40000000u) {                                  /*    4,000,00
 707              		.loc 1 391 0
 708 02bc 3A69     		ldr	r2, [r7, #16]
 709 02be 45F6FF13 		movw	r3, #:lower16:39999999
 710 02c2 C0F26223 		movt	r3, #:upper16:39999999
 711 02c6 9A42     		cmp	r2, r3
 712 02c8 06D8     		bhi	.L34
 392:C:\Micrium\Software\uCOS-III\Source\os_stat.c ****                 cycles_mult =   100u;
 713              		.loc 1 392 0
 714 02ca 4FF06403 		mov	r3, #100
 715 02ce BB61     		str	r3, [r7, #24]
 393:C:\Micrium\Software\uCOS-III\Source\os_stat.c ****                 cycles_div  =   100u;
 716              		.loc 1 393 0
 717 02d0 4FF06403 		mov	r3, #100
 718 02d4 7B61     		str	r3, [r7, #20]
 719 02d6 13E0     		b	.L32
 720              	.L34:
 394:C:\Micrium\Software\uCOS-III\Source\os_stat.c ****             } else if (cycles_total < 400000000u) {                                  /*   40,000,00
 721              		.loc 1 394 0
 722 02d8 3A69     		ldr	r2, [r7, #16]
 723 02da 48F2FF33 		movw	r3, #:lower16:399999999
 724 02de C1F2D773 		movt	r3, #:upper16:399999999
 725 02e2 9A42     		cmp	r2, r3
 726 02e4 06D8     		bhi	.L35
 395:C:\Micrium\Software\uCOS-III\Source\os_stat.c ****                 cycles_mult =    10u;
 727              		.loc 1 395 0
 728 02e6 4FF00A03 		mov	r3, #10
 729 02ea BB61     		str	r3, [r7, #24]
 396:C:\Micrium\Software\uCOS-III\Source\os_stat.c ****                 cycles_div  =  1000u;
 730              		.loc 1 396 0
 731 02ec 4FF47A73 		mov	r3, #1000
 732 02f0 7B61     		str	r3, [r7, #20]
 733 02f2 05E0     		b	.L32
 734              	.L35:
 397:C:\Micrium\Software\uCOS-III\Source\os_stat.c ****             } else {                                                                 /*  400,000,00
 398:C:\Micrium\Software\uCOS-III\Source\os_stat.c ****                 cycles_mult =     1u;
 735              		.loc 1 398 0
 736 02f4 4FF00103 		mov	r3, #1
 737 02f8 BB61     		str	r3, [r7, #24]
 399:C:\Micrium\Software\uCOS-III\Source\os_stat.c ****                 cycles_div  = 10000u;
ARM GAS  C:\Users\daniel01\AppData\Local\Temp\ccp4URRj.s 			page 21


 738              		.loc 1 399 0
 739 02fa 42F21073 		movw	r3, #10000
 740 02fe 7B61     		str	r3, [r7, #20]
 741              	.L32:
 400:C:\Micrium\Software\uCOS-III\Source\os_stat.c ****             }
 401:C:\Micrium\Software\uCOS-III\Source\os_stat.c ****             cycles_max  = cycles_total / cycles_div;
 742              		.loc 1 401 0
 743 0300 3A69     		ldr	r2, [r7, #16]
 744 0302 7B69     		ldr	r3, [r7, #20]
 745 0304 B2FBF3F3 		udiv	r3, r2, r3
 746 0308 FB61     		str	r3, [r7, #28]
 747 030a 05E0     		b	.L36
 748              	.L30:
 402:C:\Micrium\Software\uCOS-III\Source\os_stat.c ****         } else {
 403:C:\Micrium\Software\uCOS-III\Source\os_stat.c ****             cycles_mult = 0u;
 749              		.loc 1 403 0
 750 030c 4FF00003 		mov	r3, #0
 751 0310 BB61     		str	r3, [r7, #24]
 404:C:\Micrium\Software\uCOS-III\Source\os_stat.c ****             cycles_max  = 1u;
 752              		.loc 1 404 0
 753 0312 4FF00103 		mov	r3, #1
 754 0316 FB61     		str	r3, [r7, #28]
 755              	.L36:
 405:C:\Micrium\Software\uCOS-III\Source\os_stat.c ****         }
 406:C:\Micrium\Software\uCOS-III\Source\os_stat.c **** #endif
 407:C:\Micrium\Software\uCOS-III\Source\os_stat.c ****         CPU_CRITICAL_ENTER();
 756              		.loc 1 407 0
 757 0318 FFF7FEFF 		bl	CPU_SR_Save
 758 031c 0346     		mov	r3, r0
 759 031e FB63     		str	r3, [r7, #60]
 408:C:\Micrium\Software\uCOS-III\Source\os_stat.c ****         p_tcb = OSTaskDbgListPtr;
 760              		.loc 1 408 0
 761 0320 40F20003 		movw	r3, #:lower16:OSTaskDbgListPtr
 762 0324 C0F20003 		movt	r3, #:upper16:OSTaskDbgListPtr
 763 0328 1B68     		ldr	r3, [r3, #0]
 764 032a 3B62     		str	r3, [r7, #32]
 409:C:\Micrium\Software\uCOS-III\Source\os_stat.c ****         CPU_CRITICAL_EXIT();
 765              		.loc 1 409 0
 766 032c F86B     		ldr	r0, [r7, #60]
 767 032e FFF7FEFF 		bl	CPU_SR_Restore
 410:C:\Micrium\Software\uCOS-III\Source\os_stat.c ****         while (p_tcb != (OS_TCB *)0) {
 768              		.loc 1 410 0
 769 0332 35E0     		b	.L37
 770              	.L40:
 411:C:\Micrium\Software\uCOS-III\Source\os_stat.c **** #if OS_CFG_TASK_PROFILE_EN > 0u                             /* Compute execution time of each task 
 412:C:\Micrium\Software\uCOS-III\Source\os_stat.c ****             usage = (OS_CPU_USAGE)(cycles_mult * p_tcb->CyclesTotalPrev / cycles_max);
 771              		.loc 1 412 0
 772 0334 3B6A     		ldr	r3, [r7, #32]
 773 0336 D3F8A030 		ldr	r3, [r3, #160]
 774 033a BA69     		ldr	r2, [r7, #24]
 775 033c 02FB03F2 		mul	r2, r2, r3
 776 0340 FB69     		ldr	r3, [r7, #28]
 777 0342 B2FBF3F3 		udiv	r3, r2, r3
 778 0346 FB81     		strh	r3, [r7, #14]	@ movhi
 413:C:\Micrium\Software\uCOS-III\Source\os_stat.c ****             if (usage > 10000u) {
 779              		.loc 1 413 0
 780 0348 FA89     		ldrh	r2, [r7, #14]
ARM GAS  C:\Users\daniel01\AppData\Local\Temp\ccp4URRj.s 			page 22


 781 034a 42F21073 		movw	r3, #10000
 782 034e 9A42     		cmp	r2, r3
 783 0350 02D9     		bls	.L38
 414:C:\Micrium\Software\uCOS-III\Source\os_stat.c ****                 usage = 10000u;
 784              		.loc 1 414 0
 785 0352 42F21073 		movw	r3, #10000
 786 0356 FB81     		strh	r3, [r7, #14]	@ movhi
 787              	.L38:
 415:C:\Micrium\Software\uCOS-III\Source\os_stat.c ****             }
 416:C:\Micrium\Software\uCOS-III\Source\os_stat.c ****             p_tcb->CPUUsage = usage;
 788              		.loc 1 416 0
 789 0358 3B6A     		ldr	r3, [r7, #32]
 790 035a FA89     		ldrh	r2, [r7, #14]	@ movhi
 791 035c A3F88C20 		strh	r2, [r3, #140]	@ movhi
 417:C:\Micrium\Software\uCOS-III\Source\os_stat.c ****             if (p_tcb->CPUUsageMax < usage) {               /* Detect peak CPU usage               
 792              		.loc 1 417 0
 793 0360 3B6A     		ldr	r3, [r7, #32]
 794 0362 B3F88E30 		ldrh	r3, [r3, #142]
 795 0366 FA89     		ldrh	r2, [r7, #14]
 796 0368 9A42     		cmp	r2, r3
 797 036a 03D9     		bls	.L39
 418:C:\Micrium\Software\uCOS-III\Source\os_stat.c ****                 p_tcb->CPUUsageMax = usage;
 798              		.loc 1 418 0
 799 036c 3B6A     		ldr	r3, [r7, #32]
 800 036e FA89     		ldrh	r2, [r7, #14]	@ movhi
 801 0370 A3F88E20 		strh	r2, [r3, #142]	@ movhi
 802              	.L39:
 419:C:\Micrium\Software\uCOS-III\Source\os_stat.c ****             }
 420:C:\Micrium\Software\uCOS-III\Source\os_stat.c **** #endif
 421:C:\Micrium\Software\uCOS-III\Source\os_stat.c **** 
 422:C:\Micrium\Software\uCOS-III\Source\os_stat.c **** #if OS_CFG_STAT_TASK_STK_CHK_EN > 0u
 423:C:\Micrium\Software\uCOS-III\Source\os_stat.c ****             OSTaskStkChk( p_tcb,                            /* Compute stack usage of active tasks 
 803              		.loc 1 423 0
 804 0374 3B6A     		ldr	r3, [r7, #32]
 805 0376 03F1B001 		add	r1, r3, #176
 806 037a 3B6A     		ldr	r3, [r7, #32]
 807 037c 03F1AC02 		add	r2, r3, #172
 808 0380 07F10C03 		add	r3, r7, #12
 809 0384 386A     		ldr	r0, [r7, #32]
 810 0386 FFF7FEFF 		bl	OSTaskStkChk
 424:C:\Micrium\Software\uCOS-III\Source\os_stat.c ****                          &p_tcb->StkFree,
 425:C:\Micrium\Software\uCOS-III\Source\os_stat.c ****                          &p_tcb->StkUsed,
 426:C:\Micrium\Software\uCOS-III\Source\os_stat.c ****                          &err);
 427:C:\Micrium\Software\uCOS-III\Source\os_stat.c **** #endif
 428:C:\Micrium\Software\uCOS-III\Source\os_stat.c **** 
 429:C:\Micrium\Software\uCOS-III\Source\os_stat.c ****             CPU_CRITICAL_ENTER();
 811              		.loc 1 429 0
 812 038a FFF7FEFF 		bl	CPU_SR_Save
 813 038e 0346     		mov	r3, r0
 814 0390 FB63     		str	r3, [r7, #60]
 430:C:\Micrium\Software\uCOS-III\Source\os_stat.c ****             p_tcb = p_tcb->DbgNextPtr;
 815              		.loc 1 430 0
 816 0392 3B6A     		ldr	r3, [r7, #32]
 817 0394 D3F8B830 		ldr	r3, [r3, #184]
 818 0398 3B62     		str	r3, [r7, #32]
 431:C:\Micrium\Software\uCOS-III\Source\os_stat.c ****             CPU_CRITICAL_EXIT();
 819              		.loc 1 431 0
ARM GAS  C:\Users\daniel01\AppData\Local\Temp\ccp4URRj.s 			page 23


 820 039a F86B     		ldr	r0, [r7, #60]
 821 039c FFF7FEFF 		bl	CPU_SR_Restore
 822              	.L37:
 823              		.loc 1 410 0
 824 03a0 3B6A     		ldr	r3, [r7, #32]
 825 03a2 002B     		cmp	r3, #0
 826 03a4 C6D1     		bne	.L40
 432:C:\Micrium\Software\uCOS-III\Source\os_stat.c ****         }
 433:C:\Micrium\Software\uCOS-III\Source\os_stat.c **** #endif
 434:C:\Micrium\Software\uCOS-III\Source\os_stat.c **** 
 435:C:\Micrium\Software\uCOS-III\Source\os_stat.c ****         if (OSStatResetFlag == DEF_TRUE) {                  /* Check if need to reset statistics   
 827              		.loc 1 435 0
 828 03a6 40F20003 		movw	r3, #:lower16:OSStatResetFlag
 829 03aa C0F20003 		movt	r3, #:upper16:OSStatResetFlag
 830 03ae 1B78     		ldrb	r3, [r3, #0]	@ zero_extendqisi2
 831 03b0 012B     		cmp	r3, #1
 832 03b2 0BD1     		bne	.L41
 436:C:\Micrium\Software\uCOS-III\Source\os_stat.c ****             OSStatResetFlag  = DEF_FALSE;
 833              		.loc 1 436 0
 834 03b4 40F20003 		movw	r3, #:lower16:OSStatResetFlag
 835 03b8 C0F20003 		movt	r3, #:upper16:OSStatResetFlag
 836 03bc 4FF00002 		mov	r2, #0
 837 03c0 1A70     		strb	r2, [r3, #0]
 437:C:\Micrium\Software\uCOS-III\Source\os_stat.c ****             OSStatReset(&err);
 838              		.loc 1 437 0
 839 03c2 07F10C03 		add	r3, r7, #12
 840 03c6 1846     		mov	r0, r3
 841 03c8 FFF7FEFF 		bl	OSStatReset
 842              	.L41:
 438:C:\Micrium\Software\uCOS-III\Source\os_stat.c ****         }
 439:C:\Micrium\Software\uCOS-III\Source\os_stat.c **** 
 440:C:\Micrium\Software\uCOS-III\Source\os_stat.c ****         ts_end = OS_TS_GET() - ts_start;                    /* Measure execution time of statistic 
 843              		.loc 1 440 0
 844 03cc FFF7FEFF 		bl	CPU_TS_TmrRd
 845 03d0 0246     		mov	r2, r0
 846 03d2 7B6B     		ldr	r3, [r7, #52]
 847 03d4 C3EB0203 		rsb	r3, r3, r2
 848 03d8 BB63     		str	r3, [r7, #56]
 441:C:\Micrium\Software\uCOS-III\Source\os_stat.c ****         if (OSStatTaskTimeMax < ts_end) {
 849              		.loc 1 441 0
 850 03da 40F20003 		movw	r3, #:lower16:OSStatTaskTimeMax
 851 03de C0F20003 		movt	r3, #:upper16:OSStatTaskTimeMax
 852 03e2 1A68     		ldr	r2, [r3, #0]
 853 03e4 BB6B     		ldr	r3, [r7, #56]
 854 03e6 9A42     		cmp	r2, r3
 855 03e8 05D2     		bcs	.L42
 442:C:\Micrium\Software\uCOS-III\Source\os_stat.c ****             OSStatTaskTimeMax = ts_end;
 856              		.loc 1 442 0
 857 03ea 40F20003 		movw	r3, #:lower16:OSStatTaskTimeMax
 858 03ee C0F20003 		movt	r3, #:upper16:OSStatTaskTimeMax
 859 03f2 BA6B     		ldr	r2, [r7, #56]
 860 03f4 1A60     		str	r2, [r3, #0]
 861              	.L42:
 443:C:\Micrium\Software\uCOS-III\Source\os_stat.c ****         }
 444:C:\Micrium\Software\uCOS-III\Source\os_stat.c **** 
 445:C:\Micrium\Software\uCOS-III\Source\os_stat.c ****         OSTimeDly(dly,
 862              		.loc 1 445 0
ARM GAS  C:\Users\daniel01\AppData\Local\Temp\ccp4URRj.s 			page 24


 863 03f6 07F10C03 		add	r3, r7, #12
 864 03fa 386B     		ldr	r0, [r7, #48]
 865 03fc 4FF00001 		mov	r1, #0
 866 0400 1A46     		mov	r2, r3
 867 0402 FFF7FEFF 		bl	OSTimeDly
 446:C:\Micrium\Software\uCOS-III\Source\os_stat.c ****                   OS_OPT_TIME_DLY,
 447:C:\Micrium\Software\uCOS-III\Source\os_stat.c ****                   &err);
 448:C:\Micrium\Software\uCOS-III\Source\os_stat.c ****     }
 868              		.loc 1 448 0
 869 0406 4BE6     		b	.L19
 870              		.cfi_endproc
 871              	.LFE2:
 872              		.size	OS_StatTask, .-OS_StatTask
 873              		.section	.rodata
 874              		.align	2
 875              	.LC0:
 876 0000 75432F4F 		.ascii	"uC/OS-III Stat Task\000"
 876      532D4949 
 876      49205374 
 876      61742054 
 876      61736B00 
 877              		.section	.text.OS_StatTaskInit,"ax",%progbits
 878              		.align	2
 879              		.global	OS_StatTaskInit
 880              		.thumb
 881              		.thumb_func
 882              		.type	OS_StatTaskInit, %function
 883              	OS_StatTaskInit:
 884              	.LFB3:
 449:C:\Micrium\Software\uCOS-III\Source\os_stat.c **** }
 450:C:\Micrium\Software\uCOS-III\Source\os_stat.c **** 
 451:C:\Micrium\Software\uCOS-III\Source\os_stat.c **** /*$PAGE*/
 452:C:\Micrium\Software\uCOS-III\Source\os_stat.c **** /*
 453:C:\Micrium\Software\uCOS-III\Source\os_stat.c **** ***************************************************************************************************
 454:C:\Micrium\Software\uCOS-III\Source\os_stat.c **** *                                              INITIALIZE THE STATISTICS
 455:C:\Micrium\Software\uCOS-III\Source\os_stat.c **** *
 456:C:\Micrium\Software\uCOS-III\Source\os_stat.c **** * Description: This function is called by OSInit() to initialize the statistic task.
 457:C:\Micrium\Software\uCOS-III\Source\os_stat.c **** *
 458:C:\Micrium\Software\uCOS-III\Source\os_stat.c **** * Argument(s): p_err     is a pointer to a variable that will contain an error code returned by thi
 459:C:\Micrium\Software\uCOS-III\Source\os_stat.c **** *
 460:C:\Micrium\Software\uCOS-III\Source\os_stat.c **** *                            OS_ERR_STK_INVALID       If you specified a NULL stack pointer during 
 461:C:\Micrium\Software\uCOS-III\Source\os_stat.c **** *                            OS_ERR_STK_SIZE_INVALID  If you didn't specify a large enough stack.
 462:C:\Micrium\Software\uCOS-III\Source\os_stat.c **** *                            OS_ERR_PRIO_INVALID      If you specified a priority for the statistic
 463:C:\Micrium\Software\uCOS-III\Source\os_stat.c **** *                                                     lower (i.e. higher number) than the idle task
 464:C:\Micrium\Software\uCOS-III\Source\os_stat.c **** *                            OS_ERR_xxx               An error code returned by OSTaskCreate()
 465:C:\Micrium\Software\uCOS-III\Source\os_stat.c **** *
 466:C:\Micrium\Software\uCOS-III\Source\os_stat.c **** * Returns    : none
 467:C:\Micrium\Software\uCOS-III\Source\os_stat.c **** *
 468:C:\Micrium\Software\uCOS-III\Source\os_stat.c **** * Note(s)    : This function is INTERNAL to uC/OS-III and your application should not call it.
 469:C:\Micrium\Software\uCOS-III\Source\os_stat.c **** ***************************************************************************************************
 470:C:\Micrium\Software\uCOS-III\Source\os_stat.c **** */
 471:C:\Micrium\Software\uCOS-III\Source\os_stat.c **** 
 472:C:\Micrium\Software\uCOS-III\Source\os_stat.c **** void  OS_StatTaskInit (OS_ERR  *p_err)
 473:C:\Micrium\Software\uCOS-III\Source\os_stat.c **** {
 885              		.loc 1 473 0
 886              		.cfi_startproc
 887              		@ args = 0, pretend = 0, frame = 8
ARM GAS  C:\Users\daniel01\AppData\Local\Temp\ccp4URRj.s 			page 25


 888              		@ frame_needed = 1, uses_anonymous_args = 0
 889 0000 80B5     		push	{r7, lr}
 890              	.LCFI9:
 891              		.cfi_def_cfa_offset 8
 892 0002 8CB0     		sub	sp, sp, #48
 893              	.LCFI10:
 894              		.cfi_def_cfa_offset 56
 895 0004 0AAF     		add	r7, sp, #40
 896              		.cfi_offset 14, -4
 897              		.cfi_offset 7, -8
 898              	.LCFI11:
 899              		.cfi_def_cfa 7, 16
 900 0006 7860     		str	r0, [r7, #4]
 474:C:\Micrium\Software\uCOS-III\Source\os_stat.c **** #ifdef OS_SAFETY_CRITICAL
 475:C:\Micrium\Software\uCOS-III\Source\os_stat.c ****     if (p_err == (OS_ERR *)0) {
 476:C:\Micrium\Software\uCOS-III\Source\os_stat.c ****         OS_SAFETY_CRITICAL_EXCEPTION();
 477:C:\Micrium\Software\uCOS-III\Source\os_stat.c ****         return;
 478:C:\Micrium\Software\uCOS-III\Source\os_stat.c ****     }
 479:C:\Micrium\Software\uCOS-III\Source\os_stat.c **** #endif
 480:C:\Micrium\Software\uCOS-III\Source\os_stat.c **** 
 481:C:\Micrium\Software\uCOS-III\Source\os_stat.c ****     OSStatTaskCtr    = (OS_TICK)0;
 901              		.loc 1 481 0
 902 0008 40F20003 		movw	r3, #:lower16:OSStatTaskCtr
 903 000c C0F20003 		movt	r3, #:upper16:OSStatTaskCtr
 904 0010 4FF00002 		mov	r2, #0
 905 0014 1A60     		str	r2, [r3, #0]
 482:C:\Micrium\Software\uCOS-III\Source\os_stat.c ****     OSStatTaskCtrRun = (OS_TICK)0;
 906              		.loc 1 482 0
 907 0016 40F20003 		movw	r3, #:lower16:OSStatTaskCtrRun
 908 001a C0F20003 		movt	r3, #:upper16:OSStatTaskCtrRun
 909 001e 4FF00002 		mov	r2, #0
 910 0022 1A60     		str	r2, [r3, #0]
 483:C:\Micrium\Software\uCOS-III\Source\os_stat.c ****     OSStatTaskCtrMax = (OS_TICK)0;
 911              		.loc 1 483 0
 912 0024 40F20003 		movw	r3, #:lower16:OSStatTaskCtrMax
 913 0028 C0F20003 		movt	r3, #:upper16:OSStatTaskCtrMax
 914 002c 4FF00002 		mov	r2, #0
 915 0030 1A60     		str	r2, [r3, #0]
 484:C:\Micrium\Software\uCOS-III\Source\os_stat.c ****     OSStatTaskRdy    = OS_STATE_NOT_RDY;                    /* Statistic task is not ready         
 916              		.loc 1 484 0
 917 0032 40F20003 		movw	r3, #:lower16:OSStatTaskRdy
 918 0036 C0F20003 		movt	r3, #:upper16:OSStatTaskRdy
 919 003a 4FF00002 		mov	r2, #0
 920 003e 1A70     		strb	r2, [r3, #0]
 485:C:\Micrium\Software\uCOS-III\Source\os_stat.c ****     OSStatResetFlag  = DEF_FALSE;
 921              		.loc 1 485 0
 922 0040 40F20003 		movw	r3, #:lower16:OSStatResetFlag
 923 0044 C0F20003 		movt	r3, #:upper16:OSStatResetFlag
 924 0048 4FF00002 		mov	r2, #0
 925 004c 1A70     		strb	r2, [r3, #0]
 486:C:\Micrium\Software\uCOS-III\Source\os_stat.c **** 
 487:C:\Micrium\Software\uCOS-III\Source\os_stat.c ****                                                             /* ---------------- CREATE THE STAT TAS
 488:C:\Micrium\Software\uCOS-III\Source\os_stat.c ****     if (OSCfg_StatTaskStkBasePtr == (CPU_STK *)0) {
 926              		.loc 1 488 0
 927 004e 40F20003 		movw	r3, #:lower16:OSCfg_StatTaskStkBasePtr
 928 0052 C0F20003 		movt	r3, #:upper16:OSCfg_StatTaskStkBasePtr
 929 0056 1B68     		ldr	r3, [r3, #0]
ARM GAS  C:\Users\daniel01\AppData\Local\Temp\ccp4URRj.s 			page 26


 930 0058 002B     		cmp	r3, #0
 931 005a 04D1     		bne	.L46
 489:C:\Micrium\Software\uCOS-III\Source\os_stat.c ****        *p_err = OS_ERR_STAT_STK_INVALID;
 932              		.loc 1 489 0
 933 005c 7B68     		ldr	r3, [r7, #4]
 934 005e 46F62B62 		movw	r2, #28203
 935 0062 1A80     		strh	r2, [r3, #0]	@ movhi
 490:C:\Micrium\Software\uCOS-III\Source\os_stat.c ****         return;
 936              		.loc 1 490 0
 937 0064 52E0     		b	.L50
 938              	.L46:
 491:C:\Micrium\Software\uCOS-III\Source\os_stat.c ****     }
 492:C:\Micrium\Software\uCOS-III\Source\os_stat.c **** 
 493:C:\Micrium\Software\uCOS-III\Source\os_stat.c ****     if (OSCfg_StatTaskStkSize < OSCfg_StkSizeMin) {
 939              		.loc 1 493 0
 940 0066 40F20003 		movw	r3, #:lower16:OSCfg_StatTaskStkSize
 941 006a C0F20003 		movt	r3, #:upper16:OSCfg_StatTaskStkSize
 942 006e 1A68     		ldr	r2, [r3, #0]
 943 0070 40F20003 		movw	r3, #:lower16:OSCfg_StkSizeMin
 944 0074 C0F20003 		movt	r3, #:upper16:OSCfg_StkSizeMin
 945 0078 1B68     		ldr	r3, [r3, #0]
 946 007a 9A42     		cmp	r2, r3
 947 007c 04D2     		bcs	.L48
 494:C:\Micrium\Software\uCOS-III\Source\os_stat.c ****        *p_err = OS_ERR_STAT_STK_SIZE_INVALID;
 948              		.loc 1 494 0
 949 007e 7B68     		ldr	r3, [r7, #4]
 950 0080 46F62C62 		movw	r2, #28204
 951 0084 1A80     		strh	r2, [r3, #0]	@ movhi
 495:C:\Micrium\Software\uCOS-III\Source\os_stat.c ****         return;
 952              		.loc 1 495 0
 953 0086 41E0     		b	.L50
 954              	.L48:
 496:C:\Micrium\Software\uCOS-III\Source\os_stat.c ****     }
 497:C:\Micrium\Software\uCOS-III\Source\os_stat.c **** 
 498:C:\Micrium\Software\uCOS-III\Source\os_stat.c ****     if (OSCfg_StatTaskPrio >= (OS_CFG_PRIO_MAX - 1u)) {
 955              		.loc 1 498 0
 956 0088 40F20003 		movw	r3, #:lower16:OSCfg_StatTaskPrio
 957 008c C0F20003 		movt	r3, #:upper16:OSCfg_StatTaskPrio
 958 0090 1B78     		ldrb	r3, [r3, #0]	@ zero_extendqisi2
 959 0092 062B     		cmp	r3, #6
 960 0094 04D9     		bls	.L49
 499:C:\Micrium\Software\uCOS-III\Source\os_stat.c ****        *p_err = OS_ERR_STAT_PRIO_INVALID;
 961              		.loc 1 499 0
 962 0096 7B68     		ldr	r3, [r7, #4]
 963 0098 46F62A62 		movw	r2, #28202
 964 009c 1A80     		strh	r2, [r3, #0]	@ movhi
 500:C:\Micrium\Software\uCOS-III\Source\os_stat.c ****         return;
 965              		.loc 1 500 0
 966 009e 35E0     		b	.L50
 967              	.L49:
 501:C:\Micrium\Software\uCOS-III\Source\os_stat.c ****     }
 502:C:\Micrium\Software\uCOS-III\Source\os_stat.c **** 
 503:C:\Micrium\Software\uCOS-III\Source\os_stat.c ****     OSTaskCreate((OS_TCB     *)&OSStatTaskTCB,
 968              		.loc 1 503 0
 969 00a0 40F20003 		movw	r3, #:lower16:OSCfg_StatTaskPrio
 970 00a4 C0F20003 		movt	r3, #:upper16:OSCfg_StatTaskPrio
 971 00a8 1878     		ldrb	r0, [r3, #0]	@ zero_extendqisi2
ARM GAS  C:\Users\daniel01\AppData\Local\Temp\ccp4URRj.s 			page 27


 972 00aa 40F20003 		movw	r3, #:lower16:OSCfg_StatTaskStkBasePtr
 973 00ae C0F20003 		movt	r3, #:upper16:OSCfg_StatTaskStkBasePtr
 974 00b2 1968     		ldr	r1, [r3, #0]
 975 00b4 40F20003 		movw	r3, #:lower16:OSCfg_StatTaskStkLimit
 976 00b8 C0F20003 		movt	r3, #:upper16:OSCfg_StatTaskStkLimit
 977 00bc 1A68     		ldr	r2, [r3, #0]
 978 00be 40F20003 		movw	r3, #:lower16:OSCfg_StatTaskStkSize
 979 00c2 C0F20003 		movt	r3, #:upper16:OSCfg_StatTaskStkSize
 980 00c6 1B68     		ldr	r3, [r3, #0]
 981 00c8 0090     		str	r0, [sp, #0]
 982 00ca 0191     		str	r1, [sp, #4]
 983 00cc 0292     		str	r2, [sp, #8]
 984 00ce 0393     		str	r3, [sp, #12]
 985 00d0 4FF00003 		mov	r3, #0
 986 00d4 0493     		str	r3, [sp, #16]
 987 00d6 4FF00003 		mov	r3, #0
 988 00da 0593     		str	r3, [sp, #20]
 989 00dc 4FF00003 		mov	r3, #0
 990 00e0 0693     		str	r3, [sp, #24]
 991 00e2 4FF00303 		mov	r3, #3
 992 00e6 0793     		str	r3, [sp, #28]
 993 00e8 7B68     		ldr	r3, [r7, #4]
 994 00ea 0893     		str	r3, [sp, #32]
 995 00ec 40F20000 		movw	r0, #:lower16:OSStatTaskTCB
 996 00f0 C0F20000 		movt	r0, #:upper16:OSStatTaskTCB
 997 00f4 40F20001 		movw	r1, #:lower16:.LC0
 998 00f8 C0F20001 		movt	r1, #:upper16:.LC0
 999 00fc 40F20002 		movw	r2, #:lower16:OS_StatTask
 1000 0100 C0F20002 		movt	r2, #:upper16:OS_StatTask
 1001 0104 4FF00003 		mov	r3, #0
 1002 0108 FFF7FEFF 		bl	OSTaskCreate
 1003              	.L50:
 504:C:\Micrium\Software\uCOS-III\Source\os_stat.c ****                  (CPU_CHAR   *)((void *)"uC/OS-III Stat Task"),
 505:C:\Micrium\Software\uCOS-III\Source\os_stat.c ****                  (OS_TASK_PTR )OS_StatTask,
 506:C:\Micrium\Software\uCOS-III\Source\os_stat.c ****                  (void       *)0,
 507:C:\Micrium\Software\uCOS-III\Source\os_stat.c ****                  (OS_PRIO     )OSCfg_StatTaskPrio,
 508:C:\Micrium\Software\uCOS-III\Source\os_stat.c ****                  (CPU_STK    *)OSCfg_StatTaskStkBasePtr,
 509:C:\Micrium\Software\uCOS-III\Source\os_stat.c ****                  (CPU_STK_SIZE)OSCfg_StatTaskStkLimit,
 510:C:\Micrium\Software\uCOS-III\Source\os_stat.c ****                  (CPU_STK_SIZE)OSCfg_StatTaskStkSize,
 511:C:\Micrium\Software\uCOS-III\Source\os_stat.c ****                  (OS_MSG_QTY  )0,
 512:C:\Micrium\Software\uCOS-III\Source\os_stat.c ****                  (OS_TICK     )0,
 513:C:\Micrium\Software\uCOS-III\Source\os_stat.c ****                  (void       *)0,
 514:C:\Micrium\Software\uCOS-III\Source\os_stat.c ****                  (OS_OPT      )(OS_OPT_TASK_STK_CHK | OS_OPT_TASK_STK_CLR),
 515:C:\Micrium\Software\uCOS-III\Source\os_stat.c ****                  (OS_ERR     *)p_err);
 516:C:\Micrium\Software\uCOS-III\Source\os_stat.c **** }
 1004              		.loc 1 516 0
 1005 010c 07F10807 		add	r7, r7, #8
 1006 0110 BD46     		mov	sp, r7
 1007 0112 80BD     		pop	{r7, pc}
 1008              		.cfi_endproc
 1009              	.LFE3:
 1010              		.size	OS_StatTaskInit, .-OS_StatTaskInit
 1011              		.text
 1012              	.Letext0: