ARM GAS  C:\Users\daniel01\AppData\Local\Temp\ccip0sTe.s 			page 1


   1              		.syntax unified
   2              		.cpu cortex-m3
   3              		.fpu softvfp
   4              		.eabi_attribute 20, 1
   5              		.eabi_attribute 21, 1
   6              		.eabi_attribute 23, 3
   7              		.eabi_attribute 24, 1
   8              		.eabi_attribute 25, 1
   9              		.eabi_attribute 26, 1
  10              		.eabi_attribute 30, 6
  11              		.eabi_attribute 18, 4
  12              		.thumb
  13              		.file	"os_sem.c"
  20 0000 B4020000 		.text
  20      0200D500 
  20      00000201 
  20      FB0E0D00 
  20      01010101 
  21              	.Ltext0:
  22              		.cfi_sections	.debug_frame
  23              		.section	.text.OSSemCreate,"ax",%progbits
  24              		.align	2
  25              		.global	OSSemCreate
  26              		.thumb
  27              		.thumb_func
  28              		.type	OSSemCreate, %function
  29              	OSSemCreate:
  30              	.LFB0:
  31              		.file 1 "C:\\Micrium\\Software\\uCOS-III\\Source\\os_sem.c"
   1:C:\Micrium\Software\uCOS-III\Source\os_sem.c **** /*
   2:C:\Micrium\Software\uCOS-III\Source\os_sem.c **** ***************************************************************************************************
   3:C:\Micrium\Software\uCOS-III\Source\os_sem.c **** *                                                      uC/OS-III
   4:C:\Micrium\Software\uCOS-III\Source\os_sem.c **** *                                                 The Real-Time Kernel
   5:C:\Micrium\Software\uCOS-III\Source\os_sem.c **** *
   6:C:\Micrium\Software\uCOS-III\Source\os_sem.c **** *                                  (c) Copyright 2009-2012; Micrium, Inc.; Weston, FL
   7:C:\Micrium\Software\uCOS-III\Source\os_sem.c **** *                           All rights reserved.  Protected by international copyright laws.
   8:C:\Micrium\Software\uCOS-III\Source\os_sem.c **** *
   9:C:\Micrium\Software\uCOS-III\Source\os_sem.c **** *                                                 SEMAPHORE MANAGEMENT
  10:C:\Micrium\Software\uCOS-III\Source\os_sem.c **** *
  11:C:\Micrium\Software\uCOS-III\Source\os_sem.c **** * File    : OS_SEM.C
  12:C:\Micrium\Software\uCOS-III\Source\os_sem.c **** * By      : JJL
  13:C:\Micrium\Software\uCOS-III\Source\os_sem.c **** * Version : V3.03.01
  14:C:\Micrium\Software\uCOS-III\Source\os_sem.c **** *
  15:C:\Micrium\Software\uCOS-III\Source\os_sem.c **** * LICENSING TERMS:
  16:C:\Micrium\Software\uCOS-III\Source\os_sem.c **** * ---------------
  17:C:\Micrium\Software\uCOS-III\Source\os_sem.c **** *           uC/OS-III is provided in source form for FREE short-term evaluation, for educational us
  18:C:\Micrium\Software\uCOS-III\Source\os_sem.c **** *           for peaceful research.  If you plan or intend to use uC/OS-III in a commercial applicat
  19:C:\Micrium\Software\uCOS-III\Source\os_sem.c **** *           product then, you need to contact Micrium to properly license uC/OS-III for its use in 
  20:C:\Micrium\Software\uCOS-III\Source\os_sem.c **** *           application/product.   We provide ALL the source code for your convenience and to help 
  21:C:\Micrium\Software\uCOS-III\Source\os_sem.c **** *           experience uC/OS-III.  The fact that the source is provided does NOT mean that you can 
  22:C:\Micrium\Software\uCOS-III\Source\os_sem.c **** *           it commercially without paying a licensing fee.
ARM GAS  C:\Users\daniel01\AppData\Local\Temp\ccip0sTe.s 			page 2


  23:C:\Micrium\Software\uCOS-III\Source\os_sem.c **** *
  24:C:\Micrium\Software\uCOS-III\Source\os_sem.c **** *           Knowledge of the source code may NOT be used to develop a similar product.
  25:C:\Micrium\Software\uCOS-III\Source\os_sem.c **** *
  26:C:\Micrium\Software\uCOS-III\Source\os_sem.c **** *           Please help us continue to provide the embedded community with the finest software avai
  27:C:\Micrium\Software\uCOS-III\Source\os_sem.c **** *           Your honesty is greatly appreciated.
  28:C:\Micrium\Software\uCOS-III\Source\os_sem.c **** *
  29:C:\Micrium\Software\uCOS-III\Source\os_sem.c **** *           You can contact us at www.micrium.com, or by phone at +1 (954) 217-2036.
  30:C:\Micrium\Software\uCOS-III\Source\os_sem.c **** ***************************************************************************************************
  31:C:\Micrium\Software\uCOS-III\Source\os_sem.c **** */
  32:C:\Micrium\Software\uCOS-III\Source\os_sem.c **** 
  33:C:\Micrium\Software\uCOS-III\Source\os_sem.c **** #define  MICRIUM_SOURCE
  34:C:\Micrium\Software\uCOS-III\Source\os_sem.c **** #include <os.h>
  35:C:\Micrium\Software\uCOS-III\Source\os_sem.c **** 
  36:C:\Micrium\Software\uCOS-III\Source\os_sem.c **** #ifdef VSC_INCLUDE_SOURCE_FILE_NAMES
  37:C:\Micrium\Software\uCOS-III\Source\os_sem.c **** const  CPU_CHAR  *os_sem__c = "$Id: $";
  38:C:\Micrium\Software\uCOS-III\Source\os_sem.c **** #endif
  39:C:\Micrium\Software\uCOS-III\Source\os_sem.c **** 
  40:C:\Micrium\Software\uCOS-III\Source\os_sem.c **** 
  41:C:\Micrium\Software\uCOS-III\Source\os_sem.c **** #if OS_CFG_SEM_EN > 0u
  42:C:\Micrium\Software\uCOS-III\Source\os_sem.c **** /*
  43:C:\Micrium\Software\uCOS-III\Source\os_sem.c **** ***************************************************************************************************
  44:C:\Micrium\Software\uCOS-III\Source\os_sem.c **** *                                                  CREATE A SEMAPHORE
  45:C:\Micrium\Software\uCOS-III\Source\os_sem.c **** *
  46:C:\Micrium\Software\uCOS-III\Source\os_sem.c **** * Description: This function creates a semaphore.
  47:C:\Micrium\Software\uCOS-III\Source\os_sem.c **** *
  48:C:\Micrium\Software\uCOS-III\Source\os_sem.c **** * Arguments  : p_sem         is a pointer to the semaphore to initialize.  Your application is resp
  49:C:\Micrium\Software\uCOS-III\Source\os_sem.c **** *                            allocating storage for the semaphore.
  50:C:\Micrium\Software\uCOS-III\Source\os_sem.c **** *
  51:C:\Micrium\Software\uCOS-III\Source\os_sem.c **** *              p_name        is a pointer to the name you would like to give the semaphore.
  52:C:\Micrium\Software\uCOS-III\Source\os_sem.c **** *
  53:C:\Micrium\Software\uCOS-III\Source\os_sem.c **** *              cnt           is the initial value for the semaphore.
  54:C:\Micrium\Software\uCOS-III\Source\os_sem.c **** *                            If used to share resources, you should initialize to the number of res
  55:C:\Micrium\Software\uCOS-III\Source\os_sem.c **** *                            If used to signal the occurrence of event(s) then you should initializ
  56:C:\Micrium\Software\uCOS-III\Source\os_sem.c **** *
  57:C:\Micrium\Software\uCOS-III\Source\os_sem.c **** *              p_err         is a pointer to a variable that will contain an error code returned by
  58:C:\Micrium\Software\uCOS-III\Source\os_sem.c **** *
  59:C:\Micrium\Software\uCOS-III\Source\os_sem.c **** *                                OS_ERR_NONE                    if the call was successful
  60:C:\Micrium\Software\uCOS-III\Source\os_sem.c **** *                                OS_ERR_CREATE_ISR              if you called this function from an
  61:C:\Micrium\Software\uCOS-III\Source\os_sem.c **** *                                OS_ERR_ILLEGAL_CREATE_RUN_TIME if you are trying to create the sem
  62:C:\Micrium\Software\uCOS-III\Source\os_sem.c **** *                                                                 called OSSafetyCriticalStart().
  63:C:\Micrium\Software\uCOS-III\Source\os_sem.c **** *                                OS_ERR_NAME                    if 'p_name' is a NULL pointer
  64:C:\Micrium\Software\uCOS-III\Source\os_sem.c **** *                                OS_ERR_OBJ_CREATED             if the semaphore has already been c
  65:C:\Micrium\Software\uCOS-III\Source\os_sem.c **** *                                OS_ERR_OBJ_PTR_NULL            if 'p_sem'  is a NULL pointer
  66:C:\Micrium\Software\uCOS-III\Source\os_sem.c **** *                                OS_ERR_OBJ_TYPE                if 'p_sem' has already been initial
  67:C:\Micrium\Software\uCOS-III\Source\os_sem.c **** *                                                               object type
  68:C:\Micrium\Software\uCOS-III\Source\os_sem.c **** *
  69:C:\Micrium\Software\uCOS-III\Source\os_sem.c **** * Returns    : none
  70:C:\Micrium\Software\uCOS-III\Source\os_sem.c **** ***************************************************************************************************
  71:C:\Micrium\Software\uCOS-III\Source\os_sem.c **** */
  72:C:\Micrium\Software\uCOS-III\Source\os_sem.c **** 
  73:C:\Micrium\Software\uCOS-III\Source\os_sem.c **** void  OSSemCreate (OS_SEM      *p_sem,
  74:C:\Micrium\Software\uCOS-III\Source\os_sem.c ****                    CPU_CHAR    *p_name,
  75:C:\Micrium\Software\uCOS-III\Source\os_sem.c ****                    OS_SEM_CTR   cnt,
  76:C:\Micrium\Software\uCOS-III\Source\os_sem.c ****                    OS_ERR      *p_err)
  77:C:\Micrium\Software\uCOS-III\Source\os_sem.c **** {
  32              		.loc 1 77 0
  33              		.cfi_startproc
ARM GAS  C:\Users\daniel01\AppData\Local\Temp\ccip0sTe.s 			page 3


  34              		@ args = 0, pretend = 0, frame = 24
  35              		@ frame_needed = 1, uses_anonymous_args = 0
  36 0000 80B5     		push	{r7, lr}
  37              	.LCFI0:
  38              		.cfi_def_cfa_offset 8
  39 0002 86B0     		sub	sp, sp, #24
  40              	.LCFI1:
  41              		.cfi_def_cfa_offset 32
  42 0004 00AF     		add	r7, sp, #0
  43              		.cfi_offset 14, -4
  44              		.cfi_offset 7, -8
  45              	.LCFI2:
  46              		.cfi_def_cfa_register 7
  47 0006 F860     		str	r0, [r7, #12]
  48 0008 B960     		str	r1, [r7, #8]
  49 000a 7A60     		str	r2, [r7, #4]
  50 000c 3B60     		str	r3, [r7, #0]
  78:C:\Micrium\Software\uCOS-III\Source\os_sem.c ****     CPU_SR_ALLOC();
  51              		.loc 1 78 0
  52 000e 4FF00003 		mov	r3, #0
  53 0012 7B61     		str	r3, [r7, #20]
  79:C:\Micrium\Software\uCOS-III\Source\os_sem.c **** 
  80:C:\Micrium\Software\uCOS-III\Source\os_sem.c **** 
  81:C:\Micrium\Software\uCOS-III\Source\os_sem.c **** 
  82:C:\Micrium\Software\uCOS-III\Source\os_sem.c **** #ifdef OS_SAFETY_CRITICAL
  83:C:\Micrium\Software\uCOS-III\Source\os_sem.c ****     if (p_err == (OS_ERR *)0) {
  84:C:\Micrium\Software\uCOS-III\Source\os_sem.c ****         OS_SAFETY_CRITICAL_EXCEPTION();
  85:C:\Micrium\Software\uCOS-III\Source\os_sem.c ****         return;
  86:C:\Micrium\Software\uCOS-III\Source\os_sem.c ****     }
  87:C:\Micrium\Software\uCOS-III\Source\os_sem.c **** #endif
  88:C:\Micrium\Software\uCOS-III\Source\os_sem.c **** 
  89:C:\Micrium\Software\uCOS-III\Source\os_sem.c **** #ifdef OS_SAFETY_CRITICAL_IEC61508
  90:C:\Micrium\Software\uCOS-III\Source\os_sem.c ****     if (OSSafetyCriticalStartFlag == DEF_TRUE) {
  91:C:\Micrium\Software\uCOS-III\Source\os_sem.c ****        *p_err = OS_ERR_ILLEGAL_CREATE_RUN_TIME;
  92:C:\Micrium\Software\uCOS-III\Source\os_sem.c ****         return;
  93:C:\Micrium\Software\uCOS-III\Source\os_sem.c ****     }
  94:C:\Micrium\Software\uCOS-III\Source\os_sem.c **** #endif
  95:C:\Micrium\Software\uCOS-III\Source\os_sem.c **** 
  96:C:\Micrium\Software\uCOS-III\Source\os_sem.c **** #if OS_CFG_CALLED_FROM_ISR_CHK_EN > 0u
  97:C:\Micrium\Software\uCOS-III\Source\os_sem.c ****     if (OSIntNestingCtr > (OS_NESTING_CTR)0) {              /* Not allowed to be called from an ISR
  54              		.loc 1 97 0
  55 0014 40F20003 		movw	r3, #:lower16:OSIntNestingCtr
  56 0018 C0F20003 		movt	r3, #:upper16:OSIntNestingCtr
  57 001c 1B78     		ldrb	r3, [r3, #0]	@ zero_extendqisi2
  58 001e 002B     		cmp	r3, #0
  59 0020 04D0     		beq	.L2
  98:C:\Micrium\Software\uCOS-III\Source\os_sem.c ****        *p_err = OS_ERR_CREATE_ISR;
  60              		.loc 1 98 0
  61 0022 3B68     		ldr	r3, [r7, #0]
  62 0024 42F6E162 		movw	r2, #12001
  63 0028 1A80     		strh	r2, [r3, #0]	@ movhi
  99:C:\Micrium\Software\uCOS-III\Source\os_sem.c ****         return;
  64              		.loc 1 99 0
  65 002a 38E0     		b	.L5
  66              	.L2:
 100:C:\Micrium\Software\uCOS-III\Source\os_sem.c ****     }
 101:C:\Micrium\Software\uCOS-III\Source\os_sem.c **** #endif
ARM GAS  C:\Users\daniel01\AppData\Local\Temp\ccip0sTe.s 			page 4


 102:C:\Micrium\Software\uCOS-III\Source\os_sem.c **** 
 103:C:\Micrium\Software\uCOS-III\Source\os_sem.c **** #if OS_CFG_ARG_CHK_EN > 0u
 104:C:\Micrium\Software\uCOS-III\Source\os_sem.c ****     if (p_sem == (OS_SEM *)0) {                             /* Validate 'p_sem'                    
  67              		.loc 1 104 0
  68 002c FB68     		ldr	r3, [r7, #12]
  69 002e 002B     		cmp	r3, #0
  70 0030 04D1     		bne	.L4
 105:C:\Micrium\Software\uCOS-III\Source\os_sem.c ****        *p_err = OS_ERR_OBJ_PTR_NULL;
  71              		.loc 1 105 0
  72 0032 3B68     		ldr	r3, [r7, #0]
  73 0034 45F6C352 		movw	r2, #24003
  74 0038 1A80     		strh	r2, [r3, #0]	@ movhi
 106:C:\Micrium\Software\uCOS-III\Source\os_sem.c ****         return;
  75              		.loc 1 106 0
  76 003a 30E0     		b	.L5
  77              	.L4:
 107:C:\Micrium\Software\uCOS-III\Source\os_sem.c ****     }
 108:C:\Micrium\Software\uCOS-III\Source\os_sem.c **** #endif
 109:C:\Micrium\Software\uCOS-III\Source\os_sem.c **** 
 110:C:\Micrium\Software\uCOS-III\Source\os_sem.c ****     OS_CRITICAL_ENTER();
  78              		.loc 1 110 0
  79 003c FFF7FEFF 		bl	CPU_SR_Save
  80 0040 0346     		mov	r3, r0
  81 0042 7B61     		str	r3, [r7, #20]
 111:C:\Micrium\Software\uCOS-III\Source\os_sem.c ****     p_sem->Type    = OS_OBJ_TYPE_SEM;                       /* Mark the data structure as a semapho
  82              		.loc 1 111 0
  83 0044 FA68     		ldr	r2, [r7, #12]
  84 0046 44F25353 		movw	r3, #:lower16:1095583059
  85 004a C4F24D13 		movt	r3, #:upper16:1095583059
  86 004e 1360     		str	r3, [r2, #0]
 112:C:\Micrium\Software\uCOS-III\Source\os_sem.c ****     p_sem->Ctr     = cnt;                                   /* Set semaphore value                 
  87              		.loc 1 112 0
  88 0050 FB68     		ldr	r3, [r7, #12]
  89 0052 7A68     		ldr	r2, [r7, #4]
  90 0054 1A62     		str	r2, [r3, #32]
 113:C:\Micrium\Software\uCOS-III\Source\os_sem.c ****     p_sem->TS      = (CPU_TS)0;
  91              		.loc 1 113 0
  92 0056 FB68     		ldr	r3, [r7, #12]
  93 0058 4FF00002 		mov	r2, #0
  94 005c 5A62     		str	r2, [r3, #36]
 114:C:\Micrium\Software\uCOS-III\Source\os_sem.c ****     p_sem->NamePtr = p_name;                                /* Save the name of the semaphore      
  95              		.loc 1 114 0
  96 005e FB68     		ldr	r3, [r7, #12]
  97 0060 BA68     		ldr	r2, [r7, #8]
  98 0062 5A60     		str	r2, [r3, #4]
 115:C:\Micrium\Software\uCOS-III\Source\os_sem.c ****     OS_PendListInit(&p_sem->PendList);                      /* Initialize the waiting list         
  99              		.loc 1 115 0
 100 0064 FB68     		ldr	r3, [r7, #12]
 101 0066 03F10803 		add	r3, r3, #8
 102 006a 1846     		mov	r0, r3
 103 006c FFF7FEFF 		bl	OS_PendListInit
 116:C:\Micrium\Software\uCOS-III\Source\os_sem.c **** 
 117:C:\Micrium\Software\uCOS-III\Source\os_sem.c **** #if OS_CFG_DBG_EN > 0u
 118:C:\Micrium\Software\uCOS-III\Source\os_sem.c ****     OS_SemDbgListAdd(p_sem);
 104              		.loc 1 118 0
 105 0070 F868     		ldr	r0, [r7, #12]
 106 0072 FFF7FEFF 		bl	OS_SemDbgListAdd
ARM GAS  C:\Users\daniel01\AppData\Local\Temp\ccip0sTe.s 			page 5


 119:C:\Micrium\Software\uCOS-III\Source\os_sem.c **** #endif
 120:C:\Micrium\Software\uCOS-III\Source\os_sem.c ****     OSSemQty++;
 107              		.loc 1 120 0
 108 0076 40F20003 		movw	r3, #:lower16:OSSemQty
 109 007a C0F20003 		movt	r3, #:upper16:OSSemQty
 110 007e 1B88     		ldrh	r3, [r3, #0]
 111 0080 03F10103 		add	r3, r3, #1
 112 0084 9AB2     		uxth	r2, r3
 113 0086 40F20003 		movw	r3, #:lower16:OSSemQty
 114 008a C0F20003 		movt	r3, #:upper16:OSSemQty
 115 008e 1A80     		strh	r2, [r3, #0]	@ movhi
 121:C:\Micrium\Software\uCOS-III\Source\os_sem.c **** 
 122:C:\Micrium\Software\uCOS-III\Source\os_sem.c ****     OS_CRITICAL_EXIT_NO_SCHED();
 116              		.loc 1 122 0
 117 0090 7869     		ldr	r0, [r7, #20]
 118 0092 FFF7FEFF 		bl	CPU_SR_Restore
 123:C:\Micrium\Software\uCOS-III\Source\os_sem.c ****    *p_err = OS_ERR_NONE;
 119              		.loc 1 123 0
 120 0096 3B68     		ldr	r3, [r7, #0]
 121 0098 4FF00002 		mov	r2, #0
 122 009c 1A80     		strh	r2, [r3, #0]	@ movhi
 123              	.L5:
 124:C:\Micrium\Software\uCOS-III\Source\os_sem.c **** }
 124              		.loc 1 124 0
 125 009e 07F11807 		add	r7, r7, #24
 126 00a2 BD46     		mov	sp, r7
 127 00a4 80BD     		pop	{r7, pc}
 128              		.cfi_endproc
 129              	.LFE0:
 130              		.size	OSSemCreate, .-OSSemCreate
 131 00a6 00BF     		.section	.text.OSSemDel,"ax",%progbits
 132              		.align	2
 133              		.global	OSSemDel
 134              		.thumb
 135              		.thumb_func
 136              		.type	OSSemDel, %function
 137              	OSSemDel:
 138              	.LFB1:
 125:C:\Micrium\Software\uCOS-III\Source\os_sem.c **** 
 126:C:\Micrium\Software\uCOS-III\Source\os_sem.c **** /*$PAGE*/
 127:C:\Micrium\Software\uCOS-III\Source\os_sem.c **** /*
 128:C:\Micrium\Software\uCOS-III\Source\os_sem.c **** ***************************************************************************************************
 129:C:\Micrium\Software\uCOS-III\Source\os_sem.c **** *                                                  DELETE A SEMAPHORE
 130:C:\Micrium\Software\uCOS-III\Source\os_sem.c **** *
 131:C:\Micrium\Software\uCOS-III\Source\os_sem.c **** * Description: This function deletes a semaphore.
 132:C:\Micrium\Software\uCOS-III\Source\os_sem.c **** *
 133:C:\Micrium\Software\uCOS-III\Source\os_sem.c **** * Arguments  : p_sem         is a pointer to the semaphore to delete
 134:C:\Micrium\Software\uCOS-III\Source\os_sem.c **** *
 135:C:\Micrium\Software\uCOS-III\Source\os_sem.c **** *              opt           determines delete options as follows:
 136:C:\Micrium\Software\uCOS-III\Source\os_sem.c **** *
 137:C:\Micrium\Software\uCOS-III\Source\os_sem.c **** *                                OS_OPT_DEL_NO_PEND          Delete semaphore ONLY if no task pendi
 138:C:\Micrium\Software\uCOS-III\Source\os_sem.c **** *                                OS_OPT_DEL_ALWAYS           Deletes the semaphore even if tasks ar
 139:C:\Micrium\Software\uCOS-III\Source\os_sem.c **** *                                                            In this case, all the tasks pending wi
 140:C:\Micrium\Software\uCOS-III\Source\os_sem.c **** *
 141:C:\Micrium\Software\uCOS-III\Source\os_sem.c **** *              p_err         is a pointer to a variable that will contain an error code returned by
 142:C:\Micrium\Software\uCOS-III\Source\os_sem.c **** *
 143:C:\Micrium\Software\uCOS-III\Source\os_sem.c **** *                                OS_ERR_NONE                 The call was successful and the semaph
ARM GAS  C:\Users\daniel01\AppData\Local\Temp\ccip0sTe.s 			page 6


 144:C:\Micrium\Software\uCOS-III\Source\os_sem.c **** *                                OS_ERR_DEL_ISR              If you attempted to delete the semapho
 145:C:\Micrium\Software\uCOS-III\Source\os_sem.c **** *                                OS_ERR_OBJ_PTR_NULL         If 'p_sem' is a NULL pointer.
 146:C:\Micrium\Software\uCOS-III\Source\os_sem.c **** *                                OS_ERR_OBJ_TYPE             If 'p_sem' is not pointing at a semaph
 147:C:\Micrium\Software\uCOS-III\Source\os_sem.c **** *                                OS_ERR_OPT_INVALID          An invalid option was specified
 148:C:\Micrium\Software\uCOS-III\Source\os_sem.c **** *                                OS_ERR_TASK_WAITING         One or more tasks were waiting on the 
 149:C:\Micrium\Software\uCOS-III\Source\os_sem.c **** *
 150:C:\Micrium\Software\uCOS-III\Source\os_sem.c **** * Returns    : == 0          if no tasks were waiting on the semaphore, or upon error.
 151:C:\Micrium\Software\uCOS-III\Source\os_sem.c **** *              >  0          if one or more tasks waiting on the semaphore are now readied and info
 152:C:\Micrium\Software\uCOS-III\Source\os_sem.c **** *
 153:C:\Micrium\Software\uCOS-III\Source\os_sem.c **** * Note(s)    : 1) This function must be used with care.  Tasks that would normally expect the prese
 154:C:\Micrium\Software\uCOS-III\Source\os_sem.c **** *                 MUST check the return code of OSSemPend().
 155:C:\Micrium\Software\uCOS-III\Source\os_sem.c **** *              2) OSSemAccept() callers will not know that the intended semaphore has been deleted.
 156:C:\Micrium\Software\uCOS-III\Source\os_sem.c **** *              3) Because ALL tasks pending on the semaphore will be readied, you MUST be careful i
 157:C:\Micrium\Software\uCOS-III\Source\os_sem.c **** *                 the semaphore is used for mutual exclusion because the resource(s) will no longer
 158:C:\Micrium\Software\uCOS-III\Source\os_sem.c **** *                 semaphore.
 159:C:\Micrium\Software\uCOS-III\Source\os_sem.c **** ***************************************************************************************************
 160:C:\Micrium\Software\uCOS-III\Source\os_sem.c **** */
 161:C:\Micrium\Software\uCOS-III\Source\os_sem.c **** 
 162:C:\Micrium\Software\uCOS-III\Source\os_sem.c **** #if OS_CFG_SEM_DEL_EN > 0u
 163:C:\Micrium\Software\uCOS-III\Source\os_sem.c **** OS_OBJ_QTY  OSSemDel (OS_SEM  *p_sem,
 164:C:\Micrium\Software\uCOS-III\Source\os_sem.c ****                       OS_OPT   opt,
 165:C:\Micrium\Software\uCOS-III\Source\os_sem.c ****                       OS_ERR  *p_err)
 166:C:\Micrium\Software\uCOS-III\Source\os_sem.c **** {
 139              		.loc 1 166 0
 140              		.cfi_startproc
 141              		@ args = 0, pretend = 0, frame = 40
 142              		@ frame_needed = 1, uses_anonymous_args = 0
 143 0000 80B5     		push	{r7, lr}
 144              	.LCFI3:
 145              		.cfi_def_cfa_offset 8
 146 0002 8AB0     		sub	sp, sp, #40
 147              	.LCFI4:
 148              		.cfi_def_cfa_offset 48
 149 0004 00AF     		add	r7, sp, #0
 150              		.cfi_offset 14, -4
 151              		.cfi_offset 7, -8
 152              	.LCFI5:
 153              		.cfi_def_cfa_register 7
 154 0006 F860     		str	r0, [r7, #12]
 155 0008 0B46     		mov	r3, r1
 156 000a 7A60     		str	r2, [r7, #4]
 157 000c 7B81     		strh	r3, [r7, #10]	@ movhi
 167:C:\Micrium\Software\uCOS-III\Source\os_sem.c ****     OS_OBJ_QTY     cnt;
 168:C:\Micrium\Software\uCOS-III\Source\os_sem.c ****     OS_OBJ_QTY     nbr_tasks;
 169:C:\Micrium\Software\uCOS-III\Source\os_sem.c ****     OS_PEND_DATA  *p_pend_data;
 170:C:\Micrium\Software\uCOS-III\Source\os_sem.c ****     OS_PEND_LIST  *p_pend_list;
 171:C:\Micrium\Software\uCOS-III\Source\os_sem.c ****     OS_TCB        *p_tcb;
 172:C:\Micrium\Software\uCOS-III\Source\os_sem.c ****     CPU_TS         ts;
 173:C:\Micrium\Software\uCOS-III\Source\os_sem.c ****     CPU_SR_ALLOC();
 158              		.loc 1 173 0
 159 000e 4FF00003 		mov	r3, #0
 160 0012 7B62     		str	r3, [r7, #36]
 174:C:\Micrium\Software\uCOS-III\Source\os_sem.c **** 
 175:C:\Micrium\Software\uCOS-III\Source\os_sem.c **** 
 176:C:\Micrium\Software\uCOS-III\Source\os_sem.c **** 
 177:C:\Micrium\Software\uCOS-III\Source\os_sem.c **** #ifdef OS_SAFETY_CRITICAL
 178:C:\Micrium\Software\uCOS-III\Source\os_sem.c ****     if (p_err == (OS_ERR *)0) {
ARM GAS  C:\Users\daniel01\AppData\Local\Temp\ccip0sTe.s 			page 7


 179:C:\Micrium\Software\uCOS-III\Source\os_sem.c ****         OS_SAFETY_CRITICAL_EXCEPTION();
 180:C:\Micrium\Software\uCOS-III\Source\os_sem.c ****         return ((OS_OBJ_QTY)0);
 181:C:\Micrium\Software\uCOS-III\Source\os_sem.c ****     }
 182:C:\Micrium\Software\uCOS-III\Source\os_sem.c **** #endif
 183:C:\Micrium\Software\uCOS-III\Source\os_sem.c **** 
 184:C:\Micrium\Software\uCOS-III\Source\os_sem.c **** #if OS_CFG_CALLED_FROM_ISR_CHK_EN > 0u
 185:C:\Micrium\Software\uCOS-III\Source\os_sem.c ****     if (OSIntNestingCtr > (OS_NESTING_CTR)0) {              /* Not allowed to delete a semaphore fr
 161              		.loc 1 185 0
 162 0014 40F20003 		movw	r3, #:lower16:OSIntNestingCtr
 163 0018 C0F20003 		movt	r3, #:upper16:OSIntNestingCtr
 164 001c 1B78     		ldrb	r3, [r3, #0]	@ zero_extendqisi2
 165 001e 002B     		cmp	r3, #0
 166 0020 06D0     		beq	.L7
 186:C:\Micrium\Software\uCOS-III\Source\os_sem.c ****        *p_err = OS_ERR_DEL_ISR;
 167              		.loc 1 186 0
 168 0022 7B68     		ldr	r3, [r7, #4]
 169 0024 43F2C922 		movw	r2, #13001
 170 0028 1A80     		strh	r2, [r3, #0]	@ movhi
 187:C:\Micrium\Software\uCOS-III\Source\os_sem.c ****         return ((OS_OBJ_QTY)0);
 171              		.loc 1 187 0
 172 002a 4FF00003 		mov	r3, #0
 173 002e 8BE0     		b	.L8
 174              	.L7:
 188:C:\Micrium\Software\uCOS-III\Source\os_sem.c ****     }
 189:C:\Micrium\Software\uCOS-III\Source\os_sem.c **** #endif
 190:C:\Micrium\Software\uCOS-III\Source\os_sem.c **** 
 191:C:\Micrium\Software\uCOS-III\Source\os_sem.c **** #if OS_CFG_ARG_CHK_EN > 0u
 192:C:\Micrium\Software\uCOS-III\Source\os_sem.c ****     if (p_sem == (OS_SEM *)0) {                             /* Validate 'p_sem'                    
 175              		.loc 1 192 0
 176 0030 FB68     		ldr	r3, [r7, #12]
 177 0032 002B     		cmp	r3, #0
 178 0034 06D1     		bne	.L9
 193:C:\Micrium\Software\uCOS-III\Source\os_sem.c ****        *p_err = OS_ERR_OBJ_PTR_NULL;
 179              		.loc 1 193 0
 180 0036 7B68     		ldr	r3, [r7, #4]
 181 0038 45F6C352 		movw	r2, #24003
 182 003c 1A80     		strh	r2, [r3, #0]	@ movhi
 194:C:\Micrium\Software\uCOS-III\Source\os_sem.c ****         return ((OS_OBJ_QTY)0);
 183              		.loc 1 194 0
 184 003e 4FF00003 		mov	r3, #0
 185 0042 81E0     		b	.L8
 186              	.L9:
 195:C:\Micrium\Software\uCOS-III\Source\os_sem.c ****     }
 196:C:\Micrium\Software\uCOS-III\Source\os_sem.c ****     switch (opt) {                                          /* Validate 'opt'                      
 187              		.loc 1 196 0
 188 0044 7B89     		ldrh	r3, [r7, #10]
 189 0046 03F10003 		add	r3, r3, #0
 190 004a 012B     		cmp	r3, #1
 191 004c 12D8     		bhi	.L10
 197:C:\Micrium\Software\uCOS-III\Source\os_sem.c ****         case OS_OPT_DEL_NO_PEND:
 198:C:\Micrium\Software\uCOS-III\Source\os_sem.c ****         case OS_OPT_DEL_ALWAYS:
 199:C:\Micrium\Software\uCOS-III\Source\os_sem.c ****              break;
 200:C:\Micrium\Software\uCOS-III\Source\os_sem.c **** 
 201:C:\Micrium\Software\uCOS-III\Source\os_sem.c ****         default:
 202:C:\Micrium\Software\uCOS-III\Source\os_sem.c ****             *p_err = OS_ERR_OPT_INVALID;
 203:C:\Micrium\Software\uCOS-III\Source\os_sem.c ****              return ((OS_OBJ_QTY)0);
 204:C:\Micrium\Software\uCOS-III\Source\os_sem.c ****     }
ARM GAS  C:\Users\daniel01\AppData\Local\Temp\ccip0sTe.s 			page 8


 205:C:\Micrium\Software\uCOS-III\Source\os_sem.c **** #endif
 206:C:\Micrium\Software\uCOS-III\Source\os_sem.c **** 
 207:C:\Micrium\Software\uCOS-III\Source\os_sem.c **** #if OS_CFG_OBJ_TYPE_CHK_EN > 0u
 208:C:\Micrium\Software\uCOS-III\Source\os_sem.c ****     if (p_sem->Type != OS_OBJ_TYPE_SEM) {                   /* Make sure semaphore was created     
 209:C:\Micrium\Software\uCOS-III\Source\os_sem.c ****        *p_err = OS_ERR_OBJ_TYPE;
 210:C:\Micrium\Software\uCOS-III\Source\os_sem.c ****         return ((OS_OBJ_QTY)0);
 211:C:\Micrium\Software\uCOS-III\Source\os_sem.c ****     }
 212:C:\Micrium\Software\uCOS-III\Source\os_sem.c **** #endif
 213:C:\Micrium\Software\uCOS-III\Source\os_sem.c **** 
 214:C:\Micrium\Software\uCOS-III\Source\os_sem.c ****     CPU_CRITICAL_ENTER();
 192              		.loc 1 214 0
 193 004e FFF7FEFF 		bl	CPU_SR_Save
 194 0052 0346     		mov	r3, r0
 195 0054 7B62     		str	r3, [r7, #36]
 215:C:\Micrium\Software\uCOS-III\Source\os_sem.c ****     p_pend_list = &p_sem->PendList;
 196              		.loc 1 215 0
 197 0056 FB68     		ldr	r3, [r7, #12]
 198 0058 03F10803 		add	r3, r3, #8
 199 005c BB61     		str	r3, [r7, #24]
 216:C:\Micrium\Software\uCOS-III\Source\os_sem.c ****     cnt         = p_pend_list->NbrEntries;
 200              		.loc 1 216 0
 201 005e BB69     		ldr	r3, [r7, #24]
 202 0060 1B89     		ldrh	r3, [r3, #8]	@ movhi
 203 0062 3B82     		strh	r3, [r7, #16]	@ movhi
 217:C:\Micrium\Software\uCOS-III\Source\os_sem.c ****     nbr_tasks   = cnt;
 204              		.loc 1 217 0
 205 0064 3B8A     		ldrh	r3, [r7, #16]	@ movhi
 206 0066 7B82     		strh	r3, [r7, #18]	@ movhi
 218:C:\Micrium\Software\uCOS-III\Source\os_sem.c ****     switch (opt) {
 207              		.loc 1 218 0
 208 0068 7B89     		ldrh	r3, [r7, #10]
 209 006a 002B     		cmp	r3, #0
 210 006c 09D0     		beq	.L13
 211 006e 012B     		cmp	r3, #1
 212 0070 2DD0     		beq	.L14
 213 0072 61E0     		b	.L21
 214              	.L10:
 215              		.loc 1 202 0
 216 0074 7B68     		ldr	r3, [r7, #4]
 217 0076 45F62562 		movw	r2, #24101
 218 007a 1A80     		strh	r2, [r3, #0]	@ movhi
 219              		.loc 1 203 0
 220 007c 4FF00003 		mov	r3, #0
 221 0080 62E0     		b	.L8
 222              	.L13:
 219:C:\Micrium\Software\uCOS-III\Source\os_sem.c ****         case OS_OPT_DEL_NO_PEND:                            /* Delete semaphore only if no task wai
 220:C:\Micrium\Software\uCOS-III\Source\os_sem.c ****              if (nbr_tasks == (OS_OBJ_QTY)0) {
 223              		.loc 1 220 0
 224 0082 7B8A     		ldrh	r3, [r7, #18]
 225 0084 002B     		cmp	r3, #0
 226 0086 1AD1     		bne	.L15
 221:C:\Micrium\Software\uCOS-III\Source\os_sem.c **** #if OS_CFG_DBG_EN > 0u
 222:C:\Micrium\Software\uCOS-III\Source\os_sem.c ****                  OS_SemDbgListRemove(p_sem);
 227              		.loc 1 222 0
 228 0088 F868     		ldr	r0, [r7, #12]
 229 008a FFF7FEFF 		bl	OS_SemDbgListRemove
 223:C:\Micrium\Software\uCOS-III\Source\os_sem.c **** #endif
ARM GAS  C:\Users\daniel01\AppData\Local\Temp\ccip0sTe.s 			page 9


 224:C:\Micrium\Software\uCOS-III\Source\os_sem.c ****                  OSSemQty--;
 230              		.loc 1 224 0
 231 008e 40F20003 		movw	r3, #:lower16:OSSemQty
 232 0092 C0F20003 		movt	r3, #:upper16:OSSemQty
 233 0096 1B88     		ldrh	r3, [r3, #0]
 234 0098 03F1FF33 		add	r3, r3, #-1
 235 009c 9AB2     		uxth	r2, r3
 236 009e 40F20003 		movw	r3, #:lower16:OSSemQty
 237 00a2 C0F20003 		movt	r3, #:upper16:OSSemQty
 238 00a6 1A80     		strh	r2, [r3, #0]	@ movhi
 225:C:\Micrium\Software\uCOS-III\Source\os_sem.c ****                  OS_SemClr(p_sem);
 239              		.loc 1 225 0
 240 00a8 F868     		ldr	r0, [r7, #12]
 241 00aa FFF7FEFF 		bl	OS_SemClr
 226:C:\Micrium\Software\uCOS-III\Source\os_sem.c ****                  CPU_CRITICAL_EXIT();
 242              		.loc 1 226 0
 243 00ae 786A     		ldr	r0, [r7, #36]
 244 00b0 FFF7FEFF 		bl	CPU_SR_Restore
 227:C:\Micrium\Software\uCOS-III\Source\os_sem.c ****                 *p_err = OS_ERR_NONE;
 245              		.loc 1 227 0
 246 00b4 7B68     		ldr	r3, [r7, #4]
 247 00b6 4FF00002 		mov	r2, #0
 248 00ba 1A80     		strh	r2, [r3, #0]	@ movhi
 228:C:\Micrium\Software\uCOS-III\Source\os_sem.c ****              } else {
 229:C:\Micrium\Software\uCOS-III\Source\os_sem.c ****                  CPU_CRITICAL_EXIT();
 230:C:\Micrium\Software\uCOS-III\Source\os_sem.c ****                 *p_err = OS_ERR_TASK_WAITING;
 231:C:\Micrium\Software\uCOS-III\Source\os_sem.c ****              }
 232:C:\Micrium\Software\uCOS-III\Source\os_sem.c ****              break;
 249              		.loc 1 232 0
 250 00bc 43E0     		b	.L17
 251              	.L15:
 252              		.loc 1 229 0
 253 00be 786A     		ldr	r0, [r7, #36]
 254 00c0 FFF7FEFF 		bl	CPU_SR_Restore
 255              		.loc 1 230 0
 256 00c4 7B68     		ldr	r3, [r7, #4]
 257 00c6 47F25F12 		movw	r2, #29023
 258 00ca 1A80     		strh	r2, [r3, #0]	@ movhi
 259              		.loc 1 232 0
 260 00cc 3BE0     		b	.L17
 261              	.L14:
 233:C:\Micrium\Software\uCOS-III\Source\os_sem.c **** 
 234:C:\Micrium\Software\uCOS-III\Source\os_sem.c ****         case OS_OPT_DEL_ALWAYS:                             /* Always delete the semaphore         
 235:C:\Micrium\Software\uCOS-III\Source\os_sem.c ****              OS_CRITICAL_ENTER_CPU_EXIT();
 236:C:\Micrium\Software\uCOS-III\Source\os_sem.c ****              ts = OS_TS_GET();                              /* Get local time stamp so all tasks ge
 262              		.loc 1 236 0
 263 00ce FFF7FEFF 		bl	CPU_TS_TmrRd
 264 00d2 0346     		mov	r3, r0
 265 00d4 3B62     		str	r3, [r7, #32]
 237:C:\Micrium\Software\uCOS-III\Source\os_sem.c ****              while (cnt > 0u) {                             /* Remove all tasks on the pend list   
 266              		.loc 1 237 0
 267 00d6 0FE0     		b	.L18
 268              	.L19:
 238:C:\Micrium\Software\uCOS-III\Source\os_sem.c ****                  p_pend_data = p_pend_list->HeadPtr;
 269              		.loc 1 238 0
 270 00d8 BB69     		ldr	r3, [r7, #24]
 271 00da 1B68     		ldr	r3, [r3, #0]
ARM GAS  C:\Users\daniel01\AppData\Local\Temp\ccip0sTe.s 			page 10


 272 00dc 7B61     		str	r3, [r7, #20]
 239:C:\Micrium\Software\uCOS-III\Source\os_sem.c ****                  p_tcb       = p_pend_data->TCBPtr;
 273              		.loc 1 239 0
 274 00de 7B69     		ldr	r3, [r7, #20]
 275 00e0 9B68     		ldr	r3, [r3, #8]
 276 00e2 FB61     		str	r3, [r7, #28]
 240:C:\Micrium\Software\uCOS-III\Source\os_sem.c ****                  OS_PendObjDel((OS_PEND_OBJ *)((void *)p_sem),
 277              		.loc 1 240 0
 278 00e4 FB68     		ldr	r3, [r7, #12]
 279 00e6 1846     		mov	r0, r3
 280 00e8 F969     		ldr	r1, [r7, #28]
 281 00ea 3A6A     		ldr	r2, [r7, #32]
 282 00ec FFF7FEFF 		bl	OS_PendObjDel
 241:C:\Micrium\Software\uCOS-III\Source\os_sem.c ****                                p_tcb,
 242:C:\Micrium\Software\uCOS-III\Source\os_sem.c ****                                ts);
 243:C:\Micrium\Software\uCOS-III\Source\os_sem.c ****                  cnt--;
 283              		.loc 1 243 0
 284 00f0 3B8A     		ldrh	r3, [r7, #16]	@ movhi
 285 00f2 03F1FF33 		add	r3, r3, #-1
 286 00f6 3B82     		strh	r3, [r7, #16]	@ movhi
 287              	.L18:
 288              		.loc 1 237 0
 289 00f8 3B8A     		ldrh	r3, [r7, #16]
 290 00fa 002B     		cmp	r3, #0
 291 00fc ECD1     		bne	.L19
 244:C:\Micrium\Software\uCOS-III\Source\os_sem.c ****              }
 245:C:\Micrium\Software\uCOS-III\Source\os_sem.c **** #if OS_CFG_DBG_EN > 0u
 246:C:\Micrium\Software\uCOS-III\Source\os_sem.c ****              OS_SemDbgListRemove(p_sem);
 292              		.loc 1 246 0
 293 00fe F868     		ldr	r0, [r7, #12]
 294 0100 FFF7FEFF 		bl	OS_SemDbgListRemove
 247:C:\Micrium\Software\uCOS-III\Source\os_sem.c **** #endif
 248:C:\Micrium\Software\uCOS-III\Source\os_sem.c ****              OSSemQty--;
 295              		.loc 1 248 0
 296 0104 40F20003 		movw	r3, #:lower16:OSSemQty
 297 0108 C0F20003 		movt	r3, #:upper16:OSSemQty
 298 010c 1B88     		ldrh	r3, [r3, #0]
 299 010e 03F1FF33 		add	r3, r3, #-1
 300 0112 9AB2     		uxth	r2, r3
 301 0114 40F20003 		movw	r3, #:lower16:OSSemQty
 302 0118 C0F20003 		movt	r3, #:upper16:OSSemQty
 303 011c 1A80     		strh	r2, [r3, #0]	@ movhi
 249:C:\Micrium\Software\uCOS-III\Source\os_sem.c ****              OS_SemClr(p_sem);
 304              		.loc 1 249 0
 305 011e F868     		ldr	r0, [r7, #12]
 306 0120 FFF7FEFF 		bl	OS_SemClr
 250:C:\Micrium\Software\uCOS-III\Source\os_sem.c ****              OS_CRITICAL_EXIT_NO_SCHED();
 307              		.loc 1 250 0
 308 0124 786A     		ldr	r0, [r7, #36]
 309 0126 FFF7FEFF 		bl	CPU_SR_Restore
 251:C:\Micrium\Software\uCOS-III\Source\os_sem.c ****              OSSched();                                     /* Find highest priority task ready to 
 310              		.loc 1 251 0
 311 012a FFF7FEFF 		bl	OSSched
 252:C:\Micrium\Software\uCOS-III\Source\os_sem.c ****             *p_err = OS_ERR_NONE;
 312              		.loc 1 252 0
 313 012e 7B68     		ldr	r3, [r7, #4]
 314 0130 4FF00002 		mov	r2, #0
ARM GAS  C:\Users\daniel01\AppData\Local\Temp\ccip0sTe.s 			page 11


 315 0134 1A80     		strh	r2, [r3, #0]	@ movhi
 253:C:\Micrium\Software\uCOS-III\Source\os_sem.c ****              break;
 316              		.loc 1 253 0
 317 0136 06E0     		b	.L17
 318              	.L21:
 254:C:\Micrium\Software\uCOS-III\Source\os_sem.c **** 
 255:C:\Micrium\Software\uCOS-III\Source\os_sem.c ****         default:
 256:C:\Micrium\Software\uCOS-III\Source\os_sem.c ****              CPU_CRITICAL_EXIT();
 319              		.loc 1 256 0
 320 0138 786A     		ldr	r0, [r7, #36]
 321 013a FFF7FEFF 		bl	CPU_SR_Restore
 257:C:\Micrium\Software\uCOS-III\Source\os_sem.c ****             *p_err = OS_ERR_OPT_INVALID;
 322              		.loc 1 257 0
 323 013e 7B68     		ldr	r3, [r7, #4]
 324 0140 45F62562 		movw	r2, #24101
 325 0144 1A80     		strh	r2, [r3, #0]	@ movhi
 326              	.L17:
 258:C:\Micrium\Software\uCOS-III\Source\os_sem.c ****              break;
 259:C:\Micrium\Software\uCOS-III\Source\os_sem.c ****     }
 260:C:\Micrium\Software\uCOS-III\Source\os_sem.c ****     return ((OS_OBJ_QTY)nbr_tasks);
 327              		.loc 1 260 0
 328 0146 7B8A     		ldrh	r3, [r7, #18]
 329              	.L8:
 261:C:\Micrium\Software\uCOS-III\Source\os_sem.c **** }
 330              		.loc 1 261 0
 331 0148 1846     		mov	r0, r3
 332 014a 07F12807 		add	r7, r7, #40
 333 014e BD46     		mov	sp, r7
 334 0150 80BD     		pop	{r7, pc}
 335              		.cfi_endproc
 336              	.LFE1:
 337              		.size	OSSemDel, .-OSSemDel
 338 0152 00BF     		.section	.text.OSSemPend,"ax",%progbits
 339              		.align	2
 340              		.global	OSSemPend
 341              		.thumb
 342              		.thumb_func
 343              		.type	OSSemPend, %function
 344              	OSSemPend:
 345              	.LFB2:
 262:C:\Micrium\Software\uCOS-III\Source\os_sem.c **** #endif
 263:C:\Micrium\Software\uCOS-III\Source\os_sem.c **** 
 264:C:\Micrium\Software\uCOS-III\Source\os_sem.c **** /*$PAGE*/
 265:C:\Micrium\Software\uCOS-III\Source\os_sem.c **** /*
 266:C:\Micrium\Software\uCOS-III\Source\os_sem.c **** ***************************************************************************************************
 267:C:\Micrium\Software\uCOS-III\Source\os_sem.c **** *                                                  PEND ON SEMAPHORE
 268:C:\Micrium\Software\uCOS-III\Source\os_sem.c **** *
 269:C:\Micrium\Software\uCOS-III\Source\os_sem.c **** * Description: This function waits for a semaphore.
 270:C:\Micrium\Software\uCOS-III\Source\os_sem.c **** *
 271:C:\Micrium\Software\uCOS-III\Source\os_sem.c **** * Arguments  : p_sem         is a pointer to the semaphore
 272:C:\Micrium\Software\uCOS-III\Source\os_sem.c **** *
 273:C:\Micrium\Software\uCOS-III\Source\os_sem.c **** *              timeout       is an optional timeout period (in clock ticks).  If non-zero, your tas
 274:C:\Micrium\Software\uCOS-III\Source\os_sem.c **** *                            resource up to the amount of time (in 'ticks') specified by this argum
 275:C:\Micrium\Software\uCOS-III\Source\os_sem.c **** *                            0, however, your task will wait forever at the specified semaphore or,
 276:C:\Micrium\Software\uCOS-III\Source\os_sem.c **** *                            becomes available (or the event occurs).
 277:C:\Micrium\Software\uCOS-III\Source\os_sem.c **** *
 278:C:\Micrium\Software\uCOS-III\Source\os_sem.c **** *              opt           determines whether the user wants to block if the semaphore is not ava
ARM GAS  C:\Users\daniel01\AppData\Local\Temp\ccip0sTe.s 			page 12


 279:C:\Micrium\Software\uCOS-III\Source\os_sem.c **** *
 280:C:\Micrium\Software\uCOS-III\Source\os_sem.c **** *                                OS_OPT_PEND_BLOCKING
 281:C:\Micrium\Software\uCOS-III\Source\os_sem.c **** *                                OS_OPT_PEND_NON_BLOCKING
 282:C:\Micrium\Software\uCOS-III\Source\os_sem.c **** *
 283:C:\Micrium\Software\uCOS-III\Source\os_sem.c **** *              p_ts          is a pointer to a variable that will receive the timestamp of when the
 284:C:\Micrium\Software\uCOS-III\Source\os_sem.c **** *                            or pend aborted or the semaphore deleted.  If you pass a NULL pointer 
 285:C:\Micrium\Software\uCOS-III\Source\os_sem.c **** *                            then you will not get the timestamp.  In other words, passing a NULL p
 286:C:\Micrium\Software\uCOS-III\Source\os_sem.c **** *                            and indicates that you don't need the timestamp.
 287:C:\Micrium\Software\uCOS-III\Source\os_sem.c **** *
 288:C:\Micrium\Software\uCOS-III\Source\os_sem.c **** *              p_err         is a pointer to a variable that will contain an error code returned by
 289:C:\Micrium\Software\uCOS-III\Source\os_sem.c **** *
 290:C:\Micrium\Software\uCOS-III\Source\os_sem.c **** *                                OS_ERR_NONE               The call was successful and your task ow
 291:C:\Micrium\Software\uCOS-III\Source\os_sem.c **** *                                                          or, the event you are waiting for occurr
 292:C:\Micrium\Software\uCOS-III\Source\os_sem.c **** *                                OS_ERR_OBJ_DEL            If 'p_sem' was deleted
 293:C:\Micrium\Software\uCOS-III\Source\os_sem.c **** *                                OS_ERR_OBJ_PTR_NULL       If 'p_sem' is a NULL pointer.
 294:C:\Micrium\Software\uCOS-III\Source\os_sem.c **** *                                OS_ERR_OBJ_TYPE           If 'p_sem' is not pointing at a semaphor
 295:C:\Micrium\Software\uCOS-III\Source\os_sem.c **** *                                OS_ERR_OPT_INVALID        If you specified an invalid value for 'o
 296:C:\Micrium\Software\uCOS-III\Source\os_sem.c **** *                                OS_ERR_PEND_ABORT         If the pend was aborted by another task
 297:C:\Micrium\Software\uCOS-III\Source\os_sem.c **** *                                OS_ERR_PEND_ISR           If you called this function from an ISR 
 298:C:\Micrium\Software\uCOS-III\Source\os_sem.c **** *                                                          would lead to a suspension.
 299:C:\Micrium\Software\uCOS-III\Source\os_sem.c **** *                                OS_ERR_PEND_WOULD_BLOCK   If you specified non-blocking but the se
 300:C:\Micrium\Software\uCOS-III\Source\os_sem.c **** *                                                          available.
 301:C:\Micrium\Software\uCOS-III\Source\os_sem.c **** *                                OS_ERR_SCHED_LOCKED       If you called this function when the sch
 302:C:\Micrium\Software\uCOS-III\Source\os_sem.c **** *                                OS_ERR_STATUS_INVALID     Pend status is invalid
 303:C:\Micrium\Software\uCOS-III\Source\os_sem.c **** *                                OS_ERR_TIMEOUT            The semaphore was not received within th
 304:C:\Micrium\Software\uCOS-III\Source\os_sem.c **** *                                                          timeout.
 305:C:\Micrium\Software\uCOS-III\Source\os_sem.c **** *
 306:C:\Micrium\Software\uCOS-III\Source\os_sem.c **** *
 307:C:\Micrium\Software\uCOS-III\Source\os_sem.c **** * Returns    : The current value of the semaphore counter or 0 if not available.
 308:C:\Micrium\Software\uCOS-III\Source\os_sem.c **** ***************************************************************************************************
 309:C:\Micrium\Software\uCOS-III\Source\os_sem.c **** */
 310:C:\Micrium\Software\uCOS-III\Source\os_sem.c **** 
 311:C:\Micrium\Software\uCOS-III\Source\os_sem.c **** OS_SEM_CTR  OSSemPend (OS_SEM   *p_sem,
 312:C:\Micrium\Software\uCOS-III\Source\os_sem.c ****                        OS_TICK   timeout,
 313:C:\Micrium\Software\uCOS-III\Source\os_sem.c ****                        OS_OPT    opt,
 314:C:\Micrium\Software\uCOS-III\Source\os_sem.c ****                        CPU_TS   *p_ts,
 315:C:\Micrium\Software\uCOS-III\Source\os_sem.c ****                        OS_ERR   *p_err)
 316:C:\Micrium\Software\uCOS-III\Source\os_sem.c **** {
 346              		.loc 1 316 0
 347              		.cfi_startproc
 348              		@ args = 4, pretend = 0, frame = 56
 349              		@ frame_needed = 1, uses_anonymous_args = 0
 350 0000 80B5     		push	{r7, lr}
 351              	.LCFI6:
 352              		.cfi_def_cfa_offset 8
 353 0002 8EB0     		sub	sp, sp, #56
 354              	.LCFI7:
 355              		.cfi_def_cfa_offset 64
 356 0004 00AF     		add	r7, sp, #0
 357              		.cfi_offset 14, -4
 358              		.cfi_offset 7, -8
 359              	.LCFI8:
 360              		.cfi_def_cfa_register 7
 361 0006 F860     		str	r0, [r7, #12]
 362 0008 B960     		str	r1, [r7, #8]
 363 000a 3B60     		str	r3, [r7, #0]
 364 000c 1346     		mov	r3, r2	@ movhi
ARM GAS  C:\Users\daniel01\AppData\Local\Temp\ccip0sTe.s 			page 13


 365 000e FB80     		strh	r3, [r7, #6]	@ movhi
 317:C:\Micrium\Software\uCOS-III\Source\os_sem.c ****     OS_SEM_CTR    ctr;
 318:C:\Micrium\Software\uCOS-III\Source\os_sem.c ****     OS_PEND_DATA  pend_data;
 319:C:\Micrium\Software\uCOS-III\Source\os_sem.c ****     CPU_SR_ALLOC();
 366              		.loc 1 319 0
 367 0010 4FF00003 		mov	r3, #0
 368 0014 7B63     		str	r3, [r7, #52]
 320:C:\Micrium\Software\uCOS-III\Source\os_sem.c **** 
 321:C:\Micrium\Software\uCOS-III\Source\os_sem.c **** 
 322:C:\Micrium\Software\uCOS-III\Source\os_sem.c **** 
 323:C:\Micrium\Software\uCOS-III\Source\os_sem.c **** #ifdef OS_SAFETY_CRITICAL
 324:C:\Micrium\Software\uCOS-III\Source\os_sem.c ****     if (p_err == (OS_ERR *)0) {
 325:C:\Micrium\Software\uCOS-III\Source\os_sem.c ****         OS_SAFETY_CRITICAL_EXCEPTION();
 326:C:\Micrium\Software\uCOS-III\Source\os_sem.c ****         return ((OS_SEM_CTR)0);
 327:C:\Micrium\Software\uCOS-III\Source\os_sem.c ****     }
 328:C:\Micrium\Software\uCOS-III\Source\os_sem.c **** #endif
 329:C:\Micrium\Software\uCOS-III\Source\os_sem.c **** 
 330:C:\Micrium\Software\uCOS-III\Source\os_sem.c **** #if OS_CFG_CALLED_FROM_ISR_CHK_EN > 0u
 331:C:\Micrium\Software\uCOS-III\Source\os_sem.c ****     if (OSIntNestingCtr > (OS_NESTING_CTR)0) {              /* Not allowed to call from an ISR     
 369              		.loc 1 331 0
 370 0016 40F20003 		movw	r3, #:lower16:OSIntNestingCtr
 371 001a C0F20003 		movt	r3, #:upper16:OSIntNestingCtr
 372 001e 1B78     		ldrb	r3, [r3, #0]	@ zero_extendqisi2
 373 0020 002B     		cmp	r3, #0
 374 0022 06D0     		beq	.L23
 332:C:\Micrium\Software\uCOS-III\Source\os_sem.c ****        *p_err = OS_ERR_PEND_ISR;
 375              		.loc 1 332 0
 376 0024 3B6C     		ldr	r3, [r7, #64]
 377 0026 46F2AE12 		movw	r2, #25006
 378 002a 1A80     		strh	r2, [r3, #0]	@ movhi
 333:C:\Micrium\Software\uCOS-III\Source\os_sem.c ****         return ((OS_SEM_CTR)0);
 379              		.loc 1 333 0
 380 002c 4FF00003 		mov	r3, #0
 381 0030 D5E0     		b	.L24
 382              	.L23:
 334:C:\Micrium\Software\uCOS-III\Source\os_sem.c ****     }
 335:C:\Micrium\Software\uCOS-III\Source\os_sem.c **** #endif
 336:C:\Micrium\Software\uCOS-III\Source\os_sem.c **** 
 337:C:\Micrium\Software\uCOS-III\Source\os_sem.c **** #if OS_CFG_ARG_CHK_EN > 0u
 338:C:\Micrium\Software\uCOS-III\Source\os_sem.c ****     if (p_sem == (OS_SEM *)0) {                             /* Validate 'p_sem'                    
 383              		.loc 1 338 0
 384 0032 FB68     		ldr	r3, [r7, #12]
 385 0034 002B     		cmp	r3, #0
 386 0036 06D1     		bne	.L25
 339:C:\Micrium\Software\uCOS-III\Source\os_sem.c ****        *p_err = OS_ERR_OBJ_PTR_NULL;
 387              		.loc 1 339 0
 388 0038 3B6C     		ldr	r3, [r7, #64]
 389 003a 45F6C352 		movw	r2, #24003
 390 003e 1A80     		strh	r2, [r3, #0]	@ movhi
 340:C:\Micrium\Software\uCOS-III\Source\os_sem.c ****         return ((OS_SEM_CTR)0);
 391              		.loc 1 340 0
 392 0040 4FF00003 		mov	r3, #0
 393 0044 CBE0     		b	.L24
 394              	.L25:
 341:C:\Micrium\Software\uCOS-III\Source\os_sem.c ****     }
 342:C:\Micrium\Software\uCOS-III\Source\os_sem.c ****     switch (opt) {                                          /* Validate 'opt'                      
 395              		.loc 1 342 0
ARM GAS  C:\Users\daniel01\AppData\Local\Temp\ccip0sTe.s 			page 14


 396 0046 FB88     		ldrh	r3, [r7, #6]
 397 0048 002B     		cmp	r3, #0
 398 004a 02D0     		beq	.L27
 399 004c B3F5004F 		cmp	r3, #32768
 400 0050 03D1     		bne	.L46
 401              	.L27:
 343:C:\Micrium\Software\uCOS-III\Source\os_sem.c ****         case OS_OPT_PEND_BLOCKING:
 344:C:\Micrium\Software\uCOS-III\Source\os_sem.c ****         case OS_OPT_PEND_NON_BLOCKING:
 345:C:\Micrium\Software\uCOS-III\Source\os_sem.c ****              break;
 346:C:\Micrium\Software\uCOS-III\Source\os_sem.c **** 
 347:C:\Micrium\Software\uCOS-III\Source\os_sem.c ****         default:
 348:C:\Micrium\Software\uCOS-III\Source\os_sem.c ****             *p_err = OS_ERR_OPT_INVALID;
 349:C:\Micrium\Software\uCOS-III\Source\os_sem.c ****              return ((OS_SEM_CTR)0);
 350:C:\Micrium\Software\uCOS-III\Source\os_sem.c ****     }
 351:C:\Micrium\Software\uCOS-III\Source\os_sem.c **** #endif
 352:C:\Micrium\Software\uCOS-III\Source\os_sem.c **** 
 353:C:\Micrium\Software\uCOS-III\Source\os_sem.c **** #if OS_CFG_OBJ_TYPE_CHK_EN > 0u
 354:C:\Micrium\Software\uCOS-III\Source\os_sem.c ****     if (p_sem->Type != OS_OBJ_TYPE_SEM) {                   /* Make sure semaphore was created     
 355:C:\Micrium\Software\uCOS-III\Source\os_sem.c ****        *p_err = OS_ERR_OBJ_TYPE;
 356:C:\Micrium\Software\uCOS-III\Source\os_sem.c ****         return ((OS_SEM_CTR)0);
 357:C:\Micrium\Software\uCOS-III\Source\os_sem.c ****     }
 358:C:\Micrium\Software\uCOS-III\Source\os_sem.c **** #endif
 359:C:\Micrium\Software\uCOS-III\Source\os_sem.c **** 
 360:C:\Micrium\Software\uCOS-III\Source\os_sem.c ****     if (p_ts != (CPU_TS *)0) {
 402              		.loc 1 360 0
 403 0052 3B68     		ldr	r3, [r7, #0]
 404 0054 002B     		cmp	r3, #0
 405 0056 07D1     		bne	.L28
 406 0058 0AE0     		b	.L29
 407              	.L46:
 408              		.loc 1 348 0
 409 005a 3B6C     		ldr	r3, [r7, #64]
 410 005c 45F62562 		movw	r2, #24101
 411 0060 1A80     		strh	r2, [r3, #0]	@ movhi
 412              		.loc 1 349 0
 413 0062 4FF00003 		mov	r3, #0
 414 0066 BAE0     		b	.L24
 415              	.L28:
 361:C:\Micrium\Software\uCOS-III\Source\os_sem.c ****        *p_ts  = (CPU_TS)0;                                  /* Initialize the returned timestamp   
 416              		.loc 1 361 0
 417 0068 3B68     		ldr	r3, [r7, #0]
 418 006a 4FF00002 		mov	r2, #0
 419 006e 1A60     		str	r2, [r3, #0]
 420              	.L29:
 362:C:\Micrium\Software\uCOS-III\Source\os_sem.c ****     }
 363:C:\Micrium\Software\uCOS-III\Source\os_sem.c ****     CPU_CRITICAL_ENTER();
 421              		.loc 1 363 0
 422 0070 FFF7FEFF 		bl	CPU_SR_Save
 423 0074 0346     		mov	r3, r0
 424 0076 7B63     		str	r3, [r7, #52]
 364:C:\Micrium\Software\uCOS-III\Source\os_sem.c ****     if (p_sem->Ctr > (OS_SEM_CTR)0) {                       /* Resource available?                 
 425              		.loc 1 364 0
 426 0078 FB68     		ldr	r3, [r7, #12]
 427 007a 1B6A     		ldr	r3, [r3, #32]
 428 007c 002B     		cmp	r3, #0
 429 007e 18D0     		beq	.L30
 365:C:\Micrium\Software\uCOS-III\Source\os_sem.c ****         p_sem->Ctr--;                                       /* Yes, caller may proceed             
ARM GAS  C:\Users\daniel01\AppData\Local\Temp\ccip0sTe.s 			page 15


 430              		.loc 1 365 0
 431 0080 FB68     		ldr	r3, [r7, #12]
 432 0082 1B6A     		ldr	r3, [r3, #32]
 433 0084 03F1FF32 		add	r2, r3, #-1
 434 0088 FB68     		ldr	r3, [r7, #12]
 435 008a 1A62     		str	r2, [r3, #32]
 366:C:\Micrium\Software\uCOS-III\Source\os_sem.c ****         if (p_ts != (CPU_TS *)0) {
 436              		.loc 1 366 0
 437 008c 3B68     		ldr	r3, [r7, #0]
 438 008e 002B     		cmp	r3, #0
 439 0090 03D0     		beq	.L31
 367:C:\Micrium\Software\uCOS-III\Source\os_sem.c ****            *p_ts  = p_sem->TS;                              /*      get timestamp of last post     
 440              		.loc 1 367 0
 441 0092 FB68     		ldr	r3, [r7, #12]
 442 0094 5A6A     		ldr	r2, [r3, #36]
 443 0096 3B68     		ldr	r3, [r7, #0]
 444 0098 1A60     		str	r2, [r3, #0]
 445              	.L31:
 368:C:\Micrium\Software\uCOS-III\Source\os_sem.c ****         }
 369:C:\Micrium\Software\uCOS-III\Source\os_sem.c ****         ctr   = p_sem->Ctr;
 446              		.loc 1 369 0
 447 009a FB68     		ldr	r3, [r7, #12]
 448 009c 1B6A     		ldr	r3, [r3, #32]
 449 009e 3B63     		str	r3, [r7, #48]
 370:C:\Micrium\Software\uCOS-III\Source\os_sem.c ****         CPU_CRITICAL_EXIT();
 450              		.loc 1 370 0
 451 00a0 786B     		ldr	r0, [r7, #52]
 452 00a2 FFF7FEFF 		bl	CPU_SR_Restore
 371:C:\Micrium\Software\uCOS-III\Source\os_sem.c ****        *p_err = OS_ERR_NONE;
 453              		.loc 1 371 0
 454 00a6 3B6C     		ldr	r3, [r7, #64]
 455 00a8 4FF00002 		mov	r2, #0
 456 00ac 1A80     		strh	r2, [r3, #0]	@ movhi
 372:C:\Micrium\Software\uCOS-III\Source\os_sem.c ****         return (ctr);
 457              		.loc 1 372 0
 458 00ae 3B6B     		ldr	r3, [r7, #48]
 459 00b0 95E0     		b	.L24
 460              	.L30:
 373:C:\Micrium\Software\uCOS-III\Source\os_sem.c ****     }
 374:C:\Micrium\Software\uCOS-III\Source\os_sem.c **** 
 375:C:\Micrium\Software\uCOS-III\Source\os_sem.c ****     if ((opt & OS_OPT_PEND_NON_BLOCKING) != (OS_OPT)0) {    /* Caller wants to block if not availab
 461              		.loc 1 375 0
 462 00b2 FB88     		ldrh	r3, [r7, #6]
 463 00b4 1BB2     		sxth	r3, r3
 464 00b6 002B     		cmp	r3, #0
 465 00b8 0BDA     		bge	.L32
 376:C:\Micrium\Software\uCOS-III\Source\os_sem.c ****         ctr   = p_sem->Ctr;                                 /* No                                  
 466              		.loc 1 376 0
 467 00ba FB68     		ldr	r3, [r7, #12]
 468 00bc 1B6A     		ldr	r3, [r3, #32]
 469 00be 3B63     		str	r3, [r7, #48]
 377:C:\Micrium\Software\uCOS-III\Source\os_sem.c ****         CPU_CRITICAL_EXIT();
 470              		.loc 1 377 0
 471 00c0 786B     		ldr	r0, [r7, #52]
 472 00c2 FFF7FEFF 		bl	CPU_SR_Restore
 378:C:\Micrium\Software\uCOS-III\Source\os_sem.c ****        *p_err = OS_ERR_PEND_WOULD_BLOCK;
 473              		.loc 1 378 0
ARM GAS  C:\Users\daniel01\AppData\Local\Temp\ccip0sTe.s 			page 16


 474 00c6 3B6C     		ldr	r3, [r7, #64]
 475 00c8 46F2B012 		movw	r2, #25008
 476 00cc 1A80     		strh	r2, [r3, #0]	@ movhi
 379:C:\Micrium\Software\uCOS-III\Source\os_sem.c ****         return (ctr);
 477              		.loc 1 379 0
 478 00ce 3B6B     		ldr	r3, [r7, #48]
 479 00d0 85E0     		b	.L24
 480              	.L32:
 380:C:\Micrium\Software\uCOS-III\Source\os_sem.c ****     } else {                                                /* Yes                                 
 381:C:\Micrium\Software\uCOS-III\Source\os_sem.c ****         if (OSSchedLockNestingCtr > (OS_NESTING_CTR)0) {    /* Can't pend when the scheduler is loc
 481              		.loc 1 381 0
 482 00d2 40F20003 		movw	r3, #:lower16:OSSchedLockNestingCtr
 483 00d6 C0F20003 		movt	r3, #:upper16:OSSchedLockNestingCtr
 484 00da 1B78     		ldrb	r3, [r3, #0]	@ zero_extendqisi2
 485 00dc 002B     		cmp	r3, #0
 486 00de 09D0     		beq	.L33
 382:C:\Micrium\Software\uCOS-III\Source\os_sem.c ****             CPU_CRITICAL_EXIT();
 487              		.loc 1 382 0
 488 00e0 786B     		ldr	r0, [r7, #52]
 489 00e2 FFF7FEFF 		bl	CPU_SR_Restore
 383:C:\Micrium\Software\uCOS-III\Source\os_sem.c ****            *p_err = OS_ERR_SCHED_LOCKED;
 490              		.loc 1 383 0
 491 00e6 3B6C     		ldr	r3, [r7, #64]
 492 00e8 46F66352 		movw	r2, #28003
 493 00ec 1A80     		strh	r2, [r3, #0]	@ movhi
 384:C:\Micrium\Software\uCOS-III\Source\os_sem.c ****             return ((OS_SEM_CTR)0);
 494              		.loc 1 384 0
 495 00ee 4FF00003 		mov	r3, #0
 496 00f2 74E0     		b	.L24
 497              	.L33:
 385:C:\Micrium\Software\uCOS-III\Source\os_sem.c ****         }
 386:C:\Micrium\Software\uCOS-III\Source\os_sem.c ****     }
 387:C:\Micrium\Software\uCOS-III\Source\os_sem.c ****                                                             /* Lock the scheduler/re-enable interru
 388:C:\Micrium\Software\uCOS-III\Source\os_sem.c ****     OS_CRITICAL_ENTER_CPU_EXIT();
 389:C:\Micrium\Software\uCOS-III\Source\os_sem.c ****     OS_Pend(&pend_data,                                     /* Block task pending on Semaphore     
 498              		.loc 1 389 0
 499 00f4 FB68     		ldr	r3, [r7, #12]
 500 00f6 07F11002 		add	r2, r7, #16
 501 00fa 1046     		mov	r0, r2
 502 00fc 1946     		mov	r1, r3
 503 00fe 4FF00602 		mov	r2, #6
 504 0102 BB68     		ldr	r3, [r7, #8]
 505 0104 FFF7FEFF 		bl	OS_Pend
 390:C:\Micrium\Software\uCOS-III\Source\os_sem.c ****             (OS_PEND_OBJ *)((void *)p_sem),
 391:C:\Micrium\Software\uCOS-III\Source\os_sem.c ****             OS_TASK_PEND_ON_SEM,
 392:C:\Micrium\Software\uCOS-III\Source\os_sem.c ****             timeout);
 393:C:\Micrium\Software\uCOS-III\Source\os_sem.c **** 
 394:C:\Micrium\Software\uCOS-III\Source\os_sem.c ****     OS_CRITICAL_EXIT_NO_SCHED();
 506              		.loc 1 394 0
 507 0108 786B     		ldr	r0, [r7, #52]
 508 010a FFF7FEFF 		bl	CPU_SR_Restore
 395:C:\Micrium\Software\uCOS-III\Source\os_sem.c **** 
 396:C:\Micrium\Software\uCOS-III\Source\os_sem.c ****     OSSched();                                              /* Find the next highest priority task 
 509              		.loc 1 396 0
 510 010e FFF7FEFF 		bl	OSSched
 397:C:\Micrium\Software\uCOS-III\Source\os_sem.c **** 
 398:C:\Micrium\Software\uCOS-III\Source\os_sem.c ****     CPU_CRITICAL_ENTER();
ARM GAS  C:\Users\daniel01\AppData\Local\Temp\ccip0sTe.s 			page 17


 511              		.loc 1 398 0
 512 0112 FFF7FEFF 		bl	CPU_SR_Save
 513 0116 0346     		mov	r3, r0
 514 0118 7B63     		str	r3, [r7, #52]
 399:C:\Micrium\Software\uCOS-III\Source\os_sem.c ****     switch (OSTCBCurPtr->PendStatus) {
 515              		.loc 1 399 0
 516 011a 40F20003 		movw	r3, #:lower16:OSTCBCurPtr
 517 011e C0F20003 		movt	r3, #:upper16:OSTCBCurPtr
 518 0122 1B68     		ldr	r3, [r3, #0]
 519 0124 93F83530 		ldrb	r3, [r3, #53]	@ zero_extendqisi2
 520 0128 032B     		cmp	r3, #3
 521 012a 47D8     		bhi	.L34
 522 012c 01A2     		adr	r2, .L39
 523 012e 52F823F0 		ldr	pc, [r2, r3, lsl #2]
 524 0132 00BF     		.align	2
 525              	.L39:
 526 0134 45010000 		.word	.L35+1
 527 0138 65010000 		.word	.L36+1
 528 013c 9D010000 		.word	.L37+1
 529 0140 85010000 		.word	.L38+1
 530              	.L35:
 400:C:\Micrium\Software\uCOS-III\Source\os_sem.c ****         case OS_STATUS_PEND_OK:                             /* We got the semaphore                
 401:C:\Micrium\Software\uCOS-III\Source\os_sem.c ****              if (p_ts != (CPU_TS *)0) {
 531              		.loc 1 401 0
 532 0144 3B68     		ldr	r3, [r7, #0]
 533 0146 002B     		cmp	r3, #0
 534 0148 07D0     		beq	.L40
 402:C:\Micrium\Software\uCOS-III\Source\os_sem.c ****                 *p_ts  =  OSTCBCurPtr->TS;
 535              		.loc 1 402 0
 536 014a 40F20003 		movw	r3, #:lower16:OSTCBCurPtr
 537 014e C0F20003 		movt	r3, #:upper16:OSTCBCurPtr
 538 0152 1B68     		ldr	r3, [r3, #0]
 539 0154 1A6C     		ldr	r2, [r3, #64]
 540 0156 3B68     		ldr	r3, [r7, #0]
 541 0158 1A60     		str	r2, [r3, #0]
 542              	.L40:
 403:C:\Micrium\Software\uCOS-III\Source\os_sem.c ****              }
 404:C:\Micrium\Software\uCOS-III\Source\os_sem.c ****             *p_err = OS_ERR_NONE;
 543              		.loc 1 404 0
 544 015a 3B6C     		ldr	r3, [r7, #64]
 545 015c 4FF00002 		mov	r2, #0
 546 0160 1A80     		strh	r2, [r3, #0]	@ movhi
 405:C:\Micrium\Software\uCOS-III\Source\os_sem.c ****              break;
 547              		.loc 1 405 0
 548 0162 35E0     		b	.L41
 549              	.L36:
 406:C:\Micrium\Software\uCOS-III\Source\os_sem.c **** 
 407:C:\Micrium\Software\uCOS-III\Source\os_sem.c ****         case OS_STATUS_PEND_ABORT:                          /* Indicate that we aborted            
 408:C:\Micrium\Software\uCOS-III\Source\os_sem.c ****              if (p_ts != (CPU_TS *)0) {
 550              		.loc 1 408 0
 551 0164 3B68     		ldr	r3, [r7, #0]
 552 0166 002B     		cmp	r3, #0
 553 0168 07D0     		beq	.L42
 409:C:\Micrium\Software\uCOS-III\Source\os_sem.c ****                 *p_ts  =  OSTCBCurPtr->TS;
 554              		.loc 1 409 0
 555 016a 40F20003 		movw	r3, #:lower16:OSTCBCurPtr
 556 016e C0F20003 		movt	r3, #:upper16:OSTCBCurPtr
ARM GAS  C:\Users\daniel01\AppData\Local\Temp\ccip0sTe.s 			page 18


 557 0172 1B68     		ldr	r3, [r3, #0]
 558 0174 1A6C     		ldr	r2, [r3, #64]
 559 0176 3B68     		ldr	r3, [r7, #0]
 560 0178 1A60     		str	r2, [r3, #0]
 561              	.L42:
 410:C:\Micrium\Software\uCOS-III\Source\os_sem.c ****              }
 411:C:\Micrium\Software\uCOS-III\Source\os_sem.c ****             *p_err = OS_ERR_PEND_ABORT;
 562              		.loc 1 411 0
 563 017a 3B6C     		ldr	r3, [r7, #64]
 564 017c 46F2A912 		movw	r2, #25001
 565 0180 1A80     		strh	r2, [r3, #0]	@ movhi
 412:C:\Micrium\Software\uCOS-III\Source\os_sem.c ****              break;
 566              		.loc 1 412 0
 567 0182 25E0     		b	.L41
 568              	.L38:
 413:C:\Micrium\Software\uCOS-III\Source\os_sem.c **** 
 414:C:\Micrium\Software\uCOS-III\Source\os_sem.c ****         case OS_STATUS_PEND_TIMEOUT:                        /* Indicate that we didn't get semaphor
 415:C:\Micrium\Software\uCOS-III\Source\os_sem.c ****              if (p_ts != (CPU_TS *)0) {
 569              		.loc 1 415 0
 570 0184 3B68     		ldr	r3, [r7, #0]
 571 0186 002B     		cmp	r3, #0
 572 0188 03D0     		beq	.L43
 416:C:\Micrium\Software\uCOS-III\Source\os_sem.c ****                 *p_ts  = (CPU_TS  )0;
 573              		.loc 1 416 0
 574 018a 3B68     		ldr	r3, [r7, #0]
 575 018c 4FF00002 		mov	r2, #0
 576 0190 1A60     		str	r2, [r3, #0]
 577              	.L43:
 417:C:\Micrium\Software\uCOS-III\Source\os_sem.c ****              }
 418:C:\Micrium\Software\uCOS-III\Source\os_sem.c ****             *p_err = OS_ERR_TIMEOUT;
 578              		.loc 1 418 0
 579 0192 3B6C     		ldr	r3, [r7, #64]
 580 0194 47F2D922 		movw	r2, #29401
 581 0198 1A80     		strh	r2, [r3, #0]	@ movhi
 419:C:\Micrium\Software\uCOS-III\Source\os_sem.c ****              break;
 582              		.loc 1 419 0
 583 019a 19E0     		b	.L41
 584              	.L37:
 420:C:\Micrium\Software\uCOS-III\Source\os_sem.c **** 
 421:C:\Micrium\Software\uCOS-III\Source\os_sem.c ****         case OS_STATUS_PEND_DEL:                            /* Indicate that object pended on has b
 422:C:\Micrium\Software\uCOS-III\Source\os_sem.c ****              if (p_ts != (CPU_TS *)0) {
 585              		.loc 1 422 0
 586 019c 3B68     		ldr	r3, [r7, #0]
 587 019e 002B     		cmp	r3, #0
 588 01a0 07D0     		beq	.L44
 423:C:\Micrium\Software\uCOS-III\Source\os_sem.c ****                 *p_ts  =  OSTCBCurPtr->TS;
 589              		.loc 1 423 0
 590 01a2 40F20003 		movw	r3, #:lower16:OSTCBCurPtr
 591 01a6 C0F20003 		movt	r3, #:upper16:OSTCBCurPtr
 592 01aa 1B68     		ldr	r3, [r3, #0]
 593 01ac 1A6C     		ldr	r2, [r3, #64]
 594 01ae 3B68     		ldr	r3, [r7, #0]
 595 01b0 1A60     		str	r2, [r3, #0]
 596              	.L44:
 424:C:\Micrium\Software\uCOS-III\Source\os_sem.c ****              }
 425:C:\Micrium\Software\uCOS-III\Source\os_sem.c ****             *p_err = OS_ERR_OBJ_DEL;
 597              		.loc 1 425 0
ARM GAS  C:\Users\daniel01\AppData\Local\Temp\ccip0sTe.s 			page 19


 598 01b2 3B6C     		ldr	r3, [r7, #64]
 599 01b4 45F6C252 		movw	r2, #24002
 600 01b8 1A80     		strh	r2, [r3, #0]	@ movhi
 426:C:\Micrium\Software\uCOS-III\Source\os_sem.c ****              break;
 601              		.loc 1 426 0
 602 01ba 09E0     		b	.L41
 603              	.L34:
 427:C:\Micrium\Software\uCOS-III\Source\os_sem.c **** 
 428:C:\Micrium\Software\uCOS-III\Source\os_sem.c ****         default:
 429:C:\Micrium\Software\uCOS-III\Source\os_sem.c ****             *p_err = OS_ERR_STATUS_INVALID;
 604              		.loc 1 429 0
 605 01bc 3B6C     		ldr	r3, [r7, #64]
 606 01be 46F62E62 		movw	r2, #28206
 607 01c2 1A80     		strh	r2, [r3, #0]	@ movhi
 430:C:\Micrium\Software\uCOS-III\Source\os_sem.c ****              CPU_CRITICAL_EXIT();
 608              		.loc 1 430 0
 609 01c4 786B     		ldr	r0, [r7, #52]
 610 01c6 FFF7FEFF 		bl	CPU_SR_Restore
 431:C:\Micrium\Software\uCOS-III\Source\os_sem.c ****              return ((OS_SEM_CTR)0);
 611              		.loc 1 431 0
 612 01ca 4FF00003 		mov	r3, #0
 613 01ce 06E0     		b	.L24
 614              	.L41:
 432:C:\Micrium\Software\uCOS-III\Source\os_sem.c ****     }
 433:C:\Micrium\Software\uCOS-III\Source\os_sem.c ****     ctr = p_sem->Ctr;
 615              		.loc 1 433 0
 616 01d0 FB68     		ldr	r3, [r7, #12]
 617 01d2 1B6A     		ldr	r3, [r3, #32]
 618 01d4 3B63     		str	r3, [r7, #48]
 434:C:\Micrium\Software\uCOS-III\Source\os_sem.c ****     CPU_CRITICAL_EXIT();
 619              		.loc 1 434 0
 620 01d6 786B     		ldr	r0, [r7, #52]
 621 01d8 FFF7FEFF 		bl	CPU_SR_Restore
 435:C:\Micrium\Software\uCOS-III\Source\os_sem.c ****     return (ctr);
 622              		.loc 1 435 0
 623 01dc 3B6B     		ldr	r3, [r7, #48]
 624              	.L24:
 436:C:\Micrium\Software\uCOS-III\Source\os_sem.c **** }
 625              		.loc 1 436 0
 626 01de 1846     		mov	r0, r3
 627 01e0 07F13807 		add	r7, r7, #56
 628 01e4 BD46     		mov	sp, r7
 629 01e6 80BD     		pop	{r7, pc}
 630              		.cfi_endproc
 631              	.LFE2:
 632              		.size	OSSemPend, .-OSSemPend
 633              		.section	.text.OSSemPendAbort,"ax",%progbits
 634              		.align	2
 635              		.global	OSSemPendAbort
 636              		.thumb
 637              		.thumb_func
 638              		.type	OSSemPendAbort, %function
 639              	OSSemPendAbort:
 640              	.LFB3:
 437:C:\Micrium\Software\uCOS-III\Source\os_sem.c **** 
 438:C:\Micrium\Software\uCOS-III\Source\os_sem.c **** /*$PAGE*/
 439:C:\Micrium\Software\uCOS-III\Source\os_sem.c **** /*
ARM GAS  C:\Users\daniel01\AppData\Local\Temp\ccip0sTe.s 			page 20


 440:C:\Micrium\Software\uCOS-III\Source\os_sem.c **** ***************************************************************************************************
 441:C:\Micrium\Software\uCOS-III\Source\os_sem.c **** *                                             ABORT WAITING ON A SEMAPHORE
 442:C:\Micrium\Software\uCOS-III\Source\os_sem.c **** *
 443:C:\Micrium\Software\uCOS-III\Source\os_sem.c **** * Description: This function aborts & readies any tasks currently waiting on a semaphore.  This fun
 444:C:\Micrium\Software\uCOS-III\Source\os_sem.c **** *              to fault-abort the wait on the semaphore, rather than to normally signal the semapho
 445:C:\Micrium\Software\uCOS-III\Source\os_sem.c **** *
 446:C:\Micrium\Software\uCOS-III\Source\os_sem.c **** * Arguments  : p_sem     is a pointer to the semaphore
 447:C:\Micrium\Software\uCOS-III\Source\os_sem.c **** *
 448:C:\Micrium\Software\uCOS-III\Source\os_sem.c **** *              opt       determines the type of ABORT performed:
 449:C:\Micrium\Software\uCOS-III\Source\os_sem.c **** *
 450:C:\Micrium\Software\uCOS-III\Source\os_sem.c **** *                            OS_OPT_PEND_ABORT_1          ABORT wait for a single task (HPT) waitin
 451:C:\Micrium\Software\uCOS-III\Source\os_sem.c **** *                            OS_OPT_PEND_ABORT_ALL        ABORT wait for ALL tasks that are  waitin
 452:C:\Micrium\Software\uCOS-III\Source\os_sem.c **** *                            OS_OPT_POST_NO_SCHED         Do not call the scheduler
 453:C:\Micrium\Software\uCOS-III\Source\os_sem.c **** *
 454:C:\Micrium\Software\uCOS-III\Source\os_sem.c **** *              p_err     is a pointer to a variable that will contain an error code returned by thi
 455:C:\Micrium\Software\uCOS-III\Source\os_sem.c **** *
 456:C:\Micrium\Software\uCOS-III\Source\os_sem.c **** *                            OS_ERR_NONE                  At least one task waiting on the semaphor
 457:C:\Micrium\Software\uCOS-III\Source\os_sem.c **** *                                                         informed of the aborted wait; check retur
 458:C:\Micrium\Software\uCOS-III\Source\os_sem.c **** *                                                         number of tasks whose wait on the semapho
 459:C:\Micrium\Software\uCOS-III\Source\os_sem.c **** *                            OS_ERR_OBJ_PTR_NULL          If 'p_sem' is a NULL pointer.
 460:C:\Micrium\Software\uCOS-III\Source\os_sem.c **** *                            OS_ERR_OBJ_TYPE              If 'p_sem' is not pointing at a semaphore
 461:C:\Micrium\Software\uCOS-III\Source\os_sem.c **** *                            OS_ERR_OPT_INVALID           If you specified an invalid option
 462:C:\Micrium\Software\uCOS-III\Source\os_sem.c **** *                            OS_ERR_PEND_ABORT_ISR        If you called this function from an ISR
 463:C:\Micrium\Software\uCOS-III\Source\os_sem.c **** *                            OS_ERR_PEND_ABORT_NONE       No task were pending
 464:C:\Micrium\Software\uCOS-III\Source\os_sem.c **** *
 465:C:\Micrium\Software\uCOS-III\Source\os_sem.c **** * Returns    : == 0          if no tasks were waiting on the semaphore, or upon error.
 466:C:\Micrium\Software\uCOS-III\Source\os_sem.c **** *              >  0          if one or more tasks waiting on the semaphore are now readied and info
 467:C:\Micrium\Software\uCOS-III\Source\os_sem.c **** ***************************************************************************************************
 468:C:\Micrium\Software\uCOS-III\Source\os_sem.c **** */
 469:C:\Micrium\Software\uCOS-III\Source\os_sem.c **** 
 470:C:\Micrium\Software\uCOS-III\Source\os_sem.c **** #if OS_CFG_SEM_PEND_ABORT_EN > 0u
 471:C:\Micrium\Software\uCOS-III\Source\os_sem.c **** OS_OBJ_QTY  OSSemPendAbort (OS_SEM  *p_sem,
 472:C:\Micrium\Software\uCOS-III\Source\os_sem.c ****                             OS_OPT   opt,
 473:C:\Micrium\Software\uCOS-III\Source\os_sem.c ****                             OS_ERR  *p_err)
 474:C:\Micrium\Software\uCOS-III\Source\os_sem.c **** {
 641              		.loc 1 474 0
 642              		.cfi_startproc
 643              		@ args = 0, pretend = 0, frame = 40
 644              		@ frame_needed = 1, uses_anonymous_args = 0
 645 0000 80B5     		push	{r7, lr}
 646              	.LCFI9:
 647              		.cfi_def_cfa_offset 8
 648 0002 8AB0     		sub	sp, sp, #40
 649              	.LCFI10:
 650              		.cfi_def_cfa_offset 48
 651 0004 00AF     		add	r7, sp, #0
 652              		.cfi_offset 14, -4
 653              		.cfi_offset 7, -8
 654              	.LCFI11:
 655              		.cfi_def_cfa_register 7
 656 0006 F860     		str	r0, [r7, #12]
 657 0008 0B46     		mov	r3, r1
 658 000a 7A60     		str	r2, [r7, #4]
 659 000c 7B81     		strh	r3, [r7, #10]	@ movhi
 475:C:\Micrium\Software\uCOS-III\Source\os_sem.c ****     OS_PEND_LIST  *p_pend_list;
 476:C:\Micrium\Software\uCOS-III\Source\os_sem.c ****     OS_TCB        *p_tcb;
 477:C:\Micrium\Software\uCOS-III\Source\os_sem.c ****     CPU_TS         ts;
ARM GAS  C:\Users\daniel01\AppData\Local\Temp\ccip0sTe.s 			page 21


 478:C:\Micrium\Software\uCOS-III\Source\os_sem.c ****     OS_OBJ_QTY     nbr_tasks;
 479:C:\Micrium\Software\uCOS-III\Source\os_sem.c ****     CPU_SR_ALLOC();
 660              		.loc 1 479 0
 661 000e 4FF00003 		mov	r3, #0
 662 0012 7B62     		str	r3, [r7, #36]
 480:C:\Micrium\Software\uCOS-III\Source\os_sem.c **** 
 481:C:\Micrium\Software\uCOS-III\Source\os_sem.c **** 
 482:C:\Micrium\Software\uCOS-III\Source\os_sem.c **** 
 483:C:\Micrium\Software\uCOS-III\Source\os_sem.c **** #ifdef OS_SAFETY_CRITICAL
 484:C:\Micrium\Software\uCOS-III\Source\os_sem.c ****     if (p_err == (OS_ERR *)0) {
 485:C:\Micrium\Software\uCOS-III\Source\os_sem.c ****         OS_SAFETY_CRITICAL_EXCEPTION();
 486:C:\Micrium\Software\uCOS-III\Source\os_sem.c ****         return ((OS_OBJ_QTY)0u);
 487:C:\Micrium\Software\uCOS-III\Source\os_sem.c ****     }
 488:C:\Micrium\Software\uCOS-III\Source\os_sem.c **** #endif
 489:C:\Micrium\Software\uCOS-III\Source\os_sem.c **** 
 490:C:\Micrium\Software\uCOS-III\Source\os_sem.c **** #if OS_CFG_CALLED_FROM_ISR_CHK_EN > 0u
 491:C:\Micrium\Software\uCOS-III\Source\os_sem.c ****     if (OSIntNestingCtr > (OS_NESTING_CTR)0u) {             /* Not allowed to Pend Abort from an IS
 663              		.loc 1 491 0
 664 0014 40F20003 		movw	r3, #:lower16:OSIntNestingCtr
 665 0018 C0F20003 		movt	r3, #:upper16:OSIntNestingCtr
 666 001c 1B78     		ldrb	r3, [r3, #0]	@ zero_extendqisi2
 667 001e 002B     		cmp	r3, #0
 668 0020 06D0     		beq	.L48
 492:C:\Micrium\Software\uCOS-III\Source\os_sem.c ****        *p_err =  OS_ERR_PEND_ABORT_ISR;
 669              		.loc 1 492 0
 670 0022 7B68     		ldr	r3, [r7, #4]
 671 0024 46F2AA12 		movw	r2, #25002
 672 0028 1A80     		strh	r2, [r3, #0]	@ movhi
 493:C:\Micrium\Software\uCOS-III\Source\os_sem.c ****         return ((OS_OBJ_QTY)0u);
 673              		.loc 1 493 0
 674 002a 4FF00003 		mov	r3, #0
 675 002e 65E0     		b	.L49
 676              	.L48:
 494:C:\Micrium\Software\uCOS-III\Source\os_sem.c ****     }
 495:C:\Micrium\Software\uCOS-III\Source\os_sem.c **** #endif
 496:C:\Micrium\Software\uCOS-III\Source\os_sem.c **** 
 497:C:\Micrium\Software\uCOS-III\Source\os_sem.c **** #if OS_CFG_ARG_CHK_EN > 0u
 498:C:\Micrium\Software\uCOS-III\Source\os_sem.c ****     if (p_sem == (OS_SEM *)0) {                             /* Validate 'p_sem'                    
 677              		.loc 1 498 0
 678 0030 FB68     		ldr	r3, [r7, #12]
 679 0032 002B     		cmp	r3, #0
 680 0034 06D1     		bne	.L50
 499:C:\Micrium\Software\uCOS-III\Source\os_sem.c ****        *p_err =  OS_ERR_OBJ_PTR_NULL;
 681              		.loc 1 499 0
 682 0036 7B68     		ldr	r3, [r7, #4]
 683 0038 45F6C352 		movw	r2, #24003
 684 003c 1A80     		strh	r2, [r3, #0]	@ movhi
 500:C:\Micrium\Software\uCOS-III\Source\os_sem.c ****         return ((OS_OBJ_QTY)0u);
 685              		.loc 1 500 0
 686 003e 4FF00003 		mov	r3, #0
 687 0042 5BE0     		b	.L49
 688              	.L50:
 501:C:\Micrium\Software\uCOS-III\Source\os_sem.c ****     }
 502:C:\Micrium\Software\uCOS-III\Source\os_sem.c ****     switch (opt) {                                          /* Validate 'opt'                      
 689              		.loc 1 502 0
 690 0044 7B89     		ldrh	r3, [r7, #10]
 691 0046 B3F5807F 		cmp	r3, #256
ARM GAS  C:\Users\daniel01\AppData\Local\Temp\ccip0sTe.s 			page 22


 692 004a 0BD0     		beq	.L52
 693 004c B3F5807F 		cmp	r3, #256
 694 0050 02DC     		bgt	.L53
 695 0052 002B     		cmp	r3, #0
 696 0054 06D0     		beq	.L52
 697 0056 12E0     		b	.L51
 698              	.L53:
 699 0058 B3F5004F 		cmp	r3, #32768
 700 005c 02D0     		beq	.L52
 701 005e B3F5014F 		cmp	r3, #33024
 702 0062 0CD1     		bne	.L51
 703              	.L52:
 503:C:\Micrium\Software\uCOS-III\Source\os_sem.c ****         case OS_OPT_PEND_ABORT_1:
 504:C:\Micrium\Software\uCOS-III\Source\os_sem.c ****         case OS_OPT_PEND_ABORT_ALL:
 505:C:\Micrium\Software\uCOS-III\Source\os_sem.c ****         case OS_OPT_PEND_ABORT_1   | OS_OPT_POST_NO_SCHED:
 506:C:\Micrium\Software\uCOS-III\Source\os_sem.c ****         case OS_OPT_PEND_ABORT_ALL | OS_OPT_POST_NO_SCHED:
 507:C:\Micrium\Software\uCOS-III\Source\os_sem.c ****              break;
 508:C:\Micrium\Software\uCOS-III\Source\os_sem.c **** 
 509:C:\Micrium\Software\uCOS-III\Source\os_sem.c ****         default:
 510:C:\Micrium\Software\uCOS-III\Source\os_sem.c ****             *p_err =  OS_ERR_OPT_INVALID;
 511:C:\Micrium\Software\uCOS-III\Source\os_sem.c ****              return ((OS_OBJ_QTY)0u);
 512:C:\Micrium\Software\uCOS-III\Source\os_sem.c ****     }
 513:C:\Micrium\Software\uCOS-III\Source\os_sem.c **** #endif
 514:C:\Micrium\Software\uCOS-III\Source\os_sem.c **** 
 515:C:\Micrium\Software\uCOS-III\Source\os_sem.c **** #if OS_CFG_OBJ_TYPE_CHK_EN > 0u
 516:C:\Micrium\Software\uCOS-III\Source\os_sem.c ****     if (p_sem->Type != OS_OBJ_TYPE_SEM) {                   /* Make sure semaphore was created     
 517:C:\Micrium\Software\uCOS-III\Source\os_sem.c ****        *p_err =  OS_ERR_OBJ_TYPE;
 518:C:\Micrium\Software\uCOS-III\Source\os_sem.c ****         return ((OS_OBJ_QTY)0u);
 519:C:\Micrium\Software\uCOS-III\Source\os_sem.c ****     }
 520:C:\Micrium\Software\uCOS-III\Source\os_sem.c **** #endif
 521:C:\Micrium\Software\uCOS-III\Source\os_sem.c **** 
 522:C:\Micrium\Software\uCOS-III\Source\os_sem.c ****     CPU_CRITICAL_ENTER();
 704              		.loc 1 522 0
 705 0064 FFF7FEFF 		bl	CPU_SR_Save
 706 0068 0346     		mov	r3, r0
 707 006a 7B62     		str	r3, [r7, #36]
 523:C:\Micrium\Software\uCOS-III\Source\os_sem.c ****     p_pend_list = &p_sem->PendList;
 708              		.loc 1 523 0
 709 006c FB68     		ldr	r3, [r7, #12]
 710 006e 03F10803 		add	r3, r3, #8
 711 0072 7B61     		str	r3, [r7, #20]
 524:C:\Micrium\Software\uCOS-III\Source\os_sem.c ****     if (p_pend_list->NbrEntries == (OS_OBJ_QTY)0u) {        /* Any task waiting on semaphore?      
 712              		.loc 1 524 0
 713 0074 7B69     		ldr	r3, [r7, #20]
 714 0076 1B89     		ldrh	r3, [r3, #8]
 715 0078 002B     		cmp	r3, #0
 716 007a 07D0     		beq	.L54
 717 007c 10E0     		b	.L61
 718              	.L51:
 719              		.loc 1 510 0
 720 007e 7B68     		ldr	r3, [r7, #4]
 721 0080 45F62562 		movw	r2, #24101
 722 0084 1A80     		strh	r2, [r3, #0]	@ movhi
 723              		.loc 1 511 0
 724 0086 4FF00003 		mov	r3, #0
 725 008a 37E0     		b	.L49
 726              	.L54:
ARM GAS  C:\Users\daniel01\AppData\Local\Temp\ccip0sTe.s 			page 23


 525:C:\Micrium\Software\uCOS-III\Source\os_sem.c ****         CPU_CRITICAL_EXIT();                                /* No                                  
 727              		.loc 1 525 0
 728 008c 786A     		ldr	r0, [r7, #36]
 729 008e FFF7FEFF 		bl	CPU_SR_Restore
 526:C:\Micrium\Software\uCOS-III\Source\os_sem.c ****        *p_err =  OS_ERR_PEND_ABORT_NONE;
 730              		.loc 1 526 0
 731 0092 7B68     		ldr	r3, [r7, #4]
 732 0094 46F2AB12 		movw	r2, #25003
 733 0098 1A80     		strh	r2, [r3, #0]	@ movhi
 527:C:\Micrium\Software\uCOS-III\Source\os_sem.c ****         return ((OS_OBJ_QTY)0u);
 734              		.loc 1 527 0
 735 009a 4FF00003 		mov	r3, #0
 736 009e 2DE0     		b	.L49
 737              	.L61:
 528:C:\Micrium\Software\uCOS-III\Source\os_sem.c ****     }
 529:C:\Micrium\Software\uCOS-III\Source\os_sem.c **** 
 530:C:\Micrium\Software\uCOS-III\Source\os_sem.c ****     OS_CRITICAL_ENTER_CPU_EXIT();
 531:C:\Micrium\Software\uCOS-III\Source\os_sem.c ****     nbr_tasks = 0u;
 738              		.loc 1 531 0
 739 00a0 4FF00003 		mov	r3, #0
 740 00a4 7B84     		strh	r3, [r7, #34]	@ movhi
 532:C:\Micrium\Software\uCOS-III\Source\os_sem.c ****     ts        = OS_TS_GET();                                /* Get local time stamp so all tasks ge
 741              		.loc 1 532 0
 742 00a6 FFF7FEFF 		bl	CPU_TS_TmrRd
 743 00aa 0346     		mov	r3, r0
 744 00ac FB61     		str	r3, [r7, #28]
 533:C:\Micrium\Software\uCOS-III\Source\os_sem.c ****     while (p_pend_list->NbrEntries > (OS_OBJ_QTY)0u) {
 745              		.loc 1 533 0
 746 00ae 11E0     		b	.L56
 747              	.L58:
 534:C:\Micrium\Software\uCOS-III\Source\os_sem.c ****         p_tcb = p_pend_list->HeadPtr->TCBPtr;
 748              		.loc 1 534 0
 749 00b0 7B69     		ldr	r3, [r7, #20]
 750 00b2 1B68     		ldr	r3, [r3, #0]
 751 00b4 9B68     		ldr	r3, [r3, #8]
 752 00b6 BB61     		str	r3, [r7, #24]
 535:C:\Micrium\Software\uCOS-III\Source\os_sem.c ****         OS_PendAbort((OS_PEND_OBJ *)((void *)p_sem),
 753              		.loc 1 535 0
 754 00b8 FB68     		ldr	r3, [r7, #12]
 755 00ba 1846     		mov	r0, r3
 756 00bc B969     		ldr	r1, [r7, #24]
 757 00be FA69     		ldr	r2, [r7, #28]
 758 00c0 FFF7FEFF 		bl	OS_PendAbort
 536:C:\Micrium\Software\uCOS-III\Source\os_sem.c ****                      p_tcb,
 537:C:\Micrium\Software\uCOS-III\Source\os_sem.c ****                      ts);
 538:C:\Micrium\Software\uCOS-III\Source\os_sem.c ****         nbr_tasks++;
 759              		.loc 1 538 0
 760 00c4 7B8C     		ldrh	r3, [r7, #34]	@ movhi
 761 00c6 03F10103 		add	r3, r3, #1
 762 00ca 7B84     		strh	r3, [r7, #34]	@ movhi
 539:C:\Micrium\Software\uCOS-III\Source\os_sem.c ****         if (opt != OS_OPT_PEND_ABORT_ALL) {                 /* Pend abort all tasks waiting?       
 763              		.loc 1 539 0
 764 00cc 7B89     		ldrh	r3, [r7, #10]
 765 00ce B3F5807F 		cmp	r3, #256
 766 00d2 04D1     		bne	.L62
 767              	.L56:
 768              		.loc 1 533 0
ARM GAS  C:\Users\daniel01\AppData\Local\Temp\ccip0sTe.s 			page 24


 769 00d4 7B69     		ldr	r3, [r7, #20]
 770 00d6 1B89     		ldrh	r3, [r3, #8]
 771 00d8 002B     		cmp	r3, #0
 772 00da E9D1     		bne	.L58
 773 00dc 00E0     		b	.L57
 774              	.L62:
 540:C:\Micrium\Software\uCOS-III\Source\os_sem.c ****             break;                                          /* No                                  
 775              		.loc 1 540 0
 776 00de 00BF     		nop
 777              	.L57:
 541:C:\Micrium\Software\uCOS-III\Source\os_sem.c ****         }
 542:C:\Micrium\Software\uCOS-III\Source\os_sem.c ****     }
 543:C:\Micrium\Software\uCOS-III\Source\os_sem.c ****     OS_CRITICAL_EXIT_NO_SCHED();
 778              		.loc 1 543 0
 779 00e0 786A     		ldr	r0, [r7, #36]
 780 00e2 FFF7FEFF 		bl	CPU_SR_Restore
 544:C:\Micrium\Software\uCOS-III\Source\os_sem.c **** 
 545:C:\Micrium\Software\uCOS-III\Source\os_sem.c ****     if ((opt & OS_OPT_POST_NO_SCHED) == (OS_OPT)0u) {
 781              		.loc 1 545 0
 782 00e6 7B89     		ldrh	r3, [r7, #10]
 783 00e8 1BB2     		sxth	r3, r3
 784 00ea 002B     		cmp	r3, #0
 785 00ec 01DB     		blt	.L59
 546:C:\Micrium\Software\uCOS-III\Source\os_sem.c ****         OSSched();                                          /* Run the scheduler                   
 786              		.loc 1 546 0
 787 00ee FFF7FEFF 		bl	OSSched
 788              	.L59:
 547:C:\Micrium\Software\uCOS-III\Source\os_sem.c ****     }
 548:C:\Micrium\Software\uCOS-III\Source\os_sem.c **** 
 549:C:\Micrium\Software\uCOS-III\Source\os_sem.c ****    *p_err = OS_ERR_NONE;
 789              		.loc 1 549 0
 790 00f2 7B68     		ldr	r3, [r7, #4]
 791 00f4 4FF00002 		mov	r2, #0
 792 00f8 1A80     		strh	r2, [r3, #0]	@ movhi
 550:C:\Micrium\Software\uCOS-III\Source\os_sem.c ****     return (nbr_tasks);
 793              		.loc 1 550 0
 794 00fa 7B8C     		ldrh	r3, [r7, #34]
 795              	.L49:
 551:C:\Micrium\Software\uCOS-III\Source\os_sem.c **** }
 796              		.loc 1 551 0
 797 00fc 1846     		mov	r0, r3
 798 00fe 07F12807 		add	r7, r7, #40
 799 0102 BD46     		mov	sp, r7
 800 0104 80BD     		pop	{r7, pc}
 801              		.cfi_endproc
 802              	.LFE3:
 803              		.size	OSSemPendAbort, .-OSSemPendAbort
 804 0106 00BF     		.section	.text.OSSemPost,"ax",%progbits
 805              		.align	2
 806              		.global	OSSemPost
 807              		.thumb
 808              		.thumb_func
 809              		.type	OSSemPost, %function
 810              	OSSemPost:
 811              	.LFB4:
 552:C:\Micrium\Software\uCOS-III\Source\os_sem.c **** #endif
 553:C:\Micrium\Software\uCOS-III\Source\os_sem.c **** 
ARM GAS  C:\Users\daniel01\AppData\Local\Temp\ccip0sTe.s 			page 25


 554:C:\Micrium\Software\uCOS-III\Source\os_sem.c **** /*$PAGE*/
 555:C:\Micrium\Software\uCOS-III\Source\os_sem.c **** /*
 556:C:\Micrium\Software\uCOS-III\Source\os_sem.c **** ***************************************************************************************************
 557:C:\Micrium\Software\uCOS-III\Source\os_sem.c **** *                                                 POST TO A SEMAPHORE
 558:C:\Micrium\Software\uCOS-III\Source\os_sem.c **** *
 559:C:\Micrium\Software\uCOS-III\Source\os_sem.c **** * Description: This function signals a semaphore
 560:C:\Micrium\Software\uCOS-III\Source\os_sem.c **** *
 561:C:\Micrium\Software\uCOS-III\Source\os_sem.c **** * Arguments  : p_sem    is a pointer to the semaphore
 562:C:\Micrium\Software\uCOS-III\Source\os_sem.c **** *
 563:C:\Micrium\Software\uCOS-III\Source\os_sem.c **** *              opt      determines the type of POST performed:
 564:C:\Micrium\Software\uCOS-III\Source\os_sem.c **** *
 565:C:\Micrium\Software\uCOS-III\Source\os_sem.c **** *                           OS_OPT_POST_1            POST and ready only the highest priority task 
 566:C:\Micrium\Software\uCOS-III\Source\os_sem.c **** *                                                    (if tasks are waiting).
 567:C:\Micrium\Software\uCOS-III\Source\os_sem.c **** *                           OS_OPT_POST_ALL          POST to ALL tasks that are waiting on the sema
 568:C:\Micrium\Software\uCOS-III\Source\os_sem.c **** *
 569:C:\Micrium\Software\uCOS-III\Source\os_sem.c **** *                           OS_OPT_POST_NO_SCHED     Do not call the scheduler
 570:C:\Micrium\Software\uCOS-III\Source\os_sem.c **** *
 571:C:\Micrium\Software\uCOS-III\Source\os_sem.c **** *                           Note(s): 1) OS_OPT_POST_NO_SCHED can be added with one of the other opt
 572:C:\Micrium\Software\uCOS-III\Source\os_sem.c **** *
 573:C:\Micrium\Software\uCOS-III\Source\os_sem.c **** *              p_err    is a pointer to a variable that will contain an error code returned by this
 574:C:\Micrium\Software\uCOS-III\Source\os_sem.c **** *
 575:C:\Micrium\Software\uCOS-III\Source\os_sem.c **** *                           OS_ERR_NONE          The call was successful and the semaphore was sign
 576:C:\Micrium\Software\uCOS-III\Source\os_sem.c **** *                           OS_ERR_OBJ_PTR_NULL  If 'p_sem' is a NULL pointer.
 577:C:\Micrium\Software\uCOS-III\Source\os_sem.c **** *                           OS_ERR_OBJ_TYPE      If 'p_sem' is not pointing at a semaphore
 578:C:\Micrium\Software\uCOS-III\Source\os_sem.c **** *                           OS_ERR_SEM_OVF       If the post would cause the semaphore count to ove
 579:C:\Micrium\Software\uCOS-III\Source\os_sem.c **** *
 580:C:\Micrium\Software\uCOS-III\Source\os_sem.c **** * Returns    : The current value of the semaphore counter or 0 upon error.
 581:C:\Micrium\Software\uCOS-III\Source\os_sem.c **** ***************************************************************************************************
 582:C:\Micrium\Software\uCOS-III\Source\os_sem.c **** */
 583:C:\Micrium\Software\uCOS-III\Source\os_sem.c **** 
 584:C:\Micrium\Software\uCOS-III\Source\os_sem.c **** OS_SEM_CTR  OSSemPost (OS_SEM  *p_sem,
 585:C:\Micrium\Software\uCOS-III\Source\os_sem.c ****                        OS_OPT   opt,
 586:C:\Micrium\Software\uCOS-III\Source\os_sem.c ****                        OS_ERR  *p_err)
 587:C:\Micrium\Software\uCOS-III\Source\os_sem.c **** {
 812              		.loc 1 587 0
 813              		.cfi_startproc
 814              		@ args = 0, pretend = 0, frame = 24
 815              		@ frame_needed = 1, uses_anonymous_args = 0
 816 0000 80B5     		push	{r7, lr}
 817              	.LCFI12:
 818              		.cfi_def_cfa_offset 8
 819 0002 86B0     		sub	sp, sp, #24
 820              	.LCFI13:
 821              		.cfi_def_cfa_offset 32
 822 0004 00AF     		add	r7, sp, #0
 823              		.cfi_offset 14, -4
 824              		.cfi_offset 7, -8
 825              	.LCFI14:
 826              		.cfi_def_cfa_register 7
 827 0006 F860     		str	r0, [r7, #12]
 828 0008 0B46     		mov	r3, r1
 829 000a 7A60     		str	r2, [r7, #4]
 830 000c 7B81     		strh	r3, [r7, #10]	@ movhi
 588:C:\Micrium\Software\uCOS-III\Source\os_sem.c ****     OS_SEM_CTR  ctr;
 589:C:\Micrium\Software\uCOS-III\Source\os_sem.c ****     CPU_TS      ts;
 590:C:\Micrium\Software\uCOS-III\Source\os_sem.c **** 
 591:C:\Micrium\Software\uCOS-III\Source\os_sem.c **** 
ARM GAS  C:\Users\daniel01\AppData\Local\Temp\ccip0sTe.s 			page 26


 592:C:\Micrium\Software\uCOS-III\Source\os_sem.c **** 
 593:C:\Micrium\Software\uCOS-III\Source\os_sem.c **** #ifdef OS_SAFETY_CRITICAL
 594:C:\Micrium\Software\uCOS-III\Source\os_sem.c ****     if (p_err == (OS_ERR *)0) {
 595:C:\Micrium\Software\uCOS-III\Source\os_sem.c ****         OS_SAFETY_CRITICAL_EXCEPTION();
 596:C:\Micrium\Software\uCOS-III\Source\os_sem.c ****         return ((OS_SEM_CTR)0);
 597:C:\Micrium\Software\uCOS-III\Source\os_sem.c ****     }
 598:C:\Micrium\Software\uCOS-III\Source\os_sem.c **** #endif
 599:C:\Micrium\Software\uCOS-III\Source\os_sem.c **** 
 600:C:\Micrium\Software\uCOS-III\Source\os_sem.c **** #if OS_CFG_ARG_CHK_EN > 0u
 601:C:\Micrium\Software\uCOS-III\Source\os_sem.c ****     if (p_sem == (OS_SEM *)0) {                             /* Validate 'p_sem'                    
 831              		.loc 1 601 0
 832 000e FB68     		ldr	r3, [r7, #12]
 833 0010 002B     		cmp	r3, #0
 834 0012 06D1     		bne	.L64
 602:C:\Micrium\Software\uCOS-III\Source\os_sem.c ****        *p_err  = OS_ERR_OBJ_PTR_NULL;
 835              		.loc 1 602 0
 836 0014 7B68     		ldr	r3, [r7, #4]
 837 0016 45F6C352 		movw	r2, #24003
 838 001a 1A80     		strh	r2, [r3, #0]	@ movhi
 603:C:\Micrium\Software\uCOS-III\Source\os_sem.c ****         return ((OS_SEM_CTR)0);
 839              		.loc 1 603 0
 840 001c 4FF00003 		mov	r3, #0
 841 0020 24E0     		b	.L65
 842              	.L64:
 604:C:\Micrium\Software\uCOS-III\Source\os_sem.c ****     }
 605:C:\Micrium\Software\uCOS-III\Source\os_sem.c ****     switch (opt) {                                          /* Validate 'opt'                      
 843              		.loc 1 605 0
 844 0022 7B89     		ldrh	r3, [r7, #10]
 845 0024 B3F5007F 		cmp	r3, #512
 846 0028 0BD0     		beq	.L67
 847 002a B3F5007F 		cmp	r3, #512
 848 002e 02DC     		bgt	.L68
 849 0030 002B     		cmp	r3, #0
 850 0032 06D0     		beq	.L67
 851 0034 14E0     		b	.L66
 852              	.L68:
 853 0036 B3F5004F 		cmp	r3, #32768
 854 003a 02D0     		beq	.L67
 855 003c B3F5024F 		cmp	r3, #33280
 856 0040 0ED1     		bne	.L66
 857              	.L67:
 606:C:\Micrium\Software\uCOS-III\Source\os_sem.c ****         case OS_OPT_POST_1:
 607:C:\Micrium\Software\uCOS-III\Source\os_sem.c ****         case OS_OPT_POST_ALL:
 608:C:\Micrium\Software\uCOS-III\Source\os_sem.c ****         case OS_OPT_POST_1   | OS_OPT_POST_NO_SCHED:
 609:C:\Micrium\Software\uCOS-III\Source\os_sem.c ****         case OS_OPT_POST_ALL | OS_OPT_POST_NO_SCHED:
 610:C:\Micrium\Software\uCOS-III\Source\os_sem.c ****              break;
 611:C:\Micrium\Software\uCOS-III\Source\os_sem.c **** 
 612:C:\Micrium\Software\uCOS-III\Source\os_sem.c ****         default:
 613:C:\Micrium\Software\uCOS-III\Source\os_sem.c ****             *p_err =  OS_ERR_OPT_INVALID;
 614:C:\Micrium\Software\uCOS-III\Source\os_sem.c ****              return ((OS_SEM_CTR)0u);
 615:C:\Micrium\Software\uCOS-III\Source\os_sem.c ****     }
 616:C:\Micrium\Software\uCOS-III\Source\os_sem.c **** #endif
 617:C:\Micrium\Software\uCOS-III\Source\os_sem.c **** 
 618:C:\Micrium\Software\uCOS-III\Source\os_sem.c **** #if OS_CFG_OBJ_TYPE_CHK_EN > 0u
 619:C:\Micrium\Software\uCOS-III\Source\os_sem.c ****     if (p_sem->Type != OS_OBJ_TYPE_SEM) {                   /* Make sure semaphore was created     
 620:C:\Micrium\Software\uCOS-III\Source\os_sem.c ****        *p_err = OS_ERR_OBJ_TYPE;
 621:C:\Micrium\Software\uCOS-III\Source\os_sem.c ****         return ((OS_SEM_CTR)0);
ARM GAS  C:\Users\daniel01\AppData\Local\Temp\ccip0sTe.s 			page 27


 622:C:\Micrium\Software\uCOS-III\Source\os_sem.c ****     }
 623:C:\Micrium\Software\uCOS-III\Source\os_sem.c **** #endif
 624:C:\Micrium\Software\uCOS-III\Source\os_sem.c **** 
 625:C:\Micrium\Software\uCOS-III\Source\os_sem.c ****     ts = OS_TS_GET();                                       /* Get timestamp                       
 858              		.loc 1 625 0
 859 0042 FFF7FEFF 		bl	CPU_TS_TmrRd
 860 0046 0346     		mov	r3, r0
 861 0048 7B61     		str	r3, [r7, #20]
 626:C:\Micrium\Software\uCOS-III\Source\os_sem.c **** 
 627:C:\Micrium\Software\uCOS-III\Source\os_sem.c **** #if OS_CFG_ISR_POST_DEFERRED_EN > 0u
 628:C:\Micrium\Software\uCOS-III\Source\os_sem.c ****     if (OSIntNestingCtr > (OS_NESTING_CTR)0) {              /* See if called from an ISR           
 629:C:\Micrium\Software\uCOS-III\Source\os_sem.c ****         OS_IntQPost((OS_OBJ_TYPE)OS_OBJ_TYPE_SEM,           /* Post to ISR queue                   
 630:C:\Micrium\Software\uCOS-III\Source\os_sem.c ****                     (void      *)p_sem,
 631:C:\Micrium\Software\uCOS-III\Source\os_sem.c ****                     (void      *)0,
 632:C:\Micrium\Software\uCOS-III\Source\os_sem.c ****                     (OS_MSG_SIZE)0,
 633:C:\Micrium\Software\uCOS-III\Source\os_sem.c ****                     (OS_FLAGS   )0,
 634:C:\Micrium\Software\uCOS-III\Source\os_sem.c ****                     (OS_OPT     )opt,
 635:C:\Micrium\Software\uCOS-III\Source\os_sem.c ****                     (CPU_TS     )ts,
 636:C:\Micrium\Software\uCOS-III\Source\os_sem.c ****                     (OS_ERR    *)p_err);
 637:C:\Micrium\Software\uCOS-III\Source\os_sem.c ****         return ((OS_SEM_CTR)0);
 638:C:\Micrium\Software\uCOS-III\Source\os_sem.c ****     }
 639:C:\Micrium\Software\uCOS-III\Source\os_sem.c **** #endif
 640:C:\Micrium\Software\uCOS-III\Source\os_sem.c **** 
 641:C:\Micrium\Software\uCOS-III\Source\os_sem.c ****     ctr = OS_SemPost(p_sem,                                 /* Post to semaphore                   
 862              		.loc 1 641 0
 863 004a 7B89     		ldrh	r3, [r7, #10]
 864 004c F868     		ldr	r0, [r7, #12]
 865 004e 1946     		mov	r1, r3
 866 0050 7A69     		ldr	r2, [r7, #20]
 867 0052 7B68     		ldr	r3, [r7, #4]
 868 0054 FFF7FEFF 		bl	OS_SemPost
 869 0058 0346     		mov	r3, r0
 870 005a 3B61     		str	r3, [r7, #16]
 642:C:\Micrium\Software\uCOS-III\Source\os_sem.c ****                      opt,
 643:C:\Micrium\Software\uCOS-III\Source\os_sem.c ****                      ts,
 644:C:\Micrium\Software\uCOS-III\Source\os_sem.c ****                      p_err);
 645:C:\Micrium\Software\uCOS-III\Source\os_sem.c **** 
 646:C:\Micrium\Software\uCOS-III\Source\os_sem.c ****     return (ctr);
 871              		.loc 1 646 0
 872 005c 3B69     		ldr	r3, [r7, #16]
 873 005e 05E0     		b	.L65
 874              	.L66:
 875              		.loc 1 613 0
 876 0060 7B68     		ldr	r3, [r7, #4]
 877 0062 45F62562 		movw	r2, #24101
 878 0066 1A80     		strh	r2, [r3, #0]	@ movhi
 879              		.loc 1 614 0
 880 0068 4FF00003 		mov	r3, #0
 881              	.L65:
 647:C:\Micrium\Software\uCOS-III\Source\os_sem.c **** }
 882              		.loc 1 647 0
 883 006c 1846     		mov	r0, r3
 884 006e 07F11807 		add	r7, r7, #24
 885 0072 BD46     		mov	sp, r7
 886 0074 80BD     		pop	{r7, pc}
 887              		.cfi_endproc
 888              	.LFE4:
ARM GAS  C:\Users\daniel01\AppData\Local\Temp\ccip0sTe.s 			page 28


 889              		.size	OSSemPost, .-OSSemPost
 890 0076 00BF     		.section	.text.OSSemSet,"ax",%progbits
 891              		.align	2
 892              		.global	OSSemSet
 893              		.thumb
 894              		.thumb_func
 895              		.type	OSSemSet, %function
 896              	OSSemSet:
 897              	.LFB5:
 648:C:\Micrium\Software\uCOS-III\Source\os_sem.c **** 
 649:C:\Micrium\Software\uCOS-III\Source\os_sem.c **** /*$PAGE*/
 650:C:\Micrium\Software\uCOS-III\Source\os_sem.c **** /*
 651:C:\Micrium\Software\uCOS-III\Source\os_sem.c **** ***************************************************************************************************
 652:C:\Micrium\Software\uCOS-III\Source\os_sem.c **** *                                                    SET SEMAPHORE
 653:C:\Micrium\Software\uCOS-III\Source\os_sem.c **** *
 654:C:\Micrium\Software\uCOS-III\Source\os_sem.c **** * Description: This function sets the semaphore count to the value specified as an argument.  Typic
 655:C:\Micrium\Software\uCOS-III\Source\os_sem.c **** *              would be 0 but of course, we can set the semaphore to any value.
 656:C:\Micrium\Software\uCOS-III\Source\os_sem.c **** *
 657:C:\Micrium\Software\uCOS-III\Source\os_sem.c **** *              You would typically use this function when a semaphore is used as a signaling mechan
 658:C:\Micrium\Software\uCOS-III\Source\os_sem.c **** *              and, you want to reset the count value.
 659:C:\Micrium\Software\uCOS-III\Source\os_sem.c **** *
 660:C:\Micrium\Software\uCOS-III\Source\os_sem.c **** * Arguments  : p_sem     is a pointer to the semaphore
 661:C:\Micrium\Software\uCOS-III\Source\os_sem.c **** *
 662:C:\Micrium\Software\uCOS-III\Source\os_sem.c **** *              cnt       is the new value for the semaphore count.  You would pass 0 to reset the s
 663:C:\Micrium\Software\uCOS-III\Source\os_sem.c **** *
 664:C:\Micrium\Software\uCOS-III\Source\os_sem.c **** *              p_err     is a pointer to a variable that will contain an error code returned by thi
 665:C:\Micrium\Software\uCOS-III\Source\os_sem.c **** *
 666:C:\Micrium\Software\uCOS-III\Source\os_sem.c **** *                            OS_ERR_NONE           The call was successful and the semaphore value 
 667:C:\Micrium\Software\uCOS-III\Source\os_sem.c **** *                            OS_ERR_OBJ_PTR_NULL   If 'p_sem' is a NULL pointer.
 668:C:\Micrium\Software\uCOS-III\Source\os_sem.c **** *                            OS_ERR_OBJ_TYPE       If 'p_sem' is not pointing to a semaphore.
 669:C:\Micrium\Software\uCOS-III\Source\os_sem.c **** *                            OS_ERR_TASK_WAITING   If tasks are waiting on the semaphore.
 670:C:\Micrium\Software\uCOS-III\Source\os_sem.c **** *
 671:C:\Micrium\Software\uCOS-III\Source\os_sem.c **** * Returns    : None
 672:C:\Micrium\Software\uCOS-III\Source\os_sem.c **** ***************************************************************************************************
 673:C:\Micrium\Software\uCOS-III\Source\os_sem.c **** */
 674:C:\Micrium\Software\uCOS-III\Source\os_sem.c **** 
 675:C:\Micrium\Software\uCOS-III\Source\os_sem.c **** #if OS_CFG_SEM_SET_EN > 0u
 676:C:\Micrium\Software\uCOS-III\Source\os_sem.c **** void  OSSemSet (OS_SEM      *p_sem,
 677:C:\Micrium\Software\uCOS-III\Source\os_sem.c ****                 OS_SEM_CTR   cnt,
 678:C:\Micrium\Software\uCOS-III\Source\os_sem.c ****                 OS_ERR      *p_err)
 679:C:\Micrium\Software\uCOS-III\Source\os_sem.c **** {
 898              		.loc 1 679 0
 899              		.cfi_startproc
 900              		@ args = 0, pretend = 0, frame = 24
 901              		@ frame_needed = 1, uses_anonymous_args = 0
 902 0000 80B5     		push	{r7, lr}
 903              	.LCFI15:
 904              		.cfi_def_cfa_offset 8
 905 0002 86B0     		sub	sp, sp, #24
 906              	.LCFI16:
 907              		.cfi_def_cfa_offset 32
 908 0004 00AF     		add	r7, sp, #0
 909              		.cfi_offset 14, -4
 910              		.cfi_offset 7, -8
 911              	.LCFI17:
 912              		.cfi_def_cfa_register 7
 913 0006 F860     		str	r0, [r7, #12]
ARM GAS  C:\Users\daniel01\AppData\Local\Temp\ccip0sTe.s 			page 29


 914 0008 B960     		str	r1, [r7, #8]
 915 000a 7A60     		str	r2, [r7, #4]
 680:C:\Micrium\Software\uCOS-III\Source\os_sem.c ****     OS_PEND_LIST  *p_pend_list;
 681:C:\Micrium\Software\uCOS-III\Source\os_sem.c ****     CPU_SR_ALLOC();
 916              		.loc 1 681 0
 917 000c 4FF00003 		mov	r3, #0
 918 0010 7B61     		str	r3, [r7, #20]
 682:C:\Micrium\Software\uCOS-III\Source\os_sem.c **** 
 683:C:\Micrium\Software\uCOS-III\Source\os_sem.c **** 
 684:C:\Micrium\Software\uCOS-III\Source\os_sem.c **** 
 685:C:\Micrium\Software\uCOS-III\Source\os_sem.c **** #ifdef OS_SAFETY_CRITICAL
 686:C:\Micrium\Software\uCOS-III\Source\os_sem.c ****     if (p_err == (OS_ERR *)0) {
 687:C:\Micrium\Software\uCOS-III\Source\os_sem.c ****         OS_SAFETY_CRITICAL_EXCEPTION();
 688:C:\Micrium\Software\uCOS-III\Source\os_sem.c ****         return;
 689:C:\Micrium\Software\uCOS-III\Source\os_sem.c ****     }
 690:C:\Micrium\Software\uCOS-III\Source\os_sem.c **** #endif
 691:C:\Micrium\Software\uCOS-III\Source\os_sem.c **** 
 692:C:\Micrium\Software\uCOS-III\Source\os_sem.c **** #if OS_CFG_CALLED_FROM_ISR_CHK_EN > 0u
 693:C:\Micrium\Software\uCOS-III\Source\os_sem.c ****     if (OSIntNestingCtr > (OS_NESTING_CTR)0) {              /* Can't call this function from an ISR
 919              		.loc 1 693 0
 920 0012 40F20003 		movw	r3, #:lower16:OSIntNestingCtr
 921 0016 C0F20003 		movt	r3, #:upper16:OSIntNestingCtr
 922 001a 1B78     		ldrb	r3, [r3, #0]	@ zero_extendqisi2
 923 001c 002B     		cmp	r3, #0
 924 001e 04D0     		beq	.L71
 694:C:\Micrium\Software\uCOS-III\Source\os_sem.c ****        *p_err = OS_ERR_SET_ISR;
 925              		.loc 1 694 0
 926 0020 7B68     		ldr	r3, [r7, #4]
 927 0022 46F6C652 		movw	r2, #28102
 928 0026 1A80     		strh	r2, [r3, #0]	@ movhi
 695:C:\Micrium\Software\uCOS-III\Source\os_sem.c ****         return;
 929              		.loc 1 695 0
 930 0028 2AE0     		b	.L77
 931              	.L71:
 696:C:\Micrium\Software\uCOS-III\Source\os_sem.c ****     }
 697:C:\Micrium\Software\uCOS-III\Source\os_sem.c **** #endif
 698:C:\Micrium\Software\uCOS-III\Source\os_sem.c **** 
 699:C:\Micrium\Software\uCOS-III\Source\os_sem.c **** #if OS_CFG_ARG_CHK_EN > 0u
 700:C:\Micrium\Software\uCOS-III\Source\os_sem.c ****     if (p_sem == (OS_SEM *)0) {                             /* Validate 'p_sem'                    
 932              		.loc 1 700 0
 933 002a FB68     		ldr	r3, [r7, #12]
 934 002c 002B     		cmp	r3, #0
 935 002e 04D1     		bne	.L73
 701:C:\Micrium\Software\uCOS-III\Source\os_sem.c ****        *p_err = OS_ERR_OBJ_PTR_NULL;
 936              		.loc 1 701 0
 937 0030 7B68     		ldr	r3, [r7, #4]
 938 0032 45F6C352 		movw	r2, #24003
 939 0036 1A80     		strh	r2, [r3, #0]	@ movhi
 702:C:\Micrium\Software\uCOS-III\Source\os_sem.c ****         return;
 940              		.loc 1 702 0
 941 0038 22E0     		b	.L77
 942              	.L73:
 703:C:\Micrium\Software\uCOS-III\Source\os_sem.c ****     }
 704:C:\Micrium\Software\uCOS-III\Source\os_sem.c **** #endif
 705:C:\Micrium\Software\uCOS-III\Source\os_sem.c **** 
 706:C:\Micrium\Software\uCOS-III\Source\os_sem.c **** #if OS_CFG_OBJ_TYPE_CHK_EN > 0u
 707:C:\Micrium\Software\uCOS-III\Source\os_sem.c ****     if (p_sem->Type != OS_OBJ_TYPE_SEM) {                   /* Make sure semaphore was created     
ARM GAS  C:\Users\daniel01\AppData\Local\Temp\ccip0sTe.s 			page 30


 708:C:\Micrium\Software\uCOS-III\Source\os_sem.c ****        *p_err = OS_ERR_OBJ_TYPE;
 709:C:\Micrium\Software\uCOS-III\Source\os_sem.c ****         return;
 710:C:\Micrium\Software\uCOS-III\Source\os_sem.c ****     }
 711:C:\Micrium\Software\uCOS-III\Source\os_sem.c **** #endif
 712:C:\Micrium\Software\uCOS-III\Source\os_sem.c **** 
 713:C:\Micrium\Software\uCOS-III\Source\os_sem.c ****    *p_err = OS_ERR_NONE;
 943              		.loc 1 713 0
 944 003a 7B68     		ldr	r3, [r7, #4]
 945 003c 4FF00002 		mov	r2, #0
 946 0040 1A80     		strh	r2, [r3, #0]	@ movhi
 714:C:\Micrium\Software\uCOS-III\Source\os_sem.c ****     CPU_CRITICAL_ENTER();
 947              		.loc 1 714 0
 948 0042 FFF7FEFF 		bl	CPU_SR_Save
 949 0046 0346     		mov	r3, r0
 950 0048 7B61     		str	r3, [r7, #20]
 715:C:\Micrium\Software\uCOS-III\Source\os_sem.c ****     if (p_sem->Ctr > (OS_SEM_CTR)0) {                       /* See if semaphore already has a count
 951              		.loc 1 715 0
 952 004a FB68     		ldr	r3, [r7, #12]
 953 004c 1B6A     		ldr	r3, [r3, #32]
 954 004e 002B     		cmp	r3, #0
 955 0050 03D0     		beq	.L74
 716:C:\Micrium\Software\uCOS-III\Source\os_sem.c ****         p_sem->Ctr = cnt;                                   /* Yes, set it to the new value specifi
 956              		.loc 1 716 0
 957 0052 FB68     		ldr	r3, [r7, #12]
 958 0054 BA68     		ldr	r2, [r7, #8]
 959 0056 1A62     		str	r2, [r3, #32]
 960 0058 0FE0     		b	.L75
 961              	.L74:
 717:C:\Micrium\Software\uCOS-III\Source\os_sem.c ****     } else {
 718:C:\Micrium\Software\uCOS-III\Source\os_sem.c ****         p_pend_list = &p_sem->PendList;                     /* No                                  
 962              		.loc 1 718 0
 963 005a FB68     		ldr	r3, [r7, #12]
 964 005c 03F10803 		add	r3, r3, #8
 965 0060 3B61     		str	r3, [r7, #16]
 719:C:\Micrium\Software\uCOS-III\Source\os_sem.c ****         if (p_pend_list->NbrEntries == (OS_OBJ_QTY)0) {     /*      See if task(s) waiting?        
 966              		.loc 1 719 0
 967 0062 3B69     		ldr	r3, [r7, #16]
 968 0064 1B89     		ldrh	r3, [r3, #8]
 969 0066 002B     		cmp	r3, #0
 970 0068 03D1     		bne	.L76
 720:C:\Micrium\Software\uCOS-III\Source\os_sem.c ****             p_sem->Ctr = cnt;                               /*      No, OK to set the value        
 971              		.loc 1 720 0
 972 006a FB68     		ldr	r3, [r7, #12]
 973 006c BA68     		ldr	r2, [r7, #8]
 974 006e 1A62     		str	r2, [r3, #32]
 975 0070 03E0     		b	.L75
 976              	.L76:
 721:C:\Micrium\Software\uCOS-III\Source\os_sem.c ****         } else {
 722:C:\Micrium\Software\uCOS-III\Source\os_sem.c ****            *p_err      = OS_ERR_TASK_WAITING;
 977              		.loc 1 722 0
 978 0072 7B68     		ldr	r3, [r7, #4]
 979 0074 47F25F12 		movw	r2, #29023
 980 0078 1A80     		strh	r2, [r3, #0]	@ movhi
 981              	.L75:
 723:C:\Micrium\Software\uCOS-III\Source\os_sem.c ****         }
 724:C:\Micrium\Software\uCOS-III\Source\os_sem.c ****     }
 725:C:\Micrium\Software\uCOS-III\Source\os_sem.c ****     CPU_CRITICAL_EXIT();
ARM GAS  C:\Users\daniel01\AppData\Local\Temp\ccip0sTe.s 			page 31


 982              		.loc 1 725 0
 983 007a 7869     		ldr	r0, [r7, #20]
 984 007c FFF7FEFF 		bl	CPU_SR_Restore
 985              	.L77:
 726:C:\Micrium\Software\uCOS-III\Source\os_sem.c **** }
 986              		.loc 1 726 0
 987 0080 07F11807 		add	r7, r7, #24
 988 0084 BD46     		mov	sp, r7
 989 0086 80BD     		pop	{r7, pc}
 990              		.cfi_endproc
 991              	.LFE5:
 992              		.size	OSSemSet, .-OSSemSet
 993              		.section	.rodata
 994              		.align	2
 995              	.LC0:
 996 0000 3F53454D 		.ascii	"?SEM\000"
 996      00
 997              		.section	.text.OS_SemClr,"ax",%progbits
 998              		.align	2
 999              		.global	OS_SemClr
 1000              		.thumb
 1001              		.thumb_func
 1002              		.type	OS_SemClr, %function
 1003              	OS_SemClr:
 1004              	.LFB6:
 727:C:\Micrium\Software\uCOS-III\Source\os_sem.c **** #endif
 728:C:\Micrium\Software\uCOS-III\Source\os_sem.c **** 
 729:C:\Micrium\Software\uCOS-III\Source\os_sem.c **** /*$PAGE*/
 730:C:\Micrium\Software\uCOS-III\Source\os_sem.c **** /*
 731:C:\Micrium\Software\uCOS-III\Source\os_sem.c **** ***************************************************************************************************
 732:C:\Micrium\Software\uCOS-III\Source\os_sem.c **** *                                           CLEAR THE CONTENTS OF A SEMAPHORE
 733:C:\Micrium\Software\uCOS-III\Source\os_sem.c **** *
 734:C:\Micrium\Software\uCOS-III\Source\os_sem.c **** * Description: This function is called by OSSemDel() to clear the contents of a semaphore
 735:C:\Micrium\Software\uCOS-III\Source\os_sem.c **** *
 736:C:\Micrium\Software\uCOS-III\Source\os_sem.c **** 
 737:C:\Micrium\Software\uCOS-III\Source\os_sem.c **** * Argument(s): p_sem      is a pointer to the semaphore to clear
 738:C:\Micrium\Software\uCOS-III\Source\os_sem.c **** *              -----
 739:C:\Micrium\Software\uCOS-III\Source\os_sem.c **** *
 740:C:\Micrium\Software\uCOS-III\Source\os_sem.c **** * Returns    : none
 741:C:\Micrium\Software\uCOS-III\Source\os_sem.c **** *
 742:C:\Micrium\Software\uCOS-III\Source\os_sem.c **** * Note(s)    : 1) This function is INTERNAL to uC/OS-III and your application MUST NOT call it.
 743:C:\Micrium\Software\uCOS-III\Source\os_sem.c **** ***************************************************************************************************
 744:C:\Micrium\Software\uCOS-III\Source\os_sem.c **** */
 745:C:\Micrium\Software\uCOS-III\Source\os_sem.c **** 
 746:C:\Micrium\Software\uCOS-III\Source\os_sem.c **** void  OS_SemClr (OS_SEM  *p_sem)
 747:C:\Micrium\Software\uCOS-III\Source\os_sem.c **** {
 1005              		.loc 1 747 0
 1006              		.cfi_startproc
 1007              		@ args = 0, pretend = 0, frame = 8
 1008              		@ frame_needed = 1, uses_anonymous_args = 0
 1009 0000 80B5     		push	{r7, lr}
 1010              	.LCFI18:
 1011              		.cfi_def_cfa_offset 8
 1012 0002 82B0     		sub	sp, sp, #8
 1013              	.LCFI19:
 1014              		.cfi_def_cfa_offset 16
 1015 0004 00AF     		add	r7, sp, #0
ARM GAS  C:\Users\daniel01\AppData\Local\Temp\ccip0sTe.s 			page 32


 1016              		.cfi_offset 14, -4
 1017              		.cfi_offset 7, -8
 1018              	.LCFI20:
 1019              		.cfi_def_cfa_register 7
 1020 0006 7860     		str	r0, [r7, #4]
 748:C:\Micrium\Software\uCOS-III\Source\os_sem.c ****     p_sem->Type    = OS_OBJ_TYPE_NONE;                      /* Mark the data structure as a NONE   
 1021              		.loc 1 748 0
 1022 0008 7A68     		ldr	r2, [r7, #4]
 1023 000a 44F64E73 		movw	r3, #:lower16:1162760014
 1024 000e C4F24E53 		movt	r3, #:upper16:1162760014
 1025 0012 1360     		str	r3, [r2, #0]
 749:C:\Micrium\Software\uCOS-III\Source\os_sem.c ****     p_sem->Ctr     = (OS_SEM_CTR)0;                         /* Set semaphore value                 
 1026              		.loc 1 749 0
 1027 0014 7B68     		ldr	r3, [r7, #4]
 1028 0016 4FF00002 		mov	r2, #0
 1029 001a 1A62     		str	r2, [r3, #32]
 750:C:\Micrium\Software\uCOS-III\Source\os_sem.c ****     p_sem->TS      = (CPU_TS    )0;                         /* Clear the time stamp                
 1030              		.loc 1 750 0
 1031 001c 7B68     		ldr	r3, [r7, #4]
 1032 001e 4FF00002 		mov	r2, #0
 1033 0022 5A62     		str	r2, [r3, #36]
 751:C:\Micrium\Software\uCOS-III\Source\os_sem.c ****     p_sem->NamePtr = (CPU_CHAR *)((void *)"?SEM");
 1034              		.loc 1 751 0
 1035 0024 7A68     		ldr	r2, [r7, #4]
 1036 0026 40F20003 		movw	r3, #:lower16:.LC0
 1037 002a C0F20003 		movt	r3, #:upper16:.LC0
 1038 002e 5360     		str	r3, [r2, #4]
 752:C:\Micrium\Software\uCOS-III\Source\os_sem.c ****     OS_PendListInit(&p_sem->PendList);                      /* Initialize the waiting list         
 1039              		.loc 1 752 0
 1040 0030 7B68     		ldr	r3, [r7, #4]
 1041 0032 03F10803 		add	r3, r3, #8
 1042 0036 1846     		mov	r0, r3
 1043 0038 FFF7FEFF 		bl	OS_PendListInit
 753:C:\Micrium\Software\uCOS-III\Source\os_sem.c **** }
 1044              		.loc 1 753 0
 1045 003c 07F10807 		add	r7, r7, #8
 1046 0040 BD46     		mov	sp, r7
 1047 0042 80BD     		pop	{r7, pc}
 1048              		.cfi_endproc
 1049              	.LFE6:
 1050              		.size	OS_SemClr, .-OS_SemClr
 1051              		.section	.rodata
 1052 0005 000000   		.align	2
 1053              	.LC1:
 1054 0008 2000     		.ascii	" \000"
 1055 000a 0000     		.section	.text.OS_SemDbgListAdd,"ax",%progbits
 1056              		.align	2
 1057              		.global	OS_SemDbgListAdd
 1058              		.thumb
 1059              		.thumb_func
 1060              		.type	OS_SemDbgListAdd, %function
 1061              	OS_SemDbgListAdd:
 1062              	.LFB7:
 754:C:\Micrium\Software\uCOS-III\Source\os_sem.c **** 
 755:C:\Micrium\Software\uCOS-III\Source\os_sem.c **** /*$PAGE*/
 756:C:\Micrium\Software\uCOS-III\Source\os_sem.c **** /*
 757:C:\Micrium\Software\uCOS-III\Source\os_sem.c **** ***************************************************************************************************
ARM GAS  C:\Users\daniel01\AppData\Local\Temp\ccip0sTe.s 			page 33


 758:C:\Micrium\Software\uCOS-III\Source\os_sem.c **** *                                        ADD/REMOVE SEMAPHORE TO/FROM DEBUG LIST
 759:C:\Micrium\Software\uCOS-III\Source\os_sem.c **** *
 760:C:\Micrium\Software\uCOS-III\Source\os_sem.c **** * Description: These functions are called by uC/OS-III to add or remove a semaphore to/from the deb
 761:C:\Micrium\Software\uCOS-III\Source\os_sem.c **** *
 762:C:\Micrium\Software\uCOS-III\Source\os_sem.c **** * Arguments  : p_sem     is a pointer to the semaphore to add/remove
 763:C:\Micrium\Software\uCOS-III\Source\os_sem.c **** *
 764:C:\Micrium\Software\uCOS-III\Source\os_sem.c **** * Returns    : none
 765:C:\Micrium\Software\uCOS-III\Source\os_sem.c **** *
 766:C:\Micrium\Software\uCOS-III\Source\os_sem.c **** * Note(s)    : These functions are INTERNAL to uC/OS-III and your application should not call it.
 767:C:\Micrium\Software\uCOS-III\Source\os_sem.c **** ***************************************************************************************************
 768:C:\Micrium\Software\uCOS-III\Source\os_sem.c **** */
 769:C:\Micrium\Software\uCOS-III\Source\os_sem.c **** 
 770:C:\Micrium\Software\uCOS-III\Source\os_sem.c **** 
 771:C:\Micrium\Software\uCOS-III\Source\os_sem.c **** #if OS_CFG_DBG_EN > 0u
 772:C:\Micrium\Software\uCOS-III\Source\os_sem.c **** void  OS_SemDbgListAdd (OS_SEM  *p_sem)
 773:C:\Micrium\Software\uCOS-III\Source\os_sem.c **** {
 1063              		.loc 1 773 0
 1064              		.cfi_startproc
 1065              		@ args = 0, pretend = 0, frame = 8
 1066              		@ frame_needed = 1, uses_anonymous_args = 0
 1067              		@ link register save eliminated.
 1068 0000 80B4     		push	{r7}
 1069              	.LCFI21:
 1070              		.cfi_def_cfa_offset 4
 1071 0002 83B0     		sub	sp, sp, #12
 1072              	.LCFI22:
 1073              		.cfi_def_cfa_offset 16
 1074 0004 00AF     		add	r7, sp, #0
 1075              		.cfi_offset 7, -4
 1076              	.LCFI23:
 1077              		.cfi_def_cfa_register 7
 1078 0006 7860     		str	r0, [r7, #4]
 774:C:\Micrium\Software\uCOS-III\Source\os_sem.c ****     p_sem->DbgNamePtr               = (CPU_CHAR *)((void *)" ");
 1079              		.loc 1 774 0
 1080 0008 7A68     		ldr	r2, [r7, #4]
 1081 000a 40F20003 		movw	r3, #:lower16:.LC1
 1082 000e C0F20003 		movt	r3, #:upper16:.LC1
 1083 0012 D361     		str	r3, [r2, #28]
 775:C:\Micrium\Software\uCOS-III\Source\os_sem.c ****     p_sem->DbgPrevPtr               = (OS_SEM   *)0;
 1084              		.loc 1 775 0
 1085 0014 7B68     		ldr	r3, [r7, #4]
 1086 0016 4FF00002 		mov	r2, #0
 1087 001a 5A61     		str	r2, [r3, #20]
 776:C:\Micrium\Software\uCOS-III\Source\os_sem.c ****     if (OSSemDbgListPtr == (OS_SEM *)0) {
 1088              		.loc 1 776 0
 1089 001c 40F20003 		movw	r3, #:lower16:OSSemDbgListPtr
 1090 0020 C0F20003 		movt	r3, #:upper16:OSSemDbgListPtr
 1091 0024 1B68     		ldr	r3, [r3, #0]
 1092 0026 002B     		cmp	r3, #0
 1093 0028 04D1     		bne	.L81
 777:C:\Micrium\Software\uCOS-III\Source\os_sem.c ****         p_sem->DbgNextPtr           = (OS_SEM   *)0;
 1094              		.loc 1 777 0
 1095 002a 7B68     		ldr	r3, [r7, #4]
 1096 002c 4FF00002 		mov	r2, #0
 1097 0030 9A61     		str	r2, [r3, #24]
 1098 0032 0DE0     		b	.L82
 1099              	.L81:
ARM GAS  C:\Users\daniel01\AppData\Local\Temp\ccip0sTe.s 			page 34


 778:C:\Micrium\Software\uCOS-III\Source\os_sem.c ****     } else {
 779:C:\Micrium\Software\uCOS-III\Source\os_sem.c ****         p_sem->DbgNextPtr           =  OSSemDbgListPtr;
 1100              		.loc 1 779 0
 1101 0034 40F20003 		movw	r3, #:lower16:OSSemDbgListPtr
 1102 0038 C0F20003 		movt	r3, #:upper16:OSSemDbgListPtr
 1103 003c 1A68     		ldr	r2, [r3, #0]
 1104 003e 7B68     		ldr	r3, [r7, #4]
 1105 0040 9A61     		str	r2, [r3, #24]
 780:C:\Micrium\Software\uCOS-III\Source\os_sem.c ****         OSSemDbgListPtr->DbgPrevPtr =  p_sem;
 1106              		.loc 1 780 0
 1107 0042 40F20003 		movw	r3, #:lower16:OSSemDbgListPtr
 1108 0046 C0F20003 		movt	r3, #:upper16:OSSemDbgListPtr
 1109 004a 1B68     		ldr	r3, [r3, #0]
 1110 004c 7A68     		ldr	r2, [r7, #4]
 1111 004e 5A61     		str	r2, [r3, #20]
 1112              	.L82:
 781:C:\Micrium\Software\uCOS-III\Source\os_sem.c ****     }
 782:C:\Micrium\Software\uCOS-III\Source\os_sem.c ****     OSSemDbgListPtr                 =  p_sem;
 1113              		.loc 1 782 0
 1114 0050 40F20003 		movw	r3, #:lower16:OSSemDbgListPtr
 1115 0054 C0F20003 		movt	r3, #:upper16:OSSemDbgListPtr
 1116 0058 7A68     		ldr	r2, [r7, #4]
 1117 005a 1A60     		str	r2, [r3, #0]
 783:C:\Micrium\Software\uCOS-III\Source\os_sem.c **** }
 1118              		.loc 1 783 0
 1119 005c 07F10C07 		add	r7, r7, #12
 1120 0060 BD46     		mov	sp, r7
 1121 0062 80BC     		pop	{r7}
 1122 0064 7047     		bx	lr
 1123              		.cfi_endproc
 1124              	.LFE7:
 1125              		.size	OS_SemDbgListAdd, .-OS_SemDbgListAdd
 1126 0066 00BF     		.section	.text.OS_SemDbgListRemove,"ax",%progbits
 1127              		.align	2
 1128              		.global	OS_SemDbgListRemove
 1129              		.thumb
 1130              		.thumb_func
 1131              		.type	OS_SemDbgListRemove, %function
 1132              	OS_SemDbgListRemove:
 1133              	.LFB8:
 784:C:\Micrium\Software\uCOS-III\Source\os_sem.c **** 
 785:C:\Micrium\Software\uCOS-III\Source\os_sem.c **** 
 786:C:\Micrium\Software\uCOS-III\Source\os_sem.c **** 
 787:C:\Micrium\Software\uCOS-III\Source\os_sem.c **** void  OS_SemDbgListRemove (OS_SEM  *p_sem)
 788:C:\Micrium\Software\uCOS-III\Source\os_sem.c **** {
 1134              		.loc 1 788 0
 1135              		.cfi_startproc
 1136              		@ args = 0, pretend = 0, frame = 16
 1137              		@ frame_needed = 1, uses_anonymous_args = 0
 1138              		@ link register save eliminated.
 1139 0000 80B4     		push	{r7}
 1140              	.LCFI24:
 1141              		.cfi_def_cfa_offset 4
 1142 0002 85B0     		sub	sp, sp, #20
 1143              	.LCFI25:
 1144              		.cfi_def_cfa_offset 24
 1145 0004 00AF     		add	r7, sp, #0
ARM GAS  C:\Users\daniel01\AppData\Local\Temp\ccip0sTe.s 			page 35


 1146              		.cfi_offset 7, -4
 1147              	.LCFI26:
 1148              		.cfi_def_cfa_register 7
 1149 0006 7860     		str	r0, [r7, #4]
 789:C:\Micrium\Software\uCOS-III\Source\os_sem.c ****     OS_SEM  *p_sem_next;
 790:C:\Micrium\Software\uCOS-III\Source\os_sem.c ****     OS_SEM  *p_sem_prev;
 791:C:\Micrium\Software\uCOS-III\Source\os_sem.c **** 
 792:C:\Micrium\Software\uCOS-III\Source\os_sem.c **** 
 793:C:\Micrium\Software\uCOS-III\Source\os_sem.c ****     p_sem_prev = p_sem->DbgPrevPtr;
 1150              		.loc 1 793 0
 1151 0008 7B68     		ldr	r3, [r7, #4]
 1152 000a 5B69     		ldr	r3, [r3, #20]
 1153 000c FB60     		str	r3, [r7, #12]
 794:C:\Micrium\Software\uCOS-III\Source\os_sem.c ****     p_sem_next = p_sem->DbgNextPtr;
 1154              		.loc 1 794 0
 1155 000e 7B68     		ldr	r3, [r7, #4]
 1156 0010 9B69     		ldr	r3, [r3, #24]
 1157 0012 BB60     		str	r3, [r7, #8]
 795:C:\Micrium\Software\uCOS-III\Source\os_sem.c **** 
 796:C:\Micrium\Software\uCOS-III\Source\os_sem.c ****     if (p_sem_prev == (OS_SEM *)0) {
 1158              		.loc 1 796 0
 1159 0014 FB68     		ldr	r3, [r7, #12]
 1160 0016 002B     		cmp	r3, #0
 1161 0018 11D1     		bne	.L85
 797:C:\Micrium\Software\uCOS-III\Source\os_sem.c ****         OSSemDbgListPtr = p_sem_next;
 1162              		.loc 1 797 0
 1163 001a 40F20003 		movw	r3, #:lower16:OSSemDbgListPtr
 1164 001e C0F20003 		movt	r3, #:upper16:OSSemDbgListPtr
 1165 0022 BA68     		ldr	r2, [r7, #8]
 1166 0024 1A60     		str	r2, [r3, #0]
 798:C:\Micrium\Software\uCOS-III\Source\os_sem.c ****         if (p_sem_next != (OS_SEM *)0) {
 1167              		.loc 1 798 0
 1168 0026 BB68     		ldr	r3, [r7, #8]
 1169 0028 002B     		cmp	r3, #0
 1170 002a 03D0     		beq	.L86
 799:C:\Micrium\Software\uCOS-III\Source\os_sem.c ****             p_sem_next->DbgPrevPtr = (OS_SEM *)0;
 1171              		.loc 1 799 0
 1172 002c BB68     		ldr	r3, [r7, #8]
 1173 002e 4FF00002 		mov	r2, #0
 1174 0032 5A61     		str	r2, [r3, #20]
 1175              	.L86:
 800:C:\Micrium\Software\uCOS-III\Source\os_sem.c ****         }
 801:C:\Micrium\Software\uCOS-III\Source\os_sem.c ****         p_sem->DbgNextPtr = (OS_SEM *)0;
 1176              		.loc 1 801 0
 1177 0034 7B68     		ldr	r3, [r7, #4]
 1178 0036 4FF00002 		mov	r2, #0
 1179 003a 9A61     		str	r2, [r3, #24]
 1180 003c 19E0     		b	.L89
 1181              	.L85:
 802:C:\Micrium\Software\uCOS-III\Source\os_sem.c **** 
 803:C:\Micrium\Software\uCOS-III\Source\os_sem.c ****     } else if (p_sem_next == (OS_SEM *)0) {
 1182              		.loc 1 803 0
 1183 003e BB68     		ldr	r3, [r7, #8]
 1184 0040 002B     		cmp	r3, #0
 1185 0042 08D1     		bne	.L88
 804:C:\Micrium\Software\uCOS-III\Source\os_sem.c ****         p_sem_prev->DbgNextPtr = (OS_SEM *)0;
 1186              		.loc 1 804 0
ARM GAS  C:\Users\daniel01\AppData\Local\Temp\ccip0sTe.s 			page 36


 1187 0044 FB68     		ldr	r3, [r7, #12]
 1188 0046 4FF00002 		mov	r2, #0
 1189 004a 9A61     		str	r2, [r3, #24]
 805:C:\Micrium\Software\uCOS-III\Source\os_sem.c ****         p_sem->DbgPrevPtr      = (OS_SEM *)0;
 1190              		.loc 1 805 0
 1191 004c 7B68     		ldr	r3, [r7, #4]
 1192 004e 4FF00002 		mov	r2, #0
 1193 0052 5A61     		str	r2, [r3, #20]
 1194 0054 0DE0     		b	.L89
 1195              	.L88:
 806:C:\Micrium\Software\uCOS-III\Source\os_sem.c **** 
 807:C:\Micrium\Software\uCOS-III\Source\os_sem.c ****     } else {
 808:C:\Micrium\Software\uCOS-III\Source\os_sem.c ****         p_sem_prev->DbgNextPtr =  p_sem_next;
 1196              		.loc 1 808 0
 1197 0056 FB68     		ldr	r3, [r7, #12]
 1198 0058 BA68     		ldr	r2, [r7, #8]
 1199 005a 9A61     		str	r2, [r3, #24]
 809:C:\Micrium\Software\uCOS-III\Source\os_sem.c ****         p_sem_next->DbgPrevPtr =  p_sem_prev;
 1200              		.loc 1 809 0
 1201 005c BB68     		ldr	r3, [r7, #8]
 1202 005e FA68     		ldr	r2, [r7, #12]
 1203 0060 5A61     		str	r2, [r3, #20]
 810:C:\Micrium\Software\uCOS-III\Source\os_sem.c ****         p_sem->DbgNextPtr      = (OS_SEM *)0;
 1204              		.loc 1 810 0
 1205 0062 7B68     		ldr	r3, [r7, #4]
 1206 0064 4FF00002 		mov	r2, #0
 1207 0068 9A61     		str	r2, [r3, #24]
 811:C:\Micrium\Software\uCOS-III\Source\os_sem.c ****         p_sem->DbgPrevPtr      = (OS_SEM *)0;
 1208              		.loc 1 811 0
 1209 006a 7B68     		ldr	r3, [r7, #4]
 1210 006c 4FF00002 		mov	r2, #0
 1211 0070 5A61     		str	r2, [r3, #20]
 1212              	.L89:
 812:C:\Micrium\Software\uCOS-III\Source\os_sem.c ****     }
 813:C:\Micrium\Software\uCOS-III\Source\os_sem.c **** }
 1213              		.loc 1 813 0
 1214 0072 07F11407 		add	r7, r7, #20
 1215 0076 BD46     		mov	sp, r7
 1216 0078 80BC     		pop	{r7}
 1217 007a 7047     		bx	lr
 1218              		.cfi_endproc
 1219              	.LFE8:
 1220              		.size	OS_SemDbgListRemove, .-OS_SemDbgListRemove
 1221              		.section	.text.OS_SemInit,"ax",%progbits
 1222              		.align	2
 1223              		.global	OS_SemInit
 1224              		.thumb
 1225              		.thumb_func
 1226              		.type	OS_SemInit, %function
 1227              	OS_SemInit:
 1228              	.LFB9:
 814:C:\Micrium\Software\uCOS-III\Source\os_sem.c **** #endif
 815:C:\Micrium\Software\uCOS-III\Source\os_sem.c **** 
 816:C:\Micrium\Software\uCOS-III\Source\os_sem.c **** /*$PAGE*/
 817:C:\Micrium\Software\uCOS-III\Source\os_sem.c **** /*
 818:C:\Micrium\Software\uCOS-III\Source\os_sem.c **** ***************************************************************************************************
 819:C:\Micrium\Software\uCOS-III\Source\os_sem.c **** *                                                SEMAPHORE INITIALIZATION
ARM GAS  C:\Users\daniel01\AppData\Local\Temp\ccip0sTe.s 			page 37


 820:C:\Micrium\Software\uCOS-III\Source\os_sem.c **** *
 821:C:\Micrium\Software\uCOS-III\Source\os_sem.c **** * Description: This function is called by OSInit() to initialize the semaphore management.
 822:C:\Micrium\Software\uCOS-III\Source\os_sem.c **** *
 823:C:\Micrium\Software\uCOS-III\Source\os_sem.c **** 
 824:C:\Micrium\Software\uCOS-III\Source\os_sem.c **** * Argument(s): p_err        is a pointer to a variable that will contain an error code returned by 
 825:C:\Micrium\Software\uCOS-III\Source\os_sem.c **** *
 826:C:\Micrium\Software\uCOS-III\Source\os_sem.c **** *                                OS_ERR_NONE     the call was successful
 827:C:\Micrium\Software\uCOS-III\Source\os_sem.c **** *
 828:C:\Micrium\Software\uCOS-III\Source\os_sem.c **** * Returns    : none
 829:C:\Micrium\Software\uCOS-III\Source\os_sem.c **** *
 830:C:\Micrium\Software\uCOS-III\Source\os_sem.c **** * Note(s)    : 1) This function is INTERNAL to uC/OS-III and your application MUST NOT call it.
 831:C:\Micrium\Software\uCOS-III\Source\os_sem.c **** ***************************************************************************************************
 832:C:\Micrium\Software\uCOS-III\Source\os_sem.c **** */
 833:C:\Micrium\Software\uCOS-III\Source\os_sem.c **** 
 834:C:\Micrium\Software\uCOS-III\Source\os_sem.c **** void  OS_SemInit (OS_ERR  *p_err)
 835:C:\Micrium\Software\uCOS-III\Source\os_sem.c **** {
 1229              		.loc 1 835 0
 1230              		.cfi_startproc
 1231              		@ args = 0, pretend = 0, frame = 8
 1232              		@ frame_needed = 1, uses_anonymous_args = 0
 1233              		@ link register save eliminated.
 1234 0000 80B4     		push	{r7}
 1235              	.LCFI27:
 1236              		.cfi_def_cfa_offset 4
 1237 0002 83B0     		sub	sp, sp, #12
 1238              	.LCFI28:
 1239              		.cfi_def_cfa_offset 16
 1240 0004 00AF     		add	r7, sp, #0
 1241              		.cfi_offset 7, -4
 1242              	.LCFI29:
 1243              		.cfi_def_cfa_register 7
 1244 0006 7860     		str	r0, [r7, #4]
 836:C:\Micrium\Software\uCOS-III\Source\os_sem.c **** #ifdef OS_SAFETY_CRITICAL
 837:C:\Micrium\Software\uCOS-III\Source\os_sem.c ****     if (p_err == (OS_ERR *)0) {
 838:C:\Micrium\Software\uCOS-III\Source\os_sem.c ****         OS_SAFETY_CRITICAL_EXCEPTION();
 839:C:\Micrium\Software\uCOS-III\Source\os_sem.c ****         return;
 840:C:\Micrium\Software\uCOS-III\Source\os_sem.c ****     }
 841:C:\Micrium\Software\uCOS-III\Source\os_sem.c **** #endif
 842:C:\Micrium\Software\uCOS-III\Source\os_sem.c **** 
 843:C:\Micrium\Software\uCOS-III\Source\os_sem.c **** #if OS_CFG_DBG_EN > 0u
 844:C:\Micrium\Software\uCOS-III\Source\os_sem.c ****     OSSemDbgListPtr = (OS_SEM *)0;
 1245              		.loc 1 844 0
 1246 0008 40F20003 		movw	r3, #:lower16:OSSemDbgListPtr
 1247 000c C0F20003 		movt	r3, #:upper16:OSSemDbgListPtr
 1248 0010 4FF00002 		mov	r2, #0
 1249 0014 1A60     		str	r2, [r3, #0]
 845:C:\Micrium\Software\uCOS-III\Source\os_sem.c **** #endif
 846:C:\Micrium\Software\uCOS-III\Source\os_sem.c **** 
 847:C:\Micrium\Software\uCOS-III\Source\os_sem.c ****     OSSemQty        = (OS_OBJ_QTY)0;
 1250              		.loc 1 847 0
 1251 0016 40F20003 		movw	r3, #:lower16:OSSemQty
 1252 001a C0F20003 		movt	r3, #:upper16:OSSemQty
 1253 001e 4FF00002 		mov	r2, #0
 1254 0022 1A80     		strh	r2, [r3, #0]	@ movhi
 848:C:\Micrium\Software\uCOS-III\Source\os_sem.c ****    *p_err           = OS_ERR_NONE;
 1255              		.loc 1 848 0
 1256 0024 7B68     		ldr	r3, [r7, #4]
ARM GAS  C:\Users\daniel01\AppData\Local\Temp\ccip0sTe.s 			page 38


 1257 0026 4FF00002 		mov	r2, #0
 1258 002a 1A80     		strh	r2, [r3, #0]	@ movhi
 849:C:\Micrium\Software\uCOS-III\Source\os_sem.c **** }
 1259              		.loc 1 849 0
 1260 002c 07F10C07 		add	r7, r7, #12
 1261 0030 BD46     		mov	sp, r7
 1262 0032 80BC     		pop	{r7}
 1263 0034 7047     		bx	lr
 1264              		.cfi_endproc
 1265              	.LFE9:
 1266              		.size	OS_SemInit, .-OS_SemInit
 1267 0036 00BF     		.section	.text.OS_SemPost,"ax",%progbits
 1268              		.align	2
 1269              		.global	OS_SemPost
 1270              		.thumb
 1271              		.thumb_func
 1272              		.type	OS_SemPost, %function
 1273              	OS_SemPost:
 1274              	.LFB10:
 850:C:\Micrium\Software\uCOS-III\Source\os_sem.c **** 
 851:C:\Micrium\Software\uCOS-III\Source\os_sem.c **** /*$PAGE*/
 852:C:\Micrium\Software\uCOS-III\Source\os_sem.c **** /*
 853:C:\Micrium\Software\uCOS-III\Source\os_sem.c **** ***************************************************************************************************
 854:C:\Micrium\Software\uCOS-III\Source\os_sem.c **** *                                                 POST TO A SEMAPHORE
 855:C:\Micrium\Software\uCOS-III\Source\os_sem.c **** *
 856:C:\Micrium\Software\uCOS-III\Source\os_sem.c **** * Description: This function signals a semaphore
 857:C:\Micrium\Software\uCOS-III\Source\os_sem.c **** *
 858:C:\Micrium\Software\uCOS-III\Source\os_sem.c **** * Arguments  : p_sem    is a pointer to the semaphore
 859:C:\Micrium\Software\uCOS-III\Source\os_sem.c **** *
 860:C:\Micrium\Software\uCOS-III\Source\os_sem.c **** *              opt      determines the type of POST performed:
 861:C:\Micrium\Software\uCOS-III\Source\os_sem.c **** *
 862:C:\Micrium\Software\uCOS-III\Source\os_sem.c **** *                           OS_OPT_POST_1            POST to a single waiting task
 863:C:\Micrium\Software\uCOS-III\Source\os_sem.c **** *                           OS_OPT_POST_ALL          POST to ALL tasks that are waiting on the sema
 864:C:\Micrium\Software\uCOS-III\Source\os_sem.c **** *
 865:C:\Micrium\Software\uCOS-III\Source\os_sem.c **** *                           OS_OPT_POST_NO_SCHED     Do not call the scheduler
 866:C:\Micrium\Software\uCOS-III\Source\os_sem.c **** *
 867:C:\Micrium\Software\uCOS-III\Source\os_sem.c **** *                           Note(s): 1) OS_OPT_POST_NO_SCHED can be added with one of the other opt
 868:C:\Micrium\Software\uCOS-III\Source\os_sem.c **** *
 869:C:\Micrium\Software\uCOS-III\Source\os_sem.c **** *              ts       is a timestamp indicating when the post occurred.
 870:C:\Micrium\Software\uCOS-III\Source\os_sem.c **** *
 871:C:\Micrium\Software\uCOS-III\Source\os_sem.c **** *              p_err    is a pointer to a variable that will contain an error code returned by this
 872:C:\Micrium\Software\uCOS-III\Source\os_sem.c **** *
 873:C:\Micrium\Software\uCOS-III\Source\os_sem.c **** *                           OS_ERR_NONE          The call was successful and the semaphore was sign
 874:C:\Micrium\Software\uCOS-III\Source\os_sem.c **** *                           OS_ERR_OBJ_PTR_NULL  If 'p_sem' is a NULL pointer.
 875:C:\Micrium\Software\uCOS-III\Source\os_sem.c **** *                           OS_ERR_OBJ_TYPE      If 'p_sem' is not pointing at a semaphore
 876:C:\Micrium\Software\uCOS-III\Source\os_sem.c **** *                           OS_ERR_SEM_OVF       If the post would cause the semaphore count to ove
 877:C:\Micrium\Software\uCOS-III\Source\os_sem.c **** *
 878:C:\Micrium\Software\uCOS-III\Source\os_sem.c **** * Returns    : The current value of the semaphore counter or 0 upon error.
 879:C:\Micrium\Software\uCOS-III\Source\os_sem.c **** *
 880:C:\Micrium\Software\uCOS-III\Source\os_sem.c **** * Note(s)    : This function is INTERNAL to uC/OS-III and your application should not call it.
 881:C:\Micrium\Software\uCOS-III\Source\os_sem.c **** ***************************************************************************************************
 882:C:\Micrium\Software\uCOS-III\Source\os_sem.c **** */
 883:C:\Micrium\Software\uCOS-III\Source\os_sem.c **** 
 884:C:\Micrium\Software\uCOS-III\Source\os_sem.c **** OS_SEM_CTR  OS_SemPost (OS_SEM  *p_sem,
 885:C:\Micrium\Software\uCOS-III\Source\os_sem.c ****                         OS_OPT   opt,
 886:C:\Micrium\Software\uCOS-III\Source\os_sem.c ****                         CPU_TS   ts,
 887:C:\Micrium\Software\uCOS-III\Source\os_sem.c ****                         OS_ERR  *p_err)
ARM GAS  C:\Users\daniel01\AppData\Local\Temp\ccip0sTe.s 			page 39


 888:C:\Micrium\Software\uCOS-III\Source\os_sem.c **** {
 1275              		.loc 1 888 0
 1276              		.cfi_startproc
 1277              		@ args = 0, pretend = 0, frame = 48
 1278              		@ frame_needed = 1, uses_anonymous_args = 0
 1279 0000 80B5     		push	{r7, lr}
 1280              	.LCFI30:
 1281              		.cfi_def_cfa_offset 8
 1282 0002 8EB0     		sub	sp, sp, #56
 1283              	.LCFI31:
 1284              		.cfi_def_cfa_offset 64
 1285 0004 02AF     		add	r7, sp, #8
 1286              		.cfi_offset 14, -4
 1287              		.cfi_offset 7, -8
 1288              	.LCFI32:
 1289              		.cfi_def_cfa 7, 56
 1290 0006 F860     		str	r0, [r7, #12]
 1291 0008 7A60     		str	r2, [r7, #4]
 1292 000a 3B60     		str	r3, [r7, #0]
 1293 000c 0B46     		mov	r3, r1	@ movhi
 1294 000e 7B81     		strh	r3, [r7, #10]	@ movhi
 889:C:\Micrium\Software\uCOS-III\Source\os_sem.c ****     OS_OBJ_QTY     cnt;
 890:C:\Micrium\Software\uCOS-III\Source\os_sem.c ****     OS_SEM_CTR     ctr;
 891:C:\Micrium\Software\uCOS-III\Source\os_sem.c ****     OS_PEND_LIST  *p_pend_list;
 892:C:\Micrium\Software\uCOS-III\Source\os_sem.c ****     OS_PEND_DATA  *p_pend_data;
 893:C:\Micrium\Software\uCOS-III\Source\os_sem.c ****     OS_PEND_DATA  *p_pend_data_next;
 894:C:\Micrium\Software\uCOS-III\Source\os_sem.c ****     OS_TCB        *p_tcb;
 895:C:\Micrium\Software\uCOS-III\Source\os_sem.c ****     CPU_SR_ALLOC();
 1295              		.loc 1 895 0
 1296 0010 4FF00003 		mov	r3, #0
 1297 0014 FB62     		str	r3, [r7, #44]
 896:C:\Micrium\Software\uCOS-III\Source\os_sem.c **** 
 897:C:\Micrium\Software\uCOS-III\Source\os_sem.c **** 
 898:C:\Micrium\Software\uCOS-III\Source\os_sem.c **** 
 899:C:\Micrium\Software\uCOS-III\Source\os_sem.c ****     CPU_CRITICAL_ENTER();
 1298              		.loc 1 899 0
 1299 0016 FFF7FEFF 		bl	CPU_SR_Save
 1300 001a 0346     		mov	r3, r0
 1301 001c FB62     		str	r3, [r7, #44]
 900:C:\Micrium\Software\uCOS-III\Source\os_sem.c ****     p_pend_list = &p_sem->PendList;
 1302              		.loc 1 900 0
 1303 001e FB68     		ldr	r3, [r7, #12]
 1304 0020 03F10803 		add	r3, r3, #8
 1305 0024 FB61     		str	r3, [r7, #28]
 901:C:\Micrium\Software\uCOS-III\Source\os_sem.c ****     if (p_pend_list->NbrEntries == (OS_OBJ_QTY)0) {         /* Any task waiting on semaphore?      
 1306              		.loc 1 901 0
 1307 0026 FB69     		ldr	r3, [r7, #28]
 1308 0028 1B89     		ldrh	r3, [r3, #8]
 1309 002a 002B     		cmp	r3, #0
 1310 002c 23D1     		bne	.L93
 902:C:\Micrium\Software\uCOS-III\Source\os_sem.c ****         switch (sizeof(OS_SEM_CTR)) {
 903:C:\Micrium\Software\uCOS-III\Source\os_sem.c ****             case 1u:
 904:C:\Micrium\Software\uCOS-III\Source\os_sem.c ****                  if (p_sem->Ctr == DEF_INT_08U_MAX_VAL) {
 905:C:\Micrium\Software\uCOS-III\Source\os_sem.c ****                      CPU_CRITICAL_EXIT();
 906:C:\Micrium\Software\uCOS-III\Source\os_sem.c ****                     *p_err = OS_ERR_SEM_OVF;
 907:C:\Micrium\Software\uCOS-III\Source\os_sem.c ****                      return ((OS_SEM_CTR)0);
 908:C:\Micrium\Software\uCOS-III\Source\os_sem.c ****                  }
ARM GAS  C:\Users\daniel01\AppData\Local\Temp\ccip0sTe.s 			page 40


 909:C:\Micrium\Software\uCOS-III\Source\os_sem.c ****                  break;
 910:C:\Micrium\Software\uCOS-III\Source\os_sem.c **** 
 911:C:\Micrium\Software\uCOS-III\Source\os_sem.c ****             case 2u:
 912:C:\Micrium\Software\uCOS-III\Source\os_sem.c ****                  if (p_sem->Ctr == DEF_INT_16U_MAX_VAL) {
 913:C:\Micrium\Software\uCOS-III\Source\os_sem.c ****                      CPU_CRITICAL_EXIT();
 914:C:\Micrium\Software\uCOS-III\Source\os_sem.c ****                     *p_err = OS_ERR_SEM_OVF;
 915:C:\Micrium\Software\uCOS-III\Source\os_sem.c ****                      return ((OS_SEM_CTR)0);
 916:C:\Micrium\Software\uCOS-III\Source\os_sem.c ****                  }
 917:C:\Micrium\Software\uCOS-III\Source\os_sem.c ****                  break;
 918:C:\Micrium\Software\uCOS-III\Source\os_sem.c **** 
 919:C:\Micrium\Software\uCOS-III\Source\os_sem.c ****             case 4u:
 920:C:\Micrium\Software\uCOS-III\Source\os_sem.c ****                  if (p_sem->Ctr == DEF_INT_32U_MAX_VAL) {
 1311              		.loc 1 920 0
 1312 002e FB68     		ldr	r3, [r7, #12]
 1313 0030 1B6A     		ldr	r3, [r3, #32]
 1314 0032 B3F1FF3F 		cmp	r3, #-1
 1315 0036 09D1     		bne	.L94
 921:C:\Micrium\Software\uCOS-III\Source\os_sem.c ****                      CPU_CRITICAL_EXIT();
 1316              		.loc 1 921 0
 1317 0038 F86A     		ldr	r0, [r7, #44]
 1318 003a FFF7FEFF 		bl	CPU_SR_Restore
 922:C:\Micrium\Software\uCOS-III\Source\os_sem.c ****                     *p_err = OS_ERR_SEM_OVF;
 1319              		.loc 1 922 0
 1320 003e 3B68     		ldr	r3, [r7, #0]
 1321 0040 46F6C552 		movw	r2, #28101
 1322 0044 1A80     		strh	r2, [r3, #0]	@ movhi
 923:C:\Micrium\Software\uCOS-III\Source\os_sem.c ****                      return ((OS_SEM_CTR)0);
 1323              		.loc 1 923 0
 1324 0046 4FF00003 		mov	r3, #0
 1325 004a 4FE0     		b	.L95
 1326              	.L94:
 924:C:\Micrium\Software\uCOS-III\Source\os_sem.c ****                  }
 925:C:\Micrium\Software\uCOS-III\Source\os_sem.c ****                  break;
 926:C:\Micrium\Software\uCOS-III\Source\os_sem.c **** 
 927:C:\Micrium\Software\uCOS-III\Source\os_sem.c ****             default:
 928:C:\Micrium\Software\uCOS-III\Source\os_sem.c ****                  break;
 929:C:\Micrium\Software\uCOS-III\Source\os_sem.c ****         }
 930:C:\Micrium\Software\uCOS-III\Source\os_sem.c ****         p_sem->Ctr++;                                       /* No                                  
 1327              		.loc 1 930 0
 1328 004c FB68     		ldr	r3, [r7, #12]
 1329 004e 1B6A     		ldr	r3, [r3, #32]
 1330 0050 03F10102 		add	r2, r3, #1
 1331 0054 FB68     		ldr	r3, [r7, #12]
 1332 0056 1A62     		str	r2, [r3, #32]
 931:C:\Micrium\Software\uCOS-III\Source\os_sem.c ****         ctr       = p_sem->Ctr;
 1333              		.loc 1 931 0
 1334 0058 FB68     		ldr	r3, [r7, #12]
 1335 005a 1B6A     		ldr	r3, [r3, #32]
 1336 005c BB61     		str	r3, [r7, #24]
 932:C:\Micrium\Software\uCOS-III\Source\os_sem.c ****         p_sem->TS = ts;                                     /* Save timestamp in semaphore control 
 1337              		.loc 1 932 0
 1338 005e FB68     		ldr	r3, [r7, #12]
 1339 0060 7A68     		ldr	r2, [r7, #4]
 1340 0062 5A62     		str	r2, [r3, #36]
 933:C:\Micrium\Software\uCOS-III\Source\os_sem.c ****         CPU_CRITICAL_EXIT();
 1341              		.loc 1 933 0
 1342 0064 F86A     		ldr	r0, [r7, #44]
ARM GAS  C:\Users\daniel01\AppData\Local\Temp\ccip0sTe.s 			page 41


 1343 0066 FFF7FEFF 		bl	CPU_SR_Restore
 934:C:\Micrium\Software\uCOS-III\Source\os_sem.c ****        *p_err     = OS_ERR_NONE;
 1344              		.loc 1 934 0
 1345 006a 3B68     		ldr	r3, [r7, #0]
 1346 006c 4FF00002 		mov	r2, #0
 1347 0070 1A80     		strh	r2, [r3, #0]	@ movhi
 935:C:\Micrium\Software\uCOS-III\Source\os_sem.c ****         return (ctr);
 1348              		.loc 1 935 0
 1349 0072 BB69     		ldr	r3, [r7, #24]
 1350 0074 3AE0     		b	.L95
 1351              	.L93:
 936:C:\Micrium\Software\uCOS-III\Source\os_sem.c ****     }
 937:C:\Micrium\Software\uCOS-III\Source\os_sem.c **** 
 938:C:\Micrium\Software\uCOS-III\Source\os_sem.c ****     OS_CRITICAL_ENTER_CPU_EXIT();
 939:C:\Micrium\Software\uCOS-III\Source\os_sem.c ****     if ((opt & OS_OPT_POST_ALL) != (OS_OPT)0) {             /* Post message to all tasks waiting?  
 1352              		.loc 1 939 0
 1353 0076 7B89     		ldrh	r3, [r7, #10]
 1354 0078 03F40073 		and	r3, r3, #512
 1355 007c 002B     		cmp	r3, #0
 1356 007e 03D0     		beq	.L96
 940:C:\Micrium\Software\uCOS-III\Source\os_sem.c ****         cnt = p_pend_list->NbrEntries;                      /* Yes                                 
 1357              		.loc 1 940 0
 1358 0080 FB69     		ldr	r3, [r7, #28]
 1359 0082 1B89     		ldrh	r3, [r3, #8]	@ movhi
 1360 0084 FB82     		strh	r3, [r7, #22]	@ movhi
 1361 0086 02E0     		b	.L97
 1362              	.L96:
 941:C:\Micrium\Software\uCOS-III\Source\os_sem.c ****     } else {
 942:C:\Micrium\Software\uCOS-III\Source\os_sem.c ****         cnt = (OS_OBJ_QTY)1;                                /* No                                  
 1363              		.loc 1 942 0
 1364 0088 4FF00103 		mov	r3, #1
 1365 008c FB82     		strh	r3, [r7, #22]	@ movhi
 1366              	.L97:
 943:C:\Micrium\Software\uCOS-III\Source\os_sem.c ****     }
 944:C:\Micrium\Software\uCOS-III\Source\os_sem.c ****     p_pend_data = p_pend_list->HeadPtr;
 1367              		.loc 1 944 0
 1368 008e FB69     		ldr	r3, [r7, #28]
 1369 0090 1B68     		ldr	r3, [r3, #0]
 1370 0092 3B62     		str	r3, [r7, #32]
 945:C:\Micrium\Software\uCOS-III\Source\os_sem.c ****     while (cnt > 0u) {
 1371              		.loc 1 945 0
 1372 0094 16E0     		b	.L98
 1373              	.L99:
 946:C:\Micrium\Software\uCOS-III\Source\os_sem.c ****         p_tcb            = p_pend_data->TCBPtr;
 1374              		.loc 1 946 0
 1375 0096 3B6A     		ldr	r3, [r7, #32]
 1376 0098 9B68     		ldr	r3, [r3, #8]
 1377 009a BB62     		str	r3, [r7, #40]
 947:C:\Micrium\Software\uCOS-III\Source\os_sem.c ****         p_pend_data_next = p_pend_data->NextPtr;
 1378              		.loc 1 947 0
 1379 009c 3B6A     		ldr	r3, [r7, #32]
 1380 009e 5B68     		ldr	r3, [r3, #4]
 1381 00a0 7B62     		str	r3, [r7, #36]
 948:C:\Micrium\Software\uCOS-III\Source\os_sem.c ****         OS_Post((OS_PEND_OBJ *)((void *)p_sem),
 1382              		.loc 1 948 0
 1383 00a2 FB68     		ldr	r3, [r7, #12]
 1384 00a4 7A68     		ldr	r2, [r7, #4]
ARM GAS  C:\Users\daniel01\AppData\Local\Temp\ccip0sTe.s 			page 42


 1385 00a6 0092     		str	r2, [sp, #0]
 1386 00a8 1846     		mov	r0, r3
 1387 00aa B96A     		ldr	r1, [r7, #40]
 1388 00ac 4FF00002 		mov	r2, #0
 1389 00b0 4FF00003 		mov	r3, #0
 1390 00b4 FFF7FEFF 		bl	OS_Post
 949:C:\Micrium\Software\uCOS-III\Source\os_sem.c ****                 p_tcb,
 950:C:\Micrium\Software\uCOS-III\Source\os_sem.c ****                 (void      *)0,
 951:C:\Micrium\Software\uCOS-III\Source\os_sem.c ****                 (OS_MSG_SIZE)0,
 952:C:\Micrium\Software\uCOS-III\Source\os_sem.c ****                 ts);
 953:C:\Micrium\Software\uCOS-III\Source\os_sem.c ****         p_pend_data = p_pend_data_next;
 1391              		.loc 1 953 0
 1392 00b8 7B6A     		ldr	r3, [r7, #36]
 1393 00ba 3B62     		str	r3, [r7, #32]
 954:C:\Micrium\Software\uCOS-III\Source\os_sem.c ****         cnt--;
 1394              		.loc 1 954 0
 1395 00bc FB8A     		ldrh	r3, [r7, #22]	@ movhi
 1396 00be 03F1FF33 		add	r3, r3, #-1
 1397 00c2 FB82     		strh	r3, [r7, #22]	@ movhi
 1398              	.L98:
 1399              		.loc 1 945 0
 1400 00c4 FB8A     		ldrh	r3, [r7, #22]
 1401 00c6 002B     		cmp	r3, #0
 1402 00c8 E5D1     		bne	.L99
 955:C:\Micrium\Software\uCOS-III\Source\os_sem.c ****     }
 956:C:\Micrium\Software\uCOS-III\Source\os_sem.c ****     ctr = p_sem->Ctr;
 1403              		.loc 1 956 0
 1404 00ca FB68     		ldr	r3, [r7, #12]
 1405 00cc 1B6A     		ldr	r3, [r3, #32]
 1406 00ce BB61     		str	r3, [r7, #24]
 957:C:\Micrium\Software\uCOS-III\Source\os_sem.c ****     OS_CRITICAL_EXIT_NO_SCHED();
 1407              		.loc 1 957 0
 1408 00d0 F86A     		ldr	r0, [r7, #44]
 1409 00d2 FFF7FEFF 		bl	CPU_SR_Restore
 958:C:\Micrium\Software\uCOS-III\Source\os_sem.c ****     if ((opt & OS_OPT_POST_NO_SCHED) == (OS_OPT)0) {
 1410              		.loc 1 958 0
 1411 00d6 7B89     		ldrh	r3, [r7, #10]
 1412 00d8 1BB2     		sxth	r3, r3
 1413 00da 002B     		cmp	r3, #0
 1414 00dc 01DB     		blt	.L100
 959:C:\Micrium\Software\uCOS-III\Source\os_sem.c ****         OSSched();                                          /* Run the scheduler                   
 1415              		.loc 1 959 0
 1416 00de FFF7FEFF 		bl	OSSched
 1417              	.L100:
 960:C:\Micrium\Software\uCOS-III\Source\os_sem.c ****     }
 961:C:\Micrium\Software\uCOS-III\Source\os_sem.c ****    *p_err = OS_ERR_NONE;
 1418              		.loc 1 961 0
 1419 00e2 3B68     		ldr	r3, [r7, #0]
 1420 00e4 4FF00002 		mov	r2, #0
 1421 00e8 1A80     		strh	r2, [r3, #0]	@ movhi
 962:C:\Micrium\Software\uCOS-III\Source\os_sem.c ****     return (ctr);
 1422              		.loc 1 962 0
 1423 00ea BB69     		ldr	r3, [r7, #24]
 1424              	.L95:
 963:C:\Micrium\Software\uCOS-III\Source\os_sem.c **** }
 1425              		.loc 1 963 0
 1426 00ec 1846     		mov	r0, r3
ARM GAS  C:\Users\daniel01\AppData\Local\Temp\ccip0sTe.s 			page 43


 1427 00ee 07F13007 		add	r7, r7, #48
 1428 00f2 BD46     		mov	sp, r7
 1429 00f4 80BD     		pop	{r7, pc}
 1430              		.cfi_endproc
 1431              	.LFE10:
 1432              		.size	OS_SemPost, .-OS_SemPost
 1433 00f6 00BF     		.text
 1434              	.Letext0: