ARM GAS  C:\Users\daniel01\AppData\Local\Temp\ccip0sTe.s 			page 1


   1              		.syntax unified
   2              		.cpu cortex-m3
   3              		.fpu softvfp
   4              		.eabi_attribute 20, 1
   5              		.eabi_attribute 21, 1
   6              		.eabi_attribute 23, 3
   7              		.eabi_attribute 24, 1
   8              		.eabi_attribute 25, 1
   9              		.eabi_attribute 26, 1
  10              		.eabi_attribute 30, 6
  11              		.eabi_attribute 18, 4
  12              		.thumb
  13              		.file	"os_sem.c"
  14              		.section	.debug_abbrev,"",%progbits
  15              	.Ldebug_abbrev0:
  16              		.section	.debug_info,"",%progbits
  17              	.Ldebug_info0:
  18              		.section	.debug_line,"",%progbits
  19              	.Ldebug_line0:
  20 0000 B4020000 		.text
  20      0200D500 
  20      00000201 
  20      FB0E0D00 
  20      01010101 
  21              	.Ltext0:
  22              		.cfi_sections	.debug_frame
  23              		.section	.text.OSSemCreate,"ax",%progbits
  24              		.align	2
  25              		.global	OSSemCreate
  26              		.thumb
  27              		.thumb_func
  28              		.type	OSSemCreate, %function
  29              	OSSemCreate:
  30              	.LFB0:
  31              		.file 1 "C:\\Micrium\\Software\\uCOS-III\\Source\\os_sem.c"
   1:C:\Micrium\Software\uCOS-III\Source\os_sem.c **** /*
   2:C:\Micrium\Software\uCOS-III\Source\os_sem.c **** ***************************************************************************************************
   3:C:\Micrium\Software\uCOS-III\Source\os_sem.c **** *                                                      uC/OS-III
   4:C:\Micrium\Software\uCOS-III\Source\os_sem.c **** *                                                 The Real-Time Kernel
   5:C:\Micrium\Software\uCOS-III\Source\os_sem.c **** *
   6:C:\Micrium\Software\uCOS-III\Source\os_sem.c **** *                                  (c) Copyright 2009-2012; Micrium, Inc.; Weston, FL
   7:C:\Micrium\Software\uCOS-III\Source\os_sem.c **** *                           All rights reserved.  Protected by international copyright laws.
   8:C:\Micrium\Software\uCOS-III\Source\os_sem.c **** *
   9:C:\Micrium\Software\uCOS-III\Source\os_sem.c **** *                                                 SEMAPHORE MANAGEMENT
  10:C:\Micrium\Software\uCOS-III\Source\os_sem.c **** *
  11:C:\Micrium\Software\uCOS-III\Source\os_sem.c **** * File    : OS_SEM.C
  12:C:\Micrium\Software\uCOS-III\Source\os_sem.c **** * By      : JJL
  13:C:\Micrium\Software\uCOS-III\Source\os_sem.c **** * Version : V3.03.01
  14:C:\Micrium\Software\uCOS-III\Source\os_sem.c **** *
  15:C:\Micrium\Software\uCOS-III\Source\os_sem.c **** * LICENSING TERMS:
  16:C:\Micrium\Software\uCOS-III\Source\os_sem.c **** * ---------------
  17:C:\Micrium\Software\uCOS-III\Source\os_sem.c **** *           uC/OS-III is provided in source form for FREE short-term evaluation, for educational us
  18:C:\Micrium\Software\uCOS-III\Source\os_sem.c **** *           for peaceful research.  If you plan or intend to use uC/OS-III in a commercial applicat
  19:C:\Micrium\Software\uCOS-III\Source\os_sem.c **** *           product then, you need to contact Micrium to properly license uC/OS-III for its use in 
  20:C:\Micrium\Software\uCOS-III\Source\os_sem.c **** *           application/product.   We provide ALL the source code for your convenience and to help 
  21:C:\Micrium\Software\uCOS-III\Source\os_sem.c **** *           experience uC/OS-III.  The fact that the source is provided does NOT mean that you can 
  22:C:\Micrium\Software\uCOS-III\Source\os_sem.c **** *           it commercially without paying a licensing fee.
ARM GAS  C:\Users\daniel01\AppData\Local\Temp\ccip0sTe.s 			page 2


  23:C:\Micrium\Software\uCOS-III\Source\os_sem.c **** *
  24:C:\Micrium\Software\uCOS-III\Source\os_sem.c **** *           Knowledge of the source code may NOT be used to develop a similar product.
  25:C:\Micrium\Software\uCOS-III\Source\os_sem.c **** *
  26:C:\Micrium\Software\uCOS-III\Source\os_sem.c **** *           Please help us continue to provide the embedded community with the finest software avai
  27:C:\Micrium\Software\uCOS-III\Source\os_sem.c **** *           Your honesty is greatly appreciated.
  28:C:\Micrium\Software\uCOS-III\Source\os_sem.c **** *
  29:C:\Micrium\Software\uCOS-III\Source\os_sem.c **** *           You can contact us at www.micrium.com, or by phone at +1 (954) 217-2036.
  30:C:\Micrium\Software\uCOS-III\Source\os_sem.c **** ***************************************************************************************************
  31:C:\Micrium\Software\uCOS-III\Source\os_sem.c **** */
  32:C:\Micrium\Software\uCOS-III\Source\os_sem.c **** 
  33:C:\Micrium\Software\uCOS-III\Source\os_sem.c **** #define  MICRIUM_SOURCE
  34:C:\Micrium\Software\uCOS-III\Source\os_sem.c **** #include <os.h>
  35:C:\Micrium\Software\uCOS-III\Source\os_sem.c **** 
  36:C:\Micrium\Software\uCOS-III\Source\os_sem.c **** #ifdef VSC_INCLUDE_SOURCE_FILE_NAMES
  37:C:\Micrium\Software\uCOS-III\Source\os_sem.c **** const  CPU_CHAR  *os_sem__c = "$Id: $";
  38:C:\Micrium\Software\uCOS-III\Source\os_sem.c **** #endif
  39:C:\Micrium\Software\uCOS-III\Source\os_sem.c **** 
  40:C:\Micrium\Software\uCOS-III\Source\os_sem.c **** 
  41:C:\Micrium\Software\uCOS-III\Source\os_sem.c **** #if OS_CFG_SEM_EN > 0u
  42:C:\Micrium\Software\uCOS-III\Source\os_sem.c **** /*
  43:C:\Micrium\Software\uCOS-III\Source\os_sem.c **** ***************************************************************************************************
  44:C:\Micrium\Software\uCOS-III\Source\os_sem.c **** *                                                  CREATE A SEMAPHORE
  45:C:\Micrium\Software\uCOS-III\Source\os_sem.c **** *
  46:C:\Micrium\Software\uCOS-III\Source\os_sem.c **** * Description: This function creates a semaphore.
  47:C:\Micrium\Software\uCOS-III\Source\os_sem.c **** *
  48:C:\Micrium\Software\uCOS-III\Source\os_sem.c **** * Arguments  : p_sem         is a pointer to the semaphore to initialize.  Your application is resp
  49:C:\Micrium\Software\uCOS-III\Source\os_sem.c **** *                            allocating storage for the semaphore.
  50:C:\Micrium\Software\uCOS-III\Source\os_sem.c **** *
  51:C:\Micrium\Software\uCOS-III\Source\os_sem.c **** *              p_name        is a pointer to the name you would like to give the semaphore.
  52:C:\Micrium\Software\uCOS-III\Source\os_sem.c **** *
  53:C:\Micrium\Software\uCOS-III\Source\os_sem.c **** *              cnt           is the initial value for the semaphore.
  54:C:\Micrium\Software\uCOS-III\Source\os_sem.c **** *                            If used to share resources, you should initialize to the number of res
  55:C:\Micrium\Software\uCOS-III\Source\os_sem.c **** *                            If used to signal the occurrence of event(s) then you should initializ
  56:C:\Micrium\Software\uCOS-III\Source\os_sem.c **** *
  57:C:\Micrium\Software\uCOS-III\Source\os_sem.c **** *              p_err         is a pointer to a variable that will contain an error code returned by
  58:C:\Micrium\Software\uCOS-III\Source\os_sem.c **** *
  59:C:\Micrium\Software\uCOS-III\Source\os_sem.c **** *                                OS_ERR_NONE                    if the call was successful
  60:C:\Micrium\Software\uCOS-III\Source\os_sem.c **** *                                OS_ERR_CREATE_ISR              if you called this function from an
  61:C:\Micrium\Software\uCOS-III\Source\os_sem.c **** *                                OS_ERR_ILLEGAL_CREATE_RUN_TIME if you are trying to create the sem
  62:C:\Micrium\Software\uCOS-III\Source\os_sem.c **** *                                                                 called OSSafetyCriticalStart().
  63:C:\Micrium\Software\uCOS-III\Source\os_sem.c **** *                                OS_ERR_NAME                    if 'p_name' is a NULL pointer
  64:C:\Micrium\Software\uCOS-III\Source\os_sem.c **** *                                OS_ERR_OBJ_CREATED             if the semaphore has already been c
  65:C:\Micrium\Software\uCOS-III\Source\os_sem.c **** *                                OS_ERR_OBJ_PTR_NULL            if 'p_sem'  is a NULL pointer
  66:C:\Micrium\Software\uCOS-III\Source\os_sem.c **** *                                OS_ERR_OBJ_TYPE                if 'p_sem' has already been initial
  67:C:\Micrium\Software\uCOS-III\Source\os_sem.c **** *                                                               object type
  68:C:\Micrium\Software\uCOS-III\Source\os_sem.c **** *
  69:C:\Micrium\Software\uCOS-III\Source\os_sem.c **** * Returns    : none
  70:C:\Micrium\Software\uCOS-III\Source\os_sem.c **** ***************************************************************************************************
  71:C:\Micrium\Software\uCOS-III\Source\os_sem.c **** */
  72:C:\Micrium\Software\uCOS-III\Source\os_sem.c **** 
  73:C:\Micrium\Software\uCOS-III\Source\os_sem.c **** void  OSSemCreate (OS_SEM      *p_sem,
  74:C:\Micrium\Software\uCOS-III\Source\os_sem.c ****                    CPU_CHAR    *p_name,
  75:C:\Micrium\Software\uCOS-III\Source\os_sem.c ****                    OS_SEM_CTR   cnt,
  76:C:\Micrium\Software\uCOS-III\Source\os_sem.c ****                    OS_ERR      *p_err)
  77:C:\Micrium\Software\uCOS-III\Source\os_sem.c **** {
  32              		.loc 1 77 0
  33              		.cfi_startproc
ARM GAS  C:\Users\daniel01\AppData\Local\Temp\ccip0sTe.s 			page 3


  34              		@ args = 0, pretend = 0, frame = 24
  35              		@ frame_needed = 1, uses_anonymous_args = 0
  36 0000 80B5     		push	{r7, lr}
  37              	.LCFI0:
  38              		.cfi_def_cfa_offset 8
  39 0002 86B0     		sub	sp, sp, #24
  40              	.LCFI1:
  41              		.cfi_def_cfa_offset 32
  42 0004 00AF     		add	r7, sp, #0
  43              		.cfi_offset 14, -4
  44              		.cfi_offset 7, -8
  45              	.LCFI2:
  46              		.cfi_def_cfa_register 7
  47 0006 F860     		str	r0, [r7, #12]
  48 0008 B960     		str	r1, [r7, #8]
  49 000a 7A60     		str	r2, [r7, #4]
  50 000c 3B60     		str	r3, [r7, #0]
  78:C:\Micrium\Software\uCOS-III\Source\os_sem.c ****     CPU_SR_ALLOC();
  51              		.loc 1 78 0
  52 000e 4FF00003 		mov	r3, #0
  53 0012 7B61     		str	r3, [r7, #20]
  79:C:\Micrium\Software\uCOS-III\Source\os_sem.c **** 
  80:C:\Micrium\Software\uCOS-III\Source\os_sem.c **** 
  81:C:\Micrium\Software\uCOS-III\Source\os_sem.c **** 
  82:C:\Micrium\Software\uCOS-III\Source\os_sem.c **** #ifdef OS_SAFETY_CRITICAL
  83:C:\Micrium\Software\uCOS-III\Source\os_sem.c ****     if (p_err == (OS_ERR *)0) {
  84:C:\Micrium\Software\uCOS-III\Source\os_sem.c ****         OS_SAFETY_CRITICAL_EXCEPTION();
  85:C:\Micrium\Software\uCOS-III\Source\os_sem.c ****         return;
  86:C:\Micrium\Software\uCOS-III\Source\os_sem.c ****     }
  87:C:\Micrium\Software\uCOS-III\Source\os_sem.c **** #endif
  88:C:\Micrium\Software\uCOS-III\Source\os_sem.c **** 
  89:C:\Micrium\Software\uCOS-III\Source\os_sem.c **** #ifdef OS_SAFETY_CRITICAL_IEC61508
  90:C:\Micrium\Software\uCOS-III\Source\os_sem.c ****     if (OSSafetyCriticalStartFlag == DEF_TRUE) {
  91:C:\Micrium\Software\uCOS-III\Source\os_sem.c ****        *p_err = OS_ERR_ILLEGAL_CREATE_RUN_TIME;
  92:C:\Micrium\Software\uCOS-III\Source\os_sem.c ****         return;
  93:C:\Micrium\Software\uCOS-III\Source\os_sem.c ****     }
  94:C:\Micrium\Software\uCOS-III\Source\os_sem.c **** #endif
  95:C:\Micrium\Software\uCOS-III\Source\os_sem.c **** 
  96:C:\Micrium\Software\uCOS-III\Source\os_sem.c **** #if OS_CFG_CALLED_FROM_ISR_CHK_EN > 0u
  97:C:\Micrium\Software\uCOS-III\Source\os_sem.c ****     if (OSIntNestingCtr > (OS_NESTING_CTR)0) {              /* Not allowed to be called from an ISR
  54              		.loc 1 97 0
  55 0014 40F20003 		movw	r3, #:lower16:OSIntNestingCtr
  56 0018 C0F20003 		movt	r3, #:upper16:OSIntNestingCtr
  57 001c 1B78     		ldrb	r3, [r3, #0]	@ zero_extendqisi2
  58 001e 002B     		cmp	r3, #0
  59 0020 04D0     		beq	.L2
  98:C:\Micrium\Software\uCOS-III\Source\os_sem.c ****        *p_err = OS_ERR_CREATE_ISR;
  60              		.loc 1 98 0
  61 0022 3B68     		ldr	r3, [r7, #0]
  62 0024 42F6E162 		movw	r2, #12001
  63 0028 1A80     		strh	r2, [r3, #0]	@ movhi
  99:C:\Micrium\Software\uCOS-III\Source\os_sem.c ****         return;
  64              		.loc 1 99 0
  65 002a 38E0     		b	.L5
  66              	.L2:
 100:C:\Micrium\Software\uCOS-III\Source\os_sem.c ****     }
 101:C:\Micrium\Software\uCOS-III\Source\os_sem.c **** #endif
ARM GAS  C:\Users\daniel01\AppData\Local\Temp\ccip0sTe.s 			page 4


 102:C:\Micrium\Software\uCOS-III\Source\os_sem.c **** 
 103:C:\Micrium\Software\uCOS-III\Source\os_sem.c **** #if OS_CFG_ARG_CHK_EN > 0u
 104:C:\Micrium\Software\uCOS-III\Source\os_sem.c ****     if (p_sem == (OS_SEM *)0) {                             /* Validate 'p_sem'                    
  67              		.loc 1 104 0
  68 002c FB68     		ldr	r3, [r7, #12]
  69 002e 002B     		cmp	r3, #0
  70 0030 04D1     		bne	.L4
 105:C:\Micrium\Software\uCOS-III\Source\os_sem.c ****        *p_err = OS_ERR_OBJ_PTR_NULL;
  71              		.loc 1 105 0
  72 0032 3B68     		ldr	r3, [r7, #0]
  73 0034 45F6C352 		movw	r2, #24003
  74 0038 1A80     		strh	r2, [r3, #0]	@ movhi
 106:C:\Micrium\Software\uCOS-III\Source\os_sem.c ****         return;
  75              		.loc 1 106 0
  76 003a 30E0     		b	.L5
  77              	.L4:
 107:C:\Micrium\Software\uCOS-III\Source\os_sem.c ****     }
 108:C:\Micrium\Software\uCOS-III\Source\os_sem.c **** #endif
 109:C:\Micrium\Software\uCOS-III\Source\os_sem.c **** 
 110:C:\Micrium\Software\uCOS-III\Source\os_sem.c ****     OS_CRITICAL_ENTER();
  78              		.loc 1 110 0
  79 003c FFF7FEFF 		bl	CPU_SR_Save
  80 0040 0346     		mov	r3, r0
  81 0042 7B61     		str	r3, [r7, #20]
 111:C:\Micrium\Software\uCOS-III\Source\os_sem.c ****     p_sem->Type    = OS_OBJ_TYPE_SEM;                       /* Mark the data structure as a semapho
  82              		.loc 1 111 0
  83 0044 FA68     		ldr	r2, [r7, #12]
  84 0046 44F25353 		movw	r3, #:lower16:1095583059
  85 004a C4F24D13 		movt	r3, #:upper16:1095583059
  86 004e 1360     		str	r3, [r2, #0]
 112:C:\Micrium\Software\uCOS-III\Source\os_sem.c ****     p_sem->Ctr     = cnt;                                   /* Set semaphore value                 
  87              		.loc 1 112 0
  88 0050 FB68     		ldr	r3, [r7, #12]
  89 0052 7A68     		ldr	r2, [r7, #4]
  90 0054 1A62     		str	r2, [r3, #32]
 113:C:\Micrium\Software\uCOS-III\Source\os_sem.c ****     p_sem->TS      = (CPU_TS)0;
  91              		.loc 1 113 0
  92 0056 FB68     		ldr	r3, [r7, #12]
  93 0058 4FF00002 		mov	r2, #0
  94 005c 5A62     		str	r2, [r3, #36]
 114:C:\Micrium\Software\uCOS-III\Source\os_sem.c ****     p_sem->NamePtr = p_name;                                /* Save the name of the semaphore      
  95              		.loc 1 114 0
  96 005e FB68     		ldr	r3, [r7, #12]
  97 0060 BA68     		ldr	r2, [r7, #8]
  98 0062 5A60     		str	r2, [r3, #4]
 115:C:\Micrium\Software\uCOS-III\Source\os_sem.c ****     OS_PendListInit(&p_sem->PendList);                      /* Initialize the waiting list         
  99              		.loc 1 115 0
 100 0064 FB68     		ldr	r3, [r7, #12]
 101 0066 03F10803 		add	r3, r3, #8
 102 006a 1846     		mov	r0, r3
 103 006c FFF7FEFF 		bl	OS_PendListInit
 116:C:\Micrium\Software\uCOS-III\Source\os_sem.c **** 
 117:C:\Micrium\Software\uCOS-III\Source\os_sem.c **** #if OS_CFG_DBG_EN > 0u
 118:C:\Micrium\Software\uCOS-III\Source\os_sem.c ****     OS_SemDbgListAdd(p_sem);
 104              		.loc 1 118 0
 105 0070 F868     		ldr	r0, [r7, #12]
 106 0072 FFF7FEFF 		bl	OS_SemDbgListAdd
ARM GAS  C:\Users\daniel01\AppData\Local\Temp\ccip0sTe.s 			page 5


 119:C:\Micrium\Software\uCOS-III\Source\os_sem.c **** #endif
 120:C:\Micrium\Software\uCOS-III\Source\os_sem.c ****     OSSemQty++;
 107              		.loc 1 120 0
 108 0076 40F20003 		movw	r3, #:lower16:OSSemQty
 109 007a C0F20003 		movt	r3, #:upper16:OSSemQty
 110 007e 1B88     		ldrh	r3, [r3, #0]
 111 0080 03F10103 		add	r3, r3, #1
 112 0084 9AB2     		uxth	r2, r3
 113 0086 40F20003 		movw	r3, #:lower16:OSSemQty
 114 008a C0F20003 		movt	r3, #:upper16:OSSemQty
 115 008e 1A80     		strh	r2, [r3, #0]	@ movhi
 121:C:\Micrium\Software\uCOS-III\Source\os_sem.c **** 
 122:C:\Micrium\Software\uCOS-III\Source\os_sem.c ****     OS_CRITICAL_EXIT_NO_SCHED();
 116              		.loc 1 122 0
 117 0090 7869     		ldr	r0, [r7, #20]
 118 0092 FFF7FEFF 		bl	CPU_SR_Restore
 123:C:\Micrium\Software\uCOS-III\Source\os_sem.c ****    *p_err = OS_ERR_NONE;
 119              		.loc 1 123 0
 120 0096 3B68     		ldr	r3, [r7, #0]
 121 0098 4FF00002 		mov	r2, #0
 122 009c 1A80     		strh	r2, [r3, #0]	@ movhi
 123              	.L5:
 124:C:\Micrium\Software\uCOS-III\Source\os_sem.c **** }
 124              		.loc 1 124 0
 125 009e 07F11807 		add	r7, r7, #24
 126 00a2 BD46     		mov	sp, r7
 127 00a4 80BD     		pop	{r7, pc}
 128              		.cfi_endproc
 129              	.LFE0:
 130              		.size	OSSemCreate, .-OSSemCreate
 131 00a6 00BF     		.section	.text.OSSemDel,"ax",%progbits
 132              		.align	2
 133              		.global	OSSemDel
 134              		.thumb
 135              		.thumb_func
 136              		.type	OSSemDel, %function
 137              	OSSemDel:
 138              	.LFB1:
 125:C:\Micrium\Software\uCOS-III\Source\os_sem.c **** 
 126:C:\Micrium\Software\uCOS-III\Source\os_sem.c **** /*$PAGE*/
 127:C:\Micrium\Software\uCOS-III\Source\os_sem.c **** /*
 128:C:\Micrium\Software\uCOS-III\Source\os_sem.c **** ***************************************************************************************************
 129:C:\Micrium\Software\uCOS-III\Source\os_sem.c **** *                                                  DELETE A SEMAPHORE
 130:C:\Micrium\Software\uCOS-III\Source\os_sem.c **** *
 131:C:\Micrium\Software\uCOS-III\Source\os_sem.c **** * Description: This function deletes a semaphore.
 132:C:\Micrium\Software\uCOS-III\Source\os_sem.c **** *
 133:C:\Micrium\Software\uCOS-III\Source\os_sem.c **** * Arguments  : p_sem         is a pointer to the semaphore to delete
 134:C:\Micrium\Software\uCOS-III\Source\os_sem.c **** *
 135:C:\Micrium\Software\uCOS-III\Source\os_sem.c **** *              opt           determines delete options as follows:
 136:C:\Micrium\Software\uCOS-III\Source\os_sem.c **** *
 137:C:\Micrium\Software\uCOS-III\Source\os_sem.c **** *                                OS_OPT_DEL_NO_PEND          Delete semaphore ONLY if no task pendi
 138:C:\Micrium\Software\uCOS-III\Source\os_sem.c **** *                                OS_OPT_DEL_ALWAYS           Deletes the semaphore even if tasks ar
 139:C:\Micrium\Software\uCOS-III\Source\os_sem.c **** *                                                            In this case, all the tasks pending wi
 140:C:\Micrium\Software\uCOS-III\Source\os_sem.c **** *
 141:C:\Micrium\Software\uCOS-III\Source\os_sem.c **** *              p_err         is a pointer to a variable that will contain an error code returned by
 142:C:\Micrium\Software\uCOS-III\Source\os_sem.c **** *
 143:C:\Micrium\Software\uCOS-III\Source\os_sem.c **** *                                OS_ERR_NONE                 The call was successful and the semaph
ARM GAS  C:\Users\daniel01\AppData\Local\Temp\ccip0sTe.s 			page 6


 144:C:\Micrium\Software\uCOS-III\Source\os_sem.c **** *                                OS_ERR_DEL_ISR              If you attempted to delete the semapho
 145:C:\Micrium\Software\uCOS-III\Source\os_sem.c **** *                                OS_ERR_OBJ_PTR_NULL         If 'p_sem' is a NULL pointer.
 146:C:\Micrium\Software\uCOS-III\Source\os_sem.c **** *                                OS_ERR_OBJ_TYPE             If 'p_sem' is not pointing at a semaph
 147:C:\Micrium\Software\uCOS-III\Source\os_sem.c **** *                                OS_ERR_OPT_INVALID          An invalid option was specified
 148:C:\Micrium\Software\uCOS-III\Source\os_sem.c **** *                                OS_ERR_TASK_WAITING         One or more tasks were waiting on the 
 149:C:\Micrium\Software\uCOS-III\Source\os_sem.c **** *
 150:C:\Micrium\Software\uCOS-III\Source\os_sem.c **** * Returns    : == 0          if no tasks were waiting on the semaphore, or upon error.
 151:C:\Micrium\Software\uCOS-III\Source\os_sem.c **** *              >  0          if one or more tasks waiting on the semaphore are now readied and info
 152:C:\Micrium\Software\uCOS-III\Source\os_sem.c **** *
 153:C:\Micrium\Software\uCOS-III\Source\os_sem.c **** * Note(s)    : 1) This function must be used with care.  Tasks that would normally expect the prese
 154:C:\Micrium\Software\uCOS-III\Source\os_sem.c **** *                 MUST check the return code of OSSemPend().
 155:C:\Micrium\Software\uCOS-III\Source\os_sem.c **** *              2) OSSemAccept() callers will not know that the intended semaphore has been deleted.
 156:C:\Micrium\Software\uCOS-III\Source\os_sem.c **** *              3) Because ALL tasks pending on the semaphore will be readied, you MUST be careful i
 157:C:\Micrium\Software\uCOS-III\Source\os_sem.c **** *                 the semaphore is used for mutual exclusion because the resource(s) will no longer
 158:C:\Micrium\Software\uCOS-III\Source\os_sem.c **** *                 semaphore.
 159:C:\Micrium\Software\uCOS-III\Source\os_sem.c **** ***************************************************************************************************
 160:C:\Micrium\Software\uCOS-III\Source\os_sem.c **** */
 161:C:\Micrium\Software\uCOS-III\Source\os_sem.c **** 
 162:C:\Micrium\Software\uCOS-III\Source\os_sem.c **** #if OS_CFG_SEM_DEL_EN > 0u
 163:C:\Micrium\Software\uCOS-III\Source\os_sem.c **** OS_OBJ_QTY  OSSemDel (OS_SEM  *p_sem,
 164:C:\Micrium\Software\uCOS-III\Source\os_sem.c ****                       OS_OPT   opt,
 165:C:\Micrium\Software\uCOS-III\Source\os_sem.c ****                       OS_ERR  *p_err)
 166:C:\Micrium\Software\uCOS-III\Source\os_sem.c **** {
 139              		.loc 1 166 0
 140              		.cfi_startproc
 141              		@ args = 0, pretend = 0, frame = 40
 142              		@ frame_needed = 1, uses_anonymous_args = 0
 143 0000 80B5     		push	{r7, lr}
 144              	.LCFI3:
 145              		.cfi_def_cfa_offset 8
 146 0002 8AB0     		sub	sp, sp, #40
 147              	.LCFI4:
 148              		.cfi_def_cfa_offset 48
 149 0004 00AF     		add	r7, sp, #0
 150              		.cfi_offset 14, -4
 151              		.cfi_offset 7, -8
 152              	.LCFI5:
 153              		.cfi_def_cfa_register 7
 154 0006 F860     		str	r0, [r7, #12]
 155 0008 0B46     		mov	r3, r1
 156 000a 7A60     		str	r2, [r7, #4]
 157 000c 7B81     		strh	r3, [r7, #10]	@ movhi
 167:C:\Micrium\Software\uCOS-III\Source\os_sem.c ****     OS_OBJ_QTY     cnt;
 168:C:\Micrium\Software\uCOS-III\Source\os_sem.c ****     OS_OBJ_QTY     nbr_tasks;
 169:C:\Micrium\Software\uCOS-III\Source\os_sem.c ****     OS_PEND_DATA  *p_pend_data;
 170:C:\Micrium\Software\uCOS-III\Source\os_sem.c ****     OS_PEND_LIST  *p_pend_list;
 171:C:\Micrium\Software\uCOS-III\Source\os_sem.c ****     OS_TCB        *p_tcb;
 172:C:\Micrium\Software\uCOS-III\Source\os_sem.c ****     CPU_TS         ts;
 173:C:\Micrium\Software\uCOS-III\Source\os_sem.c ****     CPU_SR_ALLOC();
 158              		.loc 1 173 0
 159 000e 4FF00003 		mov	r3, #0
 160 0012 7B62     		str	r3, [r7, #36]
 174:C:\Micrium\Software\uCOS-III\Source\os_sem.c **** 
 175:C:\Micrium\Software\uCOS-III\Source\os_sem.c **** 
 176:C:\Micrium\Software\uCOS-III\Source\os_sem.c **** 
 177:C:\Micrium\Software\uCOS-III\Source\os_sem.c **** #ifdef OS_SAFETY_CRITICAL
 178:C:\Micrium\Software\uCOS-III\Source\os_sem.c ****     if (p_err == (OS_ERR *)0) {
ARM GAS  C:\Users\daniel01\AppData\Local\Temp\ccip0sTe.s 			page 7


 179:C:\Micrium\Software\uCOS-III\Source\os_sem.c ****         OS_SAFETY_CRITICAL_EXCEPTION();
 180:C:\Micrium\Software\uCOS-III\Source\os_sem.c ****         return ((OS_OBJ_QTY)0);
 181:C:\Micrium\Software\uCOS-III\Source\os_sem.c ****     }
 182:C:\Micrium\Software\uCOS-III\Source\os_sem.c **** #endif
 183:C:\Micrium\Software\uCOS-III\Source\os_sem.c **** 
 184:C:\Micrium\Software\uCOS-III\Source\os_sem.c **** #if OS_CFG_CALLED_FROM_ISR_CHK_EN > 0u
 185:C:\Micrium\Software\uCOS-III\Source\os_sem.c ****     if (OSIntNestingCtr > (OS_NESTING_CTR)0) {              /* Not allowed to delete a semaphore fr
 161              		.loc 1 185 0
 162 0014 40F20003 		movw	r3, #:lower16:OSIntNestingCtr
 163 0018 C0F20003 		movt	r3, #:upper16:OSIntNestingCtr
 164 001c 1B78     		ldrb	r3, [r3, #0]	@ zero_extendqisi2
 165 001e 002B     		cmp	r3, #0
 166 0020 06D0     		beq	.L7
 186:C:\Micrium\Software\uCOS-III\Source\os_sem.c ****        *p_err = OS_ERR_DEL_ISR;
 167              		.loc 1 186 0
 168 0022 7B68     		ldr	r3, [r7, #4]
 169 0024 43F2C922 		movw	r2, #13001
 170 0028 1A80     		strh	r2, [r3, #0]	@ movhi
 187:C:\Micrium\Software\uCOS-III\Source\os_sem.c ****         return ((OS_OBJ_QTY)0);
 171              		.loc 1 187 0
 172 002a 4FF00003 		mov	r3, #0
 173 002e 8BE0     		b	.L8
 174              	.L7:
 188:C:\Micrium\Software\uCOS-III\Source\os_sem.c ****     }
 189:C:\Micrium\Software\uCOS-III\Source\os_sem.c **** #endif
 190:C:\Micrium\Software\uCOS-III\Source\os_sem.c **** 
 191:C:\Micrium\Software\uCOS-III\Source\os_sem.c **** #if OS_CFG_ARG_CHK_EN > 0u
 192:C:\Micrium\Software\uCOS-III\Source\os_sem.c ****     if (p_sem == (OS_SEM *)0) {                             /* Validate 'p_sem'                    
 175              		.loc 1 192 0
 176 0030 FB68     		ldr	r3, [r7, #12]
 177 0032 002B     		cmp	r3, #0
 178 0034 06D1     		bne	.L9
 193:C:\Micrium\Software\uCOS-III\Source\os_sem.c ****        *p_err = OS_ERR_OBJ_PTR_NULL;
 179              		.loc 1 193 0
 180 0036 7B68     		ldr	r3, [r7, #4]
 181 0038 45F6C352 		movw	r2, #24003
 182 003c 1A80     		strh	r2, [r3, #0]	@ movhi
 194:C:\Micrium\Software\uCOS-III\Source\os_sem.c ****         return ((OS_OBJ_QTY)0);
 183              		.loc 1 194 0
 184 003e 4FF00003 		mov	r3, #0
 185 0042 81E0     		b	.L8
 186              	.L9:
 195:C:\Micrium\Software\uCOS-III\Source\os_sem.c ****     }
 196:C:\Micrium\Software\uCOS-III\Source\os_sem.c ****     switch (opt) {                                          /* Validate 'opt'                      
 187              		.loc 1 196 0
 188 0044 7B89     		ldrh	r3, [r7, #10]
 189 0046 03F10003 		add	r3, r3, #0
 190 004a 012B     		cmp	r3, #1
 191 004c 12D8     		bhi	.L10
 197:C:\Micrium\Software\uCOS-III\Source\os_sem.c ****         case OS_OPT_DEL_NO_PEND:
 198:C:\Micrium\Software\uCOS-III\Source\os_sem.c ****         case OS_OPT_DEL_ALWAYS:
 199:C:\Micrium\Software\uCOS-III\Source\os_sem.c ****              break;
 200:C:\Micrium\Software\uCOS-III\Source\os_sem.c **** 
 201:C:\Micrium\Software\uCOS-III\Source\os_sem.c ****         default:
 202:C:\Micrium\Software\uCOS-III\Source\os_sem.c ****             *p_err = OS_ERR_OPT_INVALID;
 203:C:\Micrium\Software\uCOS-III\Source\os_sem.c ****              return ((OS_OBJ_QTY)0);
 204:C:\Micrium\Software\uCOS-III\Source\os_sem.c ****     }
ARM GAS  C:\Users\daniel01\AppData\Local\Temp\ccip0sTe.s 			page 8


 205:C:\Micrium\Software\uCOS-III\Source\os_sem.c **** #endif
 206:C:\Micrium\Software\uCOS-III\Source\os_sem.c **** 
 207:C:\Micrium\Software\uCOS-III\Source\os_sem.c **** #if OS_CFG_OBJ_TYPE_CHK_EN > 0u
 208:C:\Micrium\Software\uCOS-III\Source\os_sem.c ****     if (p_sem->Type != OS_OBJ_TYPE_SEM) {                   /* Make sure semaphore was created     
 209:C:\Micrium\Software\uCOS-III\Source\os_sem.c ****        *p_err = OS_ERR_OBJ_TYPE;
 210:C:\Micrium\Software\uCOS-III\Source\os_sem.c ****         return ((OS_OBJ_QTY)0);
 211:C:\Micrium\Software\uCOS-III\Source\os_sem.c ****     }
 212:C:\Micrium\Software\uCOS-III\Source\os_sem.c **** #endif
 213:C:\Micrium\Software\uCOS-III\Source\os_sem.c **** 
 214:C:\Micrium\Software\uCOS-III\Source\os_sem.c ****     CPU_CRITICAL_ENTER();
 192              		.loc 1 214 0
 193 004e FFF7FEFF 		bl	CPU_SR_Save
 194 0052 0346     		mov	r3, r0
 195 0054 7B62     		str	r3, [r7, #36]
 215:C:\Micrium\Software\uCOS-III\Source\os_sem.c ****     p_pend_list = &p_sem->PendList;
 196              		.loc 1 215 0
 197 0056 FB68     		ldr	r3, [r7, #12]
 198 0058 03F10803 		add	r3, r3, #8
 199 005c BB61     		str	r3, [r7, #24]
 216:C:\Micrium\Software\uCOS-III\Source\os_sem.c ****     cnt         = p_pend_list->NbrEntries;
 200              		.loc 1 216 0
 201 005e BB69     		ldr	r3, [r7, #24]
 202 0060 1B89     		ldrh	r3, [r3, #8]	@ movhi
 203 0062 3B82     		strh	r3, [r7, #16]	@ movhi
 217:C:\Micrium\Software\uCOS-III\Source\os_sem.c ****     nbr_tasks   = cnt;
 204              		.loc 1 217 0
 205 0064 3B8A     		ldrh	r3, [r7, #16]	@ movhi
 206 0066 7B82     		strh	r3, [r7, #18]	@ movhi
 218:C:\Micrium\Software\uCOS-III\Source\os_sem.c ****     switch (opt) {
 207              		.loc 1 218 0
 208 0068 7B89     		ldrh	r3, [r7, #10]
 209 006a 002B     		cmp	r3, #0
 210 006c 09D0     		beq	.L13
 211 006e 012B     		cmp	r3, #1
 212 0070 2DD0     		beq	.L14
 213 0072 61E0     		b	.L21
 214              	.L10:
 215              		.loc 1 202 0
 216 0074 7B68     		ldr	r3, [r7, #4]
 217 0076 45F62562 		movw	r2, #24101
 218 007a 1A80     		strh	r2, [r3, #0]	@ movhi
 219              		.loc 1 203 0
 220 007c 4FF00003 		mov	r3, #0
 221 0080 62E0     		b	.L8
 222              	.L13:
 219:C:\Micrium\Software\uCOS-III\Source\os_sem.c ****         case OS_OPT_DEL_NO_PEND:                            /* Delete semaphore only if no task wai
 220:C:\Micrium\Software\uCOS-III\Source\os_sem.c ****              if (nbr_tasks == (OS_OBJ_QTY)0) {
 223              		.loc 1 220 0
 224 0082 7B8A     		ldrh	r3, [r7, #18]
 225 0084 002B     		cmp	r3, #0
 226 0086 1AD1     		bne	.L15
 221:C:\Micrium\Software\uCOS-III\Source\os_sem.c **** #if OS_CFG_DBG_EN > 0u
 222:C:\Micrium\Software\uCOS-III\Source\os_sem.c ****                  OS_SemDbgListRemove(p_sem);
 227              		.loc 1 222 0
 228 0088 F868     		ldr	r0, [r7, #12]
 229 008a FFF7FEFF 		bl	OS_SemDbgListRemove
 223:C:\Micrium\Software\uCOS-III\Source\os_sem.c **** #endif
ARM GAS  C:\Users\daniel01\AppData\Local\Temp\ccip0sTe.s 			page 9


 224:C:\Micrium\Software\uCOS-III\Source\os_sem.c ****                  OSSemQty--;
 230              		.loc 1 224 0
 231 008e 40F20003 		movw	r3, #:lower16:OSSemQty
 232 0092 C0F20003 		movt	r3, #:upper16:OSSemQty
 233 0096 1B88     		ldrh	r3, [r3, #0]
 234 0098 03F1FF33 		add	r3, r3, #-1
 235 009c 9AB2     		uxth	r2, r3
 236 009e 40F20003 		movw	r3, #:lower16:OSSemQty
 237 00a2 C0F20003 		movt	r3, #:upper16:OSSemQty
 238 00a6 1A80     		strh	r2, [r3, #0]	@ movhi
 225:C:\Micrium\Software\uCOS-III\Source\os_sem.c ****                  OS_SemClr(p_sem);
 239              		.loc 1 225 0
 240 00a8 F868     		ldr	r0, [r7, #12]
 241 00aa FFF7FEFF 		bl	OS_SemClr
 226:C:\Micrium\Software\uCOS-III\Source\os_sem.c ****                  CPU_CRITICAL_EXIT();
 242              		.loc 1 226 0
 243 00ae 786A     		ldr	r0, [r7, #36]
 244 00b0 FFF7FEFF 		bl	CPU_SR_Restore
 227:C:\Micrium\Software\uCOS-III\Source\os_sem.c ****                 *p_err = OS_ERR_NONE;
 245              		.loc 1 227 0
 246 00b4 7B68     		ldr	r3, [r7, #4]
 247 00b6 4FF00002 		mov	r2, #0
 248 00ba 1A80     		strh	r2, [r3, #0]	@ movhi
 228:C:\Micrium\Software\uCOS-III\Source\os_sem.c ****              } else {
 229:C:\Micrium\Software\uCOS-III\Source\os_sem.c ****                  CPU_CRITICAL_EXIT();
 230:C:\Micrium\Software\uCOS-III\Source\os_sem.c ****                 *p_err = OS_ERR_TASK_WAITING;
 231:C:\Micrium\Software\uCOS-III\Source\os_sem.c ****              }
 232:C:\Micrium\Software\uCOS-III\Source\os_sem.c ****              break;
 249              		.loc 1 232 0
 250 00bc 43E0     		b	.L17
 251              	.L15:
 252              		.loc 1 229 0
 253 00be 786A     		ldr	r0, [r7, #36]
 254 00c0 FFF7FEFF 		bl	CPU_SR_Restore
 255              		.loc 1 230 0
 256 00c4 7B68     		ldr	r3, [r7, #4]
 257 00c6 47F25F12 		movw	r2, #29023
 258 00ca 1A80     		strh	r2, [r3, #0]	@ movhi
 259              		.loc 1 232 0
 260 00cc 3BE0     		b	.L17
 261              	.L14:
 233:C:\Micrium\Software\uCOS-III\Source\os_sem.c **** 
 234:C:\Micrium\Software\uCOS-III\Source\os_sem.c ****         case OS_OPT_DEL_ALWAYS:                             /* Always delete the semaphore         
 235:C:\Micrium\Software\uCOS-III\Source\os_sem.c ****              OS_CRITICAL_ENTER_CPU_EXIT();
 236:C:\Micrium\Software\uCOS-III\Source\os_sem.c ****              ts = OS_TS_GET();                              /* Get local time stamp so all tasks ge
 262              		.loc 1 236 0
 263 00ce FFF7FEFF 		bl	CPU_TS_TmrRd
 264 00d2 0346     		mov	r3, r0
 265 00d4 3B62     		str	r3, [r7, #32]
 237:C:\Micrium\Software\uCOS-III\Source\os_sem.c ****              while (cnt > 0u) {                             /* Remove all tasks on the pend list   
 266              		.loc 1 237 0
 267 00d6 0FE0     		b	.L18
 268              	.L19:
 238:C:\Micrium\Software\uCOS-III\Source\os_sem.c ****                  p_pend_data = p_pend_list->HeadPtr;
 269              		.loc 1 238 0
 270 00d8 BB69     		ldr	r3, [r7, #24]
 271 00da 1B68     		ldr	r3, [r3, #0]
ARM GAS  C:\Users\daniel01\AppData\Local\Temp\ccip0sTe.s 			page 10


 272 00dc 7B61     		str	r3, [r7, #20]
 239:C:\Micrium\Software\uCOS-III\Source\os_sem.c ****                  p_tcb       = p_pend_data->TCBPtr;
 273              		.loc 1 239 0
 274 00de 7B69     		ldr	r3, [r7, #20]
 275 00e0 9B68     		ldr	r3, [r3, #8]
 276 00e2 FB61     		str	r3, [r7, #28]
 240:C:\Micrium\Software\uCOS-III\Source\os_sem.c ****                  OS_PendObjDel((OS_PEND_OBJ *)((void *)p_sem),
 277              		.loc 1 240 0
 278 00e4 FB68     		ldr	r3, [r7, #12]
 279 00e6 1846     		mov	r0, r3
 280 00e8 F969     		ldr	r1, [r7, #28]
 281 00ea 3A6A     		ldr	r2, [r7, #32]
 282 00ec FFF7FEFF 		bl	OS_PendObjDel
 241:C:\Micrium\Software\uCOS-III\Source\os_sem.c ****                                p_tcb,
 242:C:\Micrium\Software\uCOS-III\Source\os_sem.c ****                                ts);
 243:C:\Micrium\Software\uCOS-III\Source\os_sem.c ****                  cnt--;
 283              		.loc 1 243 0
 284 00f0 3B8A     		ldrh	r3, [r7, #16]	@ movhi
 285 00f2 03F1FF33 		add	r3, r3, #-1
 286 00f6 3B82     		strh	r3, [r7, #16]	@ movhi
 287              	.L18:
 288              		.loc 1 237 0
 289 00f8 3B8A     		ldrh	r3, [r7, #16]
 290 00fa 002B     		cmp	r3, #0
 291 00fc ECD1     		bne	.L19
 244:C:\Micrium\Software\uCOS-III\Source\os_sem.c ****              }
 245:C:\Micrium\Software\uCOS-III\Source\os_sem.c **** #if OS_CFG_DBG_EN > 0u
 246:C:\Micrium\Software\uCOS-III\Source\os_sem.c ****              OS_SemDbgListRemove(p_sem);
 292              		.loc 1 246 0
 293 00fe F868     		ldr	r0, [r7, #12]
 294 0100 FFF7FEFF 		bl	OS_SemDbgListRemove
 247:C:\Micrium\Software\uCOS-III\Source\os_sem.c **** #endif
 248:C:\Micrium\Software\uCOS-III\Source\os_sem.c ****              OSSemQty--;
 295              		.loc 1 248 0
 296 0104 40F20003 		movw	r3, #:lower16:OSSemQty
 297 0108 C0F20003 		movt	r3, #:upper16:OSSemQty
 298 010c 1B88     		ldrh	r3, [r3, #0]
 299 010e 03F1FF33 		add	r3, r3, #-1
 300 0112 9AB2     		uxth	r2, r3
 301 0114 40F20003 		movw	r3, #:lower16:OSSemQty
 302 0118 C0F20003 		movt	r3, #:upper16:OSSemQty
 303 011c 1A80     		strh	r2, [r3, #0]	@ movhi
 249:C:\Micrium\Software\uCOS-III\Source\os_sem.c ****              OS_SemClr(p_sem);
 304              		.loc 1 249 0
 305 011e F868     		ldr	r0, [r7, #12]
 306 0120 FFF7FEFF 		bl	OS_SemClr
 250:C:\Micrium\Software\uCOS-III\Source\os_sem.c ****              OS_CRITICAL_EXIT_NO_SCHED();
 307              		.loc 1 250 0
 308 0124 786A     		ldr	r0, [r7, #36]
 309 0126 FFF7FEFF 		bl	CPU_SR_Restore
 251:C:\Micrium\Software\uCOS-III\Source\os_sem.c ****              OSSched();                                     /* Find highest priority task ready to 
 310              		.loc 1 251 0
 311 012a FFF7FEFF 		bl	OSSched
 252:C:\Micrium\Software\uCOS-III\Source\os_sem.c ****             *p_err = OS_ERR_NONE;
 312              		.loc 1 252 0
 313 012e 7B68     		ldr	r3, [r7, #4]
 314 0130 4FF00002 		mov	r2, #0
ARM GAS  C:\Users\daniel01\AppData\Local\Temp\ccip0sTe.s 			page 11


 315 0134 1A80     		strh	r2, [r3, #0]	@ movhi
 253:C:\Micrium\Software\uCOS-III\Source\os_sem.c ****              break;
 316              		.loc 1 253 0
 317 0136 06E0     		b	.L17
 318              	.L21:
 254:C:\Micrium\Software\uCOS-III\Source\os_sem.c **** 
 255:C:\Micrium\Software\uCOS-III\Source\os_sem.c ****         default:
 256:C:\Micrium\Software\uCOS-III\Source\os_sem.c ****              CPU_CRITICAL_EXIT();
 319              		.loc 1 256 0
 320 0138 786A     		ldr	r0, [r7, #36]
 321 013a FFF7FEFF 		bl	CPU_SR_Restore
 257:C:\Micrium\Software\uCOS-III\Source\os_sem.c ****             *p_err = OS_ERR_OPT_INVALID;
 322              		.loc 1 257 0
 323 013e 7B68     		ldr	r3, [r7, #4]
 324 0140 45F62562 		movw	r2, #24101
 325 0144 1A80     		strh	r2, [r3, #0]	@ movhi
 326              	.L17:
 258:C:\Micrium\Software\uCOS-III\Source\os_sem.c ****              break;
 259:C:\Micrium\Software\uCOS-III\Source\os_sem.c ****     }
 260:C:\Micrium\Software\uCOS-III\Source\os_sem.c ****     return ((OS_OBJ_QTY)nbr_tasks);
 327              		.loc 1 260 0
 328 0146 7B8A     		ldrh	r3, [r7, #18]
 329              	.L8:
 261:C:\Micrium\Software\uCOS-III\Source\os_sem.c **** }
 330              		.loc 1 261 0
 331 0148 1846     		mov	r0, r3
 332 014a 07F12807 		add	r7, r7, #40
 333 014e BD46     		mov	sp, r7
 334 0150 80BD     		pop	{r7, pc}
 335              		.cfi_endproc
 336              	.LFE1:
 337              		.size	OSSemDel, .-OSSemDel
 338 0152 00BF     		.section	.text.OSSemPend,"ax",%progbits
 339              		.align	2
 340              		.global	OSSemPend
 341              		.thumb
 342              		.thumb_func
 343              		.type	OSSemPend, %function
 344              	OSSemPend:
 345              	.LFB2:
 262:C:\Micrium\Software\uCOS-III\Source\os_sem.c **** #endif
 263:C:\Micrium\Software\uCOS-III\Source\os_sem.c **** 
 264:C:\Micrium\Software\uCOS-III\Source\os_sem.c **** /*$PAGE*/
 265:C:\Micrium\Software\uCOS-III\Source\os_sem.c **** /*
 266:C:\Micrium\Software\uCOS-III\Source\os_sem.c **** ***************************************************************************************************
 267:C:\Micrium\Software\uCOS-III\Source\os_sem.c **** *                                                  PEND ON SEMAPHORE
 268:C:\Micrium\Software\uCOS-III\Source\os_sem.c **** *
 269:C:\Micrium\Software\uCOS-III\Source\os_sem.c **** * Description: This function waits for a semaphore.
 270:C:\Micrium\Software\uCOS-III\Source\os_sem.c **** *
 271:C:\Micrium\Software\uCOS-III\Source\os_sem.c **** * Arguments  : p_sem         is a pointer to the semaphore
 272:C:\Micrium\Software\uCOS-III\Source\os_sem.c **** *
 273:C:\Micrium\Software\uCOS-III\Source\os_sem.c **** *              timeout       is an optional timeout period (in clock ticks).  If non-zero, your tas
 274:C:\Micrium\Software\uCOS-III\Source\os_sem.c **** *                            resource up to the amount of time (in 'ticks') specified by this argum
 275:C:\Micrium\Software\uCOS-III\Source\os_sem.c **** *                            0, however, your task will wait forever at the specified semaphore or,
 276:C:\Micrium\Software\uCOS-III\Source\os_sem.c **** *                            becomes available (or the event occurs).
 277:C:\Micrium\Software\uCOS-III\Source\os_sem.c **** *
 278:C:\Micrium\Software\uCOS-III\Source\os_sem.c **** *              opt           determines whether the user wants to block if the semaphore is not ava
ARM GAS  C:\Users\daniel01\AppData\Local\Temp\ccip0sTe.s 			page 12


 279:C:\Micrium\Software\uCOS-III\Source\os_sem.c **** *
 280:C:\Micrium\Software\uCOS-III\Source\os_sem.c **** *                                OS_OPT_PEND_BLOCKING
 281:C:\Micrium\Software\uCOS-III\Source\os_sem.c **** *                                OS_OPT_PEND_NON_BLOCKING
 282:C:\Micrium\Software\uCOS-III\Source\os_sem.c **** *
 283:C:\Micrium\Software\uCOS-III\Source\os_sem.c **** *              p_ts          is a pointer to a variable that will receive the timestamp of when the
 284:C:\Micrium\Software\uCOS-III\Source\os_sem.c **** *                            or pend aborted or the semaphore deleted.  If you pass a NULL pointer 
 285:C:\Micrium\Software\uCOS-III\Source\os_sem.c **** *                            then you will not get the timestamp.  In other words, passing a NULL p
 286:C:\Micrium\Software\uCOS-III\Source\os_sem.c **** *                            and indicates that you don't need the timestamp.
 287:C:\Micrium\Software\uCOS-III\Source\os_sem.c **** *
 288:C:\Micrium\Software\uCOS-III\Source\os_sem.c **** *              p_err         is a pointer to a variable that will contain an error code returned by
 289:C:\Micrium\Software\uCOS-III\Source\os_sem.c **** *
 290:C:\Micrium\Software\uCOS-III\Source\os_sem.c **** *                                OS_ERR_NONE               The call was successful and your task ow
 291:C:\Micrium\Software\uCOS-III\Source\os_sem.c **** *                                                          or, the event you are waiting for occurr
 292:C:\Micrium\Software\uCOS-III\Source\os_sem.c **** *                                OS_ERR_OBJ_DEL            If 'p_sem' was deleted
 293:C:\Micrium\Software\uCOS-III\Source\os_sem.c **** *                                OS_ERR_OBJ_PTR_NULL       If 'p_sem' is a NULL pointer.
 294:C:\Micrium\Software\uCOS-III\Source\os_sem.c **** *                                OS_ERR_OBJ_TYPE           If 'p_sem' is not pointing at a semaphor
 295:C:\Micrium\Software\uCOS-III\Source\os_sem.c **** *                                OS_ERR_OPT_INVALID        If you specified an invalid value for 'o
 296:C:\Micrium\Software\uCOS-III\Source\os_sem.c **** *                                OS_ERR_PEND_ABORT         If the pend was aborted by another task
 297:C:\Micrium\Software\uCOS-III\Source\os_sem.c **** *                                OS_ERR_PEND_ISR           If you called this function from an ISR 
 298:C:\Micrium\Software\uCOS-III\Source\os_sem.c **** *                                                          would lead to a suspension.
 299:C:\Micrium\Software\uCOS-III\Source\os_sem.c **** *                                OS_ERR_PEND_WOULD_BLOCK   If you specified non-blocking but the se
 300:C:\Micrium\Software\uCOS-III\Source\os_sem.c **** *                                                          available.
 301:C:\Micrium\Software\uCOS-III\Source\os_sem.c **** *                                OS_ERR_SCHED_LOCKED       If you called this function when the sch
 302:C:\Micrium\Software\uCOS-III\Source\os_sem.c **** *                                OS_ERR_STATUS_INVALID     Pend status is invalid
 303:C:\Micrium\Software\uCOS-III\Source\os_sem.c **** *                                OS_ERR_TIMEOUT            The semaphore was not received within th
 304:C:\Micrium\Software\uCOS-III\Source\os_sem.c **** *                                                          timeout.
 305:C:\Micrium\Software\uCOS-III\Source\os_sem.c **** *
 306:C:\Micrium\Software\uCOS-III\Source\os_sem.c **** *
 307:C:\Micrium\Software\uCOS-III\Source\os_sem.c **** * Returns    : The current value of the semaphore counter or 0 if not available.
 308:C:\Micrium\Software\uCOS-III\Source\os_sem.c **** ***************************************************************************************************
 309:C:\Micrium\Software\uCOS-III\Source\os_sem.c **** */
 310:C:\Micrium\Software\uCOS-III\Source\os_sem.c **** 
 311:C:\Micrium\Software\uCOS-III\Source\os_sem.c **** OS_SEM_CTR  OSSemPend (OS_SEM   *p_sem,
 312:C:\Micrium\Software\uCOS-III\Source\os_sem.c ****                        OS_TICK   timeout,
 313:C:\Micrium\Software\uCOS-III\Source\os_sem.c ****                        OS_OPT    opt,
 314:C:\Micrium\Software\uCOS-III\Source\os_sem.c ****                        CPU_TS   *p_ts,
 315:C:\Micrium\Software\uCOS-III\Source\os_sem.c ****                        OS_ERR   *p_err)
 316:C:\Micrium\Software\uCOS-III\Source\os_sem.c **** {
 346              		.loc 1 316 0
 347              		.cfi_startproc
 348              		@ args = 4, pretend = 0, frame = 56
 349              		@ frame_needed = 1, uses_anonymous_args = 0
 350 0000 80B5     		push	{r7, lr}
 351              	.LCFI6:
 352              		.cfi_def_cfa_offset 8
 353 0002 8EB0     		sub	sp, sp, #56
 354              	.LCFI7:
 355              		.cfi_def_cfa_offset 64
 356 0004 00AF     		add	r7, sp, #0
 357              		.cfi_offset 14, -4
 358              		.cfi_offset 7, -8
 359              	.LCFI8:
 360              		.cfi_def_cfa_register 7
 361 0006 F860     		str	r0, [r7, #12]
 362 0008 B960     		str	r1, [r7, #8]
 363 000a 3B60     		str	r3, [r7, #0]
 364 000c 1346     		mov	r3, r2	@ movhi
ARM GAS  C:\Users\daniel01\AppData\Local\Temp\ccip0sTe.s 			page 13


 365 000e FB80     		strh	r3, [r7, #6]	@ movhi
 317:C:\Micrium\Software\uCOS-III\Source\os_sem.c ****     OS_SEM_CTR    ctr;
 318:C:\Micrium\Software\uCOS-III\Source\os_sem.c ****     OS_PEND_DATA  pend_data;
 319:C:\Micrium\Software\uCOS-III\Source\os_sem.c ****     CPU_SR_ALLOC();
 366              		.loc 1 319 0
 367 0010 4FF00003 		mov	r3, #0
 368 0014 7B63     		str	r3, [r7, #52]
 320:C:\Micrium\Software\uCOS-III\Source\os_sem.c **** 
 321:C:\Micrium\Software\uCOS-III\Source\os_sem.c **** 
 322:C:\Micrium\Software\uCOS-III\Source\os_sem.c **** 
 323:C:\Micrium\Software\uCOS-III\Source\os_sem.c **** #ifdef OS_SAFETY_CRITICAL
 324:C:\Micrium\Software\uCOS-III\Source\os_sem.c ****     if (p_err == (OS_ERR *)0) {
 325:C:\Micrium\Software\uCOS-III\Source\os_sem.c ****         OS_SAFETY_CRITICAL_EXCEPTION();
 326:C:\Micrium\Software\uCOS-III\Source\os_sem.c ****         return ((OS_SEM_CTR)0);
 327:C:\Micrium\Software\uCOS-III\Source\os_sem.c ****     }
 328:C:\Micrium\Software\uCOS-III\Source\os_sem.c **** #endif
 329:C:\Micrium\Software\uCOS-III\Source\os_sem.c **** 
 330:C:\Micrium\Software\uCOS-III\Source\os_sem.c **** #if OS_CFG_CALLED_FROM_ISR_CHK_EN > 0u
 331:C:\Micrium\Software\uCOS-III\Source\os_sem.c ****     if (OSIntNestingCtr > (OS_NESTING_CTR)0) {              /* Not allowed to call from an ISR     
 369              		.loc 1 331 0
 370 0016 40F20003 		movw	r3, #:lower16:OSIntNestingCtr
 371 001a C0F20003 		movt	r3, #:upper16:OSIntNestingCtr
 372 001e 1B78     		ldrb	r3, [r3, #0]	@ zero_extendqisi2
 373 0020 002B     		cmp	r3, #0
 374 0022 06D0     		beq	.L23
 332:C:\Micrium\Software\uCOS-III\Source\os_sem.c ****        *p_err = OS_ERR_PEND_ISR;
 375              		.loc 1 332 0
 376 0024 3B6C     		ldr	r3, [r7, #64]
 377 0026 46F2AE12 		movw	r2, #25006
 378 002a 1A80     		strh	r2, [r3, #0]	@ movhi
 333:C:\Micrium\Software\uCOS-III\Source\os_sem.c ****         return ((OS_SEM_CTR)0);
 379              		.loc 1 333 0
 380 002c 4FF00003 		mov	r3, #0
 381 0030 D5E0     		b	.L24
 382              	.L23:
 334:C:\Micrium\Software\uCOS-III\Source\os_sem.c ****     }
 335:C:\Micrium\Software\uCOS-III\Source\os_sem.c **** #endif
 336:C:\Micrium\Software\uCOS-III\Source\os_sem.c **** 
 337:C:\Micrium\Software\uCOS-III\Source\os_sem.c **** #if OS_CFG_ARG_CHK_EN > 0u
 338:C:\Micrium\Software\uCOS-III\Source\os_sem.c ****     if (p_sem == (OS_SEM *)0) {                             /* Validate 'p_sem'                    
 383              		.loc 1 338 0
 384 0032 FB68     		ldr	r3, [r7, #12]
 385 0034 002B     		cmp	r3, #0
 386 0036 06D1     		bne	.L25
 339:C:\Micrium\Software\uCOS-III\Source\os_sem.c ****        *p_err = OS_ERR_OBJ_PTR_NULL;
 387              		.loc 1 339 0
 388 0038 3B6C     		ldr	r3, [r7, #64]
 389 003a 45F6C352 		movw	r2, #24003
 390 003e 1A80     		strh	r2, [r3, #0]	@ movhi
 340:C:\Micrium\Software\uCOS-III\Source\os_sem.c ****         return ((OS_SEM_CTR)0);
 391              		.loc 1 340 0
 392 0040 4FF00003 		mov	r3, #0
 393 0044 CBE0     		b	.L24
 394              	.L25:
 341:C:\Micrium\Software\uCOS-III\Source\os_sem.c ****     }
 342:C:\Micrium\Software\uCOS-III\Source\os_sem.c ****     switch (opt) {                                          /* Validate 'opt'                      
 395              		.loc 1 342 0
ARM GAS  C:\Users\daniel01\AppData\Local\Temp\ccip0sTe.s 			page 14


 396 0046 FB88     		ldrh	r3, [r7, #6]
 397 0048 002B     		cmp	r3, #0
 398 004a 02D0     		beq	.L27
 399 004c B3F5004F 		cmp	r3, #32768
 400 0050 03D1     		bne	.L46
 401              	.L27:
 343:C:\Micrium\Software\uCOS-III\Source\os_sem.c ****         case OS_OPT_PEND_BLOCKING:
 344:C:\Micrium\Software\uCOS-III\Source\os_sem.c ****         case OS_OPT_PEND_NON_BLOCKING:
 345:C:\Micrium\Software\uCOS-III\Source\os_sem.c ****              break;
 346:C:\Micrium\Software\uCOS-III\Source\os_sem.c **** 
 347:C:\Micrium\Software\uCOS-III\Source\os_sem.c ****         default:
 348:C:\Micrium\Software\uCOS-III\Source\os_sem.c ****             *p_err = OS_ERR_OPT_INVALID;
 349:C:\Micrium\Software\uCOS-III\Source\os_sem.c ****              return ((OS_SEM_CTR)0);
 350:C:\Micrium\Software\uCOS-III\Source\os_sem.c ****     }
 351:C:\Micrium\Software\uCOS-III\Source\os_sem.c **** #endif
 352:C:\Micrium\Software\uCOS-III\Source\os_sem.c **** 
 353:C:\Micrium\Software\uCOS-III\Source\os_sem.c **** #if OS_CFG_OBJ_TYPE_CHK_EN > 0u
 354:C:\Micrium\Software\uCOS-III\Source\os_sem.c ****     if (p_sem->Type != OS_OBJ_TYPE_SEM) {                   /* Make sure semaphore was created     
 355:C:\Micrium\Software\uCOS-III\Source\os_sem.c ****        *p_err = OS_ERR_OBJ_TYPE;
 356:C:\Micrium\Software\uCOS-III\Source\os_sem.c ****         return ((OS_SEM_CTR)0);
 357:C:\Micrium\Software\uCOS-III\Source\os_sem.c ****     }
 358:C:\Micrium\Software\uCOS-III\Source\os_sem.c **** #endif
 359:C:\Micrium\Software\uCOS-III\Source\os_sem.c **** 
 360:C:\Micrium\Software\uCOS-III\Source\os_sem.c ****     if (p_ts != (CPU_TS *)0) {
 402              		.loc 1 360 0
 403 0052 3B68     		ldr	r3, [r7, #0]
 404 0054 002B     		cmp	r3, #0
 405 0056 07D1     		bne	.L28
 406 0058 0AE0     		b	.L29
 407              	.L46:
 408              		.loc 1 348 0
 409 005a 3B6C     		ldr	r3, [r7, #64]
 410 005c 45F62562 		movw	r2, #24101
 411 0060 1A80     		strh	r2, [r3, #0]	@ movhi
 412              		.loc 1 349 0
 413 0062 4FF00003 		mov	r3, #0
 414 0066 BAE0     		b	.L24
 415              	.L28:
 361:C:\Micrium\Software\uCOS-III\Source\os_sem.c ****        *p_ts  = (CPU_TS)0;                                  /* Initialize the returned timestamp   
 416              		.loc 1 361 0
 417 0068 3B68     		ldr	r3, [r7, #0]
 418 006a 4FF00002 		mov	r2, #0
 419 006e 1A60     		str	r2, [r3, #0]
 420              	.L29:
 362:C:\Micrium\Software\uCOS-III\Source\os_sem.c ****     }
 363:C:\Micrium\Software\uCOS-III\Source\os_sem.c ****     CPU_CRITICAL_ENTER();
 421              		.loc 1 363 0
 422 0070 FFF7FEFF 		bl	CPU_SR_Save
 423 0074 0346     		mov	r3, r0
 424 0076 7B63     		str	r3, [r7, #52]
 364:C:\Micrium\Software\uCOS-III\Source\os_sem.c ****     if (p_sem->Ctr > (OS_SEM_CTR)0) {                       /* Resource available?                 
 425              		.loc 1 364 0
 426 0078 FB68     		ldr	r3, [r7, #12]
 427 007a 1B6A     		ldr	r3, [r3, #32]
 428 007c 002B     		cmp	r3, #0
 429 007e 18D0     		beq	.L30
 365:C:\Micrium\Software\uCOS-III\Source\os_sem.c ****         p_sem->Ctr--;                                       /* Yes, caller may proceed             
ARM GAS  C:\Users\daniel01\AppData\Local\Temp\ccip0sTe.s 			page 15


 430              		.loc 1 365 0
 431 0080 FB68     		ldr	r3, [r7, #12]
 432 0082 1B6A     		ldr	r3, [r3, #32]
 433 0084 03F1FF32 		add	r2, r3, #-1
 434 0088 FB68     		ldr	r3, [r7, #12]
 435 008a 1A62     		str	r2, [r3, #32]
 366:C:\Micrium\Software\uCOS-III\Source\os_sem.c ****         if (p_ts != (CPU_TS *)0) {
 436              		.loc 1 366 0
 437 008c 3B68     		ldr	r3, [r7, #0]
 438 008e 002B     		cmp	r3, #0
 439 0090 03D0     		beq	.L31
 367:C:\Micrium\Software\uCOS-III\Source\os_sem.c ****            *p_ts  = p_sem->TS;                              /*      get timestamp of last post     
 440              		.loc 1 367 0
 441 0092 FB68     		ldr	r3, [r7, #12]
 442 0094 5A6A     		ldr	r2, [r3, #36]
 443 0096 3B68     		ldr	r3, [r7, #0]
 444 0098 1A60     		str	r2, [r3, #0]
 445              	.L31:
 368:C:\Micrium\Software\uCOS-III\Source\os_sem.c ****         }
 369:C:\Micrium\Software\uCOS-III\Source\os_sem.c ****         ctr   = p_sem->Ctr;
 446              		.loc 1 369 0
 447 009a FB68     		ldr	r3, [r7, #12]
 448 009c 1B6A     		ldr	r3, [r3, #32]
 449 009e 3B63     		str	r3, [r7, #48]
 370:C:\Micrium\Software\uCOS-III\Source\os_sem.c ****         CPU_CRITICAL_EXIT();
 450              		.loc 1 370 0
 451 00a0 786B     		ldr	r0, [r7, #52]
 452 00a2 FFF7FEFF 		bl	CPU_SR_Restore
 371:C:\Micrium\Software\uCOS-III\Source\os_sem.c ****        *p_err = OS_ERR_NONE;
 453              		.loc 1 371 0
 454 00a6 3B6C     		ldr	r3, [r7, #64]
 455 00a8 4FF00002 		mov	r2, #0
 456 00ac 1A80     		strh	r2, [r3, #0]	@ movhi
 372:C:\Micrium\Software\uCOS-III\Source\os_sem.c ****         return (ctr);
 457              		.loc 1 372 0
 458 00ae 3B6B     		ldr	r3, [r7, #48]
 459 00b0 95E0     		b	.L24
 460              	.L30:
 373:C:\Micrium\Software\uCOS-III\Source\os_sem.c ****     }
 374:C:\Micrium\Software\uCOS-III\Source\os_sem.c **** 
 375:C:\Micrium\Software\uCOS-III\Source\os_sem.c ****     if ((opt & OS_OPT_PEND_NON_BLOCKING) != (OS_OPT)0) {    /* Caller wants to block if not availab
 461              		.loc 1 375 0
 462 00b2 FB88     		ldrh	r3, [r7, #6]
 463 00b4 1BB2     		sxth	r3, r3
 464 00b6 002B     		cmp	r3, #0
 465 00b8 0BDA     		bge	.L32
 376:C:\Micrium\Software\uCOS-III\Source\os_sem.c ****         ctr   = p_sem->Ctr;                                 /* No                                  
 466              		.loc 1 376 0
 467 00ba FB68     		ldr	r3, [r7, #12]
 468 00bc 1B6A     		ldr	r3, [r3, #32]
 469 00be 3B63     		str	r3, [r7, #48]
 377:C:\Micrium\Software\uCOS-III\Source\os_sem.c ****         CPU_CRITICAL_EXIT();
 470              		.loc 1 377 0
 471 00c0 786B     		ldr	r0, [r7, #52]
 472 00c2 FFF7FEFF 		bl	CPU_SR_Restore
 378:C:\Micrium\Software\uCOS-III\Source\os_sem.c ****        *p_err = OS_ERR_PEND_WOULD_BLOCK;
 473              		.loc 1 378 0
ARM GAS  C:\Users\daniel01\AppData\Local\Temp\ccip0sTe.s 			page 16


 474 00c6 3B6C     		ldr	r3, [r7, #64]
 475 00c8 46F2B012 		movw	r2, #25008
 476 00cc 1A80     		strh	r2, [r3, #0]	@ movhi
 379:C:\Micrium\Software\uCOS-III\Source\os_sem.c ****         return (ctr);
 477              		.loc 1 379 0
 478 00ce 3B6B     		ldr	r3, [r7, #48]
 479 00d0 85E0     		b	.L24
 480              	.L32:
 380:C:\Micrium\Software\uCOS-III\Source\os_sem.c ****     } else {                                                /* Yes                                 
 381:C:\Micrium\Software\uCOS-III\Source\os_sem.c ****         if (OSSchedLockNestingCtr > (OS_NESTING_CTR)0) {    /* Can't pend when the scheduler is loc
 481              		.loc 1 381 0
 482 00d2 40F20003 		movw	r3, #:lower16:OSSchedLockNestingCtr
 483 00d6 C0F20003 		movt	r3, #:upper16:OSSchedLockNestingCtr
 484 00da 1B78     		ldrb	r3, [r3, #0]	@ zero_extendqisi2
 485 00dc 002B     		cmp	r3, #0
 486 00de 09D0     		beq	.L33
 382:C:\Micrium\Software\uCOS-III\Source\os_sem.c ****             CPU_CRITICAL_EXIT();
 487              		.loc 1 382 0
 488 00e0 786B     		ldr	r0, [r7, #52]
 489 00e2 FFF7FEFF 		bl	CPU_SR_Restore
 383:C:\Micrium\Software\uCOS-III\Source\os_sem.c ****            *p_err = OS_ERR_SCHED_LOCKED;
 490              		.loc 1 383 0
 491 00e6 3B6C     		ldr	r3, [r7, #64]
 492 00e8 46F66352 		movw	r2, #28003
 493 00ec 1A80     		strh	r2, [r3, #0]	@ movhi
 384:C:\Micrium\Software\uCOS-III\Source\os_sem.c ****             return ((OS_SEM_CTR)0);
 494              		.loc 1 384 0
 495 00ee 4FF00003 		mov	r3, #0
 496 00f2 74E0     		b	.L24
 497              	.L33:
 385:C:\Micrium\Software\uCOS-III\Source\os_sem.c ****         }
 386:C:\Micrium\Software\uCOS-III\Source\os_sem.c ****     }
 387:C:\Micrium\Software\uCOS-III\Source\os_sem.c ****                                                             /* Lock the scheduler/re-enable interru
 388:C:\Micrium\Software\uCOS-III\Source\os_sem.c ****     OS_CRITICAL_ENTER_CPU_EXIT();
 389:C:\Micrium\Software\uCOS-III\Source\os_sem.c ****     OS_Pend(&pend_data,                                     /* Block task pending on Semaphore     
 498              		.loc 1 389 0
 499 00f4 FB68     		ldr	r3, [r7, #12]
 500 00f6 07F11002 		add	r2, r7, #16
 501 00fa 1046     		mov	r0, r2
 502 00fc 1946     		mov	r1, r3
 503 00fe 4FF00602 		mov	r2, #6
 504 0102 BB68     		ldr	r3, [r7, #8]
 505 0104 FFF7FEFF 		bl	OS_Pend
 390:C:\Micrium\Software\uCOS-III\Source\os_sem.c ****             (OS_PEND_OBJ *)((void *)p_sem),
 391:C:\Micrium\Software\uCOS-III\Source\os_sem.c ****             OS_TASK_PEND_ON_SEM,
 392:C:\Micrium\Software\uCOS-III\Source\os_sem.c ****             timeout);
 393:C:\Micrium\Software\uCOS-III\Source\os_sem.c **** 
 394:C:\Micrium\Software\uCOS-III\Source\os_sem.c ****     OS_CRITICAL_EXIT_NO_SCHED();
 506              		.loc 1 394 0
 507 0108 786B     		ldr	r0, [r7, #52]
 508 010a FFF7FEFF 		bl	CPU_SR_Restore
 395:C:\Micrium\Software\uCOS-III\Source\os_sem.c **** 
 396:C:\Micrium\Software\uCOS-III\Source\os_sem.c ****     OSSched();                                              /* Find the next highest priority task 
 509              		.loc 1 396 0
 510 010e FFF7FEFF 		bl	OSSched
 397:C:\Micrium\Software\uCOS-III\Source\os_sem.c **** 
 398:C:\Micrium\Software\uCOS-III\Source\os_sem.c ****     CPU_CRITICAL_ENTER();
ARM GAS  C:\Users\daniel01\AppData\Local\Temp\ccip0sTe.s 			page 17


 511              		.loc 1 398 0
 512 0112 FFF7FEFF 		bl	CPU_SR_Save
 513 0116 0346     		mov	r3, r0
 514 0118 7B63     		str	r3, [r7, #52]
 399:C:\Micrium\Software\uCOS-III\Source\os_sem.c ****     switch (OSTCBCurPtr->PendStatus) {
 515              		.loc 1 399 0
 516 011a 40F20003 		movw	r3, #:lower16:OSTCBCurPtr
 517 011e C0F20003 		movt	r3, #:upper16:OSTCBCurPtr
 518 0122 1B68     		ldr	r3, [r3, #0]
 519 0124 93F83530 		ldrb	r3, [r3, #53]	@ zero_extendqisi2
 520 0128 032B     		cmp	r3, #3
 521 012a 47D8     		bhi	.L34
 522 012c 01A2     		adr	r2, .L39
 523 012e 52F823F0 		ldr	pc, [r2, r3, lsl #2]
 524 0132 00BF     		.align	2
 525              	.L39:
 526 0134 45010000 		.word	.L35+1
 527 0138 65010000 		.word	.L36+1
 528 013c 9D010000 		.word	.L37+1
 529 0140 85010000 		.word	.L38+1
 530              	.L35:
 400:C:\Micrium\Software\uCOS-III\Source\os_sem.c ****         case OS_STATUS_PEND_OK:                             /* We got the semaphore                
 401:C:\Micrium\Software\uCOS-III\Source\os_sem.c ****              if (p_ts != (CPU_TS *)0) {
 531              		.loc 1 401 0
 532 0144 3B68     		ldr	r3, [r7, #0]
 533 0146 002B     		cmp	r3, #0
 534 0148 07D0     		beq	.L40
 402:C:\Micrium\Software\uCOS-III\Source\os_sem.c ****                 *p_ts  =  OSTCBCurPtr->TS;
 535              		.loc 1 402 0
 536 014a 40F20003 		movw	r3, #:lower16:OSTCBCurPtr
 537 014e C0F20003 		movt	r3, #:upper16:OSTCBCurPtr
 538 0152 1B68     		ldr	r3, [r3, #0]
 539 0154 1A6C     		ldr	r2, [r3, #64]
 540 0156 3B68     		ldr	r3, [r7, #0]
 541 0158 1A60     		str	r2, [r3, #0]
 542              	.L40:
 403:C:\Micrium\Software\uCOS-III\Source\os_sem.c ****              }
 404:C:\Micrium\Software\uCOS-III\Source\os_sem.c ****             *p_err = OS_ERR_NONE;
 543              		.loc 1 404 0
 544 015a 3B6C     		ldr	r3, [r7, #64]
 545 015c 4FF00002 		mov	r2, #0
 546 0160 1A80     		strh	r2, [r3, #0]	@ movhi
 405:C:\Micrium\Software\uCOS-III\Source\os_sem.c ****              break;
 547              		.loc 1 405 0
 548 0162 35E0     		b	.L41
 549              	.L36:
 406:C:\Micrium\Software\uCOS-III\Source\os_sem.c **** 
 407:C:\Micrium\Software\uCOS-III\Source\os_sem.c ****         case OS_STATUS_PEND_ABORT:                          /* Indicate that we aborted            
 408:C:\Micrium\Software\uCOS-III\Source\os_sem.c ****              if (p_ts != (CPU_TS *)0) {
 550              		.loc 1 408 0
 551 0164 3B68     		ldr	r3, [r7, #0]
 552 0166 002B     		cmp	r3, #0
 553 0168 07D0     		beq	.L42
 409:C:\Micrium\Software\uCOS-III\Source\os_sem.c ****                 *p_ts  =  OSTCBCurPtr->TS;
 554              		.loc 1 409 0
 555 016a 40F20003 		movw	r3, #:lower16:OSTCBCurPtr
 556 016e C0F20003 		movt	r3, #:upper16:OSTCBCurPtr
ARM GAS  C:\Users\daniel01\AppData\Local\Temp\ccip0sTe.s 			page 18


 557 0172 1B68     		ldr	r3, [r3, #0]
 558 0174 1A6C     		ldr	r2, [r3, #64]
 559 0176 3B68     		ldr	r3, [r7, #0]
 560 0178 1A60     		str	r2, [r3, #0]
 561              	.L42:
 410:C:\Micrium\Software\uCOS-III\Source\os_sem.c ****              }
 411:C:\Micrium\Software\uCOS-III\Source\os_sem.c ****             *p_err = OS_ERR_PEND_ABORT;
 562              		.loc 1 411 0
 563 017a 3B6C     		ldr	r3, [r7, #64]
 564 017c 46F2A912 		movw	r2, #25001
 565 0180 1A80     		strh	r2, [r3, #0]	@ movhi
 412:C:\Micrium\Software\uCOS-III\Source\os_sem.c ****              break;
 566              		.loc 1 412 0
 567 0182 25E0     		b	.L41
 568              	.L38:
 413:C:\Micrium\Software\uCOS-III\Source\os_sem.c **** 
 414:C:\Micrium\Software\uCOS-III\Source\os_sem.c ****         case OS_STATUS_PEND_TIMEOUT:                        /* Indicate that we didn't get semaphor
 415:C:\Micrium\Software\uCOS-III\Source\os_sem.c ****              if (p_ts != (CPU_TS *)0) {
 569              		.loc 1 415 0
 570 0184 3B68     		ldr	r3, [r7, #0]
 571 0186 002B     		cmp	r3, #0
 572 0188 03D0     		beq	.L43
 416:C:\Micrium\Software\uCOS-III\Source\os_sem.c ****                 *p_ts  = (CPU_TS  )0;
 573              		.loc 1 416 0
 574 018a 3B68     		ldr	r3, [r7, #0]
 575 018c 4FF00002 		mov	r2, #0
 576 0190 1A60     		str	r2, [r3, #0]
 577              	.L43:
 417:C:\Micrium\Software\uCOS-III\Source\os_sem.c ****              }
 418:C:\Micrium\Software\uCOS-III\Source\os_sem.c ****             *p_err = OS_ERR_TIMEOUT;
 578              		.loc 1 418 0
 579 0192 3B6C     		ldr	r3, [r7, #64]
 580 0194 47F2D922 		movw	r2, #29401
 581 0198 1A80     		strh	r2, [r3, #0]	@ movhi
 419:C:\Micrium\Software\uCOS-III\Source\os_sem.c ****              break;
 582              		.loc 1 419 0
 583 019a 19E0     		b	.L41
 584              	.L37:
 420:C:\Micrium\Software\uCOS-III\Source\os_sem.c **** 
 421:C:\Micrium\Software\uCOS-III\Source\os_sem.c ****         case OS_STATUS_PEND_DEL:                            /* Indicate that object pended on has b
 422:C:\Micrium\Software\uCOS-III\Source\os_sem.c ****              if (p_ts != (CPU_TS *)0) {
 585              		.loc 1 422 0
 586 019c 3B68     		ldr	r3, [r7, #0]
 587 019e 002B     		cmp	r3, #0
 588 01a0 07D0     		beq	.L44
 423:C:\Micrium\Software\uCOS-III\Source\os_sem.c ****                 *p_ts  =  OSTCBCurPtr->TS;
 589              		.loc 1 423 0
 590 01a2 40F20003 		movw	r3, #:lower16:OSTCBCurPtr
 591 01a6 C0F20003 		movt	r3, #:upper16:OSTCBCurPtr
 592 01aa 1B68     		ldr	r3, [r3, #0]
 593 01ac 1A6C     		ldr	r2, [r3, #64]
 594 01ae 3B68     		ldr	r3, [r7, #0]
 595 01b0 1A60     		str	r2, [r3, #0]
 596              	.L44:
 424:C:\Micrium\Software\uCOS-III\Source\os_sem.c ****              }
 425:C:\Micrium\Software\uCOS-III\Source\os_sem.c ****             *p_err = OS_ERR_OBJ_DEL;
 597              		.loc 1 425 0
ARM GAS  C:\Users\daniel01\AppData\Local\Temp\ccip0sTe.s 			page 19


 598 01b2 3B6C     		ldr	r3, [r7, #64]
 599 01b4 45F6C252 		movw	r2, #24002
 600 01b8 1A80     		strh	r2, [r3, #0]	@ movhi
 426:C:\Micrium\Software\uCOS-III\Source\os_sem.c ****              break;
 601              		.loc 1 426 0
 602 01ba 09E0     		b	.L41
 603              	.L34:
 427:C:\Micrium\Software\uCOS-III\Source\os_sem.c **** 
 428:C:\Micrium\Software\uCOS-III\Source\os_sem.c ****         default:
 429:C:\Micrium\Software\uCOS-III\Source\os_sem.c ****             *p_err = OS_ERR_STATUS_INVALID;
 604              		.loc 1 429 0
 605 01bc 3B6C     		ldr	r3, [r7, #64]
 606 01be 46F62E62 		movw	r2, #28206
 607 01c2 1A80     		strh	r2, [r3, #0]	@ movhi
 430:C:\Micrium\Software\uCOS-III\Source\os_sem.c ****              CPU_CRITICAL_EXIT();
 608              		.loc 1 430 0
 609 01c4 786B     		ldr	r0, [r7, #52]
 610 01c6 FFF7FEFF 		bl	CPU_SR_Restore
 431:C:\Micrium\Software\uCOS-III\Source\os_sem.c ****              return ((OS_SEM_CTR)0);
 611              		.loc 1 431 0
 612 01ca 4FF00003 		mov	r3, #0
 613 01ce 06E0     		b	.L24
 614              	.L41:
 432:C:\Micrium\Software\uCOS-III\Source\os_sem.c ****     }
 433:C:\Micrium\Software\uCOS-III\Source\os_sem.c ****     ctr = p_sem->Ctr;
 615              		.loc 1 433 0
 616 01d0 FB68     		ldr	r3, [r7, #12]
 617 01d2 1B6A     		ldr	r3, [r3, #32]
 618 01d4 3B63     		str	r3, [r7, #48]
 434:C:\Micrium\Software\uCOS-III\Source\os_sem.c ****     CPU_CRITICAL_EXIT();
 619              		.loc 1 434 0
 620 01d6 786B     		ldr	r0, [r7, #52]
 621 01d8 FFF7FEFF 		bl	CPU_SR_Restore
 435:C:\Micrium\Software\uCOS-III\Source\os_sem.c ****     return (ctr);
 622              		.loc 1 435 0
 623 01dc 3B6B     		ldr	r3, [r7, #48]
 624              	.L24:
 436:C:\Micrium\Software\uCOS-III\Source\os_sem.c **** }
 625              		.loc 1 436 0
 626 01de 1846     		mov	r0, r3
 627 01e0 07F13807 		add	r7, r7, #56
 628 01e4 BD46     		mov	sp, r7
 629 01e6 80BD     		pop	{r7, pc}
 630              		.cfi_endproc
 631              	.LFE2:
 632              		.size	OSSemPend, .-OSSemPend
 633              		.section	.text.OSSemPendAbort,"ax",%progbits
 634              		.align	2
 635              		.global	OSSemPendAbort
 636              		.thumb
 637              		.thumb_func
 638              		.type	OSSemPendAbort, %function
 639              	OSSemPendAbort:
 640              	.LFB3:
 437:C:\Micrium\Software\uCOS-III\Source\os_sem.c **** 
 438:C:\Micrium\Software\uCOS-III\Source\os_sem.c **** /*$PAGE*/
 439:C:\Micrium\Software\uCOS-III\Source\os_sem.c **** /*
ARM GAS  C:\Users\daniel01\AppData\Local\Temp\ccip0sTe.s 			page 20


 440:C:\Micrium\Software\uCOS-III\Source\os_sem.c **** ***************************************************************************************************
 441:C:\Micrium\Software\uCOS-III\Source\os_sem.c **** *                                             ABORT WAITING ON A SEMAPHORE
 442:C:\Micrium\Software\uCOS-III\Source\os_sem.c **** *
 443:C:\Micrium\Software\uCOS-III\Source\os_sem.c **** * Description: This function aborts & readies any tasks currently waiting on a semaphore.  This fun
 444:C:\Micrium\Software\uCOS-III\Source\os_sem.c **** *              to fault-abort the wait on the semaphore, rather than to normally signal the semapho
 445:C:\Micrium\Software\uCOS-III\Source\os_sem.c **** *
 446:C:\Micrium\Software\uCOS-III\Source\os_sem.c **** * Arguments  : p_sem     is a pointer to the semaphore
 447:C:\Micrium\Software\uCOS-III\Source\os_sem.c **** *
 448:C:\Micrium\Software\uCOS-III\Source\os_sem.c **** *              opt       determines the type of ABORT performed:
 449:C:\Micrium\Software\uCOS-III\Source\os_sem.c **** *
 450:C:\Micrium\Software\uCOS-III\Source\os_sem.c **** *                            OS_OPT_PEND_ABORT_1          ABORT wait for a single task (HPT) waitin
 451:C:\Micrium\Software\uCOS-III\Source\os_sem.c **** *                            OS_OPT_PEND_ABORT_ALL        ABORT wait for ALL tasks that are  waitin
 452:C:\Micrium\Software\uCOS-III\Source\os_sem.c **** *                            OS_OPT_POST_NO_SCHED         Do not call the scheduler
 453:C:\Micrium\Software\uCOS-III\Source\os_sem.c **** *
 454:C:\Micrium\Software\uCOS-III\Source\os_sem.c **** *              p_err     is a pointer to a variable that will contain an error code returned by thi
 455:C:\Micrium\Software\uCOS-III\Source\os_sem.c **** *
 456:C:\Micrium\Software\uCOS-III\Source\os_sem.c **** *                            OS_ERR_NONE                  At least one task waiting on the semaphor
 457:C:\Micrium\Software\uCOS-III\Source\os_sem.c **** *                                                         informed of the aborted wait; check retur
 458:C:\Micrium\Software\uCOS-III\Source\os_sem.c **** *                                                         number of tasks whose wait on the semapho
 459:C:\Micrium\Software\uCOS-III\Source\os_sem.c **** *                            OS_ERR_OBJ_PTR_NULL          If 'p_sem' is a NULL pointer.
 460:C:\Micrium\Software\uCOS-III\Source\os_sem.c **** *                            OS_ERR_OBJ_TYPE              If 'p_sem' is not pointing at a semaphore
 461:C:\Micrium\Software\uCOS-III\Source\os_sem.c **** *                            OS_ERR_OPT_INVALID           If you specified an invalid option
 462:C:\Micrium\Software\uCOS-III\Source\os_sem.c **** *                            OS_ERR_PEND_ABORT_ISR        If you called this function from an ISR
 463:C:\Micrium\Software\uCOS-III\Source\os_sem.c **** *                            OS_ERR_PEND_ABORT_NONE       No task were pending
 464:C:\Micrium\Software\uCOS-III\Source\os_sem.c **** *
 465:C:\Micrium\Software\uCOS-III\Source\os_sem.c **** * Returns    : == 0          if no tasks were waiting on the semaphore, or upon error.
 466:C:\Micrium\Software\uCOS-III\Source\os_sem.c **** *              >  0          if one or more tasks waiting on the semaphore are now readied and info
 467:C:\Micrium\Software\uCOS-III\Source\os_sem.c **** ***************************************************************************************************
 468:C:\Micrium\Software\uCOS-III\Source\os_sem.c **** */
 469:C:\Micrium\Software\uCOS-III\Source\os_sem.c **** 
 470:C:\Micrium\Software\uCOS-III\Source\os_sem.c **** #if OS_CFG_SEM_PEND_ABORT_EN > 0u
 471:C:\Micrium\Software\uCOS-III\Source\os_sem.c **** OS_OBJ_QTY  OSSemPendAbort (OS_SEM  *p_sem,
 472:C:\Micrium\Software\uCOS-III\Source\os_sem.c ****                             OS_OPT   opt,
 473:C:\Micrium\Software\uCOS-III\Source\os_sem.c ****                             OS_ERR  *p_err)
 474:C:\Micrium\Software\uCOS-III\Source\os_sem.c **** {
 641              		.loc 1 474 0
 642              		.cfi_startproc
 643              		@ args = 0, pretend = 0, frame = 40
 644              		@ frame_needed = 1, uses_anonymous_args = 0
 645 0000 80B5     		push	{r7, lr}
 646              	.LCFI9:
 647              		.cfi_def_cfa_offset 8
 648 0002 8AB0     		sub	sp, sp, #40
 649              	.LCFI10:
 650              		.cfi_def_cfa_offset 48
 651 0004 00AF     		add	r7, sp, #0
 652              		.cfi_offset 14, -4
 653              		.cfi_offset 7, -8
 654              	.LCFI11:
 655              		.cfi_def_cfa_register 7
 656 0006 F860     		str	r0, [r7, #12]
 657 0008 0B46     		mov	r3, r1
 658 000a 7A60     		str	r2, [r7, #4]
 659 000c 7B81     		strh	r3, [r7, #10]	@ movhi
 475:C:\Micrium\Software\uCOS-III\Source\os_sem.c ****     OS_PEND_LIST  *p_pend_list;
 476:C:\Micrium\Software\uCOS-III\Source\os_sem.c ****     OS_TCB        *p_tcb;
 477:C:\Micrium\Software\uCOS-III\Source\os_sem.c ****     CPU_TS         ts;
ARM GAS  C:\Users\daniel01\AppData\Local\Temp\ccip0sTe.s 			page 21


 478:C:\Micrium\Software\uCOS-III\Source\os_sem.c ****     OS_OBJ_QTY     nbr_tasks;
 479:C:\Micrium\Software\uCOS-III\Source\os_sem.c ****     CPU_SR_ALLOC();
 660              		.loc 1 479 0
 661 000e 4FF00003 		mov	r3, #0
 662 0012 7B62     		str	r3, [r7, #36]
 480:C:\Micrium\Software\uCOS-III\Source\os_sem.c **** 
 481:C:\Micrium\Software\uCOS-III\Source\os_sem.c **** 
 482:C:\Micrium\Software\uCOS-III\Source\os_sem.c **** 
 483:C:\Micrium\Software\uCOS-III\Source\os_sem.c **** #ifdef OS_SAFETY_CRITICAL
 484:C:\Micrium\Software\uCOS-III\Source\os_sem.c ****     if (p_err == (OS_ERR *)0) {
 485:C:\Micrium\Software\uCOS-III\Source\os_sem.c ****         OS_SAFETY_CRITICAL_EXCEPTION();
 486:C:\Micrium\Software\uCOS-III\Source\os_sem.c ****         return ((OS_OBJ_QTY)0u);
 487:C:\Micrium\Software\uCOS-III\Source\os_sem.c ****     }
 488:C:\Micrium\Software\uCOS-III\Source\os_sem.c **** #endif
 489:C:\Micrium\Software\uCOS-III\Source\os_sem.c **** 
 490:C:\Micrium\Software\uCOS-III\Source\os_sem.c **** #if OS_CFG_CALLED_FROM_ISR_CHK_EN > 0u
 491:C:\Micrium\Software\uCOS-III\Source\os_sem.c ****     if (OSIntNestingCtr > (OS_NESTING_CTR)0u) {             /* Not allowed to Pend Abort from an IS
 663              		.loc 1 491 0
 664 0014 40F20003 		movw	r3, #:lower16:OSIntNestingCtr
 665 0018 C0F20003 		movt	r3, #:upper16:OSIntNestingCtr
 666 001c 1B78     		ldrb	r3, [r3, #0]	@ zero_extendqisi2
 667 001e 002B     		cmp	r3, #0
 668 0020 06D0     		beq	.L48
 492:C:\Micrium\Software\uCOS-III\Source\os_sem.c ****        *p_err =  OS_ERR_PEND_ABORT_ISR;
 669              		.loc 1 492 0
 670 0022 7B68     		ldr	r3, [r7, #4]
 671 0024 46F2AA12 		movw	r2, #25002
 672 0028 1A80     		strh	r2, [r3, #0]	@ movhi
 493:C:\Micrium\Software\uCOS-III\Source\os_sem.c ****         return ((OS_OBJ_QTY)0u);
 673              		.loc 1 493 0
 674 002a 4FF00003 		mov	r3, #0
 675 002e 65E0     		b	.L49
 676              	.L48:
 494:C:\Micrium\Software\uCOS-III\Source\os_sem.c ****     }
 495:C:\Micrium\Software\uCOS-III\Source\os_sem.c **** #endif
 496:C:\Micrium\Software\uCOS-III\Source\os_sem.c **** 
 497:C:\Micrium\Software\uCOS-III\Source\os_sem.c **** #if OS_CFG_ARG_CHK_EN > 0u
 498:C:\Micrium\Software\uCOS-III\Source\os_sem.c ****     if (p_sem == (OS_SEM *)0) {                             /* Validate 'p_sem'                    
 677              		.loc 1 498 0
 678 0030 FB68     		ldr	r3, [r7, #12]
 679 0032 002B     		cmp	r3, #0
 680 0034 06D1     		bne	.L50
 499:C:\Micrium\Software\uCOS-III\Source\os_sem.c ****        *p_err =  OS_ERR_OBJ_PTR_NULL;
 681              		.loc 1 499 0
 682 0036 7B68     		ldr	r3, [r7, #4]
 683 0038 45F6C352 		movw	r2, #24003
 684 003c 1A80     		strh	r2, [r3, #0]	@ movhi
 500:C:\Micrium\Software\uCOS-III\Source\os_sem.c ****         return ((OS_OBJ_QTY)0u);
 685              		.loc 1 500 0
 686 003e 4FF00003 		mov	r3, #0
 687 0042 5BE0     		b	.L49
 688              	.L50:
 501:C:\Micrium\Software\uCOS-III\Source\os_sem.c ****     }
 502:C:\Micrium\Software\uCOS-III\Source\os_sem.c ****     switch (opt) {                                          /* Validate 'opt'                      
 689              		.loc 1 502 0
 690 0044 7B89     		ldrh	r3, [r7, #10]
 691 0046 B3F5807F 		cmp	r3, #256
ARM GAS  C:\Users\daniel01\AppData\Local\Temp\ccip0sTe.s 			page 22


 692 004a 0BD0     		beq	.L52
 693 004c B3F5807F 		cmp	r3, #256
 694 0050 02DC     		bgt	.L53
 695 0052 002B     		cmp	r3, #0
 696 0054 06D0     		beq	.L52
 697 0056 12E0     		b	.L51
 698              	.L53:
 699 0058 B3F5004F 		cmp	r3, #32768
 700 005c 02D0     		beq	.L52
 701 005e B3F5014F 		cmp	r3, #33024
 702 0062 0CD1     		bne	.L51
 703              	.L52:
 503:C:\Micrium\Software\uCOS-III\Source\os_sem.c ****         case OS_OPT_PEND_ABORT_1:
 504:C:\Micrium\Software\uCOS-III\Source\os_sem.c ****         case OS_OPT_PEND_ABORT_ALL:
 505:C:\Micrium\Software\uCOS-III\Source\os_sem.c ****         case OS_OPT_PEND_ABORT_1   | OS_OPT_POST_NO_SCHED:
 506:C:\Micrium\Software\uCOS-III\Source\os_sem.c ****         case OS_OPT_PEND_ABORT_ALL | OS_OPT_POST_NO_SCHED:
 507:C:\Micrium\Software\uCOS-III\Source\os_sem.c ****              break;
 508:C:\Micrium\Software\uCOS-III\Source\os_sem.c **** 
 509:C:\Micrium\Software\uCOS-III\Source\os_sem.c ****         default:
 510:C:\Micrium\Software\uCOS-III\Source\os_sem.c ****             *p_err =  OS_ERR_OPT_INVALID;
 511:C:\Micrium\Software\uCOS-III\Source\os_sem.c ****              return ((OS_OBJ_QTY)0u);
 512:C:\Micrium\Software\uCOS-III\Source\os_sem.c ****     }
 513:C:\Micrium\Software\uCOS-III\Source\os_sem.c **** #endif
 514:C:\Micrium\Software\uCOS-III\Source\os_sem.c **** 
 515:C:\Micrium\Software\uCOS-III\Source\os_sem.c **** #if OS_CFG_OBJ_TYPE_CHK_EN > 0u
 516:C:\Micrium\Software\uCOS-III\Source\os_sem.c ****     if (p_sem->Type != OS_OBJ_TYPE_SEM) {                   /* Make sure semaphore was created     
 517:C:\Micrium\Software\uCOS-III\Source\os_sem.c ****        *p_err =  OS_ERR_OBJ_TYPE;
 518:C:\Micrium\Software\uCOS-III\Source\os_sem.c ****         return ((OS_OBJ_QTY)0u);
 519:C:\Micrium\Software\uCOS-III\Source\os_sem.c ****     }
 520:C:\Micrium\Software\uCOS-III\Source\os_sem.c **** #endif
 521:C:\Micrium\Software\uCOS-III\Source\os_sem.c **** 
 522:C:\Micrium\Software\uCOS-III\Source\os_sem.c ****     CPU_CRITICAL_ENTER();
 704              		.loc 1 522 0
 705 0064 FFF7FEFF 		bl	CPU_SR_Save
 706 0068 0346     		mov	r3, r0
 707 006a 7B62     		str	r3, [r7, #36]
 523:C:\Micrium\Software\uCOS-III\Source\os_sem.c ****     p_pend_list = &p_sem->PendList;
 708              		.loc 1 523 0
 709 006c FB68     		ldr	r3, [r7, #12]
 710 006e 03F10803 		add	r3, r3, #8
 711 0072 7B61     		str	r3, [r7, #20]
 524:C:\Micrium\Software\uCOS-III\Source\os_sem.c ****     if (p_pend_list->NbrEntries == (OS_OBJ_QTY)0u) {        /* Any task waiting on semaphore?      
 712              		.loc 1 524 0
 713 0074 7B69     		ldr	r3, [r7, #20]
 714 0076 1B89     		ldrh	r3, [r3, #8]
 715 0078 002B     		cmp	r3, #0
 716 007a 07D0     		beq	.L54
 717 007c 10E0     		b	.L61
 718              	.L51:
 719              		.loc 1 510 0
 720 007e 7B68     		ldr	r3, [r7, #4]
 721 0080 45F62562 		movw	r2, #24101
 722 0084 1A80     		strh	r2, [r3, #0]	@ movhi
 723              		.loc 1 511 0
 724 0086 4FF00003 		mov	r3, #0
 725 008a 37E0     		b	.L49
 726              	.L54:
ARM GAS  C:\Users\daniel01\AppData\Local\Temp\ccip0sTe.s 			page 23


 525:C:\Micrium\Software\uCOS-III\Source\os_sem.c ****         CPU_CRITICAL_EXIT();                                /* No                                  
 727              		.loc 1 525 0
 728 008c 786A     		ldr	r0, [r7, #36]
 729 008e FFF7FEFF 		bl	CPU_SR_Restore
 526:C:\Micrium\Software\uCOS-III\Source\os_sem.c ****        *p_err =  OS_ERR_PEND_ABORT_NONE;
 730              		.loc 1 526 0
 731 0092 7B68     		ldr	r3, [r7, #4]
 732 0094 46F2AB12 		movw	r2, #25003
 733 0098 1A80     		strh	r2, [r3, #0]	@ movhi
 527:C:\Micrium\Software\uCOS-III\Source\os_sem.c ****         return ((OS_OBJ_QTY)0u);
 734              		.loc 1 527 0
 735 009a 4FF00003 		mov	r3, #0
 736 009e 2DE0     		b	.L49
 737              	.L61:
 528:C:\Micrium\Software\uCOS-III\Source\os_sem.c ****     }
 529:C:\Micrium\Software\uCOS-III\Source\os_sem.c **** 
 530:C:\Micrium\Software\uCOS-III\Source\os_sem.c ****     OS_CRITICAL_ENTER_CPU_EXIT();
 531:C:\Micrium\Software\uCOS-III\Source\os_sem.c ****     nbr_tasks = 0u;
 738              		.loc 1 531 0
 739 00a0 4FF00003 		mov	r3, #0
 740 00a4 7B84     		strh	r3, [r7, #34]	@ movhi
 532:C:\Micrium\Software\uCOS-III\Source\os_sem.c ****     ts        = OS_TS_GET();                                /* Get local time stamp so all tasks ge
 741              		.loc 1 532 0
 742 00a6 FFF7FEFF 		bl	CPU_TS_TmrRd
 743 00aa 0346     		mov	r3, r0
 744 00ac FB61     		str	r3, [r7, #28]
 533:C:\Micrium\Software\uCOS-III\Source\os_sem.c ****     while (p_pend_list->NbrEntries > (OS_OBJ_QTY)0u) {
 745              		.loc 1 533 0
 746 00ae 11E0     		b	.L56
 747              	.L58:
 534:C:\Micrium\Software\uCOS-III\Source\os_sem.c ****         p_tcb = p_pend_list->HeadPtr->TCBPtr;
 748              		.loc 1 534 0
 749 00b0 7B69     		ldr	r3, [r7, #20]
 750 00b2 1B68     		ldr	r3, [r3, #0]
 751 00b4 9B68     		ldr	r3, [r3, #8]
 752 00b6 BB61     		str	r3, [r7, #24]
 535:C:\Micrium\Software\uCOS-III\Source\os_sem.c ****         OS_PendAbort((OS_PEND_OBJ *)((void *)p_sem),
 753              		.loc 1 535 0
 754 00b8 FB68     		ldr	r3, [r7, #12]
 755 00ba 1846     		mov	r0, r3
 756 00bc B969     		ldr	r1, [r7, #24]
 757 00be FA69     		ldr	r2, [r7, #28]
 758 00c0 FFF7FEFF 		bl	OS_PendAbort
 536:C:\Micrium\Software\uCOS-III\Source\os_sem.c ****                      p_tcb,
 537:C:\Micrium\Software\uCOS-III\Source\os_sem.c ****                      ts);
 538:C:\Micrium\Software\uCOS-III\Source\os_sem.c ****         nbr_tasks++;
 759              		.loc 1 538 0
 760 00c4 7B8C     		ldrh	r3, [r7, #34]	@ movhi
 761 00c6 03F10103 		add	r3, r3, #1
 762 00ca 7B84     		strh	r3, [r7, #34]	@ movhi
 539:C:\Micrium\Software\uCOS-III\Source\os_sem.c ****         if (opt != OS_OPT_PEND_ABORT_ALL) {                 /* Pend abort all tasks waiting?       
 763              		.loc 1 539 0
 764 00cc 7B89     		ldrh	r3, [r7, #10]
 765 00ce B3F5807F 		cmp	r3, #256
 766 00d2 04D1     		bne	.L62
 767              	.L56:
 768              		.loc 1 533 0
ARM GAS  C:\Users\daniel01\AppData\Local\Temp\ccip0sTe.s 			page 24


 769 00d4 7B69     		ldr	r3, [r7, #20]
 770 00d6 1B89     		ldrh	r3, [r3, #8]
 771 00d8 002B     		cmp	r3, #0
 772 00da E9D1     		bne	.L58
 773 00dc 00E0     		b	.L57
 774              	.L62:
 540:C:\Micrium\Software\uCOS-III\Source\os_sem.c ****             break;                                          /* No                                  
 775              		.loc 1 540 0
 776 00de 00BF     		nop
 777              	.L57:
 541:C:\Micrium\Software\uCOS-III\Source\os_sem.c ****         }
 542:C:\Micrium\Software\uCOS-III\Source\os_sem.c ****     }
 543:C:\Micrium\Software\uCOS-III\Source\os_sem.c ****     OS_CRITICAL_EXIT_NO_SCHED();
 778              		.loc 1 543 0
 779 00e0 786A     		ldr	r0, [r7, #36]
 780 00e2 FFF7FEFF 		bl	CPU_SR_Restore
 544:C:\Micrium\Software\uCOS-III\Source\os_sem.c **** 
 545:C:\Micrium\Software\uCOS-III\Source\os_sem.c ****     if ((opt & OS_OPT_POST_NO_SCHED) == (OS_OPT)0u) {
 781              		.loc 1 545 0
 782 00e6 7B89     		ldrh	r3, [r7, #10]
 783 00e8 1BB2     		sxth	r3, r3
 784 00ea 002B     		cmp	r3, #0
 785 00ec 01DB     		blt	.L59
 546:C:\Micrium\Software\uCOS-III\Source\os_sem.c ****         OSSched();                                          /* Run the scheduler                   
 786              		.loc 1 546 0
 787 00ee FFF7FEFF 		bl	OSSched
 788              	.L59:
 547:C:\Micrium\Software\uCOS-III\Source\os_sem.c ****     }
 548:C:\Micrium\Software\uCOS-III\Source\os_sem.c **** 
 549:C:\Micrium\Software\uCOS-III\Source\os_sem.c ****    *p_err = OS_ERR_NONE;
 789              		.loc 1 549 0
 790 00f2 7B68     		ldr	r3, [r7, #4]
 791 00f4 4FF00002 		mov	r2, #0
 792 00f8 1A80     		strh	r2, [r3, #0]	@ movhi
 550:C:\Micrium\Software\uCOS-III\Source\os_sem.c ****     return (nbr_tasks);
 793              		.loc 1 550 0
 794 00fa 7B8C     		ldrh	r3, [r7, #34]
 795              	.L49:
 551:C:\Micrium\Software\uCOS-III\Source\os_sem.c **** }
 796              		.loc 1 551 0
 797 00fc 1846     		mov	r0, r3
 798 00fe 07F12807 		add	r7, r7, #40
 799 0102 BD46     		mov	sp, r7
 800 0104 80BD     		pop	{r7, pc}
 801              		.cfi_endproc
 802              	.LFE3:
 803              		.size	OSSemPendAbort, .-OSSemPendAbort
 804 0106 00BF     		.section	.text.OSSemPost,"ax",%progbits
 805              		.align	2
 806              		.global	OSSemPost
 807              		.thumb
 808              		.thumb_func
 809              		.type	OSSemPost, %function
 810              	OSSemPost:
 811              	.LFB4:
 552:C:\Micrium\Software\uCOS-III\Source\os_sem.c **** #endif
 553:C:\Micrium\Software\uCOS-III\Source\os_sem.c **** 
ARM GAS  C:\Users\daniel01\AppData\Local\Temp\ccip0sTe.s 			page 25


 554:C:\Micrium\Software\uCOS-III\Source\os_sem.c **** /*$PAGE*/
 555:C:\Micrium\Software\uCOS-III\Source\os_sem.c **** /*
 556:C:\Micrium\Software\uCOS-III\Source\os_sem.c **** ***************************************************************************************************
 557:C:\Micrium\Software\uCOS-III\Source\os_sem.c **** *                                                 POST TO A SEMAPHORE
 558:C:\Micrium\Software\uCOS-III\Source\os_sem.c **** *
 559:C:\Micrium\Software\uCOS-III\Source\os_sem.c **** * Description: This function signals a semaphore
 560:C:\Micrium\Software\uCOS-III\Source\os_sem.c **** *
 561:C:\Micrium\Software\uCOS-III\Source\os_sem.c **** * Arguments  : p_sem    is a pointer to the semaphore
 562:C:\Micrium\Software\uCOS-III\Source\os_sem.c **** *
 563:C:\Micrium\Software\uCOS-III\Source\os_sem.c **** *              opt      determines the type of POST performed:
 564:C:\Micrium\Software\uCOS-III\Source\os_sem.c **** *
 565:C:\Micrium\Software\uCOS-III\Source\os_sem.c **** *                           OS_OPT_POST_1            POST and ready only the highest priority task 
 566:C:\Micrium\Software\uCOS-III\Source\os_sem.c **** *                                                    (if tasks are waiting).
 567:C:\Micrium\Software\uCOS-III\Source\os_sem.c **** *                           OS_OPT_POST_ALL          POST to ALL tasks that are waiting on the sema
 568:C:\Micrium\Software\uCOS-III\Source\os_sem.c **** *
 569:C:\Micrium\Software\uCOS-III\Source\os_sem.c **** *                           OS_OPT_POST_NO_SCHED     Do not call the scheduler
 570:C:\Micrium\Software\uCOS-III\Source\os_sem.c **** *
 571:C:\Micrium\Software\uCOS-III\Source\os_sem.c **** *                           Note(s): 1) OS_OPT_POST_NO_SCHED can be added with one of the other opt
 572:C:\Micrium\Software\uCOS-III\Source\os_sem.c **** *
 573:C:\Micrium\Software\uCOS-III\Source\os_sem.c **** *              p_err    is a pointer to a variable that will contain an error code returned by this
 574:C:\Micrium\Software\uCOS-III\Source\os_sem.c **** *
 575:C:\Micrium\Software\uCOS-III\Source\os_sem.c **** *                           OS_ERR_NONE          The call was successful and the semaphore was sign
 576:C:\Micrium\Software\uCOS-III\Source\os_sem.c **** *                           OS_ERR_OBJ_PTR_NULL  If 'p_sem' is a NULL pointer.
 577:C:\Micrium\Software\uCOS-III\Source\os_sem.c **** *                           OS_ERR_OBJ_TYPE      If 'p_sem' is not pointing at a semaphore
 578:C:\Micrium\Software\uCOS-III\Source\os_sem.c **** *                           OS_ERR_SEM_OVF       If the post would cause the semaphore count to ove
 579:C:\Micrium\Software\uCOS-III\Source\os_sem.c **** *
 580:C:\Micrium\Software\uCOS-III\Source\os_sem.c **** * Returns    : The current value of the semaphore counter or 0 upon error.
 581:C:\Micrium\Software\uCOS-III\Source\os_sem.c **** ***************************************************************************************************
 582:C:\Micrium\Software\uCOS-III\Source\os_sem.c **** */
 583:C:\Micrium\Software\uCOS-III\Source\os_sem.c **** 
 584:C:\Micrium\Software\uCOS-III\Source\os_sem.c **** OS_SEM_CTR  OSSemPost (OS_SEM  *p_sem,
 585:C:\Micrium\Software\uCOS-III\Source\os_sem.c ****                        OS_OPT   opt,
 586:C:\Micrium\Software\uCOS-III\Source\os_sem.c ****                        OS_ERR  *p_err)
 587:C:\Micrium\Software\uCOS-III\Source\os_sem.c **** {
 812              		.loc 1 587 0
 813              		.cfi_startproc
 814              		@ args = 0, pretend = 0, frame = 24
 815              		@ frame_needed = 1, uses_anonymous_args = 0
 816 0000 80B5     		push	{r7, lr}
 817              	.LCFI12:
 818              		.cfi_def_cfa_offset 8
 819 0002 86B0     		sub	sp, sp, #24
 820              	.LCFI13:
 821              		.cfi_def_cfa_offset 32
 822 0004 00AF     		add	r7, sp, #0
 823              		.cfi_offset 14, -4
 824              		.cfi_offset 7, -8
 825              	.LCFI14:
 826              		.cfi_def_cfa_register 7
 827 0006 F860     		str	r0, [r7, #12]
 828 0008 0B46     		mov	r3, r1
 829 000a 7A60     		str	r2, [r7, #4]
 830 000c 7B81     		strh	r3, [r7, #10]	@ movhi
 588:C:\Micrium\Software\uCOS-III\Source\os_sem.c ****     OS_SEM_CTR  ctr;
 589:C:\Micrium\Software\uCOS-III\Source\os_sem.c ****     CPU_TS      ts;
 590:C:\Micrium\Software\uCOS-III\Source\os_sem.c **** 
 591:C:\Micrium\Software\uCOS-III\Source\os_sem.c **** 
ARM GAS  C:\Users\daniel01\AppData\Local\Temp\ccip0sTe.s 			page 26


 592:C:\Micrium\Software\uCOS-III\Source\os_sem.c **** 
 593:C:\Micrium\Software\uCOS-III\Source\os_sem.c **** #ifdef OS_SAFETY_CRITICAL
 594:C:\Micrium\Software\uCOS-III\Source\os_sem.c ****     if (p_err == (OS_ERR *)0) {
 595:C:\Micrium\Software\uCOS-III\Source\os_sem.c ****         OS_SAFETY_CRITICAL_EXCEPTION();
 596:C:\Micrium\Software\uCOS-III\Source\os_sem.c ****         return ((OS_SEM_CTR)0);
 597:C:\Micrium\Software\uCOS-III\Source\os_sem.c ****     }
 598:C:\Micrium\Software\uCOS-III\Source\os_sem.c **** #endif
 599:C:\Micrium\Software\uCOS-III\Source\os_sem.c **** 
 600:C:\Micrium\Software\uCOS-III\Source\os_sem.c **** #if OS_CFG_ARG_CHK_EN > 0u
 601:C:\Micrium\Software\uCOS-III\Source\os_sem.c ****     if (p_sem == (OS_SEM *)0) {                             /* Validate 'p_sem'                    
 831              		.loc 1 601 0
 832 000e FB68     		ldr	r3, [r7, #12]
 833 0010 002B     		cmp	r3, #0
 834 0012 06D1     		bne	.L64
 602:C:\Micrium\Software\uCOS-III\Source\os_sem.c ****        *p_err  = OS_ERR_OBJ_PTR_NULL;
 835              		.loc 1 602 0
 836 0014 7B68     		ldr	r3, [r7, #4]
 837 0016 45F6C352 		movw	r2, #24003
 838 001a 1A80     		strh	r2, [r3, #0]	@ movhi
 603:C:\Micrium\Software\uCOS-III\Source\os_sem.c ****         return ((OS_SEM_CTR)0);
 839              		.loc 1 603 0
 840 001c 4FF00003 		mov	r3, #0
 841 0020 24E0     		b	.L65
 842              	.L64:
 604:C:\Micrium\Software\uCOS-III\Source\os_sem.c ****     }
 605:C:\Micrium\Software\uCOS-III\Source\os_sem.c ****     switch (opt) {                                          /* Validate 'opt'                      
 843              		.loc 1 605 0
 844 0022 7B89     		ldrh	r3, [r7, #10]
 845 0024 B3F5007F 		cmp	r3, #512
 846 0028 0BD0     		beq	.L67
 847 002a B3F5007F 		cmp	r3, #512
 848 002e 02DC     		bgt	.L68
 849 0030 002B     		cmp	r3, #0
 850 0032 06D0     		beq	.L67
 851 0034 14E0     		b	.L66
 852              	.L68:
 853 0036 B3F5004F 		cmp	r3, #32768
 854 003a 02D0     		beq	.L67
 855 003c B3F5024F 		cmp	r3, #33280
 856 0040 0ED1     		bne	.L66
 857              	.L67:
 606:C:\Micrium\Software\uCOS-III\Source\os_sem.c ****         case OS_OPT_POST_1:
 607:C:\Micrium\Software\uCOS-III\Source\os_sem.c ****         case OS_OPT_POST_ALL:
 608:C:\Micrium\Software\uCOS-III\Source\os_sem.c ****         case OS_OPT_POST_1   | OS_OPT_POST_NO_SCHED:
 609:C:\Micrium\Software\uCOS-III\Source\os_sem.c ****         case OS_OPT_POST_ALL | OS_OPT_POST_NO_SCHED:
 610:C:\Micrium\Software\uCOS-III\Source\os_sem.c ****              break;
 611:C:\Micrium\Software\uCOS-III\Source\os_sem.c **** 
 612:C:\Micrium\Software\uCOS-III\Source\os_sem.c ****         default:
 613:C:\Micrium\Software\uCOS-III\Source\os_sem.c ****             *p_err =  OS_ERR_OPT_INVALID;
 614:C:\Micrium\Software\uCOS-III\Source\os_sem.c ****              return ((OS_SEM_CTR)0u);
 615:C:\Micrium\Software\uCOS-III\Source\os_sem.c ****     }
 616:C:\Micrium\Software\uCOS-III\Source\os_sem.c **** #endif
 617:C:\Micrium\Software\uCOS-III\Source\os_sem.c **** 
 618:C:\Micrium\Software\uCOS-III\Source\os_sem.c **** #if OS_CFG_OBJ_TYPE_CHK_EN > 0u
 619:C:\Micrium\Software\uCOS-III\Source\os_sem.c ****     if (p_sem->Type != OS_OBJ_TYPE_SEM) {                   /* Make sure semaphore was created     
 620:C:\Micrium\Software\uCOS-III\Source\os_sem.c ****        *p_err = OS_ERR_OBJ_TYPE;
 621:C:\Micrium\Software\uCOS-III\Source\os_sem.c ****         return ((OS_SEM_CTR)0);
ARM GAS  C:\Users\daniel01\AppData\Local\Temp\ccip0sTe.s 			page 27


 622:C:\Micrium\Software\uCOS-III\Source\os_sem.c ****     }
 623:C:\Micrium\Software\uCOS-III\Source\os_sem.c **** #endif
 624:C:\Micrium\Software\uCOS-III\Source\os_sem.c **** 
 625:C:\Micrium\Software\uCOS-III\Source\os_sem.c ****     ts = OS_TS_GET();                                       /* Get timestamp                       
 858              		.loc 1 625 0
 859 0042 FFF7FEFF 		bl	CPU_TS_TmrRd
 860 0046 0346     		mov	r3, r0
 861 0048 7B61     		str	r3, [r7, #20]
 626:C:\Micrium\Software\uCOS-III\Source\os_sem.c **** 
 627:C:\Micrium\Software\uCOS-III\Source\os_sem.c **** #if OS_CFG_ISR_POST_DEFERRED_EN > 0u
 628:C:\Micrium\Software\uCOS-III\Source\os_sem.c ****     if (OSIntNestingCtr > (OS_NESTING_CTR)0) {              /* See if called from an ISR           
 629:C:\Micrium\Software\uCOS-III\Source\os_sem.c ****         OS_IntQPost((OS_OBJ_TYPE)OS_OBJ_TYPE_SEM,           /* Post to ISR queue                   
 630:C:\Micrium\Software\uCOS-III\Source\os_sem.c ****                     (void      *)p_sem,
 631:C:\Micrium\Software\uCOS-III\Source\os_sem.c ****                     (void      *)0,
 632:C:\Micrium\Software\uCOS-III\Source\os_sem.c ****                     (OS_MSG_SIZE)0,
 633:C:\Micrium\Software\uCOS-III\Source\os_sem.c ****                     (OS_FLAGS   )0,
 634:C:\Micrium\Software\uCOS-III\Source\os_sem.c ****                     (OS_OPT     )opt,
 635:C:\Micrium\Software\uCOS-III\Source\os_sem.c ****                     (CPU_TS     )ts,
 636:C:\Micrium\Software\uCOS-III\Source\os_sem.c ****                     (OS_ERR    *)p_err);
 637:C:\Micrium\Software\uCOS-III\Source\os_sem.c ****         return ((OS_SEM_CTR)0);
 638:C:\Micrium\Software\uCOS-III\Source\os_sem.c ****     }
 639:C:\Micrium\Software\uCOS-III\Source\os_sem.c **** #endif
 640:C:\Micrium\Software\uCOS-III\Source\os_sem.c **** 
 641:C:\Micrium\Software\uCOS-III\Source\os_sem.c ****     ctr = OS_SemPost(p_sem,                                 /* Post to semaphore                   
 862              		.loc 1 641 0
 863 004a 7B89     		ldrh	r3, [r7, #10]
 864 004c F868     		ldr	r0, [r7, #12]
 865 004e 1946     		mov	r1, r3
 866 0050 7A69     		ldr	r2, [r7, #20]
 867 0052 7B68     		ldr	r3, [r7, #4]
 868 0054 FFF7FEFF 		bl	OS_SemPost
 869 0058 0346     		mov	r3, r0
 870 005a 3B61     		str	r3, [r7, #16]
 642:C:\Micrium\Software\uCOS-III\Source\os_sem.c ****                      opt,
 643:C:\Micrium\Software\uCOS-III\Source\os_sem.c ****                      ts,
 644:C:\Micrium\Software\uCOS-III\Source\os_sem.c ****                      p_err);
 645:C:\Micrium\Software\uCOS-III\Source\os_sem.c **** 
 646:C:\Micrium\Software\uCOS-III\Source\os_sem.c ****     return (ctr);
 871              		.loc 1 646 0
 872 005c 3B69     		ldr	r3, [r7, #16]
 873 005e 05E0     		b	.L65
 874              	.L66:
 875              		.loc 1 613 0
 876 0060 7B68     		ldr	r3, [r7, #4]
 877 0062 45F62562 		movw	r2, #24101
 878 0066 1A80     		strh	r2, [r3, #0]	@ movhi
 879              		.loc 1 614 0
 880 0068 4FF00003 		mov	r3, #0
 881              	.L65:
 647:C:\Micrium\Software\uCOS-III\Source\os_sem.c **** }
 882              		.loc 1 647 0
 883 006c 1846     		mov	r0, r3
 884 006e 07F11807 		add	r7, r7, #24
 885 0072 BD46     		mov	sp, r7
 886 0074 80BD     		pop	{r7, pc}
 887              		.cfi_endproc
 888              	.LFE4:
ARM GAS  C:\Users\daniel01\AppData\Local\Temp\ccip0sTe.s 			page 28


 889              		.size	OSSemPost, .-OSSemPost
 890 0076 00BF     		.section	.text.OSSemSet,"ax",%progbits
 891              		.align	2
 892              		.global	OSSemSet
 893              		.thumb
 894              		.thumb_func
 895              		.type	OSSemSet, %function
 896              	OSSemSet:
 897              	.LFB5:
 648:C:\Micrium\Software\uCOS-III\Source\os_sem.c **** 
 649:C:\Micrium\Software\uCOS-III\Source\os_sem.c **** /*$PAGE*/
 650:C:\Micrium\Software\uCOS-III\Source\os_sem.c **** /*
 651:C:\Micrium\Software\uCOS-III\Source\os_sem.c **** ***************************************************************************************************
 652:C:\Micrium\Software\uCOS-III\Source\os_sem.c **** *                                                    SET SEMAPHORE
 653:C:\Micrium\Software\uCOS-III\Source\os_sem.c **** *
 654:C:\Micrium\Software\uCOS-III\Source\os_sem.c **** * Description: This function sets the semaphore count to the value specified as an argument.  Typic
 655:C:\Micrium\Software\uCOS-III\Source\os_sem.c **** *              would be 0 but of course, we can set the semaphore to any value.
 656:C:\Micrium\Software\uCOS-III\Source\os_sem.c **** *
 657:C:\Micrium\Software\uCOS-III\Source\os_sem.c **** *              You would typically use this function when a semaphore is used as a signaling mechan
 658:C:\Micrium\Software\uCOS-III\Source\os_sem.c **** *              and, you want to reset the count value.
 659:C:\Micrium\Software\uCOS-III\Source\os_sem.c **** *
 660:C:\Micrium\Software\uCOS-III\Source\os_sem.c **** * Arguments  : p_sem     is a pointer to the semaphore
 661:C:\Micrium\Software\uCOS-III\Source\os_sem.c **** *
 662:C:\Micrium\Software\uCOS-III\Source\os_sem.c **** *              cnt       is the new value for the semaphore count.  You would pass 0 to reset the s
 663:C:\Micrium\Software\uCOS-III\Source\os_sem.c **** *
 664:C:\Micrium\Software\uCOS-III\Source\os_sem.c **** *              p_err     is a pointer to a variable that will contain an error code returned by thi
 665:C:\Micrium\Software\uCOS-III\Source\os_sem.c **** *
 666:C:\Micrium\Software\uCOS-III\Source\os_sem.c **** *                            OS_ERR_NONE           The call was successful and the semaphore value 
 667:C:\Micrium\Software\uCOS-III\Source\os_sem.c **** *                            OS_ERR_OBJ_PTR_NULL   If 'p_sem' is a NULL pointer.
 668:C:\Micrium\Software\uCOS-III\Source\os_sem.c **** *                            OS_ERR_OBJ_TYPE       If 'p_sem' is not pointing to a semaphore.
 669:C:\Micrium\Software\uCOS-III\Source\os_sem.c **** *                            OS_ERR_TASK_WAITING   If tasks are waiting on the semaphore.
 670:C:\Micrium\Software\uCOS-III\Source\os_sem.c **** *
 671:C:\Micrium\Software\uCOS-III\Source\os_sem.c **** * Returns    : None
 672:C:\Micrium\Software\uCOS-III\Source\os_sem.c **** ***************************************************************************************************
 673:C:\Micrium\Software\uCOS-III\Source\os_sem.c **** */
 674:C:\Micrium\Software\uCOS-III\Source\os_sem.c **** 
 675:C:\Micrium\Software\uCOS-III\Source\os_sem.c **** #if OS_CFG_SEM_SET_EN > 0u
 676:C:\Micrium\Software\uCOS-III\Source\os_sem.c **** void  OSSemSet (OS_SEM      *p_sem,
 677:C:\Micrium\Software\uCOS-III\Source\os_sem.c ****                 OS_SEM_CTR   cnt,
 678:C:\Micrium\Software\uCOS-III\Source\os_sem.c ****                 OS_ERR      *p_err)
 679:C:\Micrium\Software\uCOS-III\Source\os_sem.c **** {
 898              		.loc 1 679 0
 899              		.cfi_startproc
 900              		@ args = 0, pretend = 0, frame = 24
 901              		@ frame_needed = 1, uses_anonymous_args = 0
 902 0000 80B5     		push	{r7, lr}
 903              	.LCFI15:
 904              		.cfi_def_cfa_offset 8
 905 0002 86B0     		sub	sp, sp, #24
 906              	.LCFI16:
 907              		.cfi_def_cfa_offset 32
 908 0004 00AF     		add	r7, sp, #0
 909              		.cfi_offset 14, -4
 910              		.cfi_offset 7, -8
 911              	.LCFI17:
 912              		.cfi_def_cfa_register 7
 913 0006 F860     		str	r0, [r7, #12]
ARM GAS  C:\Users\daniel01\AppData\Local\Temp\ccip0sTe.s 			page 29


 914 0008 B960     		str	r1, [r7, #8]
 915 000a 7A60     		str	r2, [r7, #4]
 680:C:\Micrium\Software\uCOS-III\Source\os_sem.c ****     OS_PEND_LIST  *p_pend_list;
 681:C:\Micrium\Software\uCOS-III\Source\os_sem.c ****     CPU_SR_ALLOC();
 916              		.loc 1 681 0
 917 000c 4FF00003 		mov	r3, #0
 918 0010 7B61     		str	r3, [r7, #20]
 682:C:\Micrium\Software\uCOS-III\Source\os_sem.c **** 
 683:C:\Micrium\Software\uCOS-III\Source\os_sem.c **** 
 684:C:\Micrium\Software\uCOS-III\Source\os_sem.c **** 
 685:C:\Micrium\Software\uCOS-III\Source\os_sem.c **** #ifdef OS_SAFETY_CRITICAL
 686:C:\Micrium\Software\uCOS-III\Source\os_sem.c ****     if (p_err == (OS_ERR *)0) {
 687:C:\Micrium\Software\uCOS-III\Source\os_sem.c ****         OS_SAFETY_CRITICAL_EXCEPTION();
 688:C:\Micrium\Software\uCOS-III\Source\os_sem.c ****         return;
 689:C:\Micrium\Software\uCOS-III\Source\os_sem.c ****     }
 690:C:\Micrium\Software\uCOS-III\Source\os_sem.c **** #endif
 691:C:\Micrium\Software\uCOS-III\Source\os_sem.c **** 
 692:C:\Micrium\Software\uCOS-III\Source\os_sem.c **** #if OS_CFG_CALLED_FROM_ISR_CHK_EN > 0u
 693:C:\Micrium\Software\uCOS-III\Source\os_sem.c ****     if (OSIntNestingCtr > (OS_NESTING_CTR)0) {              /* Can't call this function from an ISR
 919              		.loc 1 693 0
 920 0012 40F20003 		movw	r3, #:lower16:OSIntNestingCtr
 921 0016 C0F20003 		movt	r3, #:upper16:OSIntNestingCtr
 922 001a 1B78     		ldrb	r3, [r3, #0]	@ zero_extendqisi2
 923 001c 002B     		cmp	r3, #0
 924 001e 04D0     		beq	.L71
 694:C:\Micrium\Software\uCOS-III\Source\os_sem.c ****        *p_err = OS_ERR_SET_ISR;
 925              		.loc 1 694 0
 926 0020 7B68     		ldr	r3, [r7, #4]
 927 0022 46F6C652 		movw	r2, #28102
 928 0026 1A80     		strh	r2, [r3, #0]	@ movhi
 695:C:\Micrium\Software\uCOS-III\Source\os_sem.c ****         return;
 929              		.loc 1 695 0
 930 0028 2AE0     		b	.L77
 931              	.L71:
 696:C:\Micrium\Software\uCOS-III\Source\os_sem.c ****     }
 697:C:\Micrium\Software\uCOS-III\Source\os_sem.c **** #endif
 698:C:\Micrium\Software\uCOS-III\Source\os_sem.c **** 
 699:C:\Micrium\Software\uCOS-III\Source\os_sem.c **** #if OS_CFG_ARG_CHK_EN > 0u
 700:C:\Micrium\Software\uCOS-III\Source\os_sem.c ****     if (p_sem == (OS_SEM *)0) {                             /* Validate 'p_sem'                    
 932              		.loc 1 700 0
 933 002a FB68     		ldr	r3, [r7, #12]
 934 002c 002B     		cmp	r3, #0
 935 002e 04D1     		bne	.L73
 701:C:\Micrium\Software\uCOS-III\Source\os_sem.c ****        *p_err = OS_ERR_OBJ_PTR_NULL;
 936              		.loc 1 701 0
 937 0030 7B68     		ldr	r3, [r7, #4]
 938 0032 45F6C352 		movw	r2, #24003
 939 0036 1A80     		strh	r2, [r3, #0]	@ movhi
 702:C:\Micrium\Software\uCOS-III\Source\os_sem.c ****         return;
 940              		.loc 1 702 0
 941 0038 22E0     		b	.L77
 942              	.L73:
 703:C:\Micrium\Software\uCOS-III\Source\os_sem.c ****     }
 704:C:\Micrium\Software\uCOS-III\Source\os_sem.c **** #endif
 705:C:\Micrium\Software\uCOS-III\Source\os_sem.c **** 
 706:C:\Micrium\Software\uCOS-III\Source\os_sem.c **** #if OS_CFG_OBJ_TYPE_CHK_EN > 0u
 707:C:\Micrium\Software\uCOS-III\Source\os_sem.c ****     if (p_sem->Type != OS_OBJ_TYPE_SEM) {                   /* Make sure semaphore was created     
ARM GAS  C:\Users\daniel01\AppData\Local\Temp\ccip0sTe.s 			page 30


 708:C:\Micrium\Software\uCOS-III\Source\os_sem.c ****        *p_err = OS_ERR_OBJ_TYPE;
 709:C:\Micrium\Software\uCOS-III\Source\os_sem.c ****         return;
 710:C:\Micrium\Software\uCOS-III\Source\os_sem.c ****     }
 711:C:\Micrium\Software\uCOS-III\Source\os_sem.c **** #endif
 712:C:\Micrium\Software\uCOS-III\Source\os_sem.c **** 
 713:C:\Micrium\Software\uCOS-III\Source\os_sem.c ****    *p_err = OS_ERR_NONE;
 943              		.loc 1 713 0
 944 003a 7B68     		ldr	r3, [r7, #4]
 945 003c 4FF00002 		mov	r2, #0
 946 0040 1A80     		strh	r2, [r3, #0]	@ movhi
 714:C:\Micrium\Software\uCOS-III\Source\os_sem.c ****     CPU_CRITICAL_ENTER();
 947              		.loc 1 714 0
 948 0042 FFF7FEFF 		bl	CPU_SR_Save
 949 0046 0346     		mov	r3, r0
 950 0048 7B61     		str	r3, [r7, #20]
 715:C:\Micrium\Software\uCOS-III\Source\os_sem.c ****     if (p_sem->Ctr > (OS_SEM_CTR)0) {                       /* See if semaphore already has a count
 951              		.loc 1 715 0
 952 004a FB68     		ldr	r3, [r7, #12]
 953 004c 1B6A     		ldr	r3, [r3, #32]
 954 004e 002B     		cmp	r3, #0
 955 0050 03D0     		beq	.L74
 716:C:\Micrium\Software\uCOS-III\Source\os_sem.c ****         p_sem->Ctr = cnt;                                   /* Yes, set it to the new value specifi
 956              		.loc 1 716 0
 957 0052 FB68     		ldr	r3, [r7, #12]
 958 0054 BA68     		ldr	r2, [r7, #8]
 959 0056 1A62     		str	r2, [r3, #32]
 960 0058 0FE0     		b	.L75
 961              	.L74:
 717:C:\Micrium\Software\uCOS-III\Source\os_sem.c ****     } else {
 718:C:\Micrium\Software\uCOS-III\Source\os_sem.c ****         p_pend_list = &p_sem->PendList;                     /* No                                  
 962              		.loc 1 718 0
 963 005a FB68     		ldr	r3, [r7, #12]
 964 005c 03F10803 		add	r3, r3, #8
 965 0060 3B61     		str	r3, [r7, #16]
 719:C:\Micrium\Software\uCOS-III\Source\os_sem.c ****         if (p_pend_list->NbrEntries == (OS_OBJ_QTY)0) {     /*      See if task(s) waiting?        
 966              		.loc 1 719 0
 967 0062 3B69     		ldr	r3, [r7, #16]
 968 0064 1B89     		ldrh	r3, [r3, #8]
 969 0066 002B     		cmp	r3, #0
 970 0068 03D1     		bne	.L76
 720:C:\Micrium\Software\uCOS-III\Source\os_sem.c ****             p_sem->Ctr = cnt;                               /*      No, OK to set the value        
 971              		.loc 1 720 0
 972 006a FB68     		ldr	r3, [r7, #12]
 973 006c BA68     		ldr	r2, [r7, #8]
 974 006e 1A62     		str	r2, [r3, #32]
 975 0070 03E0     		b	.L75
 976              	.L76:
 721:C:\Micrium\Software\uCOS-III\Source\os_sem.c ****         } else {
 722:C:\Micrium\Software\uCOS-III\Source\os_sem.c ****            *p_err      = OS_ERR_TASK_WAITING;
 977              		.loc 1 722 0
 978 0072 7B68     		ldr	r3, [r7, #4]
 979 0074 47F25F12 		movw	r2, #29023
 980 0078 1A80     		strh	r2, [r3, #0]	@ movhi
 981              	.L75:
 723:C:\Micrium\Software\uCOS-III\Source\os_sem.c ****         }
 724:C:\Micrium\Software\uCOS-III\Source\os_sem.c ****     }
 725:C:\Micrium\Software\uCOS-III\Source\os_sem.c ****     CPU_CRITICAL_EXIT();
ARM GAS  C:\Users\daniel01\AppData\Local\Temp\ccip0sTe.s 			page 31


 982              		.loc 1 725 0
 983 007a 7869     		ldr	r0, [r7, #20]
 984 007c FFF7FEFF 		bl	CPU_SR_Restore
 985              	.L77:
 726:C:\Micrium\Software\uCOS-III\Source\os_sem.c **** }
 986              		.loc 1 726 0
 987 0080 07F11807 		add	r7, r7, #24
 988 0084 BD46     		mov	sp, r7
 989 0086 80BD     		pop	{r7, pc}
 990              		.cfi_endproc
 991              	.LFE5:
 992              		.size	OSSemSet, .-OSSemSet
 993              		.section	.rodata
 994              		.align	2
 995              	.LC0:
 996 0000 3F53454D 		.ascii	"?SEM\000"
 996      00
 997              		.section	.text.OS_SemClr,"ax",%progbits
 998              		.align	2
 999              		.global	OS_SemClr
 1000              		.thumb
 1001              		.thumb_func
 1002              		.type	OS_SemClr, %function
 1003              	OS_SemClr:
 1004              	.LFB6:
 727:C:\Micrium\Software\uCOS-III\Source\os_sem.c **** #endif
 728:C:\Micrium\Software\uCOS-III\Source\os_sem.c **** 
 729:C:\Micrium\Software\uCOS-III\Source\os_sem.c **** /*$PAGE*/
 730:C:\Micrium\Software\uCOS-III\Source\os_sem.c **** /*
 731:C:\Micrium\Software\uCOS-III\Source\os_sem.c **** ***************************************************************************************************
 732:C:\Micrium\Software\uCOS-III\Source\os_sem.c **** *                                           CLEAR THE CONTENTS OF A SEMAPHORE
 733:C:\Micrium\Software\uCOS-III\Source\os_sem.c **** *
 734:C:\Micrium\Software\uCOS-III\Source\os_sem.c **** * Description: This function is called by OSSemDel() to clear the contents of a semaphore
 735:C:\Micrium\Software\uCOS-III\Source\os_sem.c **** *
 736:C:\Micrium\Software\uCOS-III\Source\os_sem.c **** 
 737:C:\Micrium\Software\uCOS-III\Source\os_sem.c **** * Argument(s): p_sem      is a pointer to the semaphore to clear
 738:C:\Micrium\Software\uCOS-III\Source\os_sem.c **** *              -----
 739:C:\Micrium\Software\uCOS-III\Source\os_sem.c **** *
 740:C:\Micrium\Software\uCOS-III\Source\os_sem.c **** * Returns    : none
 741:C:\Micrium\Software\uCOS-III\Source\os_sem.c **** *
 742:C:\Micrium\Software\uCOS-III\Source\os_sem.c **** * Note(s)    : 1) This function is INTERNAL to uC/OS-III and your application MUST NOT call it.
 743:C:\Micrium\Software\uCOS-III\Source\os_sem.c **** ***************************************************************************************************
 744:C:\Micrium\Software\uCOS-III\Source\os_sem.c **** */
 745:C:\Micrium\Software\uCOS-III\Source\os_sem.c **** 
 746:C:\Micrium\Software\uCOS-III\Source\os_sem.c **** void  OS_SemClr (OS_SEM  *p_sem)
 747:C:\Micrium\Software\uCOS-III\Source\os_sem.c **** {
 1005              		.loc 1 747 0
 1006              		.cfi_startproc
 1007              		@ args = 0, pretend = 0, frame = 8
 1008              		@ frame_needed = 1, uses_anonymous_args = 0
 1009 0000 80B5     		push	{r7, lr}
 1010              	.LCFI18:
 1011              		.cfi_def_cfa_offset 8
 1012 0002 82B0     		sub	sp, sp, #8
 1013              	.LCFI19:
 1014              		.cfi_def_cfa_offset 16
 1015 0004 00AF     		add	r7, sp, #0
ARM GAS  C:\Users\daniel01\AppData\Local\Temp\ccip0sTe.s 			page 32


 1016              		.cfi_offset 14, -4
 1017              		.cfi_offset 7, -8
 1018              	.LCFI20:
 1019              		.cfi_def_cfa_register 7
 1020 0006 7860     		str	r0, [r7, #4]
 748:C:\Micrium\Software\uCOS-III\Source\os_sem.c ****     p_sem->Type    = OS_OBJ_TYPE_NONE;                      /* Mark the data structure as a NONE   
 1021              		.loc 1 748 0
 1022 0008 7A68     		ldr	r2, [r7, #4]
 1023 000a 44F64E73 		movw	r3, #:lower16:1162760014
 1024 000e C4F24E53 		movt	r3, #:upper16:1162760014
 1025 0012 1360     		str	r3, [r2, #0]
 749:C:\Micrium\Software\uCOS-III\Source\os_sem.c ****     p_sem->Ctr     = (OS_SEM_CTR)0;                         /* Set semaphore value                 
 1026              		.loc 1 749 0
 1027 0014 7B68     		ldr	r3, [r7, #4]
 1028 0016 4FF00002 		mov	r2, #0
 1029 001a 1A62     		str	r2, [r3, #32]
 750:C:\Micrium\Software\uCOS-III\Source\os_sem.c ****     p_sem->TS      = (CPU_TS    )0;                         /* Clear the time stamp                
 1030              		.loc 1 750 0
 1031 001c 7B68     		ldr	r3, [r7, #4]
 1032 001e 4FF00002 		mov	r2, #0
 1033 0022 5A62     		str	r2, [r3, #36]
 751:C:\Micrium\Software\uCOS-III\Source\os_sem.c ****     p_sem->NamePtr = (CPU_CHAR *)((void *)"?SEM");
 1034              		.loc 1 751 0
 1035 0024 7A68     		ldr	r2, [r7, #4]
 1036 0026 40F20003 		movw	r3, #:lower16:.LC0
 1037 002a C0F20003 		movt	r3, #:upper16:.LC0
 1038 002e 5360     		str	r3, [r2, #4]
 752:C:\Micrium\Software\uCOS-III\Source\os_sem.c ****     OS_PendListInit(&p_sem->PendList);                      /* Initialize the waiting list         
 1039              		.loc 1 752 0
 1040 0030 7B68     		ldr	r3, [r7, #4]
 1041 0032 03F10803 		add	r3, r3, #8
 1042 0036 1846     		mov	r0, r3
 1043 0038 FFF7FEFF 		bl	OS_PendListInit
 753:C:\Micrium\Software\uCOS-III\Source\os_sem.c **** }
 1044              		.loc 1 753 0
 1045 003c 07F10807 		add	r7, r7, #8
 1046 0040 BD46     		mov	sp, r7
 1047 0042 80BD     		pop	{r7, pc}
 1048              		.cfi_endproc
 1049              	.LFE6:
 1050              		.size	OS_SemClr, .-OS_SemClr
 1051              		.section	.rodata
 1052 0005 000000   		.align	2
 1053              	.LC1:
 1054 0008 2000     		.ascii	" \000"
 1055 000a 0000     		.section	.text.OS_SemDbgListAdd,"ax",%progbits
 1056              		.align	2
 1057              		.global	OS_SemDbgListAdd
 1058              		.thumb
 1059              		.thumb_func
 1060              		.type	OS_SemDbgListAdd, %function
 1061              	OS_SemDbgListAdd:
 1062              	.LFB7:
 754:C:\Micrium\Software\uCOS-III\Source\os_sem.c **** 
 755:C:\Micrium\Software\uCOS-III\Source\os_sem.c **** /*$PAGE*/
 756:C:\Micrium\Software\uCOS-III\Source\os_sem.c **** /*
 757:C:\Micrium\Software\uCOS-III\Source\os_sem.c **** ***************************************************************************************************
ARM GAS  C:\Users\daniel01\AppData\Local\Temp\ccip0sTe.s 			page 33


 758:C:\Micrium\Software\uCOS-III\Source\os_sem.c **** *                                        ADD/REMOVE SEMAPHORE TO/FROM DEBUG LIST
 759:C:\Micrium\Software\uCOS-III\Source\os_sem.c **** *
 760:C:\Micrium\Software\uCOS-III\Source\os_sem.c **** * Description: These functions are called by uC/OS-III to add or remove a semaphore to/from the deb
 761:C:\Micrium\Software\uCOS-III\Source\os_sem.c **** *
 762:C:\Micrium\Software\uCOS-III\Source\os_sem.c **** * Arguments  : p_sem     is a pointer to the semaphore to add/remove
 763:C:\Micrium\Software\uCOS-III\Source\os_sem.c **** *
 764:C:\Micrium\Software\uCOS-III\Source\os_sem.c **** * Returns    : none
 765:C:\Micrium\Software\uCOS-III\Source\os_sem.c **** *
 766:C:\Micrium\Software\uCOS-III\Source\os_sem.c **** * Note(s)    : These functions are INTERNAL to uC/OS-III and your application should not call it.
 767:C:\Micrium\Software\uCOS-III\Source\os_sem.c **** ***************************************************************************************************
 768:C:\Micrium\Software\uCOS-III\Source\os_sem.c **** */
 769:C:\Micrium\Software\uCOS-III\Source\os_sem.c **** 
 770:C:\Micrium\Software\uCOS-III\Source\os_sem.c **** 
 771:C:\Micrium\Software\uCOS-III\Source\os_sem.c **** #if OS_CFG_DBG_EN > 0u
 772:C:\Micrium\Software\uCOS-III\Source\os_sem.c **** void  OS_SemDbgListAdd (OS_SEM  *p_sem)
 773:C:\Micrium\Software\uCOS-III\Source\os_sem.c **** {
 1063              		.loc 1 773 0
 1064              		.cfi_startproc
 1065              		@ args = 0, pretend = 0, frame = 8
 1066              		@ frame_needed = 1, uses_anonymous_args = 0
 1067              		@ link register save eliminated.
 1068 0000 80B4     		push	{r7}
 1069              	.LCFI21:
 1070              		.cfi_def_cfa_offset 4
 1071 0002 83B0     		sub	sp, sp, #12
 1072              	.LCFI22:
 1073              		.cfi_def_cfa_offset 16
 1074 0004 00AF     		add	r7, sp, #0
 1075              		.cfi_offset 7, -4
 1076              	.LCFI23:
 1077              		.cfi_def_cfa_register 7
 1078 0006 7860     		str	r0, [r7, #4]
 774:C:\Micrium\Software\uCOS-III\Source\os_sem.c ****     p_sem->DbgNamePtr               = (CPU_CHAR *)((void *)" ");
 1079              		.loc 1 774 0
 1080 0008 7A68     		ldr	r2, [r7, #4]
 1081 000a 40F20003 		movw	r3, #:lower16:.LC1
 1082 000e C0F20003 		movt	r3, #:upper16:.LC1
 1083 0012 D361     		str	r3, [r2, #28]
 775:C:\Micrium\Software\uCOS-III\Source\os_sem.c ****     p_sem->DbgPrevPtr               = (OS_SEM   *)0;
 1084              		.loc 1 775 0
 1085 0014 7B68     		ldr	r3, [r7, #4]
 1086 0016 4FF00002 		mov	r2, #0
 1087 001a 5A61     		str	r2, [r3, #20]
 776:C:\Micrium\Software\uCOS-III\Source\os_sem.c ****     if (OSSemDbgListPtr == (OS_SEM *)0) {
 1088              		.loc 1 776 0
 1089 001c 40F20003 		movw	r3, #:lower16:OSSemDbgListPtr
 1090 0020 C0F20003 		movt	r3, #:upper16:OSSemDbgListPtr
 1091 0024 1B68     		ldr	r3, [r3, #0]
 1092 0026 002B     		cmp	r3, #0
 1093 0028 04D1     		bne	.L81
 777:C:\Micrium\Software\uCOS-III\Source\os_sem.c ****         p_sem->DbgNextPtr           = (OS_SEM   *)0;
 1094              		.loc 1 777 0
 1095 002a 7B68     		ldr	r3, [r7, #4]
 1096 002c 4FF00002 		mov	r2, #0
 1097 0030 9A61     		str	r2, [r3, #24]
 1098 0032 0DE0     		b	.L82
 1099              	.L81:
ARM GAS  C:\Users\daniel01\AppData\Local\Temp\ccip0sTe.s 			page 34


 778:C:\Micrium\Software\uCOS-III\Source\os_sem.c ****     } else {
 779:C:\Micrium\Software\uCOS-III\Source\os_sem.c ****         p_sem->DbgNextPtr           =  OSSemDbgListPtr;
 1100              		.loc 1 779 0
 1101 0034 40F20003 		movw	r3, #:lower16:OSSemDbgListPtr
 1102 0038 C0F20003 		movt	r3, #:upper16:OSSemDbgListPtr
 1103 003c 1A68     		ldr	r2, [r3, #0]
 1104 003e 7B68     		ldr	r3, [r7, #4]
 1105 0040 9A61     		str	r2, [r3, #24]
 780:C:\Micrium\Software\uCOS-III\Source\os_sem.c ****         OSSemDbgListPtr->DbgPrevPtr =  p_sem;
 1106              		.loc 1 780 0
 1107 0042 40F20003 		movw	r3, #:lower16:OSSemDbgListPtr
 1108 0046 C0F20003 		movt	r3, #:upper16:OSSemDbgListPtr
 1109 004a 1B68     		ldr	r3, [r3, #0]
 1110 004c 7A68     		ldr	r2, [r7, #4]
 1111 004e 5A61     		str	r2, [r3, #20]
 1112              	.L82:
 781:C:\Micrium\Software\uCOS-III\Source\os_sem.c ****     }
 782:C:\Micrium\Software\uCOS-III\Source\os_sem.c ****     OSSemDbgListPtr                 =  p_sem;
 1113              		.loc 1 782 0
 1114 0050 40F20003 		movw	r3, #:lower16:OSSemDbgListPtr
 1115 0054 C0F20003 		movt	r3, #:upper16:OSSemDbgListPtr
 1116 0058 7A68     		ldr	r2, [r7, #4]
 1117 005a 1A60     		str	r2, [r3, #0]
 783:C:\Micrium\Software\uCOS-III\Source\os_sem.c **** }
 1118              		.loc 1 783 0
 1119 005c 07F10C07 		add	r7, r7, #12
 1120 0060 BD46     		mov	sp, r7
 1121 0062 80BC     		pop	{r7}
 1122 0064 7047     		bx	lr
 1123              		.cfi_endproc
 1124              	.LFE7:
 1125              		.size	OS_SemDbgListAdd, .-OS_SemDbgListAdd
 1126 0066 00BF     		.section	.text.OS_SemDbgListRemove,"ax",%progbits
 1127              		.align	2
 1128              		.global	OS_SemDbgListRemove
 1129              		.thumb
 1130              		.thumb_func
 1131              		.type	OS_SemDbgListRemove, %function
 1132              	OS_SemDbgListRemove:
 1133              	.LFB8:
 784:C:\Micrium\Software\uCOS-III\Source\os_sem.c **** 
 785:C:\Micrium\Software\uCOS-III\Source\os_sem.c **** 
 786:C:\Micrium\Software\uCOS-III\Source\os_sem.c **** 
 787:C:\Micrium\Software\uCOS-III\Source\os_sem.c **** void  OS_SemDbgListRemove (OS_SEM  *p_sem)
 788:C:\Micrium\Software\uCOS-III\Source\os_sem.c **** {
 1134              		.loc 1 788 0
 1135              		.cfi_startproc
 1136              		@ args = 0, pretend = 0, frame = 16
 1137              		@ frame_needed = 1, uses_anonymous_args = 0
 1138              		@ link register save eliminated.
 1139 0000 80B4     		push	{r7}
 1140              	.LCFI24:
 1141              		.cfi_def_cfa_offset 4
 1142 0002 85B0     		sub	sp, sp, #20
 1143              	.LCFI25:
 1144              		.cfi_def_cfa_offset 24
 1145 0004 00AF     		add	r7, sp, #0
ARM GAS  C:\Users\daniel01\AppData\Local\Temp\ccip0sTe.s 			page 35


 1146              		.cfi_offset 7, -4
 1147              	.LCFI26:
 1148              		.cfi_def_cfa_register 7
 1149 0006 7860     		str	r0, [r7, #4]
 789:C:\Micrium\Software\uCOS-III\Source\os_sem.c ****     OS_SEM  *p_sem_next;
 790:C:\Micrium\Software\uCOS-III\Source\os_sem.c ****     OS_SEM  *p_sem_prev;
 791:C:\Micrium\Software\uCOS-III\Source\os_sem.c **** 
 792:C:\Micrium\Software\uCOS-III\Source\os_sem.c **** 
 793:C:\Micrium\Software\uCOS-III\Source\os_sem.c ****     p_sem_prev = p_sem->DbgPrevPtr;
 1150              		.loc 1 793 0
 1151 0008 7B68     		ldr	r3, [r7, #4]
 1152 000a 5B69     		ldr	r3, [r3, #20]
 1153 000c FB60     		str	r3, [r7, #12]
 794:C:\Micrium\Software\uCOS-III\Source\os_sem.c ****     p_sem_next = p_sem->DbgNextPtr;
 1154              		.loc 1 794 0
 1155 000e 7B68     		ldr	r3, [r7, #4]
 1156 0010 9B69     		ldr	r3, [r3, #24]
 1157 0012 BB60     		str	r3, [r7, #8]
 795:C:\Micrium\Software\uCOS-III\Source\os_sem.c **** 
 796:C:\Micrium\Software\uCOS-III\Source\os_sem.c ****     if (p_sem_prev == (OS_SEM *)0) {
 1158              		.loc 1 796 0
 1159 0014 FB68     		ldr	r3, [r7, #12]
 1160 0016 002B     		cmp	r3, #0
 1161 0018 11D1     		bne	.L85
 797:C:\Micrium\Software\uCOS-III\Source\os_sem.c ****         OSSemDbgListPtr = p_sem_next;
 1162              		.loc 1 797 0
 1163 001a 40F20003 		movw	r3, #:lower16:OSSemDbgListPtr
 1164 001e C0F20003 		movt	r3, #:upper16:OSSemDbgListPtr
 1165 0022 BA68     		ldr	r2, [r7, #8]
 1166 0024 1A60     		str	r2, [r3, #0]
 798:C:\Micrium\Software\uCOS-III\Source\os_sem.c ****         if (p_sem_next != (OS_SEM *)0) {
 1167              		.loc 1 798 0
 1168 0026 BB68     		ldr	r3, [r7, #8]
 1169 0028 002B     		cmp	r3, #0
 1170 002a 03D0     		beq	.L86
 799:C:\Micrium\Software\uCOS-III\Source\os_sem.c ****             p_sem_next->DbgPrevPtr = (OS_SEM *)0;
 1171              		.loc 1 799 0
 1172 002c BB68     		ldr	r3, [r7, #8]
 1173 002e 4FF00002 		mov	r2, #0
 1174 0032 5A61     		str	r2, [r3, #20]
 1175              	.L86:
 800:C:\Micrium\Software\uCOS-III\Source\os_sem.c ****         }
 801:C:\Micrium\Software\uCOS-III\Source\os_sem.c ****         p_sem->DbgNextPtr = (OS_SEM *)0;
 1176              		.loc 1 801 0
 1177 0034 7B68     		ldr	r3, [r7, #4]
 1178 0036 4FF00002 		mov	r2, #0
 1179 003a 9A61     		str	r2, [r3, #24]
 1180 003c 19E0     		b	.L89
 1181              	.L85:
 802:C:\Micrium\Software\uCOS-III\Source\os_sem.c **** 
 803:C:\Micrium\Software\uCOS-III\Source\os_sem.c ****     } else if (p_sem_next == (OS_SEM *)0) {
 1182              		.loc 1 803 0
 1183 003e BB68     		ldr	r3, [r7, #8]
 1184 0040 002B     		cmp	r3, #0
 1185 0042 08D1     		bne	.L88
 804:C:\Micrium\Software\uCOS-III\Source\os_sem.c ****         p_sem_prev->DbgNextPtr = (OS_SEM *)0;
 1186              		.loc 1 804 0
ARM GAS  C:\Users\daniel01\AppData\Local\Temp\ccip0sTe.s 			page 36


 1187 0044 FB68     		ldr	r3, [r7, #12]
 1188 0046 4FF00002 		mov	r2, #0
 1189 004a 9A61     		str	r2, [r3, #24]
 805:C:\Micrium\Software\uCOS-III\Source\os_sem.c ****         p_sem->DbgPrevPtr      = (OS_SEM *)0;
 1190              		.loc 1 805 0
 1191 004c 7B68     		ldr	r3, [r7, #4]
 1192 004e 4FF00002 		mov	r2, #0
 1193 0052 5A61     		str	r2, [r3, #20]
 1194 0054 0DE0     		b	.L89
 1195              	.L88:
 806:C:\Micrium\Software\uCOS-III\Source\os_sem.c **** 
 807:C:\Micrium\Software\uCOS-III\Source\os_sem.c ****     } else {
 808:C:\Micrium\Software\uCOS-III\Source\os_sem.c ****         p_sem_prev->DbgNextPtr =  p_sem_next;
 1196              		.loc 1 808 0
 1197 0056 FB68     		ldr	r3, [r7, #12]
 1198 0058 BA68     		ldr	r2, [r7, #8]
 1199 005a 9A61     		str	r2, [r3, #24]
 809:C:\Micrium\Software\uCOS-III\Source\os_sem.c ****         p_sem_next->DbgPrevPtr =  p_sem_prev;
 1200              		.loc 1 809 0
 1201 005c BB68     		ldr	r3, [r7, #8]
 1202 005e FA68     		ldr	r2, [r7, #12]
 1203 0060 5A61     		str	r2, [r3, #20]
 810:C:\Micrium\Software\uCOS-III\Source\os_sem.c ****         p_sem->DbgNextPtr      = (OS_SEM *)0;
 1204              		.loc 1 810 0
 1205 0062 7B68     		ldr	r3, [r7, #4]
 1206 0064 4FF00002 		mov	r2, #0
 1207 0068 9A61     		str	r2, [r3, #24]
 811:C:\Micrium\Software\uCOS-III\Source\os_sem.c ****         p_sem->DbgPrevPtr      = (OS_SEM *)0;
 1208              		.loc 1 811 0
 1209 006a 7B68     		ldr	r3, [r7, #4]
 1210 006c 4FF00002 		mov	r2, #0
 1211 0070 5A61     		str	r2, [r3, #20]
 1212              	.L89:
 812:C:\Micrium\Software\uCOS-III\Source\os_sem.c ****     }
 813:C:\Micrium\Software\uCOS-III\Source\os_sem.c **** }
 1213              		.loc 1 813 0
 1214 0072 07F11407 		add	r7, r7, #20
 1215 0076 BD46     		mov	sp, r7
 1216 0078 80BC     		pop	{r7}
 1217 007a 7047     		bx	lr
 1218              		.cfi_endproc
 1219              	.LFE8:
 1220              		.size	OS_SemDbgListRemove, .-OS_SemDbgListRemove
 1221              		.section	.text.OS_SemInit,"ax",%progbits
 1222              		.align	2
 1223              		.global	OS_SemInit
 1224              		.thumb
 1225              		.thumb_func
 1226              		.type	OS_SemInit, %function
 1227              	OS_SemInit:
 1228              	.LFB9:
 814:C:\Micrium\Software\uCOS-III\Source\os_sem.c **** #endif
 815:C:\Micrium\Software\uCOS-III\Source\os_sem.c **** 
 816:C:\Micrium\Software\uCOS-III\Source\os_sem.c **** /*$PAGE*/
 817:C:\Micrium\Software\uCOS-III\Source\os_sem.c **** /*
 818:C:\Micrium\Software\uCOS-III\Source\os_sem.c **** ***************************************************************************************************
 819:C:\Micrium\Software\uCOS-III\Source\os_sem.c **** *                                                SEMAPHORE INITIALIZATION
ARM GAS  C:\Users\daniel01\AppData\Local\Temp\ccip0sTe.s 			page 37


 820:C:\Micrium\Software\uCOS-III\Source\os_sem.c **** *
 821:C:\Micrium\Software\uCOS-III\Source\os_sem.c **** * Description: This function is called by OSInit() to initialize the semaphore management.
 822:C:\Micrium\Software\uCOS-III\Source\os_sem.c **** *
 823:C:\Micrium\Software\uCOS-III\Source\os_sem.c **** 
 824:C:\Micrium\Software\uCOS-III\Source\os_sem.c **** * Argument(s): p_err        is a pointer to a variable that will contain an error code returned by 
 825:C:\Micrium\Software\uCOS-III\Source\os_sem.c **** *
 826:C:\Micrium\Software\uCOS-III\Source\os_sem.c **** *                                OS_ERR_NONE     the call was successful
 827:C:\Micrium\Software\uCOS-III\Source\os_sem.c **** *
 828:C:\Micrium\Software\uCOS-III\Source\os_sem.c **** * Returns    : none
 829:C:\Micrium\Software\uCOS-III\Source\os_sem.c **** *
 830:C:\Micrium\Software\uCOS-III\Source\os_sem.c **** * Note(s)    : 1) This function is INTERNAL to uC/OS-III and your application MUST NOT call it.
 831:C:\Micrium\Software\uCOS-III\Source\os_sem.c **** ***************************************************************************************************
 832:C:\Micrium\Software\uCOS-III\Source\os_sem.c **** */
 833:C:\Micrium\Software\uCOS-III\Source\os_sem.c **** 
 834:C:\Micrium\Software\uCOS-III\Source\os_sem.c **** void  OS_SemInit (OS_ERR  *p_err)
 835:C:\Micrium\Software\uCOS-III\Source\os_sem.c **** {
 1229              		.loc 1 835 0
 1230              		.cfi_startproc
 1231              		@ args = 0, pretend = 0, frame = 8
 1232              		@ frame_needed = 1, uses_anonymous_args = 0
 1233              		@ link register save eliminated.
 1234 0000 80B4     		push	{r7}
 1235              	.LCFI27:
 1236              		.cfi_def_cfa_offset 4
 1237 0002 83B0     		sub	sp, sp, #12
 1238              	.LCFI28:
 1239              		.cfi_def_cfa_offset 16
 1240 0004 00AF     		add	r7, sp, #0
 1241              		.cfi_offset 7, -4
 1242              	.LCFI29:
 1243              		.cfi_def_cfa_register 7
 1244 0006 7860     		str	r0, [r7, #4]
 836:C:\Micrium\Software\uCOS-III\Source\os_sem.c **** #ifdef OS_SAFETY_CRITICAL
 837:C:\Micrium\Software\uCOS-III\Source\os_sem.c ****     if (p_err == (OS_ERR *)0) {
 838:C:\Micrium\Software\uCOS-III\Source\os_sem.c ****         OS_SAFETY_CRITICAL_EXCEPTION();
 839:C:\Micrium\Software\uCOS-III\Source\os_sem.c ****         return;
 840:C:\Micrium\Software\uCOS-III\Source\os_sem.c ****     }
 841:C:\Micrium\Software\uCOS-III\Source\os_sem.c **** #endif
 842:C:\Micrium\Software\uCOS-III\Source\os_sem.c **** 
 843:C:\Micrium\Software\uCOS-III\Source\os_sem.c **** #if OS_CFG_DBG_EN > 0u
 844:C:\Micrium\Software\uCOS-III\Source\os_sem.c ****     OSSemDbgListPtr = (OS_SEM *)0;
 1245              		.loc 1 844 0
 1246 0008 40F20003 		movw	r3, #:lower16:OSSemDbgListPtr
 1247 000c C0F20003 		movt	r3, #:upper16:OSSemDbgListPtr
 1248 0010 4FF00002 		mov	r2, #0
 1249 0014 1A60     		str	r2, [r3, #0]
 845:C:\Micrium\Software\uCOS-III\Source\os_sem.c **** #endif
 846:C:\Micrium\Software\uCOS-III\Source\os_sem.c **** 
 847:C:\Micrium\Software\uCOS-III\Source\os_sem.c ****     OSSemQty        = (OS_OBJ_QTY)0;
 1250              		.loc 1 847 0
 1251 0016 40F20003 		movw	r3, #:lower16:OSSemQty
 1252 001a C0F20003 		movt	r3, #:upper16:OSSemQty
 1253 001e 4FF00002 		mov	r2, #0
 1254 0022 1A80     		strh	r2, [r3, #0]	@ movhi
 848:C:\Micrium\Software\uCOS-III\Source\os_sem.c ****    *p_err           = OS_ERR_NONE;
 1255              		.loc 1 848 0
 1256 0024 7B68     		ldr	r3, [r7, #4]
ARM GAS  C:\Users\daniel01\AppData\Local\Temp\ccip0sTe.s 			page 38


 1257 0026 4FF00002 		mov	r2, #0
 1258 002a 1A80     		strh	r2, [r3, #0]	@ movhi
 849:C:\Micrium\Software\uCOS-III\Source\os_sem.c **** }
 1259              		.loc 1 849 0
 1260 002c 07F10C07 		add	r7, r7, #12
 1261 0030 BD46     		mov	sp, r7
 1262 0032 80BC     		pop	{r7}
 1263 0034 7047     		bx	lr
 1264              		.cfi_endproc
 1265              	.LFE9:
 1266              		.size	OS_SemInit, .-OS_SemInit
 1267 0036 00BF     		.section	.text.OS_SemPost,"ax",%progbits
 1268              		.align	2
 1269              		.global	OS_SemPost
 1270              		.thumb
 1271              		.thumb_func
 1272              		.type	OS_SemPost, %function
 1273              	OS_SemPost:
 1274              	.LFB10:
 850:C:\Micrium\Software\uCOS-III\Source\os_sem.c **** 
 851:C:\Micrium\Software\uCOS-III\Source\os_sem.c **** /*$PAGE*/
 852:C:\Micrium\Software\uCOS-III\Source\os_sem.c **** /*
 853:C:\Micrium\Software\uCOS-III\Source\os_sem.c **** ***************************************************************************************************
 854:C:\Micrium\Software\uCOS-III\Source\os_sem.c **** *                                                 POST TO A SEMAPHORE
 855:C:\Micrium\Software\uCOS-III\Source\os_sem.c **** *
 856:C:\Micrium\Software\uCOS-III\Source\os_sem.c **** * Description: This function signals a semaphore
 857:C:\Micrium\Software\uCOS-III\Source\os_sem.c **** *
 858:C:\Micrium\Software\uCOS-III\Source\os_sem.c **** * Arguments  : p_sem    is a pointer to the semaphore
 859:C:\Micrium\Software\uCOS-III\Source\os_sem.c **** *
 860:C:\Micrium\Software\uCOS-III\Source\os_sem.c **** *              opt      determines the type of POST performed:
 861:C:\Micrium\Software\uCOS-III\Source\os_sem.c **** *
 862:C:\Micrium\Software\uCOS-III\Source\os_sem.c **** *                           OS_OPT_POST_1            POST to a single waiting task
 863:C:\Micrium\Software\uCOS-III\Source\os_sem.c **** *                           OS_OPT_POST_ALL          POST to ALL tasks that are waiting on the sema
 864:C:\Micrium\Software\uCOS-III\Source\os_sem.c **** *
 865:C:\Micrium\Software\uCOS-III\Source\os_sem.c **** *                           OS_OPT_POST_NO_SCHED     Do not call the scheduler
 866:C:\Micrium\Software\uCOS-III\Source\os_sem.c **** *
 867:C:\Micrium\Software\uCOS-III\Source\os_sem.c **** *                           Note(s): 1) OS_OPT_POST_NO_SCHED can be added with one of the other opt
 868:C:\Micrium\Software\uCOS-III\Source\os_sem.c **** *
 869:C:\Micrium\Software\uCOS-III\Source\os_sem.c **** *              ts       is a timestamp indicating when the post occurred.
 870:C:\Micrium\Software\uCOS-III\Source\os_sem.c **** *
 871:C:\Micrium\Software\uCOS-III\Source\os_sem.c **** *              p_err    is a pointer to a variable that will contain an error code returned by this
 872:C:\Micrium\Software\uCOS-III\Source\os_sem.c **** *
 873:C:\Micrium\Software\uCOS-III\Source\os_sem.c **** *                           OS_ERR_NONE          The call was successful and the semaphore was sign
 874:C:\Micrium\Software\uCOS-III\Source\os_sem.c **** *                           OS_ERR_OBJ_PTR_NULL  If 'p_sem' is a NULL pointer.
 875:C:\Micrium\Software\uCOS-III\Source\os_sem.c **** *                           OS_ERR_OBJ_TYPE      If 'p_sem' is not pointing at a semaphore
 876:C:\Micrium\Software\uCOS-III\Source\os_sem.c **** *                           OS_ERR_SEM_OVF       If the post would cause the semaphore count to ove
 877:C:\Micrium\Software\uCOS-III\Source\os_sem.c **** *
 878:C:\Micrium\Software\uCOS-III\Source\os_sem.c **** * Returns    : The current value of the semaphore counter or 0 upon error.
 879:C:\Micrium\Software\uCOS-III\Source\os_sem.c **** *
 880:C:\Micrium\Software\uCOS-III\Source\os_sem.c **** * Note(s)    : This function is INTERNAL to uC/OS-III and your application should not call it.
 881:C:\Micrium\Software\uCOS-III\Source\os_sem.c **** ***************************************************************************************************
 882:C:\Micrium\Software\uCOS-III\Source\os_sem.c **** */
 883:C:\Micrium\Software\uCOS-III\Source\os_sem.c **** 
 884:C:\Micrium\Software\uCOS-III\Source\os_sem.c **** OS_SEM_CTR  OS_SemPost (OS_SEM  *p_sem,
 885:C:\Micrium\Software\uCOS-III\Source\os_sem.c ****                         OS_OPT   opt,
 886:C:\Micrium\Software\uCOS-III\Source\os_sem.c ****                         CPU_TS   ts,
 887:C:\Micrium\Software\uCOS-III\Source\os_sem.c ****                         OS_ERR  *p_err)
ARM GAS  C:\Users\daniel01\AppData\Local\Temp\ccip0sTe.s 			page 39


 888:C:\Micrium\Software\uCOS-III\Source\os_sem.c **** {
 1275              		.loc 1 888 0
 1276              		.cfi_startproc
 1277              		@ args = 0, pretend = 0, frame = 48
 1278              		@ frame_needed = 1, uses_anonymous_args = 0
 1279 0000 80B5     		push	{r7, lr}
 1280              	.LCFI30:
 1281              		.cfi_def_cfa_offset 8
 1282 0002 8EB0     		sub	sp, sp, #56
 1283              	.LCFI31:
 1284              		.cfi_def_cfa_offset 64
 1285 0004 02AF     		add	r7, sp, #8
 1286              		.cfi_offset 14, -4
 1287              		.cfi_offset 7, -8
 1288              	.LCFI32:
 1289              		.cfi_def_cfa 7, 56
 1290 0006 F860     		str	r0, [r7, #12]
 1291 0008 7A60     		str	r2, [r7, #4]
 1292 000a 3B60     		str	r3, [r7, #0]
 1293 000c 0B46     		mov	r3, r1	@ movhi
 1294 000e 7B81     		strh	r3, [r7, #10]	@ movhi
 889:C:\Micrium\Software\uCOS-III\Source\os_sem.c ****     OS_OBJ_QTY     cnt;
 890:C:\Micrium\Software\uCOS-III\Source\os_sem.c ****     OS_SEM_CTR     ctr;
 891:C:\Micrium\Software\uCOS-III\Source\os_sem.c ****     OS_PEND_LIST  *p_pend_list;
 892:C:\Micrium\Software\uCOS-III\Source\os_sem.c ****     OS_PEND_DATA  *p_pend_data;
 893:C:\Micrium\Software\uCOS-III\Source\os_sem.c ****     OS_PEND_DATA  *p_pend_data_next;
 894:C:\Micrium\Software\uCOS-III\Source\os_sem.c ****     OS_TCB        *p_tcb;
 895:C:\Micrium\Software\uCOS-III\Source\os_sem.c ****     CPU_SR_ALLOC();
 1295              		.loc 1 895 0
 1296 0010 4FF00003 		mov	r3, #0
 1297 0014 FB62     		str	r3, [r7, #44]
 896:C:\Micrium\Software\uCOS-III\Source\os_sem.c **** 
 897:C:\Micrium\Software\uCOS-III\Source\os_sem.c **** 
 898:C:\Micrium\Software\uCOS-III\Source\os_sem.c **** 
 899:C:\Micrium\Software\uCOS-III\Source\os_sem.c ****     CPU_CRITICAL_ENTER();
 1298              		.loc 1 899 0
 1299 0016 FFF7FEFF 		bl	CPU_SR_Save
 1300 001a 0346     		mov	r3, r0
 1301 001c FB62     		str	r3, [r7, #44]
 900:C:\Micrium\Software\uCOS-III\Source\os_sem.c ****     p_pend_list = &p_sem->PendList;
 1302              		.loc 1 900 0
 1303 001e FB68     		ldr	r3, [r7, #12]
 1304 0020 03F10803 		add	r3, r3, #8
 1305 0024 FB61     		str	r3, [r7, #28]
 901:C:\Micrium\Software\uCOS-III\Source\os_sem.c ****     if (p_pend_list->NbrEntries == (OS_OBJ_QTY)0) {         /* Any task waiting on semaphore?      
 1306              		.loc 1 901 0
 1307 0026 FB69     		ldr	r3, [r7, #28]
 1308 0028 1B89     		ldrh	r3, [r3, #8]
 1309 002a 002B     		cmp	r3, #0
 1310 002c 23D1     		bne	.L93
 902:C:\Micrium\Software\uCOS-III\Source\os_sem.c ****         switch (sizeof(OS_SEM_CTR)) {
 903:C:\Micrium\Software\uCOS-III\Source\os_sem.c ****             case 1u:
 904:C:\Micrium\Software\uCOS-III\Source\os_sem.c ****                  if (p_sem->Ctr == DEF_INT_08U_MAX_VAL) {
 905:C:\Micrium\Software\uCOS-III\Source\os_sem.c ****                      CPU_CRITICAL_EXIT();
 906:C:\Micrium\Software\uCOS-III\Source\os_sem.c ****                     *p_err = OS_ERR_SEM_OVF;
 907:C:\Micrium\Software\uCOS-III\Source\os_sem.c ****                      return ((OS_SEM_CTR)0);
 908:C:\Micrium\Software\uCOS-III\Source\os_sem.c ****                  }
ARM GAS  C:\Users\daniel01\AppData\Local\Temp\ccip0sTe.s 			page 40


 909:C:\Micrium\Software\uCOS-III\Source\os_sem.c ****                  break;
 910:C:\Micrium\Software\uCOS-III\Source\os_sem.c **** 
 911:C:\Micrium\Software\uCOS-III\Source\os_sem.c ****             case 2u:
 912:C:\Micrium\Software\uCOS-III\Source\os_sem.c ****                  if (p_sem->Ctr == DEF_INT_16U_MAX_VAL) {
 913:C:\Micrium\Software\uCOS-III\Source\os_sem.c ****                      CPU_CRITICAL_EXIT();
 914:C:\Micrium\Software\uCOS-III\Source\os_sem.c ****                     *p_err = OS_ERR_SEM_OVF;
 915:C:\Micrium\Software\uCOS-III\Source\os_sem.c ****                      return ((OS_SEM_CTR)0);
 916:C:\Micrium\Software\uCOS-III\Source\os_sem.c ****                  }
 917:C:\Micrium\Software\uCOS-III\Source\os_sem.c ****                  break;
 918:C:\Micrium\Software\uCOS-III\Source\os_sem.c **** 
 919:C:\Micrium\Software\uCOS-III\Source\os_sem.c ****             case 4u:
 920:C:\Micrium\Software\uCOS-III\Source\os_sem.c ****                  if (p_sem->Ctr == DEF_INT_32U_MAX_VAL) {
 1311              		.loc 1 920 0
 1312 002e FB68     		ldr	r3, [r7, #12]
 1313 0030 1B6A     		ldr	r3, [r3, #32]
 1314 0032 B3F1FF3F 		cmp	r3, #-1
 1315 0036 09D1     		bne	.L94
 921:C:\Micrium\Software\uCOS-III\Source\os_sem.c ****                      CPU_CRITICAL_EXIT();
 1316              		.loc 1 921 0
 1317 0038 F86A     		ldr	r0, [r7, #44]
 1318 003a FFF7FEFF 		bl	CPU_SR_Restore
 922:C:\Micrium\Software\uCOS-III\Source\os_sem.c ****                     *p_err = OS_ERR_SEM_OVF;
 1319              		.loc 1 922 0
 1320 003e 3B68     		ldr	r3, [r7, #0]
 1321 0040 46F6C552 		movw	r2, #28101
 1322 0044 1A80     		strh	r2, [r3, #0]	@ movhi
 923:C:\Micrium\Software\uCOS-III\Source\os_sem.c ****                      return ((OS_SEM_CTR)0);
 1323              		.loc 1 923 0
 1324 0046 4FF00003 		mov	r3, #0
 1325 004a 4FE0     		b	.L95
 1326              	.L94:
 924:C:\Micrium\Software\uCOS-III\Source\os_sem.c ****                  }
 925:C:\Micrium\Software\uCOS-III\Source\os_sem.c ****                  break;
 926:C:\Micrium\Software\uCOS-III\Source\os_sem.c **** 
 927:C:\Micrium\Software\uCOS-III\Source\os_sem.c ****             default:
 928:C:\Micrium\Software\uCOS-III\Source\os_sem.c ****                  break;
 929:C:\Micrium\Software\uCOS-III\Source\os_sem.c ****         }
 930:C:\Micrium\Software\uCOS-III\Source\os_sem.c ****         p_sem->Ctr++;                                       /* No                                  
 1327              		.loc 1 930 0
 1328 004c FB68     		ldr	r3, [r7, #12]
 1329 004e 1B6A     		ldr	r3, [r3, #32]
 1330 0050 03F10102 		add	r2, r3, #1
 1331 0054 FB68     		ldr	r3, [r7, #12]
 1332 0056 1A62     		str	r2, [r3, #32]
 931:C:\Micrium\Software\uCOS-III\Source\os_sem.c ****         ctr       = p_sem->Ctr;
 1333              		.loc 1 931 0
 1334 0058 FB68     		ldr	r3, [r7, #12]
 1335 005a 1B6A     		ldr	r3, [r3, #32]
 1336 005c BB61     		str	r3, [r7, #24]
 932:C:\Micrium\Software\uCOS-III\Source\os_sem.c ****         p_sem->TS = ts;                                     /* Save timestamp in semaphore control 
 1337              		.loc 1 932 0
 1338 005e FB68     		ldr	r3, [r7, #12]
 1339 0060 7A68     		ldr	r2, [r7, #4]
 1340 0062 5A62     		str	r2, [r3, #36]
 933:C:\Micrium\Software\uCOS-III\Source\os_sem.c ****         CPU_CRITICAL_EXIT();
 1341              		.loc 1 933 0
 1342 0064 F86A     		ldr	r0, [r7, #44]
ARM GAS  C:\Users\daniel01\AppData\Local\Temp\ccip0sTe.s 			page 41


 1343 0066 FFF7FEFF 		bl	CPU_SR_Restore
 934:C:\Micrium\Software\uCOS-III\Source\os_sem.c ****        *p_err     = OS_ERR_NONE;
 1344              		.loc 1 934 0
 1345 006a 3B68     		ldr	r3, [r7, #0]
 1346 006c 4FF00002 		mov	r2, #0
 1347 0070 1A80     		strh	r2, [r3, #0]	@ movhi
 935:C:\Micrium\Software\uCOS-III\Source\os_sem.c ****         return (ctr);
 1348              		.loc 1 935 0
 1349 0072 BB69     		ldr	r3, [r7, #24]
 1350 0074 3AE0     		b	.L95
 1351              	.L93:
 936:C:\Micrium\Software\uCOS-III\Source\os_sem.c ****     }
 937:C:\Micrium\Software\uCOS-III\Source\os_sem.c **** 
 938:C:\Micrium\Software\uCOS-III\Source\os_sem.c ****     OS_CRITICAL_ENTER_CPU_EXIT();
 939:C:\Micrium\Software\uCOS-III\Source\os_sem.c ****     if ((opt & OS_OPT_POST_ALL) != (OS_OPT)0) {             /* Post message to all tasks waiting?  
 1352              		.loc 1 939 0
 1353 0076 7B89     		ldrh	r3, [r7, #10]
 1354 0078 03F40073 		and	r3, r3, #512
 1355 007c 002B     		cmp	r3, #0
 1356 007e 03D0     		beq	.L96
 940:C:\Micrium\Software\uCOS-III\Source\os_sem.c ****         cnt = p_pend_list->NbrEntries;                      /* Yes                                 
 1357              		.loc 1 940 0
 1358 0080 FB69     		ldr	r3, [r7, #28]
 1359 0082 1B89     		ldrh	r3, [r3, #8]	@ movhi
 1360 0084 FB82     		strh	r3, [r7, #22]	@ movhi
 1361 0086 02E0     		b	.L97
 1362              	.L96:
 941:C:\Micrium\Software\uCOS-III\Source\os_sem.c ****     } else {
 942:C:\Micrium\Software\uCOS-III\Source\os_sem.c ****         cnt = (OS_OBJ_QTY)1;                                /* No                                  
 1363              		.loc 1 942 0
 1364 0088 4FF00103 		mov	r3, #1
 1365 008c FB82     		strh	r3, [r7, #22]	@ movhi
 1366              	.L97:
 943:C:\Micrium\Software\uCOS-III\Source\os_sem.c ****     }
 944:C:\Micrium\Software\uCOS-III\Source\os_sem.c ****     p_pend_data = p_pend_list->HeadPtr;
 1367              		.loc 1 944 0
 1368 008e FB69     		ldr	r3, [r7, #28]
 1369 0090 1B68     		ldr	r3, [r3, #0]
 1370 0092 3B62     		str	r3, [r7, #32]
 945:C:\Micrium\Software\uCOS-III\Source\os_sem.c ****     while (cnt > 0u) {
 1371              		.loc 1 945 0
 1372 0094 16E0     		b	.L98
 1373              	.L99:
 946:C:\Micrium\Software\uCOS-III\Source\os_sem.c ****         p_tcb            = p_pend_data->TCBPtr;
 1374              		.loc 1 946 0
 1375 0096 3B6A     		ldr	r3, [r7, #32]
 1376 0098 9B68     		ldr	r3, [r3, #8]
 1377 009a BB62     		str	r3, [r7, #40]
 947:C:\Micrium\Software\uCOS-III\Source\os_sem.c ****         p_pend_data_next = p_pend_data->NextPtr;
 1378              		.loc 1 947 0
 1379 009c 3B6A     		ldr	r3, [r7, #32]
 1380 009e 5B68     		ldr	r3, [r3, #4]
 1381 00a0 7B62     		str	r3, [r7, #36]
 948:C:\Micrium\Software\uCOS-III\Source\os_sem.c ****         OS_Post((OS_PEND_OBJ *)((void *)p_sem),
 1382              		.loc 1 948 0
 1383 00a2 FB68     		ldr	r3, [r7, #12]
 1384 00a4 7A68     		ldr	r2, [r7, #4]
ARM GAS  C:\Users\daniel01\AppData\Local\Temp\ccip0sTe.s 			page 42


 1385 00a6 0092     		str	r2, [sp, #0]
 1386 00a8 1846     		mov	r0, r3
 1387 00aa B96A     		ldr	r1, [r7, #40]
 1388 00ac 4FF00002 		mov	r2, #0
 1389 00b0 4FF00003 		mov	r3, #0
 1390 00b4 FFF7FEFF 		bl	OS_Post
 949:C:\Micrium\Software\uCOS-III\Source\os_sem.c ****                 p_tcb,
 950:C:\Micrium\Software\uCOS-III\Source\os_sem.c ****                 (void      *)0,
 951:C:\Micrium\Software\uCOS-III\Source\os_sem.c ****                 (OS_MSG_SIZE)0,
 952:C:\Micrium\Software\uCOS-III\Source\os_sem.c ****                 ts);
 953:C:\Micrium\Software\uCOS-III\Source\os_sem.c ****         p_pend_data = p_pend_data_next;
 1391              		.loc 1 953 0
 1392 00b8 7B6A     		ldr	r3, [r7, #36]
 1393 00ba 3B62     		str	r3, [r7, #32]
 954:C:\Micrium\Software\uCOS-III\Source\os_sem.c ****         cnt--;
 1394              		.loc 1 954 0
 1395 00bc FB8A     		ldrh	r3, [r7, #22]	@ movhi
 1396 00be 03F1FF33 		add	r3, r3, #-1
 1397 00c2 FB82     		strh	r3, [r7, #22]	@ movhi
 1398              	.L98:
 1399              		.loc 1 945 0
 1400 00c4 FB8A     		ldrh	r3, [r7, #22]
 1401 00c6 002B     		cmp	r3, #0
 1402 00c8 E5D1     		bne	.L99
 955:C:\Micrium\Software\uCOS-III\Source\os_sem.c ****     }
 956:C:\Micrium\Software\uCOS-III\Source\os_sem.c ****     ctr = p_sem->Ctr;
 1403              		.loc 1 956 0
 1404 00ca FB68     		ldr	r3, [r7, #12]
 1405 00cc 1B6A     		ldr	r3, [r3, #32]
 1406 00ce BB61     		str	r3, [r7, #24]
 957:C:\Micrium\Software\uCOS-III\Source\os_sem.c ****     OS_CRITICAL_EXIT_NO_SCHED();
 1407              		.loc 1 957 0
 1408 00d0 F86A     		ldr	r0, [r7, #44]
 1409 00d2 FFF7FEFF 		bl	CPU_SR_Restore
 958:C:\Micrium\Software\uCOS-III\Source\os_sem.c ****     if ((opt & OS_OPT_POST_NO_SCHED) == (OS_OPT)0) {
 1410              		.loc 1 958 0
 1411 00d6 7B89     		ldrh	r3, [r7, #10]
 1412 00d8 1BB2     		sxth	r3, r3
 1413 00da 002B     		cmp	r3, #0
 1414 00dc 01DB     		blt	.L100
 959:C:\Micrium\Software\uCOS-III\Source\os_sem.c ****         OSSched();                                          /* Run the scheduler                   
 1415              		.loc 1 959 0
 1416 00de FFF7FEFF 		bl	OSSched
 1417              	.L100:
 960:C:\Micrium\Software\uCOS-III\Source\os_sem.c ****     }
 961:C:\Micrium\Software\uCOS-III\Source\os_sem.c ****    *p_err = OS_ERR_NONE;
 1418              		.loc 1 961 0
 1419 00e2 3B68     		ldr	r3, [r7, #0]
 1420 00e4 4FF00002 		mov	r2, #0
 1421 00e8 1A80     		strh	r2, [r3, #0]	@ movhi
 962:C:\Micrium\Software\uCOS-III\Source\os_sem.c ****     return (ctr);
 1422              		.loc 1 962 0
 1423 00ea BB69     		ldr	r3, [r7, #24]
 1424              	.L95:
 963:C:\Micrium\Software\uCOS-III\Source\os_sem.c **** }
 1425              		.loc 1 963 0
 1426 00ec 1846     		mov	r0, r3
ARM GAS  C:\Users\daniel01\AppData\Local\Temp\ccip0sTe.s 			page 43


 1427 00ee 07F13007 		add	r7, r7, #48
 1428 00f2 BD46     		mov	sp, r7
 1429 00f4 80BD     		pop	{r7, pc}
 1430              		.cfi_endproc
 1431              	.LFE10:
 1432              		.size	OS_SemPost, .-OS_SemPost
 1433 00f6 00BF     		.text
 1434              	.Letext0:
 1435              		.section	.debug_loc,"",%progbits
 1436              	.Ldebug_loc0:
 1437              	.LLST0:
 1438 0000 00000000 		.4byte	.LFB0
 1439 0004 02000000 		.4byte	.LCFI0
 1440 0008 0100     		.2byte	0x1
 1441 000a 5D       		.byte	0x5d
 1442 000b 02000000 		.4byte	.LCFI0
 1443 000f 04000000 		.4byte	.LCFI1
 1444 0013 0200     		.2byte	0x2
 1445 0015 7D       		.byte	0x7d
 1446 0016 08       		.sleb128 8
 1447 0017 04000000 		.4byte	.LCFI1
 1448 001b 06000000 		.4byte	.LCFI2
 1449 001f 0200     		.2byte	0x2
 1450 0021 7D       		.byte	0x7d
 1451 0022 20       		.sleb128 32
 1452 0023 06000000 		.4byte	.LCFI2
 1453 0027 A6000000 		.4byte	.LFE0
 1454 002b 0200     		.2byte	0x2
 1455 002d 77       		.byte	0x77
 1456 002e 20       		.sleb128 32
 1457 002f 00000000 		.4byte	0x0
 1458 0033 00000000 		.4byte	0x0
 1459              	.LLST1:
 1460 0037 00000000 		.4byte	.LFB1
 1461 003b 02000000 		.4byte	.LCFI3
 1462 003f 0100     		.2byte	0x1
 1463 0041 5D       		.byte	0x5d
 1464 0042 02000000 		.4byte	.LCFI3
 1465 0046 04000000 		.4byte	.LCFI4
 1466 004a 0200     		.2byte	0x2
 1467 004c 7D       		.byte	0x7d
 1468 004d 08       		.sleb128 8
 1469 004e 04000000 		.4byte	.LCFI4
 1470 0052 06000000 		.4byte	.LCFI5
 1471 0056 0200     		.2byte	0x2
 1472 0058 7D       		.byte	0x7d
 1473 0059 30       		.sleb128 48
 1474 005a 06000000 		.4byte	.LCFI5
 1475 005e 52010000 		.4byte	.LFE1
 1476 0062 0200     		.2byte	0x2
 1477 0064 77       		.byte	0x77
 1478 0065 30       		.sleb128 48
 1479 0066 00000000 		.4byte	0x0
 1480 006a 00000000 		.4byte	0x0
 1481              	.LLST2:
 1482 006e 00000000 		.4byte	.LFB2
 1483 0072 02000000 		.4byte	.LCFI6
ARM GAS  C:\Users\daniel01\AppData\Local\Temp\ccip0sTe.s 			page 44


 1484 0076 0100     		.2byte	0x1
 1485 0078 5D       		.byte	0x5d
 1486 0079 02000000 		.4byte	.LCFI6
 1487 007d 04000000 		.4byte	.LCFI7
 1488 0081 0200     		.2byte	0x2
 1489 0083 7D       		.byte	0x7d
 1490 0084 08       		.sleb128 8
 1491 0085 04000000 		.4byte	.LCFI7
 1492 0089 06000000 		.4byte	.LCFI8
 1493 008d 0300     		.2byte	0x3
 1494 008f 7D       		.byte	0x7d
 1495 0090 C000     		.sleb128 64
 1496 0092 06000000 		.4byte	.LCFI8
 1497 0096 E8010000 		.4byte	.LFE2
 1498 009a 0300     		.2byte	0x3
 1499 009c 77       		.byte	0x77
 1500 009d C000     		.sleb128 64
 1501 009f 00000000 		.4byte	0x0
 1502 00a3 00000000 		.4byte	0x0
 1503              	.LLST3:
 1504 00a7 00000000 		.4byte	.LFB3
 1505 00ab 02000000 		.4byte	.LCFI9
 1506 00af 0100     		.2byte	0x1
 1507 00b1 5D       		.byte	0x5d
 1508 00b2 02000000 		.4byte	.LCFI9
 1509 00b6 04000000 		.4byte	.LCFI10
 1510 00ba 0200     		.2byte	0x2
 1511 00bc 7D       		.byte	0x7d
 1512 00bd 08       		.sleb128 8
 1513 00be 04000000 		.4byte	.LCFI10
 1514 00c2 06000000 		.4byte	.LCFI11
 1515 00c6 0200     		.2byte	0x2
 1516 00c8 7D       		.byte	0x7d
 1517 00c9 30       		.sleb128 48
 1518 00ca 06000000 		.4byte	.LCFI11
 1519 00ce 06010000 		.4byte	.LFE3
 1520 00d2 0200     		.2byte	0x2
 1521 00d4 77       		.byte	0x77
 1522 00d5 30       		.sleb128 48
 1523 00d6 00000000 		.4byte	0x0
 1524 00da 00000000 		.4byte	0x0
 1525              	.LLST4:
 1526 00de 00000000 		.4byte	.LFB4
 1527 00e2 02000000 		.4byte	.LCFI12
 1528 00e6 0100     		.2byte	0x1
 1529 00e8 5D       		.byte	0x5d
 1530 00e9 02000000 		.4byte	.LCFI12
 1531 00ed 04000000 		.4byte	.LCFI13
 1532 00f1 0200     		.2byte	0x2
 1533 00f3 7D       		.byte	0x7d
 1534 00f4 08       		.sleb128 8
 1535 00f5 04000000 		.4byte	.LCFI13
 1536 00f9 06000000 		.4byte	.LCFI14
 1537 00fd 0200     		.2byte	0x2
 1538 00ff 7D       		.byte	0x7d
 1539 0100 20       		.sleb128 32
 1540 0101 06000000 		.4byte	.LCFI14
ARM GAS  C:\Users\daniel01\AppData\Local\Temp\ccip0sTe.s 			page 45


 1541 0105 76000000 		.4byte	.LFE4
 1542 0109 0200     		.2byte	0x2
 1543 010b 77       		.byte	0x77
 1544 010c 20       		.sleb128 32
 1545 010d 00000000 		.4byte	0x0
 1546 0111 00000000 		.4byte	0x0
 1547              	.LLST5:
 1548 0115 00000000 		.4byte	.LFB5
 1549 0119 02000000 		.4byte	.LCFI15
 1550 011d 0100     		.2byte	0x1
 1551 011f 5D       		.byte	0x5d
 1552 0120 02000000 		.4byte	.LCFI15
 1553 0124 04000000 		.4byte	.LCFI16
 1554 0128 0200     		.2byte	0x2
 1555 012a 7D       		.byte	0x7d
 1556 012b 08       		.sleb128 8
 1557 012c 04000000 		.4byte	.LCFI16
 1558 0130 06000000 		.4byte	.LCFI17
 1559 0134 0200     		.2byte	0x2
 1560 0136 7D       		.byte	0x7d
 1561 0137 20       		.sleb128 32
 1562 0138 06000000 		.4byte	.LCFI17
 1563 013c 88000000 		.4byte	.LFE5
 1564 0140 0200     		.2byte	0x2
 1565 0142 77       		.byte	0x77
 1566 0143 20       		.sleb128 32
 1567 0144 00000000 		.4byte	0x0
 1568 0148 00000000 		.4byte	0x0
 1569              	.LLST6:
 1570 014c 00000000 		.4byte	.LFB6
 1571 0150 02000000 		.4byte	.LCFI18
 1572 0154 0100     		.2byte	0x1
 1573 0156 5D       		.byte	0x5d
 1574 0157 02000000 		.4byte	.LCFI18
 1575 015b 04000000 		.4byte	.LCFI19
 1576 015f 0200     		.2byte	0x2
 1577 0161 7D       		.byte	0x7d
 1578 0162 08       		.sleb128 8
 1579 0163 04000000 		.4byte	.LCFI19
 1580 0167 06000000 		.4byte	.LCFI20
 1581 016b 0200     		.2byte	0x2
 1582 016d 7D       		.byte	0x7d
 1583 016e 10       		.sleb128 16
 1584 016f 06000000 		.4byte	.LCFI20
 1585 0173 44000000 		.4byte	.LFE6
 1586 0177 0200     		.2byte	0x2
 1587 0179 77       		.byte	0x77
 1588 017a 10       		.sleb128 16
 1589 017b 00000000 		.4byte	0x0
 1590 017f 00000000 		.4byte	0x0
 1591              	.LLST7:
 1592 0183 00000000 		.4byte	.LFB7
 1593 0187 02000000 		.4byte	.LCFI21
 1594 018b 0100     		.2byte	0x1
 1595 018d 5D       		.byte	0x5d
 1596 018e 02000000 		.4byte	.LCFI21
 1597 0192 04000000 		.4byte	.LCFI22
ARM GAS  C:\Users\daniel01\AppData\Local\Temp\ccip0sTe.s 			page 46


 1598 0196 0200     		.2byte	0x2
 1599 0198 7D       		.byte	0x7d
 1600 0199 04       		.sleb128 4
 1601 019a 04000000 		.4byte	.LCFI22
 1602 019e 06000000 		.4byte	.LCFI23
 1603 01a2 0200     		.2byte	0x2
 1604 01a4 7D       		.byte	0x7d
 1605 01a5 10       		.sleb128 16
 1606 01a6 06000000 		.4byte	.LCFI23
 1607 01aa 66000000 		.4byte	.LFE7
 1608 01ae 0200     		.2byte	0x2
 1609 01b0 77       		.byte	0x77
 1610 01b1 10       		.sleb128 16
 1611 01b2 00000000 		.4byte	0x0
 1612 01b6 00000000 		.4byte	0x0
 1613              	.LLST8:
 1614 01ba 00000000 		.4byte	.LFB8
 1615 01be 02000000 		.4byte	.LCFI24
 1616 01c2 0100     		.2byte	0x1
 1617 01c4 5D       		.byte	0x5d
 1618 01c5 02000000 		.4byte	.LCFI24
 1619 01c9 04000000 		.4byte	.LCFI25
 1620 01cd 0200     		.2byte	0x2
 1621 01cf 7D       		.byte	0x7d
 1622 01d0 04       		.sleb128 4
 1623 01d1 04000000 		.4byte	.LCFI25
 1624 01d5 06000000 		.4byte	.LCFI26
 1625 01d9 0200     		.2byte	0x2
 1626 01db 7D       		.byte	0x7d
 1627 01dc 18       		.sleb128 24
 1628 01dd 06000000 		.4byte	.LCFI26
 1629 01e1 7C000000 		.4byte	.LFE8
 1630 01e5 0200     		.2byte	0x2
 1631 01e7 77       		.byte	0x77
 1632 01e8 18       		.sleb128 24
 1633 01e9 00000000 		.4byte	0x0
 1634 01ed 00000000 		.4byte	0x0
 1635              	.LLST9:
 1636 01f1 00000000 		.4byte	.LFB9
 1637 01f5 02000000 		.4byte	.LCFI27
 1638 01f9 0100     		.2byte	0x1
 1639 01fb 5D       		.byte	0x5d
 1640 01fc 02000000 		.4byte	.LCFI27
 1641 0200 04000000 		.4byte	.LCFI28
 1642 0204 0200     		.2byte	0x2
 1643 0206 7D       		.byte	0x7d
 1644 0207 04       		.sleb128 4
 1645 0208 04000000 		.4byte	.LCFI28
 1646 020c 06000000 		.4byte	.LCFI29
 1647 0210 0200     		.2byte	0x2
 1648 0212 7D       		.byte	0x7d
 1649 0213 10       		.sleb128 16
 1650 0214 06000000 		.4byte	.LCFI29
 1651 0218 36000000 		.4byte	.LFE9
 1652 021c 0200     		.2byte	0x2
 1653 021e 77       		.byte	0x77
 1654 021f 10       		.sleb128 16
ARM GAS  C:\Users\daniel01\AppData\Local\Temp\ccip0sTe.s 			page 47


 1655 0220 00000000 		.4byte	0x0
 1656 0224 00000000 		.4byte	0x0
 1657              	.LLST10:
 1658 0228 00000000 		.4byte	.LFB10
 1659 022c 02000000 		.4byte	.LCFI30
 1660 0230 0100     		.2byte	0x1
 1661 0232 5D       		.byte	0x5d
 1662 0233 02000000 		.4byte	.LCFI30
 1663 0237 04000000 		.4byte	.LCFI31
 1664 023b 0200     		.2byte	0x2
 1665 023d 7D       		.byte	0x7d
 1666 023e 08       		.sleb128 8
 1667 023f 04000000 		.4byte	.LCFI31
 1668 0243 06000000 		.4byte	.LCFI32
 1669 0247 0300     		.2byte	0x3
 1670 0249 7D       		.byte	0x7d
 1671 024a C000     		.sleb128 64
 1672 024c 06000000 		.4byte	.LCFI32
 1673 0250 F6000000 		.4byte	.LFE10
 1674 0254 0200     		.2byte	0x2
 1675 0256 77       		.byte	0x77
 1676 0257 38       		.sleb128 56
 1677 0258 00000000 		.4byte	0x0
 1678 025c 00000000 		.4byte	0x0
 1679              		.file 2 "..\\..\\..\\..\\..\\..\\uC-CPU\\ARM-Cortex-M3\\GNU/cpu.h"
 1680              		.file 3 "..\\..\\..\\..\\..\\..\\uC-CPU/cpu_core.h"
 1681              		.file 4 "..\\..\\..\\..\\..\\..\\uCOS-III\\Source/os_type.h"
 1682              		.file 5 "..\\..\\..\\..\\..\\..\\uCOS-III\\Source/os.h"
 1683              		.section	.debug_info
 1684 0000 03120000 		.4byte	0x1203
 1685 0004 0200     		.2byte	0x2
 1686 0006 00000000 		.4byte	.Ldebug_abbrev0
 1687 000a 04       		.byte	0x4
 1688 000b 01       		.uleb128 0x1
 1689 000c 30000000 		.4byte	.LASF311
 1690 0010 01       		.byte	0x1
 1691 0011 A2010000 		.4byte	.LASF312
 1692 0015 96110000 		.4byte	.LASF313
 1693 0019 00000000 		.4byte	0x0
 1694 001d 00000000 		.4byte	0x0
 1695 0021 00000000 		.4byte	.Ldebug_ranges0+0x0
 1696 0025 00000000 		.4byte	.Ldebug_line0
 1697 0029 02       		.uleb128 0x2
 1698 002a D4060000 		.4byte	.LASF2
 1699 002e 02       		.byte	0x2
 1700 002f 76       		.byte	0x76
 1701 0030 34000000 		.4byte	0x34
 1702 0034 03       		.uleb128 0x3
 1703 0035 01       		.byte	0x1
 1704 0036 08       		.byte	0x8
 1705 0037 6B080000 		.4byte	.LASF0
 1706 003b 03       		.uleb128 0x3
 1707 003c 01       		.byte	0x1
 1708 003d 08       		.byte	0x8
 1709 003e 4F0F0000 		.4byte	.LASF1
 1710 0042 02       		.uleb128 0x2
 1711 0043 BD050000 		.4byte	.LASF3
ARM GAS  C:\Users\daniel01\AppData\Local\Temp\ccip0sTe.s 			page 48


 1712 0047 02       		.byte	0x2
 1713 0048 78       		.byte	0x78
 1714 0049 3B000000 		.4byte	0x3b
 1715 004d 03       		.uleb128 0x3
 1716 004e 01       		.byte	0x1
 1717 004f 06       		.byte	0x6
 1718 0050 90100000 		.4byte	.LASF4
 1719 0054 02       		.uleb128 0x2
 1720 0055 FE090000 		.4byte	.LASF5
 1721 0059 02       		.byte	0x2
 1722 005a 7A       		.byte	0x7a
 1723 005b 5F000000 		.4byte	0x5f
 1724 005f 03       		.uleb128 0x3
 1725 0060 02       		.byte	0x2
 1726 0061 07       		.byte	0x7
 1727 0062 B6100000 		.4byte	.LASF6
 1728 0066 03       		.uleb128 0x3
 1729 0067 02       		.byte	0x2
 1730 0068 05       		.byte	0x5
 1731 0069 F50C0000 		.4byte	.LASF7
 1732 006d 02       		.uleb128 0x2
 1733 006e CF010000 		.4byte	.LASF8
 1734 0072 02       		.byte	0x2
 1735 0073 7C       		.byte	0x7c
 1736 0074 78000000 		.4byte	0x78
 1737 0078 03       		.uleb128 0x3
 1738 0079 04       		.byte	0x4
 1739 007a 07       		.byte	0x7
 1740 007b 340E0000 		.4byte	.LASF9
 1741 007f 04       		.uleb128 0x4
 1742 0080 04       		.byte	0x4
 1743 0081 05       		.byte	0x5
 1744 0082 696E7400 		.ascii	"int\000"
 1745 0086 03       		.uleb128 0x3
 1746 0087 08       		.byte	0x8
 1747 0088 07       		.byte	0x7
 1748 0089 FF040000 		.4byte	.LASF10
 1749 008d 03       		.uleb128 0x3
 1750 008e 08       		.byte	0x8
 1751 008f 05       		.byte	0x5
 1752 0090 7E090000 		.4byte	.LASF11
 1753 0094 03       		.uleb128 0x3
 1754 0095 04       		.byte	0x4
 1755 0096 04       		.byte	0x4
 1756 0097 5C040000 		.4byte	.LASF12
 1757 009b 03       		.uleb128 0x3
 1758 009c 08       		.byte	0x8
 1759 009d 04       		.byte	0x4
 1760 009e 35110000 		.4byte	.LASF13
 1761 00a2 05       		.uleb128 0x5
 1762 00a3 04       		.byte	0x4
 1763 00a4 A8000000 		.4byte	0xa8
 1764 00a8 06       		.uleb128 0x6
 1765 00a9 01       		.byte	0x1
 1766 00aa B4000000 		.4byte	0xb4
 1767 00ae 07       		.uleb128 0x7
 1768 00af B4000000 		.4byte	0xb4
ARM GAS  C:\Users\daniel01\AppData\Local\Temp\ccip0sTe.s 			page 49


 1769 00b3 00       		.byte	0x0
 1770 00b4 08       		.uleb128 0x8
 1771 00b5 04       		.byte	0x4
 1772 00b6 02       		.uleb128 0x2
 1773 00b7 C40E0000 		.4byte	.LASF14
 1774 00bb 02       		.byte	0x2
 1775 00bc B5       		.byte	0xb5
 1776 00bd 6D000000 		.4byte	0x6d
 1777 00c1 02       		.uleb128 0x2
 1778 00c2 48130000 		.4byte	.LASF15
 1779 00c6 02       		.byte	0x2
 1780 00c7 D9       		.byte	0xd9
 1781 00c8 6D000000 		.4byte	0x6d
 1782 00cc 02       		.uleb128 0x2
 1783 00cd FF060000 		.4byte	.LASF16
 1784 00d1 02       		.byte	0x2
 1785 00d2 DA       		.byte	0xda
 1786 00d3 B6000000 		.4byte	0xb6
 1787 00d7 09       		.uleb128 0x9
 1788 00d8 B0080000 		.4byte	.LASF17
 1789 00dc 02       		.byte	0x2
 1790 00dd 2901     		.2byte	0x129
 1791 00df 6D000000 		.4byte	0x6d
 1792 00e3 02       		.uleb128 0x2
 1793 00e4 C50A0000 		.4byte	.LASF18
 1794 00e8 03       		.byte	0x3
 1795 00e9 C4       		.byte	0xc4
 1796 00ea 6D000000 		.4byte	0x6d
 1797 00ee 02       		.uleb128 0x2
 1798 00ef 77090000 		.4byte	.LASF19
 1799 00f3 03       		.byte	0x3
 1800 00f4 C7       		.byte	0xc7
 1801 00f5 E3000000 		.4byte	0xe3
 1802 00f9 02       		.uleb128 0x2
 1803 00fa 95010000 		.4byte	.LASF20
 1804 00fe 04       		.byte	0x4
 1805 00ff 30       		.byte	0x30
 1806 0100 54000000 		.4byte	0x54
 1807 0104 02       		.uleb128 0x2
 1808 0105 22000000 		.4byte	.LASF21
 1809 0109 04       		.byte	0x4
 1810 010a 34       		.byte	0x34
 1811 010b 6D000000 		.4byte	0x6d
 1812 010f 02       		.uleb128 0x2
 1813 0110 0A0F0000 		.4byte	.LASF22
 1814 0114 04       		.byte	0x4
 1815 0115 36       		.byte	0x36
 1816 0116 6D000000 		.4byte	0x6d
 1817 011a 02       		.uleb128 0x2
 1818 011b C9100000 		.4byte	.LASF23
 1819 011f 04       		.byte	0x4
 1820 0120 38       		.byte	0x38
 1821 0121 6D000000 		.4byte	0x6d
 1822 0125 02       		.uleb128 0x2
 1823 0126 0C070000 		.4byte	.LASF24
 1824 012a 04       		.byte	0x4
 1825 012b 3F       		.byte	0x3f
ARM GAS  C:\Users\daniel01\AppData\Local\Temp\ccip0sTe.s 			page 50


 1826 012c 54000000 		.4byte	0x54
 1827 0130 02       		.uleb128 0x2
 1828 0131 8E060000 		.4byte	.LASF25
 1829 0135 04       		.byte	0x4
 1830 0136 40       		.byte	0x40
 1831 0137 54000000 		.4byte	0x54
 1832 013b 02       		.uleb128 0x2
 1833 013c 880D0000 		.4byte	.LASF26
 1834 0140 04       		.byte	0x4
 1835 0141 42       		.byte	0x42
 1836 0142 42000000 		.4byte	0x42
 1837 0146 02       		.uleb128 0x2
 1838 0147 89020000 		.4byte	.LASF27
 1839 014b 04       		.byte	0x4
 1840 014c 44       		.byte	0x44
 1841 014d 54000000 		.4byte	0x54
 1842 0151 02       		.uleb128 0x2
 1843 0152 7F080000 		.4byte	.LASF28
 1844 0156 04       		.byte	0x4
 1845 0157 45       		.byte	0x45
 1846 0158 6D000000 		.4byte	0x6d
 1847 015c 02       		.uleb128 0x2
 1848 015d A30F0000 		.4byte	.LASF29
 1849 0161 04       		.byte	0x4
 1850 0162 47       		.byte	0x47
 1851 0163 54000000 		.4byte	0x54
 1852 0167 02       		.uleb128 0x2
 1853 0168 54040000 		.4byte	.LASF30
 1854 016c 04       		.byte	0x4
 1855 016d 49       		.byte	0x49
 1856 016e 42000000 		.4byte	0x42
 1857 0172 02       		.uleb128 0x2
 1858 0173 25060000 		.4byte	.LASF31
 1859 0177 04       		.byte	0x4
 1860 0178 4F       		.byte	0x4f
 1861 0179 6D000000 		.4byte	0x6d
 1862 017d 02       		.uleb128 0x2
 1863 017e FB0A0000 		.4byte	.LASF32
 1864 0182 04       		.byte	0x4
 1865 0183 52       		.byte	0x52
 1866 0184 6D000000 		.4byte	0x6d
 1867 0188 02       		.uleb128 0x2
 1868 0189 920F0000 		.4byte	.LASF33
 1869 018d 04       		.byte	0x4
 1870 018e 54       		.byte	0x54
 1871 018f 42000000 		.4byte	0x42
 1872 0193 02       		.uleb128 0x2
 1873 0194 46060000 		.4byte	.LASF34
 1874 0198 04       		.byte	0x4
 1875 0199 56       		.byte	0x56
 1876 019a 42000000 		.4byte	0x42
 1877 019e 02       		.uleb128 0x2
 1878 019f 710A0000 		.4byte	.LASF35
 1879 01a3 04       		.byte	0x4
 1880 01a4 58       		.byte	0x58
 1881 01a5 6D000000 		.4byte	0x6d
 1882 01a9 0A       		.uleb128 0xa
ARM GAS  C:\Users\daniel01\AppData\Local\Temp\ccip0sTe.s 			page 51


 1883 01aa 59010000 		.4byte	.LASF314
 1884 01ae 02       		.byte	0x2
 1885 01af 05       		.byte	0x5
 1886 01b0 A501     		.2byte	0x1a5
 1887 01b2 BD060000 		.4byte	0x6bd
 1888 01b6 0B       		.uleb128 0xb
 1889 01b7 F2100000 		.4byte	.LASF36
 1890 01bb 00       		.sleb128 0
 1891 01bc 0B       		.uleb128 0xb
 1892 01bd 67000000 		.4byte	.LASF37
 1893 01c1 90CE00   		.sleb128 10000
 1894 01c4 0B       		.uleb128 0xb
 1895 01c5 F9020000 		.4byte	.LASF38
 1896 01c9 91CE00   		.sleb128 10001
 1897 01cc 0B       		.uleb128 0xb
 1898 01cd 70000000 		.4byte	.LASF39
 1899 01d1 F8D500   		.sleb128 11000
 1900 01d4 0B       		.uleb128 0xb
 1901 01d5 79000000 		.4byte	.LASF40
 1902 01d9 E0DD00   		.sleb128 12000
 1903 01dc 0B       		.uleb128 0xb
 1904 01dd 7D010000 		.4byte	.LASF41
 1905 01e1 E1DD00   		.sleb128 12001
 1906 01e4 0B       		.uleb128 0xb
 1907 01e5 82000000 		.4byte	.LASF42
 1908 01e9 C8E500   		.sleb128 13000
 1909 01ec 0B       		.uleb128 0xb
 1910 01ed 3B080000 		.4byte	.LASF43
 1911 01f1 C9E500   		.sleb128 13001
 1912 01f4 0B       		.uleb128 0xb
 1913 01f5 8B000000 		.4byte	.LASF44
 1914 01f9 B0ED00   		.sleb128 14000
 1915 01fc 0B       		.uleb128 0xb
 1916 01fd 94000000 		.4byte	.LASF45
 1917 0201 98F500   		.sleb128 15000
 1918 0204 0B       		.uleb128 0xb
 1919 0205 A2100000 		.4byte	.LASF46
 1920 0209 99F500   		.sleb128 15001
 1921 020c 0B       		.uleb128 0xb
 1922 020d 8E070000 		.4byte	.LASF47
 1923 0211 FDF500   		.sleb128 15101
 1924 0214 0B       		.uleb128 0xb
 1925 0215 820E0000 		.4byte	.LASF48
 1926 0219 FEF500   		.sleb128 15102
 1927 021c 0B       		.uleb128 0xb
 1928 021d 8C090000 		.4byte	.LASF49
 1929 0221 FFF500   		.sleb128 15103
 1930 0224 0B       		.uleb128 0xb
 1931 0225 1F110000 		.4byte	.LASF50
 1932 0229 80F600   		.sleb128 15104
 1933 022c 0B       		.uleb128 0xb
 1934 022d 9D000000 		.4byte	.LASF51
 1935 0231 80FD00   		.sleb128 16000
 1936 0234 0B       		.uleb128 0xb
 1937 0235 A6000000 		.4byte	.LASF52
 1938 0239 E88401   		.sleb128 17000
 1939 023c 0B       		.uleb128 0xb
ARM GAS  C:\Users\daniel01\AppData\Local\Temp\ccip0sTe.s 			page 52


 1940 023d AF000000 		.4byte	.LASF53
 1941 0241 D08C01   		.sleb128 18000
 1942 0244 0B       		.uleb128 0xb
 1943 0245 F3030000 		.4byte	.LASF54
 1944 0249 D18C01   		.sleb128 18001
 1945 024c 0B       		.uleb128 0xb
 1946 024d CD020000 		.4byte	.LASF55
 1947 0251 D28C01   		.sleb128 18002
 1948 0254 0B       		.uleb128 0xb
 1949 0255 BE030000 		.4byte	.LASF56
 1950 0259 D38C01   		.sleb128 18003
 1951 025c 0B       		.uleb128 0xb
 1952 025d 6B010000 		.4byte	.LASF57
 1953 0261 D48C01   		.sleb128 18004
 1954 0264 0B       		.uleb128 0xb
 1955 0265 3E100000 		.4byte	.LASF58
 1956 0269 D58C01   		.sleb128 18005
 1957 026c 0B       		.uleb128 0xb
 1958 026d C00B0000 		.4byte	.LASF59
 1959 0271 D68C01   		.sleb128 18006
 1960 0274 0B       		.uleb128 0xb
 1961 0275 B8000000 		.4byte	.LASF60
 1962 0279 B89401   		.sleb128 19000
 1963 027c 0B       		.uleb128 0xb
 1964 027d C1000000 		.4byte	.LASF61
 1965 0281 A09C01   		.sleb128 20000
 1966 0284 0B       		.uleb128 0xb
 1967 0285 CA000000 		.4byte	.LASF62
 1968 0289 88A401   		.sleb128 21000
 1969 028c 0B       		.uleb128 0xb
 1970 028d C50C0000 		.4byte	.LASF63
 1971 0291 89A401   		.sleb128 21001
 1972 0294 0B       		.uleb128 0xb
 1973 0295 D3000000 		.4byte	.LASF64
 1974 0299 F0AB01   		.sleb128 22000
 1975 029c 0B       		.uleb128 0xb
 1976 029d B60F0000 		.4byte	.LASF65
 1977 02a1 B9AD01   		.sleb128 22201
 1978 02a4 0B       		.uleb128 0xb
 1979 02a5 790A0000 		.4byte	.LASF66
 1980 02a9 BAAD01   		.sleb128 22202
 1981 02ac 0B       		.uleb128 0xb
 1982 02ad A50C0000 		.4byte	.LASF67
 1983 02b1 BBAD01   		.sleb128 22203
 1984 02b4 0B       		.uleb128 0xb
 1985 02b5 A7070000 		.4byte	.LASF68
 1986 02b9 BCAD01   		.sleb128 22204
 1987 02bc 0B       		.uleb128 0xb
 1988 02bd 250A0000 		.4byte	.LASF69
 1989 02c1 BDAD01   		.sleb128 22205
 1990 02c4 0B       		.uleb128 0xb
 1991 02c5 8C0C0000 		.4byte	.LASF70
 1992 02c9 BEAD01   		.sleb128 22206
 1993 02cc 0B       		.uleb128 0xb
 1994 02cd AC0A0000 		.4byte	.LASF71
 1995 02d1 BFAD01   		.sleb128 22207
 1996 02d4 0B       		.uleb128 0xb
ARM GAS  C:\Users\daniel01\AppData\Local\Temp\ccip0sTe.s 			page 53


 1997 02d5 9D040000 		.4byte	.LASF72
 1998 02d9 C0AD01   		.sleb128 22208
 1999 02dc 0B       		.uleb128 0xb
 2000 02dd 4E120000 		.4byte	.LASF73
 2001 02e1 C1AD01   		.sleb128 22209
 2002 02e4 0B       		.uleb128 0xb
 2003 02e5 30130000 		.4byte	.LASF74
 2004 02e9 C2AD01   		.sleb128 22210
 2005 02ec 0B       		.uleb128 0xb
 2006 02ed 0A0D0000 		.4byte	.LASF75
 2007 02f1 9DAE01   		.sleb128 22301
 2008 02f4 0B       		.uleb128 0xb
 2009 02f5 6F0D0000 		.4byte	.LASF76
 2010 02f9 9EAE01   		.sleb128 22302
 2011 02fc 0B       		.uleb128 0xb
 2012 02fd 77060000 		.4byte	.LASF77
 2013 0301 81AF01   		.sleb128 22401
 2014 0304 0B       		.uleb128 0xb
 2015 0305 490E0000 		.4byte	.LASF78
 2016 0309 82AF01   		.sleb128 22402
 2017 030c 0B       		.uleb128 0xb
 2018 030d 23030000 		.4byte	.LASF79
 2019 0311 83AF01   		.sleb128 22403
 2020 0314 0B       		.uleb128 0xb
 2021 0315 DC000000 		.4byte	.LASF80
 2022 0319 D8B301   		.sleb128 23000
 2023 031c 0B       		.uleb128 0xb
 2024 031d 2C060000 		.4byte	.LASF81
 2025 0321 D9B301   		.sleb128 23001
 2026 0324 0B       		.uleb128 0xb
 2027 0325 77040000 		.4byte	.LASF82
 2028 0329 DAB301   		.sleb128 23002
 2029 032c 0B       		.uleb128 0xb
 2030 032d E5000000 		.4byte	.LASF83
 2031 0331 C0BB01   		.sleb128 24000
 2032 0334 0B       		.uleb128 0xb
 2033 0335 8A030000 		.4byte	.LASF84
 2034 0339 C1BB01   		.sleb128 24001
 2035 033c 0B       		.uleb128 0xb
 2036 033d 68090000 		.4byte	.LASF85
 2037 0341 C2BB01   		.sleb128 24002
 2038 0344 0B       		.uleb128 0xb
 2039 0345 3D0A0000 		.4byte	.LASF86
 2040 0349 C3BB01   		.sleb128 24003
 2041 034c 0B       		.uleb128 0xb
 2042 034d D70D0000 		.4byte	.LASF87
 2043 0351 C4BB01   		.sleb128 24004
 2044 0354 0B       		.uleb128 0xb
 2045 0355 9D080000 		.4byte	.LASF88
 2046 0359 A5BC01   		.sleb128 24101
 2047 035c 0B       		.uleb128 0xb
 2048 035d 3D0C0000 		.4byte	.LASF89
 2049 0361 89BD01   		.sleb128 24201
 2050 0364 0B       		.uleb128 0xb
 2051 0365 17070000 		.4byte	.LASF90
 2052 0369 8ABD01   		.sleb128 24202
 2053 036c 0B       		.uleb128 0xb
ARM GAS  C:\Users\daniel01\AppData\Local\Temp\ccip0sTe.s 			page 54


 2054 036d EE000000 		.4byte	.LASF91
 2055 0371 A8C301   		.sleb128 25000
 2056 0374 0B       		.uleb128 0xb
 2057 0375 3C110000 		.4byte	.LASF92
 2058 0379 A9C301   		.sleb128 25001
 2059 037c 0B       		.uleb128 0xb
 2060 037d AE0E0000 		.4byte	.LASF93
 2061 0381 AAC301   		.sleb128 25002
 2062 0384 0B       		.uleb128 0xb
 2063 0385 1D0E0000 		.4byte	.LASF94
 2064 0389 ABC301   		.sleb128 25003
 2065 038c 0B       		.uleb128 0xb
 2066 038d E7090000 		.4byte	.LASF95
 2067 0391 ACC301   		.sleb128 25004
 2068 0394 0B       		.uleb128 0xb
 2069 0395 7B110000 		.4byte	.LASF96
 2070 0399 ADC301   		.sleb128 25005
 2071 039c 0B       		.uleb128 0xb
 2072 039d EB0F0000 		.4byte	.LASF97
 2073 03a1 AEC301   		.sleb128 25006
 2074 03a4 0B       		.uleb128 0xb
 2075 03a5 76020000 		.4byte	.LASF98
 2076 03a9 AFC301   		.sleb128 25007
 2077 03ac 0B       		.uleb128 0xb
 2078 03ad 19020000 		.4byte	.LASF99
 2079 03b1 B0C301   		.sleb128 25008
 2080 03b4 0B       		.uleb128 0xb
 2081 03b5 62040000 		.4byte	.LASF100
 2082 03b9 8DC401   		.sleb128 25101
 2083 03bc 0B       		.uleb128 0xb
 2084 03bd CD0E0000 		.4byte	.LASF101
 2085 03c1 8EC401   		.sleb128 25102
 2086 03c4 0B       		.uleb128 0xb
 2087 03c5 15130000 		.4byte	.LASF102
 2088 03c9 F1C401   		.sleb128 25201
 2089 03cc 0B       		.uleb128 0xb
 2090 03cd 6F110000 		.4byte	.LASF103
 2091 03d1 F2C401   		.sleb128 25202
 2092 03d4 0B       		.uleb128 0xb
 2093 03d5 07000000 		.4byte	.LASF104
 2094 03d9 F3C401   		.sleb128 25203
 2095 03dc 0B       		.uleb128 0xb
 2096 03dd 0D0C0000 		.4byte	.LASF105
 2097 03e1 D5C501   		.sleb128 25301
 2098 03e4 0B       		.uleb128 0xb
 2099 03e5 F7000000 		.4byte	.LASF106
 2100 03e9 90CB01   		.sleb128 26000
 2101 03ec 0B       		.uleb128 0xb
 2102 03ed 30100000 		.4byte	.LASF107
 2103 03f1 91CB01   		.sleb128 26001
 2104 03f4 0B       		.uleb128 0xb
 2105 03f5 F5050000 		.4byte	.LASF108
 2106 03f9 92CB01   		.sleb128 26002
 2107 03fc 0B       		.uleb128 0xb
 2108 03fd 4A080000 		.4byte	.LASF109
 2109 0401 93CB01   		.sleb128 26003
 2110 0404 0B       		.uleb128 0xb
ARM GAS  C:\Users\daniel01\AppData\Local\Temp\ccip0sTe.s 			page 55


 2111 0405 BC090000 		.4byte	.LASF110
 2112 0409 94CB01   		.sleb128 26004
 2113 040c 0B       		.uleb128 0xb
 2114 040d 00010000 		.4byte	.LASF111
 2115 0411 F8D201   		.sleb128 27000
 2116 0414 0B       		.uleb128 0xb
 2117 0415 510A0000 		.4byte	.LASF112
 2118 0419 F9D201   		.sleb128 27001
 2119 041c 0B       		.uleb128 0xb
 2120 041d 770C0000 		.4byte	.LASF113
 2121 0421 FAD201   		.sleb128 27002
 2122 0424 0B       		.uleb128 0xb
 2123 0425 090A0000 		.4byte	.LASF114
 2124 0429 FBD201   		.sleb128 27003
 2125 042c 0B       		.uleb128 0xb
 2126 042d 09010000 		.4byte	.LASF115
 2127 0431 E0DA01   		.sleb128 28000
 2128 0434 0B       		.uleb128 0xb
 2129 0435 B7080000 		.4byte	.LASF116
 2130 0439 E1DA01   		.sleb128 28001
 2131 043c 0B       		.uleb128 0xb
 2132 043d 08080000 		.4byte	.LASF117
 2133 0441 E2DA01   		.sleb128 28002
 2134 0444 0B       		.uleb128 0xb
 2135 0445 0B110000 		.4byte	.LASF118
 2136 0449 E3DA01   		.sleb128 28003
 2137 044c 0B       		.uleb128 0xb
 2138 044d 57110000 		.4byte	.LASF119
 2139 0451 E4DA01   		.sleb128 28004
 2140 0454 0B       		.uleb128 0xb
 2141 0455 200D0000 		.4byte	.LASF120
 2142 0459 E5DA01   		.sleb128 28005
 2143 045c 0B       		.uleb128 0xb
 2144 045d 9E120000 		.4byte	.LASF121
 2145 0461 C5DB01   		.sleb128 28101
 2146 0464 0B       		.uleb128 0xb
 2147 0465 7C120000 		.4byte	.LASF122
 2148 0469 C6DB01   		.sleb128 28102
 2149 046c 0B       		.uleb128 0xb
 2150 046d 60020000 		.4byte	.LASF123
 2151 0471 A9DC01   		.sleb128 28201
 2152 0474 0B       		.uleb128 0xb
 2153 0475 FE080000 		.4byte	.LASF124
 2154 0479 AADC01   		.sleb128 28202
 2155 047c 0B       		.uleb128 0xb
 2156 047d 76070000 		.4byte	.LASF125
 2157 0481 ABDC01   		.sleb128 28203
 2158 0484 0B       		.uleb128 0xb
 2159 0485 650E0000 		.4byte	.LASF126
 2160 0489 ACDC01   		.sleb128 28204
 2161 048c 0B       		.uleb128 0xb
 2162 048d 200C0000 		.4byte	.LASF127
 2163 0491 ADDC01   		.sleb128 28205
 2164 0494 0B       		.uleb128 0xb
 2165 0495 CC0F0000 		.4byte	.LASF128
 2166 0499 AEDC01   		.sleb128 28206
 2167 049c 0B       		.uleb128 0xb
ARM GAS  C:\Users\daniel01\AppData\Local\Temp\ccip0sTe.s 			page 56


 2168 049d E6010000 		.4byte	.LASF129
 2169 04a1 AFDC01   		.sleb128 28207
 2170 04a4 0B       		.uleb128 0xb
 2171 04a5 240F0000 		.4byte	.LASF130
 2172 04a9 B0DC01   		.sleb128 28208
 2173 04ac 0B       		.uleb128 0xb
 2174 04ad F10E0000 		.4byte	.LASF131
 2175 04b1 B1DC01   		.sleb128 28209
 2176 04b4 0B       		.uleb128 0xb
 2177 04b5 12010000 		.4byte	.LASF132
 2178 04b9 C8E201   		.sleb128 29000
 2179 04bc 0B       		.uleb128 0xb
 2180 04bd 3A020000 		.4byte	.LASF133
 2181 04c1 C9E201   		.sleb128 29001
 2182 04c4 0B       		.uleb128 0xb
 2183 04c5 E8060000 		.4byte	.LASF134
 2184 04c9 CAE201   		.sleb128 29002
 2185 04cc 0B       		.uleb128 0xb
 2186 04cd 73100000 		.4byte	.LASF135
 2187 04d1 CBE201   		.sleb128 29003
 2188 04d4 0B       		.uleb128 0xb
 2189 04d5 AD120000 		.4byte	.LASF136
 2190 04d9 CCE201   		.sleb128 29004
 2191 04dc 0B       		.uleb128 0xb
 2192 04dd 7E050000 		.4byte	.LASF137
 2193 04e1 CDE201   		.sleb128 29005
 2194 04e4 0B       		.uleb128 0xb
 2195 04e5 ED0B0000 		.4byte	.LASF138
 2196 04e9 CEE201   		.sleb128 29006
 2197 04ec 0B       		.uleb128 0xb
 2198 04ed 6C0B0000 		.4byte	.LASF139
 2199 04f1 CFE201   		.sleb128 29007
 2200 04f4 0B       		.uleb128 0xb
 2201 04f5 890A0000 		.4byte	.LASF140
 2202 04f9 D0E201   		.sleb128 29008
 2203 04fc 0B       		.uleb128 0xb
 2204 04fd AE020000 		.4byte	.LASF141
 2205 0501 D1E201   		.sleb128 29009
 2206 0504 0B       		.uleb128 0xb
 2207 0505 450B0000 		.4byte	.LASF142
 2208 0509 D2E201   		.sleb128 29010
 2209 050c 0B       		.uleb128 0xb
 2210 050d 94020000 		.4byte	.LASF143
 2211 0511 D3E201   		.sleb128 29011
 2212 0514 0B       		.uleb128 0xb
 2213 0515 5D0F0000 		.4byte	.LASF144
 2214 0519 D4E201   		.sleb128 29012
 2215 051c 0B       		.uleb128 0xb
 2216 051d 02020000 		.4byte	.LASF145
 2217 0521 D5E201   		.sleb128 29013
 2218 0524 0B       		.uleb128 0xb
 2219 0525 3C040000 		.4byte	.LASF146
 2220 0529 D6E201   		.sleb128 29014
 2221 052c 0B       		.uleb128 0xb
 2222 052d AA0D0000 		.4byte	.LASF147
 2223 0531 D7E201   		.sleb128 29015
 2224 0534 0B       		.uleb128 0xb
ARM GAS  C:\Users\daniel01\AppData\Local\Temp\ccip0sTe.s 			page 57


 2225 0535 16050000 		.4byte	.LASF148
 2226 0539 D8E201   		.sleb128 29016
 2227 053c 0B       		.uleb128 0xb
 2228 053d DD0C0000 		.4byte	.LASF149
 2229 0541 D9E201   		.sleb128 29017
 2230 0544 0B       		.uleb128 0xb
 2231 0545 66120000 		.4byte	.LASF150
 2232 0549 DAE201   		.sleb128 29018
 2233 054c 0B       		.uleb128 0xb
 2234 054d A5030000 		.4byte	.LASF151
 2235 0551 DBE201   		.sleb128 29019
 2236 0554 0B       		.uleb128 0xb
 2237 0555 5E050000 		.4byte	.LASF152
 2238 0559 DCE201   		.sleb128 29020
 2239 055c 0B       		.uleb128 0xb
 2240 055d 0B030000 		.4byte	.LASF153
 2241 0561 DDE201   		.sleb128 29021
 2242 0564 0B       		.uleb128 0xb
 2243 0565 9D0B0000 		.4byte	.LASF154
 2244 0569 DEE201   		.sleb128 29022
 2245 056c 0B       		.uleb128 0xb
 2246 056d E5020000 		.4byte	.LASF155
 2247 0571 DFE201   		.sleb128 29023
 2248 0574 0B       		.uleb128 0xb
 2249 0575 CF050000 		.4byte	.LASF156
 2250 0579 ADE301   		.sleb128 29101
 2251 057c 0B       		.uleb128 0xb
 2252 057d E9040000 		.4byte	.LASF157
 2253 0581 C0E301   		.sleb128 29120
 2254 0584 0B       		.uleb128 0xb
 2255 0585 DE0B0000 		.4byte	.LASF158
 2256 0589 C1E301   		.sleb128 29121
 2257 058c 0B       		.uleb128 0xb
 2258 058d D9100000 		.4byte	.LASF159
 2259 0591 C2E301   		.sleb128 29122
 2260 0594 0B       		.uleb128 0xb
 2261 0595 8B080000 		.4byte	.LASF160
 2262 0599 C3E301   		.sleb128 29123
 2263 059c 0B       		.uleb128 0xb
 2264 059d 5A060000 		.4byte	.LASF161
 2265 05a1 C4E301   		.sleb128 29124
 2266 05a4 0B       		.uleb128 0xb
 2267 05a5 FC120000 		.4byte	.LASF162
 2268 05a9 91E401   		.sleb128 29201
 2269 05ac 0B       		.uleb128 0xb
 2270 05ad 570D0000 		.4byte	.LASF163
 2271 05b1 92E401   		.sleb128 29202
 2272 05b4 0B       		.uleb128 0xb
 2273 05b5 1E080000 		.4byte	.LASF164
 2274 05b9 93E401   		.sleb128 29203
 2275 05bc 0B       		.uleb128 0xb
 2276 05bd 220B0000 		.4byte	.LASF165
 2277 05c1 94E401   		.sleb128 29204
 2278 05c4 0B       		.uleb128 0xb
 2279 05c5 DD0E0000 		.4byte	.LASF166
 2280 05c9 F5E401   		.sleb128 29301
 2281 05cc 0B       		.uleb128 0xb
ARM GAS  C:\Users\daniel01\AppData\Local\Temp\ccip0sTe.s 			page 58


 2282 05cd E1120000 		.4byte	.LASF167
 2283 05d1 F6E401   		.sleb128 29302
 2284 05d4 0B       		.uleb128 0xb
 2285 05d5 C2120000 		.4byte	.LASF168
 2286 05d9 F7E401   		.sleb128 29303
 2287 05dc 0B       		.uleb128 0xb
 2288 05dd 9A060000 		.4byte	.LASF169
 2289 05e1 F8E401   		.sleb128 29304
 2290 05e4 0B       		.uleb128 0xb
 2291 05e5 4B000000 		.4byte	.LASF170
 2292 05e9 F9E401   		.sleb128 29305
 2293 05ec 0B       		.uleb128 0xb
 2294 05ed 57100000 		.4byte	.LASF171
 2295 05f1 FAE401   		.sleb128 29306
 2296 05f4 0B       		.uleb128 0xb
 2297 05f5 04060000 		.4byte	.LASF172
 2298 05f9 FBE401   		.sleb128 29307
 2299 05fc 0B       		.uleb128 0xb
 2300 05fd 17090000 		.4byte	.LASF173
 2301 0601 FCE401   		.sleb128 29308
 2302 0604 0B       		.uleb128 0xb
 2303 0605 630C0000 		.4byte	.LASF174
 2304 0609 FDE401   		.sleb128 29309
 2305 060c 0B       		.uleb128 0xb
 2306 060d 4C070000 		.4byte	.LASF175
 2307 0611 FEE401   		.sleb128 29310
 2308 0614 0B       		.uleb128 0xb
 2309 0615 830F0000 		.4byte	.LASF176
 2310 0619 D9E501   		.sleb128 29401
 2311 061c 0B       		.uleb128 0xb
 2312 061d D5040000 		.4byte	.LASF177
 2313 0621 BDE601   		.sleb128 29501
 2314 0624 0B       		.uleb128 0xb
 2315 0625 F0070000 		.4byte	.LASF178
 2316 0629 BEE601   		.sleb128 29502
 2317 062c 0B       		.uleb128 0xb
 2318 062d 1C040000 		.4byte	.LASF179
 2319 0631 BFE601   		.sleb128 29503
 2320 0634 0B       		.uleb128 0xb
 2321 0635 3F010000 		.4byte	.LASF180
 2322 0639 C0E601   		.sleb128 29504
 2323 063c 0B       		.uleb128 0xb
 2324 063d 4D030000 		.4byte	.LASF181
 2325 0641 C1E601   		.sleb128 29505
 2326 0644 0B       		.uleb128 0xb
 2327 0645 3E050000 		.4byte	.LASF182
 2328 0649 C2E601   		.sleb128 29506
 2329 064c 0B       		.uleb128 0xb
 2330 064d 3C000000 		.4byte	.LASF183
 2331 0651 C3E601   		.sleb128 29507
 2332 0654 0B       		.uleb128 0xb
 2333 0655 BE040000 		.4byte	.LASF184
 2334 0659 C4E601   		.sleb128 29508
 2335 065c 0B       		.uleb128 0xb
 2336 065d BF060000 		.4byte	.LASF185
 2337 0661 C5E601   		.sleb128 29509
 2338 0664 0B       		.uleb128 0xb
ARM GAS  C:\Users\daniel01\AppData\Local\Temp\ccip0sTe.s 			page 59


 2339 0665 800B0000 		.4byte	.LASF186
 2340 0669 C6E601   		.sleb128 29510
 2341 066c 0B       		.uleb128 0xb
 2342 066d A6050000 		.4byte	.LASF187
 2343 0671 C7E601   		.sleb128 29511
 2344 0674 0B       		.uleb128 0xb
 2345 0675 060B0000 		.4byte	.LASF188
 2346 0679 C8E601   		.sleb128 29512
 2347 067c 0B       		.uleb128 0xb
 2348 067d 3C0F0000 		.4byte	.LASF189
 2349 0681 C9E601   		.sleb128 29513
 2350 0684 0B       		.uleb128 0xb
 2351 0685 1B010000 		.4byte	.LASF190
 2352 0689 B0EA01   		.sleb128 30000
 2353 068c 0B       		.uleb128 0xb
 2354 068d 24010000 		.4byte	.LASF191
 2355 0691 98F201   		.sleb128 31000
 2356 0694 0B       		.uleb128 0xb
 2357 0695 2D010000 		.4byte	.LASF192
 2358 0699 80FA01   		.sleb128 32000
 2359 069c 0B       		.uleb128 0xb
 2360 069d 36010000 		.4byte	.LASF193
 2361 06a1 E88102   		.sleb128 33000
 2362 06a4 0B       		.uleb128 0xb
 2363 06a5 E20F0000 		.4byte	.LASF194
 2364 06a9 D08902   		.sleb128 34000
 2365 06ac 0B       		.uleb128 0xb
 2366 06ad 57090000 		.4byte	.LASF195
 2367 06b1 D18902   		.sleb128 34001
 2368 06b4 0B       		.uleb128 0xb
 2369 06b5 FB0F0000 		.4byte	.LASF196
 2370 06b9 B89102   		.sleb128 35000
 2371 06bc 00       		.byte	0x0
 2372 06bd 09       		.uleb128 0x9
 2373 06be 1B000000 		.4byte	.LASF197
 2374 06c2 05       		.byte	0x5
 2375 06c3 7202     		.2byte	0x272
 2376 06c5 A9010000 		.4byte	0x1a9
 2377 06c9 09       		.uleb128 0x9
 2378 06ca E2070000 		.4byte	.LASF198
 2379 06ce 05       		.byte	0x5
 2380 06cf 8202     		.2byte	0x282
 2381 06d1 D5060000 		.4byte	0x6d5
 2382 06d5 0C       		.uleb128 0xc
 2383 06d6 C8050000 		.4byte	.LASF204
 2384 06da 10       		.byte	0x10
 2385 06db 05       		.byte	0x5
 2386 06dc 8202     		.2byte	0x282
 2387 06de 1F070000 		.4byte	0x71f
 2388 06e2 0D       		.uleb128 0xd
 2389 06e3 350C0000 		.4byte	.LASF199
 2390 06e7 05       		.byte	0x5
 2391 06e8 4103     		.2byte	0x341
 2392 06ea F50C0000 		.4byte	0xcf5
 2393 06ee 02       		.byte	0x2
 2394 06ef 23       		.byte	0x23
 2395 06f0 00       		.uleb128 0x0
ARM GAS  C:\Users\daniel01\AppData\Local\Temp\ccip0sTe.s 			page 60


 2396 06f1 0D       		.uleb128 0xd
 2397 06f2 D2100000 		.4byte	.LASF200
 2398 06f6 05       		.byte	0x5
 2399 06f7 4203     		.2byte	0x342
 2400 06f9 B4000000 		.4byte	0xb4
 2401 06fd 02       		.byte	0x2
 2402 06fe 23       		.byte	0x23
 2403 06ff 04       		.uleb128 0x4
 2404 0700 0D       		.uleb128 0xd
 2405 0701 410E0000 		.4byte	.LASF201
 2406 0705 05       		.byte	0x5
 2407 0706 4303     		.2byte	0x343
 2408 0708 30010000 		.4byte	0x130
 2409 070c 02       		.byte	0x2
 2410 070d 23       		.byte	0x23
 2411 070e 08       		.uleb128 0x8
 2412 070f 0D       		.uleb128 0xd
 2413 0710 9C100000 		.4byte	.LASF202
 2414 0714 05       		.byte	0x5
 2415 0715 4403     		.2byte	0x344
 2416 0717 EE000000 		.4byte	0xee
 2417 071b 02       		.byte	0x2
 2418 071c 23       		.byte	0x23
 2419 071d 0C       		.uleb128 0xc
 2420 071e 00       		.byte	0x0
 2421 071f 09       		.uleb128 0x9
 2422 0720 49090000 		.4byte	.LASF203
 2423 0724 05       		.byte	0x5
 2424 0725 8402     		.2byte	0x284
 2425 0727 2B070000 		.4byte	0x72b
 2426 072b 0C       		.uleb128 0xc
 2427 072c 27130000 		.4byte	.LASF205
 2428 0730 10       		.byte	0x10
 2429 0731 05       		.byte	0x5
 2430 0732 8402     		.2byte	0x284
 2431 0734 84070000 		.4byte	0x784
 2432 0738 0D       		.uleb128 0xd
 2433 0739 FD0D0000 		.4byte	.LASF206
 2434 073d 05       		.byte	0x5
 2435 073e 5403     		.2byte	0x354
 2436 0740 F50C0000 		.4byte	0xcf5
 2437 0744 02       		.byte	0x2
 2438 0745 23       		.byte	0x23
 2439 0746 00       		.uleb128 0x0
 2440 0747 0D       		.uleb128 0xd
 2441 0748 1C100000 		.4byte	.LASF207
 2442 074c 05       		.byte	0x5
 2443 074d 5503     		.2byte	0x355
 2444 074f F50C0000 		.4byte	0xcf5
 2445 0753 02       		.byte	0x2
 2446 0754 23       		.byte	0x23
 2447 0755 04       		.uleb128 0x4
 2448 0756 0D       		.uleb128 0xd
 2449 0757 3D070000 		.4byte	.LASF208
 2450 075b 05       		.byte	0x5
 2451 075c 5603     		.2byte	0x356
 2452 075e 25010000 		.4byte	0x125
ARM GAS  C:\Users\daniel01\AppData\Local\Temp\ccip0sTe.s 			page 61


 2453 0762 02       		.byte	0x2
 2454 0763 23       		.byte	0x23
 2455 0764 08       		.uleb128 0x8
 2456 0765 0D       		.uleb128 0xd
 2457 0766 60010000 		.4byte	.LASF209
 2458 076a 05       		.byte	0x5
 2459 076b 5703     		.2byte	0x357
 2460 076d 25010000 		.4byte	0x125
 2461 0771 02       		.byte	0x2
 2462 0772 23       		.byte	0x23
 2463 0773 0A       		.uleb128 0xa
 2464 0774 0D       		.uleb128 0xd
 2465 0775 33120000 		.4byte	.LASF210
 2466 0779 05       		.byte	0x5
 2467 077a 5803     		.2byte	0x358
 2468 077c 25010000 		.4byte	0x125
 2469 0780 02       		.byte	0x2
 2470 0781 23       		.byte	0x23
 2471 0782 0C       		.uleb128 0xc
 2472 0783 00       		.byte	0x0
 2473 0784 09       		.uleb128 0x9
 2474 0785 970D0000 		.4byte	.LASF211
 2475 0789 05       		.byte	0x5
 2476 078a 8C02     		.2byte	0x28c
 2477 078c 90070000 		.4byte	0x790
 2478 0790 0C       		.uleb128 0xc
 2479 0791 160E0000 		.4byte	.LASF212
 2480 0795 28       		.byte	0x28
 2481 0796 05       		.byte	0x5
 2482 0797 8C02     		.2byte	0x28c
 2483 0799 15080000 		.4byte	0x815
 2484 079d 0D       		.uleb128 0xd
 2485 079e 52090000 		.4byte	.LASF213
 2486 07a2 05       		.byte	0x5
 2487 07a3 9703     		.2byte	0x397
 2488 07a5 51010000 		.4byte	0x151
 2489 07a9 02       		.byte	0x2
 2490 07aa 23       		.byte	0x23
 2491 07ab 00       		.uleb128 0x0
 2492 07ac 0D       		.uleb128 0xd
 2493 07ad 36090000 		.4byte	.LASF214
 2494 07b1 05       		.byte	0x5
 2495 07b2 9803     		.2byte	0x398
 2496 07b4 EF0C0000 		.4byte	0xcef
 2497 07b8 02       		.byte	0x2
 2498 07b9 23       		.byte	0x23
 2499 07ba 04       		.uleb128 0x4
 2500 07bb 0D       		.uleb128 0xd
 2501 07bc CE0D0000 		.4byte	.LASF215
 2502 07c0 05       		.byte	0x5
 2503 07c1 9903     		.2byte	0x399
 2504 07c3 220C0000 		.4byte	0xc22
 2505 07c7 02       		.byte	0x2
 2506 07c8 23       		.byte	0x23
 2507 07c9 08       		.uleb128 0x8
 2508 07ca 0D       		.uleb128 0xd
 2509 07cb C2020000 		.4byte	.LASF216
ARM GAS  C:\Users\daniel01\AppData\Local\Temp\ccip0sTe.s 			page 62


 2510 07cf 05       		.byte	0x5
 2511 07d0 9B03     		.2byte	0x39b
 2512 07d2 FB0C0000 		.4byte	0xcfb
 2513 07d6 02       		.byte	0x2
 2514 07d7 23       		.byte	0x23
 2515 07d8 14       		.uleb128 0x14
 2516 07d9 0D       		.uleb128 0xd
 2517 07da DA020000 		.4byte	.LASF217
 2518 07de 05       		.byte	0x5
 2519 07df 9C03     		.2byte	0x39c
 2520 07e1 FB0C0000 		.4byte	0xcfb
 2521 07e5 02       		.byte	0x2
 2522 07e6 23       		.byte	0x23
 2523 07e7 18       		.uleb128 0x18
 2524 07e8 0D       		.uleb128 0xd
 2525 07e9 11100000 		.4byte	.LASF218
 2526 07ed 05       		.byte	0x5
 2527 07ee 9D03     		.2byte	0x39d
 2528 07f0 EF0C0000 		.4byte	0xcef
 2529 07f4 02       		.byte	0x2
 2530 07f5 23       		.byte	0x23
 2531 07f6 1C       		.uleb128 0x1c
 2532 07f7 0E       		.uleb128 0xe
 2533 07f8 43747200 		.ascii	"Ctr\000"
 2534 07fc 05       		.byte	0x5
 2535 07fd A003     		.2byte	0x3a0
 2536 07ff 7D010000 		.4byte	0x17d
 2537 0803 02       		.byte	0x2
 2538 0804 23       		.byte	0x23
 2539 0805 20       		.uleb128 0x20
 2540 0806 0E       		.uleb128 0xe
 2541 0807 545300   		.ascii	"TS\000"
 2542 080a 05       		.byte	0x5
 2543 080b A103     		.2byte	0x3a1
 2544 080d EE000000 		.4byte	0xee
 2545 0811 02       		.byte	0x2
 2546 0812 23       		.byte	0x23
 2547 0813 24       		.uleb128 0x24
 2548 0814 00       		.byte	0x0
 2549 0815 09       		.uleb128 0x9
 2550 0816 AA0F0000 		.4byte	.LASF219
 2551 081a 05       		.byte	0x5
 2552 081b 8E02     		.2byte	0x28e
 2553 081d A2000000 		.4byte	0xa2
 2554 0821 09       		.uleb128 0x9
 2555 0822 140F0000 		.4byte	.LASF220
 2556 0826 05       		.byte	0x5
 2557 0827 9002     		.2byte	0x290
 2558 0829 2D080000 		.4byte	0x82d
 2559 082d 0C       		.uleb128 0xc
 2560 082e 00000000 		.4byte	.LASF221
 2561 0832 C0       		.byte	0xc0
 2562 0833 05       		.byte	0x5
 2563 0834 9002     		.2byte	0x290
 2564 0836 490B0000 		.4byte	0xb49
 2565 083a 0D       		.uleb128 0xd
 2566 083b A1090000 		.4byte	.LASF222
ARM GAS  C:\Users\daniel01\AppData\Local\Temp\ccip0sTe.s 			page 63


 2567 083f 05       		.byte	0x5
 2568 0840 AC03     		.2byte	0x3ac
 2569 0842 010D0000 		.4byte	0xd01
 2570 0846 02       		.byte	0x2
 2571 0847 23       		.byte	0x23
 2572 0848 00       		.uleb128 0x0
 2573 0849 0D       		.uleb128 0xd
 2574 084a 960E0000 		.4byte	.LASF223
 2575 084e 05       		.byte	0x5
 2576 084f AE03     		.2byte	0x3ae
 2577 0851 B4000000 		.4byte	0xb4
 2578 0855 02       		.byte	0x2
 2579 0856 23       		.byte	0x23
 2580 0857 04       		.uleb128 0x4
 2581 0858 0D       		.uleb128 0xd
 2582 0859 D90A0000 		.4byte	.LASF224
 2583 085d 05       		.byte	0x5
 2584 085e B003     		.2byte	0x3b0
 2585 0860 010D0000 		.4byte	0xd01
 2586 0864 02       		.byte	0x2
 2587 0865 23       		.byte	0x23
 2588 0866 08       		.uleb128 0x8
 2589 0867 0D       		.uleb128 0xd
 2590 0868 350C0000 		.4byte	.LASF199
 2591 086c 05       		.byte	0x5
 2592 086d B203     		.2byte	0x3b2
 2593 086f DD0C0000 		.4byte	0xcdd
 2594 0873 02       		.byte	0x2
 2595 0874 23       		.byte	0x23
 2596 0875 0C       		.uleb128 0xc
 2597 0876 0D       		.uleb128 0xd
 2598 0877 63080000 		.4byte	.LASF225
 2599 087b 05       		.byte	0x5
 2600 087c B303     		.2byte	0x3b3
 2601 087e DD0C0000 		.4byte	0xcdd
 2602 0882 02       		.byte	0x2
 2603 0883 23       		.byte	0x23
 2604 0884 10       		.uleb128 0x10
 2605 0885 0D       		.uleb128 0xd
 2606 0886 390B0000 		.4byte	.LASF226
 2607 088a 05       		.byte	0x5
 2608 088b B503     		.2byte	0x3b5
 2609 088d DD0C0000 		.4byte	0xcdd
 2610 0891 02       		.byte	0x2
 2611 0892 23       		.byte	0x23
 2612 0893 14       		.uleb128 0x14
 2613 0894 0D       		.uleb128 0xd
 2614 0895 61070000 		.4byte	.LASF227
 2615 0899 05       		.byte	0x5
 2616 089a B603     		.2byte	0x3b6
 2617 089c DD0C0000 		.4byte	0xcdd
 2618 08a0 02       		.byte	0x2
 2619 08a1 23       		.byte	0x23
 2620 08a2 18       		.uleb128 0x18
 2621 08a3 0D       		.uleb128 0xd
 2622 08a4 04100000 		.4byte	.LASF228
 2623 08a8 05       		.byte	0x5
ARM GAS  C:\Users\daniel01\AppData\Local\Temp\ccip0sTe.s 			page 64


 2624 08a9 B803     		.2byte	0x3b8
 2625 08ab 070D0000 		.4byte	0xd07
 2626 08af 02       		.byte	0x2
 2627 08b0 23       		.byte	0x23
 2628 08b1 1C       		.uleb128 0x1c
 2629 08b2 0D       		.uleb128 0xd
 2630 08b3 36090000 		.4byte	.LASF214
 2631 08b7 05       		.byte	0x5
 2632 08b8 BA03     		.2byte	0x3ba
 2633 08ba EF0C0000 		.4byte	0xcef
 2634 08be 02       		.byte	0x2
 2635 08bf 23       		.byte	0x23
 2636 08c0 20       		.uleb128 0x20
 2637 08c1 0D       		.uleb128 0xd
 2638 08c2 EA050000 		.4byte	.LASF229
 2639 08c6 05       		.byte	0x5
 2640 08c7 BC03     		.2byte	0x3bc
 2641 08c9 010D0000 		.4byte	0xd01
 2642 08cd 02       		.byte	0x2
 2643 08ce 23       		.byte	0x23
 2644 08cf 24       		.uleb128 0x24
 2645 08d0 0D       		.uleb128 0xd
 2646 08d1 F0080000 		.4byte	.LASF230
 2647 08d5 05       		.byte	0x5
 2648 08d6 C203     		.2byte	0x3c2
 2649 08d8 15080000 		.4byte	0x815
 2650 08dc 02       		.byte	0x2
 2651 08dd 23       		.byte	0x23
 2652 08de 28       		.uleb128 0x28
 2653 08df 0D       		.uleb128 0xd
 2654 08e0 23100000 		.4byte	.LASF231
 2655 08e4 05       		.byte	0x5
 2656 08e5 C303     		.2byte	0x3c3
 2657 08e7 B4000000 		.4byte	0xb4
 2658 08eb 02       		.byte	0x2
 2659 08ec 23       		.byte	0x23
 2660 08ed 2C       		.uleb128 0x2c
 2661 08ee 0D       		.uleb128 0xd
 2662 08ef E70D0000 		.4byte	.LASF232
 2663 08f3 05       		.byte	0x5
 2664 08f4 C503     		.2byte	0x3c5
 2665 08f6 E30C0000 		.4byte	0xce3
 2666 08fa 02       		.byte	0x2
 2667 08fb 23       		.byte	0x23
 2668 08fc 30       		.uleb128 0x30
 2669 08fd 0D       		.uleb128 0xd
 2670 08fe 66030000 		.4byte	.LASF233
 2671 0902 05       		.byte	0x5
 2672 0903 C603     		.2byte	0x3c6
 2673 0905 88010000 		.4byte	0x188
 2674 0909 02       		.byte	0x2
 2675 090a 23       		.byte	0x23
 2676 090b 34       		.uleb128 0x34
 2677 090c 0D       		.uleb128 0xd
 2678 090d 3E090000 		.4byte	.LASF234
 2679 0911 05       		.byte	0x5
 2680 0912 C703     		.2byte	0x3c7
ARM GAS  C:\Users\daniel01\AppData\Local\Temp\ccip0sTe.s 			page 65


 2681 0914 93010000 		.4byte	0x193
 2682 0918 02       		.byte	0x2
 2683 0919 23       		.byte	0x23
 2684 091a 35       		.uleb128 0x35
 2685 091b 0D       		.uleb128 0xd
 2686 091c 50060000 		.4byte	.LASF235
 2687 0920 05       		.byte	0x5
 2688 0921 C903     		.2byte	0x3c9
 2689 0923 88010000 		.4byte	0x188
 2690 0927 02       		.byte	0x2
 2691 0928 23       		.byte	0x23
 2692 0929 36       		.uleb128 0x36
 2693 092a 0D       		.uleb128 0xd
 2694 092b 30110000 		.4byte	.LASF236
 2695 092f 05       		.byte	0x5
 2696 0930 CA03     		.2byte	0x3ca
 2697 0932 67010000 		.4byte	0x167
 2698 0936 02       		.byte	0x2
 2699 0937 23       		.byte	0x23
 2700 0938 37       		.uleb128 0x37
 2701 0939 0D       		.uleb128 0xd
 2702 093a E2050000 		.4byte	.LASF237
 2703 093e 05       		.byte	0x5
 2704 093f CB03     		.2byte	0x3cb
 2705 0941 CC000000 		.4byte	0xcc
 2706 0945 02       		.byte	0x2
 2707 0946 23       		.byte	0x23
 2708 0947 38       		.uleb128 0x38
 2709 0948 0E       		.uleb128 0xe
 2710 0949 4F707400 		.ascii	"Opt\000"
 2711 094d 05       		.byte	0x5
 2712 094e CC03     		.2byte	0x3cc
 2713 0950 5C010000 		.4byte	0x15c
 2714 0954 02       		.byte	0x2
 2715 0955 23       		.byte	0x23
 2716 0956 3C       		.uleb128 0x3c
 2717 0957 0D       		.uleb128 0xd
 2718 0958 77030000 		.4byte	.LASF238
 2719 095c 05       		.byte	0x5
 2720 095d CE03     		.2byte	0x3ce
 2721 095f 46010000 		.4byte	0x146
 2722 0963 02       		.byte	0x2
 2723 0964 23       		.byte	0x23
 2724 0965 3E       		.uleb128 0x3e
 2725 0966 0E       		.uleb128 0xe
 2726 0967 545300   		.ascii	"TS\000"
 2727 096a 05       		.byte	0x5
 2728 096b D003     		.2byte	0x3d0
 2729 096d EE000000 		.4byte	0xee
 2730 0971 02       		.byte	0x2
 2731 0972 23       		.byte	0x23
 2732 0973 40       		.uleb128 0x40
 2733 0974 0D       		.uleb128 0xd
 2734 0975 F60D0000 		.4byte	.LASF239
 2735 0979 05       		.byte	0x5
 2736 097a D203     		.2byte	0x3d2
 2737 097c 7D010000 		.4byte	0x17d
ARM GAS  C:\Users\daniel01\AppData\Local\Temp\ccip0sTe.s 			page 66


 2738 0980 02       		.byte	0x2
 2739 0981 23       		.byte	0x23
 2740 0982 44       		.uleb128 0x44
 2741 0983 0D       		.uleb128 0xd
 2742 0984 31070000 		.4byte	.LASF240
 2743 0988 05       		.byte	0x5
 2744 0989 D503     		.2byte	0x3d5
 2745 098b 9E010000 		.4byte	0x19e
 2746 098f 02       		.byte	0x2
 2747 0990 23       		.byte	0x23
 2748 0991 48       		.uleb128 0x48
 2749 0992 0D       		.uleb128 0xd
 2750 0993 D0030000 		.4byte	.LASF241
 2751 0997 05       		.byte	0x5
 2752 0998 D603     		.2byte	0x3d6
 2753 099a 9E010000 		.4byte	0x19e
 2754 099e 02       		.byte	0x2
 2755 099f 23       		.byte	0x23
 2756 09a0 4C       		.uleb128 0x4c
 2757 09a1 0D       		.uleb128 0xd
 2758 09a2 030E0000 		.4byte	.LASF242
 2759 09a6 05       		.byte	0x5
 2760 09a7 D703     		.2byte	0x3d7
 2761 09a9 9E010000 		.4byte	0x19e
 2762 09ad 02       		.byte	0x2
 2763 09ae 23       		.byte	0x23
 2764 09af 50       		.uleb128 0x50
 2765 09b0 0D       		.uleb128 0xd
 2766 09b1 D6120000 		.4byte	.LASF243
 2767 09b5 05       		.byte	0x5
 2768 09b6 D903     		.2byte	0x3d9
 2769 09b8 9E010000 		.4byte	0x19e
 2770 09bc 02       		.byte	0x2
 2771 09bd 23       		.byte	0x23
 2772 09be 54       		.uleb128 0x54
 2773 09bf 0D       		.uleb128 0xd
 2774 09c0 38060000 		.4byte	.LASF244
 2775 09c4 05       		.byte	0x5
 2776 09c5 DA03     		.2byte	0x3da
 2777 09c7 9E010000 		.4byte	0x19e
 2778 09cb 02       		.byte	0x2
 2779 09cc 23       		.byte	0x23
 2780 09cd 58       		.uleb128 0x58
 2781 09ce 0D       		.uleb128 0xd
 2782 09cf D2100000 		.4byte	.LASF200
 2783 09d3 05       		.byte	0x5
 2784 09d4 DD03     		.2byte	0x3dd
 2785 09d6 B4000000 		.4byte	0xb4
 2786 09da 02       		.byte	0x2
 2787 09db 23       		.byte	0x23
 2788 09dc 5C       		.uleb128 0x5c
 2789 09dd 0D       		.uleb128 0xd
 2790 09de 410E0000 		.4byte	.LASF201
 2791 09e2 05       		.byte	0x5
 2792 09e3 DE03     		.2byte	0x3de
 2793 09e5 30010000 		.4byte	0x130
 2794 09e9 02       		.byte	0x2
ARM GAS  C:\Users\daniel01\AppData\Local\Temp\ccip0sTe.s 			page 67


 2795 09ea 23       		.byte	0x23
 2796 09eb 60       		.uleb128 0x60
 2797 09ec 0D       		.uleb128 0xd
 2798 09ed EB080000 		.4byte	.LASF245
 2799 09f1 05       		.byte	0x5
 2800 09f2 E203     		.2byte	0x3e2
 2801 09f4 1F070000 		.4byte	0x71f
 2802 09f8 02       		.byte	0x2
 2803 09f9 23       		.byte	0x23
 2804 09fa 64       		.uleb128 0x64
 2805 09fb 0D       		.uleb128 0xd
 2806 09fc D5070000 		.4byte	.LASF246
 2807 0a00 05       		.byte	0x5
 2808 0a01 E403     		.2byte	0x3e4
 2809 0a03 EE000000 		.4byte	0xee
 2810 0a07 02       		.byte	0x2
 2811 0a08 23       		.byte	0x23
 2812 0a09 74       		.uleb128 0x74
 2813 0a0a 0D       		.uleb128 0xd
 2814 0a0b C5070000 		.4byte	.LASF247
 2815 0a0f 05       		.byte	0x5
 2816 0a10 E503     		.2byte	0x3e5
 2817 0a12 EE000000 		.4byte	0xee
 2818 0a16 02       		.byte	0x2
 2819 0a17 23       		.byte	0x23
 2820 0a18 78       		.uleb128 0x78
 2821 0a19 0D       		.uleb128 0xd
 2822 0a1a 97120000 		.4byte	.LASF248
 2823 0a1e 05       		.byte	0x5
 2824 0a1f EA03     		.2byte	0x3ea
 2825 0a21 0D0D0000 		.4byte	0xd0d
 2826 0a25 02       		.byte	0x2
 2827 0a26 23       		.byte	0x23
 2828 0a27 7C       		.uleb128 0x7c
 2829 0a28 0D       		.uleb128 0xd
 2830 0a29 12040000 		.4byte	.LASF249
 2831 0a2d 05       		.byte	0x5
 2832 0a2e EE03     		.2byte	0x3ee
 2833 0a30 1A010000 		.4byte	0x11a
 2834 0a34 03       		.byte	0x3
 2835 0a35 23       		.byte	0x23
 2836 0a36 8001     		.uleb128 0x80
 2837 0a38 0D       		.uleb128 0xd
 2838 0a39 6D070000 		.4byte	.LASF250
 2839 0a3d 05       		.byte	0x5
 2840 0a3e EF03     		.2byte	0x3ef
 2841 0a40 1A010000 		.4byte	0x11a
 2842 0a44 03       		.byte	0x3
 2843 0a45 23       		.byte	0x23
 2844 0a46 8401     		.uleb128 0x84
 2845 0a48 0D       		.uleb128 0xd
 2846 0a49 F9010000 		.4byte	.LASF251
 2847 0a4d 05       		.byte	0x5
 2848 0a4e F003     		.2byte	0x3f0
 2849 0a50 5C010000 		.4byte	0x15c
 2850 0a54 03       		.byte	0x3
 2851 0a55 23       		.byte	0x23
ARM GAS  C:\Users\daniel01\AppData\Local\Temp\ccip0sTe.s 			page 68


 2852 0a56 8801     		.uleb128 0x88
 2853 0a58 0D       		.uleb128 0xd
 2854 0a59 CE0A0000 		.4byte	.LASF252
 2855 0a5d 05       		.byte	0x5
 2856 0a5e F403     		.2byte	0x3f4
 2857 0a60 3B010000 		.4byte	0x13b
 2858 0a64 03       		.byte	0x3
 2859 0a65 23       		.byte	0x23
 2860 0a66 8A01     		.uleb128 0x8a
 2861 0a68 0D       		.uleb128 0xd
 2862 0a69 4E110000 		.4byte	.LASF253
 2863 0a6d 05       		.byte	0x5
 2864 0a6e F803     		.2byte	0x3f8
 2865 0a70 F9000000 		.4byte	0xf9
 2866 0a74 03       		.byte	0x3
 2867 0a75 23       		.byte	0x23
 2868 0a76 8C01     		.uleb128 0x8c
 2869 0a78 0D       		.uleb128 0xd
 2870 0a79 C20D0000 		.4byte	.LASF254
 2871 0a7d 05       		.byte	0x5
 2872 0a7e F903     		.2byte	0x3f9
 2873 0a80 F9000000 		.4byte	0xf9
 2874 0a84 03       		.byte	0x3
 2875 0a85 23       		.byte	0x23
 2876 0a86 8E01     		.uleb128 0x8e
 2877 0a88 0D       		.uleb128 0xd
 2878 0a89 33040000 		.4byte	.LASF255
 2879 0a8d 05       		.byte	0x5
 2880 0a8e FA03     		.2byte	0x3fa
 2881 0a90 04010000 		.4byte	0x104
 2882 0a94 03       		.byte	0x3
 2883 0a95 23       		.byte	0x23
 2884 0a96 9001     		.uleb128 0x90
 2885 0a98 0D       		.uleb128 0xd
 2886 0a99 EF0A0000 		.4byte	.LASF256
 2887 0a9d 05       		.byte	0x5
 2888 0a9e FB03     		.2byte	0x3fb
 2889 0aa0 EE000000 		.4byte	0xee
 2890 0aa4 03       		.byte	0x3
 2891 0aa5 23       		.byte	0x23
 2892 0aa6 9401     		.uleb128 0x94
 2893 0aa8 0D       		.uleb128 0xd
 2894 0aa9 CA090000 		.4byte	.LASF257
 2895 0aad 05       		.byte	0x5
 2896 0aae FC03     		.2byte	0x3fc
 2897 0ab0 EE000000 		.4byte	0xee
 2898 0ab4 03       		.byte	0x3
 2899 0ab5 23       		.byte	0x23
 2900 0ab6 9801     		.uleb128 0x98
 2901 0ab8 0D       		.uleb128 0xd
 2902 0ab9 8B120000 		.4byte	.LASF258
 2903 0abd 05       		.byte	0x5
 2904 0abe FD03     		.2byte	0x3fd
 2905 0ac0 0F010000 		.4byte	0x10f
 2906 0ac4 03       		.byte	0x3
 2907 0ac5 23       		.byte	0x23
 2908 0ac6 9C01     		.uleb128 0x9c
ARM GAS  C:\Users\daniel01\AppData\Local\Temp\ccip0sTe.s 			page 69


 2909 0ac8 0D       		.uleb128 0xd
 2910 0ac9 470D0000 		.4byte	.LASF259
 2911 0acd 05       		.byte	0x5
 2912 0ace FE03     		.2byte	0x3fe
 2913 0ad0 0F010000 		.4byte	0x10f
 2914 0ad4 03       		.byte	0x3
 2915 0ad5 23       		.byte	0x23
 2916 0ad6 A001     		.uleb128 0xa0
 2917 0ad8 0D       		.uleb128 0xd
 2918 0ad9 010C0000 		.4byte	.LASF260
 2919 0add 05       		.byte	0x5
 2920 0ade 0004     		.2byte	0x400
 2921 0ae0 EE000000 		.4byte	0xee
 2922 0ae4 03       		.byte	0x3
 2923 0ae5 23       		.byte	0x23
 2924 0ae6 A401     		.uleb128 0xa4
 2925 0ae8 0D       		.uleb128 0xd
 2926 0ae9 380D0000 		.4byte	.LASF261
 2927 0aed 05       		.byte	0x5
 2928 0aee 0104     		.2byte	0x401
 2929 0af0 EE000000 		.4byte	0xee
 2930 0af4 03       		.byte	0x3
 2931 0af5 23       		.byte	0x23
 2932 0af6 A801     		.uleb128 0xa8
 2933 0af8 0D       		.uleb128 0xd
 2934 0af9 36050000 		.4byte	.LASF262
 2935 0afd 05       		.byte	0x5
 2936 0afe 0504     		.2byte	0x405
 2937 0b00 CC000000 		.4byte	0xcc
 2938 0b04 03       		.byte	0x3
 2939 0b05 23       		.byte	0x23
 2940 0b06 AC01     		.uleb128 0xac
 2941 0b08 0D       		.uleb128 0xd
 2942 0b09 29070000 		.4byte	.LASF263
 2943 0b0d 05       		.byte	0x5
 2944 0b0e 0604     		.2byte	0x406
 2945 0b10 CC000000 		.4byte	0xcc
 2946 0b14 03       		.byte	0x3
 2947 0b15 23       		.byte	0x23
 2948 0b16 B001     		.uleb128 0xb0
 2949 0b18 0D       		.uleb128 0xd
 2950 0b19 C2020000 		.4byte	.LASF216
 2951 0b1d 05       		.byte	0x5
 2952 0b1e 1104     		.2byte	0x411
 2953 0b20 DD0C0000 		.4byte	0xcdd
 2954 0b24 03       		.byte	0x3
 2955 0b25 23       		.byte	0x23
 2956 0b26 B401     		.uleb128 0xb4
 2957 0b28 0D       		.uleb128 0xd
 2958 0b29 DA020000 		.4byte	.LASF217
 2959 0b2d 05       		.byte	0x5
 2960 0b2e 1204     		.2byte	0x412
 2961 0b30 DD0C0000 		.4byte	0xcdd
 2962 0b34 03       		.byte	0x3
 2963 0b35 23       		.byte	0x23
 2964 0b36 B801     		.uleb128 0xb8
 2965 0b38 0D       		.uleb128 0xd
ARM GAS  C:\Users\daniel01\AppData\Local\Temp\ccip0sTe.s 			page 70


 2966 0b39 11100000 		.4byte	.LASF218
 2967 0b3d 05       		.byte	0x5
 2968 0b3e 1304     		.2byte	0x413
 2969 0b40 EF0C0000 		.4byte	0xcef
 2970 0b44 03       		.byte	0x3
 2971 0b45 23       		.byte	0x23
 2972 0b46 BC01     		.uleb128 0xbc
 2973 0b48 00       		.byte	0x0
 2974 0b49 09       		.uleb128 0x9
 2975 0b4a 8F040000 		.4byte	.LASF264
 2976 0b4e 05       		.byte	0x5
 2977 0b4f 9E02     		.2byte	0x29e
 2978 0b51 550B0000 		.4byte	0xb55
 2979 0b55 0C       		.uleb128 0xc
 2980 0b56 A8090000 		.4byte	.LASF265
 2981 0b5a 08       		.byte	0x8
 2982 0b5b 05       		.byte	0x5
 2983 0b5c 9E02     		.2byte	0x29e
 2984 0b5e 900B0000 		.4byte	0xb90
 2985 0b62 0D       		.uleb128 0xd
 2986 0b63 5C0E0000 		.4byte	.LASF266
 2987 0b67 05       		.byte	0x5
 2988 0b68 1F04     		.2byte	0x41f
 2989 0b6a DD0C0000 		.4byte	0xcdd
 2990 0b6e 02       		.byte	0x2
 2991 0b6f 23       		.byte	0x23
 2992 0b70 00       		.uleb128 0x0
 2993 0b71 0D       		.uleb128 0xd
 2994 0b72 60010000 		.4byte	.LASF209
 2995 0b76 05       		.byte	0x5
 2996 0b77 2004     		.2byte	0x420
 2997 0b79 46010000 		.4byte	0x146
 2998 0b7d 02       		.byte	0x2
 2999 0b7e 23       		.byte	0x23
 3000 0b7f 04       		.uleb128 0x4
 3001 0b80 0D       		.uleb128 0xd
 3002 0b81 33120000 		.4byte	.LASF210
 3003 0b85 05       		.byte	0x5
 3004 0b86 2104     		.2byte	0x421
 3005 0b88 46010000 		.4byte	0x146
 3006 0b8c 02       		.byte	0x2
 3007 0b8d 23       		.byte	0x23
 3008 0b8e 06       		.uleb128 0x6
 3009 0b8f 00       		.byte	0x0
 3010 0b90 09       		.uleb128 0x9
 3011 0b91 51050000 		.4byte	.LASF267
 3012 0b95 05       		.byte	0x5
 3013 0b96 A502     		.2byte	0x2a5
 3014 0b98 9C0B0000 		.4byte	0xb9c
 3015 0b9c 0C       		.uleb128 0xc
 3016 0b9d FE100000 		.4byte	.LASF268
 3017 0ba1 20       		.byte	0x20
 3018 0ba2 05       		.byte	0x5
 3019 0ba3 A502     		.2byte	0x2a5
 3020 0ba5 220C0000 		.4byte	0xc22
 3021 0ba9 0D       		.uleb128 0xd
 3022 0baa 63080000 		.4byte	.LASF225
ARM GAS  C:\Users\daniel01\AppData\Local\Temp\ccip0sTe.s 			page 71


 3023 0bae 05       		.byte	0x5
 3024 0baf DE02     		.2byte	0x2de
 3025 0bb1 E30C0000 		.4byte	0xce3
 3026 0bb5 02       		.byte	0x2
 3027 0bb6 23       		.byte	0x23
 3028 0bb7 00       		.uleb128 0x0
 3029 0bb8 0D       		.uleb128 0xd
 3030 0bb9 350C0000 		.4byte	.LASF199
 3031 0bbd 05       		.byte	0x5
 3032 0bbe DF02     		.2byte	0x2df
 3033 0bc0 E30C0000 		.4byte	0xce3
 3034 0bc4 02       		.byte	0x2
 3035 0bc5 23       		.byte	0x23
 3036 0bc6 04       		.uleb128 0x4
 3037 0bc7 0D       		.uleb128 0xd
 3038 0bc8 E0090000 		.4byte	.LASF269
 3039 0bcc 05       		.byte	0x5
 3040 0bcd E002     		.2byte	0x2e0
 3041 0bcf DD0C0000 		.4byte	0xcdd
 3042 0bd3 02       		.byte	0x2
 3043 0bd4 23       		.byte	0x23
 3044 0bd5 08       		.uleb128 0x8
 3045 0bd6 0D       		.uleb128 0xd
 3046 0bd7 8B110000 		.4byte	.LASF270
 3047 0bdb 05       		.byte	0x5
 3048 0bdc E102     		.2byte	0x2e1
 3049 0bde E90C0000 		.4byte	0xce9
 3050 0be2 02       		.byte	0x2
 3051 0be3 23       		.byte	0x23
 3052 0be4 0C       		.uleb128 0xc
 3053 0be5 0D       		.uleb128 0xd
 3054 0be6 B60B0000 		.4byte	.LASF271
 3055 0bea 05       		.byte	0x5
 3056 0beb E202     		.2byte	0x2e2
 3057 0bed E90C0000 		.4byte	0xce9
 3058 0bf1 02       		.byte	0x2
 3059 0bf2 23       		.byte	0x23
 3060 0bf3 10       		.uleb128 0x10
 3061 0bf4 0D       		.uleb128 0xd
 3062 0bf5 DD030000 		.4byte	.LASF272
 3063 0bf9 05       		.byte	0x5
 3064 0bfa E302     		.2byte	0x2e3
 3065 0bfc B4000000 		.4byte	0xb4
 3066 0c00 02       		.byte	0x2
 3067 0c01 23       		.byte	0x23
 3068 0c02 14       		.uleb128 0x14
 3069 0c03 0D       		.uleb128 0xd
 3070 0c04 FF0C0000 		.4byte	.LASF273
 3071 0c08 05       		.byte	0x5
 3072 0c09 E402     		.2byte	0x2e4
 3073 0c0b 30010000 		.4byte	0x130
 3074 0c0f 02       		.byte	0x2
 3075 0c10 23       		.byte	0x23
 3076 0c11 18       		.uleb128 0x18
 3077 0c12 0D       		.uleb128 0xd
 3078 0c13 BF0C0000 		.4byte	.LASF274
 3079 0c17 05       		.byte	0x5
ARM GAS  C:\Users\daniel01\AppData\Local\Temp\ccip0sTe.s 			page 72


 3080 0c18 E502     		.2byte	0x2e5
 3081 0c1a EE000000 		.4byte	0xee
 3082 0c1e 02       		.byte	0x2
 3083 0c1f 23       		.byte	0x23
 3084 0c20 1C       		.uleb128 0x1c
 3085 0c21 00       		.byte	0x0
 3086 0c22 09       		.uleb128 0x9
 3087 0c23 83100000 		.4byte	.LASF275
 3088 0c27 05       		.byte	0x5
 3089 0c28 A602     		.2byte	0x2a6
 3090 0c2a 2E0C0000 		.4byte	0xc2e
 3091 0c2e 0C       		.uleb128 0xc
 3092 0c2f 41120000 		.4byte	.LASF276
 3093 0c33 0C       		.byte	0xc
 3094 0c34 05       		.byte	0x5
 3095 0c35 A602     		.2byte	0x2a6
 3096 0c37 690C0000 		.4byte	0xc69
 3097 0c3b 0D       		.uleb128 0xd
 3098 0c3c 0E0E0000 		.4byte	.LASF277
 3099 0c40 05       		.byte	0x5
 3100 0c41 EA02     		.2byte	0x2ea
 3101 0c43 E30C0000 		.4byte	0xce3
 3102 0c47 02       		.byte	0x2
 3103 0c48 23       		.byte	0x23
 3104 0c49 00       		.uleb128 0x0
 3105 0c4a 0D       		.uleb128 0xd
 3106 0c4b 9D030000 		.4byte	.LASF278
 3107 0c4f 05       		.byte	0x5
 3108 0c50 EB02     		.2byte	0x2eb
 3109 0c52 E30C0000 		.4byte	0xce3
 3110 0c56 02       		.byte	0x2
 3111 0c57 23       		.byte	0x23
 3112 0c58 04       		.uleb128 0x4
 3113 0c59 0D       		.uleb128 0xd
 3114 0c5a 60010000 		.4byte	.LASF209
 3115 0c5e 05       		.byte	0x5
 3116 0c5f EC02     		.2byte	0x2ec
 3117 0c61 46010000 		.4byte	0x146
 3118 0c65 02       		.byte	0x2
 3119 0c66 23       		.byte	0x23
 3120 0c67 08       		.uleb128 0x8
 3121 0c68 00       		.byte	0x0
 3122 0c69 09       		.uleb128 0x9
 3123 0c6a 9E0D0000 		.4byte	.LASF279
 3124 0c6e 05       		.byte	0x5
 3125 0c6f A702     		.2byte	0x2a7
 3126 0c71 750C0000 		.4byte	0xc75
 3127 0c75 0C       		.uleb128 0xc
 3128 0c76 E7030000 		.4byte	.LASF280
 3129 0c7a 20       		.byte	0x20
 3130 0c7b 05       		.byte	0x5
 3131 0c7c A702     		.2byte	0x2a7
 3132 0c7e DD0C0000 		.4byte	0xcdd
 3133 0c82 0D       		.uleb128 0xd
 3134 0c83 52090000 		.4byte	.LASF213
 3135 0c87 05       		.byte	0x5
 3136 0c88 0003     		.2byte	0x300
ARM GAS  C:\Users\daniel01\AppData\Local\Temp\ccip0sTe.s 			page 73


 3137 0c8a 51010000 		.4byte	0x151
 3138 0c8e 02       		.byte	0x2
 3139 0c8f 23       		.byte	0x23
 3140 0c90 00       		.uleb128 0x0
 3141 0c91 0D       		.uleb128 0xd
 3142 0c92 36090000 		.4byte	.LASF214
 3143 0c96 05       		.byte	0x5
 3144 0c97 0103     		.2byte	0x301
 3145 0c99 EF0C0000 		.4byte	0xcef
 3146 0c9d 02       		.byte	0x2
 3147 0c9e 23       		.byte	0x23
 3148 0c9f 04       		.uleb128 0x4
 3149 0ca0 0D       		.uleb128 0xd
 3150 0ca1 CE0D0000 		.4byte	.LASF215
 3151 0ca5 05       		.byte	0x5
 3152 0ca6 0203     		.2byte	0x302
 3153 0ca8 220C0000 		.4byte	0xc22
 3154 0cac 02       		.byte	0x2
 3155 0cad 23       		.byte	0x23
 3156 0cae 08       		.uleb128 0x8
 3157 0caf 0D       		.uleb128 0xd
 3158 0cb0 C2020000 		.4byte	.LASF216
 3159 0cb4 05       		.byte	0x5
 3160 0cb5 0403     		.2byte	0x304
 3161 0cb7 B4000000 		.4byte	0xb4
 3162 0cbb 02       		.byte	0x2
 3163 0cbc 23       		.byte	0x23
 3164 0cbd 14       		.uleb128 0x14
 3165 0cbe 0D       		.uleb128 0xd
 3166 0cbf DA020000 		.4byte	.LASF217
 3167 0cc3 05       		.byte	0x5
 3168 0cc4 0503     		.2byte	0x305
 3169 0cc6 B4000000 		.4byte	0xb4
 3170 0cca 02       		.byte	0x2
 3171 0ccb 23       		.byte	0x23
 3172 0ccc 18       		.uleb128 0x18
 3173 0ccd 0D       		.uleb128 0xd
 3174 0cce 11100000 		.4byte	.LASF218
 3175 0cd2 05       		.byte	0x5
 3176 0cd3 0603     		.2byte	0x306
 3177 0cd5 EF0C0000 		.4byte	0xcef
 3178 0cd9 02       		.byte	0x2
 3179 0cda 23       		.byte	0x23
 3180 0cdb 1C       		.uleb128 0x1c
 3181 0cdc 00       		.byte	0x0
 3182 0cdd 05       		.uleb128 0x5
 3183 0cde 04       		.byte	0x4
 3184 0cdf 21080000 		.4byte	0x821
 3185 0ce3 05       		.uleb128 0x5
 3186 0ce4 04       		.byte	0x4
 3187 0ce5 900B0000 		.4byte	0xb90
 3188 0ce9 05       		.uleb128 0x5
 3189 0cea 04       		.byte	0x4
 3190 0ceb 690C0000 		.4byte	0xc69
 3191 0cef 05       		.uleb128 0x5
 3192 0cf0 04       		.byte	0x4
 3193 0cf1 29000000 		.4byte	0x29
ARM GAS  C:\Users\daniel01\AppData\Local\Temp\ccip0sTe.s 			page 74


 3194 0cf5 05       		.uleb128 0x5
 3195 0cf6 04       		.byte	0x4
 3196 0cf7 C9060000 		.4byte	0x6c9
 3197 0cfb 05       		.uleb128 0x5
 3198 0cfc 04       		.byte	0x4
 3199 0cfd 84070000 		.4byte	0x784
 3200 0d01 05       		.uleb128 0x5
 3201 0d02 04       		.byte	0x4
 3202 0d03 C1000000 		.4byte	0xc1
 3203 0d07 05       		.uleb128 0x5
 3204 0d08 04       		.byte	0x4
 3205 0d09 490B0000 		.4byte	0xb49
 3206 0d0d 0F       		.uleb128 0xf
 3207 0d0e 72010000 		.4byte	0x172
 3208 0d12 1D0D0000 		.4byte	0xd1d
 3209 0d16 10       		.uleb128 0x10
 3210 0d17 1D0D0000 		.4byte	0xd1d
 3211 0d1b 00       		.byte	0x0
 3212 0d1c 00       		.byte	0x0
 3213 0d1d 11       		.uleb128 0x11
 3214 0d1e 04       		.byte	0x4
 3215 0d1f 07       		.byte	0x7
 3216 0d20 12       		.uleb128 0x12
 3217 0d21 01       		.byte	0x1
 3218 0d22 2A050000 		.4byte	.LASF296
 3219 0d26 01       		.byte	0x1
 3220 0d27 49       		.byte	0x49
 3221 0d28 01       		.byte	0x1
 3222 0d29 00000000 		.4byte	.LFB0
 3223 0d2d A6000000 		.4byte	.LFE0
 3224 0d31 00000000 		.4byte	.LLST0
 3225 0d35 800D0000 		.4byte	0xd80
 3226 0d39 13       		.uleb128 0x13
 3227 0d3a 8F010000 		.4byte	.LASF281
 3228 0d3e 01       		.byte	0x1
 3229 0d3f 49       		.byte	0x49
 3230 0d40 FB0C0000 		.4byte	0xcfb
 3231 0d44 02       		.byte	0x2
 3232 0d45 91       		.byte	0x91
 3233 0d46 6C       		.sleb128 -20
 3234 0d47 13       		.uleb128 0x13
 3235 0d48 E9070000 		.4byte	.LASF282
 3236 0d4c 01       		.byte	0x1
 3237 0d4d 4A       		.byte	0x4a
 3238 0d4e EF0C0000 		.4byte	0xcef
 3239 0d52 02       		.byte	0x2
 3240 0d53 91       		.byte	0x91
 3241 0d54 68       		.sleb128 -24
 3242 0d55 14       		.uleb128 0x14
 3243 0d56 636E7400 		.ascii	"cnt\000"
 3244 0d5a 01       		.byte	0x1
 3245 0d5b 4B       		.byte	0x4b
 3246 0d5c 7D010000 		.4byte	0x17d
 3247 0d60 02       		.byte	0x2
 3248 0d61 91       		.byte	0x91
 3249 0d62 64       		.sleb128 -28
 3250 0d63 13       		.uleb128 0x13
ARM GAS  C:\Users\daniel01\AppData\Local\Temp\ccip0sTe.s 			page 75


 3251 0d64 BF070000 		.4byte	.LASF283
 3252 0d68 01       		.byte	0x1
 3253 0d69 4C       		.byte	0x4c
 3254 0d6a 800D0000 		.4byte	0xd80
 3255 0d6e 02       		.byte	0x2
 3256 0d6f 91       		.byte	0x91
 3257 0d70 60       		.sleb128 -32
 3258 0d71 15       		.uleb128 0x15
 3259 0d72 B7040000 		.4byte	.LASF284
 3260 0d76 01       		.byte	0x1
 3261 0d77 4E       		.byte	0x4e
 3262 0d78 D7000000 		.4byte	0xd7
 3263 0d7c 02       		.byte	0x2
 3264 0d7d 91       		.byte	0x91
 3265 0d7e 74       		.sleb128 -12
 3266 0d7f 00       		.byte	0x0
 3267 0d80 05       		.uleb128 0x5
 3268 0d81 04       		.byte	0x4
 3269 0d82 BD060000 		.4byte	0x6bd
 3270 0d86 16       		.uleb128 0x16
 3271 0d87 01       		.byte	0x1
 3272 0d88 31020000 		.4byte	.LASF289
 3273 0d8c 01       		.byte	0x1
 3274 0d8d A3       		.byte	0xa3
 3275 0d8e 01       		.byte	0x1
 3276 0d8f 46010000 		.4byte	0x146
 3277 0d93 00000000 		.4byte	.LFB1
 3278 0d97 52010000 		.4byte	.LFE1
 3279 0d9b 37000000 		.4byte	.LLST1
 3280 0d9f 2F0E0000 		.4byte	0xe2f
 3281 0da3 13       		.uleb128 0x13
 3282 0da4 8F010000 		.4byte	.LASF281
 3283 0da8 01       		.byte	0x1
 3284 0da9 A3       		.byte	0xa3
 3285 0daa FB0C0000 		.4byte	0xcfb
 3286 0dae 02       		.byte	0x2
 3287 0daf 91       		.byte	0x91
 3288 0db0 5C       		.sleb128 -36
 3289 0db1 14       		.uleb128 0x14
 3290 0db2 6F707400 		.ascii	"opt\000"
 3291 0db6 01       		.byte	0x1
 3292 0db7 A4       		.byte	0xa4
 3293 0db8 5C010000 		.4byte	0x15c
 3294 0dbc 02       		.byte	0x2
 3295 0dbd 91       		.byte	0x91
 3296 0dbe 5A       		.sleb128 -38
 3297 0dbf 13       		.uleb128 0x13
 3298 0dc0 BF070000 		.4byte	.LASF283
 3299 0dc4 01       		.byte	0x1
 3300 0dc5 A5       		.byte	0xa5
 3301 0dc6 800D0000 		.4byte	0xd80
 3302 0dca 02       		.byte	0x2
 3303 0dcb 91       		.byte	0x91
 3304 0dcc 54       		.sleb128 -44
 3305 0dcd 17       		.uleb128 0x17
 3306 0dce 636E7400 		.ascii	"cnt\000"
 3307 0dd2 01       		.byte	0x1
ARM GAS  C:\Users\daniel01\AppData\Local\Temp\ccip0sTe.s 			page 76


 3308 0dd3 A7       		.byte	0xa7
 3309 0dd4 46010000 		.4byte	0x146
 3310 0dd8 02       		.byte	0x2
 3311 0dd9 91       		.byte	0x91
 3312 0dda 60       		.sleb128 -32
 3313 0ddb 15       		.uleb128 0x15
 3314 0ddc 670A0000 		.4byte	.LASF285
 3315 0de0 01       		.byte	0x1
 3316 0de1 A8       		.byte	0xa8
 3317 0de2 46010000 		.4byte	0x146
 3318 0de6 02       		.byte	0x2
 3319 0de7 91       		.byte	0x91
 3320 0de8 62       		.sleb128 -30
 3321 0de9 15       		.uleb128 0x15
 3322 0dea 57080000 		.4byte	.LASF286
 3323 0dee 01       		.byte	0x1
 3324 0def A9       		.byte	0xa9
 3325 0df0 E30C0000 		.4byte	0xce3
 3326 0df4 02       		.byte	0x2
 3327 0df5 91       		.byte	0x91
 3328 0df6 64       		.sleb128 -28
 3329 0df7 15       		.uleb128 0x15
 3330 0df8 41030000 		.4byte	.LASF287
 3331 0dfc 01       		.byte	0x1
 3332 0dfd AA       		.byte	0xaa
 3333 0dfe 2F0E0000 		.4byte	0xe2f
 3334 0e02 02       		.byte	0x2
 3335 0e03 91       		.byte	0x91
 3336 0e04 68       		.sleb128 -24
 3337 0e05 15       		.uleb128 0x15
 3338 0e06 B6090000 		.4byte	.LASF288
 3339 0e0a 01       		.byte	0x1
 3340 0e0b AB       		.byte	0xab
 3341 0e0c DD0C0000 		.4byte	0xcdd
 3342 0e10 02       		.byte	0x2
 3343 0e11 91       		.byte	0x91
 3344 0e12 6C       		.sleb128 -20
 3345 0e13 17       		.uleb128 0x17
 3346 0e14 747300   		.ascii	"ts\000"
 3347 0e17 01       		.byte	0x1
 3348 0e18 AC       		.byte	0xac
 3349 0e19 EE000000 		.4byte	0xee
 3350 0e1d 02       		.byte	0x2
 3351 0e1e 91       		.byte	0x91
 3352 0e1f 70       		.sleb128 -16
 3353 0e20 15       		.uleb128 0x15
 3354 0e21 B7040000 		.4byte	.LASF284
 3355 0e25 01       		.byte	0x1
 3356 0e26 AD       		.byte	0xad
 3357 0e27 D7000000 		.4byte	0xd7
 3358 0e2b 02       		.byte	0x2
 3359 0e2c 91       		.byte	0x91
 3360 0e2d 74       		.sleb128 -12
 3361 0e2e 00       		.byte	0x0
 3362 0e2f 05       		.uleb128 0x5
 3363 0e30 04       		.byte	0x4
 3364 0e31 220C0000 		.4byte	0xc22
ARM GAS  C:\Users\daniel01\AppData\Local\Temp\ccip0sTe.s 			page 77


 3365 0e35 18       		.uleb128 0x18
 3366 0e36 01       		.byte	0x1
 3367 0e37 56020000 		.4byte	.LASF290
 3368 0e3b 01       		.byte	0x1
 3369 0e3c 3701     		.2byte	0x137
 3370 0e3e 01       		.byte	0x1
 3371 0e3f 7D010000 		.4byte	0x17d
 3372 0e43 00000000 		.4byte	.LFB2
 3373 0e47 E8010000 		.4byte	.LFE2
 3374 0e4b 6E000000 		.4byte	.LLST2
 3375 0e4f CC0E0000 		.4byte	0xecc
 3376 0e53 19       		.uleb128 0x19
 3377 0e54 8F010000 		.4byte	.LASF281
 3378 0e58 01       		.byte	0x1
 3379 0e59 3701     		.2byte	0x137
 3380 0e5b FB0C0000 		.4byte	0xcfb
 3381 0e5f 02       		.byte	0x2
 3382 0e60 91       		.byte	0x91
 3383 0e61 4C       		.sleb128 -52
 3384 0e62 19       		.uleb128 0x19
 3385 0e63 9B0F0000 		.4byte	.LASF291
 3386 0e67 01       		.byte	0x1
 3387 0e68 3801     		.2byte	0x138
 3388 0e6a 9E010000 		.4byte	0x19e
 3389 0e6e 02       		.byte	0x2
 3390 0e6f 91       		.byte	0x91
 3391 0e70 48       		.sleb128 -56
 3392 0e71 1A       		.uleb128 0x1a
 3393 0e72 6F707400 		.ascii	"opt\000"
 3394 0e76 01       		.byte	0x1
 3395 0e77 3901     		.2byte	0x139
 3396 0e79 5C010000 		.4byte	0x15c
 3397 0e7d 02       		.byte	0x2
 3398 0e7e 91       		.byte	0x91
 3399 0e7f 46       		.sleb128 -58
 3400 0e80 19       		.uleb128 0x19
 3401 0e81 980B0000 		.4byte	.LASF292
 3402 0e85 01       		.byte	0x1
 3403 0e86 3A01     		.2byte	0x13a
 3404 0e88 CC0E0000 		.4byte	0xecc
 3405 0e8c 02       		.byte	0x2
 3406 0e8d 91       		.byte	0x91
 3407 0e8e 40       		.sleb128 -64
 3408 0e8f 19       		.uleb128 0x19
 3409 0e90 BF070000 		.4byte	.LASF283
 3410 0e94 01       		.byte	0x1
 3411 0e95 3B01     		.2byte	0x13b
 3412 0e97 800D0000 		.4byte	0xd80
 3413 0e9b 02       		.byte	0x2
 3414 0e9c 91       		.byte	0x91
 3415 0e9d 00       		.sleb128 0
 3416 0e9e 1B       		.uleb128 0x1b
 3417 0e9f 63747200 		.ascii	"ctr\000"
 3418 0ea3 01       		.byte	0x1
 3419 0ea4 3D01     		.2byte	0x13d
 3420 0ea6 7D010000 		.4byte	0x17d
 3421 0eaa 02       		.byte	0x2
ARM GAS  C:\Users\daniel01\AppData\Local\Temp\ccip0sTe.s 			page 78


 3422 0eab 91       		.byte	0x91
 3423 0eac 70       		.sleb128 -16
 3424 0ead 1C       		.uleb128 0x1c
 3425 0eae D6090000 		.4byte	.LASF293
 3426 0eb2 01       		.byte	0x1
 3427 0eb3 3E01     		.2byte	0x13e
 3428 0eb5 900B0000 		.4byte	0xb90
 3429 0eb9 02       		.byte	0x2
 3430 0eba 91       		.byte	0x91
 3431 0ebb 50       		.sleb128 -48
 3432 0ebc 1C       		.uleb128 0x1c
 3433 0ebd B7040000 		.4byte	.LASF284
 3434 0ec1 01       		.byte	0x1
 3435 0ec2 3F01     		.2byte	0x13f
 3436 0ec4 D7000000 		.4byte	0xd7
 3437 0ec8 02       		.byte	0x2
 3438 0ec9 91       		.byte	0x91
 3439 0eca 74       		.sleb128 -12
 3440 0ecb 00       		.byte	0x0
 3441 0ecc 05       		.uleb128 0x5
 3442 0ecd 04       		.byte	0x4
 3443 0ece EE000000 		.4byte	0xee
 3444 0ed2 18       		.uleb128 0x18
 3445 0ed3 01       		.byte	0x1
 3446 0ed4 70080000 		.4byte	.LASF294
 3447 0ed8 01       		.byte	0x1
 3448 0ed9 D701     		.2byte	0x1d7
 3449 0edb 01       		.byte	0x1
 3450 0edc 46010000 		.4byte	0x146
 3451 0ee0 00000000 		.4byte	.LFB3
 3452 0ee4 06010000 		.4byte	.LFE3
 3453 0ee8 A7000000 		.4byte	.LLST3
 3454 0eec 680F0000 		.4byte	0xf68
 3455 0ef0 19       		.uleb128 0x19
 3456 0ef1 8F010000 		.4byte	.LASF281
 3457 0ef5 01       		.byte	0x1
 3458 0ef6 D701     		.2byte	0x1d7
 3459 0ef8 FB0C0000 		.4byte	0xcfb
 3460 0efc 02       		.byte	0x2
 3461 0efd 91       		.byte	0x91
 3462 0efe 5C       		.sleb128 -36
 3463 0eff 1A       		.uleb128 0x1a
 3464 0f00 6F707400 		.ascii	"opt\000"
 3465 0f04 01       		.byte	0x1
 3466 0f05 D801     		.2byte	0x1d8
 3467 0f07 5C010000 		.4byte	0x15c
 3468 0f0b 02       		.byte	0x2
 3469 0f0c 91       		.byte	0x91
 3470 0f0d 5A       		.sleb128 -38
 3471 0f0e 19       		.uleb128 0x19
 3472 0f0f BF070000 		.4byte	.LASF283
 3473 0f13 01       		.byte	0x1
 3474 0f14 D901     		.2byte	0x1d9
 3475 0f16 800D0000 		.4byte	0xd80
 3476 0f1a 02       		.byte	0x2
 3477 0f1b 91       		.byte	0x91
 3478 0f1c 54       		.sleb128 -44
ARM GAS  C:\Users\daniel01\AppData\Local\Temp\ccip0sTe.s 			page 79


 3479 0f1d 1C       		.uleb128 0x1c
 3480 0f1e 41030000 		.4byte	.LASF287
 3481 0f22 01       		.byte	0x1
 3482 0f23 DB01     		.2byte	0x1db
 3483 0f25 2F0E0000 		.4byte	0xe2f
 3484 0f29 02       		.byte	0x2
 3485 0f2a 91       		.byte	0x91
 3486 0f2b 64       		.sleb128 -28
 3487 0f2c 1C       		.uleb128 0x1c
 3488 0f2d B6090000 		.4byte	.LASF288
 3489 0f31 01       		.byte	0x1
 3490 0f32 DC01     		.2byte	0x1dc
 3491 0f34 DD0C0000 		.4byte	0xcdd
 3492 0f38 02       		.byte	0x2
 3493 0f39 91       		.byte	0x91
 3494 0f3a 68       		.sleb128 -24
 3495 0f3b 1B       		.uleb128 0x1b
 3496 0f3c 747300   		.ascii	"ts\000"
 3497 0f3f 01       		.byte	0x1
 3498 0f40 DD01     		.2byte	0x1dd
 3499 0f42 EE000000 		.4byte	0xee
 3500 0f46 02       		.byte	0x2
 3501 0f47 91       		.byte	0x91
 3502 0f48 6C       		.sleb128 -20
 3503 0f49 1C       		.uleb128 0x1c
 3504 0f4a 670A0000 		.4byte	.LASF285
 3505 0f4e 01       		.byte	0x1
 3506 0f4f DE01     		.2byte	0x1de
 3507 0f51 46010000 		.4byte	0x146
 3508 0f55 02       		.byte	0x2
 3509 0f56 91       		.byte	0x91
 3510 0f57 72       		.sleb128 -14
 3511 0f58 1C       		.uleb128 0x1c
 3512 0f59 B7040000 		.4byte	.LASF284
 3513 0f5d 01       		.byte	0x1
 3514 0f5e DF01     		.2byte	0x1df
 3515 0f60 D7000000 		.4byte	0xd7
 3516 0f64 02       		.byte	0x2
 3517 0f65 91       		.byte	0x91
 3518 0f66 74       		.sleb128 -12
 3519 0f67 00       		.byte	0x0
 3520 0f68 18       		.uleb128 0x18
 3521 0f69 01       		.byte	0x1
 3522 0f6a 6D030000 		.4byte	.LASF295
 3523 0f6e 01       		.byte	0x1
 3524 0f6f 4802     		.2byte	0x248
 3525 0f71 01       		.byte	0x1
 3526 0f72 7D010000 		.4byte	0x17d
 3527 0f76 00000000 		.4byte	.LFB4
 3528 0f7a 76000000 		.4byte	.LFE4
 3529 0f7e DE000000 		.4byte	.LLST4
 3530 0f82 D10F0000 		.4byte	0xfd1
 3531 0f86 19       		.uleb128 0x19
 3532 0f87 8F010000 		.4byte	.LASF281
 3533 0f8b 01       		.byte	0x1
 3534 0f8c 4802     		.2byte	0x248
 3535 0f8e FB0C0000 		.4byte	0xcfb
ARM GAS  C:\Users\daniel01\AppData\Local\Temp\ccip0sTe.s 			page 80


 3536 0f92 02       		.byte	0x2
 3537 0f93 91       		.byte	0x91
 3538 0f94 6C       		.sleb128 -20
 3539 0f95 1A       		.uleb128 0x1a
 3540 0f96 6F707400 		.ascii	"opt\000"
 3541 0f9a 01       		.byte	0x1
 3542 0f9b 4902     		.2byte	0x249
 3543 0f9d 5C010000 		.4byte	0x15c
 3544 0fa1 02       		.byte	0x2
 3545 0fa2 91       		.byte	0x91
 3546 0fa3 6A       		.sleb128 -22
 3547 0fa4 19       		.uleb128 0x19
 3548 0fa5 BF070000 		.4byte	.LASF283
 3549 0fa9 01       		.byte	0x1
 3550 0faa 4A02     		.2byte	0x24a
 3551 0fac 800D0000 		.4byte	0xd80
 3552 0fb0 02       		.byte	0x2
 3553 0fb1 91       		.byte	0x91
 3554 0fb2 64       		.sleb128 -28
 3555 0fb3 1B       		.uleb128 0x1b
 3556 0fb4 63747200 		.ascii	"ctr\000"
 3557 0fb8 01       		.byte	0x1
 3558 0fb9 4C02     		.2byte	0x24c
 3559 0fbb 7D010000 		.4byte	0x17d
 3560 0fbf 02       		.byte	0x2
 3561 0fc0 91       		.byte	0x91
 3562 0fc1 70       		.sleb128 -16
 3563 0fc2 1B       		.uleb128 0x1b
 3564 0fc3 747300   		.ascii	"ts\000"
 3565 0fc6 01       		.byte	0x1
 3566 0fc7 4D02     		.2byte	0x24d
 3567 0fc9 EE000000 		.4byte	0xee
 3568 0fcd 02       		.byte	0x2
 3569 0fce 91       		.byte	0x91
 3570 0fcf 74       		.sleb128 -12
 3571 0fd0 00       		.byte	0x0
 3572 0fd1 1D       		.uleb128 0x1d
 3573 0fd2 01       		.byte	0x1
 3574 0fd3 1B0F0000 		.4byte	.LASF297
 3575 0fd7 01       		.byte	0x1
 3576 0fd8 A402     		.2byte	0x2a4
 3577 0fda 01       		.byte	0x1
 3578 0fdb 00000000 		.4byte	.LFB5
 3579 0fdf 88000000 		.4byte	.LFE5
 3580 0fe3 15010000 		.4byte	.LLST5
 3581 0fe7 37100000 		.4byte	0x1037
 3582 0feb 19       		.uleb128 0x19
 3583 0fec 8F010000 		.4byte	.LASF281
 3584 0ff0 01       		.byte	0x1
 3585 0ff1 A402     		.2byte	0x2a4
 3586 0ff3 FB0C0000 		.4byte	0xcfb
 3587 0ff7 02       		.byte	0x2
 3588 0ff8 91       		.byte	0x91
 3589 0ff9 6C       		.sleb128 -20
 3590 0ffa 1A       		.uleb128 0x1a
 3591 0ffb 636E7400 		.ascii	"cnt\000"
 3592 0fff 01       		.byte	0x1
ARM GAS  C:\Users\daniel01\AppData\Local\Temp\ccip0sTe.s 			page 81


 3593 1000 A502     		.2byte	0x2a5
 3594 1002 7D010000 		.4byte	0x17d
 3595 1006 02       		.byte	0x2
 3596 1007 91       		.byte	0x91
 3597 1008 68       		.sleb128 -24
 3598 1009 19       		.uleb128 0x19
 3599 100a BF070000 		.4byte	.LASF283
 3600 100e 01       		.byte	0x1
 3601 100f A602     		.2byte	0x2a6
 3602 1011 800D0000 		.4byte	0xd80
 3603 1015 02       		.byte	0x2
 3604 1016 91       		.byte	0x91
 3605 1017 64       		.sleb128 -28
 3606 1018 1C       		.uleb128 0x1c
 3607 1019 41030000 		.4byte	.LASF287
 3608 101d 01       		.byte	0x1
 3609 101e A802     		.2byte	0x2a8
 3610 1020 2F0E0000 		.4byte	0xe2f
 3611 1024 02       		.byte	0x2
 3612 1025 91       		.byte	0x91
 3613 1026 70       		.sleb128 -16
 3614 1027 1C       		.uleb128 0x1c
 3615 1028 B7040000 		.4byte	.LASF284
 3616 102c 01       		.byte	0x1
 3617 102d A902     		.2byte	0x2a9
 3618 102f D7000000 		.4byte	0xd7
 3619 1033 02       		.byte	0x2
 3620 1034 91       		.byte	0x91
 3621 1035 74       		.sleb128 -12
 3622 1036 00       		.byte	0x0
 3623 1037 1D       		.uleb128 0x1d
 3624 1038 01       		.byte	0x1
 3625 1039 E50A0000 		.4byte	.LASF298
 3626 103d 01       		.byte	0x1
 3627 103e EA02     		.2byte	0x2ea
 3628 1040 01       		.byte	0x1
 3629 1041 00000000 		.4byte	.LFB6
 3630 1045 44000000 		.4byte	.LFE6
 3631 1049 4C010000 		.4byte	.LLST6
 3632 104d 61100000 		.4byte	0x1061
 3633 1051 19       		.uleb128 0x19
 3634 1052 8F010000 		.4byte	.LASF281
 3635 1056 01       		.byte	0x1
 3636 1057 EA02     		.2byte	0x2ea
 3637 1059 FB0C0000 		.4byte	0xcfb
 3638 105d 02       		.byte	0x2
 3639 105e 91       		.byte	0x91
 3640 105f 74       		.sleb128 -12
 3641 1060 00       		.byte	0x0
 3642 1061 1D       		.uleb128 0x1d
 3643 1062 01       		.byte	0x1
 3644 1063 9D0E0000 		.4byte	.LASF299
 3645 1067 01       		.byte	0x1
 3646 1068 0403     		.2byte	0x304
 3647 106a 01       		.byte	0x1
 3648 106b 00000000 		.4byte	.LFB7
 3649 106f 66000000 		.4byte	.LFE7
ARM GAS  C:\Users\daniel01\AppData\Local\Temp\ccip0sTe.s 			page 82


 3650 1073 83010000 		.4byte	.LLST7
 3651 1077 8B100000 		.4byte	0x108b
 3652 107b 19       		.uleb128 0x19
 3653 107c 8F010000 		.4byte	.LASF281
 3654 1080 01       		.byte	0x1
 3655 1081 0403     		.2byte	0x304
 3656 1083 FB0C0000 		.4byte	0xcfb
 3657 1087 02       		.byte	0x2
 3658 1088 91       		.byte	0x91
 3659 1089 74       		.sleb128 -12
 3660 108a 00       		.byte	0x0
 3661 108b 1D       		.uleb128 0x1d
 3662 108c 01       		.byte	0x1
 3663 108d D7080000 		.4byte	.LASF300
 3664 1091 01       		.byte	0x1
 3665 1092 1303     		.2byte	0x313
 3666 1094 01       		.byte	0x1
 3667 1095 00000000 		.4byte	.LFB8
 3668 1099 7C000000 		.4byte	.LFE8
 3669 109d BA010000 		.4byte	.LLST8
 3670 10a1 D3100000 		.4byte	0x10d3
 3671 10a5 19       		.uleb128 0x19
 3672 10a6 8F010000 		.4byte	.LASF281
 3673 10aa 01       		.byte	0x1
 3674 10ab 1303     		.2byte	0x313
 3675 10ad FB0C0000 		.4byte	0xcfb
 3676 10b1 02       		.byte	0x2
 3677 10b2 91       		.byte	0x91
 3678 10b3 6C       		.sleb128 -20
 3679 10b4 1C       		.uleb128 0x1c
 3680 10b5 DD060000 		.4byte	.LASF301
 3681 10b9 01       		.byte	0x1
 3682 10ba 1503     		.2byte	0x315
 3683 10bc FB0C0000 		.4byte	0xcfb
 3684 10c0 02       		.byte	0x2
 3685 10c1 91       		.byte	0x91
 3686 10c2 70       		.sleb128 -16
 3687 10c3 1C       		.uleb128 0x1c
 3688 10c4 A10A0000 		.4byte	.LASF302
 3689 10c8 01       		.byte	0x1
 3690 10c9 1603     		.2byte	0x316
 3691 10cb FB0C0000 		.4byte	0xcfb
 3692 10cf 02       		.byte	0x2
 3693 10d0 91       		.byte	0x91
 3694 10d1 74       		.sleb128 -12
 3695 10d2 00       		.byte	0x0
 3696 10d3 1D       		.uleb128 0x1d
 3697 10d4 01       		.byte	0x1
 3698 10d5 2B090000 		.4byte	.LASF303
 3699 10d9 01       		.byte	0x1
 3700 10da 4203     		.2byte	0x342
 3701 10dc 01       		.byte	0x1
 3702 10dd 00000000 		.4byte	.LFB9
 3703 10e1 36000000 		.4byte	.LFE9
 3704 10e5 F1010000 		.4byte	.LLST9
 3705 10e9 FD100000 		.4byte	0x10fd
 3706 10ed 19       		.uleb128 0x19
ARM GAS  C:\Users\daniel01\AppData\Local\Temp\ccip0sTe.s 			page 83


 3707 10ee BF070000 		.4byte	.LASF283
 3708 10f2 01       		.byte	0x1
 3709 10f3 4203     		.2byte	0x342
 3710 10f5 800D0000 		.4byte	0xd80
 3711 10f9 02       		.byte	0x2
 3712 10fa 91       		.byte	0x91
 3713 10fb 74       		.sleb128 -12
 3714 10fc 00       		.byte	0x0
 3715 10fd 18       		.uleb128 0x18
 3716 10fe 01       		.byte	0x1
 3717 10ff B4060000 		.4byte	.LASF304
 3718 1103 01       		.byte	0x1
 3719 1104 7403     		.2byte	0x374
 3720 1106 01       		.byte	0x1
 3721 1107 7D010000 		.4byte	0x17d
 3722 110b 00000000 		.4byte	.LFB10
 3723 110f F6000000 		.4byte	.LFE10
 3724 1113 28020000 		.4byte	.LLST10
 3725 1117 C0110000 		.4byte	0x11c0
 3726 111b 19       		.uleb128 0x19
 3727 111c 8F010000 		.4byte	.LASF281
 3728 1120 01       		.byte	0x1
 3729 1121 7403     		.2byte	0x374
 3730 1123 FB0C0000 		.4byte	0xcfb
 3731 1127 02       		.byte	0x2
 3732 1128 91       		.byte	0x91
 3733 1129 54       		.sleb128 -44
 3734 112a 1A       		.uleb128 0x1a
 3735 112b 6F707400 		.ascii	"opt\000"
 3736 112f 01       		.byte	0x1
 3737 1130 7503     		.2byte	0x375
 3738 1132 5C010000 		.4byte	0x15c
 3739 1136 02       		.byte	0x2
 3740 1137 91       		.byte	0x91
 3741 1138 52       		.sleb128 -46
 3742 1139 1A       		.uleb128 0x1a
 3743 113a 747300   		.ascii	"ts\000"
 3744 113d 01       		.byte	0x1
 3745 113e 7603     		.2byte	0x376
 3746 1140 EE000000 		.4byte	0xee
 3747 1144 02       		.byte	0x2
 3748 1145 91       		.byte	0x91
 3749 1146 4C       		.sleb128 -52
 3750 1147 19       		.uleb128 0x19
 3751 1148 BF070000 		.4byte	.LASF283
 3752 114c 01       		.byte	0x1
 3753 114d 7703     		.2byte	0x377
 3754 114f 800D0000 		.4byte	0xd80
 3755 1153 02       		.byte	0x2
 3756 1154 91       		.byte	0x91
 3757 1155 48       		.sleb128 -56
 3758 1156 1B       		.uleb128 0x1b
 3759 1157 636E7400 		.ascii	"cnt\000"
 3760 115b 01       		.byte	0x1
 3761 115c 7903     		.2byte	0x379
 3762 115e 46010000 		.4byte	0x146
 3763 1162 02       		.byte	0x2
ARM GAS  C:\Users\daniel01\AppData\Local\Temp\ccip0sTe.s 			page 84


 3764 1163 91       		.byte	0x91
 3765 1164 5E       		.sleb128 -34
 3766 1165 1B       		.uleb128 0x1b
 3767 1166 63747200 		.ascii	"ctr\000"
 3768 116a 01       		.byte	0x1
 3769 116b 7A03     		.2byte	0x37a
 3770 116d 7D010000 		.4byte	0x17d
 3771 1171 02       		.byte	0x2
 3772 1172 91       		.byte	0x91
 3773 1173 60       		.sleb128 -32
 3774 1174 1C       		.uleb128 0x1c
 3775 1175 41030000 		.4byte	.LASF287
 3776 1179 01       		.byte	0x1
 3777 117a 7B03     		.2byte	0x37b
 3778 117c 2F0E0000 		.4byte	0xe2f
 3779 1180 02       		.byte	0x2
 3780 1181 91       		.byte	0x91
 3781 1182 64       		.sleb128 -28
 3782 1183 1C       		.uleb128 0x1c
 3783 1184 57080000 		.4byte	.LASF286
 3784 1188 01       		.byte	0x1
 3785 1189 7C03     		.2byte	0x37c
 3786 118b E30C0000 		.4byte	0xce3
 3787 118f 02       		.byte	0x2
 3788 1190 91       		.byte	0x91
 3789 1191 68       		.sleb128 -24
 3790 1192 1C       		.uleb128 0x1c
 3791 1193 5B0B0000 		.4byte	.LASF305
 3792 1197 01       		.byte	0x1
 3793 1198 7D03     		.2byte	0x37d
 3794 119a E30C0000 		.4byte	0xce3
 3795 119e 02       		.byte	0x2
 3796 119f 91       		.byte	0x91
 3797 11a0 6C       		.sleb128 -20
 3798 11a1 1C       		.uleb128 0x1c
 3799 11a2 B6090000 		.4byte	.LASF288
 3800 11a6 01       		.byte	0x1
 3801 11a7 7E03     		.2byte	0x37e
 3802 11a9 DD0C0000 		.4byte	0xcdd
 3803 11ad 02       		.byte	0x2
 3804 11ae 91       		.byte	0x91
 3805 11af 70       		.sleb128 -16
 3806 11b0 1C       		.uleb128 0x1c
 3807 11b1 B7040000 		.4byte	.LASF284
 3808 11b5 01       		.byte	0x1
 3809 11b6 7F03     		.2byte	0x37f
 3810 11b8 D7000000 		.4byte	0xd7
 3811 11bc 02       		.byte	0x2
 3812 11bd 91       		.byte	0x91
 3813 11be 74       		.sleb128 -12
 3814 11bf 00       		.byte	0x0
 3815 11c0 1E       		.uleb128 0x1e
 3816 11c1 530C0000 		.4byte	.LASF306
 3817 11c5 05       		.byte	0x5
 3818 11c6 5F04     		.2byte	0x45f
 3819 11c8 3B010000 		.4byte	0x13b
 3820 11cc 01       		.byte	0x1
ARM GAS  C:\Users\daniel01\AppData\Local\Temp\ccip0sTe.s 			page 85


 3821 11cd 01       		.byte	0x1
 3822 11ce 1E       		.uleb128 0x1e
 3823 11cf 6D0F0000 		.4byte	.LASF307
 3824 11d3 05       		.byte	0x5
 3825 11d4 AD04     		.2byte	0x4ad
 3826 11d6 3B010000 		.4byte	0x13b
 3827 11da 01       		.byte	0x1
 3828 11db 01       		.byte	0x1
 3829 11dc 1E       		.uleb128 0x1e
 3830 11dd 96050000 		.4byte	.LASF308
 3831 11e1 05       		.byte	0x5
 3832 11e2 B504     		.2byte	0x4b5
 3833 11e4 FB0C0000 		.4byte	0xcfb
 3834 11e8 01       		.byte	0x1
 3835 11e9 01       		.byte	0x1
 3836 11ea 1E       		.uleb128 0x1e
 3837 11eb 38030000 		.4byte	.LASF309
 3838 11ef 05       		.byte	0x5
 3839 11f0 B704     		.2byte	0x4b7
 3840 11f2 46010000 		.4byte	0x146
 3841 11f6 01       		.byte	0x1
 3842 11f7 01       		.byte	0x1
 3843 11f8 1E       		.uleb128 0x1e
 3844 11f9 DA010000 		.4byte	.LASF310
 3845 11fd 05       		.byte	0x5
 3846 11fe E504     		.2byte	0x4e5
 3847 1200 DD0C0000 		.4byte	0xcdd
 3848 1204 01       		.byte	0x1
 3849 1205 01       		.byte	0x1
 3850 1206 00       		.byte	0x0
 3851              		.section	.debug_abbrev
 3852 0000 01       		.uleb128 0x1
 3853 0001 11       		.uleb128 0x11
 3854 0002 01       		.byte	0x1
 3855 0003 25       		.uleb128 0x25
 3856 0004 0E       		.uleb128 0xe
 3857 0005 13       		.uleb128 0x13
 3858 0006 0B       		.uleb128 0xb
 3859 0007 03       		.uleb128 0x3
 3860 0008 0E       		.uleb128 0xe
 3861 0009 1B       		.uleb128 0x1b
 3862 000a 0E       		.uleb128 0xe
 3863 000b 11       		.uleb128 0x11
 3864 000c 01       		.uleb128 0x1
 3865 000d 52       		.uleb128 0x52
 3866 000e 01       		.uleb128 0x1
 3867 000f 55       		.uleb128 0x55
 3868 0010 06       		.uleb128 0x6
 3869 0011 10       		.uleb128 0x10
 3870 0012 06       		.uleb128 0x6
 3871 0013 00       		.byte	0x0
 3872 0014 00       		.byte	0x0
 3873 0015 02       		.uleb128 0x2
 3874 0016 16       		.uleb128 0x16
 3875 0017 00       		.byte	0x0
 3876 0018 03       		.uleb128 0x3
 3877 0019 0E       		.uleb128 0xe
ARM GAS  C:\Users\daniel01\AppData\Local\Temp\ccip0sTe.s 			page 86


 3878 001a 3A       		.uleb128 0x3a
 3879 001b 0B       		.uleb128 0xb
 3880 001c 3B       		.uleb128 0x3b
 3881 001d 0B       		.uleb128 0xb
 3882 001e 49       		.uleb128 0x49
 3883 001f 13       		.uleb128 0x13
 3884 0020 00       		.byte	0x0
 3885 0021 00       		.byte	0x0
 3886 0022 03       		.uleb128 0x3
 3887 0023 24       		.uleb128 0x24
 3888 0024 00       		.byte	0x0
 3889 0025 0B       		.uleb128 0xb
 3890 0026 0B       		.uleb128 0xb
 3891 0027 3E       		.uleb128 0x3e
 3892 0028 0B       		.uleb128 0xb
 3893 0029 03       		.uleb128 0x3
 3894 002a 0E       		.uleb128 0xe
 3895 002b 00       		.byte	0x0
 3896 002c 00       		.byte	0x0
 3897 002d 04       		.uleb128 0x4
 3898 002e 24       		.uleb128 0x24
 3899 002f 00       		.byte	0x0
 3900 0030 0B       		.uleb128 0xb
 3901 0031 0B       		.uleb128 0xb
 3902 0032 3E       		.uleb128 0x3e
 3903 0033 0B       		.uleb128 0xb
 3904 0034 03       		.uleb128 0x3
 3905 0035 08       		.uleb128 0x8
 3906 0036 00       		.byte	0x0
 3907 0037 00       		.byte	0x0
 3908 0038 05       		.uleb128 0x5
 3909 0039 0F       		.uleb128 0xf
 3910 003a 00       		.byte	0x0
 3911 003b 0B       		.uleb128 0xb
 3912 003c 0B       		.uleb128 0xb
 3913 003d 49       		.uleb128 0x49
 3914 003e 13       		.uleb128 0x13
 3915 003f 00       		.byte	0x0
 3916 0040 00       		.byte	0x0
 3917 0041 06       		.uleb128 0x6
 3918 0042 15       		.uleb128 0x15
 3919 0043 01       		.byte	0x1
 3920 0044 27       		.uleb128 0x27
 3921 0045 0C       		.uleb128 0xc
 3922 0046 01       		.uleb128 0x1
 3923 0047 13       		.uleb128 0x13
 3924 0048 00       		.byte	0x0
 3925 0049 00       		.byte	0x0
 3926 004a 07       		.uleb128 0x7
 3927 004b 05       		.uleb128 0x5
 3928 004c 00       		.byte	0x0
 3929 004d 49       		.uleb128 0x49
 3930 004e 13       		.uleb128 0x13
 3931 004f 00       		.byte	0x0
 3932 0050 00       		.byte	0x0
 3933 0051 08       		.uleb128 0x8
 3934 0052 0F       		.uleb128 0xf
ARM GAS  C:\Users\daniel01\AppData\Local\Temp\ccip0sTe.s 			page 87


 3935 0053 00       		.byte	0x0
 3936 0054 0B       		.uleb128 0xb
 3937 0055 0B       		.uleb128 0xb
 3938 0056 00       		.byte	0x0
 3939 0057 00       		.byte	0x0
 3940 0058 09       		.uleb128 0x9
 3941 0059 16       		.uleb128 0x16
 3942 005a 00       		.byte	0x0
 3943 005b 03       		.uleb128 0x3
 3944 005c 0E       		.uleb128 0xe
 3945 005d 3A       		.uleb128 0x3a
 3946 005e 0B       		.uleb128 0xb
 3947 005f 3B       		.uleb128 0x3b
 3948 0060 05       		.uleb128 0x5
 3949 0061 49       		.uleb128 0x49
 3950 0062 13       		.uleb128 0x13
 3951 0063 00       		.byte	0x0
 3952 0064 00       		.byte	0x0
 3953 0065 0A       		.uleb128 0xa
 3954 0066 04       		.uleb128 0x4
 3955 0067 01       		.byte	0x1
 3956 0068 03       		.uleb128 0x3
 3957 0069 0E       		.uleb128 0xe
 3958 006a 0B       		.uleb128 0xb
 3959 006b 0B       		.uleb128 0xb
 3960 006c 3A       		.uleb128 0x3a
 3961 006d 0B       		.uleb128 0xb
 3962 006e 3B       		.uleb128 0x3b
 3963 006f 05       		.uleb128 0x5
 3964 0070 01       		.uleb128 0x1
 3965 0071 13       		.uleb128 0x13
 3966 0072 00       		.byte	0x0
 3967 0073 00       		.byte	0x0
 3968 0074 0B       		.uleb128 0xb
 3969 0075 28       		.uleb128 0x28
 3970 0076 00       		.byte	0x0
 3971 0077 03       		.uleb128 0x3
 3972 0078 0E       		.uleb128 0xe
 3973 0079 1C       		.uleb128 0x1c
 3974 007a 0D       		.uleb128 0xd
 3975 007b 00       		.byte	0x0
 3976 007c 00       		.byte	0x0
 3977 007d 0C       		.uleb128 0xc
 3978 007e 13       		.uleb128 0x13
 3979 007f 01       		.byte	0x1
 3980 0080 03       		.uleb128 0x3
 3981 0081 0E       		.uleb128 0xe
 3982 0082 0B       		.uleb128 0xb
 3983 0083 0B       		.uleb128 0xb
 3984 0084 3A       		.uleb128 0x3a
 3985 0085 0B       		.uleb128 0xb
 3986 0086 3B       		.uleb128 0x3b
 3987 0087 05       		.uleb128 0x5
 3988 0088 01       		.uleb128 0x1
 3989 0089 13       		.uleb128 0x13
 3990 008a 00       		.byte	0x0
 3991 008b 00       		.byte	0x0
ARM GAS  C:\Users\daniel01\AppData\Local\Temp\ccip0sTe.s 			page 88


 3992 008c 0D       		.uleb128 0xd
 3993 008d 0D       		.uleb128 0xd
 3994 008e 00       		.byte	0x0
 3995 008f 03       		.uleb128 0x3
 3996 0090 0E       		.uleb128 0xe
 3997 0091 3A       		.uleb128 0x3a
 3998 0092 0B       		.uleb128 0xb
 3999 0093 3B       		.uleb128 0x3b
 4000 0094 05       		.uleb128 0x5
 4001 0095 49       		.uleb128 0x49
 4002 0096 13       		.uleb128 0x13
 4003 0097 38       		.uleb128 0x38
 4004 0098 0A       		.uleb128 0xa
 4005 0099 00       		.byte	0x0
 4006 009a 00       		.byte	0x0
 4007 009b 0E       		.uleb128 0xe
 4008 009c 0D       		.uleb128 0xd
 4009 009d 00       		.byte	0x0
 4010 009e 03       		.uleb128 0x3
 4011 009f 08       		.uleb128 0x8
 4012 00a0 3A       		.uleb128 0x3a
 4013 00a1 0B       		.uleb128 0xb
 4014 00a2 3B       		.uleb128 0x3b
 4015 00a3 05       		.uleb128 0x5
 4016 00a4 49       		.uleb128 0x49
 4017 00a5 13       		.uleb128 0x13
 4018 00a6 38       		.uleb128 0x38
 4019 00a7 0A       		.uleb128 0xa
 4020 00a8 00       		.byte	0x0
 4021 00a9 00       		.byte	0x0
 4022 00aa 0F       		.uleb128 0xf
 4023 00ab 01       		.uleb128 0x1
 4024 00ac 01       		.byte	0x1
 4025 00ad 49       		.uleb128 0x49
 4026 00ae 13       		.uleb128 0x13
 4027 00af 01       		.uleb128 0x1
 4028 00b0 13       		.uleb128 0x13
 4029 00b1 00       		.byte	0x0
 4030 00b2 00       		.byte	0x0
 4031 00b3 10       		.uleb128 0x10
 4032 00b4 21       		.uleb128 0x21
 4033 00b5 00       		.byte	0x0
 4034 00b6 49       		.uleb128 0x49
 4035 00b7 13       		.uleb128 0x13
 4036 00b8 2F       		.uleb128 0x2f
 4037 00b9 0B       		.uleb128 0xb
 4038 00ba 00       		.byte	0x0
 4039 00bb 00       		.byte	0x0
 4040 00bc 11       		.uleb128 0x11
 4041 00bd 24       		.uleb128 0x24
 4042 00be 00       		.byte	0x0
 4043 00bf 0B       		.uleb128 0xb
 4044 00c0 0B       		.uleb128 0xb
 4045 00c1 3E       		.uleb128 0x3e
 4046 00c2 0B       		.uleb128 0xb
 4047 00c3 00       		.byte	0x0
 4048 00c4 00       		.byte	0x0
ARM GAS  C:\Users\daniel01\AppData\Local\Temp\ccip0sTe.s 			page 89


 4049 00c5 12       		.uleb128 0x12
 4050 00c6 2E       		.uleb128 0x2e
 4051 00c7 01       		.byte	0x1
 4052 00c8 3F       		.uleb128 0x3f
 4053 00c9 0C       		.uleb128 0xc
 4054 00ca 03       		.uleb128 0x3
 4055 00cb 0E       		.uleb128 0xe
 4056 00cc 3A       		.uleb128 0x3a
 4057 00cd 0B       		.uleb128 0xb
 4058 00ce 3B       		.uleb128 0x3b
 4059 00cf 0B       		.uleb128 0xb
 4060 00d0 27       		.uleb128 0x27
 4061 00d1 0C       		.uleb128 0xc
 4062 00d2 11       		.uleb128 0x11
 4063 00d3 01       		.uleb128 0x1
 4064 00d4 12       		.uleb128 0x12
 4065 00d5 01       		.uleb128 0x1
 4066 00d6 40       		.uleb128 0x40
 4067 00d7 06       		.uleb128 0x6
 4068 00d8 01       		.uleb128 0x1
 4069 00d9 13       		.uleb128 0x13
 4070 00da 00       		.byte	0x0
 4071 00db 00       		.byte	0x0
 4072 00dc 13       		.uleb128 0x13
 4073 00dd 05       		.uleb128 0x5
 4074 00de 00       		.byte	0x0
 4075 00df 03       		.uleb128 0x3
 4076 00e0 0E       		.uleb128 0xe
 4077 00e1 3A       		.uleb128 0x3a
 4078 00e2 0B       		.uleb128 0xb
 4079 00e3 3B       		.uleb128 0x3b
 4080 00e4 0B       		.uleb128 0xb
 4081 00e5 49       		.uleb128 0x49
 4082 00e6 13       		.uleb128 0x13
 4083 00e7 02       		.uleb128 0x2
 4084 00e8 0A       		.uleb128 0xa
 4085 00e9 00       		.byte	0x0
 4086 00ea 00       		.byte	0x0
 4087 00eb 14       		.uleb128 0x14
 4088 00ec 05       		.uleb128 0x5
 4089 00ed 00       		.byte	0x0
 4090 00ee 03       		.uleb128 0x3
 4091 00ef 08       		.uleb128 0x8
 4092 00f0 3A       		.uleb128 0x3a
 4093 00f1 0B       		.uleb128 0xb
 4094 00f2 3B       		.uleb128 0x3b
 4095 00f3 0B       		.uleb128 0xb
 4096 00f4 49       		.uleb128 0x49
 4097 00f5 13       		.uleb128 0x13
 4098 00f6 02       		.uleb128 0x2
 4099 00f7 0A       		.uleb128 0xa
 4100 00f8 00       		.byte	0x0
 4101 00f9 00       		.byte	0x0
 4102 00fa 15       		.uleb128 0x15
 4103 00fb 34       		.uleb128 0x34
 4104 00fc 00       		.byte	0x0
 4105 00fd 03       		.uleb128 0x3
ARM GAS  C:\Users\daniel01\AppData\Local\Temp\ccip0sTe.s 			page 90


 4106 00fe 0E       		.uleb128 0xe
 4107 00ff 3A       		.uleb128 0x3a
 4108 0100 0B       		.uleb128 0xb
 4109 0101 3B       		.uleb128 0x3b
 4110 0102 0B       		.uleb128 0xb
 4111 0103 49       		.uleb128 0x49
 4112 0104 13       		.uleb128 0x13
 4113 0105 02       		.uleb128 0x2
 4114 0106 0A       		.uleb128 0xa
 4115 0107 00       		.byte	0x0
 4116 0108 00       		.byte	0x0
 4117 0109 16       		.uleb128 0x16
 4118 010a 2E       		.uleb128 0x2e
 4119 010b 01       		.byte	0x1
 4120 010c 3F       		.uleb128 0x3f
 4121 010d 0C       		.uleb128 0xc
 4122 010e 03       		.uleb128 0x3
 4123 010f 0E       		.uleb128 0xe
 4124 0110 3A       		.uleb128 0x3a
 4125 0111 0B       		.uleb128 0xb
 4126 0112 3B       		.uleb128 0x3b
 4127 0113 0B       		.uleb128 0xb
 4128 0114 27       		.uleb128 0x27
 4129 0115 0C       		.uleb128 0xc
 4130 0116 49       		.uleb128 0x49
 4131 0117 13       		.uleb128 0x13
 4132 0118 11       		.uleb128 0x11
 4133 0119 01       		.uleb128 0x1
 4134 011a 12       		.uleb128 0x12
 4135 011b 01       		.uleb128 0x1
 4136 011c 40       		.uleb128 0x40
 4137 011d 06       		.uleb128 0x6
 4138 011e 01       		.uleb128 0x1
 4139 011f 13       		.uleb128 0x13
 4140 0120 00       		.byte	0x0
 4141 0121 00       		.byte	0x0
 4142 0122 17       		.uleb128 0x17
 4143 0123 34       		.uleb128 0x34
 4144 0124 00       		.byte	0x0
 4145 0125 03       		.uleb128 0x3
 4146 0126 08       		.uleb128 0x8
 4147 0127 3A       		.uleb128 0x3a
 4148 0128 0B       		.uleb128 0xb
 4149 0129 3B       		.uleb128 0x3b
 4150 012a 0B       		.uleb128 0xb
 4151 012b 49       		.uleb128 0x49
 4152 012c 13       		.uleb128 0x13
 4153 012d 02       		.uleb128 0x2
 4154 012e 0A       		.uleb128 0xa
 4155 012f 00       		.byte	0x0
 4156 0130 00       		.byte	0x0
 4157 0131 18       		.uleb128 0x18
 4158 0132 2E       		.uleb128 0x2e
 4159 0133 01       		.byte	0x1
 4160 0134 3F       		.uleb128 0x3f
 4161 0135 0C       		.uleb128 0xc
 4162 0136 03       		.uleb128 0x3
ARM GAS  C:\Users\daniel01\AppData\Local\Temp\ccip0sTe.s 			page 91


 4163 0137 0E       		.uleb128 0xe
 4164 0138 3A       		.uleb128 0x3a
 4165 0139 0B       		.uleb128 0xb
 4166 013a 3B       		.uleb128 0x3b
 4167 013b 05       		.uleb128 0x5
 4168 013c 27       		.uleb128 0x27
 4169 013d 0C       		.uleb128 0xc
 4170 013e 49       		.uleb128 0x49
 4171 013f 13       		.uleb128 0x13
 4172 0140 11       		.uleb128 0x11
 4173 0141 01       		.uleb128 0x1
 4174 0142 12       		.uleb128 0x12
 4175 0143 01       		.uleb128 0x1
 4176 0144 40       		.uleb128 0x40
 4177 0145 06       		.uleb128 0x6
 4178 0146 01       		.uleb128 0x1
 4179 0147 13       		.uleb128 0x13
 4180 0148 00       		.byte	0x0
 4181 0149 00       		.byte	0x0
 4182 014a 19       		.uleb128 0x19
 4183 014b 05       		.uleb128 0x5
 4184 014c 00       		.byte	0x0
 4185 014d 03       		.uleb128 0x3
 4186 014e 0E       		.uleb128 0xe
 4187 014f 3A       		.uleb128 0x3a
 4188 0150 0B       		.uleb128 0xb
 4189 0151 3B       		.uleb128 0x3b
 4190 0152 05       		.uleb128 0x5
 4191 0153 49       		.uleb128 0x49
 4192 0154 13       		.uleb128 0x13
 4193 0155 02       		.uleb128 0x2
 4194 0156 0A       		.uleb128 0xa
 4195 0157 00       		.byte	0x0
 4196 0158 00       		.byte	0x0
 4197 0159 1A       		.uleb128 0x1a
 4198 015a 05       		.uleb128 0x5
 4199 015b 00       		.byte	0x0
 4200 015c 03       		.uleb128 0x3
 4201 015d 08       		.uleb128 0x8
 4202 015e 3A       		.uleb128 0x3a
 4203 015f 0B       		.uleb128 0xb
 4204 0160 3B       		.uleb128 0x3b
 4205 0161 05       		.uleb128 0x5
 4206 0162 49       		.uleb128 0x49
 4207 0163 13       		.uleb128 0x13
 4208 0164 02       		.uleb128 0x2
 4209 0165 0A       		.uleb128 0xa
 4210 0166 00       		.byte	0x0
 4211 0167 00       		.byte	0x0
 4212 0168 1B       		.uleb128 0x1b
 4213 0169 34       		.uleb128 0x34
 4214 016a 00       		.byte	0x0
 4215 016b 03       		.uleb128 0x3
 4216 016c 08       		.uleb128 0x8
 4217 016d 3A       		.uleb128 0x3a
 4218 016e 0B       		.uleb128 0xb
 4219 016f 3B       		.uleb128 0x3b
ARM GAS  C:\Users\daniel01\AppData\Local\Temp\ccip0sTe.s 			page 92


 4220 0170 05       		.uleb128 0x5
 4221 0171 49       		.uleb128 0x49
 4222 0172 13       		.uleb128 0x13
 4223 0173 02       		.uleb128 0x2
 4224 0174 0A       		.uleb128 0xa
 4225 0175 00       		.byte	0x0
 4226 0176 00       		.byte	0x0
 4227 0177 1C       		.uleb128 0x1c
 4228 0178 34       		.uleb128 0x34
 4229 0179 00       		.byte	0x0
 4230 017a 03       		.uleb128 0x3
 4231 017b 0E       		.uleb128 0xe
 4232 017c 3A       		.uleb128 0x3a
 4233 017d 0B       		.uleb128 0xb
 4234 017e 3B       		.uleb128 0x3b
 4235 017f 05       		.uleb128 0x5
 4236 0180 49       		.uleb128 0x49
 4237 0181 13       		.uleb128 0x13
 4238 0182 02       		.uleb128 0x2
 4239 0183 0A       		.uleb128 0xa
 4240 0184 00       		.byte	0x0
 4241 0185 00       		.byte	0x0
 4242 0186 1D       		.uleb128 0x1d
 4243 0187 2E       		.uleb128 0x2e
 4244 0188 01       		.byte	0x1
 4245 0189 3F       		.uleb128 0x3f
 4246 018a 0C       		.uleb128 0xc
 4247 018b 03       		.uleb128 0x3
 4248 018c 0E       		.uleb128 0xe
 4249 018d 3A       		.uleb128 0x3a
 4250 018e 0B       		.uleb128 0xb
 4251 018f 3B       		.uleb128 0x3b
 4252 0190 05       		.uleb128 0x5
 4253 0191 27       		.uleb128 0x27
 4254 0192 0C       		.uleb128 0xc
 4255 0193 11       		.uleb128 0x11
 4256 0194 01       		.uleb128 0x1
 4257 0195 12       		.uleb128 0x12
 4258 0196 01       		.uleb128 0x1
 4259 0197 40       		.uleb128 0x40
 4260 0198 06       		.uleb128 0x6
 4261 0199 01       		.uleb128 0x1
 4262 019a 13       		.uleb128 0x13
 4263 019b 00       		.byte	0x0
 4264 019c 00       		.byte	0x0
 4265 019d 1E       		.uleb128 0x1e
 4266 019e 34       		.uleb128 0x34
 4267 019f 00       		.byte	0x0
 4268 01a0 03       		.uleb128 0x3
 4269 01a1 0E       		.uleb128 0xe
 4270 01a2 3A       		.uleb128 0x3a
 4271 01a3 0B       		.uleb128 0xb
 4272 01a4 3B       		.uleb128 0x3b
 4273 01a5 05       		.uleb128 0x5
 4274 01a6 49       		.uleb128 0x49
 4275 01a7 13       		.uleb128 0x13
 4276 01a8 3F       		.uleb128 0x3f
ARM GAS  C:\Users\daniel01\AppData\Local\Temp\ccip0sTe.s 			page 93


 4277 01a9 0C       		.uleb128 0xc
 4278 01aa 3C       		.uleb128 0x3c
 4279 01ab 0C       		.uleb128 0xc
 4280 01ac 00       		.byte	0x0
 4281 01ad 00       		.byte	0x0
 4282 01ae 00       		.byte	0x0
 4283              		.section	.debug_pubnames,"",%progbits
 4284 0000 C0000000 		.4byte	0xc0
 4285 0004 0200     		.2byte	0x2
 4286 0006 00000000 		.4byte	.Ldebug_info0
 4287 000a 07120000 		.4byte	0x1207
 4288 000e 200D0000 		.4byte	0xd20
 4289 0012 4F535365 		.ascii	"OSSemCreate\000"
 4289      6D437265 
 4289      61746500 
 4290 001e 860D0000 		.4byte	0xd86
 4291 0022 4F535365 		.ascii	"OSSemDel\000"
 4291      6D44656C 
 4291      00
 4292 002b 350E0000 		.4byte	0xe35
 4293 002f 4F535365 		.ascii	"OSSemPend\000"
 4293      6D50656E 
 4293      6400
 4294 0039 D20E0000 		.4byte	0xed2
 4295 003d 4F535365 		.ascii	"OSSemPendAbort\000"
 4295      6D50656E 
 4295      6441626F 
 4295      727400
 4296 004c 680F0000 		.4byte	0xf68
 4297 0050 4F535365 		.ascii	"OSSemPost\000"
 4297      6D506F73 
 4297      7400
 4298 005a D10F0000 		.4byte	0xfd1
 4299 005e 4F535365 		.ascii	"OSSemSet\000"
 4299      6D536574 
 4299      00
 4300 0067 37100000 		.4byte	0x1037
 4301 006b 4F535F53 		.ascii	"OS_SemClr\000"
 4301      656D436C 
 4301      7200
 4302 0075 61100000 		.4byte	0x1061
 4303 0079 4F535F53 		.ascii	"OS_SemDbgListAdd\000"
 4303      656D4462 
 4303      674C6973 
 4303      74416464 
 4303      00
 4304 008a 8B100000 		.4byte	0x108b
 4305 008e 4F535F53 		.ascii	"OS_SemDbgListRemove\000"
 4305      656D4462 
 4305      674C6973 
 4305      7452656D 
 4305      6F766500 
 4306 00a2 D3100000 		.4byte	0x10d3
 4307 00a6 4F535F53 		.ascii	"OS_SemInit\000"
 4307      656D496E 
 4307      697400
 4308 00b1 FD100000 		.4byte	0x10fd
ARM GAS  C:\Users\daniel01\AppData\Local\Temp\ccip0sTe.s 			page 94


 4309 00b5 4F535F53 		.ascii	"OS_SemPost\000"
 4309      656D506F 
 4309      737400
 4310 00c0 00000000 		.4byte	0x0
 4311              		.section	.debug_aranges,"",%progbits
 4312 0000 6C000000 		.4byte	0x6c
 4313 0004 0200     		.2byte	0x2
 4314 0006 00000000 		.4byte	.Ldebug_info0
 4315 000a 04       		.byte	0x4
 4316 000b 00       		.byte	0x0
 4317 000c 0000     		.2byte	0x0
 4318 000e 0000     		.2byte	0x0
 4319 0010 00000000 		.4byte	.LFB0
 4320 0014 A6000000 		.4byte	.LFE0-.LFB0
 4321 0018 00000000 		.4byte	.LFB1
 4322 001c 52010000 		.4byte	.LFE1-.LFB1
 4323 0020 00000000 		.4byte	.LFB2
 4324 0024 E8010000 		.4byte	.LFE2-.LFB2
 4325 0028 00000000 		.4byte	.LFB3
 4326 002c 06010000 		.4byte	.LFE3-.LFB3
 4327 0030 00000000 		.4byte	.LFB4
 4328 0034 76000000 		.4byte	.LFE4-.LFB4
 4329 0038 00000000 		.4byte	.LFB5
 4330 003c 88000000 		.4byte	.LFE5-.LFB5
 4331 0040 00000000 		.4byte	.LFB6
 4332 0044 44000000 		.4byte	.LFE6-.LFB6
 4333 0048 00000000 		.4byte	.LFB7
 4334 004c 66000000 		.4byte	.LFE7-.LFB7
 4335 0050 00000000 		.4byte	.LFB8
 4336 0054 7C000000 		.4byte	.LFE8-.LFB8
 4337 0058 00000000 		.4byte	.LFB9
 4338 005c 36000000 		.4byte	.LFE9-.LFB9
 4339 0060 00000000 		.4byte	.LFB10
 4340 0064 F6000000 		.4byte	.LFE10-.LFB10
 4341 0068 00000000 		.4byte	0x0
 4342 006c 00000000 		.4byte	0x0
 4343              		.section	.debug_ranges,"",%progbits
 4344              	.Ldebug_ranges0:
 4345 0000 00000000 		.4byte	.Ltext0
 4346 0004 00000000 		.4byte	.Letext0
 4347 0008 00000000 		.4byte	.LFB0
 4348 000c A6000000 		.4byte	.LFE0
 4349 0010 00000000 		.4byte	.LFB1
 4350 0014 52010000 		.4byte	.LFE1
 4351 0018 00000000 		.4byte	.LFB2
 4352 001c E8010000 		.4byte	.LFE2
 4353 0020 00000000 		.4byte	.LFB3
 4354 0024 06010000 		.4byte	.LFE3
 4355 0028 00000000 		.4byte	.LFB4
 4356 002c 76000000 		.4byte	.LFE4
 4357 0030 00000000 		.4byte	.LFB5
 4358 0034 88000000 		.4byte	.LFE5
 4359 0038 00000000 		.4byte	.LFB6
 4360 003c 44000000 		.4byte	.LFE6
 4361 0040 00000000 		.4byte	.LFB7
 4362 0044 66000000 		.4byte	.LFE7
 4363 0048 00000000 		.4byte	.LFB8
ARM GAS  C:\Users\daniel01\AppData\Local\Temp\ccip0sTe.s 			page 95


 4364 004c 7C000000 		.4byte	.LFE8
 4365 0050 00000000 		.4byte	.LFB9
 4366 0054 36000000 		.4byte	.LFE9
 4367 0058 00000000 		.4byte	.LFB10
 4368 005c F6000000 		.4byte	.LFE10
 4369 0060 00000000 		.4byte	0x0
 4370 0064 00000000 		.4byte	0x0
 4371              		.section	.debug_str,"MS",%progbits,1
 4372              	.LASF221:
 4373 0000 6F735F74 		.ascii	"os_tcb\000"
 4373      636200
 4374              	.LASF104:
 4375 0007 4F535F45 		.ascii	"OS_ERR_PRIO_INVALID\000"
 4375      52525F50 
 4375      52494F5F 
 4375      494E5641 
 4375      4C494400 
 4376              	.LASF197:
 4377 001b 4F535F45 		.ascii	"OS_ERR\000"
 4377      525200
 4378              	.LASF21:
 4379 0022 4F535F43 		.ascii	"OS_CTX_SW_CTR\000"
 4379      54585F53 
 4379      575F4354 
 4379      5200
 4380              	.LASF311:
 4381 0030 474E5520 		.ascii	"GNU C 4.4.1\000"
 4381      4320342E 
 4381      342E3100 
 4382              	.LASF183:
 4383 003c 4F535F45 		.ascii	"OS_ERR_TMR_ISR\000"
 4383      52525F54 
 4383      4D525F49 
 4383      535200
 4384              	.LASF170:
 4385 004b 4F535F45 		.ascii	"OS_ERR_TIME_INVALID_MINUTES\000"
 4385      52525F54 
 4385      494D455F 
 4385      494E5641 
 4385      4C49445F 
 4386              	.LASF37:
 4387 0067 4F535F45 		.ascii	"OS_ERR_A\000"
 4387      52525F41 
 4387      00
 4388              	.LASF39:
 4389 0070 4F535F45 		.ascii	"OS_ERR_B\000"
 4389      52525F42 
 4389      00
 4390              	.LASF40:
 4391 0079 4F535F45 		.ascii	"OS_ERR_C\000"
 4391      52525F43 
 4391      00
 4392              	.LASF42:
 4393 0082 4F535F45 		.ascii	"OS_ERR_D\000"
 4393      52525F44 
 4393      00
 4394              	.LASF44:
ARM GAS  C:\Users\daniel01\AppData\Local\Temp\ccip0sTe.s 			page 96


 4395 008b 4F535F45 		.ascii	"OS_ERR_E\000"
 4395      52525F45 
 4395      00
 4396              	.LASF45:
 4397 0094 4F535F45 		.ascii	"OS_ERR_F\000"
 4397      52525F46 
 4397      00
 4398              	.LASF51:
 4399 009d 4F535F45 		.ascii	"OS_ERR_G\000"
 4399      52525F47 
 4399      00
 4400              	.LASF52:
 4401 00a6 4F535F45 		.ascii	"OS_ERR_H\000"
 4401      52525F48 
 4401      00
 4402              	.LASF53:
 4403 00af 4F535F45 		.ascii	"OS_ERR_I\000"
 4403      52525F49 
 4403      00
 4404              	.LASF60:
 4405 00b8 4F535F45 		.ascii	"OS_ERR_J\000"
 4405      52525F4A 
 4405      00
 4406              	.LASF61:
 4407 00c1 4F535F45 		.ascii	"OS_ERR_K\000"
 4407      52525F4B 
 4407      00
 4408              	.LASF62:
 4409 00ca 4F535F45 		.ascii	"OS_ERR_L\000"
 4409      52525F4C 
 4409      00
 4410              	.LASF64:
 4411 00d3 4F535F45 		.ascii	"OS_ERR_M\000"
 4411      52525F4D 
 4411      00
 4412              	.LASF80:
 4413 00dc 4F535F45 		.ascii	"OS_ERR_N\000"
 4413      52525F4E 
 4413      00
 4414              	.LASF83:
 4415 00e5 4F535F45 		.ascii	"OS_ERR_O\000"
 4415      52525F4F 
 4415      00
 4416              	.LASF91:
 4417 00ee 4F535F45 		.ascii	"OS_ERR_P\000"
 4417      52525F50 
 4417      00
 4418              	.LASF106:
 4419 00f7 4F535F45 		.ascii	"OS_ERR_Q\000"
 4419      52525F51 
 4419      00
 4420              	.LASF111:
 4421 0100 4F535F45 		.ascii	"OS_ERR_R\000"
 4421      52525F52 
 4421      00
 4422              	.LASF115:
 4423 0109 4F535F45 		.ascii	"OS_ERR_S\000"
ARM GAS  C:\Users\daniel01\AppData\Local\Temp\ccip0sTe.s 			page 97


 4423      52525F53 
 4423      00
 4424              	.LASF132:
 4425 0112 4F535F45 		.ascii	"OS_ERR_T\000"
 4425      52525F54 
 4425      00
 4426              	.LASF190:
 4427 011b 4F535F45 		.ascii	"OS_ERR_U\000"
 4427      52525F55 
 4427      00
 4428              	.LASF191:
 4429 0124 4F535F45 		.ascii	"OS_ERR_V\000"
 4429      52525F56 
 4429      00
 4430              	.LASF192:
 4431 012d 4F535F45 		.ascii	"OS_ERR_W\000"
 4431      52525F57 
 4431      00
 4432              	.LASF193:
 4433 0136 4F535F45 		.ascii	"OS_ERR_X\000"
 4433      52525F58 
 4433      00
 4434              	.LASF180:
 4435 013f 4F535F45 		.ascii	"OS_ERR_TMR_INVALID_PERIOD\000"
 4435      52525F54 
 4435      4D525F49 
 4435      4E56414C 
 4435      49445F50 
 4436              	.LASF314:
 4437 0159 6F735F65 		.ascii	"os_err\000"
 4437      727200
 4438              	.LASF209:
 4439 0160 4E627245 		.ascii	"NbrEntries\000"
 4439      6E747269 
 4439      657300
 4440              	.LASF57:
 4441 016b 4F535F45 		.ascii	"OS_ERR_INT_Q_SIZE\000"
 4441      52525F49 
 4441      4E545F51 
 4441      5F53495A 
 4441      4500
 4442              	.LASF41:
 4443 017d 4F535F45 		.ascii	"OS_ERR_CREATE_ISR\000"
 4443      52525F43 
 4443      52454154 
 4443      455F4953 
 4443      5200
 4444              	.LASF281:
 4445 018f 705F7365 		.ascii	"p_sem\000"
 4445      6D00
 4446              	.LASF20:
 4447 0195 4F535F43 		.ascii	"OS_CPU_USAGE\000"
 4447      50555F55 
 4447      53414745 
 4447      00
 4448              	.LASF312:
 4449 01a2 433A5C4D 		.ascii	"C:\\Micrium\\Software\\uCOS-III\\Source\\os_sem.c\000"
ARM GAS  C:\Users\daniel01\AppData\Local\Temp\ccip0sTe.s 			page 98


 4449      69637269 
 4449      756D5C53 
 4449      6F667477 
 4449      6172655C 
 4450              	.LASF8:
 4451 01cf 4350555F 		.ascii	"CPU_INT32U\000"
 4451      494E5433 
 4451      325500
 4452              	.LASF310:
 4453 01da 4F535443 		.ascii	"OSTCBCurPtr\000"
 4453      42437572 
 4453      50747200 
 4454              	.LASF129:
 4455 01e6 4F535F45 		.ascii	"OS_ERR_STK_INVALID\000"
 4455      52525F53 
 4455      544B5F49 
 4455      4E56414C 
 4455      494400
 4456              	.LASF251:
 4457 01f9 466C6167 		.ascii	"FlagsOpt\000"
 4457      734F7074 
 4457      00
 4458              	.LASF145:
 4459 0202 4F535F45 		.ascii	"OS_ERR_TASK_RESUME_ISR\000"
 4459      52525F54 
 4459      41534B5F 
 4459      52455355 
 4459      4D455F49 
 4460              	.LASF99:
 4461 0219 4F535F45 		.ascii	"OS_ERR_PEND_WOULD_BLOCK\000"
 4461      52525F50 
 4461      454E445F 
 4461      574F554C 
 4461      445F424C 
 4462              	.LASF289:
 4463 0231 4F535365 		.ascii	"OSSemDel\000"
 4463      6D44656C 
 4463      00
 4464              	.LASF133:
 4465 023a 4F535F45 		.ascii	"OS_ERR_TASK_CHANGE_PRIO_ISR\000"
 4465      52525F54 
 4465      41534B5F 
 4465      4348414E 
 4465      47455F50 
 4466              	.LASF290:
 4467 0256 4F535365 		.ascii	"OSSemPend\000"
 4467      6D50656E 
 4467      6400
 4468              	.LASF123:
 4469 0260 4F535F45 		.ascii	"OS_ERR_STAT_RESET_ISR\000"
 4469      52525F53 
 4469      5441545F 
 4469      52455345 
 4469      545F4953 
 4470              	.LASF98:
 4471 0276 4F535F45 		.ascii	"OS_ERR_PEND_LOCKED\000"
 4471      52525F50 
ARM GAS  C:\Users\daniel01\AppData\Local\Temp\ccip0sTe.s 			page 99


 4471      454E445F 
 4471      4C4F434B 
 4471      454400
 4472              	.LASF27:
 4473 0289 4F535F4F 		.ascii	"OS_OBJ_QTY\000"
 4473      424A5F51 
 4473      545900
 4474              	.LASF143:
 4475 0294 4F535F45 		.ascii	"OS_ERR_TASK_NOT_SUSPENDED\000"
 4475      52525F54 
 4475      41534B5F 
 4475      4E4F545F 
 4475      53555350 
 4476              	.LASF141:
 4477 02ae 4F535F45 		.ascii	"OS_ERR_TASK_NOT_DLY\000"
 4477      52525F54 
 4477      41534B5F 
 4477      4E4F545F 
 4477      444C5900 
 4478              	.LASF216:
 4479 02c2 44626750 		.ascii	"DbgPrevPtr\000"
 4479      72657650 
 4479      747200
 4480              	.LASF55:
 4481 02cd 4F535F45 		.ascii	"OS_ERR_INT_Q\000"
 4481      52525F49 
 4481      4E545F51 
 4481      00
 4482              	.LASF217:
 4483 02da 4462674E 		.ascii	"DbgNextPtr\000"
 4483      65787450 
 4483      747200
 4484              	.LASF155:
 4485 02e5 4F535F45 		.ascii	"OS_ERR_TASK_WAITING\000"
 4485      52525F54 
 4485      41534B5F 
 4485      57414954 
 4485      494E4700 
 4486              	.LASF38:
 4487 02f9 4F535F45 		.ascii	"OS_ERR_ACCEPT_ISR\000"
 4487      52525F41 
 4487      43434550 
 4487      545F4953 
 4487      5200
 4488              	.LASF153:
 4489 030b 4F535F45 		.ascii	"OS_ERR_TASK_SUSPEND_ISR\000"
 4489      52525F54 
 4489      41534B5F 
 4489      53555350 
 4489      454E445F 
 4490              	.LASF79:
 4491 0323 4F535F45 		.ascii	"OS_ERR_MUTEX_NESTING\000"
 4491      52525F4D 
 4491      55544558 
 4491      5F4E4553 
 4491      54494E47 
 4492              	.LASF309:
ARM GAS  C:\Users\daniel01\AppData\Local\Temp\ccip0sTe.s 			page 100


 4493 0338 4F535365 		.ascii	"OSSemQty\000"
 4493      6D517479 
 4493      00
 4494              	.LASF287:
 4495 0341 705F7065 		.ascii	"p_pend_list\000"
 4495      6E645F6C 
 4495      69737400 
 4496              	.LASF181:
 4497 034d 4F535F45 		.ascii	"OS_ERR_TMR_INVALID_STATE\000"
 4497      52525F54 
 4497      4D525F49 
 4497      4E56414C 
 4497      49445F53 
 4498              	.LASF233:
 4499 0366 50656E64 		.ascii	"PendOn\000"
 4499      4F6E00
 4500              	.LASF295:
 4501 036d 4F535365 		.ascii	"OSSemPost\000"
 4501      6D506F73 
 4501      7400
 4502              	.LASF238:
 4503 0377 50656E64 		.ascii	"PendDataTblEntries\000"
 4503      44617461 
 4503      54626C45 
 4503      6E747269 
 4503      657300
 4504              	.LASF84:
 4505 038a 4F535F45 		.ascii	"OS_ERR_OBJ_CREATED\000"
 4505      52525F4F 
 4505      424A5F43 
 4505      52454154 
 4505      454400
 4506              	.LASF278:
 4507 039d 5461696C 		.ascii	"TailPtr\000"
 4507      50747200 
 4508              	.LASF151:
 4509 03a5 4F535F45 		.ascii	"OS_ERR_TASK_SUSPEND_IDLE\000"
 4509      52525F54 
 4509      41534B5F 
 4509      53555350 
 4509      454E445F 
 4510              	.LASF56:
 4511 03be 4F535F45 		.ascii	"OS_ERR_INT_Q_FULL\000"
 4511      52525F49 
 4511      4E545F51 
 4511      5F46554C 
 4511      4C00
 4512              	.LASF241:
 4513 03d0 5469636B 		.ascii	"TickCtrMatch\000"
 4513      4374724D 
 4513      61746368 
 4513      00
 4514              	.LASF272:
 4515 03dd 5264794D 		.ascii	"RdyMsgPtr\000"
 4515      73675074 
 4515      7200
 4516              	.LASF280:
ARM GAS  C:\Users\daniel01\AppData\Local\Temp\ccip0sTe.s 			page 101


 4517 03e7 6F735F70 		.ascii	"os_pend_obj\000"
 4517      656E645F 
 4517      6F626A00 
 4518              	.LASF54:
 4519 03f3 4F535F45 		.ascii	"OS_ERR_ILLEGAL_CREATE_RUN_TIME\000"
 4519      52525F49 
 4519      4C4C4547 
 4519      414C5F43 
 4519      52454154 
 4520              	.LASF249:
 4521 0412 466C6167 		.ascii	"FlagsPend\000"
 4521      7350656E 
 4521      6400
 4522              	.LASF179:
 4523 041c 4F535F45 		.ascii	"OS_ERR_TMR_INVALID_DLY\000"
 4523      52525F54 
 4523      4D525F49 
 4523      4E56414C 
 4523      49445F44 
 4524              	.LASF255:
 4525 0433 43747853 		.ascii	"CtxSwCtr\000"
 4525      77437472 
 4525      00
 4526              	.LASF146:
 4527 043c 4F535F45 		.ascii	"OS_ERR_TASK_RESUME_PRIO\000"
 4527      52525F54 
 4527      41534B5F 
 4527      52455355 
 4527      4D455F50 
 4528              	.LASF30:
 4529 0454 4F535F50 		.ascii	"OS_PRIO\000"
 4529      52494F00 
 4530              	.LASF12:
 4531 045c 666C6F61 		.ascii	"float\000"
 4531      7400
 4532              	.LASF100:
 4533 0462 4F535F45 		.ascii	"OS_ERR_POST_NULL_PTR\000"
 4533      52525F50 
 4533      4F53545F 
 4533      4E554C4C 
 4533      5F505452 
 4534              	.LASF82:
 4535 0477 4F535F45 		.ascii	"OS_ERR_NO_MORE_ID_AVAIL\000"
 4535      52525F4E 
 4535      4F5F4D4F 
 4535      52455F49 
 4535      445F4156 
 4536              	.LASF264:
 4537 048f 4F535F54 		.ascii	"OS_TICK_SPOKE\000"
 4537      49434B5F 
 4537      53504F4B 
 4537      4500
 4538              	.LASF72:
 4539 049d 4F535F45 		.ascii	"OS_ERR_MEM_INVALID_P_DATA\000"
 4539      52525F4D 
 4539      454D5F49 
 4539      4E56414C 
ARM GAS  C:\Users\daniel01\AppData\Local\Temp\ccip0sTe.s 			page 102


 4539      49445F50 
 4540              	.LASF284:
 4541 04b7 6370755F 		.ascii	"cpu_sr\000"
 4541      737200
 4542              	.LASF184:
 4543 04be 4F535F45 		.ascii	"OS_ERR_TMR_NO_CALLBACK\000"
 4543      52525F54 
 4543      4D525F4E 
 4543      4F5F4341 
 4543      4C4C4241 
 4544              	.LASF177:
 4545 04d5 4F535F45 		.ascii	"OS_ERR_TMR_INACTIVE\000"
 4545      52525F54 
 4545      4D525F49 
 4545      4E414354 
 4545      49564500 
 4546              	.LASF157:
 4547 04e9 4F535F45 		.ascii	"OS_ERR_TLS_ID_INVALID\000"
 4547      52525F54 
 4547      4C535F49 
 4547      445F494E 
 4547      56414C49 
 4548              	.LASF10:
 4549 04ff 6C6F6E67 		.ascii	"long long unsigned int\000"
 4549      206C6F6E 
 4549      6720756E 
 4549      7369676E 
 4549      65642069 
 4550              	.LASF148:
 4551 0516 4F535F45 		.ascii	"OS_ERR_TASK_RUNNING\000"
 4551      52525F54 
 4551      41534B5F 
 4551      52554E4E 
 4551      494E4700 
 4552              	.LASF296:
 4553 052a 4F535365 		.ascii	"OSSemCreate\000"
 4553      6D437265 
 4553      61746500 
 4554              	.LASF262:
 4555 0536 53746B55 		.ascii	"StkUsed\000"
 4555      73656400 
 4556              	.LASF182:
 4557 053e 4F535F45 		.ascii	"OS_ERR_TMR_INVALID\000"
 4557      52525F54 
 4557      4D525F49 
 4557      4E56414C 
 4557      494400
 4558              	.LASF267:
 4559 0551 4F535F50 		.ascii	"OS_PEND_DATA\000"
 4559      454E445F 
 4559      44415441 
 4559      00
 4560              	.LASF152:
 4561 055e 4F535F45 		.ascii	"OS_ERR_TASK_SUSPEND_INT_HANDLER\000"
 4561      52525F54 
 4561      41534B5F 
 4561      53555350 
ARM GAS  C:\Users\daniel01\AppData\Local\Temp\ccip0sTe.s 			page 103


 4561      454E445F 
 4562              	.LASF137:
 4563 057e 4F535F45 		.ascii	"OS_ERR_TASK_DEL_INVALID\000"
 4563      52525F54 
 4563      41534B5F 
 4563      44454C5F 
 4563      494E5641 
 4564              	.LASF308:
 4565 0596 4F535365 		.ascii	"OSSemDbgListPtr\000"
 4565      6D446267 
 4565      4C697374 
 4565      50747200 
 4566              	.LASF187:
 4567 05a6 4F535F45 		.ascii	"OS_ERR_TMR_STK_INVALID\000"
 4567      52525F54 
 4567      4D525F53 
 4567      544B5F49 
 4567      4E56414C 
 4568              	.LASF3:
 4569 05bd 4350555F 		.ascii	"CPU_INT08U\000"
 4569      494E5430 
 4569      385500
 4570              	.LASF204:
 4571 05c8 6F735F6D 		.ascii	"os_msg\000"
 4571      736700
 4572              	.LASF156:
 4573 05cf 4F535F45 		.ascii	"OS_ERR_TCB_INVALID\000"
 4573      52525F54 
 4573      43425F49 
 4573      4E56414C 
 4573      494400
 4574              	.LASF237:
 4575 05e2 53746B53 		.ascii	"StkSize\000"
 4575      697A6500 
 4576              	.LASF229:
 4577 05ea 53746B42 		.ascii	"StkBasePtr\000"
 4577      61736550 
 4577      747200
 4578              	.LASF108:
 4579 05f5 4F535F45 		.ascii	"OS_ERR_Q_EMPTY\000"
 4579      52525F51 
 4579      5F454D50 
 4579      545900
 4580              	.LASF172:
 4581 0604 4F535F45 		.ascii	"OS_ERR_TIME_INVALID_MILLISECONDS\000"
 4581      52525F54 
 4581      494D455F 
 4581      494E5641 
 4581      4C49445F 
 4582              	.LASF31:
 4583 0625 4F535F52 		.ascii	"OS_REG\000"
 4583      454700
 4584              	.LASF81:
 4585 062c 4F535F45 		.ascii	"OS_ERR_NAME\000"
 4585      52525F4E 
 4585      414D4500 
 4586              	.LASF244:
ARM GAS  C:\Users\daniel01\AppData\Local\Temp\ccip0sTe.s 			page 104


 4587 0638 54696D65 		.ascii	"TimeQuantaCtr\000"
 4587      5175616E 
 4587      74614374 
 4587      7200
 4588              	.LASF34:
 4589 0646 4F535F53 		.ascii	"OS_STATUS\000"
 4589      54415455 
 4589      5300
 4590              	.LASF235:
 4591 0650 5461736B 		.ascii	"TaskState\000"
 4591      53746174 
 4591      6500
 4592              	.LASF161:
 4593 065a 4F535F45 		.ascii	"OS_ERR_TLS_DESTRUCT_ASSIGNED\000"
 4593      52525F54 
 4593      4C535F44 
 4593      45535452 
 4593      5543545F 
 4594              	.LASF77:
 4595 0677 4F535F45 		.ascii	"OS_ERR_MUTEX_NOT_OWNER\000"
 4595      52525F4D 
 4595      55544558 
 4595      5F4E4F54 
 4595      5F4F574E 
 4596              	.LASF25:
 4597 068e 4F535F4D 		.ascii	"OS_MSG_SIZE\000"
 4597      53475F53 
 4597      495A4500 
 4598              	.LASF169:
 4599 069a 4F535F45 		.ascii	"OS_ERR_TIME_INVALID_HOURS\000"
 4599      52525F54 
 4599      494D455F 
 4599      494E5641 
 4599      4C49445F 
 4600              	.LASF304:
 4601 06b4 4F535F53 		.ascii	"OS_SemPost\000"
 4601      656D506F 
 4601      737400
 4602              	.LASF185:
 4603 06bf 4F535F45 		.ascii	"OS_ERR_TMR_NON_AVAIL\000"
 4603      52525F54 
 4603      4D525F4E 
 4603      4F4E5F41 
 4603      5641494C 
 4604              	.LASF2:
 4605 06d4 4350555F 		.ascii	"CPU_CHAR\000"
 4605      43484152 
 4605      00
 4606              	.LASF301:
 4607 06dd 705F7365 		.ascii	"p_sem_next\000"
 4607      6D5F6E65 
 4607      787400
 4608              	.LASF134:
 4609 06e8 4F535F45 		.ascii	"OS_ERR_TASK_CREATE_ISR\000"
 4609      52525F54 
 4609      41534B5F 
 4609      43524541 
ARM GAS  C:\Users\daniel01\AppData\Local\Temp\ccip0sTe.s 			page 105


 4609      54455F49 
 4610              	.LASF16:
 4611 06ff 4350555F 		.ascii	"CPU_STK_SIZE\000"
 4611      53544B5F 
 4611      53495A45 
 4611      00
 4612              	.LASF24:
 4613 070c 4F535F4D 		.ascii	"OS_MSG_QTY\000"
 4613      53475F51 
 4613      545900
 4614              	.LASF90:
 4615 0717 4F535F45 		.ascii	"OS_ERR_OS_RUNNING\000"
 4615      52525F4F 
 4615      535F5255 
 4615      4E4E494E 
 4615      4700
 4616              	.LASF263:
 4617 0729 53746B46 		.ascii	"StkFree\000"
 4617      72656500 
 4618              	.LASF240:
 4619 0731 5469636B 		.ascii	"TickCtrPrev\000"
 4619      43747250 
 4619      72657600 
 4620              	.LASF208:
 4621 073d 4E627245 		.ascii	"NbrEntriesSize\000"
 4621      6E747269 
 4621      65735369 
 4621      7A6500
 4622              	.LASF175:
 4623 074c 4F535F45 		.ascii	"OS_ERR_TIME_ZERO_DLY\000"
 4623      52525F54 
 4623      494D455F 
 4623      5A45524F 
 4623      5F444C59 
 4624              	.LASF227:
 4625 0761 5469636B 		.ascii	"TickPrevPtr\000"
 4625      50726576 
 4625      50747200 
 4626              	.LASF250:
 4627 076d 466C6167 		.ascii	"FlagsRdy\000"
 4627      73526479 
 4627      00
 4628              	.LASF125:
 4629 0776 4F535F45 		.ascii	"OS_ERR_STAT_STK_INVALID\000"
 4629      52525F53 
 4629      5441545F 
 4629      53544B5F 
 4629      494E5641 
 4630              	.LASF47:
 4631 078e 4F535F45 		.ascii	"OS_ERR_FLAG_GRP_DEPLETED\000"
 4631      52525F46 
 4631      4C41475F 
 4631      4752505F 
 4631      4445504C 
 4632              	.LASF68:
 4633 07a7 4F535F45 		.ascii	"OS_ERR_MEM_INVALID_BLKS\000"
 4633      52525F4D 
ARM GAS  C:\Users\daniel01\AppData\Local\Temp\ccip0sTe.s 			page 106


 4633      454D5F49 
 4633      4E56414C 
 4633      49445F42 
 4634              	.LASF283:
 4635 07bf 705F6572 		.ascii	"p_err\000"
 4635      7200
 4636              	.LASF247:
 4637 07c5 4D736751 		.ascii	"MsgQPendTimeMax\000"
 4637      50656E64 
 4637      54696D65 
 4637      4D617800 
 4638              	.LASF246:
 4639 07d5 4D736751 		.ascii	"MsgQPendTime\000"
 4639      50656E64 
 4639      54696D65 
 4639      00
 4640              	.LASF198:
 4641 07e2 4F535F4D 		.ascii	"OS_MSG\000"
 4641      534700
 4642              	.LASF282:
 4643 07e9 705F6E61 		.ascii	"p_name\000"
 4643      6D6500
 4644              	.LASF178:
 4645 07f0 4F535F45 		.ascii	"OS_ERR_TMR_INVALID_DEST\000"
 4645      52525F54 
 4645      4D525F49 
 4645      4E56414C 
 4645      49445F44 
 4646              	.LASF117:
 4647 0808 4F535F45 		.ascii	"OS_ERR_SCHED_LOCK_ISR\000"
 4647      52525F53 
 4647      43484544 
 4647      5F4C4F43 
 4647      4B5F4953 
 4648              	.LASF164:
 4649 081e 4F535F45 		.ascii	"OS_ERR_TICK_STK_SIZE_INVALID\000"
 4649      52525F54 
 4649      49434B5F 
 4649      53544B5F 
 4649      53495A45 
 4650              	.LASF43:
 4651 083b 4F535F45 		.ascii	"OS_ERR_DEL_ISR\000"
 4651      52525F44 
 4651      454C5F49 
 4651      535200
 4652              	.LASF109:
 4653 084a 4F535F45 		.ascii	"OS_ERR_Q_MAX\000"
 4653      52525F51 
 4653      5F4D4158 
 4653      00
 4654              	.LASF286:
 4655 0857 705F7065 		.ascii	"p_pend_data\000"
 4655      6E645F64 
 4655      61746100 
 4656              	.LASF225:
 4657 0863 50726576 		.ascii	"PrevPtr\000"
 4657      50747200 
ARM GAS  C:\Users\daniel01\AppData\Local\Temp\ccip0sTe.s 			page 107


 4658              	.LASF0:
 4659 086b 63686172 		.ascii	"char\000"
 4659      00
 4660              	.LASF294:
 4661 0870 4F535365 		.ascii	"OSSemPendAbort\000"
 4661      6D50656E 
 4661      6441626F 
 4661      727400
 4662              	.LASF28:
 4663 087f 4F535F4F 		.ascii	"OS_OBJ_TYPE\000"
 4663      424A5F54 
 4663      59504500 
 4664              	.LASF160:
 4665 088b 4F535F45 		.ascii	"OS_ERR_TLS_NOT_EN\000"
 4665      52525F54 
 4665      4C535F4E 
 4665      4F545F45 
 4665      4E00
 4666              	.LASF88:
 4667 089d 4F535F45 		.ascii	"OS_ERR_OPT_INVALID\000"
 4667      52525F4F 
 4667      50545F49 
 4667      4E56414C 
 4667      494400
 4668              	.LASF17:
 4669 08b0 4350555F 		.ascii	"CPU_SR\000"
 4669      535200
 4670              	.LASF116:
 4671 08b7 4F535F45 		.ascii	"OS_ERR_SCHED_INVALID_TIME_SLICE\000"
 4671      52525F53 
 4671      43484544 
 4671      5F494E56 
 4671      414C4944 
 4672              	.LASF300:
 4673 08d7 4F535F53 		.ascii	"OS_SemDbgListRemove\000"
 4673      656D4462 
 4673      674C6973 
 4673      7452656D 
 4673      6F766500 
 4674              	.LASF245:
 4675 08eb 4D736751 		.ascii	"MsgQ\000"
 4675      00
 4676              	.LASF230:
 4677 08f0 5461736B 		.ascii	"TaskEntryAddr\000"
 4677      456E7472 
 4677      79416464 
 4677      7200
 4678              	.LASF124:
 4679 08fe 4F535F45 		.ascii	"OS_ERR_STAT_PRIO_INVALID\000"
 4679      52525F53 
 4679      5441545F 
 4679      5052494F 
 4679      5F494E56 
 4680              	.LASF173:
 4681 0917 4F535F45 		.ascii	"OS_ERR_TIME_NOT_DLY\000"
 4681      52525F54 
 4681      494D455F 
ARM GAS  C:\Users\daniel01\AppData\Local\Temp\ccip0sTe.s 			page 108


 4681      4E4F545F 
 4681      444C5900 
 4682              	.LASF303:
 4683 092b 4F535F53 		.ascii	"OS_SemInit\000"
 4683      656D496E 
 4683      697400
 4684              	.LASF214:
 4685 0936 4E616D65 		.ascii	"NamePtr\000"
 4685      50747200 
 4686              	.LASF234:
 4687 093e 50656E64 		.ascii	"PendStatus\000"
 4687      53746174 
 4687      757300
 4688              	.LASF203:
 4689 0949 4F535F4D 		.ascii	"OS_MSG_Q\000"
 4689      53475F51 
 4689      00
 4690              	.LASF213:
 4691 0952 54797065 		.ascii	"Type\000"
 4691      00
 4692              	.LASF195:
 4693 0957 4F535F45 		.ascii	"OS_ERR_YIELD_ISR\000"
 4693      52525F59 
 4693      49454C44 
 4693      5F495352 
 4693      00
 4694              	.LASF85:
 4695 0968 4F535F45 		.ascii	"OS_ERR_OBJ_DEL\000"
 4695      52525F4F 
 4695      424A5F44 
 4695      454C00
 4696              	.LASF19:
 4697 0977 4350555F 		.ascii	"CPU_TS\000"
 4697      545300
 4698              	.LASF11:
 4699 097e 6C6F6E67 		.ascii	"long long int\000"
 4699      206C6F6E 
 4699      6720696E 
 4699      7400
 4700              	.LASF49:
 4701 098c 4F535F45 		.ascii	"OS_ERR_FLAG_PEND_OPT\000"
 4701      52525F46 
 4701      4C41475F 
 4701      50454E44 
 4701      5F4F5054 
 4702              	.LASF222:
 4703 09a1 53746B50 		.ascii	"StkPtr\000"
 4703      747200
 4704              	.LASF265:
 4705 09a8 6F735F74 		.ascii	"os_tick_spoke\000"
 4705      69636B5F 
 4705      73706F6B 
 4705      6500
 4706              	.LASF288:
 4707 09b6 705F7463 		.ascii	"p_tcb\000"
 4707      6200
 4708              	.LASF110:
ARM GAS  C:\Users\daniel01\AppData\Local\Temp\ccip0sTe.s 			page 109


 4709 09bc 4F535F45 		.ascii	"OS_ERR_Q_SIZE\000"
 4709      52525F51 
 4709      5F53495A 
 4709      4500
 4710              	.LASF257:
 4711 09ca 4379636C 		.ascii	"CyclesStart\000"
 4711      65735374 
 4711      61727400 
 4712              	.LASF293:
 4713 09d6 70656E64 		.ascii	"pend_data\000"
 4713      5F646174 
 4713      6100
 4714              	.LASF269:
 4715 09e0 54434250 		.ascii	"TCBPtr\000"
 4715      747200
 4716              	.LASF95:
 4717 09e7 4F535F45 		.ascii	"OS_ERR_PEND_ABORT_SELF\000"
 4717      52525F50 
 4717      454E445F 
 4717      41424F52 
 4717      545F5345 
 4718              	.LASF5:
 4719 09fe 4350555F 		.ascii	"CPU_INT16U\000"
 4719      494E5431 
 4719      365500
 4720              	.LASF114:
 4721 0a09 4F535F45 		.ascii	"OS_ERR_ROUND_ROBIN_DISABLED\000"
 4721      52525F52 
 4721      4F554E44 
 4721      5F524F42 
 4721      494E5F44 
 4722              	.LASF69:
 4723 0a25 4F535F45 		.ascii	"OS_ERR_MEM_INVALID_PART\000"
 4723      52525F4D 
 4723      454D5F49 
 4723      4E56414C 
 4723      49445F50 
 4724              	.LASF86:
 4725 0a3d 4F535F45 		.ascii	"OS_ERR_OBJ_PTR_NULL\000"
 4725      52525F4F 
 4725      424A5F50 
 4725      54525F4E 
 4725      554C4C00 
 4726              	.LASF112:
 4727 0a51 4F535F45 		.ascii	"OS_ERR_REG_ID_INVALID\000"
 4727      52525F52 
 4727      45475F49 
 4727      445F494E 
 4727      56414C49 
 4728              	.LASF285:
 4729 0a67 6E62725F 		.ascii	"nbr_tasks\000"
 4729      7461736B 
 4729      7300
 4730              	.LASF35:
 4731 0a71 4F535F54 		.ascii	"OS_TICK\000"
 4731      49434B00 
 4732              	.LASF66:
ARM GAS  C:\Users\daniel01\AppData\Local\Temp\ccip0sTe.s 			page 110


 4733 0a79 4F535F45 		.ascii	"OS_ERR_MEM_FULL\000"
 4733      52525F4D 
 4733      454D5F46 
 4733      554C4C00 
 4734              	.LASF140:
 4735 0a89 4F535F45 		.ascii	"OS_ERR_TASK_NO_MORE_TCB\000"
 4735      52525F54 
 4735      41534B5F 
 4735      4E4F5F4D 
 4735      4F52455F 
 4736              	.LASF302:
 4737 0aa1 705F7365 		.ascii	"p_sem_prev\000"
 4737      6D5F7072 
 4737      657600
 4738              	.LASF71:
 4739 0aac 4F535F45 		.ascii	"OS_ERR_MEM_INVALID_P_MEM\000"
 4739      52525F4D 
 4739      454D5F49 
 4739      4E56414C 
 4739      49445F50 
 4740              	.LASF18:
 4741 0ac5 4350555F 		.ascii	"CPU_TS32\000"
 4741      54533332 
 4741      00
 4742              	.LASF252:
 4743 0ace 53757370 		.ascii	"SuspendCtr\000"
 4743      656E6443 
 4743      747200
 4744              	.LASF224:
 4745 0ad9 53746B4C 		.ascii	"StkLimitPtr\000"
 4745      696D6974 
 4745      50747200 
 4746              	.LASF298:
 4747 0ae5 4F535F53 		.ascii	"OS_SemClr\000"
 4747      656D436C 
 4747      7200
 4748              	.LASF256:
 4749 0aef 4379636C 		.ascii	"CyclesDelta\000"
 4749      65734465 
 4749      6C746100 
 4750              	.LASF32:
 4751 0afb 4F535F53 		.ascii	"OS_SEM_CTR\000"
 4751      454D5F43 
 4751      545200
 4752              	.LASF188:
 4753 0b06 4F535F45 		.ascii	"OS_ERR_TMR_STK_SIZE_INVALID\000"
 4753      52525F54 
 4753      4D525F53 
 4753      544B5F53 
 4753      495A455F 
 4754              	.LASF165:
 4755 0b22 4F535F45 		.ascii	"OS_ERR_TICK_WHEEL_SIZE\000"
 4755      52525F54 
 4755      49434B5F 
 4755      57484545 
 4755      4C5F5349 
 4756              	.LASF226:
ARM GAS  C:\Users\daniel01\AppData\Local\Temp\ccip0sTe.s 			page 111


 4757 0b39 5469636B 		.ascii	"TickNextPtr\000"
 4757      4E657874 
 4757      50747200 
 4758              	.LASF142:
 4759 0b45 4F535F45 		.ascii	"OS_ERR_TASK_NOT_EXIST\000"
 4759      52525F54 
 4759      41534B5F 
 4759      4E4F545F 
 4759      45584953 
 4760              	.LASF305:
 4761 0b5b 705F7065 		.ascii	"p_pend_data_next\000"
 4761      6E645F64 
 4761      6174615F 
 4761      6E657874 
 4761      00
 4762              	.LASF139:
 4763 0b6c 4F535F45 		.ascii	"OS_ERR_TASK_INVALID\000"
 4763      52525F54 
 4763      41534B5F 
 4763      494E5641 
 4763      4C494400 
 4764              	.LASF186:
 4765 0b80 4F535F45 		.ascii	"OS_ERR_TMR_PRIO_INVALID\000"
 4765      52525F54 
 4765      4D525F50 
 4765      52494F5F 
 4765      494E5641 
 4766              	.LASF292:
 4767 0b98 705F7473 		.ascii	"p_ts\000"
 4767      00
 4768              	.LASF154:
 4769 0b9d 4F535F45 		.ascii	"OS_ERR_TASK_SUSPEND_PRIO\000"
 4769      52525F54 
 4769      41534B5F 
 4769      53555350 
 4769      454E445F 
 4770              	.LASF271:
 4771 0bb6 5264794F 		.ascii	"RdyObjPtr\000"
 4771      626A5074 
 4771      7200
 4772              	.LASF59:
 4773 0bc0 4F535F45 		.ascii	"OS_ERR_INT_Q_STK_SIZE_INVALID\000"
 4773      52525F49 
 4773      4E545F51 
 4773      5F53544B 
 4773      5F53495A 
 4774              	.LASF158:
 4775 0bde 4F535F45 		.ascii	"OS_ERR_TLS_ISR\000"
 4775      52525F54 
 4775      4C535F49 
 4775      535200
 4776              	.LASF138:
 4777 0bed 4F535F45 		.ascii	"OS_ERR_TASK_DEL_ISR\000"
 4777      52525F54 
 4777      41534B5F 
 4777      44454C5F 
 4777      49535200 
ARM GAS  C:\Users\daniel01\AppData\Local\Temp\ccip0sTe.s 			page 112


 4778              	.LASF260:
 4779 0c01 53656D50 		.ascii	"SemPendTime\000"
 4779      656E6454 
 4779      696D6500 
 4780              	.LASF105:
 4781 0c0d 4F535F45 		.ascii	"OS_ERR_PTR_INVALID\000"
 4781      52525F50 
 4781      54525F49 
 4781      4E56414C 
 4781      494400
 4782              	.LASF127:
 4783 0c20 4F535F45 		.ascii	"OS_ERR_STATE_INVALID\000"
 4783      52525F53 
 4783      54415445 
 4783      5F494E56 
 4783      414C4944 
 4784              	.LASF199:
 4785 0c35 4E657874 		.ascii	"NextPtr\000"
 4785      50747200 
 4786              	.LASF89:
 4787 0c3d 4F535F45 		.ascii	"OS_ERR_OS_NOT_RUNNING\000"
 4787      52525F4F 
 4787      535F4E4F 
 4787      545F5255 
 4787      4E4E494E 
 4788              	.LASF306:
 4789 0c53 4F53496E 		.ascii	"OSIntNestingCtr\000"
 4789      744E6573 
 4789      74696E67 
 4789      43747200 
 4790              	.LASF174:
 4791 0c63 4F535F45 		.ascii	"OS_ERR_TIME_SET_ISR\000"
 4791      52525F54 
 4791      494D455F 
 4791      5345545F 
 4791      49535200 
 4792              	.LASF113:
 4793 0c77 4F535F45 		.ascii	"OS_ERR_ROUND_ROBIN_1\000"
 4793      52525F52 
 4793      4F554E44 
 4793      5F524F42 
 4793      494E5F31 
 4794              	.LASF70:
 4795 0c8c 4F535F45 		.ascii	"OS_ERR_MEM_INVALID_P_BLK\000"
 4795      52525F4D 
 4795      454D5F49 
 4795      4E56414C 
 4795      49445F50 
 4796              	.LASF67:
 4797 0ca5 4F535F45 		.ascii	"OS_ERR_MEM_INVALID_P_ADDR\000"
 4797      52525F4D 
 4797      454D5F49 
 4797      4E56414C 
 4797      49445F50 
 4798              	.LASF274:
 4799 0cbf 52647954 		.ascii	"RdyTS\000"
 4799      5300
ARM GAS  C:\Users\daniel01\AppData\Local\Temp\ccip0sTe.s 			page 113


 4800              	.LASF63:
 4801 0cc5 4F535F45 		.ascii	"OS_ERR_LOCK_NESTING_OVF\000"
 4801      52525F4C 
 4801      4F434B5F 
 4801      4E455354 
 4801      494E475F 
 4802              	.LASF149:
 4803 0cdd 4F535F45 		.ascii	"OS_ERR_TASK_STK_CHK_ISR\000"
 4803      52525F54 
 4803      41534B5F 
 4803      53544B5F 
 4803      43484B5F 
 4804              	.LASF7:
 4805 0cf5 73686F72 		.ascii	"short int\000"
 4805      7420696E 
 4805      7400
 4806              	.LASF273:
 4807 0cff 5264794D 		.ascii	"RdyMsgSize\000"
 4807      73675369 
 4807      7A6500
 4808              	.LASF75:
 4809 0d0a 4F535F45 		.ascii	"OS_ERR_MSG_POOL_EMPTY\000"
 4809      52525F4D 
 4809      53475F50 
 4809      4F4F4C5F 
 4809      454D5054 
 4810              	.LASF120:
 4811 0d20 4F535F45 		.ascii	"OS_ERR_SCHED_UNLOCK_ISR\000"
 4811      52525F53 
 4811      43484544 
 4811      5F554E4C 
 4811      4F434B5F 
 4812              	.LASF261:
 4813 0d38 53656D50 		.ascii	"SemPendTimeMax\000"
 4813      656E6454 
 4813      696D654D 
 4813      617800
 4814              	.LASF259:
 4815 0d47 4379636C 		.ascii	"CyclesTotalPrev\000"
 4815      6573546F 
 4815      74616C50 
 4815      72657600 
 4816              	.LASF163:
 4817 0d57 4F535F45 		.ascii	"OS_ERR_TICK_STK_INVALID\000"
 4817      52525F54 
 4817      49434B5F 
 4817      53544B5F 
 4817      494E5641 
 4818              	.LASF76:
 4819 0d6f 4F535F45 		.ascii	"OS_ERR_MSG_POOL_NULL_PTR\000"
 4819      52525F4D 
 4819      53475F50 
 4819      4F4F4C5F 
 4819      4E554C4C 
 4820              	.LASF26:
 4821 0d88 4F535F4E 		.ascii	"OS_NESTING_CTR\000"
 4821      45535449 
ARM GAS  C:\Users\daniel01\AppData\Local\Temp\ccip0sTe.s 			page 114


 4821      4E475F43 
 4821      545200
 4822              	.LASF211:
 4823 0d97 4F535F53 		.ascii	"OS_SEM\000"
 4823      454D00
 4824              	.LASF279:
 4825 0d9e 4F535F50 		.ascii	"OS_PEND_OBJ\000"
 4825      454E445F 
 4825      4F424A00 
 4826              	.LASF147:
 4827 0daa 4F535F45 		.ascii	"OS_ERR_TASK_RESUME_SELF\000"
 4827      52525F54 
 4827      41534B5F 
 4827      52455355 
 4827      4D455F53 
 4828              	.LASF254:
 4829 0dc2 43505555 		.ascii	"CPUUsageMax\000"
 4829      73616765 
 4829      4D617800 
 4830              	.LASF215:
 4831 0dce 50656E64 		.ascii	"PendList\000"
 4831      4C697374 
 4831      00
 4832              	.LASF87:
 4833 0dd7 4F535F45 		.ascii	"OS_ERR_OBJ_TYPE\000"
 4833      52525F4F 
 4833      424A5F54 
 4833      59504500 
 4834              	.LASF232:
 4835 0de7 50656E64 		.ascii	"PendDataTblPtr\000"
 4835      44617461 
 4835      54626C50 
 4835      747200
 4836              	.LASF239:
 4837 0df6 53656D43 		.ascii	"SemCtr\000"
 4837      747200
 4838              	.LASF206:
 4839 0dfd 496E5074 		.ascii	"InPtr\000"
 4839      7200
 4840              	.LASF242:
 4841 0e03 5469636B 		.ascii	"TickRemain\000"
 4841      52656D61 
 4841      696E00
 4842              	.LASF277:
 4843 0e0e 48656164 		.ascii	"HeadPtr\000"
 4843      50747200 
 4844              	.LASF212:
 4845 0e16 6F735F73 		.ascii	"os_sem\000"
 4845      656D00
 4846              	.LASF94:
 4847 0e1d 4F535F45 		.ascii	"OS_ERR_PEND_ABORT_NONE\000"
 4847      52525F50 
 4847      454E445F 
 4847      41424F52 
 4847      545F4E4F 
 4848              	.LASF9:
 4849 0e34 756E7369 		.ascii	"unsigned int\000"
ARM GAS  C:\Users\daniel01\AppData\Local\Temp\ccip0sTe.s 			page 115


 4849      676E6564 
 4849      20696E74 
 4849      00
 4850              	.LASF201:
 4851 0e41 4D736753 		.ascii	"MsgSize\000"
 4851      697A6500 
 4852              	.LASF78:
 4853 0e49 4F535F45 		.ascii	"OS_ERR_MUTEX_OWNER\000"
 4853      52525F4D 
 4853      55544558 
 4853      5F4F574E 
 4853      455200
 4854              	.LASF266:
 4855 0e5c 46697273 		.ascii	"FirstPtr\000"
 4855      74507472 
 4855      00
 4856              	.LASF126:
 4857 0e65 4F535F45 		.ascii	"OS_ERR_STAT_STK_SIZE_INVALID\000"
 4857      52525F53 
 4857      5441545F 
 4857      53544B5F 
 4857      53495A45 
 4858              	.LASF48:
 4859 0e82 4F535F45 		.ascii	"OS_ERR_FLAG_NOT_RDY\000"
 4859      52525F46 
 4859      4C41475F 
 4859      4E4F545F 
 4859      52445900 
 4860              	.LASF223:
 4861 0e96 45787450 		.ascii	"ExtPtr\000"
 4861      747200
 4862              	.LASF299:
 4863 0e9d 4F535F53 		.ascii	"OS_SemDbgListAdd\000"
 4863      656D4462 
 4863      674C6973 
 4863      74416464 
 4863      00
 4864              	.LASF93:
 4865 0eae 4F535F45 		.ascii	"OS_ERR_PEND_ABORT_ISR\000"
 4865      52525F50 
 4865      454E445F 
 4865      41424F52 
 4865      545F4953 
 4866              	.LASF14:
 4867 0ec4 4350555F 		.ascii	"CPU_ADDR\000"
 4867      41444452 
 4867      00
 4868              	.LASF101:
 4869 0ecd 4F535F45 		.ascii	"OS_ERR_POST_ISR\000"
 4869      52525F50 
 4869      4F53545F 
 4869      49535200 
 4870              	.LASF166:
 4871 0edd 4F535F45 		.ascii	"OS_ERR_TIME_DLY_ISR\000"
 4871      52525F54 
 4871      494D455F 
 4871      444C595F 
ARM GAS  C:\Users\daniel01\AppData\Local\Temp\ccip0sTe.s 			page 116


 4871      49535200 
 4872              	.LASF131:
 4873 0ef1 4F535F45 		.ascii	"OS_ERR_STK_LIMIT_INVALID\000"
 4873      52525F53 
 4873      544B5F4C 
 4873      494D4954 
 4873      5F494E56 
 4874              	.LASF22:
 4875 0f0a 4F535F43 		.ascii	"OS_CYCLES\000"
 4875      59434C45 
 4875      5300
 4876              	.LASF220:
 4877 0f14 4F535F54 		.ascii	"OS_TCB\000"
 4877      434200
 4878              	.LASF297:
 4879 0f1b 4F535365 		.ascii	"OSSemSet\000"
 4879      6D536574 
 4879      00
 4880              	.LASF130:
 4881 0f24 4F535F45 		.ascii	"OS_ERR_STK_SIZE_INVALID\000"
 4881      52525F53 
 4881      544B5F53 
 4881      495A455F 
 4881      494E5641 
 4882              	.LASF189:
 4883 0f3c 4F535F45 		.ascii	"OS_ERR_TMR_STOPPED\000"
 4883      52525F54 
 4883      4D525F53 
 4883      544F5050 
 4883      454400
 4884              	.LASF1:
 4885 0f4f 756E7369 		.ascii	"unsigned char\000"
 4885      676E6564 
 4885      20636861 
 4885      7200
 4886              	.LASF144:
 4887 0f5d 4F535F45 		.ascii	"OS_ERR_TASK_OPT\000"
 4887      52525F54 
 4887      41534B5F 
 4887      4F505400 
 4888              	.LASF307:
 4889 0f6d 4F535363 		.ascii	"OSSchedLockNestingCtr\000"
 4889      6865644C 
 4889      6F636B4E 
 4889      65737469 
 4889      6E674374 
 4890              	.LASF176:
 4891 0f83 4F535F45 		.ascii	"OS_ERR_TIMEOUT\000"
 4891      52525F54 
 4891      494D454F 
 4891      555400
 4892              	.LASF33:
 4893 0f92 4F535F53 		.ascii	"OS_STATE\000"
 4893      54415445 
 4893      00
 4894              	.LASF291:
 4895 0f9b 74696D65 		.ascii	"timeout\000"
ARM GAS  C:\Users\daniel01\AppData\Local\Temp\ccip0sTe.s 			page 117


 4895      6F757400 
 4896              	.LASF29:
 4897 0fa3 4F535F4F 		.ascii	"OS_OPT\000"
 4897      505400
 4898              	.LASF219:
 4899 0faa 4F535F54 		.ascii	"OS_TASK_PTR\000"
 4899      41534B5F 
 4899      50545200 
 4900              	.LASF65:
 4901 0fb6 4F535F45 		.ascii	"OS_ERR_MEM_CREATE_ISR\000"
 4901      52525F4D 
 4901      454D5F43 
 4901      52454154 
 4901      455F4953 
 4902              	.LASF128:
 4903 0fcc 4F535F45 		.ascii	"OS_ERR_STATUS_INVALID\000"
 4903      52525F53 
 4903      54415455 
 4903      535F494E 
 4903      56414C49 
 4904              	.LASF194:
 4905 0fe2 4F535F45 		.ascii	"OS_ERR_Y\000"
 4905      52525F59 
 4905      00
 4906              	.LASF97:
 4907 0feb 4F535F45 		.ascii	"OS_ERR_PEND_ISR\000"
 4907      52525F50 
 4907      454E445F 
 4907      49535200 
 4908              	.LASF196:
 4909 0ffb 4F535F45 		.ascii	"OS_ERR_Z\000"
 4909      52525F5A 
 4909      00
 4910              	.LASF228:
 4911 1004 5469636B 		.ascii	"TickSpokePtr\000"
 4911      53706F6B 
 4911      65507472 
 4911      00
 4912              	.LASF218:
 4913 1011 4462674E 		.ascii	"DbgNamePtr\000"
 4913      616D6550 
 4913      747200
 4914              	.LASF207:
 4915 101c 4F757450 		.ascii	"OutPtr\000"
 4915      747200
 4916              	.LASF231:
 4917 1023 5461736B 		.ascii	"TaskEntryArg\000"
 4917      456E7472 
 4917      79417267 
 4917      00
 4918              	.LASF107:
 4919 1030 4F535F45 		.ascii	"OS_ERR_Q_FULL\000"
 4919      52525F51 
 4919      5F46554C 
 4919      4C00
 4920              	.LASF58:
 4921 103e 4F535F45 		.ascii	"OS_ERR_INT_Q_STK_INVALID\000"
ARM GAS  C:\Users\daniel01\AppData\Local\Temp\ccip0sTe.s 			page 118


 4921      52525F49 
 4921      4E545F51 
 4921      5F53544B 
 4921      5F494E56 
 4922              	.LASF171:
 4923 1057 4F535F45 		.ascii	"OS_ERR_TIME_INVALID_SECONDS\000"
 4923      52525F54 
 4923      494D455F 
 4923      494E5641 
 4923      4C49445F 
 4924              	.LASF135:
 4925 1073 4F535F45 		.ascii	"OS_ERR_TASK_DEL\000"
 4925      52525F54 
 4925      41534B5F 
 4925      44454C00 
 4926              	.LASF275:
 4927 1083 4F535F50 		.ascii	"OS_PEND_LIST\000"
 4927      454E445F 
 4927      4C495354 
 4927      00
 4928              	.LASF4:
 4929 1090 7369676E 		.ascii	"signed char\000"
 4929      65642063 
 4929      68617200 
 4930              	.LASF202:
 4931 109c 4D736754 		.ascii	"MsgTS\000"
 4931      5300
 4932              	.LASF46:
 4933 10a2 4F535F45 		.ascii	"OS_ERR_FATAL_RETURN\000"
 4933      52525F46 
 4933      4154414C 
 4933      5F524554 
 4933      55524E00 
 4934              	.LASF6:
 4935 10b6 73686F72 		.ascii	"short unsigned int\000"
 4935      7420756E 
 4935      7369676E 
 4935      65642069 
 4935      6E7400
 4936              	.LASF23:
 4937 10c9 4F535F46 		.ascii	"OS_FLAGS\000"
 4937      4C414753 
 4937      00
 4938              	.LASF200:
 4939 10d2 4D736750 		.ascii	"MsgPtr\000"
 4939      747200
 4940              	.LASF159:
 4941 10d9 4F535F45 		.ascii	"OS_ERR_TLS_NO_MORE_AVAIL\000"
 4941      52525F54 
 4941      4C535F4E 
 4941      4F5F4D4F 
 4941      52455F41 
 4942              	.LASF36:
 4943 10f2 4F535F45 		.ascii	"OS_ERR_NONE\000"
 4943      52525F4E 
 4943      4F4E4500 
 4944              	.LASF268:
ARM GAS  C:\Users\daniel01\AppData\Local\Temp\ccip0sTe.s 			page 119


 4945 10fe 6F735F70 		.ascii	"os_pend_data\000"
 4945      656E645F 
 4945      64617461 
 4945      00
 4946              	.LASF118:
 4947 110b 4F535F45 		.ascii	"OS_ERR_SCHED_LOCKED\000"
 4947      52525F53 
 4947      43484544 
 4947      5F4C4F43 
 4947      4B454400 
 4948              	.LASF50:
 4949 111f 4F535F45 		.ascii	"OS_ERR_FLUSH_ISR\000"
 4949      52525F46 
 4949      4C555348 
 4949      5F495352 
 4949      00
 4950              	.LASF236:
 4951 1130 5072696F 		.ascii	"Prio\000"
 4951      00
 4952              	.LASF13:
 4953 1135 646F7562 		.ascii	"double\000"
 4953      6C6500
 4954              	.LASF92:
 4955 113c 4F535F45 		.ascii	"OS_ERR_PEND_ABORT\000"
 4955      52525F50 
 4955      454E445F 
 4955      41424F52 
 4955      5400
 4956              	.LASF253:
 4957 114e 43505555 		.ascii	"CPUUsage\000"
 4957      73616765 
 4957      00
 4958              	.LASF119:
 4959 1157 4F535F45 		.ascii	"OS_ERR_SCHED_NOT_LOCKED\000"
 4959      52525F53 
 4959      43484544 
 4959      5F4E4F54 
 4959      5F4C4F43 
 4960              	.LASF103:
 4961 116f 4F535F45 		.ascii	"OS_ERR_PRIO\000"
 4961      52525F50 
 4961      52494F00 
 4962              	.LASF96:
 4963 117b 4F535F45 		.ascii	"OS_ERR_PEND_DEL\000"
 4963      52525F50 
 4963      454E445F 
 4963      44454C00 
 4964              	.LASF270:
 4965 118b 50656E64 		.ascii	"PendObjPtr\000"
 4965      4F626A50 
 4965      747200
 4966              	.LASF313:
 4967 1196 433A5C55 		.ascii	"C:\\Users\\daniel01\\Desktop\\CY8CKIT-050_uCOS-III\\"
 4967      73657273 
 4967      5C64616E 
 4967      69656C30 
 4967      315C4465 
ARM GAS  C:\Users\daniel01\AppData\Local\Temp\ccip0sTe.s 			page 120


 4968 11c5 43593843 		.ascii	"CY8CKIT-050_uCOS-III\\Micrium\\Software\\EvalBoards"
 4968      4B49542D 
 4968      3035305F 
 4968      75434F53 
 4968      2D494949 
 4969 11f5 5C437970 		.ascii	"\\Cypress\\CY8CKIT-050\\PSoC\\uCOS-III-Probe\\uCOS-"
 4969      72657373 
 4969      5C435938 
 4969      434B4954 
 4969      2D303530 
 4970 1223 4949492D 		.ascii	"III-Probe.cydsn\000"
 4970      50726F62 
 4970      652E6379 
 4970      64736E00 
 4971              	.LASF210:
 4972 1233 4E627245 		.ascii	"NbrEntriesMax\000"
 4972      6E747269 
 4972      65734D61 
 4972      7800
 4973              	.LASF276:
 4974 1241 6F735F70 		.ascii	"os_pend_list\000"
 4974      656E645F 
 4974      6C697374 
 4974      00
 4975              	.LASF73:
 4976 124e 4F535F45 		.ascii	"OS_ERR_MEM_INVALID_SIZE\000"
 4976      52525F4D 
 4976      454D5F49 
 4976      4E56414C 
 4976      49445F53 
 4977              	.LASF150:
 4978 1266 4F535F45 		.ascii	"OS_ERR_TASK_SUSPENDED\000"
 4978      52525F54 
 4978      41534B5F 
 4978      53555350 
 4978      454E4445 
 4979              	.LASF122:
 4980 127c 4F535F45 		.ascii	"OS_ERR_SET_ISR\000"
 4980      52525F53 
 4980      45545F49 
 4980      535200
 4981              	.LASF258:
 4982 128b 4379636C 		.ascii	"CyclesTotal\000"
 4982      6573546F 
 4982      74616C00 
 4983              	.LASF248:
 4984 1297 52656754 		.ascii	"RegTbl\000"
 4984      626C00
 4985              	.LASF121:
 4986 129e 4F535F45 		.ascii	"OS_ERR_SEM_OVF\000"
 4986      52525F53 
 4986      454D5F4F 
 4986      564600
 4987              	.LASF136:
 4988 12ad 4F535F45 		.ascii	"OS_ERR_TASK_DEL_IDLE\000"
 4988      52525F54 
 4988      41534B5F 
ARM GAS  C:\Users\daniel01\AppData\Local\Temp\ccip0sTe.s 			page 121


 4988      44454C5F 
 4988      49444C45 
 4989              	.LASF168:
 4990 12c2 4F535F45 		.ascii	"OS_ERR_TIME_GET_ISR\000"
 4990      52525F54 
 4990      494D455F 
 4990      4745545F 
 4990      49535200 
 4991              	.LASF243:
 4992 12d6 54696D65 		.ascii	"TimeQuanta\000"
 4992      5175616E 
 4992      746100
 4993              	.LASF167:
 4994 12e1 4F535F45 		.ascii	"OS_ERR_TIME_DLY_RESUME_ISR\000"
 4994      52525F54 
 4994      494D455F 
 4994      444C595F 
 4994      52455355 
 4995              	.LASF162:
 4996 12fc 4F535F45 		.ascii	"OS_ERR_TICK_PRIO_INVALID\000"
 4996      52525F54 
 4996      49434B5F 
 4996      5052494F 
 4996      5F494E56 
 4997              	.LASF102:
 4998 1315 4F535F45 		.ascii	"OS_ERR_PRIO_EXIST\000"
 4998      52525F50 
 4998      52494F5F 
 4998      45584953 
 4998      5400
 4999              	.LASF205:
 5000 1327 6F735F6D 		.ascii	"os_msg_q\000"
 5000      73675F71 
 5000      00
 5001              	.LASF74:
 5002 1330 4F535F45 		.ascii	"OS_ERR_MEM_NO_FREE_BLKS\000"
 5002      52525F4D 
 5002      454D5F4E 
 5002      4F5F4652 
 5002      45455F42 
 5003              	.LASF15:
 5004 1348 4350555F 		.ascii	"CPU_STK\000"
 5004      53544B00 
 5005              		.ident	"GCC: (Sourcery G++ Lite 2010q1-188) 4.4.1"
