ARM GAS  C:\Users\daniel01\AppData\Local\Temp\ccxoNE0f.s 			page 1


   1              		.syntax unified
   2              		.cpu cortex-m3
   3              		.fpu softvfp
   4              		.eabi_attribute 20, 1
   5              		.eabi_attribute 21, 1
   6              		.eabi_attribute 23, 3
   7              		.eabi_attribute 24, 1
   8              		.eabi_attribute 25, 1
   9              		.eabi_attribute 26, 1
  10              		.eabi_attribute 30, 6
  11              		.eabi_attribute 18, 4
  12              		.thumb
  13              		.file	"os_tmr.c"
  20 0000 41030000 		.text
  20      0200D500 
  20      00000201 
  20      FB0E0D00 
  20      01010101 
  21              	.Ltext0:
  22              		.cfi_sections	.debug_frame
  23              		.section	.text.OSTmrCreate,"ax",%progbits
  24              		.align	2
  25              		.global	OSTmrCreate
  26              		.thumb
  27              		.thumb_func
  28              		.type	OSTmrCreate, %function
  29              	OSTmrCreate:
  30              	.LFB0:
  31              		.file 1 "C:\\Micrium\\Software\\uCOS-III\\Source\\os_tmr.c"
   1:C:\Micrium\Software\uCOS-III\Source\os_tmr.c **** /*
   2:C:\Micrium\Software\uCOS-III\Source\os_tmr.c **** ***************************************************************************************************
   3:C:\Micrium\Software\uCOS-III\Source\os_tmr.c **** *                                                      uC/OS-III
   4:C:\Micrium\Software\uCOS-III\Source\os_tmr.c **** *                                                 The Real-Time Kernel
   5:C:\Micrium\Software\uCOS-III\Source\os_tmr.c **** *
   6:C:\Micrium\Software\uCOS-III\Source\os_tmr.c **** *                                  (c) Copyright 2009-2012; Micrium, Inc.; Weston, FL
   7:C:\Micrium\Software\uCOS-III\Source\os_tmr.c **** *                           All rights reserved.  Protected by international copyright laws.
   8:C:\Micrium\Software\uCOS-III\Source\os_tmr.c **** *
   9:C:\Micrium\Software\uCOS-III\Source\os_tmr.c **** *                                                   TIMER MANAGEMENT
  10:C:\Micrium\Software\uCOS-III\Source\os_tmr.c **** *
  11:C:\Micrium\Software\uCOS-III\Source\os_tmr.c **** * File    : OS_TMR.C
  12:C:\Micrium\Software\uCOS-III\Source\os_tmr.c **** * By      : JJL
  13:C:\Micrium\Software\uCOS-III\Source\os_tmr.c **** * Version : V3.03.01
  14:C:\Micrium\Software\uCOS-III\Source\os_tmr.c **** *
  15:C:\Micrium\Software\uCOS-III\Source\os_tmr.c **** * LICENSING TERMS:
  16:C:\Micrium\Software\uCOS-III\Source\os_tmr.c **** * ---------------
  17:C:\Micrium\Software\uCOS-III\Source\os_tmr.c **** *           uC/OS-III is provided in source form for FREE short-term evaluation, for educational us
  18:C:\Micrium\Software\uCOS-III\Source\os_tmr.c **** *           for peaceful research.  If you plan or intend to use uC/OS-III in a commercial applicat
  19:C:\Micrium\Software\uCOS-III\Source\os_tmr.c **** *           product then, you need to contact Micrium to properly license uC/OS-III for its use in 
  20:C:\Micrium\Software\uCOS-III\Source\os_tmr.c **** *           application/product.   We provide ALL the source code for your convenience and to help 
  21:C:\Micrium\Software\uCOS-III\Source\os_tmr.c **** *           experience uC/OS-III.  The fact that the source is provided does NOT mean that you can 
  22:C:\Micrium\Software\uCOS-III\Source\os_tmr.c **** *           it commercially without paying a licensing fee.
ARM GAS  C:\Users\daniel01\AppData\Local\Temp\ccxoNE0f.s 			page 2


  23:C:\Micrium\Software\uCOS-III\Source\os_tmr.c **** *
  24:C:\Micrium\Software\uCOS-III\Source\os_tmr.c **** *           Knowledge of the source code may NOT be used to develop a similar product.
  25:C:\Micrium\Software\uCOS-III\Source\os_tmr.c **** *
  26:C:\Micrium\Software\uCOS-III\Source\os_tmr.c **** *           Please help us continue to provide the embedded community with the finest software avai
  27:C:\Micrium\Software\uCOS-III\Source\os_tmr.c **** *           Your honesty is greatly appreciated.
  28:C:\Micrium\Software\uCOS-III\Source\os_tmr.c **** *
  29:C:\Micrium\Software\uCOS-III\Source\os_tmr.c **** *           You can contact us at www.micrium.com, or by phone at +1 (954) 217-2036.
  30:C:\Micrium\Software\uCOS-III\Source\os_tmr.c **** ***************************************************************************************************
  31:C:\Micrium\Software\uCOS-III\Source\os_tmr.c **** */
  32:C:\Micrium\Software\uCOS-III\Source\os_tmr.c **** 
  33:C:\Micrium\Software\uCOS-III\Source\os_tmr.c **** #define  MICRIUM_SOURCE
  34:C:\Micrium\Software\uCOS-III\Source\os_tmr.c **** #include <os.h>
  35:C:\Micrium\Software\uCOS-III\Source\os_tmr.c **** 
  36:C:\Micrium\Software\uCOS-III\Source\os_tmr.c **** #ifdef VSC_INCLUDE_SOURCE_FILE_NAMES
  37:C:\Micrium\Software\uCOS-III\Source\os_tmr.c **** const  CPU_CHAR  *os_tmr__c = "$Id: $";
  38:C:\Micrium\Software\uCOS-III\Source\os_tmr.c **** #endif
  39:C:\Micrium\Software\uCOS-III\Source\os_tmr.c **** 
  40:C:\Micrium\Software\uCOS-III\Source\os_tmr.c **** 
  41:C:\Micrium\Software\uCOS-III\Source\os_tmr.c **** #if OS_CFG_TMR_EN > 0u
  42:C:\Micrium\Software\uCOS-III\Source\os_tmr.c **** /*
  43:C:\Micrium\Software\uCOS-III\Source\os_tmr.c **** ***************************************************************************************************
  44:C:\Micrium\Software\uCOS-III\Source\os_tmr.c **** *                                                     CONSTANTS
  45:C:\Micrium\Software\uCOS-III\Source\os_tmr.c **** ***************************************************************************************************
  46:C:\Micrium\Software\uCOS-III\Source\os_tmr.c **** */
  47:C:\Micrium\Software\uCOS-III\Source\os_tmr.c **** 
  48:C:\Micrium\Software\uCOS-III\Source\os_tmr.c **** #define  OS_OPT_LINK_DLY       (OS_OPT)(0u)
  49:C:\Micrium\Software\uCOS-III\Source\os_tmr.c **** #define  OS_OPT_LINK_PERIODIC  (OS_OPT)(1u)
  50:C:\Micrium\Software\uCOS-III\Source\os_tmr.c **** 
  51:C:\Micrium\Software\uCOS-III\Source\os_tmr.c **** /*$PAGE*/
  52:C:\Micrium\Software\uCOS-III\Source\os_tmr.c **** /*
  53:C:\Micrium\Software\uCOS-III\Source\os_tmr.c **** ***************************************************************************************************
  54:C:\Micrium\Software\uCOS-III\Source\os_tmr.c **** *                                                   CREATE A TIMER
  55:C:\Micrium\Software\uCOS-III\Source\os_tmr.c **** *
  56:C:\Micrium\Software\uCOS-III\Source\os_tmr.c **** * Description: This function is called by your application code to create a timer.
  57:C:\Micrium\Software\uCOS-III\Source\os_tmr.c **** *
  58:C:\Micrium\Software\uCOS-III\Source\os_tmr.c **** * Arguments  : p_tmr           Is a pointer to a timer control block
  59:C:\Micrium\Software\uCOS-III\Source\os_tmr.c **** *
  60:C:\Micrium\Software\uCOS-III\Source\os_tmr.c **** *              p_name          Is a pointer to an ASCII string that is used to name the timer.  Nam
  61:C:\Micrium\Software\uCOS-III\Source\os_tmr.c **** *                              debugging.
  62:C:\Micrium\Software\uCOS-III\Source\os_tmr.c **** *
  63:C:\Micrium\Software\uCOS-III\Source\os_tmr.c **** *              dly             Initial delay.
  64:C:\Micrium\Software\uCOS-III\Source\os_tmr.c **** *                              If the timer is configured for ONE-SHOT mode, this is the timeout us
  65:C:\Micrium\Software\uCOS-III\Source\os_tmr.c **** *                              If the timer is configured for PERIODIC mode, this is the first time
  66:C:\Micrium\Software\uCOS-III\Source\os_tmr.c **** *                              before the timer starts entering periodic mode
  67:C:\Micrium\Software\uCOS-III\Source\os_tmr.c **** *
  68:C:\Micrium\Software\uCOS-III\Source\os_tmr.c **** *              period          The 'period' being repeated for the timer.
  69:C:\Micrium\Software\uCOS-III\Source\os_tmr.c **** *                              If you specified 'OS_OPT_TMR_PERIODIC' as an option, when the timer 
  70:C:\Micrium\Software\uCOS-III\Source\os_tmr.c **** *                              automatically restart with the same period.
  71:C:\Micrium\Software\uCOS-III\Source\os_tmr.c **** *
  72:C:\Micrium\Software\uCOS-III\Source\os_tmr.c **** *              opt             Specifies either:
  73:C:\Micrium\Software\uCOS-III\Source\os_tmr.c **** *
  74:C:\Micrium\Software\uCOS-III\Source\os_tmr.c **** *                                  OS_OPT_TMR_ONE_SHOT       The timer counts down only once
  75:C:\Micrium\Software\uCOS-III\Source\os_tmr.c **** *                                  OS_OPT_TMR_PERIODIC       The timer counts down and then reloads
  76:C:\Micrium\Software\uCOS-III\Source\os_tmr.c **** *
  77:C:\Micrium\Software\uCOS-III\Source\os_tmr.c **** *              p_callback      Is a pointer to a callback function that will be called when the tim
  78:C:\Micrium\Software\uCOS-III\Source\os_tmr.c **** *                              callback function must be declared as follows:
  79:C:\Micrium\Software\uCOS-III\Source\os_tmr.c **** *
ARM GAS  C:\Users\daniel01\AppData\Local\Temp\ccxoNE0f.s 			page 3


  80:C:\Micrium\Software\uCOS-III\Source\os_tmr.c **** *                                  void  MyCallback (OS_TMR *p_tmr, void *p_arg);
  81:C:\Micrium\Software\uCOS-III\Source\os_tmr.c **** *
  82:C:\Micrium\Software\uCOS-III\Source\os_tmr.c **** *              p_callback_arg  Is an argument (a pointer) that is passed to the callback function w
  83:C:\Micrium\Software\uCOS-III\Source\os_tmr.c **** *
  84:C:\Micrium\Software\uCOS-III\Source\os_tmr.c **** *              p_err           Is a pointer to an error code.  '*p_err' will contain one of the fol
  85:C:\Micrium\Software\uCOS-III\Source\os_tmr.c **** *
  86:C:\Micrium\Software\uCOS-III\Source\os_tmr.c **** *                                 OS_ERR_NONE
  87:C:\Micrium\Software\uCOS-III\Source\os_tmr.c **** *                                 OS_ERR_ILLEGAL_CREATE_RUN_TIME if you are trying to create the ti
  88:C:\Micrium\Software\uCOS-III\Source\os_tmr.c **** *                                                                  OSSafetyCriticalStart().
  89:C:\Micrium\Software\uCOS-III\Source\os_tmr.c **** *                                 OS_ERR_OBJ_CREATED             if the timer has already been crea
  90:C:\Micrium\Software\uCOS-III\Source\os_tmr.c **** *                                 OS_ERR_OBJ_PTR_NULL            is 'p_tmr' is a NULL pointer
  91:C:\Micrium\Software\uCOS-III\Source\os_tmr.c **** *                                 OS_ERR_OBJ_TYPE                if the object type is invalid
  92:C:\Micrium\Software\uCOS-III\Source\os_tmr.c **** *                                 OS_ERR_OPT_INVALID             you specified an invalid option
  93:C:\Micrium\Software\uCOS-III\Source\os_tmr.c **** *                                 OS_ERR_TMR_INVALID_DLY         you specified an invalid delay
  94:C:\Micrium\Software\uCOS-III\Source\os_tmr.c **** *                                 OS_ERR_TMR_INVALID_PERIOD      you specified an invalid period
  95:C:\Micrium\Software\uCOS-III\Source\os_tmr.c **** *                                 OS_ERR_TMR_ISR                 if the call was made from an ISR
  96:C:\Micrium\Software\uCOS-III\Source\os_tmr.c **** *
  97:C:\Micrium\Software\uCOS-III\Source\os_tmr.c **** * Returns    : none
  98:C:\Micrium\Software\uCOS-III\Source\os_tmr.c **** *
  99:C:\Micrium\Software\uCOS-III\Source\os_tmr.c **** * Note(s)    : 1) This function only creates the timer.  In other words, the timer is not started w
 100:C:\Micrium\Software\uCOS-III\Source\os_tmr.c **** *                 start the timer, call OSTmrStart().
 101:C:\Micrium\Software\uCOS-III\Source\os_tmr.c **** ***************************************************************************************************
 102:C:\Micrium\Software\uCOS-III\Source\os_tmr.c **** */
 103:C:\Micrium\Software\uCOS-III\Source\os_tmr.c **** 
 104:C:\Micrium\Software\uCOS-III\Source\os_tmr.c **** void  OSTmrCreate (OS_TMR               *p_tmr,
 105:C:\Micrium\Software\uCOS-III\Source\os_tmr.c ****                    CPU_CHAR             *p_name,
 106:C:\Micrium\Software\uCOS-III\Source\os_tmr.c ****                    OS_TICK               dly,
 107:C:\Micrium\Software\uCOS-III\Source\os_tmr.c ****                    OS_TICK               period,
 108:C:\Micrium\Software\uCOS-III\Source\os_tmr.c ****                    OS_OPT                opt,
 109:C:\Micrium\Software\uCOS-III\Source\os_tmr.c ****                    OS_TMR_CALLBACK_PTR   p_callback,
 110:C:\Micrium\Software\uCOS-III\Source\os_tmr.c ****                    void                 *p_callback_arg,
 111:C:\Micrium\Software\uCOS-III\Source\os_tmr.c ****                    OS_ERR               *p_err)
 112:C:\Micrium\Software\uCOS-III\Source\os_tmr.c **** {
  32              		.loc 1 112 0
  33              		.cfi_startproc
  34              		@ args = 16, pretend = 0, frame = 24
  35              		@ frame_needed = 1, uses_anonymous_args = 0
  36 0000 80B5     		push	{r7, lr}
  37              	.LCFI0:
  38              		.cfi_def_cfa_offset 8
  39 0002 86B0     		sub	sp, sp, #24
  40              	.LCFI1:
  41              		.cfi_def_cfa_offset 32
  42 0004 00AF     		add	r7, sp, #0
  43              		.cfi_offset 14, -4
  44              		.cfi_offset 7, -8
  45              	.LCFI2:
  46              		.cfi_def_cfa_register 7
  47 0006 F860     		str	r0, [r7, #12]
  48 0008 B960     		str	r1, [r7, #8]
  49 000a 7A60     		str	r2, [r7, #4]
  50 000c 3B60     		str	r3, [r7, #0]
 113:C:\Micrium\Software\uCOS-III\Source\os_tmr.c ****     CPU_SR_ALLOC();
  51              		.loc 1 113 0
  52 000e 4FF00003 		mov	r3, #0
  53 0012 7B61     		str	r3, [r7, #20]
 114:C:\Micrium\Software\uCOS-III\Source\os_tmr.c **** 
ARM GAS  C:\Users\daniel01\AppData\Local\Temp\ccxoNE0f.s 			page 4


 115:C:\Micrium\Software\uCOS-III\Source\os_tmr.c **** 
 116:C:\Micrium\Software\uCOS-III\Source\os_tmr.c **** 
 117:C:\Micrium\Software\uCOS-III\Source\os_tmr.c **** #ifdef OS_SAFETY_CRITICAL
 118:C:\Micrium\Software\uCOS-III\Source\os_tmr.c ****     if (p_err == (OS_ERR *)0) {
 119:C:\Micrium\Software\uCOS-III\Source\os_tmr.c ****         OS_SAFETY_CRITICAL_EXCEPTION();
 120:C:\Micrium\Software\uCOS-III\Source\os_tmr.c ****         return;
 121:C:\Micrium\Software\uCOS-III\Source\os_tmr.c ****     }
 122:C:\Micrium\Software\uCOS-III\Source\os_tmr.c **** #endif
 123:C:\Micrium\Software\uCOS-III\Source\os_tmr.c **** 
 124:C:\Micrium\Software\uCOS-III\Source\os_tmr.c **** #ifdef OS_SAFETY_CRITICAL_IEC61508
 125:C:\Micrium\Software\uCOS-III\Source\os_tmr.c ****     if (OSSafetyCriticalStartFlag == DEF_TRUE) {
 126:C:\Micrium\Software\uCOS-III\Source\os_tmr.c ****        *p_err = OS_ERR_ILLEGAL_CREATE_RUN_TIME;
 127:C:\Micrium\Software\uCOS-III\Source\os_tmr.c ****         return;
 128:C:\Micrium\Software\uCOS-III\Source\os_tmr.c ****     }
 129:C:\Micrium\Software\uCOS-III\Source\os_tmr.c **** #endif
 130:C:\Micrium\Software\uCOS-III\Source\os_tmr.c **** 
 131:C:\Micrium\Software\uCOS-III\Source\os_tmr.c **** #if OS_CFG_CALLED_FROM_ISR_CHK_EN > 0u
 132:C:\Micrium\Software\uCOS-III\Source\os_tmr.c ****     if (OSIntNestingCtr > (OS_NESTING_CTR)0) {              /* See if trying to call from an ISR   
  54              		.loc 1 132 0
  55 0014 40F20003 		movw	r3, #:lower16:OSIntNestingCtr
  56 0018 C0F20003 		movt	r3, #:upper16:OSIntNestingCtr
  57 001c 1B78     		ldrb	r3, [r3, #0]	@ zero_extendqisi2
  58 001e 002B     		cmp	r3, #0
  59 0020 04D0     		beq	.L2
 133:C:\Micrium\Software\uCOS-III\Source\os_tmr.c ****        *p_err = OS_ERR_TMR_ISR;
  60              		.loc 1 133 0
  61 0022 FB6A     		ldr	r3, [r7, #44]
  62 0024 47F24332 		movw	r2, #29507
  63 0028 1A80     		strh	r2, [r3, #0]	@ movhi
 134:C:\Micrium\Software\uCOS-III\Source\os_tmr.c ****         return;
  64              		.loc 1 134 0
  65 002a 6CE0     		b	.L11
  66              	.L2:
 135:C:\Micrium\Software\uCOS-III\Source\os_tmr.c ****     }
 136:C:\Micrium\Software\uCOS-III\Source\os_tmr.c **** #endif
 137:C:\Micrium\Software\uCOS-III\Source\os_tmr.c **** 
 138:C:\Micrium\Software\uCOS-III\Source\os_tmr.c **** #if OS_CFG_ARG_CHK_EN > 0u
 139:C:\Micrium\Software\uCOS-III\Source\os_tmr.c ****     if (p_tmr == (OS_TMR *)0) {                             /* Validate 'p_tmr'                    
  67              		.loc 1 139 0
  68 002c FB68     		ldr	r3, [r7, #12]
  69 002e 002B     		cmp	r3, #0
  70 0030 04D1     		bne	.L4
 140:C:\Micrium\Software\uCOS-III\Source\os_tmr.c ****        *p_err = OS_ERR_OBJ_PTR_NULL;
  71              		.loc 1 140 0
  72 0032 FB6A     		ldr	r3, [r7, #44]
  73 0034 45F6C352 		movw	r2, #24003
  74 0038 1A80     		strh	r2, [r3, #0]	@ movhi
 141:C:\Micrium\Software\uCOS-III\Source\os_tmr.c ****         return;
  75              		.loc 1 141 0
  76 003a 64E0     		b	.L11
  77              	.L4:
 142:C:\Micrium\Software\uCOS-III\Source\os_tmr.c ****     }
 143:C:\Micrium\Software\uCOS-III\Source\os_tmr.c **** 
 144:C:\Micrium\Software\uCOS-III\Source\os_tmr.c ****     switch (opt) {
  78              		.loc 1 144 0
  79 003c 3B8C     		ldrh	r3, [r7, #32]
  80 003e 012B     		cmp	r3, #1
ARM GAS  C:\Users\daniel01\AppData\Local\Temp\ccxoNE0f.s 			page 5


  81 0040 09D0     		beq	.L6
  82 0042 022B     		cmp	r3, #2
  83 0044 0FD1     		bne	.L12
  84              	.L7:
 145:C:\Micrium\Software\uCOS-III\Source\os_tmr.c ****         case OS_OPT_TMR_PERIODIC:
 146:C:\Micrium\Software\uCOS-III\Source\os_tmr.c ****              if (period == (OS_TICK)0) {
  85              		.loc 1 146 0
  86 0046 3B68     		ldr	r3, [r7, #0]
  87 0048 002B     		cmp	r3, #0
  88 004a 11D1     		bne	.L13
 147:C:\Micrium\Software\uCOS-III\Source\os_tmr.c ****                 *p_err = OS_ERR_TMR_INVALID_PERIOD;
  89              		.loc 1 147 0
  90 004c FB6A     		ldr	r3, [r7, #44]
  91 004e 47F24032 		movw	r2, #29504
  92 0052 1A80     		strh	r2, [r3, #0]	@ movhi
 148:C:\Micrium\Software\uCOS-III\Source\os_tmr.c ****                  return;
  93              		.loc 1 148 0
  94 0054 57E0     		b	.L11
  95              	.L6:
 149:C:\Micrium\Software\uCOS-III\Source\os_tmr.c ****              }
 150:C:\Micrium\Software\uCOS-III\Source\os_tmr.c ****              break;
 151:C:\Micrium\Software\uCOS-III\Source\os_tmr.c **** 
 152:C:\Micrium\Software\uCOS-III\Source\os_tmr.c ****         case OS_OPT_TMR_ONE_SHOT:
 153:C:\Micrium\Software\uCOS-III\Source\os_tmr.c ****              if (dly == (OS_TICK)0) {
  96              		.loc 1 153 0
  97 0056 7B68     		ldr	r3, [r7, #4]
  98 0058 002B     		cmp	r3, #0
  99 005a 0BD1     		bne	.L14
 154:C:\Micrium\Software\uCOS-III\Source\os_tmr.c ****                 *p_err = OS_ERR_TMR_INVALID_DLY;
 100              		.loc 1 154 0
 101 005c FB6A     		ldr	r3, [r7, #44]
 102 005e 47F23F32 		movw	r2, #29503
 103 0062 1A80     		strh	r2, [r3, #0]	@ movhi
 155:C:\Micrium\Software\uCOS-III\Source\os_tmr.c ****                  return;
 104              		.loc 1 155 0
 105 0064 4FE0     		b	.L11
 106              	.L12:
 156:C:\Micrium\Software\uCOS-III\Source\os_tmr.c ****              }
 157:C:\Micrium\Software\uCOS-III\Source\os_tmr.c ****              break;
 158:C:\Micrium\Software\uCOS-III\Source\os_tmr.c **** 
 159:C:\Micrium\Software\uCOS-III\Source\os_tmr.c ****         default:
 160:C:\Micrium\Software\uCOS-III\Source\os_tmr.c ****             *p_err = OS_ERR_OPT_INVALID;
 107              		.loc 1 160 0
 108 0066 FB6A     		ldr	r3, [r7, #44]
 109 0068 45F62562 		movw	r2, #24101
 110 006c 1A80     		strh	r2, [r3, #0]	@ movhi
 161:C:\Micrium\Software\uCOS-III\Source\os_tmr.c ****              return;
 111              		.loc 1 161 0
 112 006e 4AE0     		b	.L11
 113              	.L13:
 114              		.loc 1 150 0
 115 0070 00BF     		nop
 116 0072 00E0     		b	.L9
 117              	.L14:
 118              		.loc 1 157 0
 119 0074 00BF     		nop
 120              	.L9:
ARM GAS  C:\Users\daniel01\AppData\Local\Temp\ccxoNE0f.s 			page 6


 162:C:\Micrium\Software\uCOS-III\Source\os_tmr.c ****     }
 163:C:\Micrium\Software\uCOS-III\Source\os_tmr.c **** #endif
 164:C:\Micrium\Software\uCOS-III\Source\os_tmr.c **** 
 165:C:\Micrium\Software\uCOS-III\Source\os_tmr.c ****     OS_CRITICAL_ENTER();
 121              		.loc 1 165 0
 122 0076 FFF7FEFF 		bl	CPU_SR_Save
 123 007a 0346     		mov	r3, r0
 124 007c 7B61     		str	r3, [r7, #20]
 166:C:\Micrium\Software\uCOS-III\Source\os_tmr.c ****     p_tmr->State          = (OS_STATE           )OS_TMR_STATE_STOPPED;     /* Initialize the timer 
 125              		.loc 1 166 0
 126 007e FB68     		ldr	r3, [r7, #12]
 127 0080 4FF00102 		mov	r2, #1
 128 0084 83F82A20 		strb	r2, [r3, #42]
 167:C:\Micrium\Software\uCOS-III\Source\os_tmr.c ****     p_tmr->Type           = (OS_OBJ_TYPE        )OS_OBJ_TYPE_TMR;
 129              		.loc 1 167 0
 130 0088 FA68     		ldr	r2, [r7, #12]
 131 008a 44F65453 		movw	r3, #:lower16:542264660
 132 008e C2F25203 		movt	r3, #:upper16:542264660
 133 0092 1360     		str	r3, [r2, #0]
 168:C:\Micrium\Software\uCOS-III\Source\os_tmr.c ****     p_tmr->NamePtr        = (CPU_CHAR          *)p_name;
 134              		.loc 1 168 0
 135 0094 FB68     		ldr	r3, [r7, #12]
 136 0096 BA68     		ldr	r2, [r7, #8]
 137 0098 5A60     		str	r2, [r3, #4]
 169:C:\Micrium\Software\uCOS-III\Source\os_tmr.c ****     p_tmr->Dly            = (OS_TICK            )dly;
 138              		.loc 1 169 0
 139 009a FB68     		ldr	r3, [r7, #12]
 140 009c 7A68     		ldr	r2, [r7, #4]
 141 009e 1A62     		str	r2, [r3, #32]
 170:C:\Micrium\Software\uCOS-III\Source\os_tmr.c ****     p_tmr->Match          = (OS_TICK            )0;
 142              		.loc 1 170 0
 143 00a0 FB68     		ldr	r3, [r7, #12]
 144 00a2 4FF00002 		mov	r2, #0
 145 00a6 9A61     		str	r2, [r3, #24]
 171:C:\Micrium\Software\uCOS-III\Source\os_tmr.c ****     p_tmr->Remain         = (OS_TICK            )0;
 146              		.loc 1 171 0
 147 00a8 FB68     		ldr	r3, [r7, #12]
 148 00aa 4FF00002 		mov	r2, #0
 149 00ae DA61     		str	r2, [r3, #28]
 172:C:\Micrium\Software\uCOS-III\Source\os_tmr.c ****     p_tmr->Period         = (OS_TICK            )period;
 150              		.loc 1 172 0
 151 00b0 FB68     		ldr	r3, [r7, #12]
 152 00b2 3A68     		ldr	r2, [r7, #0]
 153 00b4 5A62     		str	r2, [r3, #36]
 173:C:\Micrium\Software\uCOS-III\Source\os_tmr.c ****     p_tmr->Opt            = (OS_OPT             )opt;
 154              		.loc 1 173 0
 155 00b6 FB68     		ldr	r3, [r7, #12]
 156 00b8 3A8C     		ldrh	r2, [r7, #32]	@ movhi
 157 00ba 1A85     		strh	r2, [r3, #40]	@ movhi
 174:C:\Micrium\Software\uCOS-III\Source\os_tmr.c ****     p_tmr->CallbackPtr    = (OS_TMR_CALLBACK_PTR)p_callback;
 158              		.loc 1 174 0
 159 00bc FB68     		ldr	r3, [r7, #12]
 160 00be 7A6A     		ldr	r2, [r7, #36]
 161 00c0 9A60     		str	r2, [r3, #8]
 175:C:\Micrium\Software\uCOS-III\Source\os_tmr.c ****     p_tmr->CallbackPtrArg = (void              *)p_callback_arg;
 162              		.loc 1 175 0
 163 00c2 FB68     		ldr	r3, [r7, #12]
ARM GAS  C:\Users\daniel01\AppData\Local\Temp\ccxoNE0f.s 			page 7


 164 00c4 BA6A     		ldr	r2, [r7, #40]
 165 00c6 DA60     		str	r2, [r3, #12]
 176:C:\Micrium\Software\uCOS-III\Source\os_tmr.c ****     p_tmr->NextPtr        = (OS_TMR            *)0;
 166              		.loc 1 176 0
 167 00c8 FB68     		ldr	r3, [r7, #12]
 168 00ca 4FF00002 		mov	r2, #0
 169 00ce 1A61     		str	r2, [r3, #16]
 177:C:\Micrium\Software\uCOS-III\Source\os_tmr.c ****     p_tmr->PrevPtr        = (OS_TMR            *)0;
 170              		.loc 1 177 0
 171 00d0 FB68     		ldr	r3, [r7, #12]
 172 00d2 4FF00002 		mov	r2, #0
 173 00d6 5A61     		str	r2, [r3, #20]
 178:C:\Micrium\Software\uCOS-III\Source\os_tmr.c **** 
 179:C:\Micrium\Software\uCOS-III\Source\os_tmr.c **** #if OS_CFG_DBG_EN > 0u
 180:C:\Micrium\Software\uCOS-III\Source\os_tmr.c ****     OS_TmrDbgListAdd(p_tmr);
 174              		.loc 1 180 0
 175 00d8 F868     		ldr	r0, [r7, #12]
 176 00da FFF7FEFF 		bl	OS_TmrDbgListAdd
 181:C:\Micrium\Software\uCOS-III\Source\os_tmr.c **** #endif
 182:C:\Micrium\Software\uCOS-III\Source\os_tmr.c ****     OSTmrQty++;                                             /* Keep track of the number of timers c
 177              		.loc 1 182 0
 178 00de 40F20003 		movw	r3, #:lower16:OSTmrQty
 179 00e2 C0F20003 		movt	r3, #:upper16:OSTmrQty
 180 00e6 1B88     		ldrh	r3, [r3, #0]
 181 00e8 03F10103 		add	r3, r3, #1
 182 00ec 9AB2     		uxth	r2, r3
 183 00ee 40F20003 		movw	r3, #:lower16:OSTmrQty
 184 00f2 C0F20003 		movt	r3, #:upper16:OSTmrQty
 185 00f6 1A80     		strh	r2, [r3, #0]	@ movhi
 183:C:\Micrium\Software\uCOS-III\Source\os_tmr.c **** 
 184:C:\Micrium\Software\uCOS-III\Source\os_tmr.c ****     OS_CRITICAL_EXIT_NO_SCHED();
 186              		.loc 1 184 0
 187 00f8 7869     		ldr	r0, [r7, #20]
 188 00fa FFF7FEFF 		bl	CPU_SR_Restore
 185:C:\Micrium\Software\uCOS-III\Source\os_tmr.c ****    *p_err = OS_ERR_NONE;
 189              		.loc 1 185 0
 190 00fe FB6A     		ldr	r3, [r7, #44]
 191 0100 4FF00002 		mov	r2, #0
 192 0104 1A80     		strh	r2, [r3, #0]	@ movhi
 193              	.L11:
 186:C:\Micrium\Software\uCOS-III\Source\os_tmr.c **** }
 194              		.loc 1 186 0
 195 0106 07F11807 		add	r7, r7, #24
 196 010a BD46     		mov	sp, r7
 197 010c 80BD     		pop	{r7, pc}
 198              		.cfi_endproc
 199              	.LFE0:
 200              		.size	OSTmrCreate, .-OSTmrCreate
 201 010e 00BF     		.section	.text.OSTmrDel,"ax",%progbits
 202              		.align	2
 203              		.global	OSTmrDel
 204              		.thumb
 205              		.thumb_func
 206              		.type	OSTmrDel, %function
 207              	OSTmrDel:
 208              	.LFB1:
 187:C:\Micrium\Software\uCOS-III\Source\os_tmr.c **** 
ARM GAS  C:\Users\daniel01\AppData\Local\Temp\ccxoNE0f.s 			page 8


 188:C:\Micrium\Software\uCOS-III\Source\os_tmr.c **** /*$PAGE*/
 189:C:\Micrium\Software\uCOS-III\Source\os_tmr.c **** /*
 190:C:\Micrium\Software\uCOS-III\Source\os_tmr.c **** ***************************************************************************************************
 191:C:\Micrium\Software\uCOS-III\Source\os_tmr.c **** *                                                   DELETE A TIMER
 192:C:\Micrium\Software\uCOS-III\Source\os_tmr.c **** *
 193:C:\Micrium\Software\uCOS-III\Source\os_tmr.c **** * Description: This function is called by your application code to delete a timer.
 194:C:\Micrium\Software\uCOS-III\Source\os_tmr.c **** *
 195:C:\Micrium\Software\uCOS-III\Source\os_tmr.c **** * Arguments  : p_tmr          Is a pointer to the timer to stop and delete.
 196:C:\Micrium\Software\uCOS-III\Source\os_tmr.c **** *
 197:C:\Micrium\Software\uCOS-III\Source\os_tmr.c **** *              p_err          Is a pointer to an error code.  '*p_err' will contain one of the foll
 198:C:\Micrium\Software\uCOS-III\Source\os_tmr.c **** *
 199:C:\Micrium\Software\uCOS-III\Source\os_tmr.c **** *                                 OS_ERR_NONE
 200:C:\Micrium\Software\uCOS-III\Source\os_tmr.c **** *                                 OS_ERR_OBJ_TYPE             'p_tmr' is not pointing to a timer
 201:C:\Micrium\Software\uCOS-III\Source\os_tmr.c **** *                                 OS_ERR_TMR_INVALID          'p_tmr' is a NULL pointer
 202:C:\Micrium\Software\uCOS-III\Source\os_tmr.c **** *                                 OS_ERR_TMR_ISR              if the function was called from an IS
 203:C:\Micrium\Software\uCOS-III\Source\os_tmr.c **** *                                 OS_ERR_TMR_INACTIVE         if the timer was not created
 204:C:\Micrium\Software\uCOS-III\Source\os_tmr.c **** *                                 OS_ERR_TMR_INVALID_STATE    the timer is in an invalid state
 205:C:\Micrium\Software\uCOS-III\Source\os_tmr.c **** *
 206:C:\Micrium\Software\uCOS-III\Source\os_tmr.c **** * Returns    : DEF_TRUE   if the timer was deleted
 207:C:\Micrium\Software\uCOS-III\Source\os_tmr.c **** *              DEF_FALSE  if not or upon an error
 208:C:\Micrium\Software\uCOS-III\Source\os_tmr.c **** ***************************************************************************************************
 209:C:\Micrium\Software\uCOS-III\Source\os_tmr.c **** */
 210:C:\Micrium\Software\uCOS-III\Source\os_tmr.c **** 
 211:C:\Micrium\Software\uCOS-III\Source\os_tmr.c **** #if OS_CFG_TMR_DEL_EN > 0u
 212:C:\Micrium\Software\uCOS-III\Source\os_tmr.c **** CPU_BOOLEAN  OSTmrDel (OS_TMR  *p_tmr,
 213:C:\Micrium\Software\uCOS-III\Source\os_tmr.c ****                        OS_ERR  *p_err)
 214:C:\Micrium\Software\uCOS-III\Source\os_tmr.c **** {
 209              		.loc 1 214 0
 210              		.cfi_startproc
 211              		@ args = 0, pretend = 0, frame = 16
 212              		@ frame_needed = 1, uses_anonymous_args = 0
 213 0000 80B5     		push	{r7, lr}
 214              	.LCFI3:
 215              		.cfi_def_cfa_offset 8
 216 0002 84B0     		sub	sp, sp, #16
 217              	.LCFI4:
 218              		.cfi_def_cfa_offset 24
 219 0004 00AF     		add	r7, sp, #0
 220              		.cfi_offset 14, -4
 221              		.cfi_offset 7, -8
 222              	.LCFI5:
 223              		.cfi_def_cfa_register 7
 224 0006 7860     		str	r0, [r7, #4]
 225 0008 3960     		str	r1, [r7, #0]
 215:C:\Micrium\Software\uCOS-III\Source\os_tmr.c ****     OS_ERR       err;
 216:C:\Micrium\Software\uCOS-III\Source\os_tmr.c ****     CPU_BOOLEAN  success;
 217:C:\Micrium\Software\uCOS-III\Source\os_tmr.c **** 
 218:C:\Micrium\Software\uCOS-III\Source\os_tmr.c **** 
 219:C:\Micrium\Software\uCOS-III\Source\os_tmr.c **** 
 220:C:\Micrium\Software\uCOS-III\Source\os_tmr.c **** #ifdef OS_SAFETY_CRITICAL
 221:C:\Micrium\Software\uCOS-III\Source\os_tmr.c ****     if (p_err == (OS_ERR *)0) {
 222:C:\Micrium\Software\uCOS-III\Source\os_tmr.c ****         OS_SAFETY_CRITICAL_EXCEPTION();
 223:C:\Micrium\Software\uCOS-III\Source\os_tmr.c ****         return (DEF_FALSE);
 224:C:\Micrium\Software\uCOS-III\Source\os_tmr.c ****     }
 225:C:\Micrium\Software\uCOS-III\Source\os_tmr.c **** #endif
 226:C:\Micrium\Software\uCOS-III\Source\os_tmr.c **** 
 227:C:\Micrium\Software\uCOS-III\Source\os_tmr.c **** #if OS_CFG_CALLED_FROM_ISR_CHK_EN > 0u
ARM GAS  C:\Users\daniel01\AppData\Local\Temp\ccxoNE0f.s 			page 9


 228:C:\Micrium\Software\uCOS-III\Source\os_tmr.c ****     if (OSIntNestingCtr > (OS_NESTING_CTR)0) {              /* See if trying to call from an ISR   
 226              		.loc 1 228 0
 227 000a 40F20003 		movw	r3, #:lower16:OSIntNestingCtr
 228 000e C0F20003 		movt	r3, #:upper16:OSIntNestingCtr
 229 0012 1B78     		ldrb	r3, [r3, #0]	@ zero_extendqisi2
 230 0014 002B     		cmp	r3, #0
 231 0016 06D0     		beq	.L16
 229:C:\Micrium\Software\uCOS-III\Source\os_tmr.c ****        *p_err  = OS_ERR_TMR_ISR;
 232              		.loc 1 229 0
 233 0018 3B68     		ldr	r3, [r7, #0]
 234 001a 47F24332 		movw	r2, #29507
 235 001e 1A80     		strh	r2, [r3, #0]	@ movhi
 230:C:\Micrium\Software\uCOS-III\Source\os_tmr.c ****         return (DEF_FALSE);
 236              		.loc 1 230 0
 237 0020 4FF00003 		mov	r3, #0
 238 0024 6BE0     		b	.L17
 239              	.L16:
 231:C:\Micrium\Software\uCOS-III\Source\os_tmr.c ****     }
 232:C:\Micrium\Software\uCOS-III\Source\os_tmr.c **** #endif
 233:C:\Micrium\Software\uCOS-III\Source\os_tmr.c **** 
 234:C:\Micrium\Software\uCOS-III\Source\os_tmr.c **** #if OS_CFG_ARG_CHK_EN > 0u
 235:C:\Micrium\Software\uCOS-III\Source\os_tmr.c ****     if (p_tmr == (OS_TMR *)0) {
 240              		.loc 1 235 0
 241 0026 7B68     		ldr	r3, [r7, #4]
 242 0028 002B     		cmp	r3, #0
 243 002a 06D1     		bne	.L18
 236:C:\Micrium\Software\uCOS-III\Source\os_tmr.c ****        *p_err = OS_ERR_TMR_INVALID;
 244              		.loc 1 236 0
 245 002c 3B68     		ldr	r3, [r7, #0]
 246 002e 47F24232 		movw	r2, #29506
 247 0032 1A80     		strh	r2, [r3, #0]	@ movhi
 237:C:\Micrium\Software\uCOS-III\Source\os_tmr.c ****         return (DEF_FALSE);
 248              		.loc 1 237 0
 249 0034 4FF00003 		mov	r3, #0
 250 0038 61E0     		b	.L17
 251              	.L18:
 238:C:\Micrium\Software\uCOS-III\Source\os_tmr.c ****     }
 239:C:\Micrium\Software\uCOS-III\Source\os_tmr.c **** #endif
 240:C:\Micrium\Software\uCOS-III\Source\os_tmr.c **** 
 241:C:\Micrium\Software\uCOS-III\Source\os_tmr.c **** #if OS_CFG_OBJ_TYPE_CHK_EN > 0u
 242:C:\Micrium\Software\uCOS-III\Source\os_tmr.c ****     if (p_tmr->Type != OS_OBJ_TYPE_TMR) {                   /* Make sure timer was created         
 243:C:\Micrium\Software\uCOS-III\Source\os_tmr.c ****        *p_err = OS_ERR_OBJ_TYPE;
 244:C:\Micrium\Software\uCOS-III\Source\os_tmr.c ****         return (DEF_FALSE);
 245:C:\Micrium\Software\uCOS-III\Source\os_tmr.c ****     }
 246:C:\Micrium\Software\uCOS-III\Source\os_tmr.c **** #endif
 247:C:\Micrium\Software\uCOS-III\Source\os_tmr.c **** 
 248:C:\Micrium\Software\uCOS-III\Source\os_tmr.c ****     OSSchedLock(&err);
 252              		.loc 1 248 0
 253 003a 07F10C03 		add	r3, r7, #12
 254 003e 1846     		mov	r0, r3
 255 0040 FFF7FEFF 		bl	OSSchedLock
 249:C:\Micrium\Software\uCOS-III\Source\os_tmr.c **** #if OS_CFG_DBG_EN > 0u
 250:C:\Micrium\Software\uCOS-III\Source\os_tmr.c ****     OS_TmrDbgListRemove(p_tmr);
 256              		.loc 1 250 0
 257 0044 7868     		ldr	r0, [r7, #4]
 258 0046 FFF7FEFF 		bl	OS_TmrDbgListRemove
 251:C:\Micrium\Software\uCOS-III\Source\os_tmr.c **** #endif
ARM GAS  C:\Users\daniel01\AppData\Local\Temp\ccxoNE0f.s 			page 10


 252:C:\Micrium\Software\uCOS-III\Source\os_tmr.c ****     OSTmrQty--;                                             /* One less timer                      
 259              		.loc 1 252 0
 260 004a 40F20003 		movw	r3, #:lower16:OSTmrQty
 261 004e C0F20003 		movt	r3, #:upper16:OSTmrQty
 262 0052 1B88     		ldrh	r3, [r3, #0]
 263 0054 03F1FF33 		add	r3, r3, #-1
 264 0058 9AB2     		uxth	r2, r3
 265 005a 40F20003 		movw	r3, #:lower16:OSTmrQty
 266 005e C0F20003 		movt	r3, #:upper16:OSTmrQty
 267 0062 1A80     		strh	r2, [r3, #0]	@ movhi
 253:C:\Micrium\Software\uCOS-III\Source\os_tmr.c **** 
 254:C:\Micrium\Software\uCOS-III\Source\os_tmr.c ****     switch (p_tmr->State) {
 268              		.loc 1 254 0
 269 0064 7B68     		ldr	r3, [r7, #4]
 270 0066 93F82A30 		ldrb	r3, [r3, #42]	@ zero_extendqisi2
 271 006a 032B     		cmp	r3, #3
 272 006c 3AD8     		bhi	.L19
 273 006e 01A2     		adr	r2, .L23
 274 0070 52F823F0 		ldr	pc, [r2, r3, lsl #2]
 275              		.align	2
 276              	.L23:
 277 0074 CB000000 		.word	.L20+1
 278 0078 AB000000 		.word	.L21+1
 279 007c 85000000 		.word	.L22+1
 280 0080 AB000000 		.word	.L21+1
 281              	.L22:
 255:C:\Micrium\Software\uCOS-III\Source\os_tmr.c ****         case OS_TMR_STATE_RUNNING:
 256:C:\Micrium\Software\uCOS-III\Source\os_tmr.c ****              OS_TmrUnlink(p_tmr);                           /* Remove from current wheel spoke     
 282              		.loc 1 256 0
 283 0084 7868     		ldr	r0, [r7, #4]
 284 0086 FFF7FEFF 		bl	OS_TmrUnlink
 257:C:\Micrium\Software\uCOS-III\Source\os_tmr.c ****              OS_TmrClr(p_tmr);
 285              		.loc 1 257 0
 286 008a 7868     		ldr	r0, [r7, #4]
 287 008c FFF7FEFF 		bl	OS_TmrClr
 258:C:\Micrium\Software\uCOS-III\Source\os_tmr.c ****              OSSchedUnlock(&err);
 288              		.loc 1 258 0
 289 0090 07F10C03 		add	r3, r7, #12
 290 0094 1846     		mov	r0, r3
 291 0096 FFF7FEFF 		bl	OSSchedUnlock
 259:C:\Micrium\Software\uCOS-III\Source\os_tmr.c ****             *p_err   = OS_ERR_NONE;
 292              		.loc 1 259 0
 293 009a 3B68     		ldr	r3, [r7, #0]
 294 009c 4FF00002 		mov	r2, #0
 295 00a0 1A80     		strh	r2, [r3, #0]	@ movhi
 260:C:\Micrium\Software\uCOS-III\Source\os_tmr.c ****              success = DEF_TRUE;
 296              		.loc 1 260 0
 297 00a2 4FF00103 		mov	r3, #1
 298 00a6 FB73     		strb	r3, [r7, #15]
 261:C:\Micrium\Software\uCOS-III\Source\os_tmr.c ****              break;
 299              		.loc 1 261 0
 300 00a8 28E0     		b	.L24
 301              	.L21:
 262:C:\Micrium\Software\uCOS-III\Source\os_tmr.c **** 
 263:C:\Micrium\Software\uCOS-III\Source\os_tmr.c ****         case OS_TMR_STATE_STOPPED:                          /* Timer has not started or ...        
 264:C:\Micrium\Software\uCOS-III\Source\os_tmr.c ****         case OS_TMR_STATE_COMPLETED:                        /* ... timer has completed the ONE-SHOT
 265:C:\Micrium\Software\uCOS-III\Source\os_tmr.c ****              OS_TmrClr(p_tmr);                              /* Clear timer fields                  
ARM GAS  C:\Users\daniel01\AppData\Local\Temp\ccxoNE0f.s 			page 11


 302              		.loc 1 265 0
 303 00aa 7868     		ldr	r0, [r7, #4]
 304 00ac FFF7FEFF 		bl	OS_TmrClr
 266:C:\Micrium\Software\uCOS-III\Source\os_tmr.c ****              OSSchedUnlock(&err);
 305              		.loc 1 266 0
 306 00b0 07F10C03 		add	r3, r7, #12
 307 00b4 1846     		mov	r0, r3
 308 00b6 FFF7FEFF 		bl	OSSchedUnlock
 267:C:\Micrium\Software\uCOS-III\Source\os_tmr.c ****             *p_err   = OS_ERR_NONE;
 309              		.loc 1 267 0
 310 00ba 3B68     		ldr	r3, [r7, #0]
 311 00bc 4FF00002 		mov	r2, #0
 312 00c0 1A80     		strh	r2, [r3, #0]	@ movhi
 268:C:\Micrium\Software\uCOS-III\Source\os_tmr.c ****              success = DEF_TRUE;
 313              		.loc 1 268 0
 314 00c2 4FF00103 		mov	r3, #1
 315 00c6 FB73     		strb	r3, [r7, #15]
 269:C:\Micrium\Software\uCOS-III\Source\os_tmr.c ****              break;
 316              		.loc 1 269 0
 317 00c8 18E0     		b	.L24
 318              	.L20:
 270:C:\Micrium\Software\uCOS-III\Source\os_tmr.c ****              
 271:C:\Micrium\Software\uCOS-III\Source\os_tmr.c ****         case OS_TMR_STATE_UNUSED:                           /* Already deleted                     
 272:C:\Micrium\Software\uCOS-III\Source\os_tmr.c ****              OSSchedUnlock(&err);
 319              		.loc 1 272 0
 320 00ca 07F10C03 		add	r3, r7, #12
 321 00ce 1846     		mov	r0, r3
 322 00d0 FFF7FEFF 		bl	OSSchedUnlock
 273:C:\Micrium\Software\uCOS-III\Source\os_tmr.c ****             *p_err   = OS_ERR_TMR_INACTIVE;
 323              		.loc 1 273 0
 324 00d4 3B68     		ldr	r3, [r7, #0]
 325 00d6 47F23D32 		movw	r2, #29501
 326 00da 1A80     		strh	r2, [r3, #0]	@ movhi
 274:C:\Micrium\Software\uCOS-III\Source\os_tmr.c ****              success = DEF_FALSE;
 327              		.loc 1 274 0
 328 00dc 4FF00003 		mov	r3, #0
 329 00e0 FB73     		strb	r3, [r7, #15]
 275:C:\Micrium\Software\uCOS-III\Source\os_tmr.c ****              break;
 330              		.loc 1 275 0
 331 00e2 0BE0     		b	.L24
 332              	.L19:
 276:C:\Micrium\Software\uCOS-III\Source\os_tmr.c **** 
 277:C:\Micrium\Software\uCOS-III\Source\os_tmr.c ****         default:
 278:C:\Micrium\Software\uCOS-III\Source\os_tmr.c ****              OSSchedUnlock(&err);
 333              		.loc 1 278 0
 334 00e4 07F10C03 		add	r3, r7, #12
 335 00e8 1846     		mov	r0, r3
 336 00ea FFF7FEFF 		bl	OSSchedUnlock
 279:C:\Micrium\Software\uCOS-III\Source\os_tmr.c ****             *p_err   = OS_ERR_TMR_INVALID_STATE;
 337              		.loc 1 279 0
 338 00ee 3B68     		ldr	r3, [r7, #0]
 339 00f0 47F24132 		movw	r2, #29505
 340 00f4 1A80     		strh	r2, [r3, #0]	@ movhi
 280:C:\Micrium\Software\uCOS-III\Source\os_tmr.c ****              success = DEF_FALSE;
 341              		.loc 1 280 0
 342 00f6 4FF00003 		mov	r3, #0
 343 00fa FB73     		strb	r3, [r7, #15]
ARM GAS  C:\Users\daniel01\AppData\Local\Temp\ccxoNE0f.s 			page 12


 344              	.L24:
 281:C:\Micrium\Software\uCOS-III\Source\os_tmr.c ****              break;
 282:C:\Micrium\Software\uCOS-III\Source\os_tmr.c ****     }
 283:C:\Micrium\Software\uCOS-III\Source\os_tmr.c ****     return (success);
 345              		.loc 1 283 0
 346 00fc FB7B     		ldrb	r3, [r7, #15]	@ zero_extendqisi2
 347              	.L17:
 284:C:\Micrium\Software\uCOS-III\Source\os_tmr.c **** }
 348              		.loc 1 284 0
 349 00fe 1846     		mov	r0, r3
 350 0100 07F11007 		add	r7, r7, #16
 351 0104 BD46     		mov	sp, r7
 352 0106 80BD     		pop	{r7, pc}
 353              		.cfi_endproc
 354              	.LFE1:
 355              		.size	OSTmrDel, .-OSTmrDel
 356              		.section	.text.OSTmrRemainGet,"ax",%progbits
 357              		.align	2
 358              		.global	OSTmrRemainGet
 359              		.thumb
 360              		.thumb_func
 361              		.type	OSTmrRemainGet, %function
 362              	OSTmrRemainGet:
 363              	.LFB2:
 285:C:\Micrium\Software\uCOS-III\Source\os_tmr.c **** #endif
 286:C:\Micrium\Software\uCOS-III\Source\os_tmr.c **** 
 287:C:\Micrium\Software\uCOS-III\Source\os_tmr.c **** /*$PAGE*/
 288:C:\Micrium\Software\uCOS-III\Source\os_tmr.c **** /*
 289:C:\Micrium\Software\uCOS-III\Source\os_tmr.c **** ***************************************************************************************************
 290:C:\Micrium\Software\uCOS-III\Source\os_tmr.c **** *                                    GET HOW MUCH TIME IS LEFT BEFORE A TIMER EXPIRES
 291:C:\Micrium\Software\uCOS-III\Source\os_tmr.c **** *
 292:C:\Micrium\Software\uCOS-III\Source\os_tmr.c **** * Description: This function is called to get the number of ticks before a timer times out.
 293:C:\Micrium\Software\uCOS-III\Source\os_tmr.c **** *
 294:C:\Micrium\Software\uCOS-III\Source\os_tmr.c **** * Arguments  : p_tmr    Is a pointer to the timer to obtain the remaining time from.
 295:C:\Micrium\Software\uCOS-III\Source\os_tmr.c **** *
 296:C:\Micrium\Software\uCOS-III\Source\os_tmr.c **** *              p_err    Is a pointer to an error code.  '*p_err' will contain one of the following:
 297:C:\Micrium\Software\uCOS-III\Source\os_tmr.c **** *
 298:C:\Micrium\Software\uCOS-III\Source\os_tmr.c **** *                           OS_ERR_NONE
 299:C:\Micrium\Software\uCOS-III\Source\os_tmr.c **** *                           OS_ERR_OBJ_TYPE           'p_tmr' is not pointing to a timer
 300:C:\Micrium\Software\uCOS-III\Source\os_tmr.c **** *                           OS_ERR_TMR_INVALID        'p_tmr' is a NULL pointer
 301:C:\Micrium\Software\uCOS-III\Source\os_tmr.c **** *                           OS_ERR_TMR_ISR            if the call was made from an ISR
 302:C:\Micrium\Software\uCOS-III\Source\os_tmr.c **** *                           OS_ERR_TMR_INACTIVE       'p_tmr' points to a timer that is not active
 303:C:\Micrium\Software\uCOS-III\Source\os_tmr.c **** *                           OS_ERR_TMR_INVALID_STATE  the timer is in an invalid state
 304:C:\Micrium\Software\uCOS-III\Source\os_tmr.c **** *
 305:C:\Micrium\Software\uCOS-III\Source\os_tmr.c **** * Returns    : The time remaining for the timer to expire.  The time represents 'timer' increments.
 306:C:\Micrium\Software\uCOS-III\Source\os_tmr.c **** *              OS_TmrTask() is signaled every 1/10 of a second then the returned value represents t
 307:C:\Micrium\Software\uCOS-III\Source\os_tmr.c **** *              a second remaining before the timer expires.
 308:C:\Micrium\Software\uCOS-III\Source\os_tmr.c **** ***************************************************************************************************
 309:C:\Micrium\Software\uCOS-III\Source\os_tmr.c **** */
 310:C:\Micrium\Software\uCOS-III\Source\os_tmr.c **** 
 311:C:\Micrium\Software\uCOS-III\Source\os_tmr.c **** OS_TICK  OSTmrRemainGet (OS_TMR  *p_tmr,
 312:C:\Micrium\Software\uCOS-III\Source\os_tmr.c ****                          OS_ERR  *p_err)
 313:C:\Micrium\Software\uCOS-III\Source\os_tmr.c **** {
 364              		.loc 1 313 0
 365              		.cfi_startproc
 366              		@ args = 0, pretend = 0, frame = 16
 367              		@ frame_needed = 1, uses_anonymous_args = 0
ARM GAS  C:\Users\daniel01\AppData\Local\Temp\ccxoNE0f.s 			page 13


 368 0000 80B5     		push	{r7, lr}
 369              	.LCFI6:
 370              		.cfi_def_cfa_offset 8
 371 0002 84B0     		sub	sp, sp, #16
 372              	.LCFI7:
 373              		.cfi_def_cfa_offset 24
 374 0004 00AF     		add	r7, sp, #0
 375              		.cfi_offset 14, -4
 376              		.cfi_offset 7, -8
 377              	.LCFI8:
 378              		.cfi_def_cfa_register 7
 379 0006 7860     		str	r0, [r7, #4]
 380 0008 3960     		str	r1, [r7, #0]
 314:C:\Micrium\Software\uCOS-III\Source\os_tmr.c ****     OS_TICK  remain;
 315:C:\Micrium\Software\uCOS-III\Source\os_tmr.c ****     OS_ERR   err;
 316:C:\Micrium\Software\uCOS-III\Source\os_tmr.c **** 
 317:C:\Micrium\Software\uCOS-III\Source\os_tmr.c **** 
 318:C:\Micrium\Software\uCOS-III\Source\os_tmr.c **** 
 319:C:\Micrium\Software\uCOS-III\Source\os_tmr.c **** #ifdef OS_SAFETY_CRITICAL
 320:C:\Micrium\Software\uCOS-III\Source\os_tmr.c ****     if (p_err == (OS_ERR *)0) {
 321:C:\Micrium\Software\uCOS-III\Source\os_tmr.c ****         OS_SAFETY_CRITICAL_EXCEPTION();
 322:C:\Micrium\Software\uCOS-III\Source\os_tmr.c ****         return ((OS_TICK)0);
 323:C:\Micrium\Software\uCOS-III\Source\os_tmr.c ****     }
 324:C:\Micrium\Software\uCOS-III\Source\os_tmr.c **** #endif
 325:C:\Micrium\Software\uCOS-III\Source\os_tmr.c **** 
 326:C:\Micrium\Software\uCOS-III\Source\os_tmr.c **** #if OS_CFG_CALLED_FROM_ISR_CHK_EN > 0u
 327:C:\Micrium\Software\uCOS-III\Source\os_tmr.c ****     if (OSIntNestingCtr > (OS_NESTING_CTR)0) {              /* See if trying to call from an ISR   
 381              		.loc 1 327 0
 382 000a 40F20003 		movw	r3, #:lower16:OSIntNestingCtr
 383 000e C0F20003 		movt	r3, #:upper16:OSIntNestingCtr
 384 0012 1B78     		ldrb	r3, [r3, #0]	@ zero_extendqisi2
 385 0014 002B     		cmp	r3, #0
 386 0016 06D0     		beq	.L27
 328:C:\Micrium\Software\uCOS-III\Source\os_tmr.c ****        *p_err = OS_ERR_TMR_ISR;
 387              		.loc 1 328 0
 388 0018 3B68     		ldr	r3, [r7, #0]
 389 001a 47F24332 		movw	r2, #29507
 390 001e 1A80     		strh	r2, [r3, #0]	@ movhi
 329:C:\Micrium\Software\uCOS-III\Source\os_tmr.c ****         return ((OS_TICK)0);
 391              		.loc 1 329 0
 392 0020 4FF00003 		mov	r3, #0
 393 0024 7CE0     		b	.L28
 394              	.L27:
 330:C:\Micrium\Software\uCOS-III\Source\os_tmr.c ****     }
 331:C:\Micrium\Software\uCOS-III\Source\os_tmr.c **** #endif
 332:C:\Micrium\Software\uCOS-III\Source\os_tmr.c **** 
 333:C:\Micrium\Software\uCOS-III\Source\os_tmr.c **** #if OS_CFG_ARG_CHK_EN > 0u
 334:C:\Micrium\Software\uCOS-III\Source\os_tmr.c ****     if (p_tmr == (OS_TMR *)0) {
 395              		.loc 1 334 0
 396 0026 7B68     		ldr	r3, [r7, #4]
 397 0028 002B     		cmp	r3, #0
 398 002a 06D1     		bne	.L29
 335:C:\Micrium\Software\uCOS-III\Source\os_tmr.c ****        *p_err = OS_ERR_TMR_INVALID;
 399              		.loc 1 335 0
 400 002c 3B68     		ldr	r3, [r7, #0]
 401 002e 47F24232 		movw	r2, #29506
 402 0032 1A80     		strh	r2, [r3, #0]	@ movhi
ARM GAS  C:\Users\daniel01\AppData\Local\Temp\ccxoNE0f.s 			page 14


 336:C:\Micrium\Software\uCOS-III\Source\os_tmr.c ****         return ((OS_TICK)0);
 403              		.loc 1 336 0
 404 0034 4FF00003 		mov	r3, #0
 405 0038 72E0     		b	.L28
 406              	.L29:
 337:C:\Micrium\Software\uCOS-III\Source\os_tmr.c ****     }
 338:C:\Micrium\Software\uCOS-III\Source\os_tmr.c **** #endif
 339:C:\Micrium\Software\uCOS-III\Source\os_tmr.c **** 
 340:C:\Micrium\Software\uCOS-III\Source\os_tmr.c **** #if OS_CFG_OBJ_TYPE_CHK_EN > 0u
 341:C:\Micrium\Software\uCOS-III\Source\os_tmr.c ****     if (p_tmr->Type != OS_OBJ_TYPE_TMR) {                   /* Make sure timer was created         
 342:C:\Micrium\Software\uCOS-III\Source\os_tmr.c ****        *p_err = OS_ERR_OBJ_TYPE;
 343:C:\Micrium\Software\uCOS-III\Source\os_tmr.c ****         return ((OS_TICK)0);
 344:C:\Micrium\Software\uCOS-III\Source\os_tmr.c ****     }
 345:C:\Micrium\Software\uCOS-III\Source\os_tmr.c **** #endif
 346:C:\Micrium\Software\uCOS-III\Source\os_tmr.c **** 
 347:C:\Micrium\Software\uCOS-III\Source\os_tmr.c ****     OSSchedLock(&err);
 407              		.loc 1 347 0
 408 003a 07F10A03 		add	r3, r7, #10
 409 003e 1846     		mov	r0, r3
 410 0040 FFF7FEFF 		bl	OSSchedLock
 348:C:\Micrium\Software\uCOS-III\Source\os_tmr.c ****     switch (p_tmr->State) {
 411              		.loc 1 348 0
 412 0044 7B68     		ldr	r3, [r7, #4]
 413 0046 93F82A30 		ldrb	r3, [r3, #42]	@ zero_extendqisi2
 414 004a 032B     		cmp	r3, #3
 415 004c 5BD8     		bhi	.L30
 416 004e 01A2     		adr	r2, .L35
 417 0050 52F823F0 		ldr	pc, [r2, r3, lsl #2]
 418              		.align	2
 419              	.L35:
 420 0054 ED000000 		.word	.L31+1
 421 0058 93000000 		.word	.L32+1
 422 005c 65000000 		.word	.L33+1
 423 0060 D3000000 		.word	.L34+1
 424              	.L33:
 349:C:\Micrium\Software\uCOS-III\Source\os_tmr.c ****         case OS_TMR_STATE_RUNNING:
 350:C:\Micrium\Software\uCOS-III\Source\os_tmr.c ****              remain        = p_tmr->Match                   /* Determine how much time is left to t
 425              		.loc 1 350 0
 426 0064 7B68     		ldr	r3, [r7, #4]
 427 0066 9A69     		ldr	r2, [r3, #24]
 428 0068 40F20003 		movw	r3, #:lower16:OSTmrTickCtr
 429 006c C0F20003 		movt	r3, #:upper16:OSTmrTickCtr
 430 0070 1B68     		ldr	r3, [r3, #0]
 431 0072 C3EB0203 		rsb	r3, r3, r2
 432 0076 FB60     		str	r3, [r7, #12]
 351:C:\Micrium\Software\uCOS-III\Source\os_tmr.c ****                            - OSTmrTickCtr;
 352:C:\Micrium\Software\uCOS-III\Source\os_tmr.c ****              p_tmr->Remain = remain;
 433              		.loc 1 352 0
 434 0078 7B68     		ldr	r3, [r7, #4]
 435 007a FA68     		ldr	r2, [r7, #12]
 436 007c DA61     		str	r2, [r3, #28]
 353:C:\Micrium\Software\uCOS-III\Source\os_tmr.c ****              OSSchedUnlock(&err);
 437              		.loc 1 353 0
 438 007e 07F10A03 		add	r3, r7, #10
 439 0082 1846     		mov	r0, r3
 440 0084 FFF7FEFF 		bl	OSSchedUnlock
 354:C:\Micrium\Software\uCOS-III\Source\os_tmr.c ****             *p_err         = OS_ERR_NONE;
ARM GAS  C:\Users\daniel01\AppData\Local\Temp\ccxoNE0f.s 			page 15


 441              		.loc 1 354 0
 442 0088 3B68     		ldr	r3, [r7, #0]
 443 008a 4FF00002 		mov	r2, #0
 444 008e 1A80     		strh	r2, [r3, #0]	@ movhi
 355:C:\Micrium\Software\uCOS-III\Source\os_tmr.c ****              break;
 445              		.loc 1 355 0
 446 0090 45E0     		b	.L36
 447              	.L32:
 356:C:\Micrium\Software\uCOS-III\Source\os_tmr.c **** 
 357:C:\Micrium\Software\uCOS-III\Source\os_tmr.c ****         case OS_TMR_STATE_STOPPED:                          /* It's assumed that the timer has not 
 358:C:\Micrium\Software\uCOS-III\Source\os_tmr.c ****              if (p_tmr->Opt == OS_OPT_TMR_PERIODIC) {
 448              		.loc 1 358 0
 449 0092 7B68     		ldr	r3, [r7, #4]
 450 0094 1B8D     		ldrh	r3, [r3, #40]
 451 0096 022B     		cmp	r3, #2
 452 0098 0BD1     		bne	.L37
 359:C:\Micrium\Software\uCOS-III\Source\os_tmr.c ****                  if (p_tmr->Dly == 0u) {
 453              		.loc 1 359 0
 454 009a 7B68     		ldr	r3, [r7, #4]
 455 009c 1B6A     		ldr	r3, [r3, #32]
 456 009e 002B     		cmp	r3, #0
 457 00a0 03D1     		bne	.L38
 360:C:\Micrium\Software\uCOS-III\Source\os_tmr.c ****                      remain = p_tmr->Period;
 458              		.loc 1 360 0
 459 00a2 7B68     		ldr	r3, [r7, #4]
 460 00a4 5B6A     		ldr	r3, [r3, #36]
 461 00a6 FB60     		str	r3, [r7, #12]
 361:C:\Micrium\Software\uCOS-III\Source\os_tmr.c ****                  } else {
 362:C:\Micrium\Software\uCOS-III\Source\os_tmr.c ****                      remain = p_tmr->Dly;
 462              		.loc 1 362 0
 463 00a8 06E0     		b	.L40
 464              	.L38:
 465 00aa 7B68     		ldr	r3, [r7, #4]
 466 00ac 1B6A     		ldr	r3, [r3, #32]
 467 00ae FB60     		str	r3, [r7, #12]
 468 00b0 02E0     		b	.L40
 469              	.L37:
 363:C:\Micrium\Software\uCOS-III\Source\os_tmr.c ****                  }
 364:C:\Micrium\Software\uCOS-III\Source\os_tmr.c ****              } else {
 365:C:\Micrium\Software\uCOS-III\Source\os_tmr.c ****                  remain = p_tmr->Dly;
 470              		.loc 1 365 0
 471 00b2 7B68     		ldr	r3, [r7, #4]
 472 00b4 1B6A     		ldr	r3, [r3, #32]
 473 00b6 FB60     		str	r3, [r7, #12]
 474              	.L40:
 366:C:\Micrium\Software\uCOS-III\Source\os_tmr.c ****              }
 367:C:\Micrium\Software\uCOS-III\Source\os_tmr.c ****              p_tmr->Remain = remain;
 475              		.loc 1 367 0
 476 00b8 7B68     		ldr	r3, [r7, #4]
 477 00ba FA68     		ldr	r2, [r7, #12]
 478 00bc DA61     		str	r2, [r3, #28]
 368:C:\Micrium\Software\uCOS-III\Source\os_tmr.c ****              OSSchedUnlock(&err);
 479              		.loc 1 368 0
 480 00be 07F10A03 		add	r3, r7, #10
 481 00c2 1846     		mov	r0, r3
 482 00c4 FFF7FEFF 		bl	OSSchedUnlock
 369:C:\Micrium\Software\uCOS-III\Source\os_tmr.c ****             *p_err         = OS_ERR_NONE;
ARM GAS  C:\Users\daniel01\AppData\Local\Temp\ccxoNE0f.s 			page 16


 483              		.loc 1 369 0
 484 00c8 3B68     		ldr	r3, [r7, #0]
 485 00ca 4FF00002 		mov	r2, #0
 486 00ce 1A80     		strh	r2, [r3, #0]	@ movhi
 370:C:\Micrium\Software\uCOS-III\Source\os_tmr.c ****              break;
 487              		.loc 1 370 0
 488 00d0 25E0     		b	.L36
 489              	.L34:
 371:C:\Micrium\Software\uCOS-III\Source\os_tmr.c **** 
 372:C:\Micrium\Software\uCOS-III\Source\os_tmr.c ****         case OS_TMR_STATE_COMPLETED:                        /* Only ONE-SHOT that timed out can be 
 373:C:\Micrium\Software\uCOS-III\Source\os_tmr.c ****              OSSchedUnlock(&err);
 490              		.loc 1 373 0
 491 00d2 07F10A03 		add	r3, r7, #10
 492 00d6 1846     		mov	r0, r3
 493 00d8 FFF7FEFF 		bl	OSSchedUnlock
 374:C:\Micrium\Software\uCOS-III\Source\os_tmr.c ****             *p_err  = OS_ERR_NONE;
 494              		.loc 1 374 0
 495 00dc 3B68     		ldr	r3, [r7, #0]
 496 00de 4FF00002 		mov	r2, #0
 497 00e2 1A80     		strh	r2, [r3, #0]	@ movhi
 375:C:\Micrium\Software\uCOS-III\Source\os_tmr.c ****              remain = (OS_TICK)0;
 498              		.loc 1 375 0
 499 00e4 4FF00003 		mov	r3, #0
 500 00e8 FB60     		str	r3, [r7, #12]
 376:C:\Micrium\Software\uCOS-III\Source\os_tmr.c ****              break;
 501              		.loc 1 376 0
 502 00ea 18E0     		b	.L36
 503              	.L31:
 377:C:\Micrium\Software\uCOS-III\Source\os_tmr.c **** 
 378:C:\Micrium\Software\uCOS-III\Source\os_tmr.c ****         case OS_TMR_STATE_UNUSED:
 379:C:\Micrium\Software\uCOS-III\Source\os_tmr.c ****              OSSchedUnlock(&err);
 504              		.loc 1 379 0
 505 00ec 07F10A03 		add	r3, r7, #10
 506 00f0 1846     		mov	r0, r3
 507 00f2 FFF7FEFF 		bl	OSSchedUnlock
 380:C:\Micrium\Software\uCOS-III\Source\os_tmr.c ****             *p_err  = OS_ERR_TMR_INACTIVE;
 508              		.loc 1 380 0
 509 00f6 3B68     		ldr	r3, [r7, #0]
 510 00f8 47F23D32 		movw	r2, #29501
 511 00fc 1A80     		strh	r2, [r3, #0]	@ movhi
 381:C:\Micrium\Software\uCOS-III\Source\os_tmr.c ****              remain = (OS_TICK)0;
 512              		.loc 1 381 0
 513 00fe 4FF00003 		mov	r3, #0
 514 0102 FB60     		str	r3, [r7, #12]
 382:C:\Micrium\Software\uCOS-III\Source\os_tmr.c ****              break;
 515              		.loc 1 382 0
 516 0104 0BE0     		b	.L36
 517              	.L30:
 383:C:\Micrium\Software\uCOS-III\Source\os_tmr.c **** 
 384:C:\Micrium\Software\uCOS-III\Source\os_tmr.c ****         default:
 385:C:\Micrium\Software\uCOS-III\Source\os_tmr.c ****              OSSchedUnlock(&err);
 518              		.loc 1 385 0
 519 0106 07F10A03 		add	r3, r7, #10
 520 010a 1846     		mov	r0, r3
 521 010c FFF7FEFF 		bl	OSSchedUnlock
 386:C:\Micrium\Software\uCOS-III\Source\os_tmr.c ****             *p_err = OS_ERR_TMR_INVALID_STATE;
 522              		.loc 1 386 0
ARM GAS  C:\Users\daniel01\AppData\Local\Temp\ccxoNE0f.s 			page 17


 523 0110 3B68     		ldr	r3, [r7, #0]
 524 0112 47F24132 		movw	r2, #29505
 525 0116 1A80     		strh	r2, [r3, #0]	@ movhi
 387:C:\Micrium\Software\uCOS-III\Source\os_tmr.c ****              remain = (OS_TICK)0;
 526              		.loc 1 387 0
 527 0118 4FF00003 		mov	r3, #0
 528 011c FB60     		str	r3, [r7, #12]
 529              	.L36:
 388:C:\Micrium\Software\uCOS-III\Source\os_tmr.c ****              break;
 389:C:\Micrium\Software\uCOS-III\Source\os_tmr.c ****     }
 390:C:\Micrium\Software\uCOS-III\Source\os_tmr.c ****     return (remain);
 530              		.loc 1 390 0
 531 011e FB68     		ldr	r3, [r7, #12]
 532              	.L28:
 391:C:\Micrium\Software\uCOS-III\Source\os_tmr.c **** }
 533              		.loc 1 391 0
 534 0120 1846     		mov	r0, r3
 535 0122 07F11007 		add	r7, r7, #16
 536 0126 BD46     		mov	sp, r7
 537 0128 80BD     		pop	{r7, pc}
 538              		.cfi_endproc
 539              	.LFE2:
 540              		.size	OSTmrRemainGet, .-OSTmrRemainGet
 541 012a 00BF     		.section	.text.OSTmrStart,"ax",%progbits
 542              		.align	2
 543              		.global	OSTmrStart
 544              		.thumb
 545              		.thumb_func
 546              		.type	OSTmrStart, %function
 547              	OSTmrStart:
 548              	.LFB3:
 392:C:\Micrium\Software\uCOS-III\Source\os_tmr.c **** 
 393:C:\Micrium\Software\uCOS-III\Source\os_tmr.c **** /*$PAGE*/
 394:C:\Micrium\Software\uCOS-III\Source\os_tmr.c **** /*
 395:C:\Micrium\Software\uCOS-III\Source\os_tmr.c **** ***************************************************************************************************
 396:C:\Micrium\Software\uCOS-III\Source\os_tmr.c **** *                                                   START A TIMER
 397:C:\Micrium\Software\uCOS-III\Source\os_tmr.c **** *
 398:C:\Micrium\Software\uCOS-III\Source\os_tmr.c **** * Description: This function is called by your application code to start a timer.
 399:C:\Micrium\Software\uCOS-III\Source\os_tmr.c **** *
 400:C:\Micrium\Software\uCOS-III\Source\os_tmr.c **** * Arguments  : p_tmr    Is a pointer to an OS_TMR
 401:C:\Micrium\Software\uCOS-III\Source\os_tmr.c **** *
 402:C:\Micrium\Software\uCOS-III\Source\os_tmr.c **** *              p_err    Is a pointer to an error code.  '*p_err' will contain one of the following:
 403:C:\Micrium\Software\uCOS-III\Source\os_tmr.c **** *
 404:C:\Micrium\Software\uCOS-III\Source\os_tmr.c **** *                           OS_ERR_NONE
 405:C:\Micrium\Software\uCOS-III\Source\os_tmr.c **** *                           OS_ERR_OBJ_TYPE            if 'p_tmr' is not pointing to a timer
 406:C:\Micrium\Software\uCOS-III\Source\os_tmr.c **** *                           OS_ERR_TMR_INVALID
 407:C:\Micrium\Software\uCOS-III\Source\os_tmr.c **** *                           OS_ERR_TMR_INACTIVE        if the timer was not created
 408:C:\Micrium\Software\uCOS-III\Source\os_tmr.c **** *                           OS_ERR_TMR_INVALID_STATE   the timer is in an invalid state
 409:C:\Micrium\Software\uCOS-III\Source\os_tmr.c **** *                           OS_ERR_TMR_ISR             if the call was made from an ISR
 410:C:\Micrium\Software\uCOS-III\Source\os_tmr.c **** *
 411:C:\Micrium\Software\uCOS-III\Source\os_tmr.c **** * Returns    : DEF_TRUE      is the timer was started
 412:C:\Micrium\Software\uCOS-III\Source\os_tmr.c **** *              DEF_FALSE     if not or upon an error
 413:C:\Micrium\Software\uCOS-III\Source\os_tmr.c **** *
 414:C:\Micrium\Software\uCOS-III\Source\os_tmr.c **** * Note(s)    : 1) When starting/restarting a timer, regardless if it is in PERIODIC or ONE-SHOT mod
 415:C:\Micrium\Software\uCOS-III\Source\os_tmr.c **** *                 linked to the timer wheel with the OS_OPT_LINK_DLY option. This option sets the i
 416:C:\Micrium\Software\uCOS-III\Source\os_tmr.c **** *                 time for the timer. For timers in PERIODIC mode, subsequent expiration times are 
 417:C:\Micrium\Software\uCOS-III\Source\os_tmr.c **** *                 the OS_TmrTask().
ARM GAS  C:\Users\daniel01\AppData\Local\Temp\ccxoNE0f.s 			page 18


 418:C:\Micrium\Software\uCOS-III\Source\os_tmr.c **** ***************************************************************************************************
 419:C:\Micrium\Software\uCOS-III\Source\os_tmr.c **** */
 420:C:\Micrium\Software\uCOS-III\Source\os_tmr.c **** 
 421:C:\Micrium\Software\uCOS-III\Source\os_tmr.c **** CPU_BOOLEAN  OSTmrStart (OS_TMR  *p_tmr,
 422:C:\Micrium\Software\uCOS-III\Source\os_tmr.c ****                          OS_ERR  *p_err)
 423:C:\Micrium\Software\uCOS-III\Source\os_tmr.c **** {
 549              		.loc 1 423 0
 550              		.cfi_startproc
 551              		@ args = 0, pretend = 0, frame = 16
 552              		@ frame_needed = 1, uses_anonymous_args = 0
 553 0000 80B5     		push	{r7, lr}
 554              	.LCFI9:
 555              		.cfi_def_cfa_offset 8
 556 0002 84B0     		sub	sp, sp, #16
 557              	.LCFI10:
 558              		.cfi_def_cfa_offset 24
 559 0004 00AF     		add	r7, sp, #0
 560              		.cfi_offset 14, -4
 561              		.cfi_offset 7, -8
 562              	.LCFI11:
 563              		.cfi_def_cfa_register 7
 564 0006 7860     		str	r0, [r7, #4]
 565 0008 3960     		str	r1, [r7, #0]
 424:C:\Micrium\Software\uCOS-III\Source\os_tmr.c ****     OS_ERR       err;
 425:C:\Micrium\Software\uCOS-III\Source\os_tmr.c ****     CPU_BOOLEAN  success;
 426:C:\Micrium\Software\uCOS-III\Source\os_tmr.c **** 
 427:C:\Micrium\Software\uCOS-III\Source\os_tmr.c **** 
 428:C:\Micrium\Software\uCOS-III\Source\os_tmr.c **** 
 429:C:\Micrium\Software\uCOS-III\Source\os_tmr.c **** #ifdef OS_SAFETY_CRITICAL
 430:C:\Micrium\Software\uCOS-III\Source\os_tmr.c ****     if (p_err == (OS_ERR *)0) {
 431:C:\Micrium\Software\uCOS-III\Source\os_tmr.c ****         OS_SAFETY_CRITICAL_EXCEPTION();
 432:C:\Micrium\Software\uCOS-III\Source\os_tmr.c ****         return (DEF_FALSE);
 433:C:\Micrium\Software\uCOS-III\Source\os_tmr.c ****     }
 434:C:\Micrium\Software\uCOS-III\Source\os_tmr.c **** #endif
 435:C:\Micrium\Software\uCOS-III\Source\os_tmr.c **** 
 436:C:\Micrium\Software\uCOS-III\Source\os_tmr.c **** #if OS_CFG_CALLED_FROM_ISR_CHK_EN > 0u
 437:C:\Micrium\Software\uCOS-III\Source\os_tmr.c ****     if (OSIntNestingCtr > (OS_NESTING_CTR)0) {              /* See if trying to call from an ISR   
 566              		.loc 1 437 0
 567 000a 40F20003 		movw	r3, #:lower16:OSIntNestingCtr
 568 000e C0F20003 		movt	r3, #:upper16:OSIntNestingCtr
 569 0012 1B78     		ldrb	r3, [r3, #0]	@ zero_extendqisi2
 570 0014 002B     		cmp	r3, #0
 571 0016 06D0     		beq	.L43
 438:C:\Micrium\Software\uCOS-III\Source\os_tmr.c ****        *p_err = OS_ERR_TMR_ISR;
 572              		.loc 1 438 0
 573 0018 3B68     		ldr	r3, [r7, #0]
 574 001a 47F24332 		movw	r2, #29507
 575 001e 1A80     		strh	r2, [r3, #0]	@ movhi
 439:C:\Micrium\Software\uCOS-III\Source\os_tmr.c ****         return (DEF_FALSE);
 576              		.loc 1 439 0
 577 0020 4FF00003 		mov	r3, #0
 578 0024 5FE0     		b	.L44
 579              	.L43:
 440:C:\Micrium\Software\uCOS-III\Source\os_tmr.c ****     }
 441:C:\Micrium\Software\uCOS-III\Source\os_tmr.c **** #endif
 442:C:\Micrium\Software\uCOS-III\Source\os_tmr.c **** 
 443:C:\Micrium\Software\uCOS-III\Source\os_tmr.c **** #if OS_CFG_ARG_CHK_EN > 0u
ARM GAS  C:\Users\daniel01\AppData\Local\Temp\ccxoNE0f.s 			page 19


 444:C:\Micrium\Software\uCOS-III\Source\os_tmr.c ****     if (p_tmr == (OS_TMR *)0) {
 580              		.loc 1 444 0
 581 0026 7B68     		ldr	r3, [r7, #4]
 582 0028 002B     		cmp	r3, #0
 583 002a 06D1     		bne	.L45
 445:C:\Micrium\Software\uCOS-III\Source\os_tmr.c ****        *p_err = OS_ERR_TMR_INVALID;
 584              		.loc 1 445 0
 585 002c 3B68     		ldr	r3, [r7, #0]
 586 002e 47F24232 		movw	r2, #29506
 587 0032 1A80     		strh	r2, [r3, #0]	@ movhi
 446:C:\Micrium\Software\uCOS-III\Source\os_tmr.c ****         return (DEF_FALSE);
 588              		.loc 1 446 0
 589 0034 4FF00003 		mov	r3, #0
 590 0038 55E0     		b	.L44
 591              	.L45:
 447:C:\Micrium\Software\uCOS-III\Source\os_tmr.c ****     }
 448:C:\Micrium\Software\uCOS-III\Source\os_tmr.c **** #endif
 449:C:\Micrium\Software\uCOS-III\Source\os_tmr.c **** 
 450:C:\Micrium\Software\uCOS-III\Source\os_tmr.c **** #if OS_CFG_OBJ_TYPE_CHK_EN > 0u
 451:C:\Micrium\Software\uCOS-III\Source\os_tmr.c ****     if (p_tmr->Type != OS_OBJ_TYPE_TMR) {                   /* Make sure timer was created         
 452:C:\Micrium\Software\uCOS-III\Source\os_tmr.c ****        *p_err = OS_ERR_OBJ_TYPE;
 453:C:\Micrium\Software\uCOS-III\Source\os_tmr.c ****         return (DEF_FALSE);
 454:C:\Micrium\Software\uCOS-III\Source\os_tmr.c ****     }
 455:C:\Micrium\Software\uCOS-III\Source\os_tmr.c **** #endif
 456:C:\Micrium\Software\uCOS-III\Source\os_tmr.c **** 
 457:C:\Micrium\Software\uCOS-III\Source\os_tmr.c ****     OSSchedLock(&err);
 592              		.loc 1 457 0
 593 003a 07F10C03 		add	r3, r7, #12
 594 003e 1846     		mov	r0, r3
 595 0040 FFF7FEFF 		bl	OSSchedLock
 458:C:\Micrium\Software\uCOS-III\Source\os_tmr.c ****     switch (p_tmr->State) {
 596              		.loc 1 458 0
 597 0044 7B68     		ldr	r3, [r7, #4]
 598 0046 93F82A30 		ldrb	r3, [r3, #42]	@ zero_extendqisi2
 599 004a 032B     		cmp	r3, #3
 600 004c 3ED8     		bhi	.L46
 601 004e 01A2     		adr	r2, .L50
 602 0050 52F823F0 		ldr	pc, [r2, r3, lsl #2]
 603              		.align	2
 604              	.L50:
 605 0054 B3000000 		.word	.L47+1
 606 0058 8F000000 		.word	.L48+1
 607 005c 65000000 		.word	.L49+1
 608 0060 8F000000 		.word	.L48+1
 609              	.L49:
 459:C:\Micrium\Software\uCOS-III\Source\os_tmr.c ****         case OS_TMR_STATE_RUNNING:                          /* Restart the timer                   
 460:C:\Micrium\Software\uCOS-III\Source\os_tmr.c ****              OS_TmrUnlink(p_tmr);                           /* ... Stop the timer                  
 610              		.loc 1 460 0
 611 0064 7868     		ldr	r0, [r7, #4]
 612 0066 FFF7FEFF 		bl	OS_TmrUnlink
 461:C:\Micrium\Software\uCOS-III\Source\os_tmr.c ****              OS_TmrLink(p_tmr, OS_OPT_LINK_DLY);            /* ... Link timer to timer wheel (see N
 613              		.loc 1 461 0
 614 006a 7868     		ldr	r0, [r7, #4]
 615 006c 4FF00001 		mov	r1, #0
 616 0070 FFF7FEFF 		bl	OS_TmrLink
 462:C:\Micrium\Software\uCOS-III\Source\os_tmr.c ****              OSSchedUnlock(&err);
 617              		.loc 1 462 0
ARM GAS  C:\Users\daniel01\AppData\Local\Temp\ccxoNE0f.s 			page 20


 618 0074 07F10C03 		add	r3, r7, #12
 619 0078 1846     		mov	r0, r3
 620 007a FFF7FEFF 		bl	OSSchedUnlock
 463:C:\Micrium\Software\uCOS-III\Source\os_tmr.c ****             *p_err   = OS_ERR_NONE;
 621              		.loc 1 463 0
 622 007e 3B68     		ldr	r3, [r7, #0]
 623 0080 4FF00002 		mov	r2, #0
 624 0084 1A80     		strh	r2, [r3, #0]	@ movhi
 464:C:\Micrium\Software\uCOS-III\Source\os_tmr.c ****              success = DEF_TRUE;
 625              		.loc 1 464 0
 626 0086 4FF00103 		mov	r3, #1
 627 008a FB73     		strb	r3, [r7, #15]
 465:C:\Micrium\Software\uCOS-III\Source\os_tmr.c ****              break;
 628              		.loc 1 465 0
 629 008c 2AE0     		b	.L51
 630              	.L48:
 466:C:\Micrium\Software\uCOS-III\Source\os_tmr.c **** 
 467:C:\Micrium\Software\uCOS-III\Source\os_tmr.c ****         case OS_TMR_STATE_STOPPED:                          /* Start the timer                     
 468:C:\Micrium\Software\uCOS-III\Source\os_tmr.c ****         case OS_TMR_STATE_COMPLETED:
 469:C:\Micrium\Software\uCOS-III\Source\os_tmr.c ****              OS_TmrLink(p_tmr, OS_OPT_LINK_DLY);            /* ... Link timer to timer wheel (see N
 631              		.loc 1 469 0
 632 008e 7868     		ldr	r0, [r7, #4]
 633 0090 4FF00001 		mov	r1, #0
 634 0094 FFF7FEFF 		bl	OS_TmrLink
 470:C:\Micrium\Software\uCOS-III\Source\os_tmr.c ****              OSSchedUnlock(&err);
 635              		.loc 1 470 0
 636 0098 07F10C03 		add	r3, r7, #12
 637 009c 1846     		mov	r0, r3
 638 009e FFF7FEFF 		bl	OSSchedUnlock
 471:C:\Micrium\Software\uCOS-III\Source\os_tmr.c ****             *p_err   = OS_ERR_NONE;
 639              		.loc 1 471 0
 640 00a2 3B68     		ldr	r3, [r7, #0]
 641 00a4 4FF00002 		mov	r2, #0
 642 00a8 1A80     		strh	r2, [r3, #0]	@ movhi
 472:C:\Micrium\Software\uCOS-III\Source\os_tmr.c ****              success = DEF_TRUE;
 643              		.loc 1 472 0
 644 00aa 4FF00103 		mov	r3, #1
 645 00ae FB73     		strb	r3, [r7, #15]
 473:C:\Micrium\Software\uCOS-III\Source\os_tmr.c ****              break;
 646              		.loc 1 473 0
 647 00b0 18E0     		b	.L51
 648              	.L47:
 474:C:\Micrium\Software\uCOS-III\Source\os_tmr.c **** 
 475:C:\Micrium\Software\uCOS-III\Source\os_tmr.c ****         case OS_TMR_STATE_UNUSED:                           /* Timer not created                   
 476:C:\Micrium\Software\uCOS-III\Source\os_tmr.c ****              OSSchedUnlock(&err);
 649              		.loc 1 476 0
 650 00b2 07F10C03 		add	r3, r7, #12
 651 00b6 1846     		mov	r0, r3
 652 00b8 FFF7FEFF 		bl	OSSchedUnlock
 477:C:\Micrium\Software\uCOS-III\Source\os_tmr.c ****             *p_err   = OS_ERR_TMR_INACTIVE;
 653              		.loc 1 477 0
 654 00bc 3B68     		ldr	r3, [r7, #0]
 655 00be 47F23D32 		movw	r2, #29501
 656 00c2 1A80     		strh	r2, [r3, #0]	@ movhi
 478:C:\Micrium\Software\uCOS-III\Source\os_tmr.c ****              success = DEF_FALSE;
 657              		.loc 1 478 0
 658 00c4 4FF00003 		mov	r3, #0
ARM GAS  C:\Users\daniel01\AppData\Local\Temp\ccxoNE0f.s 			page 21


 659 00c8 FB73     		strb	r3, [r7, #15]
 479:C:\Micrium\Software\uCOS-III\Source\os_tmr.c ****              break;
 660              		.loc 1 479 0
 661 00ca 0BE0     		b	.L51
 662              	.L46:
 480:C:\Micrium\Software\uCOS-III\Source\os_tmr.c **** 
 481:C:\Micrium\Software\uCOS-III\Source\os_tmr.c ****         default:
 482:C:\Micrium\Software\uCOS-III\Source\os_tmr.c ****              OSSchedUnlock(&err);
 663              		.loc 1 482 0
 664 00cc 07F10C03 		add	r3, r7, #12
 665 00d0 1846     		mov	r0, r3
 666 00d2 FFF7FEFF 		bl	OSSchedUnlock
 483:C:\Micrium\Software\uCOS-III\Source\os_tmr.c ****             *p_err = OS_ERR_TMR_INVALID_STATE;
 667              		.loc 1 483 0
 668 00d6 3B68     		ldr	r3, [r7, #0]
 669 00d8 47F24132 		movw	r2, #29505
 670 00dc 1A80     		strh	r2, [r3, #0]	@ movhi
 484:C:\Micrium\Software\uCOS-III\Source\os_tmr.c ****              success = DEF_FALSE;
 671              		.loc 1 484 0
 672 00de 4FF00003 		mov	r3, #0
 673 00e2 FB73     		strb	r3, [r7, #15]
 674              	.L51:
 485:C:\Micrium\Software\uCOS-III\Source\os_tmr.c ****              break;
 486:C:\Micrium\Software\uCOS-III\Source\os_tmr.c ****     }
 487:C:\Micrium\Software\uCOS-III\Source\os_tmr.c ****     return (success);
 675              		.loc 1 487 0
 676 00e4 FB7B     		ldrb	r3, [r7, #15]	@ zero_extendqisi2
 677              	.L44:
 488:C:\Micrium\Software\uCOS-III\Source\os_tmr.c **** }
 678              		.loc 1 488 0
 679 00e6 1846     		mov	r0, r3
 680 00e8 07F11007 		add	r7, r7, #16
 681 00ec BD46     		mov	sp, r7
 682 00ee 80BD     		pop	{r7, pc}
 683              		.cfi_endproc
 684              	.LFE3:
 685              		.size	OSTmrStart, .-OSTmrStart
 686              		.section	.text.OSTmrStateGet,"ax",%progbits
 687              		.align	2
 688              		.global	OSTmrStateGet
 689              		.thumb
 690              		.thumb_func
 691              		.type	OSTmrStateGet, %function
 692              	OSTmrStateGet:
 693              	.LFB4:
 489:C:\Micrium\Software\uCOS-III\Source\os_tmr.c **** 
 490:C:\Micrium\Software\uCOS-III\Source\os_tmr.c **** /*$PAGE*/
 491:C:\Micrium\Software\uCOS-III\Source\os_tmr.c **** /*
 492:C:\Micrium\Software\uCOS-III\Source\os_tmr.c **** ***************************************************************************************************
 493:C:\Micrium\Software\uCOS-III\Source\os_tmr.c **** *                                           FIND OUT WHAT STATE A TIMER IS IN
 494:C:\Micrium\Software\uCOS-III\Source\os_tmr.c **** *
 495:C:\Micrium\Software\uCOS-III\Source\os_tmr.c **** * Description: This function is called to determine what state the timer is in:
 496:C:\Micrium\Software\uCOS-III\Source\os_tmr.c **** *
 497:C:\Micrium\Software\uCOS-III\Source\os_tmr.c **** *                  OS_TMR_STATE_UNUSED     the timer has not been created
 498:C:\Micrium\Software\uCOS-III\Source\os_tmr.c **** *                  OS_TMR_STATE_STOPPED    the timer has been created but has not been started or h
 499:C:\Micrium\Software\uCOS-III\Source\os_tmr.c **** *                  OS_TMR_COMPLETED        the timer is in ONE-SHOT mode and has completed it's tim
 500:C:\Micrium\Software\uCOS-III\Source\os_tmr.c **** *                  OS_TMR_RUNNING          the timer is currently running
ARM GAS  C:\Users\daniel01\AppData\Local\Temp\ccxoNE0f.s 			page 22


 501:C:\Micrium\Software\uCOS-III\Source\os_tmr.c **** *
 502:C:\Micrium\Software\uCOS-III\Source\os_tmr.c **** * Arguments  : p_tmr    Is a pointer to the desired timer
 503:C:\Micrium\Software\uCOS-III\Source\os_tmr.c **** *
 504:C:\Micrium\Software\uCOS-III\Source\os_tmr.c **** *              p_err    Is a pointer to an error code.  '*p_err' will contain one of the following:
 505:C:\Micrium\Software\uCOS-III\Source\os_tmr.c **** *
 506:C:\Micrium\Software\uCOS-III\Source\os_tmr.c **** *                           OS_ERR_NONE
 507:C:\Micrium\Software\uCOS-III\Source\os_tmr.c **** *                           OS_ERR_OBJ_TYPE            if 'p_tmr' is not pointing to a timer
 508:C:\Micrium\Software\uCOS-III\Source\os_tmr.c **** *                           OS_ERR_TMR_INVALID        'p_tmr' is a NULL pointer
 509:C:\Micrium\Software\uCOS-III\Source\os_tmr.c **** *                           OS_ERR_TMR_INVALID_STATE  if the timer is not in a valid state
 510:C:\Micrium\Software\uCOS-III\Source\os_tmr.c **** *                           OS_ERR_TMR_ISR            if the call was made from an ISR
 511:C:\Micrium\Software\uCOS-III\Source\os_tmr.c **** *
 512:C:\Micrium\Software\uCOS-III\Source\os_tmr.c **** * Returns    : The current state of the timer (see description).
 513:C:\Micrium\Software\uCOS-III\Source\os_tmr.c **** ***************************************************************************************************
 514:C:\Micrium\Software\uCOS-III\Source\os_tmr.c **** */
 515:C:\Micrium\Software\uCOS-III\Source\os_tmr.c **** 
 516:C:\Micrium\Software\uCOS-III\Source\os_tmr.c **** OS_STATE  OSTmrStateGet (OS_TMR  *p_tmr,
 517:C:\Micrium\Software\uCOS-III\Source\os_tmr.c ****                          OS_ERR  *p_err)
 518:C:\Micrium\Software\uCOS-III\Source\os_tmr.c **** {
 694              		.loc 1 518 0
 695              		.cfi_startproc
 696              		@ args = 0, pretend = 0, frame = 16
 697              		@ frame_needed = 1, uses_anonymous_args = 0
 698 0000 80B5     		push	{r7, lr}
 699              	.LCFI12:
 700              		.cfi_def_cfa_offset 8
 701 0002 84B0     		sub	sp, sp, #16
 702              	.LCFI13:
 703              		.cfi_def_cfa_offset 24
 704 0004 00AF     		add	r7, sp, #0
 705              		.cfi_offset 14, -4
 706              		.cfi_offset 7, -8
 707              	.LCFI14:
 708              		.cfi_def_cfa_register 7
 709 0006 7860     		str	r0, [r7, #4]
 710 0008 3960     		str	r1, [r7, #0]
 519:C:\Micrium\Software\uCOS-III\Source\os_tmr.c ****     OS_STATE  state;
 520:C:\Micrium\Software\uCOS-III\Source\os_tmr.c ****     CPU_SR_ALLOC();
 711              		.loc 1 520 0
 712 000a 4FF00003 		mov	r3, #0
 713 000e FB60     		str	r3, [r7, #12]
 521:C:\Micrium\Software\uCOS-III\Source\os_tmr.c **** 
 522:C:\Micrium\Software\uCOS-III\Source\os_tmr.c **** 
 523:C:\Micrium\Software\uCOS-III\Source\os_tmr.c **** 
 524:C:\Micrium\Software\uCOS-III\Source\os_tmr.c **** #ifdef OS_SAFETY_CRITICAL
 525:C:\Micrium\Software\uCOS-III\Source\os_tmr.c ****     if (p_err == (OS_ERR *)0) {
 526:C:\Micrium\Software\uCOS-III\Source\os_tmr.c ****         OS_SAFETY_CRITICAL_EXCEPTION();
 527:C:\Micrium\Software\uCOS-III\Source\os_tmr.c ****         return (OS_TMR_STATE_UNUSED);
 528:C:\Micrium\Software\uCOS-III\Source\os_tmr.c ****     }
 529:C:\Micrium\Software\uCOS-III\Source\os_tmr.c **** #endif
 530:C:\Micrium\Software\uCOS-III\Source\os_tmr.c **** 
 531:C:\Micrium\Software\uCOS-III\Source\os_tmr.c **** #if OS_CFG_CALLED_FROM_ISR_CHK_EN > 0u
 532:C:\Micrium\Software\uCOS-III\Source\os_tmr.c ****     if (OSIntNestingCtr > (OS_NESTING_CTR)0) {              /* See if trying to call from an ISR   
 714              		.loc 1 532 0
 715 0010 40F20003 		movw	r3, #:lower16:OSIntNestingCtr
 716 0014 C0F20003 		movt	r3, #:upper16:OSIntNestingCtr
 717 0018 1B78     		ldrb	r3, [r3, #0]	@ zero_extendqisi2
 718 001a 002B     		cmp	r3, #0
ARM GAS  C:\Users\daniel01\AppData\Local\Temp\ccxoNE0f.s 			page 23


 719 001c 06D0     		beq	.L54
 533:C:\Micrium\Software\uCOS-III\Source\os_tmr.c ****        *p_err = OS_ERR_TMR_ISR;
 720              		.loc 1 533 0
 721 001e 3B68     		ldr	r3, [r7, #0]
 722 0020 47F24332 		movw	r2, #29507
 723 0024 1A80     		strh	r2, [r3, #0]	@ movhi
 534:C:\Micrium\Software\uCOS-III\Source\os_tmr.c ****         return (OS_TMR_STATE_UNUSED);
 724              		.loc 1 534 0
 725 0026 4FF00003 		mov	r3, #0
 726 002a 23E0     		b	.L55
 727              	.L54:
 535:C:\Micrium\Software\uCOS-III\Source\os_tmr.c ****     }
 536:C:\Micrium\Software\uCOS-III\Source\os_tmr.c **** #endif
 537:C:\Micrium\Software\uCOS-III\Source\os_tmr.c **** 
 538:C:\Micrium\Software\uCOS-III\Source\os_tmr.c **** #if OS_CFG_ARG_CHK_EN > 0u
 539:C:\Micrium\Software\uCOS-III\Source\os_tmr.c ****     if (p_tmr == (OS_TMR *)0) {
 728              		.loc 1 539 0
 729 002c 7B68     		ldr	r3, [r7, #4]
 730 002e 002B     		cmp	r3, #0
 731 0030 06D1     		bne	.L56
 540:C:\Micrium\Software\uCOS-III\Source\os_tmr.c ****        *p_err = OS_ERR_TMR_INVALID;
 732              		.loc 1 540 0
 733 0032 3B68     		ldr	r3, [r7, #0]
 734 0034 47F24232 		movw	r2, #29506
 735 0038 1A80     		strh	r2, [r3, #0]	@ movhi
 541:C:\Micrium\Software\uCOS-III\Source\os_tmr.c ****         return (OS_TMR_STATE_UNUSED);
 736              		.loc 1 541 0
 737 003a 4FF00003 		mov	r3, #0
 738 003e 19E0     		b	.L55
 739              	.L56:
 542:C:\Micrium\Software\uCOS-III\Source\os_tmr.c ****     }
 543:C:\Micrium\Software\uCOS-III\Source\os_tmr.c **** #endif
 544:C:\Micrium\Software\uCOS-III\Source\os_tmr.c **** 
 545:C:\Micrium\Software\uCOS-III\Source\os_tmr.c **** #if OS_CFG_OBJ_TYPE_CHK_EN > 0u
 546:C:\Micrium\Software\uCOS-III\Source\os_tmr.c ****     if (p_tmr->Type != OS_OBJ_TYPE_TMR) {                   /* Make sure timer was created         
 547:C:\Micrium\Software\uCOS-III\Source\os_tmr.c ****        *p_err = OS_ERR_OBJ_TYPE;
 548:C:\Micrium\Software\uCOS-III\Source\os_tmr.c ****         return (OS_TMR_STATE_UNUSED);
 549:C:\Micrium\Software\uCOS-III\Source\os_tmr.c ****     }
 550:C:\Micrium\Software\uCOS-III\Source\os_tmr.c **** #endif
 551:C:\Micrium\Software\uCOS-III\Source\os_tmr.c **** 
 552:C:\Micrium\Software\uCOS-III\Source\os_tmr.c ****     CPU_CRITICAL_ENTER();
 740              		.loc 1 552 0
 741 0040 FFF7FEFF 		bl	CPU_SR_Save
 742 0044 0346     		mov	r3, r0
 743 0046 FB60     		str	r3, [r7, #12]
 553:C:\Micrium\Software\uCOS-III\Source\os_tmr.c ****     state = p_tmr->State;
 744              		.loc 1 553 0
 745 0048 7B68     		ldr	r3, [r7, #4]
 746 004a 93F82A30 		ldrb	r3, [r3, #42]
 747 004e FB72     		strb	r3, [r7, #11]
 554:C:\Micrium\Software\uCOS-III\Source\os_tmr.c ****     switch (state) {
 748              		.loc 1 554 0
 749 0050 FB7A     		ldrb	r3, [r7, #11]	@ zero_extendqisi2
 750 0052 03F10003 		add	r3, r3, #0
 751 0056 032B     		cmp	r3, #3
 752 0058 04D8     		bhi	.L57
 555:C:\Micrium\Software\uCOS-III\Source\os_tmr.c ****         case OS_TMR_STATE_UNUSED:
ARM GAS  C:\Users\daniel01\AppData\Local\Temp\ccxoNE0f.s 			page 24


 556:C:\Micrium\Software\uCOS-III\Source\os_tmr.c ****         case OS_TMR_STATE_STOPPED:
 557:C:\Micrium\Software\uCOS-III\Source\os_tmr.c ****         case OS_TMR_STATE_COMPLETED:
 558:C:\Micrium\Software\uCOS-III\Source\os_tmr.c ****         case OS_TMR_STATE_RUNNING:
 559:C:\Micrium\Software\uCOS-III\Source\os_tmr.c ****             *p_err = OS_ERR_NONE;
 753              		.loc 1 559 0
 754 005a 3B68     		ldr	r3, [r7, #0]
 755 005c 4FF00002 		mov	r2, #0
 756 0060 1A80     		strh	r2, [r3, #0]	@ movhi
 560:C:\Micrium\Software\uCOS-III\Source\os_tmr.c ****              break;
 757              		.loc 1 560 0
 758 0062 03E0     		b	.L59
 759              	.L57:
 561:C:\Micrium\Software\uCOS-III\Source\os_tmr.c **** 
 562:C:\Micrium\Software\uCOS-III\Source\os_tmr.c ****         default:
 563:C:\Micrium\Software\uCOS-III\Source\os_tmr.c ****             *p_err = OS_ERR_TMR_INVALID_STATE;
 760              		.loc 1 563 0
 761 0064 3B68     		ldr	r3, [r7, #0]
 762 0066 47F24132 		movw	r2, #29505
 763 006a 1A80     		strh	r2, [r3, #0]	@ movhi
 764              	.L59:
 564:C:\Micrium\Software\uCOS-III\Source\os_tmr.c ****              break;
 565:C:\Micrium\Software\uCOS-III\Source\os_tmr.c ****     }
 566:C:\Micrium\Software\uCOS-III\Source\os_tmr.c ****     CPU_CRITICAL_EXIT();
 765              		.loc 1 566 0
 766 006c F868     		ldr	r0, [r7, #12]
 767 006e FFF7FEFF 		bl	CPU_SR_Restore
 567:C:\Micrium\Software\uCOS-III\Source\os_tmr.c ****     return (state);
 768              		.loc 1 567 0
 769 0072 FB7A     		ldrb	r3, [r7, #11]	@ zero_extendqisi2
 770              	.L55:
 568:C:\Micrium\Software\uCOS-III\Source\os_tmr.c **** }
 771              		.loc 1 568 0
 772 0074 1846     		mov	r0, r3
 773 0076 07F11007 		add	r7, r7, #16
 774 007a BD46     		mov	sp, r7
 775 007c 80BD     		pop	{r7, pc}
 776              		.cfi_endproc
 777              	.LFE4:
 778              		.size	OSTmrStateGet, .-OSTmrStateGet
 779 007e 00BF     		.section	.text.OSTmrStop,"ax",%progbits
 780              		.align	2
 781              		.global	OSTmrStop
 782              		.thumb
 783              		.thumb_func
 784              		.type	OSTmrStop, %function
 785              	OSTmrStop:
 786              	.LFB5:
 569:C:\Micrium\Software\uCOS-III\Source\os_tmr.c **** 
 570:C:\Micrium\Software\uCOS-III\Source\os_tmr.c **** /*$PAGE*/
 571:C:\Micrium\Software\uCOS-III\Source\os_tmr.c **** /*
 572:C:\Micrium\Software\uCOS-III\Source\os_tmr.c **** ***************************************************************************************************
 573:C:\Micrium\Software\uCOS-III\Source\os_tmr.c **** *                                                    STOP A TIMER
 574:C:\Micrium\Software\uCOS-III\Source\os_tmr.c **** *
 575:C:\Micrium\Software\uCOS-III\Source\os_tmr.c **** * Description: This function is called by your application code to stop a timer.
 576:C:\Micrium\Software\uCOS-III\Source\os_tmr.c **** *
 577:C:\Micrium\Software\uCOS-III\Source\os_tmr.c **** * Arguments  : p_tmr          Is a pointer to the timer to stop.
 578:C:\Micrium\Software\uCOS-III\Source\os_tmr.c **** *
ARM GAS  C:\Users\daniel01\AppData\Local\Temp\ccxoNE0f.s 			page 25


 579:C:\Micrium\Software\uCOS-III\Source\os_tmr.c **** *              opt           Allows you to specify an option to this functions which can be:
 580:C:\Micrium\Software\uCOS-III\Source\os_tmr.c **** *
 581:C:\Micrium\Software\uCOS-III\Source\os_tmr.c **** *                               OS_OPT_TMR_NONE            Do nothing special but stop the timer
 582:C:\Micrium\Software\uCOS-III\Source\os_tmr.c **** *                               OS_OPT_TMR_CALLBACK        Execute the callback function, pass it t
 583:C:\Micrium\Software\uCOS-III\Source\os_tmr.c **** *                                                          specified when the timer was created.
 584:C:\Micrium\Software\uCOS-III\Source\os_tmr.c **** *                               OS_OPT_TMR_CALLBACK_ARG    Execute the callback function, pass it t
 585:C:\Micrium\Software\uCOS-III\Source\os_tmr.c **** *                                                          specified in THIS function call
 586:C:\Micrium\Software\uCOS-III\Source\os_tmr.c **** *
 587:C:\Micrium\Software\uCOS-III\Source\os_tmr.c **** *              callback_arg  Is a pointer to a 'new' callback argument that can be passed to the ca
 588:C:\Micrium\Software\uCOS-III\Source\os_tmr.c **** *                               instead of the timer's callback argument.  In other words, use 'cal
 589:C:\Micrium\Software\uCOS-III\Source\os_tmr.c **** *                               THIS function INSTEAD of p_tmr->OSTmrCallbackArg
 590:C:\Micrium\Software\uCOS-III\Source\os_tmr.c **** *
 591:C:\Micrium\Software\uCOS-III\Source\os_tmr.c **** *              p_err          Is a pointer to an error code.  '*p_err' will contain one of the foll
 592:C:\Micrium\Software\uCOS-III\Source\os_tmr.c **** *                               OS_ERR_NONE
 593:C:\Micrium\Software\uCOS-III\Source\os_tmr.c **** *                               OS_ERR_OBJ_TYPE            if 'p_tmr' is not pointing to a timer
 594:C:\Micrium\Software\uCOS-III\Source\os_tmr.c **** *                               OS_ERR_OPT_INVALID         if you specified an invalid option for '
 595:C:\Micrium\Software\uCOS-III\Source\os_tmr.c **** *                               OS_ERR_TMR_INACTIVE        if the timer was not created
 596:C:\Micrium\Software\uCOS-III\Source\os_tmr.c **** *                               OS_ERR_TMR_INVALID         'p_tmr' is a NULL pointer
 597:C:\Micrium\Software\uCOS-III\Source\os_tmr.c **** *                               OS_ERR_TMR_INVALID_STATE   the timer is in an invalid state
 598:C:\Micrium\Software\uCOS-III\Source\os_tmr.c **** *                               OS_ERR_TMR_ISR             if the function was called from an ISR
 599:C:\Micrium\Software\uCOS-III\Source\os_tmr.c **** *                               OS_ERR_TMR_NO_CALLBACK     if the timer does not have a callback fu
 600:C:\Micrium\Software\uCOS-III\Source\os_tmr.c **** *                               OS_ERR_TMR_STOPPED         if the timer was already stopped
 601:C:\Micrium\Software\uCOS-III\Source\os_tmr.c **** *
 602:C:\Micrium\Software\uCOS-III\Source\os_tmr.c **** * Returns    : DEF_TRUE       If we stopped the timer (if the timer is already stopped, we also ret
 603:C:\Micrium\Software\uCOS-III\Source\os_tmr.c **** *              DEF_FALSE      If not
 604:C:\Micrium\Software\uCOS-III\Source\os_tmr.c **** ***************************************************************************************************
 605:C:\Micrium\Software\uCOS-III\Source\os_tmr.c **** */
 606:C:\Micrium\Software\uCOS-III\Source\os_tmr.c **** 
 607:C:\Micrium\Software\uCOS-III\Source\os_tmr.c **** CPU_BOOLEAN  OSTmrStop (OS_TMR  *p_tmr,
 608:C:\Micrium\Software\uCOS-III\Source\os_tmr.c ****                         OS_OPT   opt,
 609:C:\Micrium\Software\uCOS-III\Source\os_tmr.c ****                         void    *p_callback_arg,
 610:C:\Micrium\Software\uCOS-III\Source\os_tmr.c ****                         OS_ERR  *p_err)
 611:C:\Micrium\Software\uCOS-III\Source\os_tmr.c **** {
 787              		.loc 1 611 0
 788              		.cfi_startproc
 789              		@ args = 0, pretend = 0, frame = 32
 790              		@ frame_needed = 1, uses_anonymous_args = 0
 791 0000 80B5     		push	{r7, lr}
 792              	.LCFI15:
 793              		.cfi_def_cfa_offset 8
 794 0002 88B0     		sub	sp, sp, #32
 795              	.LCFI16:
 796              		.cfi_def_cfa_offset 40
 797 0004 00AF     		add	r7, sp, #0
 798              		.cfi_offset 14, -4
 799              		.cfi_offset 7, -8
 800              	.LCFI17:
 801              		.cfi_def_cfa_register 7
 802 0006 F860     		str	r0, [r7, #12]
 803 0008 7A60     		str	r2, [r7, #4]
 804 000a 3B60     		str	r3, [r7, #0]
 805 000c 0B46     		mov	r3, r1	@ movhi
 806 000e 7B81     		strh	r3, [r7, #10]	@ movhi
 612:C:\Micrium\Software\uCOS-III\Source\os_tmr.c ****     OS_TMR_CALLBACK_PTR  p_fnct;
 613:C:\Micrium\Software\uCOS-III\Source\os_tmr.c ****     OS_ERR               err;
 614:C:\Micrium\Software\uCOS-III\Source\os_tmr.c ****     CPU_BOOLEAN          success;
 615:C:\Micrium\Software\uCOS-III\Source\os_tmr.c **** 
ARM GAS  C:\Users\daniel01\AppData\Local\Temp\ccxoNE0f.s 			page 26


 616:C:\Micrium\Software\uCOS-III\Source\os_tmr.c **** 
 617:C:\Micrium\Software\uCOS-III\Source\os_tmr.c **** 
 618:C:\Micrium\Software\uCOS-III\Source\os_tmr.c **** #ifdef OS_SAFETY_CRITICAL
 619:C:\Micrium\Software\uCOS-III\Source\os_tmr.c ****     if (p_err == (OS_ERR *)0) {
 620:C:\Micrium\Software\uCOS-III\Source\os_tmr.c ****         OS_SAFETY_CRITICAL_EXCEPTION();
 621:C:\Micrium\Software\uCOS-III\Source\os_tmr.c ****         return (DEF_FALSE);
 622:C:\Micrium\Software\uCOS-III\Source\os_tmr.c ****     }
 623:C:\Micrium\Software\uCOS-III\Source\os_tmr.c **** #endif
 624:C:\Micrium\Software\uCOS-III\Source\os_tmr.c **** 
 625:C:\Micrium\Software\uCOS-III\Source\os_tmr.c **** #if OS_CFG_CALLED_FROM_ISR_CHK_EN > 0u
 626:C:\Micrium\Software\uCOS-III\Source\os_tmr.c ****     if (OSIntNestingCtr > (OS_NESTING_CTR)0) {                        /* See if trying to call from
 807              		.loc 1 626 0
 808 0010 40F20003 		movw	r3, #:lower16:OSIntNestingCtr
 809 0014 C0F20003 		movt	r3, #:upper16:OSIntNestingCtr
 810 0018 1B78     		ldrb	r3, [r3, #0]	@ zero_extendqisi2
 811 001a 002B     		cmp	r3, #0
 812 001c 06D0     		beq	.L62
 627:C:\Micrium\Software\uCOS-III\Source\os_tmr.c ****        *p_err = OS_ERR_TMR_ISR;
 813              		.loc 1 627 0
 814 001e 3B68     		ldr	r3, [r7, #0]
 815 0020 47F24332 		movw	r2, #29507
 816 0024 1A80     		strh	r2, [r3, #0]	@ movhi
 628:C:\Micrium\Software\uCOS-III\Source\os_tmr.c ****         return (DEF_FALSE);
 817              		.loc 1 628 0
 818 0026 4FF00003 		mov	r3, #0
 819 002a 8DE0     		b	.L63
 820              	.L62:
 629:C:\Micrium\Software\uCOS-III\Source\os_tmr.c ****     }
 630:C:\Micrium\Software\uCOS-III\Source\os_tmr.c **** #endif
 631:C:\Micrium\Software\uCOS-III\Source\os_tmr.c **** 
 632:C:\Micrium\Software\uCOS-III\Source\os_tmr.c **** #if OS_CFG_ARG_CHK_EN > 0u
 633:C:\Micrium\Software\uCOS-III\Source\os_tmr.c ****     if (p_tmr == (OS_TMR *)0) {
 821              		.loc 1 633 0
 822 002c FB68     		ldr	r3, [r7, #12]
 823 002e 002B     		cmp	r3, #0
 824 0030 06D1     		bne	.L64
 634:C:\Micrium\Software\uCOS-III\Source\os_tmr.c ****        *p_err = OS_ERR_TMR_INVALID;
 825              		.loc 1 634 0
 826 0032 3B68     		ldr	r3, [r7, #0]
 827 0034 47F24232 		movw	r2, #29506
 828 0038 1A80     		strh	r2, [r3, #0]	@ movhi
 635:C:\Micrium\Software\uCOS-III\Source\os_tmr.c ****         return (DEF_FALSE);
 829              		.loc 1 635 0
 830 003a 4FF00003 		mov	r3, #0
 831 003e 83E0     		b	.L63
 832              	.L64:
 636:C:\Micrium\Software\uCOS-III\Source\os_tmr.c ****     }
 637:C:\Micrium\Software\uCOS-III\Source\os_tmr.c **** #endif
 638:C:\Micrium\Software\uCOS-III\Source\os_tmr.c **** 
 639:C:\Micrium\Software\uCOS-III\Source\os_tmr.c **** #if OS_CFG_OBJ_TYPE_CHK_EN > 0u
 640:C:\Micrium\Software\uCOS-III\Source\os_tmr.c ****     if (p_tmr->Type != OS_OBJ_TYPE_TMR) {                             /* Make sure timer was create
 641:C:\Micrium\Software\uCOS-III\Source\os_tmr.c ****        *p_err = OS_ERR_OBJ_TYPE;
 642:C:\Micrium\Software\uCOS-III\Source\os_tmr.c ****         return (DEF_FALSE);
 643:C:\Micrium\Software\uCOS-III\Source\os_tmr.c ****     }
 644:C:\Micrium\Software\uCOS-III\Source\os_tmr.c **** #endif
 645:C:\Micrium\Software\uCOS-III\Source\os_tmr.c **** 
 646:C:\Micrium\Software\uCOS-III\Source\os_tmr.c ****     OSSchedLock(&err);
ARM GAS  C:\Users\daniel01\AppData\Local\Temp\ccxoNE0f.s 			page 27


 833              		.loc 1 646 0
 834 0040 07F11603 		add	r3, r7, #22
 835 0044 1846     		mov	r0, r3
 836 0046 FFF7FEFF 		bl	OSSchedLock
 647:C:\Micrium\Software\uCOS-III\Source\os_tmr.c ****     switch (p_tmr->State) {
 837              		.loc 1 647 0
 838 004a FB68     		ldr	r3, [r7, #12]
 839 004c 93F82A30 		ldrb	r3, [r3, #42]	@ zero_extendqisi2
 840 0050 032B     		cmp	r3, #3
 841 0052 6CD8     		bhi	.L65
 842 0054 01A2     		adr	r2, .L69
 843 0056 52F823F0 		ldr	pc, [r2, r3, lsl #2]
 844 005a 00BF     		.align	2
 845              	.L69:
 846 005c 15010000 		.word	.L66+1
 847 0060 FB000000 		.word	.L67+1
 848 0064 6D000000 		.word	.L68+1
 849 0068 FB000000 		.word	.L67+1
 850              	.L68:
 648:C:\Micrium\Software\uCOS-III\Source\os_tmr.c ****         case OS_TMR_STATE_RUNNING:
 649:C:\Micrium\Software\uCOS-III\Source\os_tmr.c ****              OS_TmrUnlink(p_tmr);                                     /* Remove from current wheel 
 851              		.loc 1 649 0
 852 006c F868     		ldr	r0, [r7, #12]
 853 006e FFF7FEFF 		bl	OS_TmrUnlink
 650:C:\Micrium\Software\uCOS-III\Source\os_tmr.c ****             *p_err = OS_ERR_NONE;
 854              		.loc 1 650 0
 855 0072 3B68     		ldr	r3, [r7, #0]
 856 0074 4FF00002 		mov	r2, #0
 857 0078 1A80     		strh	r2, [r3, #0]	@ movhi
 651:C:\Micrium\Software\uCOS-III\Source\os_tmr.c ****              switch (opt) {
 858              		.loc 1 651 0
 859 007a 7B89     		ldrh	r3, [r7, #10]
 860 007c 032B     		cmp	r3, #3
 861 007e 04D0     		beq	.L72
 862 0080 042B     		cmp	r3, #4
 863 0082 14D0     		beq	.L73
 864 0084 002B     		cmp	r3, #0
 865 0086 2ED0     		beq	.L82
 866 0088 21E0     		b	.L81
 867              	.L72:
 652:C:\Micrium\Software\uCOS-III\Source\os_tmr.c ****                  case OS_OPT_TMR_CALLBACK:
 653:C:\Micrium\Software\uCOS-III\Source\os_tmr.c ****                       p_fnct = p_tmr->CallbackPtr;                         /* Execute callback func
 868              		.loc 1 653 0
 869 008a FB68     		ldr	r3, [r7, #12]
 870 008c 9B68     		ldr	r3, [r3, #8]
 871 008e BB61     		str	r3, [r7, #24]
 654:C:\Micrium\Software\uCOS-III\Source\os_tmr.c ****                       if (p_fnct != (OS_TMR_CALLBACK_PTR)0) {              /* ... if available     
 872              		.loc 1 654 0
 873 0090 BB69     		ldr	r3, [r7, #24]
 874 0092 002B     		cmp	r3, #0
 875 0094 06D0     		beq	.L74
 655:C:\Micrium\Software\uCOS-III\Source\os_tmr.c ****                         (*p_fnct)((void *)p_tmr, p_tmr->CallbackPtrArg);   /* Use callback arg when
 876              		.loc 1 655 0
 877 0096 FB68     		ldr	r3, [r7, #12]
 878 0098 DA68     		ldr	r2, [r3, #12]
 879 009a BB69     		ldr	r3, [r7, #24]
 880 009c F868     		ldr	r0, [r7, #12]
ARM GAS  C:\Users\daniel01\AppData\Local\Temp\ccxoNE0f.s 			page 28


 881 009e 1146     		mov	r1, r2
 882 00a0 9847     		blx	r3
 656:C:\Micrium\Software\uCOS-III\Source\os_tmr.c ****                       } else {
 657:C:\Micrium\Software\uCOS-III\Source\os_tmr.c ****                          *p_err = OS_ERR_TMR_NO_CALLBACK;
 658:C:\Micrium\Software\uCOS-III\Source\os_tmr.c ****                       }
 659:C:\Micrium\Software\uCOS-III\Source\os_tmr.c ****                       break;
 883              		.loc 1 659 0
 884 00a2 21E0     		b	.L76
 885              	.L74:
 886              		.loc 1 657 0
 887 00a4 3B68     		ldr	r3, [r7, #0]
 888 00a6 47F24432 		movw	r2, #29508
 889 00aa 1A80     		strh	r2, [r3, #0]	@ movhi
 890              		.loc 1 659 0
 891 00ac 1CE0     		b	.L76
 892              	.L73:
 660:C:\Micrium\Software\uCOS-III\Source\os_tmr.c **** 
 661:C:\Micrium\Software\uCOS-III\Source\os_tmr.c ****                  case OS_OPT_TMR_CALLBACK_ARG:
 662:C:\Micrium\Software\uCOS-III\Source\os_tmr.c ****                       p_fnct = p_tmr->CallbackPtr;                    /* Execute callback function 
 893              		.loc 1 662 0
 894 00ae FB68     		ldr	r3, [r7, #12]
 895 00b0 9B68     		ldr	r3, [r3, #8]
 896 00b2 BB61     		str	r3, [r7, #24]
 663:C:\Micrium\Software\uCOS-III\Source\os_tmr.c ****                       if (p_fnct != (OS_TMR_CALLBACK_PTR)0) {
 897              		.loc 1 663 0
 898 00b4 BB69     		ldr	r3, [r7, #24]
 899 00b6 002B     		cmp	r3, #0
 900 00b8 04D0     		beq	.L77
 664:C:\Micrium\Software\uCOS-III\Source\os_tmr.c ****                         (*p_fnct)((void *)p_tmr, p_callback_arg);     /* .. using the 'callback_arg
 901              		.loc 1 664 0
 902 00ba BB69     		ldr	r3, [r7, #24]
 903 00bc F868     		ldr	r0, [r7, #12]
 904 00be 7968     		ldr	r1, [r7, #4]
 905 00c0 9847     		blx	r3
 665:C:\Micrium\Software\uCOS-III\Source\os_tmr.c ****                       } else {
 666:C:\Micrium\Software\uCOS-III\Source\os_tmr.c ****                          *p_err = OS_ERR_TMR_NO_CALLBACK;
 667:C:\Micrium\Software\uCOS-III\Source\os_tmr.c ****                       }
 668:C:\Micrium\Software\uCOS-III\Source\os_tmr.c ****                       break;
 906              		.loc 1 668 0
 907 00c2 11E0     		b	.L76
 908              	.L77:
 909              		.loc 1 666 0
 910 00c4 3B68     		ldr	r3, [r7, #0]
 911 00c6 47F24432 		movw	r2, #29508
 912 00ca 1A80     		strh	r2, [r3, #0]	@ movhi
 913              		.loc 1 668 0
 914 00cc 0CE0     		b	.L76
 915              	.L81:
 669:C:\Micrium\Software\uCOS-III\Source\os_tmr.c **** 
 670:C:\Micrium\Software\uCOS-III\Source\os_tmr.c ****                  case OS_OPT_TMR_NONE:
 671:C:\Micrium\Software\uCOS-III\Source\os_tmr.c ****                       break;
 672:C:\Micrium\Software\uCOS-III\Source\os_tmr.c **** 
 673:C:\Micrium\Software\uCOS-III\Source\os_tmr.c ****                  default:
 674:C:\Micrium\Software\uCOS-III\Source\os_tmr.c ****                      OSSchedUnlock(&err);
 916              		.loc 1 674 0
 917 00ce 07F11603 		add	r3, r7, #22
 918 00d2 1846     		mov	r0, r3
ARM GAS  C:\Users\daniel01\AppData\Local\Temp\ccxoNE0f.s 			page 29


 919 00d4 FFF7FEFF 		bl	OSSchedUnlock
 675:C:\Micrium\Software\uCOS-III\Source\os_tmr.c ****                     *p_err = OS_ERR_OPT_INVALID;
 920              		.loc 1 675 0
 921 00d8 3B68     		ldr	r3, [r7, #0]
 922 00da 45F62562 		movw	r2, #24101
 923 00de 1A80     		strh	r2, [r3, #0]	@ movhi
 676:C:\Micrium\Software\uCOS-III\Source\os_tmr.c ****                      return (DEF_FALSE);
 924              		.loc 1 676 0
 925 00e0 4FF00003 		mov	r3, #0
 926 00e4 30E0     		b	.L63
 927              	.L82:
 928              		.loc 1 671 0
 929 00e6 00BF     		nop
 930              	.L76:
 677:C:\Micrium\Software\uCOS-III\Source\os_tmr.c ****              }
 678:C:\Micrium\Software\uCOS-III\Source\os_tmr.c ****              OSSchedUnlock(&err);
 931              		.loc 1 678 0
 932 00e8 07F11603 		add	r3, r7, #22
 933 00ec 1846     		mov	r0, r3
 934 00ee FFF7FEFF 		bl	OSSchedUnlock
 679:C:\Micrium\Software\uCOS-III\Source\os_tmr.c ****              success = DEF_TRUE;
 935              		.loc 1 679 0
 936 00f2 4FF00103 		mov	r3, #1
 937 00f6 FB77     		strb	r3, [r7, #31]
 680:C:\Micrium\Software\uCOS-III\Source\os_tmr.c ****              break;
 938              		.loc 1 680 0
 939 00f8 25E0     		b	.L79
 940              	.L67:
 681:C:\Micrium\Software\uCOS-III\Source\os_tmr.c **** 
 682:C:\Micrium\Software\uCOS-III\Source\os_tmr.c ****         case OS_TMR_STATE_COMPLETED:                                  /* Timer has already complete
 683:C:\Micrium\Software\uCOS-III\Source\os_tmr.c ****         case OS_TMR_STATE_STOPPED:                                    /* ... timer has not started 
 684:C:\Micrium\Software\uCOS-III\Source\os_tmr.c ****              OSSchedUnlock(&err);
 941              		.loc 1 684 0
 942 00fa 07F11603 		add	r3, r7, #22
 943 00fe 1846     		mov	r0, r3
 944 0100 FFF7FEFF 		bl	OSSchedUnlock
 685:C:\Micrium\Software\uCOS-III\Source\os_tmr.c ****             *p_err   = OS_ERR_TMR_STOPPED;
 945              		.loc 1 685 0
 946 0104 3B68     		ldr	r3, [r7, #0]
 947 0106 47F24932 		movw	r2, #29513
 948 010a 1A80     		strh	r2, [r3, #0]	@ movhi
 686:C:\Micrium\Software\uCOS-III\Source\os_tmr.c ****              success = DEF_TRUE;
 949              		.loc 1 686 0
 950 010c 4FF00103 		mov	r3, #1
 951 0110 FB77     		strb	r3, [r7, #31]
 687:C:\Micrium\Software\uCOS-III\Source\os_tmr.c ****              break;
 952              		.loc 1 687 0
 953 0112 18E0     		b	.L79
 954              	.L66:
 688:C:\Micrium\Software\uCOS-III\Source\os_tmr.c **** 
 689:C:\Micrium\Software\uCOS-III\Source\os_tmr.c ****         case OS_TMR_STATE_UNUSED:                                     /* Timer was not created     
 690:C:\Micrium\Software\uCOS-III\Source\os_tmr.c ****              OSSchedUnlock(&err);
 955              		.loc 1 690 0
 956 0114 07F11603 		add	r3, r7, #22
 957 0118 1846     		mov	r0, r3
 958 011a FFF7FEFF 		bl	OSSchedUnlock
 691:C:\Micrium\Software\uCOS-III\Source\os_tmr.c ****             *p_err   = OS_ERR_TMR_INACTIVE;
ARM GAS  C:\Users\daniel01\AppData\Local\Temp\ccxoNE0f.s 			page 30


 959              		.loc 1 691 0
 960 011e 3B68     		ldr	r3, [r7, #0]
 961 0120 47F23D32 		movw	r2, #29501
 962 0124 1A80     		strh	r2, [r3, #0]	@ movhi
 692:C:\Micrium\Software\uCOS-III\Source\os_tmr.c ****              success = DEF_FALSE;
 963              		.loc 1 692 0
 964 0126 4FF00003 		mov	r3, #0
 965 012a FB77     		strb	r3, [r7, #31]
 693:C:\Micrium\Software\uCOS-III\Source\os_tmr.c ****              break;
 966              		.loc 1 693 0
 967 012c 0BE0     		b	.L79
 968              	.L65:
 694:C:\Micrium\Software\uCOS-III\Source\os_tmr.c **** 
 695:C:\Micrium\Software\uCOS-III\Source\os_tmr.c ****         default:
 696:C:\Micrium\Software\uCOS-III\Source\os_tmr.c ****              OSSchedUnlock(&err);
 969              		.loc 1 696 0
 970 012e 07F11603 		add	r3, r7, #22
 971 0132 1846     		mov	r0, r3
 972 0134 FFF7FEFF 		bl	OSSchedUnlock
 697:C:\Micrium\Software\uCOS-III\Source\os_tmr.c ****             *p_err   = OS_ERR_TMR_INVALID_STATE;
 973              		.loc 1 697 0
 974 0138 3B68     		ldr	r3, [r7, #0]
 975 013a 47F24132 		movw	r2, #29505
 976 013e 1A80     		strh	r2, [r3, #0]	@ movhi
 698:C:\Micrium\Software\uCOS-III\Source\os_tmr.c ****              success = DEF_FALSE;
 977              		.loc 1 698 0
 978 0140 4FF00003 		mov	r3, #0
 979 0144 FB77     		strb	r3, [r7, #31]
 980              	.L79:
 699:C:\Micrium\Software\uCOS-III\Source\os_tmr.c ****              break;
 700:C:\Micrium\Software\uCOS-III\Source\os_tmr.c ****     }
 701:C:\Micrium\Software\uCOS-III\Source\os_tmr.c ****     return (success);
 981              		.loc 1 701 0
 982 0146 FB7F     		ldrb	r3, [r7, #31]	@ zero_extendqisi2
 983              	.L63:
 702:C:\Micrium\Software\uCOS-III\Source\os_tmr.c **** }
 984              		.loc 1 702 0
 985 0148 1846     		mov	r0, r3
 986 014a 07F12007 		add	r7, r7, #32
 987 014e BD46     		mov	sp, r7
 988 0150 80BD     		pop	{r7, pc}
 989              		.cfi_endproc
 990              	.LFE5:
 991              		.size	OSTmrStop, .-OSTmrStop
 992 0152 00BF     		.section	.rodata
 993              		.align	2
 994              	.LC0:
 995 0000 3F544D52 		.ascii	"?TMR\000"
 995      00
 996              		.section	.text.OS_TmrClr,"ax",%progbits
 997              		.align	2
 998              		.global	OS_TmrClr
 999              		.thumb
 1000              		.thumb_func
 1001              		.type	OS_TmrClr, %function
 1002              	OS_TmrClr:
 1003              	.LFB6:
ARM GAS  C:\Users\daniel01\AppData\Local\Temp\ccxoNE0f.s 			page 31


 703:C:\Micrium\Software\uCOS-III\Source\os_tmr.c **** 
 704:C:\Micrium\Software\uCOS-III\Source\os_tmr.c **** /*$PAGE*/
 705:C:\Micrium\Software\uCOS-III\Source\os_tmr.c **** /*
 706:C:\Micrium\Software\uCOS-III\Source\os_tmr.c **** ***************************************************************************************************
 707:C:\Micrium\Software\uCOS-III\Source\os_tmr.c **** *                                                 CLEAR TIMER FIELDS
 708:C:\Micrium\Software\uCOS-III\Source\os_tmr.c **** *
 709:C:\Micrium\Software\uCOS-III\Source\os_tmr.c **** * Description: This function is called to clear all timer fields.
 710:C:\Micrium\Software\uCOS-III\Source\os_tmr.c **** *
 711:C:\Micrium\Software\uCOS-III\Source\os_tmr.c **** * Argument(s): p_tmr    is a pointer to the timer to clear
 712:C:\Micrium\Software\uCOS-III\Source\os_tmr.c **** *              -----
 713:C:\Micrium\Software\uCOS-III\Source\os_tmr.c **** *
 714:C:\Micrium\Software\uCOS-III\Source\os_tmr.c **** * Returns    : none
 715:C:\Micrium\Software\uCOS-III\Source\os_tmr.c **** *
 716:C:\Micrium\Software\uCOS-III\Source\os_tmr.c **** * Note(s)    : 1) This function is INTERNAL to uC/OS-III and your application MUST NOT call it.
 717:C:\Micrium\Software\uCOS-III\Source\os_tmr.c **** ***************************************************************************************************
 718:C:\Micrium\Software\uCOS-III\Source\os_tmr.c **** */
 719:C:\Micrium\Software\uCOS-III\Source\os_tmr.c **** 
 720:C:\Micrium\Software\uCOS-III\Source\os_tmr.c **** void  OS_TmrClr (OS_TMR  *p_tmr)
 721:C:\Micrium\Software\uCOS-III\Source\os_tmr.c **** {
 1004              		.loc 1 721 0
 1005              		.cfi_startproc
 1006              		@ args = 0, pretend = 0, frame = 8
 1007              		@ frame_needed = 1, uses_anonymous_args = 0
 1008              		@ link register save eliminated.
 1009 0000 80B4     		push	{r7}
 1010              	.LCFI18:
 1011              		.cfi_def_cfa_offset 4
 1012 0002 83B0     		sub	sp, sp, #12
 1013              	.LCFI19:
 1014              		.cfi_def_cfa_offset 16
 1015 0004 00AF     		add	r7, sp, #0
 1016              		.cfi_offset 7, -4
 1017              	.LCFI20:
 1018              		.cfi_def_cfa_register 7
 1019 0006 7860     		str	r0, [r7, #4]
 722:C:\Micrium\Software\uCOS-III\Source\os_tmr.c ****     p_tmr->State          = OS_TMR_STATE_UNUSED;            /* Clear timer fields                  
 1020              		.loc 1 722 0
 1021 0008 7B68     		ldr	r3, [r7, #4]
 1022 000a 4FF00002 		mov	r2, #0
 1023 000e 83F82A20 		strb	r2, [r3, #42]
 723:C:\Micrium\Software\uCOS-III\Source\os_tmr.c ****     p_tmr->Type           = OS_OBJ_TYPE_NONE;
 1024              		.loc 1 723 0
 1025 0012 7A68     		ldr	r2, [r7, #4]
 1026 0014 44F64E73 		movw	r3, #:lower16:1162760014
 1027 0018 C4F24E53 		movt	r3, #:upper16:1162760014
 1028 001c 1360     		str	r3, [r2, #0]
 724:C:\Micrium\Software\uCOS-III\Source\os_tmr.c ****     p_tmr->NamePtr        = (CPU_CHAR          *)((void *)"?TMR");
 1029              		.loc 1 724 0
 1030 001e 7A68     		ldr	r2, [r7, #4]
 1031 0020 40F20003 		movw	r3, #:lower16:.LC0
 1032 0024 C0F20003 		movt	r3, #:upper16:.LC0
 1033 0028 5360     		str	r3, [r2, #4]
 725:C:\Micrium\Software\uCOS-III\Source\os_tmr.c ****     p_tmr->Dly            = (OS_TICK            )0;
 1034              		.loc 1 725 0
 1035 002a 7B68     		ldr	r3, [r7, #4]
 1036 002c 4FF00002 		mov	r2, #0
 1037 0030 1A62     		str	r2, [r3, #32]
ARM GAS  C:\Users\daniel01\AppData\Local\Temp\ccxoNE0f.s 			page 32


 726:C:\Micrium\Software\uCOS-III\Source\os_tmr.c ****     p_tmr->Match          = (OS_TICK            )0;
 1038              		.loc 1 726 0
 1039 0032 7B68     		ldr	r3, [r7, #4]
 1040 0034 4FF00002 		mov	r2, #0
 1041 0038 9A61     		str	r2, [r3, #24]
 727:C:\Micrium\Software\uCOS-III\Source\os_tmr.c ****     p_tmr->Remain         = (OS_TICK            )0;
 1042              		.loc 1 727 0
 1043 003a 7B68     		ldr	r3, [r7, #4]
 1044 003c 4FF00002 		mov	r2, #0
 1045 0040 DA61     		str	r2, [r3, #28]
 728:C:\Micrium\Software\uCOS-III\Source\os_tmr.c ****     p_tmr->Period         = (OS_TICK            )0;
 1046              		.loc 1 728 0
 1047 0042 7B68     		ldr	r3, [r7, #4]
 1048 0044 4FF00002 		mov	r2, #0
 1049 0048 5A62     		str	r2, [r3, #36]
 729:C:\Micrium\Software\uCOS-III\Source\os_tmr.c ****     p_tmr->Opt            = (OS_OPT             )0;
 1050              		.loc 1 729 0
 1051 004a 7B68     		ldr	r3, [r7, #4]
 1052 004c 4FF00002 		mov	r2, #0
 1053 0050 1A85     		strh	r2, [r3, #40]	@ movhi
 730:C:\Micrium\Software\uCOS-III\Source\os_tmr.c ****     p_tmr->CallbackPtr    = (OS_TMR_CALLBACK_PTR)0;
 1054              		.loc 1 730 0
 1055 0052 7B68     		ldr	r3, [r7, #4]
 1056 0054 4FF00002 		mov	r2, #0
 1057 0058 9A60     		str	r2, [r3, #8]
 731:C:\Micrium\Software\uCOS-III\Source\os_tmr.c ****     p_tmr->CallbackPtrArg = (void              *)0;
 1058              		.loc 1 731 0
 1059 005a 7B68     		ldr	r3, [r7, #4]
 1060 005c 4FF00002 		mov	r2, #0
 1061 0060 DA60     		str	r2, [r3, #12]
 732:C:\Micrium\Software\uCOS-III\Source\os_tmr.c ****     p_tmr->NextPtr        = (OS_TMR            *)0;
 1062              		.loc 1 732 0
 1063 0062 7B68     		ldr	r3, [r7, #4]
 1064 0064 4FF00002 		mov	r2, #0
 1065 0068 1A61     		str	r2, [r3, #16]
 733:C:\Micrium\Software\uCOS-III\Source\os_tmr.c ****     p_tmr->PrevPtr        = (OS_TMR            *)0;
 1066              		.loc 1 733 0
 1067 006a 7B68     		ldr	r3, [r7, #4]
 1068 006c 4FF00002 		mov	r2, #0
 1069 0070 5A61     		str	r2, [r3, #20]
 734:C:\Micrium\Software\uCOS-III\Source\os_tmr.c **** }
 1070              		.loc 1 734 0
 1071 0072 07F10C07 		add	r7, r7, #12
 1072 0076 BD46     		mov	sp, r7
 1073 0078 80BC     		pop	{r7}
 1074 007a 7047     		bx	lr
 1075              		.cfi_endproc
 1076              	.LFE6:
 1077              		.size	OS_TmrClr, .-OS_TmrClr
 1078              		.section	.text.OS_TmrDbgListAdd,"ax",%progbits
 1079              		.align	2
 1080              		.global	OS_TmrDbgListAdd
 1081              		.thumb
 1082              		.thumb_func
 1083              		.type	OS_TmrDbgListAdd, %function
 1084              	OS_TmrDbgListAdd:
 1085              	.LFB7:
ARM GAS  C:\Users\daniel01\AppData\Local\Temp\ccxoNE0f.s 			page 33


 735:C:\Micrium\Software\uCOS-III\Source\os_tmr.c **** 
 736:C:\Micrium\Software\uCOS-III\Source\os_tmr.c **** /*$PAGE*/
 737:C:\Micrium\Software\uCOS-III\Source\os_tmr.c **** /*
 738:C:\Micrium\Software\uCOS-III\Source\os_tmr.c **** ***************************************************************************************************
 739:C:\Micrium\Software\uCOS-III\Source\os_tmr.c **** *                                         ADD/REMOVE TIMER TO/FROM DEBUG TABLE
 740:C:\Micrium\Software\uCOS-III\Source\os_tmr.c **** *
 741:C:\Micrium\Software\uCOS-III\Source\os_tmr.c **** * Description: These functions are called by uC/OS-III to add or remove a timer to/from a timer deb
 742:C:\Micrium\Software\uCOS-III\Source\os_tmr.c **** *
 743:C:\Micrium\Software\uCOS-III\Source\os_tmr.c **** * Arguments  : p_tmr     is a pointer to the timer to add/remove
 744:C:\Micrium\Software\uCOS-III\Source\os_tmr.c **** *
 745:C:\Micrium\Software\uCOS-III\Source\os_tmr.c **** * Returns    : none
 746:C:\Micrium\Software\uCOS-III\Source\os_tmr.c **** *
 747:C:\Micrium\Software\uCOS-III\Source\os_tmr.c **** * Note(s)    : These functions are INTERNAL to uC/OS-III and your application should not call it.
 748:C:\Micrium\Software\uCOS-III\Source\os_tmr.c **** ***************************************************************************************************
 749:C:\Micrium\Software\uCOS-III\Source\os_tmr.c **** */
 750:C:\Micrium\Software\uCOS-III\Source\os_tmr.c **** 
 751:C:\Micrium\Software\uCOS-III\Source\os_tmr.c **** 
 752:C:\Micrium\Software\uCOS-III\Source\os_tmr.c **** #if OS_CFG_DBG_EN > 0u
 753:C:\Micrium\Software\uCOS-III\Source\os_tmr.c **** void  OS_TmrDbgListAdd (OS_TMR  *p_tmr)
 754:C:\Micrium\Software\uCOS-III\Source\os_tmr.c **** {
 1086              		.loc 1 754 0
 1087              		.cfi_startproc
 1088              		@ args = 0, pretend = 0, frame = 8
 1089              		@ frame_needed = 1, uses_anonymous_args = 0
 1090              		@ link register save eliminated.
 1091 0000 80B4     		push	{r7}
 1092              	.LCFI21:
 1093              		.cfi_def_cfa_offset 4
 1094 0002 83B0     		sub	sp, sp, #12
 1095              	.LCFI22:
 1096              		.cfi_def_cfa_offset 16
 1097 0004 00AF     		add	r7, sp, #0
 1098              		.cfi_offset 7, -4
 1099              	.LCFI23:
 1100              		.cfi_def_cfa_register 7
 1101 0006 7860     		str	r0, [r7, #4]
 755:C:\Micrium\Software\uCOS-III\Source\os_tmr.c ****     p_tmr->DbgPrevPtr               = (OS_TMR *)0;
 1102              		.loc 1 755 0
 1103 0008 7B68     		ldr	r3, [r7, #4]
 1104 000a 4FF00002 		mov	r2, #0
 1105 000e DA62     		str	r2, [r3, #44]
 756:C:\Micrium\Software\uCOS-III\Source\os_tmr.c ****     if (OSTmrDbgListPtr == (OS_TMR *)0) {
 1106              		.loc 1 756 0
 1107 0010 40F20003 		movw	r3, #:lower16:OSTmrDbgListPtr
 1108 0014 C0F20003 		movt	r3, #:upper16:OSTmrDbgListPtr
 1109 0018 1B68     		ldr	r3, [r3, #0]
 1110 001a 002B     		cmp	r3, #0
 1111 001c 04D1     		bne	.L86
 757:C:\Micrium\Software\uCOS-III\Source\os_tmr.c ****         p_tmr->DbgNextPtr           = (OS_TMR *)0;
 1112              		.loc 1 757 0
 1113 001e 7B68     		ldr	r3, [r7, #4]
 1114 0020 4FF00002 		mov	r2, #0
 1115 0024 1A63     		str	r2, [r3, #48]
 1116 0026 0DE0     		b	.L87
 1117              	.L86:
 758:C:\Micrium\Software\uCOS-III\Source\os_tmr.c ****     } else {
 759:C:\Micrium\Software\uCOS-III\Source\os_tmr.c ****         p_tmr->DbgNextPtr           =  OSTmrDbgListPtr;
ARM GAS  C:\Users\daniel01\AppData\Local\Temp\ccxoNE0f.s 			page 34


 1118              		.loc 1 759 0
 1119 0028 40F20003 		movw	r3, #:lower16:OSTmrDbgListPtr
 1120 002c C0F20003 		movt	r3, #:upper16:OSTmrDbgListPtr
 1121 0030 1A68     		ldr	r2, [r3, #0]
 1122 0032 7B68     		ldr	r3, [r7, #4]
 1123 0034 1A63     		str	r2, [r3, #48]
 760:C:\Micrium\Software\uCOS-III\Source\os_tmr.c ****         OSTmrDbgListPtr->DbgPrevPtr =  p_tmr;
 1124              		.loc 1 760 0
 1125 0036 40F20003 		movw	r3, #:lower16:OSTmrDbgListPtr
 1126 003a C0F20003 		movt	r3, #:upper16:OSTmrDbgListPtr
 1127 003e 1B68     		ldr	r3, [r3, #0]
 1128 0040 7A68     		ldr	r2, [r7, #4]
 1129 0042 DA62     		str	r2, [r3, #44]
 1130              	.L87:
 761:C:\Micrium\Software\uCOS-III\Source\os_tmr.c ****     }
 762:C:\Micrium\Software\uCOS-III\Source\os_tmr.c ****     OSTmrDbgListPtr                 =  p_tmr;
 1131              		.loc 1 762 0
 1132 0044 40F20003 		movw	r3, #:lower16:OSTmrDbgListPtr
 1133 0048 C0F20003 		movt	r3, #:upper16:OSTmrDbgListPtr
 1134 004c 7A68     		ldr	r2, [r7, #4]
 1135 004e 1A60     		str	r2, [r3, #0]
 763:C:\Micrium\Software\uCOS-III\Source\os_tmr.c **** }
 1136              		.loc 1 763 0
 1137 0050 07F10C07 		add	r7, r7, #12
 1138 0054 BD46     		mov	sp, r7
 1139 0056 80BC     		pop	{r7}
 1140 0058 7047     		bx	lr
 1141              		.cfi_endproc
 1142              	.LFE7:
 1143              		.size	OS_TmrDbgListAdd, .-OS_TmrDbgListAdd
 1144 005a 00BF     		.section	.text.OS_TmrDbgListRemove,"ax",%progbits
 1145              		.align	2
 1146              		.global	OS_TmrDbgListRemove
 1147              		.thumb
 1148              		.thumb_func
 1149              		.type	OS_TmrDbgListRemove, %function
 1150              	OS_TmrDbgListRemove:
 1151              	.LFB8:
 764:C:\Micrium\Software\uCOS-III\Source\os_tmr.c **** 
 765:C:\Micrium\Software\uCOS-III\Source\os_tmr.c **** 
 766:C:\Micrium\Software\uCOS-III\Source\os_tmr.c **** 
 767:C:\Micrium\Software\uCOS-III\Source\os_tmr.c **** void  OS_TmrDbgListRemove (OS_TMR  *p_tmr)
 768:C:\Micrium\Software\uCOS-III\Source\os_tmr.c **** {
 1152              		.loc 1 768 0
 1153              		.cfi_startproc
 1154              		@ args = 0, pretend = 0, frame = 16
 1155              		@ frame_needed = 1, uses_anonymous_args = 0
 1156              		@ link register save eliminated.
 1157 0000 80B4     		push	{r7}
 1158              	.LCFI24:
 1159              		.cfi_def_cfa_offset 4
 1160 0002 85B0     		sub	sp, sp, #20
 1161              	.LCFI25:
 1162              		.cfi_def_cfa_offset 24
 1163 0004 00AF     		add	r7, sp, #0
 1164              		.cfi_offset 7, -4
 1165              	.LCFI26:
ARM GAS  C:\Users\daniel01\AppData\Local\Temp\ccxoNE0f.s 			page 35


 1166              		.cfi_def_cfa_register 7
 1167 0006 7860     		str	r0, [r7, #4]
 769:C:\Micrium\Software\uCOS-III\Source\os_tmr.c ****     OS_TMR  *p_tmr_next;
 770:C:\Micrium\Software\uCOS-III\Source\os_tmr.c ****     OS_TMR  *p_tmr_prev;
 771:C:\Micrium\Software\uCOS-III\Source\os_tmr.c **** 
 772:C:\Micrium\Software\uCOS-III\Source\os_tmr.c **** 
 773:C:\Micrium\Software\uCOS-III\Source\os_tmr.c ****     p_tmr_prev = p_tmr->DbgPrevPtr;
 1168              		.loc 1 773 0
 1169 0008 7B68     		ldr	r3, [r7, #4]
 1170 000a DB6A     		ldr	r3, [r3, #44]
 1171 000c FB60     		str	r3, [r7, #12]
 774:C:\Micrium\Software\uCOS-III\Source\os_tmr.c ****     p_tmr_next = p_tmr->DbgNextPtr;
 1172              		.loc 1 774 0
 1173 000e 7B68     		ldr	r3, [r7, #4]
 1174 0010 1B6B     		ldr	r3, [r3, #48]
 1175 0012 BB60     		str	r3, [r7, #8]
 775:C:\Micrium\Software\uCOS-III\Source\os_tmr.c **** 
 776:C:\Micrium\Software\uCOS-III\Source\os_tmr.c ****     if (p_tmr_prev == (OS_TMR *)0) {
 1176              		.loc 1 776 0
 1177 0014 FB68     		ldr	r3, [r7, #12]
 1178 0016 002B     		cmp	r3, #0
 1179 0018 11D1     		bne	.L90
 777:C:\Micrium\Software\uCOS-III\Source\os_tmr.c ****         OSTmrDbgListPtr = p_tmr_next;
 1180              		.loc 1 777 0
 1181 001a 40F20003 		movw	r3, #:lower16:OSTmrDbgListPtr
 1182 001e C0F20003 		movt	r3, #:upper16:OSTmrDbgListPtr
 1183 0022 BA68     		ldr	r2, [r7, #8]
 1184 0024 1A60     		str	r2, [r3, #0]
 778:C:\Micrium\Software\uCOS-III\Source\os_tmr.c ****         if (p_tmr_next != (OS_TMR *)0) {
 1185              		.loc 1 778 0
 1186 0026 BB68     		ldr	r3, [r7, #8]
 1187 0028 002B     		cmp	r3, #0
 1188 002a 03D0     		beq	.L91
 779:C:\Micrium\Software\uCOS-III\Source\os_tmr.c ****             p_tmr_next->DbgPrevPtr = (OS_TMR *)0;
 1189              		.loc 1 779 0
 1190 002c BB68     		ldr	r3, [r7, #8]
 1191 002e 4FF00002 		mov	r2, #0
 1192 0032 DA62     		str	r2, [r3, #44]
 1193              	.L91:
 780:C:\Micrium\Software\uCOS-III\Source\os_tmr.c ****         }
 781:C:\Micrium\Software\uCOS-III\Source\os_tmr.c ****         p_tmr->DbgNextPtr = (OS_TMR *)0;
 1194              		.loc 1 781 0
 1195 0034 7B68     		ldr	r3, [r7, #4]
 1196 0036 4FF00002 		mov	r2, #0
 1197 003a 1A63     		str	r2, [r3, #48]
 1198 003c 19E0     		b	.L94
 1199              	.L90:
 782:C:\Micrium\Software\uCOS-III\Source\os_tmr.c **** 
 783:C:\Micrium\Software\uCOS-III\Source\os_tmr.c ****     } else if (p_tmr_next == (OS_TMR *)0) {
 1200              		.loc 1 783 0
 1201 003e BB68     		ldr	r3, [r7, #8]
 1202 0040 002B     		cmp	r3, #0
 1203 0042 08D1     		bne	.L93
 784:C:\Micrium\Software\uCOS-III\Source\os_tmr.c ****         p_tmr_prev->DbgNextPtr = (OS_TMR *)0;
 1204              		.loc 1 784 0
 1205 0044 FB68     		ldr	r3, [r7, #12]
 1206 0046 4FF00002 		mov	r2, #0
ARM GAS  C:\Users\daniel01\AppData\Local\Temp\ccxoNE0f.s 			page 36


 1207 004a 1A63     		str	r2, [r3, #48]
 785:C:\Micrium\Software\uCOS-III\Source\os_tmr.c ****         p_tmr->DbgPrevPtr      = (OS_TMR *)0;
 1208              		.loc 1 785 0
 1209 004c 7B68     		ldr	r3, [r7, #4]
 1210 004e 4FF00002 		mov	r2, #0
 1211 0052 DA62     		str	r2, [r3, #44]
 1212 0054 0DE0     		b	.L94
 1213              	.L93:
 786:C:\Micrium\Software\uCOS-III\Source\os_tmr.c **** 
 787:C:\Micrium\Software\uCOS-III\Source\os_tmr.c ****     } else {
 788:C:\Micrium\Software\uCOS-III\Source\os_tmr.c ****         p_tmr_prev->DbgNextPtr =  p_tmr_next;
 1214              		.loc 1 788 0
 1215 0056 FB68     		ldr	r3, [r7, #12]
 1216 0058 BA68     		ldr	r2, [r7, #8]
 1217 005a 1A63     		str	r2, [r3, #48]
 789:C:\Micrium\Software\uCOS-III\Source\os_tmr.c ****         p_tmr_next->DbgPrevPtr =  p_tmr_prev;
 1218              		.loc 1 789 0
 1219 005c BB68     		ldr	r3, [r7, #8]
 1220 005e FA68     		ldr	r2, [r7, #12]
 1221 0060 DA62     		str	r2, [r3, #44]
 790:C:\Micrium\Software\uCOS-III\Source\os_tmr.c ****         p_tmr->DbgNextPtr      = (OS_TMR *)0;
 1222              		.loc 1 790 0
 1223 0062 7B68     		ldr	r3, [r7, #4]
 1224 0064 4FF00002 		mov	r2, #0
 1225 0068 1A63     		str	r2, [r3, #48]
 791:C:\Micrium\Software\uCOS-III\Source\os_tmr.c ****         p_tmr->DbgPrevPtr      = (OS_TMR *)0;
 1226              		.loc 1 791 0
 1227 006a 7B68     		ldr	r3, [r7, #4]
 1228 006c 4FF00002 		mov	r2, #0
 1229 0070 DA62     		str	r2, [r3, #44]
 1230              	.L94:
 792:C:\Micrium\Software\uCOS-III\Source\os_tmr.c ****     }
 793:C:\Micrium\Software\uCOS-III\Source\os_tmr.c **** }
 1231              		.loc 1 793 0
 1232 0072 07F11407 		add	r7, r7, #20
 1233 0076 BD46     		mov	sp, r7
 1234 0078 80BC     		pop	{r7}
 1235 007a 7047     		bx	lr
 1236              		.cfi_endproc
 1237              	.LFE8:
 1238              		.size	OS_TmrDbgListRemove, .-OS_TmrDbgListRemove
 1239              		.section	.rodata
 1240 0005 000000   		.align	2
 1241              	.LC1:
 1242 0008 75432F4F 		.ascii	"uC/OS-III Timer Task\000"
 1242      532D4949 
 1242      49205469 
 1242      6D657220 
 1242      5461736B 
 1243 001d 000000   		.section	.text.OS_TmrInit,"ax",%progbits
 1244              		.align	2
 1245              		.global	OS_TmrInit
 1246              		.thumb
 1247              		.thumb_func
 1248              		.type	OS_TmrInit, %function
 1249              	OS_TmrInit:
 1250              	.LFB9:
ARM GAS  C:\Users\daniel01\AppData\Local\Temp\ccxoNE0f.s 			page 37


 794:C:\Micrium\Software\uCOS-III\Source\os_tmr.c **** #endif
 795:C:\Micrium\Software\uCOS-III\Source\os_tmr.c **** 
 796:C:\Micrium\Software\uCOS-III\Source\os_tmr.c **** /*$PAGE*/
 797:C:\Micrium\Software\uCOS-III\Source\os_tmr.c **** /*
 798:C:\Micrium\Software\uCOS-III\Source\os_tmr.c **** ***************************************************************************************************
 799:C:\Micrium\Software\uCOS-III\Source\os_tmr.c **** *                                             INITIALIZE THE TIMER MANAGER
 800:C:\Micrium\Software\uCOS-III\Source\os_tmr.c **** *
 801:C:\Micrium\Software\uCOS-III\Source\os_tmr.c **** * Description: This function is called by OSInit() to initialize the timer manager module.
 802:C:\Micrium\Software\uCOS-III\Source\os_tmr.c **** *
 803:C:\Micrium\Software\uCOS-III\Source\os_tmr.c **** * Argument(s): p_err    is a pointer to a variable that will contain an error code returned by this
 804:C:\Micrium\Software\uCOS-III\Source\os_tmr.c **** *
 805:C:\Micrium\Software\uCOS-III\Source\os_tmr.c **** *                           OS_ERR_NONE
 806:C:\Micrium\Software\uCOS-III\Source\os_tmr.c **** *                           OS_ERR_TMR_STK_INVALID       if you didn't specify a stack for the time
 807:C:\Micrium\Software\uCOS-III\Source\os_tmr.c **** *                           OS_ERR_TMR_STK_SIZE_INVALID  if you didn't allocate enough space for th
 808:C:\Micrium\Software\uCOS-III\Source\os_tmr.c **** *                           OS_ERR_PRIO_INVALID          if you specified the same priority as the 
 809:C:\Micrium\Software\uCOS-III\Source\os_tmr.c **** *                           OS_ERR_xxx                   any error code returned by OSTaskCreate()
 810:C:\Micrium\Software\uCOS-III\Source\os_tmr.c **** *
 811:C:\Micrium\Software\uCOS-III\Source\os_tmr.c **** * Returns    : none
 812:C:\Micrium\Software\uCOS-III\Source\os_tmr.c **** *
 813:C:\Micrium\Software\uCOS-III\Source\os_tmr.c **** * Note(s)    : 1) This function is INTERNAL to uC/OS-III and your application MUST NOT call it.
 814:C:\Micrium\Software\uCOS-III\Source\os_tmr.c **** ***************************************************************************************************
 815:C:\Micrium\Software\uCOS-III\Source\os_tmr.c **** */
 816:C:\Micrium\Software\uCOS-III\Source\os_tmr.c **** 
 817:C:\Micrium\Software\uCOS-III\Source\os_tmr.c **** void  OS_TmrInit (OS_ERR  *p_err)
 818:C:\Micrium\Software\uCOS-III\Source\os_tmr.c **** {
 1251              		.loc 1 818 0
 1252              		.cfi_startproc
 1253              		@ args = 0, pretend = 0, frame = 16
 1254              		@ frame_needed = 1, uses_anonymous_args = 0
 1255 0000 80B5     		push	{r7, lr}
 1256              	.LCFI27:
 1257              		.cfi_def_cfa_offset 8
 1258 0002 8EB0     		sub	sp, sp, #56
 1259              	.LCFI28:
 1260              		.cfi_def_cfa_offset 64
 1261 0004 0AAF     		add	r7, sp, #40
 1262              		.cfi_offset 14, -4
 1263              		.cfi_offset 7, -8
 1264              	.LCFI29:
 1265              		.cfi_def_cfa 7, 24
 1266 0006 7860     		str	r0, [r7, #4]
 819:C:\Micrium\Software\uCOS-III\Source\os_tmr.c ****     OS_TMR_SPOKE_IX   i;
 820:C:\Micrium\Software\uCOS-III\Source\os_tmr.c ****     OS_TMR_SPOKE     *p_spoke;
 821:C:\Micrium\Software\uCOS-III\Source\os_tmr.c **** 
 822:C:\Micrium\Software\uCOS-III\Source\os_tmr.c **** 
 823:C:\Micrium\Software\uCOS-III\Source\os_tmr.c **** 
 824:C:\Micrium\Software\uCOS-III\Source\os_tmr.c **** #ifdef OS_SAFETY_CRITICAL
 825:C:\Micrium\Software\uCOS-III\Source\os_tmr.c ****     if (p_err == (OS_ERR *)0) {
 826:C:\Micrium\Software\uCOS-III\Source\os_tmr.c ****         OS_SAFETY_CRITICAL_EXCEPTION();
 827:C:\Micrium\Software\uCOS-III\Source\os_tmr.c ****         return;
 828:C:\Micrium\Software\uCOS-III\Source\os_tmr.c ****     }
 829:C:\Micrium\Software\uCOS-III\Source\os_tmr.c **** #endif
 830:C:\Micrium\Software\uCOS-III\Source\os_tmr.c **** 
 831:C:\Micrium\Software\uCOS-III\Source\os_tmr.c **** #if OS_CFG_DBG_EN > 0u
 832:C:\Micrium\Software\uCOS-III\Source\os_tmr.c ****     OSTmrDbgListPtr = (OS_TMR *)0;
 1267              		.loc 1 832 0
 1268 0008 40F20003 		movw	r3, #:lower16:OSTmrDbgListPtr
ARM GAS  C:\Users\daniel01\AppData\Local\Temp\ccxoNE0f.s 			page 38


 1269 000c C0F20003 		movt	r3, #:upper16:OSTmrDbgListPtr
 1270 0010 4FF00002 		mov	r2, #0
 1271 0014 1A60     		str	r2, [r3, #0]
 833:C:\Micrium\Software\uCOS-III\Source\os_tmr.c **** #endif
 834:C:\Micrium\Software\uCOS-III\Source\os_tmr.c **** 
 835:C:\Micrium\Software\uCOS-III\Source\os_tmr.c ****     if (OSCfg_TmrTaskRate_Hz > (OS_RATE_HZ)0) {
 1272              		.loc 1 835 0
 1273 0016 40F20003 		movw	r3, #:lower16:OSCfg_TmrTaskRate_Hz
 1274 001a C0F20003 		movt	r3, #:upper16:OSCfg_TmrTaskRate_Hz
 1275 001e 1B68     		ldr	r3, [r3, #0]
 1276 0020 002B     		cmp	r3, #0
 1277 0022 11D0     		beq	.L96
 836:C:\Micrium\Software\uCOS-III\Source\os_tmr.c ****         OSTmrUpdateCnt = OSCfg_TickRate_Hz / OSCfg_TmrTaskRate_Hz;
 1278              		.loc 1 836 0
 1279 0024 40F20003 		movw	r3, #:lower16:OSCfg_TickRate_Hz
 1280 0028 C0F20003 		movt	r3, #:upper16:OSCfg_TickRate_Hz
 1281 002c 1A68     		ldr	r2, [r3, #0]
 1282 002e 40F20003 		movw	r3, #:lower16:OSCfg_TmrTaskRate_Hz
 1283 0032 C0F20003 		movt	r3, #:upper16:OSCfg_TmrTaskRate_Hz
 1284 0036 1B68     		ldr	r3, [r3, #0]
 1285 0038 B2FBF3F2 		udiv	r2, r2, r3
 1286 003c 40F20003 		movw	r3, #:lower16:OSTmrUpdateCnt
 1287 0040 C0F20003 		movt	r3, #:upper16:OSTmrUpdateCnt
 1288 0044 1A60     		str	r2, [r3, #0]
 1289 0046 11E0     		b	.L97
 1290              	.L96:
 837:C:\Micrium\Software\uCOS-III\Source\os_tmr.c ****     } else {
 838:C:\Micrium\Software\uCOS-III\Source\os_tmr.c ****         OSTmrUpdateCnt = OSCfg_TickRate_Hz / (OS_RATE_HZ)10;
 1291              		.loc 1 838 0
 1292 0048 40F20003 		movw	r3, #:lower16:OSCfg_TickRate_Hz
 1293 004c C0F20003 		movt	r3, #:upper16:OSCfg_TickRate_Hz
 1294 0050 1A68     		ldr	r2, [r3, #0]
 1295 0052 4CF6CD43 		movw	r3, #:lower16:-858993459
 1296 0056 CCF6CC43 		movt	r3, #:upper16:-858993459
 1297 005a A3FB0213 		umull	r1, r3, r3, r2
 1298 005e 4FEAD302 		lsr	r2, r3, #3
 1299 0062 40F20003 		movw	r3, #:lower16:OSTmrUpdateCnt
 1300 0066 C0F20003 		movt	r3, #:upper16:OSTmrUpdateCnt
 1301 006a 1A60     		str	r2, [r3, #0]
 1302              	.L97:
 839:C:\Micrium\Software\uCOS-III\Source\os_tmr.c ****     }
 840:C:\Micrium\Software\uCOS-III\Source\os_tmr.c ****     OSTmrUpdateCtr   = OSTmrUpdateCnt;
 1303              		.loc 1 840 0
 1304 006c 40F20003 		movw	r3, #:lower16:OSTmrUpdateCnt
 1305 0070 C0F20003 		movt	r3, #:upper16:OSTmrUpdateCnt
 1306 0074 1A68     		ldr	r2, [r3, #0]
 1307 0076 40F20003 		movw	r3, #:lower16:OSTmrUpdateCtr
 1308 007a C0F20003 		movt	r3, #:upper16:OSTmrUpdateCtr
 1309 007e 1A60     		str	r2, [r3, #0]
 841:C:\Micrium\Software\uCOS-III\Source\os_tmr.c **** 
 842:C:\Micrium\Software\uCOS-III\Source\os_tmr.c ****     OSTmrTickCtr     = (OS_TICK)0;
 1310              		.loc 1 842 0
 1311 0080 40F20003 		movw	r3, #:lower16:OSTmrTickCtr
 1312 0084 C0F20003 		movt	r3, #:upper16:OSTmrTickCtr
 1313 0088 4FF00002 		mov	r2, #0
 1314 008c 1A60     		str	r2, [r3, #0]
 843:C:\Micrium\Software\uCOS-III\Source\os_tmr.c **** 
ARM GAS  C:\Users\daniel01\AppData\Local\Temp\ccxoNE0f.s 			page 39


 844:C:\Micrium\Software\uCOS-III\Source\os_tmr.c ****     OSTmrTaskTimeMax = (CPU_TS)0;
 1315              		.loc 1 844 0
 1316 008e 40F20003 		movw	r3, #:lower16:OSTmrTaskTimeMax
 1317 0092 C0F20003 		movt	r3, #:upper16:OSTmrTaskTimeMax
 1318 0096 4FF00002 		mov	r2, #0
 1319 009a 1A60     		str	r2, [r3, #0]
 845:C:\Micrium\Software\uCOS-III\Source\os_tmr.c **** 
 846:C:\Micrium\Software\uCOS-III\Source\os_tmr.c ****     for (i = 0u; i < OSCfg_TmrWheelSize; i++) {
 1320              		.loc 1 846 0
 1321 009c 4FF00003 		mov	r3, #0
 1322 00a0 7B81     		strh	r3, [r7, #10]	@ movhi
 1323 00a2 18E0     		b	.L98
 1324              	.L99:
 847:C:\Micrium\Software\uCOS-III\Source\os_tmr.c ****         p_spoke                = &OSCfg_TmrWheel[i];
 1325              		.loc 1 847 0
 1326 00a4 7B89     		ldrh	r3, [r7, #10]
 1327 00a6 4FEAC302 		lsl	r2, r3, #3
 1328 00aa 40F20003 		movw	r3, #:lower16:OSCfg_TmrWheel
 1329 00ae C0F20003 		movt	r3, #:upper16:OSCfg_TmrWheel
 1330 00b2 1344     		add	r3, r2, r3
 1331 00b4 FB60     		str	r3, [r7, #12]
 848:C:\Micrium\Software\uCOS-III\Source\os_tmr.c ****         p_spoke->NbrEntries    = (OS_OBJ_QTY)0;
 1332              		.loc 1 848 0
 1333 00b6 FB68     		ldr	r3, [r7, #12]
 1334 00b8 4FF00002 		mov	r2, #0
 1335 00bc 9A80     		strh	r2, [r3, #4]	@ movhi
 849:C:\Micrium\Software\uCOS-III\Source\os_tmr.c ****         p_spoke->NbrEntriesMax = (OS_OBJ_QTY)0;
 1336              		.loc 1 849 0
 1337 00be FB68     		ldr	r3, [r7, #12]
 1338 00c0 4FF00002 		mov	r2, #0
 1339 00c4 DA80     		strh	r2, [r3, #6]	@ movhi
 850:C:\Micrium\Software\uCOS-III\Source\os_tmr.c ****         p_spoke->FirstPtr      = (OS_TMR   *)0;
 1340              		.loc 1 850 0
 1341 00c6 FB68     		ldr	r3, [r7, #12]
 1342 00c8 4FF00002 		mov	r2, #0
 1343 00cc 1A60     		str	r2, [r3, #0]
 1344              		.loc 1 846 0
 1345 00ce 7B89     		ldrh	r3, [r7, #10]	@ movhi
 1346 00d0 03F10103 		add	r3, r3, #1
 1347 00d4 7B81     		strh	r3, [r7, #10]	@ movhi
 1348              	.L98:
 1349 00d6 40F20003 		movw	r3, #:lower16:OSCfg_TmrWheelSize
 1350 00da C0F20003 		movt	r3, #:upper16:OSCfg_TmrWheelSize
 1351 00de 1B88     		ldrh	r3, [r3, #0]
 1352 00e0 7A89     		ldrh	r2, [r7, #10]
 1353 00e2 9A42     		cmp	r2, r3
 1354 00e4 DED3     		bcc	.L99
 851:C:\Micrium\Software\uCOS-III\Source\os_tmr.c ****     }
 852:C:\Micrium\Software\uCOS-III\Source\os_tmr.c **** 
 853:C:\Micrium\Software\uCOS-III\Source\os_tmr.c ****                                                             /* ---------------- CREATE THE TIMER TA
 854:C:\Micrium\Software\uCOS-III\Source\os_tmr.c ****     if (OSCfg_TmrTaskStkBasePtr == (CPU_STK*)0) {
 1355              		.loc 1 854 0
 1356 00e6 40F20003 		movw	r3, #:lower16:OSCfg_TmrTaskStkBasePtr
 1357 00ea C0F20003 		movt	r3, #:upper16:OSCfg_TmrTaskStkBasePtr
 1358 00ee 1B68     		ldr	r3, [r3, #0]
 1359 00f0 002B     		cmp	r3, #0
 1360 00f2 04D1     		bne	.L100
ARM GAS  C:\Users\daniel01\AppData\Local\Temp\ccxoNE0f.s 			page 40


 855:C:\Micrium\Software\uCOS-III\Source\os_tmr.c ****        *p_err = OS_ERR_TMR_STK_INVALID;
 1361              		.loc 1 855 0
 1362 00f4 7B68     		ldr	r3, [r7, #4]
 1363 00f6 47F24732 		movw	r2, #29511
 1364 00fa 1A80     		strh	r2, [r3, #0]	@ movhi
 856:C:\Micrium\Software\uCOS-III\Source\os_tmr.c ****         return;
 1365              		.loc 1 856 0
 1366 00fc 52E0     		b	.L104
 1367              	.L100:
 857:C:\Micrium\Software\uCOS-III\Source\os_tmr.c ****     }
 858:C:\Micrium\Software\uCOS-III\Source\os_tmr.c **** 
 859:C:\Micrium\Software\uCOS-III\Source\os_tmr.c ****     if (OSCfg_TmrTaskStkSize < OSCfg_StkSizeMin) {
 1368              		.loc 1 859 0
 1369 00fe 40F20003 		movw	r3, #:lower16:OSCfg_TmrTaskStkSize
 1370 0102 C0F20003 		movt	r3, #:upper16:OSCfg_TmrTaskStkSize
 1371 0106 1A68     		ldr	r2, [r3, #0]
 1372 0108 40F20003 		movw	r3, #:lower16:OSCfg_StkSizeMin
 1373 010c C0F20003 		movt	r3, #:upper16:OSCfg_StkSizeMin
 1374 0110 1B68     		ldr	r3, [r3, #0]
 1375 0112 9A42     		cmp	r2, r3
 1376 0114 04D2     		bcs	.L102
 860:C:\Micrium\Software\uCOS-III\Source\os_tmr.c ****        *p_err = OS_ERR_TMR_STK_SIZE_INVALID;
 1377              		.loc 1 860 0
 1378 0116 7B68     		ldr	r3, [r7, #4]
 1379 0118 47F24832 		movw	r2, #29512
 1380 011c 1A80     		strh	r2, [r3, #0]	@ movhi
 861:C:\Micrium\Software\uCOS-III\Source\os_tmr.c ****         return;
 1381              		.loc 1 861 0
 1382 011e 41E0     		b	.L104
 1383              	.L102:
 862:C:\Micrium\Software\uCOS-III\Source\os_tmr.c ****     }
 863:C:\Micrium\Software\uCOS-III\Source\os_tmr.c **** 
 864:C:\Micrium\Software\uCOS-III\Source\os_tmr.c ****     if (OSCfg_TmrTaskPrio >= (OS_CFG_PRIO_MAX - 1u)) {
 1384              		.loc 1 864 0
 1385 0120 40F20003 		movw	r3, #:lower16:OSCfg_TmrTaskPrio
 1386 0124 C0F20003 		movt	r3, #:upper16:OSCfg_TmrTaskPrio
 1387 0128 1B78     		ldrb	r3, [r3, #0]	@ zero_extendqisi2
 1388 012a 062B     		cmp	r3, #6
 1389 012c 04D9     		bls	.L103
 865:C:\Micrium\Software\uCOS-III\Source\os_tmr.c ****        *p_err = OS_ERR_TMR_PRIO_INVALID;
 1390              		.loc 1 865 0
 1391 012e 7B68     		ldr	r3, [r7, #4]
 1392 0130 47F24632 		movw	r2, #29510
 1393 0134 1A80     		strh	r2, [r3, #0]	@ movhi
 866:C:\Micrium\Software\uCOS-III\Source\os_tmr.c ****         return;
 1394              		.loc 1 866 0
 1395 0136 35E0     		b	.L104
 1396              	.L103:
 867:C:\Micrium\Software\uCOS-III\Source\os_tmr.c ****     }
 868:C:\Micrium\Software\uCOS-III\Source\os_tmr.c **** 
 869:C:\Micrium\Software\uCOS-III\Source\os_tmr.c ****     OSTaskCreate((OS_TCB     *)&OSTmrTaskTCB,
 1397              		.loc 1 869 0
 1398 0138 40F20003 		movw	r3, #:lower16:OSCfg_TmrTaskPrio
 1399 013c C0F20003 		movt	r3, #:upper16:OSCfg_TmrTaskPrio
 1400 0140 1878     		ldrb	r0, [r3, #0]	@ zero_extendqisi2
 1401 0142 40F20003 		movw	r3, #:lower16:OSCfg_TmrTaskStkBasePtr
 1402 0146 C0F20003 		movt	r3, #:upper16:OSCfg_TmrTaskStkBasePtr
ARM GAS  C:\Users\daniel01\AppData\Local\Temp\ccxoNE0f.s 			page 41


 1403 014a 1968     		ldr	r1, [r3, #0]
 1404 014c 40F20003 		movw	r3, #:lower16:OSCfg_TmrTaskStkLimit
 1405 0150 C0F20003 		movt	r3, #:upper16:OSCfg_TmrTaskStkLimit
 1406 0154 1A68     		ldr	r2, [r3, #0]
 1407 0156 40F20003 		movw	r3, #:lower16:OSCfg_TmrTaskStkSize
 1408 015a C0F20003 		movt	r3, #:upper16:OSCfg_TmrTaskStkSize
 1409 015e 1B68     		ldr	r3, [r3, #0]
 1410 0160 0090     		str	r0, [sp, #0]
 1411 0162 0191     		str	r1, [sp, #4]
 1412 0164 0292     		str	r2, [sp, #8]
 1413 0166 0393     		str	r3, [sp, #12]
 1414 0168 4FF00003 		mov	r3, #0
 1415 016c 0493     		str	r3, [sp, #16]
 1416 016e 4FF00003 		mov	r3, #0
 1417 0172 0593     		str	r3, [sp, #20]
 1418 0174 4FF00003 		mov	r3, #0
 1419 0178 0693     		str	r3, [sp, #24]
 1420 017a 4FF00B03 		mov	r3, #11
 1421 017e 0793     		str	r3, [sp, #28]
 1422 0180 7B68     		ldr	r3, [r7, #4]
 1423 0182 0893     		str	r3, [sp, #32]
 1424 0184 40F20000 		movw	r0, #:lower16:OSTmrTaskTCB
 1425 0188 C0F20000 		movt	r0, #:upper16:OSTmrTaskTCB
 1426 018c 40F20001 		movw	r1, #:lower16:.LC1
 1427 0190 C0F20001 		movt	r1, #:upper16:.LC1
 1428 0194 40F20002 		movw	r2, #:lower16:OS_TmrTask
 1429 0198 C0F20002 		movt	r2, #:upper16:OS_TmrTask
 1430 019c 4FF00003 		mov	r3, #0
 1431 01a0 FFF7FEFF 		bl	OSTaskCreate
 1432              	.L104:
 870:C:\Micrium\Software\uCOS-III\Source\os_tmr.c ****                  (CPU_CHAR   *)((void *)"uC/OS-III Timer Task"),
 871:C:\Micrium\Software\uCOS-III\Source\os_tmr.c ****                  (OS_TASK_PTR )OS_TmrTask,
 872:C:\Micrium\Software\uCOS-III\Source\os_tmr.c ****                  (void       *)0,
 873:C:\Micrium\Software\uCOS-III\Source\os_tmr.c ****                  (OS_PRIO     )OSCfg_TmrTaskPrio,
 874:C:\Micrium\Software\uCOS-III\Source\os_tmr.c ****                  (CPU_STK    *)OSCfg_TmrTaskStkBasePtr,
 875:C:\Micrium\Software\uCOS-III\Source\os_tmr.c ****                  (CPU_STK_SIZE)OSCfg_TmrTaskStkLimit,
 876:C:\Micrium\Software\uCOS-III\Source\os_tmr.c ****                  (CPU_STK_SIZE)OSCfg_TmrTaskStkSize,
 877:C:\Micrium\Software\uCOS-III\Source\os_tmr.c ****                  (OS_MSG_QTY  )0,
 878:C:\Micrium\Software\uCOS-III\Source\os_tmr.c ****                  (OS_TICK     )0,
 879:C:\Micrium\Software\uCOS-III\Source\os_tmr.c ****                  (void       *)0,
 880:C:\Micrium\Software\uCOS-III\Source\os_tmr.c ****                  (OS_OPT      )(OS_OPT_TASK_STK_CHK | OS_OPT_TASK_STK_CLR | OS_OPT_TASK_NO_TLS),
 881:C:\Micrium\Software\uCOS-III\Source\os_tmr.c ****                  (OS_ERR     *)p_err);
 882:C:\Micrium\Software\uCOS-III\Source\os_tmr.c **** }
 1433              		.loc 1 882 0
 1434 01a4 07F11007 		add	r7, r7, #16
 1435 01a8 BD46     		mov	sp, r7
 1436 01aa 80BD     		pop	{r7, pc}
 1437              		.cfi_endproc
 1438              	.LFE9:
 1439              		.size	OS_TmrInit, .-OS_TmrInit
 1440              		.section	.text.OS_TmrLink,"ax",%progbits
 1441              		.align	2
 1442              		.global	OS_TmrLink
 1443              		.thumb
 1444              		.thumb_func
 1445              		.type	OS_TmrLink, %function
 1446              	OS_TmrLink:
ARM GAS  C:\Users\daniel01\AppData\Local\Temp\ccxoNE0f.s 			page 42


 1447              	.LFB10:
 883:C:\Micrium\Software\uCOS-III\Source\os_tmr.c **** 
 884:C:\Micrium\Software\uCOS-III\Source\os_tmr.c **** /*$PAGE*/
 885:C:\Micrium\Software\uCOS-III\Source\os_tmr.c **** /*
 886:C:\Micrium\Software\uCOS-III\Source\os_tmr.c **** ***************************************************************************************************
 887:C:\Micrium\Software\uCOS-III\Source\os_tmr.c **** *                                         INSERT A TIMER INTO THE TIMER WHEEL
 888:C:\Micrium\Software\uCOS-III\Source\os_tmr.c **** *
 889:C:\Micrium\Software\uCOS-III\Source\os_tmr.c **** * Description: This function is called to insert the timer into the timer wheel.  The timer is alwa
 890:C:\Micrium\Software\uCOS-III\Source\os_tmr.c **** *              beginning of the list.
 891:C:\Micrium\Software\uCOS-III\Source\os_tmr.c **** *
 892:C:\Micrium\Software\uCOS-III\Source\os_tmr.c **** * Arguments  : p_tmr          Is a pointer to the timer to insert.
 893:C:\Micrium\Software\uCOS-III\Source\os_tmr.c **** *              -----
 894:C:\Micrium\Software\uCOS-III\Source\os_tmr.c **** *
 895:C:\Micrium\Software\uCOS-III\Source\os_tmr.c **** *              opt            Is either:
 896:C:\Micrium\Software\uCOS-III\Source\os_tmr.c **** *
 897:C:\Micrium\Software\uCOS-III\Source\os_tmr.c **** *                               OS_OPT_LINK_PERIODIC    Means to re-insert the timer after a period
 898:C:\Micrium\Software\uCOS-III\Source\os_tmr.c **** *                               OS_OPT_LINK_DLY         Means to insert    the timer the first time
 899:C:\Micrium\Software\uCOS-III\Source\os_tmr.c **** *
 900:C:\Micrium\Software\uCOS-III\Source\os_tmr.c **** * Returns    : none
 901:C:\Micrium\Software\uCOS-III\Source\os_tmr.c **** *
 902:C:\Micrium\Software\uCOS-III\Source\os_tmr.c **** * Note(s)    : 1) This function is INTERNAL to uC/OS-III and your application MUST NOT call it.
 903:C:\Micrium\Software\uCOS-III\Source\os_tmr.c **** ***************************************************************************************************
 904:C:\Micrium\Software\uCOS-III\Source\os_tmr.c **** */
 905:C:\Micrium\Software\uCOS-III\Source\os_tmr.c **** 
 906:C:\Micrium\Software\uCOS-III\Source\os_tmr.c **** void  OS_TmrLink (OS_TMR  *p_tmr,
 907:C:\Micrium\Software\uCOS-III\Source\os_tmr.c ****                   OS_OPT   opt)
 908:C:\Micrium\Software\uCOS-III\Source\os_tmr.c **** {
 1448              		.loc 1 908 0
 1449              		.cfi_startproc
 1450              		@ args = 0, pretend = 0, frame = 24
 1451              		@ frame_needed = 1, uses_anonymous_args = 0
 1452              		@ link register save eliminated.
 1453 0000 80B4     		push	{r7}
 1454              	.LCFI30:
 1455              		.cfi_def_cfa_offset 4
 1456 0002 87B0     		sub	sp, sp, #28
 1457              	.LCFI31:
 1458              		.cfi_def_cfa_offset 32
 1459 0004 00AF     		add	r7, sp, #0
 1460              		.cfi_offset 7, -4
 1461              	.LCFI32:
 1462              		.cfi_def_cfa_register 7
 1463 0006 7860     		str	r0, [r7, #4]
 1464 0008 0B46     		mov	r3, r1
 1465 000a 7B80     		strh	r3, [r7, #2]	@ movhi
 909:C:\Micrium\Software\uCOS-III\Source\os_tmr.c ****     OS_TMR_SPOKE     *p_spoke;
 910:C:\Micrium\Software\uCOS-III\Source\os_tmr.c ****     OS_TMR           *p_tmr0;
 911:C:\Micrium\Software\uCOS-III\Source\os_tmr.c ****     OS_TMR           *p_tmr1;
 912:C:\Micrium\Software\uCOS-III\Source\os_tmr.c ****     OS_TMR_SPOKE_IX   spoke;
 913:C:\Micrium\Software\uCOS-III\Source\os_tmr.c **** 
 914:C:\Micrium\Software\uCOS-III\Source\os_tmr.c **** 
 915:C:\Micrium\Software\uCOS-III\Source\os_tmr.c **** 
 916:C:\Micrium\Software\uCOS-III\Source\os_tmr.c ****     p_tmr->State = OS_TMR_STATE_RUNNING;
 1466              		.loc 1 916 0
 1467 000c 7B68     		ldr	r3, [r7, #4]
 1468 000e 4FF00202 		mov	r2, #2
 1469 0012 83F82A20 		strb	r2, [r3, #42]
ARM GAS  C:\Users\daniel01\AppData\Local\Temp\ccxoNE0f.s 			page 43


 917:C:\Micrium\Software\uCOS-III\Source\os_tmr.c ****     if (opt == OS_OPT_LINK_PERIODIC) {                      /* Determine when timer will expire    
 1470              		.loc 1 917 0
 1471 0016 7B88     		ldrh	r3, [r7, #2]
 1472 0018 012B     		cmp	r3, #1
 1473 001a 0AD1     		bne	.L106
 918:C:\Micrium\Software\uCOS-III\Source\os_tmr.c ****         p_tmr->Match = p_tmr->Period + OSTmrTickCtr;
 1474              		.loc 1 918 0
 1475 001c 7B68     		ldr	r3, [r7, #4]
 1476 001e 5A6A     		ldr	r2, [r3, #36]
 1477 0020 40F20003 		movw	r3, #:lower16:OSTmrTickCtr
 1478 0024 C0F20003 		movt	r3, #:upper16:OSTmrTickCtr
 1479 0028 1B68     		ldr	r3, [r3, #0]
 1480 002a 1A44     		add	r2, r2, r3
 1481 002c 7B68     		ldr	r3, [r7, #4]
 1482 002e 9A61     		str	r2, [r3, #24]
 1483 0030 18E0     		b	.L107
 1484              	.L106:
 919:C:\Micrium\Software\uCOS-III\Source\os_tmr.c ****     } else {
 920:C:\Micrium\Software\uCOS-III\Source\os_tmr.c ****         if (p_tmr->Dly == (OS_TICK)0) {
 1485              		.loc 1 920 0
 1486 0032 7B68     		ldr	r3, [r7, #4]
 1487 0034 1B6A     		ldr	r3, [r3, #32]
 1488 0036 002B     		cmp	r3, #0
 1489 0038 0AD1     		bne	.L108
 921:C:\Micrium\Software\uCOS-III\Source\os_tmr.c ****             p_tmr->Match = p_tmr->Period + OSTmrTickCtr;
 1490              		.loc 1 921 0
 1491 003a 7B68     		ldr	r3, [r7, #4]
 1492 003c 5A6A     		ldr	r2, [r3, #36]
 1493 003e 40F20003 		movw	r3, #:lower16:OSTmrTickCtr
 1494 0042 C0F20003 		movt	r3, #:upper16:OSTmrTickCtr
 1495 0046 1B68     		ldr	r3, [r3, #0]
 1496 0048 1A44     		add	r2, r2, r3
 1497 004a 7B68     		ldr	r3, [r7, #4]
 1498 004c 9A61     		str	r2, [r3, #24]
 1499 004e 09E0     		b	.L107
 1500              	.L108:
 922:C:\Micrium\Software\uCOS-III\Source\os_tmr.c ****         } else {
 923:C:\Micrium\Software\uCOS-III\Source\os_tmr.c ****             p_tmr->Match = p_tmr->Dly    + OSTmrTickCtr;
 1501              		.loc 1 923 0
 1502 0050 7B68     		ldr	r3, [r7, #4]
 1503 0052 1A6A     		ldr	r2, [r3, #32]
 1504 0054 40F20003 		movw	r3, #:lower16:OSTmrTickCtr
 1505 0058 C0F20003 		movt	r3, #:upper16:OSTmrTickCtr
 1506 005c 1B68     		ldr	r3, [r3, #0]
 1507 005e 1A44     		add	r2, r2, r3
 1508 0060 7B68     		ldr	r3, [r7, #4]
 1509 0062 9A61     		str	r2, [r3, #24]
 1510              	.L107:
 924:C:\Micrium\Software\uCOS-III\Source\os_tmr.c ****         }
 925:C:\Micrium\Software\uCOS-III\Source\os_tmr.c ****     }
 926:C:\Micrium\Software\uCOS-III\Source\os_tmr.c ****     spoke  = (OS_TMR_SPOKE_IX)(p_tmr->Match % OSCfg_TmrWheelSize);
 1511              		.loc 1 926 0
 1512 0064 7B68     		ldr	r3, [r7, #4]
 1513 0066 9A69     		ldr	r2, [r3, #24]
 1514 0068 40F20003 		movw	r3, #:lower16:OSCfg_TmrWheelSize
 1515 006c C0F20003 		movt	r3, #:upper16:OSCfg_TmrWheelSize
 1516 0070 1B88     		ldrh	r3, [r3, #0]
ARM GAS  C:\Users\daniel01\AppData\Local\Temp\ccxoNE0f.s 			page 44


 1517 0072 B2FBF3F1 		udiv	r1, r2, r3
 1518 0076 03FB01F3 		mul	r3, r3, r1
 1519 007a C3EB0203 		rsb	r3, r3, r2
 1520 007e FB82     		strh	r3, [r7, #22]	@ movhi
 927:C:\Micrium\Software\uCOS-III\Source\os_tmr.c ****     p_spoke = &OSCfg_TmrWheel[spoke];
 1521              		.loc 1 927 0
 1522 0080 FB8A     		ldrh	r3, [r7, #22]
 1523 0082 4FEAC302 		lsl	r2, r3, #3
 1524 0086 40F20003 		movw	r3, #:lower16:OSCfg_TmrWheel
 1525 008a C0F20003 		movt	r3, #:upper16:OSCfg_TmrWheel
 1526 008e 1344     		add	r3, r2, r3
 1527 0090 BB60     		str	r3, [r7, #8]
 928:C:\Micrium\Software\uCOS-III\Source\os_tmr.c **** 
 929:C:\Micrium\Software\uCOS-III\Source\os_tmr.c ****     if (p_spoke->FirstPtr ==  (OS_TMR *)0) {                /* Link into timer wheel               
 1528              		.loc 1 929 0
 1529 0092 BB68     		ldr	r3, [r7, #8]
 1530 0094 1B68     		ldr	r3, [r3, #0]
 1531 0096 002B     		cmp	r3, #0
 1532 0098 0FD1     		bne	.L109
 930:C:\Micrium\Software\uCOS-III\Source\os_tmr.c ****         p_tmr->NextPtr      = (OS_TMR *)0;
 1533              		.loc 1 930 0
 1534 009a 7B68     		ldr	r3, [r7, #4]
 1535 009c 4FF00002 		mov	r2, #0
 1536 00a0 1A61     		str	r2, [r3, #16]
 931:C:\Micrium\Software\uCOS-III\Source\os_tmr.c ****         p_tmr->PrevPtr      = (OS_TMR *)0;
 1537              		.loc 1 931 0
 1538 00a2 7B68     		ldr	r3, [r7, #4]
 1539 00a4 4FF00002 		mov	r2, #0
 1540 00a8 5A61     		str	r2, [r3, #20]
 932:C:\Micrium\Software\uCOS-III\Source\os_tmr.c ****         p_spoke->FirstPtr   = p_tmr;
 1541              		.loc 1 932 0
 1542 00aa BB68     		ldr	r3, [r7, #8]
 1543 00ac 7A68     		ldr	r2, [r7, #4]
 1544 00ae 1A60     		str	r2, [r3, #0]
 933:C:\Micrium\Software\uCOS-III\Source\os_tmr.c ****         p_spoke->NbrEntries = 1u;
 1545              		.loc 1 933 0
 1546 00b0 BB68     		ldr	r3, [r7, #8]
 1547 00b2 4FF00102 		mov	r2, #1
 1548 00b6 9A80     		strh	r2, [r3, #4]	@ movhi
 1549 00b8 63E0     		b	.L110
 1550              	.L109:
 934:C:\Micrium\Software\uCOS-III\Source\os_tmr.c ****     } else {
 935:C:\Micrium\Software\uCOS-III\Source\os_tmr.c ****         p_tmr->Remain  = p_tmr->Match                       /* Compute remaining time for timer    
 1551              		.loc 1 935 0
 1552 00ba 7B68     		ldr	r3, [r7, #4]
 1553 00bc 9A69     		ldr	r2, [r3, #24]
 1554 00be 40F20003 		movw	r3, #:lower16:OSTmrTickCtr
 1555 00c2 C0F20003 		movt	r3, #:upper16:OSTmrTickCtr
 1556 00c6 1B68     		ldr	r3, [r3, #0]
 1557 00c8 C3EB0202 		rsb	r2, r3, r2
 1558 00cc 7B68     		ldr	r3, [r7, #4]
 1559 00ce DA61     		str	r2, [r3, #28]
 936:C:\Micrium\Software\uCOS-III\Source\os_tmr.c ****                        - OSTmrTickCtr;
 937:C:\Micrium\Software\uCOS-III\Source\os_tmr.c ****         p_tmr1         = p_spoke->FirstPtr;                 /* Point to current first timer in the 
 1560              		.loc 1 937 0
 1561 00d0 BB68     		ldr	r3, [r7, #8]
 1562 00d2 1B68     		ldr	r3, [r3, #0]
ARM GAS  C:\Users\daniel01\AppData\Local\Temp\ccxoNE0f.s 			page 45


 1563 00d4 3B61     		str	r3, [r7, #16]
 938:C:\Micrium\Software\uCOS-III\Source\os_tmr.c ****         while (p_tmr1 != (OS_TMR *)0) {
 1564              		.loc 1 938 0
 1565 00d6 4AE0     		b	.L111
 1566              	.L117:
 939:C:\Micrium\Software\uCOS-III\Source\os_tmr.c ****             p_tmr1->Remain = p_tmr1->Match                  /* Compute time remaining of current ti
 1567              		.loc 1 939 0
 1568 00d8 3B69     		ldr	r3, [r7, #16]
 1569 00da 9A69     		ldr	r2, [r3, #24]
 1570 00dc 40F20003 		movw	r3, #:lower16:OSTmrTickCtr
 1571 00e0 C0F20003 		movt	r3, #:upper16:OSTmrTickCtr
 1572 00e4 1B68     		ldr	r3, [r3, #0]
 1573 00e6 C3EB0202 		rsb	r2, r3, r2
 1574 00ea 3B69     		ldr	r3, [r7, #16]
 1575 00ec DA61     		str	r2, [r3, #28]
 940:C:\Micrium\Software\uCOS-III\Source\os_tmr.c ****                            - OSTmrTickCtr;
 941:C:\Micrium\Software\uCOS-III\Source\os_tmr.c ****             if (p_tmr->Remain > p_tmr1->Remain) {           /* Do we need to insert AFTER current t
 1576              		.loc 1 941 0
 1577 00ee 7B68     		ldr	r3, [r7, #4]
 1578 00f0 DA69     		ldr	r2, [r3, #28]
 1579 00f2 3B69     		ldr	r3, [r7, #16]
 1580 00f4 DB69     		ldr	r3, [r3, #28]
 1581 00f6 9A42     		cmp	r2, r3
 1582 00f8 15D9     		bls	.L112
 942:C:\Micrium\Software\uCOS-III\Source\os_tmr.c ****                 if (p_tmr1->NextPtr  != (OS_TMR *)0) {      /* Yes, are we pointing at the last tim
 1583              		.loc 1 942 0
 1584 00fa 3B69     		ldr	r3, [r7, #16]
 1585 00fc 1B69     		ldr	r3, [r3, #16]
 1586 00fe 002B     		cmp	r3, #0
 1587 0100 03D0     		beq	.L113
 943:C:\Micrium\Software\uCOS-III\Source\os_tmr.c ****                     p_tmr1            = p_tmr1->NextPtr;    /* No,  Point to next timer in the list
 1588              		.loc 1 943 0
 1589 0102 3B69     		ldr	r3, [r7, #16]
 1590 0104 1B69     		ldr	r3, [r3, #16]
 1591 0106 3B61     		str	r3, [r7, #16]
 944:C:\Micrium\Software\uCOS-III\Source\os_tmr.c ****                 } else {
 945:C:\Micrium\Software\uCOS-III\Source\os_tmr.c ****                     p_tmr->NextPtr    = (OS_TMR *)0;
 946:C:\Micrium\Software\uCOS-III\Source\os_tmr.c ****                     p_tmr->PrevPtr    =  p_tmr1;
 947:C:\Micrium\Software\uCOS-III\Source\os_tmr.c ****                     p_tmr1->NextPtr   =  p_tmr;             /* Yes, timer to insert is now new last
 948:C:\Micrium\Software\uCOS-III\Source\os_tmr.c ****                     p_tmr1            = (OS_TMR *)0;        /* Break loop                          
 1592              		.loc 1 948 0
 1593 0108 31E0     		b	.L111
 1594              	.L113:
 1595              		.loc 1 945 0
 1596 010a 7B68     		ldr	r3, [r7, #4]
 1597 010c 4FF00002 		mov	r2, #0
 1598 0110 1A61     		str	r2, [r3, #16]
 1599              		.loc 1 946 0
 1600 0112 7B68     		ldr	r3, [r7, #4]
 1601 0114 3A69     		ldr	r2, [r7, #16]
 1602 0116 5A61     		str	r2, [r3, #20]
 1603              		.loc 1 947 0
 1604 0118 3B69     		ldr	r3, [r7, #16]
 1605 011a 7A68     		ldr	r2, [r7, #4]
 1606 011c 1A61     		str	r2, [r3, #16]
 1607              		.loc 1 948 0
 1608 011e 4FF00003 		mov	r3, #0
ARM GAS  C:\Users\daniel01\AppData\Local\Temp\ccxoNE0f.s 			page 46


 1609 0122 3B61     		str	r3, [r7, #16]
 1610 0124 23E0     		b	.L111
 1611              	.L112:
 949:C:\Micrium\Software\uCOS-III\Source\os_tmr.c ****                 }
 950:C:\Micrium\Software\uCOS-III\Source\os_tmr.c ****             } else {                                        /* Insert before the current timer     
 951:C:\Micrium\Software\uCOS-III\Source\os_tmr.c ****                 if (p_tmr1->PrevPtr == (OS_TMR *)0) {       /* Are we inserting before the first ti
 1612              		.loc 1 951 0
 1613 0126 3B69     		ldr	r3, [r7, #16]
 1614 0128 5B69     		ldr	r3, [r3, #20]
 1615 012a 002B     		cmp	r3, #0
 1616 012c 0DD1     		bne	.L115
 952:C:\Micrium\Software\uCOS-III\Source\os_tmr.c ****                     p_tmr->PrevPtr    = (OS_TMR *)0;
 1617              		.loc 1 952 0
 1618 012e 7B68     		ldr	r3, [r7, #4]
 1619 0130 4FF00002 		mov	r2, #0
 1620 0134 5A61     		str	r2, [r3, #20]
 953:C:\Micrium\Software\uCOS-III\Source\os_tmr.c ****                     p_tmr->NextPtr    = p_tmr1;
 1621              		.loc 1 953 0
 1622 0136 7B68     		ldr	r3, [r7, #4]
 1623 0138 3A69     		ldr	r2, [r7, #16]
 1624 013a 1A61     		str	r2, [r3, #16]
 954:C:\Micrium\Software\uCOS-III\Source\os_tmr.c ****                     p_tmr1->PrevPtr   = p_tmr;
 1625              		.loc 1 954 0
 1626 013c 3B69     		ldr	r3, [r7, #16]
 1627 013e 7A68     		ldr	r2, [r7, #4]
 1628 0140 5A61     		str	r2, [r3, #20]
 955:C:\Micrium\Software\uCOS-III\Source\os_tmr.c ****                     p_spoke->FirstPtr = p_tmr;
 1629              		.loc 1 955 0
 1630 0142 BB68     		ldr	r3, [r7, #8]
 1631 0144 7A68     		ldr	r2, [r7, #4]
 1632 0146 1A60     		str	r2, [r3, #0]
 1633 0148 0EE0     		b	.L116
 1634              	.L115:
 956:C:\Micrium\Software\uCOS-III\Source\os_tmr.c ****                 } else {                                    /* Insert in between 2 timers already i
 957:C:\Micrium\Software\uCOS-III\Source\os_tmr.c ****                     p_tmr0            = p_tmr1->PrevPtr;
 1635              		.loc 1 957 0
 1636 014a 3B69     		ldr	r3, [r7, #16]
 1637 014c 5B69     		ldr	r3, [r3, #20]
 1638 014e FB60     		str	r3, [r7, #12]
 958:C:\Micrium\Software\uCOS-III\Source\os_tmr.c ****                     p_tmr->PrevPtr    = p_tmr0;
 1639              		.loc 1 958 0
 1640 0150 7B68     		ldr	r3, [r7, #4]
 1641 0152 FA68     		ldr	r2, [r7, #12]
 1642 0154 5A61     		str	r2, [r3, #20]
 959:C:\Micrium\Software\uCOS-III\Source\os_tmr.c ****                     p_tmr->NextPtr    = p_tmr1;
 1643              		.loc 1 959 0
 1644 0156 7B68     		ldr	r3, [r7, #4]
 1645 0158 3A69     		ldr	r2, [r7, #16]
 1646 015a 1A61     		str	r2, [r3, #16]
 960:C:\Micrium\Software\uCOS-III\Source\os_tmr.c ****                     p_tmr0->NextPtr   = p_tmr;
 1647              		.loc 1 960 0
 1648 015c FB68     		ldr	r3, [r7, #12]
 1649 015e 7A68     		ldr	r2, [r7, #4]
 1650 0160 1A61     		str	r2, [r3, #16]
 961:C:\Micrium\Software\uCOS-III\Source\os_tmr.c ****                     p_tmr1->PrevPtr   = p_tmr;
 1651              		.loc 1 961 0
 1652 0162 3B69     		ldr	r3, [r7, #16]
ARM GAS  C:\Users\daniel01\AppData\Local\Temp\ccxoNE0f.s 			page 47


 1653 0164 7A68     		ldr	r2, [r7, #4]
 1654 0166 5A61     		str	r2, [r3, #20]
 1655              	.L116:
 962:C:\Micrium\Software\uCOS-III\Source\os_tmr.c ****                 }
 963:C:\Micrium\Software\uCOS-III\Source\os_tmr.c ****                 p_tmr1 = (OS_TMR *)0;                       /* Break loop                          
 1656              		.loc 1 963 0
 1657 0168 4FF00003 		mov	r3, #0
 1658 016c 3B61     		str	r3, [r7, #16]
 1659              	.L111:
 1660              		.loc 1 938 0
 1661 016e 3B69     		ldr	r3, [r7, #16]
 1662 0170 002B     		cmp	r3, #0
 1663 0172 B1D1     		bne	.L117
 964:C:\Micrium\Software\uCOS-III\Source\os_tmr.c ****             }
 965:C:\Micrium\Software\uCOS-III\Source\os_tmr.c ****         }
 966:C:\Micrium\Software\uCOS-III\Source\os_tmr.c ****         p_spoke->NbrEntries++;
 1664              		.loc 1 966 0
 1665 0174 BB68     		ldr	r3, [r7, #8]
 1666 0176 9B88     		ldrh	r3, [r3, #4]
 1667 0178 03F10103 		add	r3, r3, #1
 1668 017c 9AB2     		uxth	r2, r3
 1669 017e BB68     		ldr	r3, [r7, #8]
 1670 0180 9A80     		strh	r2, [r3, #4]	@ movhi
 1671              	.L110:
 967:C:\Micrium\Software\uCOS-III\Source\os_tmr.c ****     }
 968:C:\Micrium\Software\uCOS-III\Source\os_tmr.c ****     if (p_spoke->NbrEntriesMax < p_spoke->NbrEntries) {     /* Keep track of maximum number of entr
 1672              		.loc 1 968 0
 1673 0182 BB68     		ldr	r3, [r7, #8]
 1674 0184 DA88     		ldrh	r2, [r3, #6]
 1675 0186 BB68     		ldr	r3, [r7, #8]
 1676 0188 9B88     		ldrh	r3, [r3, #4]
 1677 018a 9A42     		cmp	r2, r3
 1678 018c 03D2     		bcs	.L119
 969:C:\Micrium\Software\uCOS-III\Source\os_tmr.c ****         p_spoke->NbrEntriesMax = p_spoke->NbrEntries;
 1679              		.loc 1 969 0
 1680 018e BB68     		ldr	r3, [r7, #8]
 1681 0190 9A88     		ldrh	r2, [r3, #4]
 1682 0192 BB68     		ldr	r3, [r7, #8]
 1683 0194 DA80     		strh	r2, [r3, #6]	@ movhi
 1684              	.L119:
 970:C:\Micrium\Software\uCOS-III\Source\os_tmr.c ****     }
 971:C:\Micrium\Software\uCOS-III\Source\os_tmr.c **** }
 1685              		.loc 1 971 0
 1686 0196 07F11C07 		add	r7, r7, #28
 1687 019a BD46     		mov	sp, r7
 1688 019c 80BC     		pop	{r7}
 1689 019e 7047     		bx	lr
 1690              		.cfi_endproc
 1691              	.LFE10:
 1692              		.size	OS_TmrLink, .-OS_TmrLink
 1693              		.section	.text.OS_TmrResetPeak,"ax",%progbits
 1694              		.align	2
 1695              		.global	OS_TmrResetPeak
 1696              		.thumb
 1697              		.thumb_func
 1698              		.type	OS_TmrResetPeak, %function
 1699              	OS_TmrResetPeak:
ARM GAS  C:\Users\daniel01\AppData\Local\Temp\ccxoNE0f.s 			page 48


 1700              	.LFB11:
 972:C:\Micrium\Software\uCOS-III\Source\os_tmr.c **** 
 973:C:\Micrium\Software\uCOS-III\Source\os_tmr.c **** /*$PAGE*/
 974:C:\Micrium\Software\uCOS-III\Source\os_tmr.c **** /*
 975:C:\Micrium\Software\uCOS-III\Source\os_tmr.c **** ***************************************************************************************************
 976:C:\Micrium\Software\uCOS-III\Source\os_tmr.c **** *                                              RESET TIMER LIST PEAK DETECTOR
 977:C:\Micrium\Software\uCOS-III\Source\os_tmr.c **** *
 978:C:\Micrium\Software\uCOS-III\Source\os_tmr.c **** * Description: This function is used to reset the peak detector for the number of entries in each s
 979:C:\Micrium\Software\uCOS-III\Source\os_tmr.c **** *
 980:C:\Micrium\Software\uCOS-III\Source\os_tmr.c **** * Arguments  : void
 981:C:\Micrium\Software\uCOS-III\Source\os_tmr.c **** *
 982:C:\Micrium\Software\uCOS-III\Source\os_tmr.c **** * Returns    : none
 983:C:\Micrium\Software\uCOS-III\Source\os_tmr.c **** *
 984:C:\Micrium\Software\uCOS-III\Source\os_tmr.c **** * Note(s)    : This function is INTERNAL to uC/OS-III and your application should not call it.
 985:C:\Micrium\Software\uCOS-III\Source\os_tmr.c **** ***************************************************************************************************
 986:C:\Micrium\Software\uCOS-III\Source\os_tmr.c **** */
 987:C:\Micrium\Software\uCOS-III\Source\os_tmr.c **** 
 988:C:\Micrium\Software\uCOS-III\Source\os_tmr.c **** void  OS_TmrResetPeak (void)
 989:C:\Micrium\Software\uCOS-III\Source\os_tmr.c **** {
 1701              		.loc 1 989 0
 1702              		.cfi_startproc
 1703              		@ args = 0, pretend = 0, frame = 8
 1704              		@ frame_needed = 1, uses_anonymous_args = 0
 1705              		@ link register save eliminated.
 1706 0000 80B4     		push	{r7}
 1707              	.LCFI33:
 1708              		.cfi_def_cfa_offset 4
 1709 0002 83B0     		sub	sp, sp, #12
 1710              	.LCFI34:
 1711              		.cfi_def_cfa_offset 16
 1712 0004 00AF     		add	r7, sp, #0
 1713              		.cfi_offset 7, -4
 1714              	.LCFI35:
 1715              		.cfi_def_cfa_register 7
 990:C:\Micrium\Software\uCOS-III\Source\os_tmr.c ****     OS_TMR_SPOKE     *p_spoke;
 991:C:\Micrium\Software\uCOS-III\Source\os_tmr.c ****     OS_TMR_SPOKE_IX   i;
 992:C:\Micrium\Software\uCOS-III\Source\os_tmr.c **** 
 993:C:\Micrium\Software\uCOS-III\Source\os_tmr.c **** 
 994:C:\Micrium\Software\uCOS-III\Source\os_tmr.c **** 
 995:C:\Micrium\Software\uCOS-III\Source\os_tmr.c ****     for (i = 0u; i < OSCfg_TmrWheelSize; i++) {
 1716              		.loc 1 995 0
 1717 0006 4FF00003 		mov	r3, #0
 1718 000a FB80     		strh	r3, [r7, #6]	@ movhi
 1719 000c 10E0     		b	.L121
 1720              	.L122:
 996:C:\Micrium\Software\uCOS-III\Source\os_tmr.c ****         p_spoke                = (OS_TMR_SPOKE *)&OSCfg_TmrWheel[i];
 1721              		.loc 1 996 0
 1722 000e FB88     		ldrh	r3, [r7, #6]
 1723 0010 4FEAC302 		lsl	r2, r3, #3
 1724 0014 40F20003 		movw	r3, #:lower16:OSCfg_TmrWheel
 1725 0018 C0F20003 		movt	r3, #:upper16:OSCfg_TmrWheel
 1726 001c 1344     		add	r3, r2, r3
 1727 001e 3B60     		str	r3, [r7, #0]
 997:C:\Micrium\Software\uCOS-III\Source\os_tmr.c ****         p_spoke->NbrEntriesMax = (OS_OBJ_QTY    )0u;
 1728              		.loc 1 997 0
 1729 0020 3B68     		ldr	r3, [r7, #0]
 1730 0022 4FF00002 		mov	r2, #0
ARM GAS  C:\Users\daniel01\AppData\Local\Temp\ccxoNE0f.s 			page 49


 1731 0026 DA80     		strh	r2, [r3, #6]	@ movhi
 1732              		.loc 1 995 0
 1733 0028 FB88     		ldrh	r3, [r7, #6]	@ movhi
 1734 002a 03F10103 		add	r3, r3, #1
 1735 002e FB80     		strh	r3, [r7, #6]	@ movhi
 1736              	.L121:
 1737 0030 40F20003 		movw	r3, #:lower16:OSCfg_TmrWheelSize
 1738 0034 C0F20003 		movt	r3, #:upper16:OSCfg_TmrWheelSize
 1739 0038 1B88     		ldrh	r3, [r3, #0]
 1740 003a FA88     		ldrh	r2, [r7, #6]
 1741 003c 9A42     		cmp	r2, r3
 1742 003e E6D3     		bcc	.L122
 998:C:\Micrium\Software\uCOS-III\Source\os_tmr.c ****     }
 999:C:\Micrium\Software\uCOS-III\Source\os_tmr.c **** }
 1743              		.loc 1 999 0
 1744 0040 07F10C07 		add	r7, r7, #12
 1745 0044 BD46     		mov	sp, r7
 1746 0046 80BC     		pop	{r7}
 1747 0048 7047     		bx	lr
 1748              		.cfi_endproc
 1749              	.LFE11:
 1750              		.size	OS_TmrResetPeak, .-OS_TmrResetPeak
 1751 004a 00BF     		.section	.text.OS_TmrUnlink,"ax",%progbits
 1752              		.align	2
 1753              		.global	OS_TmrUnlink
 1754              		.thumb
 1755              		.thumb_func
 1756              		.type	OS_TmrUnlink, %function
 1757              	OS_TmrUnlink:
 1758              	.LFB12:
1000:C:\Micrium\Software\uCOS-III\Source\os_tmr.c **** 
1001:C:\Micrium\Software\uCOS-III\Source\os_tmr.c **** /*$PAGE*/
1002:C:\Micrium\Software\uCOS-III\Source\os_tmr.c **** /*
1003:C:\Micrium\Software\uCOS-III\Source\os_tmr.c **** ***************************************************************************************************
1004:C:\Micrium\Software\uCOS-III\Source\os_tmr.c **** *                                         REMOVE A TIMER FROM THE TIMER WHEEL
1005:C:\Micrium\Software\uCOS-III\Source\os_tmr.c **** *
1006:C:\Micrium\Software\uCOS-III\Source\os_tmr.c **** * Description: This function is called to remove the timer from the timer wheel.
1007:C:\Micrium\Software\uCOS-III\Source\os_tmr.c **** *
1008:C:\Micrium\Software\uCOS-III\Source\os_tmr.c **** * Arguments  : p_tmr          Is a pointer to the timer to remove.
1009:C:\Micrium\Software\uCOS-III\Source\os_tmr.c **** *              -----
1010:C:\Micrium\Software\uCOS-III\Source\os_tmr.c **** *
1011:C:\Micrium\Software\uCOS-III\Source\os_tmr.c **** * Returns    : none
1012:C:\Micrium\Software\uCOS-III\Source\os_tmr.c **** *
1013:C:\Micrium\Software\uCOS-III\Source\os_tmr.c **** * Note(s)    : 1) This function is INTERNAL to uC/OS-III and your application MUST NOT call it.
1014:C:\Micrium\Software\uCOS-III\Source\os_tmr.c **** ***************************************************************************************************
1015:C:\Micrium\Software\uCOS-III\Source\os_tmr.c **** */
1016:C:\Micrium\Software\uCOS-III\Source\os_tmr.c **** 
1017:C:\Micrium\Software\uCOS-III\Source\os_tmr.c **** void  OS_TmrUnlink (OS_TMR  *p_tmr)
1018:C:\Micrium\Software\uCOS-III\Source\os_tmr.c **** {
 1759              		.loc 1 1018 0
 1760              		.cfi_startproc
 1761              		@ args = 0, pretend = 0, frame = 24
 1762              		@ frame_needed = 1, uses_anonymous_args = 0
 1763              		@ link register save eliminated.
 1764 0000 80B4     		push	{r7}
 1765              	.LCFI36:
 1766              		.cfi_def_cfa_offset 4
ARM GAS  C:\Users\daniel01\AppData\Local\Temp\ccxoNE0f.s 			page 50


 1767 0002 87B0     		sub	sp, sp, #28
 1768              	.LCFI37:
 1769              		.cfi_def_cfa_offset 32
 1770 0004 00AF     		add	r7, sp, #0
 1771              		.cfi_offset 7, -4
 1772              	.LCFI38:
 1773              		.cfi_def_cfa_register 7
 1774 0006 7860     		str	r0, [r7, #4]
1019:C:\Micrium\Software\uCOS-III\Source\os_tmr.c ****     OS_TMR_SPOKE    *p_spoke;
1020:C:\Micrium\Software\uCOS-III\Source\os_tmr.c ****     OS_TMR          *p_tmr1;
1021:C:\Micrium\Software\uCOS-III\Source\os_tmr.c ****     OS_TMR          *p_tmr2;
1022:C:\Micrium\Software\uCOS-III\Source\os_tmr.c ****     OS_TMR_SPOKE_IX  spoke;
1023:C:\Micrium\Software\uCOS-III\Source\os_tmr.c **** 
1024:C:\Micrium\Software\uCOS-III\Source\os_tmr.c **** 
1025:C:\Micrium\Software\uCOS-III\Source\os_tmr.c **** 
1026:C:\Micrium\Software\uCOS-III\Source\os_tmr.c ****     spoke   = (OS_TMR_SPOKE_IX)(p_tmr->Match % OSCfg_TmrWheelSize);
 1775              		.loc 1 1026 0
 1776 0008 7B68     		ldr	r3, [r7, #4]
 1777 000a 9A69     		ldr	r2, [r3, #24]
 1778 000c 40F20003 		movw	r3, #:lower16:OSCfg_TmrWheelSize
 1779 0010 C0F20003 		movt	r3, #:upper16:OSCfg_TmrWheelSize
 1780 0014 1B88     		ldrh	r3, [r3, #0]
 1781 0016 B2FBF3F1 		udiv	r1, r2, r3
 1782 001a 03FB01F3 		mul	r3, r3, r1
 1783 001e C3EB0203 		rsb	r3, r3, r2
 1784 0022 FB82     		strh	r3, [r7, #22]	@ movhi
1027:C:\Micrium\Software\uCOS-III\Source\os_tmr.c ****     p_spoke = &OSCfg_TmrWheel[spoke];
 1785              		.loc 1 1027 0
 1786 0024 FB8A     		ldrh	r3, [r7, #22]
 1787 0026 4FEAC302 		lsl	r2, r3, #3
 1788 002a 40F20003 		movw	r3, #:lower16:OSCfg_TmrWheel
 1789 002e C0F20003 		movt	r3, #:upper16:OSCfg_TmrWheel
 1790 0032 1344     		add	r3, r2, r3
 1791 0034 BB60     		str	r3, [r7, #8]
1028:C:\Micrium\Software\uCOS-III\Source\os_tmr.c **** 
1029:C:\Micrium\Software\uCOS-III\Source\os_tmr.c ****     if (p_spoke->FirstPtr == p_tmr) {                       /* See if timer to remove is at the beg
 1792              		.loc 1 1029 0
 1793 0036 BB68     		ldr	r3, [r7, #8]
 1794 0038 1A68     		ldr	r2, [r3, #0]
 1795 003a 7B68     		ldr	r3, [r7, #4]
 1796 003c 9A42     		cmp	r2, r3
 1797 003e 0DD1     		bne	.L125
1030:C:\Micrium\Software\uCOS-III\Source\os_tmr.c ****         p_tmr1            = (OS_TMR *)p_tmr->NextPtr;
 1798              		.loc 1 1030 0
 1799 0040 7B68     		ldr	r3, [r7, #4]
 1800 0042 1B69     		ldr	r3, [r3, #16]
 1801 0044 FB60     		str	r3, [r7, #12]
1031:C:\Micrium\Software\uCOS-III\Source\os_tmr.c ****         p_spoke->FirstPtr = (OS_TMR *)p_tmr1;
 1802              		.loc 1 1031 0
 1803 0046 BB68     		ldr	r3, [r7, #8]
 1804 0048 FA68     		ldr	r2, [r7, #12]
 1805 004a 1A60     		str	r2, [r3, #0]
1032:C:\Micrium\Software\uCOS-III\Source\os_tmr.c ****         if (p_tmr1 != (OS_TMR *)0) {
 1806              		.loc 1 1032 0
 1807 004c FB68     		ldr	r3, [r7, #12]
 1808 004e 002B     		cmp	r3, #0
 1809 0050 14D0     		beq	.L129
ARM GAS  C:\Users\daniel01\AppData\Local\Temp\ccxoNE0f.s 			page 51


1033:C:\Micrium\Software\uCOS-III\Source\os_tmr.c ****             p_tmr1->PrevPtr = (OS_TMR *)0;
 1810              		.loc 1 1033 0
 1811 0052 FB68     		ldr	r3, [r7, #12]
 1812 0054 4FF00002 		mov	r2, #0
 1813 0058 5A61     		str	r2, [r3, #20]
 1814 005a 10E0     		b	.L127
 1815              	.L125:
1034:C:\Micrium\Software\uCOS-III\Source\os_tmr.c ****         }
1035:C:\Micrium\Software\uCOS-III\Source\os_tmr.c ****     } else {
1036:C:\Micrium\Software\uCOS-III\Source\os_tmr.c ****         p_tmr1          = (OS_TMR *)p_tmr->PrevPtr;         /* Remove timer from somewhere in the l
 1816              		.loc 1 1036 0
 1817 005c 7B68     		ldr	r3, [r7, #4]
 1818 005e 5B69     		ldr	r3, [r3, #20]
 1819 0060 FB60     		str	r3, [r7, #12]
1037:C:\Micrium\Software\uCOS-III\Source\os_tmr.c ****         p_tmr2          = (OS_TMR *)p_tmr->NextPtr;
 1820              		.loc 1 1037 0
 1821 0062 7B68     		ldr	r3, [r7, #4]
 1822 0064 1B69     		ldr	r3, [r3, #16]
 1823 0066 3B61     		str	r3, [r7, #16]
1038:C:\Micrium\Software\uCOS-III\Source\os_tmr.c ****         p_tmr1->NextPtr = p_tmr2;
 1824              		.loc 1 1038 0
 1825 0068 FB68     		ldr	r3, [r7, #12]
 1826 006a 3A69     		ldr	r2, [r7, #16]
 1827 006c 1A61     		str	r2, [r3, #16]
1039:C:\Micrium\Software\uCOS-III\Source\os_tmr.c ****         if (p_tmr2 != (OS_TMR *)0) {
 1828              		.loc 1 1039 0
 1829 006e 3B69     		ldr	r3, [r7, #16]
 1830 0070 002B     		cmp	r3, #0
 1831 0072 04D0     		beq	.L127
1040:C:\Micrium\Software\uCOS-III\Source\os_tmr.c ****             p_tmr2->PrevPtr = (OS_TMR *)p_tmr1;
 1832              		.loc 1 1040 0
 1833 0074 3B69     		ldr	r3, [r7, #16]
 1834 0076 FA68     		ldr	r2, [r7, #12]
 1835 0078 5A61     		str	r2, [r3, #20]
 1836 007a 00E0     		b	.L127
 1837              	.L129:
 1838              		.loc 1 1033 0
 1839 007c 00BF     		nop
 1840              	.L127:
1041:C:\Micrium\Software\uCOS-III\Source\os_tmr.c ****         }
1042:C:\Micrium\Software\uCOS-III\Source\os_tmr.c ****     }
1043:C:\Micrium\Software\uCOS-III\Source\os_tmr.c ****     p_tmr->State   = OS_TMR_STATE_STOPPED;
 1841              		.loc 1 1043 0
 1842 007e 7B68     		ldr	r3, [r7, #4]
 1843 0080 4FF00102 		mov	r2, #1
 1844 0084 83F82A20 		strb	r2, [r3, #42]
1044:C:\Micrium\Software\uCOS-III\Source\os_tmr.c ****     p_tmr->NextPtr = (OS_TMR *)0;
 1845              		.loc 1 1044 0
 1846 0088 7B68     		ldr	r3, [r7, #4]
 1847 008a 4FF00002 		mov	r2, #0
 1848 008e 1A61     		str	r2, [r3, #16]
1045:C:\Micrium\Software\uCOS-III\Source\os_tmr.c ****     p_tmr->PrevPtr = (OS_TMR *)0;
 1849              		.loc 1 1045 0
 1850 0090 7B68     		ldr	r3, [r7, #4]
 1851 0092 4FF00002 		mov	r2, #0
 1852 0096 5A61     		str	r2, [r3, #20]
1046:C:\Micrium\Software\uCOS-III\Source\os_tmr.c ****     p_spoke->NbrEntries--;
ARM GAS  C:\Users\daniel01\AppData\Local\Temp\ccxoNE0f.s 			page 52


 1853              		.loc 1 1046 0
 1854 0098 BB68     		ldr	r3, [r7, #8]
 1855 009a 9B88     		ldrh	r3, [r3, #4]
 1856 009c 03F1FF33 		add	r3, r3, #-1
 1857 00a0 9AB2     		uxth	r2, r3
 1858 00a2 BB68     		ldr	r3, [r7, #8]
 1859 00a4 9A80     		strh	r2, [r3, #4]	@ movhi
1047:C:\Micrium\Software\uCOS-III\Source\os_tmr.c **** }
 1860              		.loc 1 1047 0
 1861 00a6 07F11C07 		add	r7, r7, #28
 1862 00aa BD46     		mov	sp, r7
 1863 00ac 80BC     		pop	{r7}
 1864 00ae 7047     		bx	lr
 1865              		.cfi_endproc
 1866              	.LFE12:
 1867              		.size	OS_TmrUnlink, .-OS_TmrUnlink
 1868              		.section	.text.OS_TmrTask,"ax",%progbits
 1869              		.align	2
 1870              		.global	OS_TmrTask
 1871              		.thumb
 1872              		.thumb_func
 1873              		.type	OS_TmrTask, %function
 1874              	OS_TmrTask:
 1875              	.LFB13:
1048:C:\Micrium\Software\uCOS-III\Source\os_tmr.c **** 
1049:C:\Micrium\Software\uCOS-III\Source\os_tmr.c **** /*$PAGE*/
1050:C:\Micrium\Software\uCOS-III\Source\os_tmr.c **** /*
1051:C:\Micrium\Software\uCOS-III\Source\os_tmr.c **** ***************************************************************************************************
1052:C:\Micrium\Software\uCOS-III\Source\os_tmr.c **** *                                                 TIMER MANAGEMENT TASK
1053:C:\Micrium\Software\uCOS-III\Source\os_tmr.c **** *
1054:C:\Micrium\Software\uCOS-III\Source\os_tmr.c **** * Description: This task is created by OS_TmrInit().
1055:C:\Micrium\Software\uCOS-III\Source\os_tmr.c **** *
1056:C:\Micrium\Software\uCOS-III\Source\os_tmr.c **** * Arguments  : none
1057:C:\Micrium\Software\uCOS-III\Source\os_tmr.c **** *
1058:C:\Micrium\Software\uCOS-III\Source\os_tmr.c **** * Returns    : none
1059:C:\Micrium\Software\uCOS-III\Source\os_tmr.c **** *
1060:C:\Micrium\Software\uCOS-III\Source\os_tmr.c **** * Note(s)    : 1) This function is INTERNAL to uC/OS-III and your application MUST NOT call it.
1061:C:\Micrium\Software\uCOS-III\Source\os_tmr.c **** ***************************************************************************************************
1062:C:\Micrium\Software\uCOS-III\Source\os_tmr.c **** */
1063:C:\Micrium\Software\uCOS-III\Source\os_tmr.c **** 
1064:C:\Micrium\Software\uCOS-III\Source\os_tmr.c **** void  OS_TmrTask (void  *p_arg)
1065:C:\Micrium\Software\uCOS-III\Source\os_tmr.c **** {
 1876              		.loc 1 1065 0
 1877              		.cfi_startproc
 1878              		@ args = 0, pretend = 0, frame = 48
 1879              		@ frame_needed = 1, uses_anonymous_args = 0
 1880 0000 80B5     		push	{r7, lr}
 1881              	.LCFI39:
 1882              		.cfi_def_cfa_offset 8
 1883 0002 8CB0     		sub	sp, sp, #48
 1884              	.LCFI40:
 1885              		.cfi_def_cfa_offset 56
 1886 0004 00AF     		add	r7, sp, #0
 1887              		.cfi_offset 14, -4
 1888              		.cfi_offset 7, -8
 1889              	.LCFI41:
 1890              		.cfi_def_cfa_register 7
ARM GAS  C:\Users\daniel01\AppData\Local\Temp\ccxoNE0f.s 			page 53


 1891 0006 7860     		str	r0, [r7, #4]
 1892 0008 00E0     		b	.L140
 1893              	.L142:
1066:C:\Micrium\Software\uCOS-III\Source\os_tmr.c ****     CPU_BOOLEAN          done;
1067:C:\Micrium\Software\uCOS-III\Source\os_tmr.c ****     OS_ERR               err;
1068:C:\Micrium\Software\uCOS-III\Source\os_tmr.c ****     OS_TMR_CALLBACK_PTR  p_fnct;
1069:C:\Micrium\Software\uCOS-III\Source\os_tmr.c ****     OS_TMR_SPOKE        *p_spoke;
1070:C:\Micrium\Software\uCOS-III\Source\os_tmr.c ****     OS_TMR              *p_tmr;
1071:C:\Micrium\Software\uCOS-III\Source\os_tmr.c ****     OS_TMR              *p_tmr_next;
1072:C:\Micrium\Software\uCOS-III\Source\os_tmr.c ****     OS_TMR_SPOKE_IX      spoke;
1073:C:\Micrium\Software\uCOS-III\Source\os_tmr.c ****     CPU_TS               ts;
1074:C:\Micrium\Software\uCOS-III\Source\os_tmr.c ****     CPU_TS               ts_start;
1075:C:\Micrium\Software\uCOS-III\Source\os_tmr.c ****     CPU_TS               ts_end;
1076:C:\Micrium\Software\uCOS-III\Source\os_tmr.c **** 
1077:C:\Micrium\Software\uCOS-III\Source\os_tmr.c **** 
1078:C:\Micrium\Software\uCOS-III\Source\os_tmr.c **** 
1079:C:\Micrium\Software\uCOS-III\Source\os_tmr.c ****     p_arg = p_arg;                                               /* Not using 'p_arg', prevent comp
1080:C:\Micrium\Software\uCOS-III\Source\os_tmr.c ****     while (DEF_ON) {
1081:C:\Micrium\Software\uCOS-III\Source\os_tmr.c ****         (void)OSTaskSemPend((OS_TICK )0,                         /* Wait for signal indicating time
1082:C:\Micrium\Software\uCOS-III\Source\os_tmr.c ****                             (OS_OPT  )OS_OPT_PEND_BLOCKING,
1083:C:\Micrium\Software\uCOS-III\Source\os_tmr.c ****                             (CPU_TS *)&ts,
1084:C:\Micrium\Software\uCOS-III\Source\os_tmr.c ****                             (OS_ERR *)&err);
1085:C:\Micrium\Software\uCOS-III\Source\os_tmr.c **** 
1086:C:\Micrium\Software\uCOS-III\Source\os_tmr.c ****         OSSchedLock(&err);
1087:C:\Micrium\Software\uCOS-III\Source\os_tmr.c ****         ts_start = OS_TS_GET();
1088:C:\Micrium\Software\uCOS-III\Source\os_tmr.c ****         OSTmrTickCtr++;                                          /* Increment the current time     
1089:C:\Micrium\Software\uCOS-III\Source\os_tmr.c ****         spoke    = (OS_TMR_SPOKE_IX)(OSTmrTickCtr % OSCfg_TmrWheelSize);
1090:C:\Micrium\Software\uCOS-III\Source\os_tmr.c ****         p_spoke  = &OSCfg_TmrWheel[spoke];
1091:C:\Micrium\Software\uCOS-III\Source\os_tmr.c ****         p_tmr    = p_spoke->FirstPtr;
1092:C:\Micrium\Software\uCOS-III\Source\os_tmr.c ****         done     = DEF_FALSE;
1093:C:\Micrium\Software\uCOS-III\Source\os_tmr.c ****         while (done == DEF_FALSE) {
1094:C:\Micrium\Software\uCOS-III\Source\os_tmr.c ****             if (p_tmr != (OS_TMR *)0) {
1095:C:\Micrium\Software\uCOS-III\Source\os_tmr.c ****                 p_tmr_next = (OS_TMR *)p_tmr->NextPtr;           /* Point to next tmr to update bec
1096:C:\Micrium\Software\uCOS-III\Source\os_tmr.c ****                                                                  /* ... timer could get unlinked fr
1097:C:\Micrium\Software\uCOS-III\Source\os_tmr.c ****                 if (OSTmrTickCtr == p_tmr->Match) {              /* Process each timer that expires
1098:C:\Micrium\Software\uCOS-III\Source\os_tmr.c ****                     OS_TmrUnlink(p_tmr);                         /* Remove from current wheel spoke
1099:C:\Micrium\Software\uCOS-III\Source\os_tmr.c ****                     if (p_tmr->Opt == OS_OPT_TMR_PERIODIC) {
1100:C:\Micrium\Software\uCOS-III\Source\os_tmr.c ****                         OS_TmrLink(p_tmr,
1101:C:\Micrium\Software\uCOS-III\Source\os_tmr.c ****                                    OS_OPT_LINK_PERIODIC);        /* Recalculate new position of tim
1102:C:\Micrium\Software\uCOS-III\Source\os_tmr.c ****                     } else {
1103:C:\Micrium\Software\uCOS-III\Source\os_tmr.c ****                         p_tmr->State = OS_TMR_STATE_COMPLETED;   /* Indicate that the timer has com
1104:C:\Micrium\Software\uCOS-III\Source\os_tmr.c ****                     }
1105:C:\Micrium\Software\uCOS-III\Source\os_tmr.c ****                     p_fnct = p_tmr->CallbackPtr;                 /* Execute callback function if av
1106:C:\Micrium\Software\uCOS-III\Source\os_tmr.c ****                     if (p_fnct != (OS_TMR_CALLBACK_PTR)0) {
1107:C:\Micrium\Software\uCOS-III\Source\os_tmr.c ****                         (*p_fnct)((void *)p_tmr,
1108:C:\Micrium\Software\uCOS-III\Source\os_tmr.c ****                                   p_tmr->CallbackPtrArg);
1109:C:\Micrium\Software\uCOS-III\Source\os_tmr.c ****                     }
1110:C:\Micrium\Software\uCOS-III\Source\os_tmr.c ****                     p_tmr = p_tmr_next;                          /* See if next timer matches      
1111:C:\Micrium\Software\uCOS-III\Source\os_tmr.c ****                 } else {
1112:C:\Micrium\Software\uCOS-III\Source\os_tmr.c ****                     done  = DEF_TRUE;
1113:C:\Micrium\Software\uCOS-III\Source\os_tmr.c ****                 }
1114:C:\Micrium\Software\uCOS-III\Source\os_tmr.c ****             } else {
1115:C:\Micrium\Software\uCOS-III\Source\os_tmr.c ****                 done = DEF_TRUE;
1116:C:\Micrium\Software\uCOS-III\Source\os_tmr.c ****             }
1117:C:\Micrium\Software\uCOS-III\Source\os_tmr.c ****         }
1118:C:\Micrium\Software\uCOS-III\Source\os_tmr.c ****         ts_end = OS_TS_GET() - ts_start;                         /* Measure execution time of timer
1119:C:\Micrium\Software\uCOS-III\Source\os_tmr.c ****         OSSchedUnlock(&err);
ARM GAS  C:\Users\daniel01\AppData\Local\Temp\ccxoNE0f.s 			page 54


1120:C:\Micrium\Software\uCOS-III\Source\os_tmr.c ****         if (OSTmrTaskTimeMax < ts_end) {
1121:C:\Micrium\Software\uCOS-III\Source\os_tmr.c ****             OSTmrTaskTimeMax = ts_end;
1122:C:\Micrium\Software\uCOS-III\Source\os_tmr.c ****         }
1123:C:\Micrium\Software\uCOS-III\Source\os_tmr.c ****     }
 1894              		.loc 1 1123 0
 1895 000a 00BF     		nop
 1896              	.L140:
 1897              		.loc 1 1081 0
 1898 000c 07F10C02 		add	r2, r7, #12
 1899 0010 07F11003 		add	r3, r7, #16
 1900 0014 4FF00000 		mov	r0, #0
 1901 0018 4FF00001 		mov	r1, #0
 1902 001c FFF7FEFF 		bl	OSTaskSemPend
 1903              		.loc 1 1086 0
 1904 0020 07F11003 		add	r3, r7, #16
 1905 0024 1846     		mov	r0, r3
 1906 0026 FFF7FEFF 		bl	OSSchedLock
 1907              		.loc 1 1087 0
 1908 002a FFF7FEFF 		bl	CPU_TS_TmrRd
 1909 002e 0346     		mov	r3, r0
 1910 0030 BB62     		str	r3, [r7, #40]
 1911              		.loc 1 1088 0
 1912 0032 40F20003 		movw	r3, #:lower16:OSTmrTickCtr
 1913 0036 C0F20003 		movt	r3, #:upper16:OSTmrTickCtr
 1914 003a 1B68     		ldr	r3, [r3, #0]
 1915 003c 03F10102 		add	r2, r3, #1
 1916 0040 40F20003 		movw	r3, #:lower16:OSTmrTickCtr
 1917 0044 C0F20003 		movt	r3, #:upper16:OSTmrTickCtr
 1918 0048 1A60     		str	r2, [r3, #0]
 1919              		.loc 1 1089 0
 1920 004a 40F20003 		movw	r3, #:lower16:OSTmrTickCtr
 1921 004e C0F20003 		movt	r3, #:upper16:OSTmrTickCtr
 1922 0052 1A68     		ldr	r2, [r3, #0]
 1923 0054 40F20003 		movw	r3, #:lower16:OSCfg_TmrWheelSize
 1924 0058 C0F20003 		movt	r3, #:upper16:OSCfg_TmrWheelSize
 1925 005c 1B88     		ldrh	r3, [r3, #0]
 1926 005e B2FBF3F1 		udiv	r1, r2, r3
 1927 0062 03FB01F3 		mul	r3, r3, r1
 1928 0066 C3EB0203 		rsb	r3, r3, r2
 1929 006a FB84     		strh	r3, [r7, #38]	@ movhi
 1930              		.loc 1 1090 0
 1931 006c FB8C     		ldrh	r3, [r7, #38]
 1932 006e 4FEAC302 		lsl	r2, r3, #3
 1933 0072 40F20003 		movw	r3, #:lower16:OSCfg_TmrWheel
 1934 0076 C0F20003 		movt	r3, #:upper16:OSCfg_TmrWheel
 1935 007a 1344     		add	r3, r2, r3
 1936 007c BB61     		str	r3, [r7, #24]
 1937              		.loc 1 1091 0
 1938 007e BB69     		ldr	r3, [r7, #24]
 1939 0080 1B68     		ldr	r3, [r3, #0]
 1940 0082 FB61     		str	r3, [r7, #28]
 1941              		.loc 1 1092 0
 1942 0084 4FF00003 		mov	r3, #0
 1943 0088 FB74     		strb	r3, [r7, #19]
 1944              		.loc 1 1093 0
 1945 008a 36E0     		b	.L131
 1946              	.L138:
ARM GAS  C:\Users\daniel01\AppData\Local\Temp\ccxoNE0f.s 			page 55


 1947              		.loc 1 1094 0
 1948 008c FB69     		ldr	r3, [r7, #28]
 1949 008e 002B     		cmp	r3, #0
 1950 0090 30D0     		beq	.L132
 1951              		.loc 1 1095 0
 1952 0092 FB69     		ldr	r3, [r7, #28]
 1953 0094 1B69     		ldr	r3, [r3, #16]
 1954 0096 3B62     		str	r3, [r7, #32]
 1955              		.loc 1 1097 0
 1956 0098 FB69     		ldr	r3, [r7, #28]
 1957 009a 9A69     		ldr	r2, [r3, #24]
 1958 009c 40F20003 		movw	r3, #:lower16:OSTmrTickCtr
 1959 00a0 C0F20003 		movt	r3, #:upper16:OSTmrTickCtr
 1960 00a4 1B68     		ldr	r3, [r3, #0]
 1961 00a6 9A42     		cmp	r2, r3
 1962 00a8 20D1     		bne	.L133
 1963              		.loc 1 1098 0
 1964 00aa F869     		ldr	r0, [r7, #28]
 1965 00ac FFF7FEFF 		bl	OS_TmrUnlink
 1966              		.loc 1 1099 0
 1967 00b0 FB69     		ldr	r3, [r7, #28]
 1968 00b2 1B8D     		ldrh	r3, [r3, #40]
 1969 00b4 022B     		cmp	r3, #2
 1970 00b6 05D1     		bne	.L134
 1971              		.loc 1 1100 0
 1972 00b8 F869     		ldr	r0, [r7, #28]
 1973 00ba 4FF00101 		mov	r1, #1
 1974 00be FFF7FEFF 		bl	OS_TmrLink
 1975 00c2 04E0     		b	.L135
 1976              	.L134:
 1977              		.loc 1 1103 0
 1978 00c4 FB69     		ldr	r3, [r7, #28]
 1979 00c6 4FF00302 		mov	r2, #3
 1980 00ca 83F82A20 		strb	r2, [r3, #42]
 1981              	.L135:
 1982              		.loc 1 1105 0
 1983 00ce FB69     		ldr	r3, [r7, #28]
 1984 00d0 9B68     		ldr	r3, [r3, #8]
 1985 00d2 7B61     		str	r3, [r7, #20]
 1986              		.loc 1 1106 0
 1987 00d4 7B69     		ldr	r3, [r7, #20]
 1988 00d6 002B     		cmp	r3, #0
 1989 00d8 05D0     		beq	.L136
 1990              		.loc 1 1107 0
 1991 00da FB69     		ldr	r3, [r7, #28]
 1992 00dc DA68     		ldr	r2, [r3, #12]
 1993 00de 7B69     		ldr	r3, [r7, #20]
 1994 00e0 F869     		ldr	r0, [r7, #28]
 1995 00e2 1146     		mov	r1, r2
 1996 00e4 9847     		blx	r3
 1997              	.L136:
 1998              		.loc 1 1110 0
 1999 00e6 3B6A     		ldr	r3, [r7, #32]
 2000 00e8 FB61     		str	r3, [r7, #28]
 2001              		.loc 1 1112 0
 2002 00ea 06E0     		b	.L131
 2003              	.L133:
ARM GAS  C:\Users\daniel01\AppData\Local\Temp\ccxoNE0f.s 			page 56


 2004 00ec 4FF00103 		mov	r3, #1
 2005 00f0 FB74     		strb	r3, [r7, #19]
 2006 00f2 02E0     		b	.L131
 2007              	.L132:
 2008              		.loc 1 1115 0
 2009 00f4 4FF00103 		mov	r3, #1
 2010 00f8 FB74     		strb	r3, [r7, #19]
 2011              	.L131:
 2012              		.loc 1 1093 0
 2013 00fa FB7C     		ldrb	r3, [r7, #19]	@ zero_extendqisi2
 2014 00fc 002B     		cmp	r3, #0
 2015 00fe C5D0     		beq	.L138
 2016              		.loc 1 1118 0
 2017 0100 FFF7FEFF 		bl	CPU_TS_TmrRd
 2018 0104 0246     		mov	r2, r0
 2019 0106 BB6A     		ldr	r3, [r7, #40]
 2020 0108 C3EB0203 		rsb	r3, r3, r2
 2021 010c FB62     		str	r3, [r7, #44]
 2022              		.loc 1 1119 0
 2023 010e 07F11003 		add	r3, r7, #16
 2024 0112 1846     		mov	r0, r3
 2025 0114 FFF7FEFF 		bl	OSSchedUnlock
 2026              		.loc 1 1120 0
 2027 0118 40F20003 		movw	r3, #:lower16:OSTmrTaskTimeMax
 2028 011c C0F20003 		movt	r3, #:upper16:OSTmrTaskTimeMax
 2029 0120 1A68     		ldr	r2, [r3, #0]
 2030 0122 FB6A     		ldr	r3, [r7, #44]
 2031 0124 9A42     		cmp	r2, r3
 2032 0126 BFF470AF 		bcs	.L142
 2033              		.loc 1 1121 0
 2034 012a 40F20003 		movw	r3, #:lower16:OSTmrTaskTimeMax
 2035 012e C0F20003 		movt	r3, #:upper16:OSTmrTaskTimeMax
 2036 0132 FA6A     		ldr	r2, [r7, #44]
 2037 0134 1A60     		str	r2, [r3, #0]
 2038              		.loc 1 1123 0
 2039 0136 69E7     		b	.L140
 2040              		.cfi_endproc
 2041              	.LFE13:
 2042              		.size	OS_TmrTask, .-OS_TmrTask
 2043              		.text
 2044              	.Letext0: