ARM GAS  C:\Users\daniel01\AppData\Local\Temp\ccb5Ykxv.s 			page 1


   1              		.syntax unified
   2              		.cpu cortex-m3
   3              		.fpu softvfp
   4              		.eabi_attribute 20, 1
   5              		.eabi_attribute 21, 1
   6              		.eabi_attribute 23, 3
   7              		.eabi_attribute 24, 1
   8              		.eabi_attribute 25, 1
   9              		.eabi_attribute 26, 1
  10              		.eabi_attribute 30, 6
  11              		.eabi_attribute 18, 4
  12              		.thumb
  13              		.file	"os_task.c"
  20 0000 B0050000 		.text
  20      0200D600 
  20      00000201 
  20      FB0E0D00 
  20      01010101 
  21              	.Ltext0:
  22              		.cfi_sections	.debug_frame
  23              		.section	.text.OSTaskChangePrio,"ax",%progbits
  24              		.align	2
  25              		.global	OSTaskChangePrio
  26              		.thumb
  27              		.thumb_func
  28              		.type	OSTaskChangePrio, %function
  29              	OSTaskChangePrio:
  30              	.LFB0:
  31              		.file 1 "C:\\Micrium\\Software\\uCOS-III\\Source\\os_task.c"
   1:C:\Micrium\Software\uCOS-III\Source\os_task.c **** /*
   2:C:\Micrium\Software\uCOS-III\Source\os_task.c **** ***************************************************************************************************
   3:C:\Micrium\Software\uCOS-III\Source\os_task.c **** *                                                      uC/OS-III
   4:C:\Micrium\Software\uCOS-III\Source\os_task.c **** *                                                 The Real-Time Kernel
   5:C:\Micrium\Software\uCOS-III\Source\os_task.c **** *
   6:C:\Micrium\Software\uCOS-III\Source\os_task.c **** *                                  (c) Copyright 2009-2012; Micrium, Inc.; Weston, FL
   7:C:\Micrium\Software\uCOS-III\Source\os_task.c **** *                           All rights reserved.  Protected by international copyright laws.
   8:C:\Micrium\Software\uCOS-III\Source\os_task.c **** *
   9:C:\Micrium\Software\uCOS-III\Source\os_task.c **** *                                                   TASK MANAGEMENT
  10:C:\Micrium\Software\uCOS-III\Source\os_task.c **** *
  11:C:\Micrium\Software\uCOS-III\Source\os_task.c **** * File    : OS_TASK.C
  12:C:\Micrium\Software\uCOS-III\Source\os_task.c **** * By      : JJL
  13:C:\Micrium\Software\uCOS-III\Source\os_task.c **** * Version : V3.03.01
  14:C:\Micrium\Software\uCOS-III\Source\os_task.c **** *
  15:C:\Micrium\Software\uCOS-III\Source\os_task.c **** * LICENSING TERMS:
  16:C:\Micrium\Software\uCOS-III\Source\os_task.c **** * ---------------
  17:C:\Micrium\Software\uCOS-III\Source\os_task.c **** *           uC/OS-III is provided in source form for FREE short-term evaluation, for educational us
  18:C:\Micrium\Software\uCOS-III\Source\os_task.c **** *           for peaceful research.  If you plan or intend to use uC/OS-III in a commercial applicat
  19:C:\Micrium\Software\uCOS-III\Source\os_task.c **** *           product then, you need to contact Micrium to properly license uC/OS-III for its use in 
  20:C:\Micrium\Software\uCOS-III\Source\os_task.c **** *           application/product.   We provide ALL the source code for your convenience and to help 
  21:C:\Micrium\Software\uCOS-III\Source\os_task.c **** *           experience uC/OS-III.  The fact that the source is provided does NOT mean that you can 
  22:C:\Micrium\Software\uCOS-III\Source\os_task.c **** *           it commercially without paying a licensing fee.
ARM GAS  C:\Users\daniel01\AppData\Local\Temp\ccb5Ykxv.s 			page 2


  23:C:\Micrium\Software\uCOS-III\Source\os_task.c **** *
  24:C:\Micrium\Software\uCOS-III\Source\os_task.c **** *           Knowledge of the source code may NOT be used to develop a similar product.
  25:C:\Micrium\Software\uCOS-III\Source\os_task.c **** *
  26:C:\Micrium\Software\uCOS-III\Source\os_task.c **** *           Please help us continue to provide the embedded community with the finest software avai
  27:C:\Micrium\Software\uCOS-III\Source\os_task.c **** *           Your honesty is greatly appreciated.
  28:C:\Micrium\Software\uCOS-III\Source\os_task.c **** *
  29:C:\Micrium\Software\uCOS-III\Source\os_task.c **** *           You can contact us at www.micrium.com, or by phone at +1 (954) 217-2036.
  30:C:\Micrium\Software\uCOS-III\Source\os_task.c **** ***************************************************************************************************
  31:C:\Micrium\Software\uCOS-III\Source\os_task.c **** */
  32:C:\Micrium\Software\uCOS-III\Source\os_task.c **** 
  33:C:\Micrium\Software\uCOS-III\Source\os_task.c **** #define  MICRIUM_SOURCE
  34:C:\Micrium\Software\uCOS-III\Source\os_task.c **** #include <os.h>
  35:C:\Micrium\Software\uCOS-III\Source\os_task.c **** 
  36:C:\Micrium\Software\uCOS-III\Source\os_task.c **** #ifdef VSC_INCLUDE_SOURCE_FILE_NAMES
  37:C:\Micrium\Software\uCOS-III\Source\os_task.c **** const  CPU_CHAR  *os_task__c = "$Id: $";
  38:C:\Micrium\Software\uCOS-III\Source\os_task.c **** #endif
  39:C:\Micrium\Software\uCOS-III\Source\os_task.c **** 
  40:C:\Micrium\Software\uCOS-III\Source\os_task.c **** /*
  41:C:\Micrium\Software\uCOS-III\Source\os_task.c **** ***************************************************************************************************
  42:C:\Micrium\Software\uCOS-III\Source\os_task.c **** *                                                CHANGE PRIORITY OF A TASK
  43:C:\Micrium\Software\uCOS-III\Source\os_task.c **** *
  44:C:\Micrium\Software\uCOS-III\Source\os_task.c **** * Description: This function allows you to change the priority of a task dynamically.  Note that th
  45:C:\Micrium\Software\uCOS-III\Source\os_task.c **** *              priority MUST be available.
  46:C:\Micrium\Software\uCOS-III\Source\os_task.c **** *
  47:C:\Micrium\Software\uCOS-III\Source\os_task.c **** * Arguments  : p_tcb      is the TCB of the tack to change the priority for
  48:C:\Micrium\Software\uCOS-III\Source\os_task.c **** *
  49:C:\Micrium\Software\uCOS-III\Source\os_task.c **** *              prio_new   is the new priority
  50:C:\Micrium\Software\uCOS-III\Source\os_task.c **** *
  51:C:\Micrium\Software\uCOS-III\Source\os_task.c **** *              p_err      is a pointer to an error code returned by this function:
  52:C:\Micrium\Software\uCOS-III\Source\os_task.c **** *
  53:C:\Micrium\Software\uCOS-III\Source\os_task.c **** *                             OS_ERR_NONE                 is the call was successful
  54:C:\Micrium\Software\uCOS-III\Source\os_task.c **** *                             OS_ERR_PRIO_INVALID         if the priority you specify is higher tha
  55:C:\Micrium\Software\uCOS-III\Source\os_task.c **** *                                                         (i.e. >= (OS_CFG_PRIO_MAX-1))
  56:C:\Micrium\Software\uCOS-III\Source\os_task.c **** *                             OS_ERR_STATE_INVALID        if the task is in an invalid state
  57:C:\Micrium\Software\uCOS-III\Source\os_task.c **** *                             OS_ERR_TASK_CHANGE_PRIO_ISR if you tried to change the task's priorit
  58:C:\Micrium\Software\uCOS-III\Source\os_task.c **** ***************************************************************************************************
  59:C:\Micrium\Software\uCOS-III\Source\os_task.c **** */
  60:C:\Micrium\Software\uCOS-III\Source\os_task.c **** 
  61:C:\Micrium\Software\uCOS-III\Source\os_task.c **** #if OS_CFG_TASK_CHANGE_PRIO_EN > 0u
  62:C:\Micrium\Software\uCOS-III\Source\os_task.c **** void  OSTaskChangePrio (OS_TCB   *p_tcb,
  63:C:\Micrium\Software\uCOS-III\Source\os_task.c ****                         OS_PRIO   prio_new,
  64:C:\Micrium\Software\uCOS-III\Source\os_task.c ****                         OS_ERR   *p_err)
  65:C:\Micrium\Software\uCOS-III\Source\os_task.c **** {
  32              		.loc 1 65 0
  33              		.cfi_startproc
  34              		@ args = 0, pretend = 0, frame = 24
  35              		@ frame_needed = 1, uses_anonymous_args = 0
  36 0000 80B5     		push	{r7, lr}
  37              	.LCFI0:
  38              		.cfi_def_cfa_offset 8
  39 0002 86B0     		sub	sp, sp, #24
  40              	.LCFI1:
  41              		.cfi_def_cfa_offset 32
  42 0004 00AF     		add	r7, sp, #0
  43              		.cfi_offset 14, -4
  44              		.cfi_offset 7, -8
  45              	.LCFI2:
ARM GAS  C:\Users\daniel01\AppData\Local\Temp\ccb5Ykxv.s 			page 3


  46              		.cfi_def_cfa_register 7
  47 0006 F860     		str	r0, [r7, #12]
  48 0008 0B46     		mov	r3, r1
  49 000a 7A60     		str	r2, [r7, #4]
  50 000c FB72     		strb	r3, [r7, #11]
  66:C:\Micrium\Software\uCOS-III\Source\os_task.c ****     CPU_BOOLEAN   self;
  67:C:\Micrium\Software\uCOS-III\Source\os_task.c ****     CPU_SR_ALLOC();
  51              		.loc 1 67 0
  52 000e 4FF00003 		mov	r3, #0
  53 0012 7B61     		str	r3, [r7, #20]
  68:C:\Micrium\Software\uCOS-III\Source\os_task.c **** 
  69:C:\Micrium\Software\uCOS-III\Source\os_task.c **** 
  70:C:\Micrium\Software\uCOS-III\Source\os_task.c **** 
  71:C:\Micrium\Software\uCOS-III\Source\os_task.c **** #ifdef OS_SAFETY_CRITICAL
  72:C:\Micrium\Software\uCOS-III\Source\os_task.c ****     if (p_err == (OS_ERR *)0) {
  73:C:\Micrium\Software\uCOS-III\Source\os_task.c ****         OS_SAFETY_CRITICAL_EXCEPTION();
  74:C:\Micrium\Software\uCOS-III\Source\os_task.c ****         return;
  75:C:\Micrium\Software\uCOS-III\Source\os_task.c ****     }
  76:C:\Micrium\Software\uCOS-III\Source\os_task.c **** #endif
  77:C:\Micrium\Software\uCOS-III\Source\os_task.c **** 
  78:C:\Micrium\Software\uCOS-III\Source\os_task.c **** #if OS_CFG_CALLED_FROM_ISR_CHK_EN > 0u
  79:C:\Micrium\Software\uCOS-III\Source\os_task.c ****     if (OSIntNestingCtr > (OS_NESTING_CTR)0) {              /* ---------- CANNOT CREATE A TASK FROM
  54              		.loc 1 79 0
  55 0014 40F20003 		movw	r3, #:lower16:OSIntNestingCtr
  56 0018 C0F20003 		movt	r3, #:upper16:OSIntNestingCtr
  57 001c 1B78     		ldrb	r3, [r3, #0]	@ zero_extendqisi2
  58 001e 002B     		cmp	r3, #0
  59 0020 04D0     		beq	.L2
  80:C:\Micrium\Software\uCOS-III\Source\os_task.c ****        *p_err = OS_ERR_TASK_CHANGE_PRIO_ISR;
  60              		.loc 1 80 0
  61 0022 7B68     		ldr	r3, [r7, #4]
  62 0024 47F24912 		movw	r2, #29001
  63 0028 1A80     		strh	r2, [r3, #0]	@ movhi
  81:C:\Micrium\Software\uCOS-III\Source\os_task.c ****         return;
  64              		.loc 1 81 0
  65 002a 84E0     		b	.L17
  66              	.L2:
  82:C:\Micrium\Software\uCOS-III\Source\os_task.c ****     }
  83:C:\Micrium\Software\uCOS-III\Source\os_task.c **** #endif
  84:C:\Micrium\Software\uCOS-III\Source\os_task.c **** 
  85:C:\Micrium\Software\uCOS-III\Source\os_task.c **** #if OS_CFG_ISR_POST_DEFERRED_EN > 0u
  86:C:\Micrium\Software\uCOS-III\Source\os_task.c ****     if (prio_new == 0) {                                    /* Cannot set to IntQueue Task priority
  87:C:\Micrium\Software\uCOS-III\Source\os_task.c ****        *p_err = OS_ERR_PRIO_INVALID;
  88:C:\Micrium\Software\uCOS-III\Source\os_task.c ****         return;
  89:C:\Micrium\Software\uCOS-III\Source\os_task.c ****     }
  90:C:\Micrium\Software\uCOS-III\Source\os_task.c **** #endif
  91:C:\Micrium\Software\uCOS-III\Source\os_task.c **** 
  92:C:\Micrium\Software\uCOS-III\Source\os_task.c ****     if (prio_new >= (OS_CFG_PRIO_MAX - 1u)) {               /* Cannot set to Idle Task priority    
  67              		.loc 1 92 0
  68 002c FB7A     		ldrb	r3, [r7, #11]	@ zero_extendqisi2
  69 002e 062B     		cmp	r3, #6
  70 0030 04D9     		bls	.L4
  93:C:\Micrium\Software\uCOS-III\Source\os_task.c ****        *p_err = OS_ERR_PRIO_INVALID;
  71              		.loc 1 93 0
  72 0032 7B68     		ldr	r3, [r7, #4]
  73 0034 46F27322 		movw	r2, #25203
  74 0038 1A80     		strh	r2, [r3, #0]	@ movhi
ARM GAS  C:\Users\daniel01\AppData\Local\Temp\ccb5Ykxv.s 			page 4


  94:C:\Micrium\Software\uCOS-III\Source\os_task.c ****         return;
  75              		.loc 1 94 0
  76 003a 7CE0     		b	.L17
  77              	.L4:
  95:C:\Micrium\Software\uCOS-III\Source\os_task.c ****     }
  96:C:\Micrium\Software\uCOS-III\Source\os_task.c **** 
  97:C:\Micrium\Software\uCOS-III\Source\os_task.c ****     if (p_tcb == (OS_TCB *)0) {                             /* See if want to change priority of 's
  78              		.loc 1 97 0
  79 003c FB68     		ldr	r3, [r7, #12]
  80 003e 002B     		cmp	r3, #0
  81 0040 10D1     		bne	.L5
  98:C:\Micrium\Software\uCOS-III\Source\os_task.c ****         CPU_CRITICAL_ENTER();
  82              		.loc 1 98 0
  83 0042 FFF7FEFF 		bl	CPU_SR_Save
  84 0046 0346     		mov	r3, r0
  85 0048 7B61     		str	r3, [r7, #20]
  99:C:\Micrium\Software\uCOS-III\Source\os_task.c ****         p_tcb = OSTCBCurPtr;
  86              		.loc 1 99 0
  87 004a 40F20003 		movw	r3, #:lower16:OSTCBCurPtr
  88 004e C0F20003 		movt	r3, #:upper16:OSTCBCurPtr
  89 0052 1B68     		ldr	r3, [r3, #0]
  90 0054 FB60     		str	r3, [r7, #12]
 100:C:\Micrium\Software\uCOS-III\Source\os_task.c ****         CPU_CRITICAL_EXIT();
  91              		.loc 1 100 0
  92 0056 7869     		ldr	r0, [r7, #20]
  93 0058 FFF7FEFF 		bl	CPU_SR_Restore
 101:C:\Micrium\Software\uCOS-III\Source\os_task.c ****         self  = DEF_TRUE;
  94              		.loc 1 101 0
  95 005c 4FF00103 		mov	r3, #1
  96 0060 FB74     		strb	r3, [r7, #19]
  97 0062 02E0     		b	.L6
  98              	.L5:
 102:C:\Micrium\Software\uCOS-III\Source\os_task.c ****     } else {
 103:C:\Micrium\Software\uCOS-III\Source\os_task.c ****         self  = DEF_FALSE;
  99              		.loc 1 103 0
 100 0064 4FF00003 		mov	r3, #0
 101 0068 FB74     		strb	r3, [r7, #19]
 102              	.L6:
 104:C:\Micrium\Software\uCOS-III\Source\os_task.c ****     }
 105:C:\Micrium\Software\uCOS-III\Source\os_task.c **** 
 106:C:\Micrium\Software\uCOS-III\Source\os_task.c ****     OS_CRITICAL_ENTER();
 103              		.loc 1 106 0
 104 006a FFF7FEFF 		bl	CPU_SR_Save
 105 006e 0346     		mov	r3, r0
 106 0070 7B61     		str	r3, [r7, #20]
 107:C:\Micrium\Software\uCOS-III\Source\os_task.c ****     switch (p_tcb->TaskState) {
 107              		.loc 1 107 0
 108 0072 FB68     		ldr	r3, [r7, #12]
 109 0074 93F83630 		ldrb	r3, [r3, #54]	@ zero_extendqisi2
 110 0078 072B     		cmp	r3, #7
 111 007a 4AD8     		bhi	.L7
 112 007c 4FF00102 		mov	r2, #1
 113 0080 02FA03F3 		lsl	r3, r2, r3
 114 0084 03F0CC02 		and	r2, r3, #204
 115 0088 002A     		cmp	r2, #0
 116 008a 24D1     		bne	.L10
 117 008c 03F03202 		and	r2, r3, #50
ARM GAS  C:\Users\daniel01\AppData\Local\Temp\ccb5Ykxv.s 			page 5


 118 0090 002A     		cmp	r2, #0
 119 0092 1BD1     		bne	.L9
 120 0094 03F00103 		and	r3, r3, #1
 121 0098 002B     		cmp	r3, #0
 122 009a 3AD0     		beq	.L7
 123              	.L8:
 108:C:\Micrium\Software\uCOS-III\Source\os_task.c ****         case OS_TASK_STATE_RDY:
 109:C:\Micrium\Software\uCOS-III\Source\os_task.c ****              OS_RdyListRemove(p_tcb);                       /* Remove from current priority        
 124              		.loc 1 109 0
 125 009c F868     		ldr	r0, [r7, #12]
 126 009e FFF7FEFF 		bl	OS_RdyListRemove
 110:C:\Micrium\Software\uCOS-III\Source\os_task.c ****              p_tcb->Prio = prio_new;                        /* Set new task priority               
 127              		.loc 1 110 0
 128 00a2 FB68     		ldr	r3, [r7, #12]
 129 00a4 FA7A     		ldrb	r2, [r7, #11]
 130 00a6 83F83720 		strb	r2, [r3, #55]
 111:C:\Micrium\Software\uCOS-III\Source\os_task.c ****              OS_PrioInsert(p_tcb->Prio);
 131              		.loc 1 111 0
 132 00aa FB68     		ldr	r3, [r7, #12]
 133 00ac 93F83730 		ldrb	r3, [r3, #55]	@ zero_extendqisi2
 134 00b0 1846     		mov	r0, r3
 135 00b2 FFF7FEFF 		bl	OS_PrioInsert
 112:C:\Micrium\Software\uCOS-III\Source\os_task.c ****              if (self == DEF_TRUE) {
 136              		.loc 1 112 0
 137 00b6 FB7C     		ldrb	r3, [r7, #19]	@ zero_extendqisi2
 138 00b8 012B     		cmp	r3, #1
 139 00ba 03D1     		bne	.L11
 113:C:\Micrium\Software\uCOS-III\Source\os_task.c ****                  OS_RdyListInsertHead(p_tcb);
 140              		.loc 1 113 0
 141 00bc F868     		ldr	r0, [r7, #12]
 142 00be FFF7FEFF 		bl	OS_RdyListInsertHead
 114:C:\Micrium\Software\uCOS-III\Source\os_task.c ****              } else {
 115:C:\Micrium\Software\uCOS-III\Source\os_task.c ****                  OS_RdyListInsertTail(p_tcb);
 116:C:\Micrium\Software\uCOS-III\Source\os_task.c ****              }
 117:C:\Micrium\Software\uCOS-III\Source\os_task.c ****              break;
 143              		.loc 1 117 0
 144 00c2 2FE0     		b	.L13
 145              	.L11:
 146              		.loc 1 115 0
 147 00c4 F868     		ldr	r0, [r7, #12]
 148 00c6 FFF7FEFF 		bl	OS_RdyListInsertTail
 149              		.loc 1 117 0
 150 00ca 2BE0     		b	.L13
 151              	.L9:
 118:C:\Micrium\Software\uCOS-III\Source\os_task.c **** 
 119:C:\Micrium\Software\uCOS-III\Source\os_task.c ****         case OS_TASK_STATE_DLY:                             /* Nothing to do except change the prio
 120:C:\Micrium\Software\uCOS-III\Source\os_task.c ****         case OS_TASK_STATE_SUSPENDED:
 121:C:\Micrium\Software\uCOS-III\Source\os_task.c ****         case OS_TASK_STATE_DLY_SUSPENDED:
 122:C:\Micrium\Software\uCOS-III\Source\os_task.c ****              p_tcb->Prio = prio_new;                        /* Set new task priority               
 152              		.loc 1 122 0
 153 00cc FB68     		ldr	r3, [r7, #12]
 154 00ce FA7A     		ldrb	r2, [r7, #11]
 155 00d0 83F83720 		strb	r2, [r3, #55]
 123:C:\Micrium\Software\uCOS-III\Source\os_task.c ****              break;
 156              		.loc 1 123 0
 157 00d4 26E0     		b	.L13
 158              	.L10:
ARM GAS  C:\Users\daniel01\AppData\Local\Temp\ccb5Ykxv.s 			page 6


 124:C:\Micrium\Software\uCOS-III\Source\os_task.c **** 
 125:C:\Micrium\Software\uCOS-III\Source\os_task.c ****         case OS_TASK_STATE_PEND:
 126:C:\Micrium\Software\uCOS-III\Source\os_task.c ****         case OS_TASK_STATE_PEND_TIMEOUT:
 127:C:\Micrium\Software\uCOS-III\Source\os_task.c ****         case OS_TASK_STATE_PEND_SUSPENDED:
 128:C:\Micrium\Software\uCOS-III\Source\os_task.c ****         case OS_TASK_STATE_PEND_TIMEOUT_SUSPENDED:
 129:C:\Micrium\Software\uCOS-III\Source\os_task.c ****              switch (p_tcb->PendOn) {                       /* What to do depends on what we are pe
 159              		.loc 1 129 0
 160 00d6 FB68     		ldr	r3, [r7, #12]
 161 00d8 93F83430 		ldrb	r3, [r3, #52]	@ zero_extendqisi2
 162 00dc 072B     		cmp	r3, #7
 163 00de 20D8     		bhi	.L18
 164 00e0 4FF00102 		mov	r2, #1
 165 00e4 02FA03F3 		lsl	r3, r2, r3
 166 00e8 03F08602 		and	r2, r3, #134
 167 00ec 002A     		cmp	r2, #0
 168 00ee 04D1     		bne	.L15
 169 00f0 03F07803 		and	r3, r3, #120
 170 00f4 002B     		cmp	r3, #0
 171 00f6 06D1     		bne	.L16
 130:C:\Micrium\Software\uCOS-III\Source\os_task.c ****                  case OS_TASK_PEND_ON_TASK_Q:               /* Nothing to do except change the prio
 131:C:\Micrium\Software\uCOS-III\Source\os_task.c ****                  case OS_TASK_PEND_ON_TASK_SEM:
 132:C:\Micrium\Software\uCOS-III\Source\os_task.c ****                  case OS_TASK_PEND_ON_FLAG:
 133:C:\Micrium\Software\uCOS-III\Source\os_task.c ****                       p_tcb->Prio = prio_new;               /* Set new task priority               
 134:C:\Micrium\Software\uCOS-III\Source\os_task.c ****                       break;
 135:C:\Micrium\Software\uCOS-III\Source\os_task.c **** 
 136:C:\Micrium\Software\uCOS-III\Source\os_task.c ****                  case OS_TASK_PEND_ON_MUTEX:
 137:C:\Micrium\Software\uCOS-III\Source\os_task.c ****                  case OS_TASK_PEND_ON_MULTI:
 138:C:\Micrium\Software\uCOS-III\Source\os_task.c ****                  case OS_TASK_PEND_ON_Q:
 139:C:\Micrium\Software\uCOS-III\Source\os_task.c ****                  case OS_TASK_PEND_ON_SEM:
 140:C:\Micrium\Software\uCOS-III\Source\os_task.c ****                       OS_PendListChangePrio(p_tcb,
 141:C:\Micrium\Software\uCOS-III\Source\os_task.c ****                                             prio_new);
 142:C:\Micrium\Software\uCOS-III\Source\os_task.c ****                       break;
 143:C:\Micrium\Software\uCOS-III\Source\os_task.c **** 
 144:C:\Micrium\Software\uCOS-III\Source\os_task.c ****                  default:
 145:C:\Micrium\Software\uCOS-III\Source\os_task.c ****                       break;
 146:C:\Micrium\Software\uCOS-III\Source\os_task.c ****             }
 147:C:\Micrium\Software\uCOS-III\Source\os_task.c ****              break;
 172              		.loc 1 147 0
 173 00f8 14E0     		b	.L13
 174              	.L15:
 175              		.loc 1 133 0
 176 00fa FB68     		ldr	r3, [r7, #12]
 177 00fc FA7A     		ldrb	r2, [r7, #11]
 178 00fe 83F83720 		strb	r2, [r3, #55]
 179              		.loc 1 134 0
 180 0102 00BF     		nop
 181              		.loc 1 147 0
 182 0104 0EE0     		b	.L13
 183              	.L16:
 184              		.loc 1 140 0
 185 0106 FB7A     		ldrb	r3, [r7, #11]	@ zero_extendqisi2
 186 0108 F868     		ldr	r0, [r7, #12]
 187 010a 1946     		mov	r1, r3
 188 010c FFF7FEFF 		bl	OS_PendListChangePrio
 189              		.loc 1 147 0
 190 0110 08E0     		b	.L13
 191              	.L7:
ARM GAS  C:\Users\daniel01\AppData\Local\Temp\ccb5Ykxv.s 			page 7


 148:C:\Micrium\Software\uCOS-III\Source\os_task.c **** 
 149:C:\Micrium\Software\uCOS-III\Source\os_task.c ****         default:
 150:C:\Micrium\Software\uCOS-III\Source\os_task.c ****              OS_CRITICAL_EXIT();
 192              		.loc 1 150 0
 193 0112 7869     		ldr	r0, [r7, #20]
 194 0114 FFF7FEFF 		bl	CPU_SR_Restore
 151:C:\Micrium\Software\uCOS-III\Source\os_task.c ****             *p_err = OS_ERR_STATE_INVALID;
 195              		.loc 1 151 0
 196 0118 7B68     		ldr	r3, [r7, #4]
 197 011a 46F62D62 		movw	r2, #28205
 198 011e 1A80     		strh	r2, [r3, #0]	@ movhi
 152:C:\Micrium\Software\uCOS-III\Source\os_task.c ****              return;
 199              		.loc 1 152 0
 200 0120 09E0     		b	.L17
 201              	.L18:
 202              		.loc 1 147 0
 203 0122 00BF     		nop
 204              	.L13:
 153:C:\Micrium\Software\uCOS-III\Source\os_task.c ****     }
 154:C:\Micrium\Software\uCOS-III\Source\os_task.c **** 
 155:C:\Micrium\Software\uCOS-III\Source\os_task.c ****     OS_CRITICAL_EXIT_NO_SCHED();
 205              		.loc 1 155 0
 206 0124 7869     		ldr	r0, [r7, #20]
 207 0126 FFF7FEFF 		bl	CPU_SR_Restore
 156:C:\Micrium\Software\uCOS-III\Source\os_task.c **** 
 157:C:\Micrium\Software\uCOS-III\Source\os_task.c ****     OSSched();                                              /* Run highest priority task ready     
 208              		.loc 1 157 0
 209 012a FFF7FEFF 		bl	OSSched
 158:C:\Micrium\Software\uCOS-III\Source\os_task.c **** 
 159:C:\Micrium\Software\uCOS-III\Source\os_task.c ****    *p_err = OS_ERR_NONE;
 210              		.loc 1 159 0
 211 012e 7B68     		ldr	r3, [r7, #4]
 212 0130 4FF00002 		mov	r2, #0
 213 0134 1A80     		strh	r2, [r3, #0]	@ movhi
 214              	.L17:
 160:C:\Micrium\Software\uCOS-III\Source\os_task.c **** }
 215              		.loc 1 160 0
 216 0136 07F11807 		add	r7, r7, #24
 217 013a BD46     		mov	sp, r7
 218 013c 80BD     		pop	{r7, pc}
 219              		.cfi_endproc
 220              	.LFE0:
 221              		.size	OSTaskChangePrio, .-OSTaskChangePrio
 222 013e 00BF     		.section	.text.OSTaskCreate,"ax",%progbits
 223              		.align	2
 224              		.global	OSTaskCreate
 225              		.thumb
 226              		.thumb_func
 227              		.type	OSTaskCreate, %function
 228              	OSTaskCreate:
 229              	.LFB1:
 161:C:\Micrium\Software\uCOS-III\Source\os_task.c **** #endif
 162:C:\Micrium\Software\uCOS-III\Source\os_task.c **** 
 163:C:\Micrium\Software\uCOS-III\Source\os_task.c **** /*$PAGE*/
 164:C:\Micrium\Software\uCOS-III\Source\os_task.c **** /*
 165:C:\Micrium\Software\uCOS-III\Source\os_task.c **** ***************************************************************************************************
 166:C:\Micrium\Software\uCOS-III\Source\os_task.c **** *                                                    CREATE A TASK
ARM GAS  C:\Users\daniel01\AppData\Local\Temp\ccb5Ykxv.s 			page 8


 167:C:\Micrium\Software\uCOS-III\Source\os_task.c **** *
 168:C:\Micrium\Software\uCOS-III\Source\os_task.c **** * Description: This function is used to have uC/OS-III manage the execution of a task.  Tasks can e
 169:C:\Micrium\Software\uCOS-III\Source\os_task.c **** *              prior to the start of multitasking or by a running task.  A task cannot be created b
 170:C:\Micrium\Software\uCOS-III\Source\os_task.c **** *
 171:C:\Micrium\Software\uCOS-III\Source\os_task.c **** * Arguments  : p_tcb          is a pointer to the task's TCB
 172:C:\Micrium\Software\uCOS-III\Source\os_task.c **** *
 173:C:\Micrium\Software\uCOS-III\Source\os_task.c **** *              p_name         is a pointer to an ASCII string to provide a name to the task.
 174:C:\Micrium\Software\uCOS-III\Source\os_task.c **** *
 175:C:\Micrium\Software\uCOS-III\Source\os_task.c **** *              p_task         is a pointer to the task's code
 176:C:\Micrium\Software\uCOS-III\Source\os_task.c **** *
 177:C:\Micrium\Software\uCOS-III\Source\os_task.c **** *              p_arg          is a pointer to an optional data area which can be used to pass param
 178:C:\Micrium\Software\uCOS-III\Source\os_task.c **** *                             the task when the task first executes.  Where the task is concerned i
 179:C:\Micrium\Software\uCOS-III\Source\os_task.c **** *                             it was invoked and passed the argument 'p_arg' as follows:
 180:C:\Micrium\Software\uCOS-III\Source\os_task.c **** *
 181:C:\Micrium\Software\uCOS-III\Source\os_task.c **** *                                 void Task (void *p_arg)
 182:C:\Micrium\Software\uCOS-III\Source\os_task.c **** *                                 {
 183:C:\Micrium\Software\uCOS-III\Source\os_task.c **** *                                     for (;;) {
 184:C:\Micrium\Software\uCOS-III\Source\os_task.c **** *                                         Task code;
 185:C:\Micrium\Software\uCOS-III\Source\os_task.c **** *                                     }
 186:C:\Micrium\Software\uCOS-III\Source\os_task.c **** *                                 }
 187:C:\Micrium\Software\uCOS-III\Source\os_task.c **** *
 188:C:\Micrium\Software\uCOS-III\Source\os_task.c **** *              prio           is the task's priority.  A unique priority MUST be assigned to each t
 189:C:\Micrium\Software\uCOS-III\Source\os_task.c **** *                             lower the number, the higher the priority.
 190:C:\Micrium\Software\uCOS-III\Source\os_task.c **** *
 191:C:\Micrium\Software\uCOS-III\Source\os_task.c **** *              p_stk_base     is a pointer to the base address of the stack (i.e. low address).
 192:C:\Micrium\Software\uCOS-III\Source\os_task.c **** *
 193:C:\Micrium\Software\uCOS-III\Source\os_task.c **** *              stk_limit      is the number of stack elements to set as 'watermark' limit for the s
 194:C:\Micrium\Software\uCOS-III\Source\os_task.c **** *                             represents the number of CPU_STK entries left before the stack is ful
 195:C:\Micrium\Software\uCOS-III\Source\os_task.c **** *                             specifying 10% of the 'stk_size' value indicates that the stack limit
 196:C:\Micrium\Software\uCOS-III\Source\os_task.c **** *                             when the stack reaches 90% full.
 197:C:\Micrium\Software\uCOS-III\Source\os_task.c **** *
 198:C:\Micrium\Software\uCOS-III\Source\os_task.c **** *              stk_size       is the size of the stack in number of elements.  If CPU_STK is set to
 199:C:\Micrium\Software\uCOS-III\Source\os_task.c **** *                             'stk_size' corresponds to the number of bytes available.  If CPU_STK 
 200:C:\Micrium\Software\uCOS-III\Source\os_task.c **** *                             CPU_INT16U, 'stk_size' contains the number of 16-bit entries availabl
 201:C:\Micrium\Software\uCOS-III\Source\os_task.c **** *                             CPU_STK is set to CPU_INT32U, 'stk_size' contains the number of 32-bi
 202:C:\Micrium\Software\uCOS-III\Source\os_task.c **** *                             available on the stack.
 203:C:\Micrium\Software\uCOS-III\Source\os_task.c **** *
 204:C:\Micrium\Software\uCOS-III\Source\os_task.c **** *              q_size         is the maximum number of messages that can be sent to the task
 205:C:\Micrium\Software\uCOS-III\Source\os_task.c **** *
 206:C:\Micrium\Software\uCOS-III\Source\os_task.c **** *              time_quanta    amount of time (in ticks) for time slice when round-robin between tas
 207:C:\Micrium\Software\uCOS-III\Source\os_task.c **** *                             the default.
 208:C:\Micrium\Software\uCOS-III\Source\os_task.c **** *
 209:C:\Micrium\Software\uCOS-III\Source\os_task.c **** *              p_ext          is a pointer to a user supplied memory location which is used as a TC
 210:C:\Micrium\Software\uCOS-III\Source\os_task.c **** *                             For example, this user memory can hold the contents of floating-point
 211:C:\Micrium\Software\uCOS-III\Source\os_task.c **** *                             during a context switch, the time each task takes to execute, the num
 212:C:\Micrium\Software\uCOS-III\Source\os_task.c **** *                             the task has been switched-in, etc.
 213:C:\Micrium\Software\uCOS-III\Source\os_task.c **** *
 214:C:\Micrium\Software\uCOS-III\Source\os_task.c **** *              opt            contains additional information (or options) about the behavior of th
 215:C:\Micrium\Software\uCOS-III\Source\os_task.c **** *                             See OS_OPT_TASK_xxx in OS.H.  Current choices are:
 216:C:\Micrium\Software\uCOS-III\Source\os_task.c **** *
 217:C:\Micrium\Software\uCOS-III\Source\os_task.c **** *                                 OS_OPT_TASK_NONE            No option selected
 218:C:\Micrium\Software\uCOS-III\Source\os_task.c **** *                                 OS_OPT_TASK_STK_CHK         Stack checking to be allowed for the 
 219:C:\Micrium\Software\uCOS-III\Source\os_task.c **** *                                 OS_OPT_TASK_STK_CLR         Clear the stack when the task is crea
 220:C:\Micrium\Software\uCOS-III\Source\os_task.c **** *                                 OS_OPT_TASK_SAVE_FP         If the CPU has floating-point registe
 221:C:\Micrium\Software\uCOS-III\Source\os_task.c **** *                                                             during a context switch.
 222:C:\Micrium\Software\uCOS-III\Source\os_task.c **** *                                 OS_OPT_TASK_NO_TLS          If the caller doesn't want or need TL
 223:C:\Micrium\Software\uCOS-III\Source\os_task.c **** *                                                             Storage) support for the task.  If yo
ARM GAS  C:\Users\daniel01\AppData\Local\Temp\ccb5Ykxv.s 			page 9


 224:C:\Micrium\Software\uCOS-III\Source\os_task.c **** *                                                             option, TLS will be supported by defa
 225:C:\Micrium\Software\uCOS-III\Source\os_task.c **** *
 226:C:\Micrium\Software\uCOS-III\Source\os_task.c **** *              p_err          is a pointer to an error code that will be set during this call.  The
 227:C:\Micrium\Software\uCOS-III\Source\os_task.c **** *                             to by 'p_err' can be:
 228:C:\Micrium\Software\uCOS-III\Source\os_task.c **** *
 229:C:\Micrium\Software\uCOS-III\Source\os_task.c **** *                                 OS_ERR_NONE                    if the function was successful.
 230:C:\Micrium\Software\uCOS-III\Source\os_task.c **** *                                 OS_ERR_ILLEGAL_CREATE_RUN_TIME if you are trying to create the ta
 231:C:\Micrium\Software\uCOS-III\Source\os_task.c **** *                                                                   OSSafetyCriticalStart().
 232:C:\Micrium\Software\uCOS-III\Source\os_task.c **** *                                 OS_ERR_NAME                    if 'p_name' is a NULL pointer
 233:C:\Micrium\Software\uCOS-III\Source\os_task.c **** *                                 OS_ERR_PRIO_INVALID            if the priority you specify is hig
 234:C:\Micrium\Software\uCOS-III\Source\os_task.c **** *                                                                   allowed (i.e. >= OS_CFG_PRIO_MA
 235:C:\Micrium\Software\uCOS-III\Source\os_task.c **** *                                                                if OS_CFG_ISR_POST_DEFERRED_EN is 
 236:C:\Micrium\Software\uCOS-III\Source\os_task.c **** *                                                                   to use priority 0 which is rese
 237:C:\Micrium\Software\uCOS-III\Source\os_task.c **** *                                 OS_ERR_STK_INVALID             if you specified a NULL pointer fo
 238:C:\Micrium\Software\uCOS-III\Source\os_task.c **** *                                 OS_ERR_STK_SIZE_INVALID        if you specified zero for the 'stk
 239:C:\Micrium\Software\uCOS-III\Source\os_task.c **** *                                 OS_ERR_STK_LIMIT_INVALID       if you specified a 'stk_limit' gre
 240:C:\Micrium\Software\uCOS-III\Source\os_task.c **** *                                                                   to 'stk_size'
 241:C:\Micrium\Software\uCOS-III\Source\os_task.c **** *                                 OS_ERR_TASK_CREATE_ISR         if you tried to create a task from
 242:C:\Micrium\Software\uCOS-III\Source\os_task.c **** *                                 OS_ERR_TASK_INVALID            if you specified a NULL pointer fo
 243:C:\Micrium\Software\uCOS-III\Source\os_task.c **** *                                 OS_ERR_TCB_INVALID             if you specified a NULL pointer fo
 244:C:\Micrium\Software\uCOS-III\Source\os_task.c **** *
 245:C:\Micrium\Software\uCOS-III\Source\os_task.c **** * Returns    : A pointer to the TCB of the task created.  This pointer must be used as an ID (i.e h
 246:C:\Micrium\Software\uCOS-III\Source\os_task.c **** ***************************************************************************************************
 247:C:\Micrium\Software\uCOS-III\Source\os_task.c **** */
 248:C:\Micrium\Software\uCOS-III\Source\os_task.c **** /*$PAGE*/
 249:C:\Micrium\Software\uCOS-III\Source\os_task.c **** void  OSTaskCreate (OS_TCB        *p_tcb,
 250:C:\Micrium\Software\uCOS-III\Source\os_task.c ****                     CPU_CHAR      *p_name,
 251:C:\Micrium\Software\uCOS-III\Source\os_task.c ****                     OS_TASK_PTR    p_task,
 252:C:\Micrium\Software\uCOS-III\Source\os_task.c ****                     void          *p_arg,
 253:C:\Micrium\Software\uCOS-III\Source\os_task.c ****                     OS_PRIO        prio,
 254:C:\Micrium\Software\uCOS-III\Source\os_task.c ****                     CPU_STK       *p_stk_base,
 255:C:\Micrium\Software\uCOS-III\Source\os_task.c ****                     CPU_STK_SIZE   stk_limit,
 256:C:\Micrium\Software\uCOS-III\Source\os_task.c ****                     CPU_STK_SIZE   stk_size,
 257:C:\Micrium\Software\uCOS-III\Source\os_task.c ****                     OS_MSG_QTY     q_size,
 258:C:\Micrium\Software\uCOS-III\Source\os_task.c ****                     OS_TICK        time_quanta,
 259:C:\Micrium\Software\uCOS-III\Source\os_task.c ****                     void          *p_ext,
 260:C:\Micrium\Software\uCOS-III\Source\os_task.c ****                     OS_OPT         opt,
 261:C:\Micrium\Software\uCOS-III\Source\os_task.c ****                     OS_ERR        *p_err)
 262:C:\Micrium\Software\uCOS-III\Source\os_task.c **** {
 230              		.loc 1 262 0
 231              		.cfi_startproc
 232              		@ args = 36, pretend = 0, frame = 40
 233              		@ frame_needed = 1, uses_anonymous_args = 0
 234 0000 80B5     		push	{r7, lr}
 235              	.LCFI3:
 236              		.cfi_def_cfa_offset 8
 237 0002 8CB0     		sub	sp, sp, #48
 238              	.LCFI4:
 239              		.cfi_def_cfa_offset 56
 240 0004 02AF     		add	r7, sp, #8
 241              		.cfi_offset 14, -4
 242              		.cfi_offset 7, -8
 243              	.LCFI5:
 244              		.cfi_def_cfa 7, 48
 245 0006 F860     		str	r0, [r7, #12]
 246 0008 B960     		str	r1, [r7, #8]
 247 000a 7A60     		str	r2, [r7, #4]
ARM GAS  C:\Users\daniel01\AppData\Local\Temp\ccb5Ykxv.s 			page 10


 248 000c 3B60     		str	r3, [r7, #0]
 263:C:\Micrium\Software\uCOS-III\Source\os_task.c ****     CPU_STK_SIZE   i;
 264:C:\Micrium\Software\uCOS-III\Source\os_task.c **** #if OS_CFG_TASK_REG_TBL_SIZE > 0u
 265:C:\Micrium\Software\uCOS-III\Source\os_task.c ****     OS_REG_ID      reg_nbr;
 266:C:\Micrium\Software\uCOS-III\Source\os_task.c **** #endif
 267:C:\Micrium\Software\uCOS-III\Source\os_task.c **** #if defined(OS_CFG_TLS_TBL_SIZE) && (OS_CFG_TLS_TBL_SIZE > 0u)
 268:C:\Micrium\Software\uCOS-III\Source\os_task.c ****     OS_TLS_ID      id;
 269:C:\Micrium\Software\uCOS-III\Source\os_task.c **** #endif
 270:C:\Micrium\Software\uCOS-III\Source\os_task.c **** 
 271:C:\Micrium\Software\uCOS-III\Source\os_task.c ****     CPU_STK       *p_sp;
 272:C:\Micrium\Software\uCOS-III\Source\os_task.c ****     CPU_STK       *p_stk_limit;
 273:C:\Micrium\Software\uCOS-III\Source\os_task.c ****     CPU_SR_ALLOC();
 249              		.loc 1 273 0
 250 000e 4FF00003 		mov	r3, #0
 251 0012 7B62     		str	r3, [r7, #36]
 274:C:\Micrium\Software\uCOS-III\Source\os_task.c **** 
 275:C:\Micrium\Software\uCOS-III\Source\os_task.c **** 
 276:C:\Micrium\Software\uCOS-III\Source\os_task.c **** 
 277:C:\Micrium\Software\uCOS-III\Source\os_task.c **** #ifdef OS_SAFETY_CRITICAL
 278:C:\Micrium\Software\uCOS-III\Source\os_task.c ****     if (p_err == (OS_ERR *)0) {
 279:C:\Micrium\Software\uCOS-III\Source\os_task.c ****         OS_SAFETY_CRITICAL_EXCEPTION();
 280:C:\Micrium\Software\uCOS-III\Source\os_task.c ****         return;
 281:C:\Micrium\Software\uCOS-III\Source\os_task.c ****     }
 282:C:\Micrium\Software\uCOS-III\Source\os_task.c **** #endif
 283:C:\Micrium\Software\uCOS-III\Source\os_task.c **** 
 284:C:\Micrium\Software\uCOS-III\Source\os_task.c **** #ifdef OS_SAFETY_CRITICAL_IEC61508
 285:C:\Micrium\Software\uCOS-III\Source\os_task.c ****     if (OSSafetyCriticalStartFlag == DEF_TRUE) {
 286:C:\Micrium\Software\uCOS-III\Source\os_task.c ****        *p_err = OS_ERR_ILLEGAL_CREATE_RUN_TIME;
 287:C:\Micrium\Software\uCOS-III\Source\os_task.c ****         return;
 288:C:\Micrium\Software\uCOS-III\Source\os_task.c ****     }
 289:C:\Micrium\Software\uCOS-III\Source\os_task.c **** #endif
 290:C:\Micrium\Software\uCOS-III\Source\os_task.c **** 
 291:C:\Micrium\Software\uCOS-III\Source\os_task.c **** #if OS_CFG_CALLED_FROM_ISR_CHK_EN > 0u
 292:C:\Micrium\Software\uCOS-III\Source\os_task.c ****     if (OSIntNestingCtr > (OS_NESTING_CTR)0) {              /* ---------- CANNOT CREATE A TASK FROM
 252              		.loc 1 292 0
 253 0014 40F20003 		movw	r3, #:lower16:OSIntNestingCtr
 254 0018 C0F20003 		movt	r3, #:upper16:OSIntNestingCtr
 255 001c 1B78     		ldrb	r3, [r3, #0]	@ zero_extendqisi2
 256 001e 002B     		cmp	r3, #0
 257 0020 04D0     		beq	.L20
 293:C:\Micrium\Software\uCOS-III\Source\os_task.c ****        *p_err = OS_ERR_TASK_CREATE_ISR;
 258              		.loc 1 293 0
 259 0022 3B6D     		ldr	r3, [r7, #80]
 260 0024 47F24A12 		movw	r2, #29002
 261 0028 1A80     		strh	r2, [r3, #0]	@ movhi
 294:C:\Micrium\Software\uCOS-III\Source\os_task.c ****         return;
 262              		.loc 1 294 0
 263 002a 03E1     		b	.L37
 264              	.L20:
 295:C:\Micrium\Software\uCOS-III\Source\os_task.c ****     }
 296:C:\Micrium\Software\uCOS-III\Source\os_task.c **** #endif
 297:C:\Micrium\Software\uCOS-III\Source\os_task.c **** 
 298:C:\Micrium\Software\uCOS-III\Source\os_task.c **** #if OS_CFG_ARG_CHK_EN > 0u                                  /* ---------------- VALIDATE ARGUMENTS 
 299:C:\Micrium\Software\uCOS-III\Source\os_task.c ****     if (p_tcb == (OS_TCB *)0) {                             /* User must supply a valid OS_TCB     
 265              		.loc 1 299 0
 266 002c FB68     		ldr	r3, [r7, #12]
 267 002e 002B     		cmp	r3, #0
ARM GAS  C:\Users\daniel01\AppData\Local\Temp\ccb5Ykxv.s 			page 11


 268 0030 04D1     		bne	.L22
 300:C:\Micrium\Software\uCOS-III\Source\os_task.c ****        *p_err = OS_ERR_TCB_INVALID;
 269              		.loc 1 300 0
 270 0032 3B6D     		ldr	r3, [r7, #80]
 271 0034 47F2AD12 		movw	r2, #29101
 272 0038 1A80     		strh	r2, [r3, #0]	@ movhi
 301:C:\Micrium\Software\uCOS-III\Source\os_task.c ****         return;
 273              		.loc 1 301 0
 274 003a FBE0     		b	.L37
 275              	.L22:
 302:C:\Micrium\Software\uCOS-III\Source\os_task.c ****     }
 303:C:\Micrium\Software\uCOS-III\Source\os_task.c ****     if (p_task == (OS_TASK_PTR)0) {                         /* User must supply a valid task       
 276              		.loc 1 303 0
 277 003c 7B68     		ldr	r3, [r7, #4]
 278 003e 002B     		cmp	r3, #0
 279 0040 04D1     		bne	.L23
 304:C:\Micrium\Software\uCOS-III\Source\os_task.c ****        *p_err = OS_ERR_TASK_INVALID;
 280              		.loc 1 304 0
 281 0042 3B6D     		ldr	r3, [r7, #80]
 282 0044 47F24F12 		movw	r2, #29007
 283 0048 1A80     		strh	r2, [r3, #0]	@ movhi
 305:C:\Micrium\Software\uCOS-III\Source\os_task.c ****         return;
 284              		.loc 1 305 0
 285 004a F3E0     		b	.L37
 286              	.L23:
 306:C:\Micrium\Software\uCOS-III\Source\os_task.c ****     }
 307:C:\Micrium\Software\uCOS-III\Source\os_task.c ****     if (p_stk_base == (CPU_STK *)0) {                       /* User must supply a valid stack base 
 287              		.loc 1 307 0
 288 004c 7B6B     		ldr	r3, [r7, #52]
 289 004e 002B     		cmp	r3, #0
 290 0050 04D1     		bne	.L24
 308:C:\Micrium\Software\uCOS-III\Source\os_task.c ****        *p_err = OS_ERR_STK_INVALID;
 291              		.loc 1 308 0
 292 0052 3B6D     		ldr	r3, [r7, #80]
 293 0054 46F62F62 		movw	r2, #28207
 294 0058 1A80     		strh	r2, [r3, #0]	@ movhi
 309:C:\Micrium\Software\uCOS-III\Source\os_task.c ****         return;
 295              		.loc 1 309 0
 296 005a EBE0     		b	.L37
 297              	.L24:
 310:C:\Micrium\Software\uCOS-III\Source\os_task.c ****     }
 311:C:\Micrium\Software\uCOS-III\Source\os_task.c ****     if (stk_size < OSCfg_StkSizeMin) {                      /* User must supply a valid minimum sta
 298              		.loc 1 311 0
 299 005c 40F20003 		movw	r3, #:lower16:OSCfg_StkSizeMin
 300 0060 C0F20003 		movt	r3, #:upper16:OSCfg_StkSizeMin
 301 0064 1B68     		ldr	r3, [r3, #0]
 302 0066 FA6B     		ldr	r2, [r7, #60]
 303 0068 9A42     		cmp	r2, r3
 304 006a 04D2     		bcs	.L25
 312:C:\Micrium\Software\uCOS-III\Source\os_task.c ****        *p_err = OS_ERR_STK_SIZE_INVALID;
 305              		.loc 1 312 0
 306 006c 3B6D     		ldr	r3, [r7, #80]
 307 006e 46F63062 		movw	r2, #28208
 308 0072 1A80     		strh	r2, [r3, #0]	@ movhi
 313:C:\Micrium\Software\uCOS-III\Source\os_task.c ****         return;
 309              		.loc 1 313 0
 310 0074 DEE0     		b	.L37
ARM GAS  C:\Users\daniel01\AppData\Local\Temp\ccb5Ykxv.s 			page 12


 311              	.L25:
 314:C:\Micrium\Software\uCOS-III\Source\os_task.c ****     }
 315:C:\Micrium\Software\uCOS-III\Source\os_task.c ****     if (stk_limit >= stk_size) {                            /* User must supply a valid stack limit
 312              		.loc 1 315 0
 313 0076 BA6B     		ldr	r2, [r7, #56]
 314 0078 FB6B     		ldr	r3, [r7, #60]
 315 007a 9A42     		cmp	r2, r3
 316 007c 04D3     		bcc	.L26
 316:C:\Micrium\Software\uCOS-III\Source\os_task.c ****        *p_err = OS_ERR_STK_LIMIT_INVALID;
 317              		.loc 1 316 0
 318 007e 3B6D     		ldr	r3, [r7, #80]
 319 0080 46F63162 		movw	r2, #28209
 320 0084 1A80     		strh	r2, [r3, #0]	@ movhi
 317:C:\Micrium\Software\uCOS-III\Source\os_task.c ****         return;
 321              		.loc 1 317 0
 322 0086 D5E0     		b	.L37
 323              	.L26:
 318:C:\Micrium\Software\uCOS-III\Source\os_task.c ****     }
 319:C:\Micrium\Software\uCOS-III\Source\os_task.c ****     if (prio >= OS_CFG_PRIO_MAX) {                          /* Priority must be within 0 and OS_CFG
 324              		.loc 1 319 0
 325 0088 97F83030 		ldrb	r3, [r7, #48]	@ zero_extendqisi2
 326 008c 072B     		cmp	r3, #7
 327 008e 04D9     		bls	.L27
 320:C:\Micrium\Software\uCOS-III\Source\os_task.c ****        *p_err = OS_ERR_PRIO_INVALID;
 328              		.loc 1 320 0
 329 0090 3B6D     		ldr	r3, [r7, #80]
 330 0092 46F27322 		movw	r2, #25203
 331 0096 1A80     		strh	r2, [r3, #0]	@ movhi
 321:C:\Micrium\Software\uCOS-III\Source\os_task.c ****         return;
 332              		.loc 1 321 0
 333 0098 CCE0     		b	.L37
 334              	.L27:
 322:C:\Micrium\Software\uCOS-III\Source\os_task.c ****     }
 323:C:\Micrium\Software\uCOS-III\Source\os_task.c **** #endif
 324:C:\Micrium\Software\uCOS-III\Source\os_task.c **** 
 325:C:\Micrium\Software\uCOS-III\Source\os_task.c **** #if OS_CFG_ISR_POST_DEFERRED_EN > 0u
 326:C:\Micrium\Software\uCOS-III\Source\os_task.c ****     if (prio == (OS_PRIO)0) {
 327:C:\Micrium\Software\uCOS-III\Source\os_task.c ****         if (p_tcb != &OSIntQTaskTCB) {
 328:C:\Micrium\Software\uCOS-III\Source\os_task.c ****            *p_err = OS_ERR_PRIO_INVALID;                    /* Not allowed to use priority 0       
 329:C:\Micrium\Software\uCOS-III\Source\os_task.c ****             return;
 330:C:\Micrium\Software\uCOS-III\Source\os_task.c ****         }
 331:C:\Micrium\Software\uCOS-III\Source\os_task.c ****     }
 332:C:\Micrium\Software\uCOS-III\Source\os_task.c **** #endif
 333:C:\Micrium\Software\uCOS-III\Source\os_task.c **** 
 334:C:\Micrium\Software\uCOS-III\Source\os_task.c ****     if (prio == (OS_CFG_PRIO_MAX - 1u)) {
 335              		.loc 1 334 0
 336 009a 97F83030 		ldrb	r3, [r7, #48]	@ zero_extendqisi2
 337 009e 072B     		cmp	r3, #7
 338 00a0 0BD1     		bne	.L28
 335:C:\Micrium\Software\uCOS-III\Source\os_task.c ****         if (p_tcb != &OSIdleTaskTCB) {
 339              		.loc 1 335 0
 340 00a2 FA68     		ldr	r2, [r7, #12]
 341 00a4 40F20003 		movw	r3, #:lower16:OSIdleTaskTCB
 342 00a8 C0F20003 		movt	r3, #:upper16:OSIdleTaskTCB
 343 00ac 9A42     		cmp	r2, r3
 344 00ae 04D0     		beq	.L28
 336:C:\Micrium\Software\uCOS-III\Source\os_task.c ****            *p_err = OS_ERR_PRIO_INVALID;                    /* Not allowed to use same priority as 
ARM GAS  C:\Users\daniel01\AppData\Local\Temp\ccb5Ykxv.s 			page 13


 345              		.loc 1 336 0
 346 00b0 3B6D     		ldr	r3, [r7, #80]
 347 00b2 46F27322 		movw	r2, #25203
 348 00b6 1A80     		strh	r2, [r3, #0]	@ movhi
 337:C:\Micrium\Software\uCOS-III\Source\os_task.c ****             return;
 349              		.loc 1 337 0
 350 00b8 BCE0     		b	.L37
 351              	.L28:
 338:C:\Micrium\Software\uCOS-III\Source\os_task.c ****         }
 339:C:\Micrium\Software\uCOS-III\Source\os_task.c ****     }
 340:C:\Micrium\Software\uCOS-III\Source\os_task.c **** 
 341:C:\Micrium\Software\uCOS-III\Source\os_task.c ****     OS_TaskInitTCB(p_tcb);                                  /* Initialize the TCB to default values
 352              		.loc 1 341 0
 353 00ba F868     		ldr	r0, [r7, #12]
 354 00bc FFF7FEFF 		bl	OS_TaskInitTCB
 342:C:\Micrium\Software\uCOS-III\Source\os_task.c **** 
 343:C:\Micrium\Software\uCOS-III\Source\os_task.c ****    *p_err = OS_ERR_NONE;
 355              		.loc 1 343 0
 356 00c0 3B6D     		ldr	r3, [r7, #80]
 357 00c2 4FF00002 		mov	r2, #0
 358 00c6 1A80     		strh	r2, [r3, #0]	@ movhi
 344:C:\Micrium\Software\uCOS-III\Source\os_task.c ****                                                             /* --------------- CLEAR THE TASK'S STA
 345:C:\Micrium\Software\uCOS-III\Source\os_task.c ****     if ((opt & OS_OPT_TASK_STK_CHK) != (OS_OPT)0) {         /* See if stack checking has been enabl
 359              		.loc 1 345 0
 360 00c8 B7F84C30 		ldrh	r3, [r7, #76]
 361 00cc 03F00103 		and	r3, r3, #1
 362 00d0 DBB2     		uxtb	r3, r3
 363 00d2 002B     		cmp	r3, #0
 364 00d4 1BD0     		beq	.L29
 346:C:\Micrium\Software\uCOS-III\Source\os_task.c ****         if ((opt & OS_OPT_TASK_STK_CLR) != (OS_OPT)0) {     /* See if stack needs to be cleared    
 365              		.loc 1 346 0
 366 00d6 B7F84C30 		ldrh	r3, [r7, #76]
 367 00da 03F00203 		and	r3, r3, #2
 368 00de 002B     		cmp	r3, #0
 369 00e0 15D0     		beq	.L29
 347:C:\Micrium\Software\uCOS-III\Source\os_task.c ****             p_sp = p_stk_base;
 370              		.loc 1 347 0
 371 00e2 7B6B     		ldr	r3, [r7, #52]
 372 00e4 FB61     		str	r3, [r7, #28]
 348:C:\Micrium\Software\uCOS-III\Source\os_task.c ****             for (i = 0u; i < stk_size; i++) {               /* Stack grows from HIGH to LOW memory 
 373              		.loc 1 348 0
 374 00e6 4FF00003 		mov	r3, #0
 375 00ea 7B61     		str	r3, [r7, #20]
 376 00ec 0BE0     		b	.L30
 377              	.L31:
 349:C:\Micrium\Software\uCOS-III\Source\os_task.c ****                *p_sp = (CPU_STK)0;                          /* Clear from bottom of stack and up!  
 378              		.loc 1 349 0
 379 00ee FB69     		ldr	r3, [r7, #28]
 380 00f0 4FF00002 		mov	r2, #0
 381 00f4 1A60     		str	r2, [r3, #0]
 350:C:\Micrium\Software\uCOS-III\Source\os_task.c ****                 p_sp++;
 382              		.loc 1 350 0
 383 00f6 FB69     		ldr	r3, [r7, #28]
 384 00f8 03F10403 		add	r3, r3, #4
 385 00fc FB61     		str	r3, [r7, #28]
 386              		.loc 1 348 0
 387 00fe 7B69     		ldr	r3, [r7, #20]
ARM GAS  C:\Users\daniel01\AppData\Local\Temp\ccb5Ykxv.s 			page 14


 388 0100 03F10103 		add	r3, r3, #1
 389 0104 7B61     		str	r3, [r7, #20]
 390              	.L30:
 391 0106 7A69     		ldr	r2, [r7, #20]
 392 0108 FB6B     		ldr	r3, [r7, #60]
 393 010a 9A42     		cmp	r2, r3
 394 010c EFD3     		bcc	.L31
 395              	.L29:
 351:C:\Micrium\Software\uCOS-III\Source\os_task.c ****             }
 352:C:\Micrium\Software\uCOS-III\Source\os_task.c ****         }
 353:C:\Micrium\Software\uCOS-III\Source\os_task.c ****     }
 354:C:\Micrium\Software\uCOS-III\Source\os_task.c ****                                                             /* ------- INITIALIZE THE STACK FRAME O
 355:C:\Micrium\Software\uCOS-III\Source\os_task.c **** #if (CPU_CFG_STK_GROWTH == CPU_STK_GROWTH_HI_TO_LO)
 356:C:\Micrium\Software\uCOS-III\Source\os_task.c ****     p_stk_limit = p_stk_base + stk_limit;
 396              		.loc 1 356 0
 397 010e BB6B     		ldr	r3, [r7, #56]
 398 0110 4FEA8303 		lsl	r3, r3, #2
 399 0114 7A6B     		ldr	r2, [r7, #52]
 400 0116 1344     		add	r3, r2, r3
 401 0118 3B62     		str	r3, [r7, #32]
 357:C:\Micrium\Software\uCOS-III\Source\os_task.c **** #else
 358:C:\Micrium\Software\uCOS-III\Source\os_task.c ****     p_stk_limit = p_stk_base + (stk_size - 1u) - stk_limit;
 359:C:\Micrium\Software\uCOS-III\Source\os_task.c **** #endif
 360:C:\Micrium\Software\uCOS-III\Source\os_task.c **** 
 361:C:\Micrium\Software\uCOS-III\Source\os_task.c ****     p_sp = OSTaskStkInit(p_task,
 402              		.loc 1 361 0
 403 011a FB6B     		ldr	r3, [r7, #60]
 404 011c 0093     		str	r3, [sp, #0]
 405 011e B7F84C30 		ldrh	r3, [r7, #76]
 406 0122 0193     		str	r3, [sp, #4]
 407 0124 7868     		ldr	r0, [r7, #4]
 408 0126 3968     		ldr	r1, [r7, #0]
 409 0128 7A6B     		ldr	r2, [r7, #52]
 410 012a 3B6A     		ldr	r3, [r7, #32]
 411 012c FFF7FEFF 		bl	OSTaskStkInit
 412 0130 0346     		mov	r3, r0
 413 0132 FB61     		str	r3, [r7, #28]
 362:C:\Micrium\Software\uCOS-III\Source\os_task.c ****                          p_arg,
 363:C:\Micrium\Software\uCOS-III\Source\os_task.c ****                          p_stk_base,
 364:C:\Micrium\Software\uCOS-III\Source\os_task.c ****                          p_stk_limit,
 365:C:\Micrium\Software\uCOS-III\Source\os_task.c ****                          stk_size,
 366:C:\Micrium\Software\uCOS-III\Source\os_task.c ****                          opt);
 367:C:\Micrium\Software\uCOS-III\Source\os_task.c **** 
 368:C:\Micrium\Software\uCOS-III\Source\os_task.c ****                                                             /* -------------- INITIALIZE THE TCB FI
 369:C:\Micrium\Software\uCOS-III\Source\os_task.c ****     p_tcb->TaskEntryAddr = p_task;                          /* Save task entry point address       
 414              		.loc 1 369 0
 415 0134 FB68     		ldr	r3, [r7, #12]
 416 0136 7A68     		ldr	r2, [r7, #4]
 417 0138 9A62     		str	r2, [r3, #40]
 370:C:\Micrium\Software\uCOS-III\Source\os_task.c ****     p_tcb->TaskEntryArg  = p_arg;                           /* Save task entry argument            
 418              		.loc 1 370 0
 419 013a FB68     		ldr	r3, [r7, #12]
 420 013c 3A68     		ldr	r2, [r7, #0]
 421 013e DA62     		str	r2, [r3, #44]
 371:C:\Micrium\Software\uCOS-III\Source\os_task.c **** 
 372:C:\Micrium\Software\uCOS-III\Source\os_task.c ****     p_tcb->NamePtr       = p_name;                          /* Save task name                      
 422              		.loc 1 372 0
ARM GAS  C:\Users\daniel01\AppData\Local\Temp\ccb5Ykxv.s 			page 15


 423 0140 FB68     		ldr	r3, [r7, #12]
 424 0142 BA68     		ldr	r2, [r7, #8]
 425 0144 1A62     		str	r2, [r3, #32]
 373:C:\Micrium\Software\uCOS-III\Source\os_task.c **** 
 374:C:\Micrium\Software\uCOS-III\Source\os_task.c ****     p_tcb->Prio          = prio;                            /* Save the task's priority            
 426              		.loc 1 374 0
 427 0146 FB68     		ldr	r3, [r7, #12]
 428 0148 97F83020 		ldrb	r2, [r7, #48]
 429 014c 83F83720 		strb	r2, [r3, #55]
 375:C:\Micrium\Software\uCOS-III\Source\os_task.c **** 
 376:C:\Micrium\Software\uCOS-III\Source\os_task.c ****     p_tcb->StkPtr        = p_sp;                            /* Save the new top-of-stack pointer   
 430              		.loc 1 376 0
 431 0150 FB68     		ldr	r3, [r7, #12]
 432 0152 FA69     		ldr	r2, [r7, #28]
 433 0154 1A60     		str	r2, [r3, #0]
 377:C:\Micrium\Software\uCOS-III\Source\os_task.c ****     p_tcb->StkLimitPtr   = p_stk_limit;                     /* Save the stack limit pointer        
 434              		.loc 1 377 0
 435 0156 FB68     		ldr	r3, [r7, #12]
 436 0158 3A6A     		ldr	r2, [r7, #32]
 437 015a 9A60     		str	r2, [r3, #8]
 378:C:\Micrium\Software\uCOS-III\Source\os_task.c **** 
 379:C:\Micrium\Software\uCOS-III\Source\os_task.c ****     p_tcb->TimeQuanta    = time_quanta;                     /* Save the #ticks for time slice (0 me
 438              		.loc 1 379 0
 439 015c FB68     		ldr	r3, [r7, #12]
 440 015e 7A6C     		ldr	r2, [r7, #68]
 441 0160 5A65     		str	r2, [r3, #84]
 380:C:\Micrium\Software\uCOS-III\Source\os_task.c **** #if OS_CFG_SCHED_ROUND_ROBIN_EN > 0u
 381:C:\Micrium\Software\uCOS-III\Source\os_task.c ****     if (time_quanta == (OS_TICK)0) {
 442              		.loc 1 381 0
 443 0162 7B6C     		ldr	r3, [r7, #68]
 444 0164 002B     		cmp	r3, #0
 445 0166 07D1     		bne	.L32
 382:C:\Micrium\Software\uCOS-III\Source\os_task.c ****         p_tcb->TimeQuantaCtr = OSSchedRoundRobinDfltTimeQuanta;
 446              		.loc 1 382 0
 447 0168 40F20003 		movw	r3, #:lower16:OSSchedRoundRobinDfltTimeQuanta
 448 016c C0F20003 		movt	r3, #:upper16:OSSchedRoundRobinDfltTimeQuanta
 449 0170 1A68     		ldr	r2, [r3, #0]
 450 0172 FB68     		ldr	r3, [r7, #12]
 451 0174 9A65     		str	r2, [r3, #88]
 452 0176 02E0     		b	.L33
 453              	.L32:
 383:C:\Micrium\Software\uCOS-III\Source\os_task.c ****     } else {
 384:C:\Micrium\Software\uCOS-III\Source\os_task.c ****         p_tcb->TimeQuantaCtr = time_quanta;
 454              		.loc 1 384 0
 455 0178 FB68     		ldr	r3, [r7, #12]
 456 017a 7A6C     		ldr	r2, [r7, #68]
 457 017c 9A65     		str	r2, [r3, #88]
 458              	.L33:
 385:C:\Micrium\Software\uCOS-III\Source\os_task.c ****     }
 386:C:\Micrium\Software\uCOS-III\Source\os_task.c **** #endif
 387:C:\Micrium\Software\uCOS-III\Source\os_task.c ****     p_tcb->ExtPtr        = p_ext;                           /* Save pointer to TCB extension       
 459              		.loc 1 387 0
 460 017e FB68     		ldr	r3, [r7, #12]
 461 0180 BA6C     		ldr	r2, [r7, #72]
 462 0182 5A60     		str	r2, [r3, #4]
 388:C:\Micrium\Software\uCOS-III\Source\os_task.c ****     p_tcb->StkBasePtr    = p_stk_base;                      /* Save pointer to the base address of 
 463              		.loc 1 388 0
ARM GAS  C:\Users\daniel01\AppData\Local\Temp\ccb5Ykxv.s 			page 16


 464 0184 FB68     		ldr	r3, [r7, #12]
 465 0186 7A6B     		ldr	r2, [r7, #52]
 466 0188 5A62     		str	r2, [r3, #36]
 389:C:\Micrium\Software\uCOS-III\Source\os_task.c ****     p_tcb->StkSize       = stk_size;                        /* Save the stack size (in number of CP
 467              		.loc 1 389 0
 468 018a FB68     		ldr	r3, [r7, #12]
 469 018c FA6B     		ldr	r2, [r7, #60]
 470 018e 9A63     		str	r2, [r3, #56]
 390:C:\Micrium\Software\uCOS-III\Source\os_task.c ****     p_tcb->Opt           = opt;                             /* Save task options                   
 471              		.loc 1 390 0
 472 0190 FB68     		ldr	r3, [r7, #12]
 473 0192 B7F84C20 		ldrh	r2, [r7, #76]	@ movhi
 474 0196 9A87     		strh	r2, [r3, #60]	@ movhi
 391:C:\Micrium\Software\uCOS-III\Source\os_task.c **** 
 392:C:\Micrium\Software\uCOS-III\Source\os_task.c **** #if OS_CFG_TASK_REG_TBL_SIZE > 0u
 393:C:\Micrium\Software\uCOS-III\Source\os_task.c ****     for (reg_nbr = 0u; reg_nbr < OS_CFG_TASK_REG_TBL_SIZE; reg_nbr++) {
 475              		.loc 1 393 0
 476 0198 4FF00003 		mov	r3, #0
 477 019c FB76     		strb	r3, [r7, #27]
 478 019e 0DE0     		b	.L34
 479              	.L35:
 394:C:\Micrium\Software\uCOS-III\Source\os_task.c ****         p_tcb->RegTbl[reg_nbr] = (OS_REG)0;
 480              		.loc 1 394 0
 481 01a0 FB7E     		ldrb	r3, [r7, #27]	@ zero_extendqisi2
 482 01a2 FA68     		ldr	r2, [r7, #12]
 483 01a4 03F11E03 		add	r3, r3, #30
 484 01a8 4FEA8303 		lsl	r3, r3, #2
 485 01ac 1344     		add	r3, r3, r2
 486 01ae 4FF00002 		mov	r2, #0
 487 01b2 5A60     		str	r2, [r3, #4]
 488              		.loc 1 393 0
 489 01b4 FB7E     		ldrb	r3, [r7, #27]
 490 01b6 03F10103 		add	r3, r3, #1
 491 01ba FB76     		strb	r3, [r7, #27]
 492              	.L34:
 493 01bc FB7E     		ldrb	r3, [r7, #27]	@ zero_extendqisi2
 494 01be 002B     		cmp	r3, #0
 495 01c0 EED0     		beq	.L35
 395:C:\Micrium\Software\uCOS-III\Source\os_task.c ****     }
 396:C:\Micrium\Software\uCOS-III\Source\os_task.c **** #endif
 397:C:\Micrium\Software\uCOS-III\Source\os_task.c **** 
 398:C:\Micrium\Software\uCOS-III\Source\os_task.c **** #if OS_CFG_TASK_Q_EN > 0u
 399:C:\Micrium\Software\uCOS-III\Source\os_task.c ****     OS_MsgQInit(&p_tcb->MsgQ,                               /* Initialize the task's message queue 
 496              		.loc 1 399 0
 497 01c2 FB68     		ldr	r3, [r7, #12]
 498 01c4 03F16402 		add	r2, r3, #100
 499 01c8 B7F84030 		ldrh	r3, [r7, #64]
 500 01cc 1046     		mov	r0, r2
 501 01ce 1946     		mov	r1, r3
 502 01d0 FFF7FEFF 		bl	OS_MsgQInit
 400:C:\Micrium\Software\uCOS-III\Source\os_task.c ****                 q_size);
 401:C:\Micrium\Software\uCOS-III\Source\os_task.c **** #else
 402:C:\Micrium\Software\uCOS-III\Source\os_task.c ****     (void)&q_size;
 403:C:\Micrium\Software\uCOS-III\Source\os_task.c **** #endif
 404:C:\Micrium\Software\uCOS-III\Source\os_task.c **** 
 405:C:\Micrium\Software\uCOS-III\Source\os_task.c ****     OSTaskCreateHook(p_tcb);                                /* Call user defined hook              
 503              		.loc 1 405 0
ARM GAS  C:\Users\daniel01\AppData\Local\Temp\ccb5Ykxv.s 			page 17


 504 01d4 F868     		ldr	r0, [r7, #12]
 505 01d6 FFF7FEFF 		bl	OSTaskCreateHook
 406:C:\Micrium\Software\uCOS-III\Source\os_task.c **** 
 407:C:\Micrium\Software\uCOS-III\Source\os_task.c **** #if defined(OS_CFG_TLS_TBL_SIZE) && (OS_CFG_TLS_TBL_SIZE > 0u)
 408:C:\Micrium\Software\uCOS-III\Source\os_task.c ****     for (id = 0u; id < OS_CFG_TLS_TBL_SIZE; id++) {
 409:C:\Micrium\Software\uCOS-III\Source\os_task.c ****         p_tcb->TLS_Tbl[id] = (OS_TLS)0;
 410:C:\Micrium\Software\uCOS-III\Source\os_task.c ****     }
 411:C:\Micrium\Software\uCOS-III\Source\os_task.c ****     OS_TLS_TaskCreate(p_tcb);                               /* Call TLS hook                       
 412:C:\Micrium\Software\uCOS-III\Source\os_task.c **** #endif
 413:C:\Micrium\Software\uCOS-III\Source\os_task.c ****                                                             /* --------------- ADD TASK TO READY LI
 414:C:\Micrium\Software\uCOS-III\Source\os_task.c ****     OS_CRITICAL_ENTER();
 506              		.loc 1 414 0
 507 01da FFF7FEFF 		bl	CPU_SR_Save
 508 01de 0346     		mov	r3, r0
 509 01e0 7B62     		str	r3, [r7, #36]
 415:C:\Micrium\Software\uCOS-III\Source\os_task.c ****     OS_PrioInsert(p_tcb->Prio);
 510              		.loc 1 415 0
 511 01e2 FB68     		ldr	r3, [r7, #12]
 512 01e4 93F83730 		ldrb	r3, [r3, #55]	@ zero_extendqisi2
 513 01e8 1846     		mov	r0, r3
 514 01ea FFF7FEFF 		bl	OS_PrioInsert
 416:C:\Micrium\Software\uCOS-III\Source\os_task.c ****     OS_RdyListInsertTail(p_tcb);
 515              		.loc 1 416 0
 516 01ee F868     		ldr	r0, [r7, #12]
 517 01f0 FFF7FEFF 		bl	OS_RdyListInsertTail
 417:C:\Micrium\Software\uCOS-III\Source\os_task.c **** 
 418:C:\Micrium\Software\uCOS-III\Source\os_task.c **** #if OS_CFG_DBG_EN > 0u
 419:C:\Micrium\Software\uCOS-III\Source\os_task.c ****     OS_TaskDbgListAdd(p_tcb);
 518              		.loc 1 419 0
 519 01f4 F868     		ldr	r0, [r7, #12]
 520 01f6 FFF7FEFF 		bl	OS_TaskDbgListAdd
 420:C:\Micrium\Software\uCOS-III\Source\os_task.c **** #endif
 421:C:\Micrium\Software\uCOS-III\Source\os_task.c **** 
 422:C:\Micrium\Software\uCOS-III\Source\os_task.c ****     OSTaskQty++;                                            /* Increment the #tasks counter        
 521              		.loc 1 422 0
 522 01fa 40F20003 		movw	r3, #:lower16:OSTaskQty
 523 01fe C0F20003 		movt	r3, #:upper16:OSTaskQty
 524 0202 1B88     		ldrh	r3, [r3, #0]
 525 0204 03F10103 		add	r3, r3, #1
 526 0208 9AB2     		uxth	r2, r3
 527 020a 40F20003 		movw	r3, #:lower16:OSTaskQty
 528 020e C0F20003 		movt	r3, #:upper16:OSTaskQty
 529 0212 1A80     		strh	r2, [r3, #0]	@ movhi
 423:C:\Micrium\Software\uCOS-III\Source\os_task.c **** 
 424:C:\Micrium\Software\uCOS-III\Source\os_task.c ****     if (OSRunning != OS_STATE_OS_RUNNING) {                 /* Return if multitasking has not start
 530              		.loc 1 424 0
 531 0214 40F20003 		movw	r3, #:lower16:OSRunning
 532 0218 C0F20003 		movt	r3, #:upper16:OSRunning
 533 021c 1B78     		ldrb	r3, [r3, #0]	@ zero_extendqisi2
 534 021e 012B     		cmp	r3, #1
 535 0220 03D0     		beq	.L36
 425:C:\Micrium\Software\uCOS-III\Source\os_task.c ****         OS_CRITICAL_EXIT();
 536              		.loc 1 425 0
 537 0222 786A     		ldr	r0, [r7, #36]
 538 0224 FFF7FEFF 		bl	CPU_SR_Restore
 426:C:\Micrium\Software\uCOS-III\Source\os_task.c ****         return;
 539              		.loc 1 426 0
ARM GAS  C:\Users\daniel01\AppData\Local\Temp\ccb5Ykxv.s 			page 18


 540 0228 04E0     		b	.L37
 541              	.L36:
 427:C:\Micrium\Software\uCOS-III\Source\os_task.c ****     }
 428:C:\Micrium\Software\uCOS-III\Source\os_task.c **** 
 429:C:\Micrium\Software\uCOS-III\Source\os_task.c ****     OS_CRITICAL_EXIT_NO_SCHED();
 542              		.loc 1 429 0
 543 022a 786A     		ldr	r0, [r7, #36]
 544 022c FFF7FEFF 		bl	CPU_SR_Restore
 430:C:\Micrium\Software\uCOS-III\Source\os_task.c **** 
 431:C:\Micrium\Software\uCOS-III\Source\os_task.c ****     OSSched();
 545              		.loc 1 431 0
 546 0230 FFF7FEFF 		bl	OSSched
 547              	.L37:
 432:C:\Micrium\Software\uCOS-III\Source\os_task.c **** }
 548              		.loc 1 432 0
 549 0234 07F12807 		add	r7, r7, #40
 550 0238 BD46     		mov	sp, r7
 551 023a 80BD     		pop	{r7, pc}
 552              		.cfi_endproc
 553              	.LFE1:
 554              		.size	OSTaskCreate, .-OSTaskCreate
 555              		.section	.text.OSTaskDel,"ax",%progbits
 556              		.align	2
 557              		.global	OSTaskDel
 558              		.thumb
 559              		.thumb_func
 560              		.type	OSTaskDel, %function
 561              	OSTaskDel:
 562              	.LFB2:
 433:C:\Micrium\Software\uCOS-III\Source\os_task.c **** 
 434:C:\Micrium\Software\uCOS-III\Source\os_task.c **** /*$PAGE*/
 435:C:\Micrium\Software\uCOS-III\Source\os_task.c **** /*
 436:C:\Micrium\Software\uCOS-III\Source\os_task.c **** ***************************************************************************************************
 437:C:\Micrium\Software\uCOS-III\Source\os_task.c **** *                                                     DELETE A TASK
 438:C:\Micrium\Software\uCOS-III\Source\os_task.c **** *
 439:C:\Micrium\Software\uCOS-III\Source\os_task.c **** * Description: This function allows you to delete a task.  The calling task can delete itself by sp
 440:C:\Micrium\Software\uCOS-III\Source\os_task.c **** *              pointer for 'p_tcb'.  The deleted task is returned to the dormant state and can be r
 441:C:\Micrium\Software\uCOS-III\Source\os_task.c **** *              creating the deleted task again.
 442:C:\Micrium\Software\uCOS-III\Source\os_task.c **** *
 443:C:\Micrium\Software\uCOS-III\Source\os_task.c **** * Arguments  : p_tcb      is the TCB of the tack to delete
 444:C:\Micrium\Software\uCOS-III\Source\os_task.c **** *
 445:C:\Micrium\Software\uCOS-III\Source\os_task.c **** *              p_err      is a pointer to an error code returned by this function:
 446:C:\Micrium\Software\uCOS-III\Source\os_task.c **** *
 447:C:\Micrium\Software\uCOS-III\Source\os_task.c **** *                             OS_ERR_NONE                  if the call is successful
 448:C:\Micrium\Software\uCOS-III\Source\os_task.c **** *                             OS_ERR_STATE_INVALID         if the state of the task is invalid
 449:C:\Micrium\Software\uCOS-III\Source\os_task.c **** *                             OS_ERR_TASK_DEL_IDLE         if you attempted to delete uC/OS-III's i
 450:C:\Micrium\Software\uCOS-III\Source\os_task.c **** *                             OS_ERR_TASK_DEL_INVALID      if you attempted to delete uC/OS-III's I
 451:C:\Micrium\Software\uCOS-III\Source\os_task.c **** *                             OS_ERR_TASK_DEL_ISR          if you tried to delete a task from an IS
 452:C:\Micrium\Software\uCOS-III\Source\os_task.c **** *
 453:C:\Micrium\Software\uCOS-III\Source\os_task.c **** * Note(s)    : 1) 'p_err' gets set to OS_ERR_NONE before OSSched() to allow the returned error code
 454:C:\Micrium\Software\uCOS-III\Source\os_task.c **** *                 for a task that is deleting itself. In this case, 'p_err' MUST point to a global 
 455:C:\Micrium\Software\uCOS-III\Source\os_task.c **** *                 accessed by another task.
 456:C:\Micrium\Software\uCOS-III\Source\os_task.c **** ***************************************************************************************************
 457:C:\Micrium\Software\uCOS-III\Source\os_task.c **** */
 458:C:\Micrium\Software\uCOS-III\Source\os_task.c **** 
 459:C:\Micrium\Software\uCOS-III\Source\os_task.c **** #if OS_CFG_TASK_DEL_EN > 0u
 460:C:\Micrium\Software\uCOS-III\Source\os_task.c **** void  OSTaskDel (OS_TCB  *p_tcb,
ARM GAS  C:\Users\daniel01\AppData\Local\Temp\ccb5Ykxv.s 			page 19


 461:C:\Micrium\Software\uCOS-III\Source\os_task.c ****                  OS_ERR  *p_err)
 462:C:\Micrium\Software\uCOS-III\Source\os_task.c **** {
 563              		.loc 1 462 0
 564              		.cfi_startproc
 565              		@ args = 0, pretend = 0, frame = 16
 566              		@ frame_needed = 1, uses_anonymous_args = 0
 567 0000 80B5     		push	{r7, lr}
 568              	.LCFI6:
 569              		.cfi_def_cfa_offset 8
 570 0002 84B0     		sub	sp, sp, #16
 571              	.LCFI7:
 572              		.cfi_def_cfa_offset 24
 573 0004 00AF     		add	r7, sp, #0
 574              		.cfi_offset 14, -4
 575              		.cfi_offset 7, -8
 576              	.LCFI8:
 577              		.cfi_def_cfa_register 7
 578 0006 7860     		str	r0, [r7, #4]
 579 0008 3960     		str	r1, [r7, #0]
 463:C:\Micrium\Software\uCOS-III\Source\os_task.c ****     CPU_SR_ALLOC();
 580              		.loc 1 463 0
 581 000a 4FF00003 		mov	r3, #0
 582 000e FB60     		str	r3, [r7, #12]
 464:C:\Micrium\Software\uCOS-III\Source\os_task.c **** 
 465:C:\Micrium\Software\uCOS-III\Source\os_task.c **** 
 466:C:\Micrium\Software\uCOS-III\Source\os_task.c **** 
 467:C:\Micrium\Software\uCOS-III\Source\os_task.c **** #ifdef OS_SAFETY_CRITICAL
 468:C:\Micrium\Software\uCOS-III\Source\os_task.c ****     if (p_err == (OS_ERR *)0) {
 469:C:\Micrium\Software\uCOS-III\Source\os_task.c ****         OS_SAFETY_CRITICAL_EXCEPTION();
 470:C:\Micrium\Software\uCOS-III\Source\os_task.c ****         return;
 471:C:\Micrium\Software\uCOS-III\Source\os_task.c ****     }
 472:C:\Micrium\Software\uCOS-III\Source\os_task.c **** #endif
 473:C:\Micrium\Software\uCOS-III\Source\os_task.c **** 
 474:C:\Micrium\Software\uCOS-III\Source\os_task.c **** #if OS_CFG_CALLED_FROM_ISR_CHK_EN > 0u
 475:C:\Micrium\Software\uCOS-III\Source\os_task.c ****     if (OSIntNestingCtr > (OS_NESTING_CTR)0) {              /* See if trying to delete from ISR    
 583              		.loc 1 475 0
 584 0010 40F20003 		movw	r3, #:lower16:OSIntNestingCtr
 585 0014 C0F20003 		movt	r3, #:upper16:OSIntNestingCtr
 586 0018 1B78     		ldrb	r3, [r3, #0]	@ zero_extendqisi2
 587 001a 002B     		cmp	r3, #0
 588 001c 04D0     		beq	.L39
 476:C:\Micrium\Software\uCOS-III\Source\os_task.c ****        *p_err = OS_ERR_TASK_DEL_ISR;
 589              		.loc 1 476 0
 590 001e 3B68     		ldr	r3, [r7, #0]
 591 0020 47F24E12 		movw	r2, #29006
 592 0024 1A80     		strh	r2, [r3, #0]	@ movhi
 477:C:\Micrium\Software\uCOS-III\Source\os_task.c ****         return;
 593              		.loc 1 477 0
 594 0026 8FE0     		b	.L53
 595              	.L39:
 478:C:\Micrium\Software\uCOS-III\Source\os_task.c ****     }
 479:C:\Micrium\Software\uCOS-III\Source\os_task.c **** #endif
 480:C:\Micrium\Software\uCOS-III\Source\os_task.c **** 
 481:C:\Micrium\Software\uCOS-III\Source\os_task.c ****     if (p_tcb == &OSIdleTaskTCB) {                          /* Not allowed to delete the idle task 
 596              		.loc 1 481 0
 597 0028 7A68     		ldr	r2, [r7, #4]
 598 002a 40F20003 		movw	r3, #:lower16:OSIdleTaskTCB
ARM GAS  C:\Users\daniel01\AppData\Local\Temp\ccb5Ykxv.s 			page 20


 599 002e C0F20003 		movt	r3, #:upper16:OSIdleTaskTCB
 600 0032 9A42     		cmp	r2, r3
 601 0034 04D1     		bne	.L41
 482:C:\Micrium\Software\uCOS-III\Source\os_task.c ****        *p_err = OS_ERR_TASK_DEL_IDLE;
 602              		.loc 1 482 0
 603 0036 3B68     		ldr	r3, [r7, #0]
 604 0038 47F24C12 		movw	r2, #29004
 605 003c 1A80     		strh	r2, [r3, #0]	@ movhi
 483:C:\Micrium\Software\uCOS-III\Source\os_task.c ****         return;
 606              		.loc 1 483 0
 607 003e 83E0     		b	.L53
 608              	.L41:
 484:C:\Micrium\Software\uCOS-III\Source\os_task.c ****     }
 485:C:\Micrium\Software\uCOS-III\Source\os_task.c **** 
 486:C:\Micrium\Software\uCOS-III\Source\os_task.c **** #if OS_CFG_ISR_POST_DEFERRED_EN > 0u
 487:C:\Micrium\Software\uCOS-III\Source\os_task.c ****     if (p_tcb == &OSIntQTaskTCB) {                          /* Cannot delete the ISR handler task  
 488:C:\Micrium\Software\uCOS-III\Source\os_task.c ****        *p_err = OS_ERR_TASK_DEL_INVALID;
 489:C:\Micrium\Software\uCOS-III\Source\os_task.c ****         return;
 490:C:\Micrium\Software\uCOS-III\Source\os_task.c ****     }
 491:C:\Micrium\Software\uCOS-III\Source\os_task.c **** #endif
 492:C:\Micrium\Software\uCOS-III\Source\os_task.c **** 
 493:C:\Micrium\Software\uCOS-III\Source\os_task.c ****     if (p_tcb == (OS_TCB *)0) {                             /* Delete 'Self'?                      
 609              		.loc 1 493 0
 610 0040 7B68     		ldr	r3, [r7, #4]
 611 0042 002B     		cmp	r3, #0
 612 0044 0CD1     		bne	.L42
 494:C:\Micrium\Software\uCOS-III\Source\os_task.c ****         CPU_CRITICAL_ENTER();
 613              		.loc 1 494 0
 614 0046 FFF7FEFF 		bl	CPU_SR_Save
 615 004a 0346     		mov	r3, r0
 616 004c FB60     		str	r3, [r7, #12]
 495:C:\Micrium\Software\uCOS-III\Source\os_task.c ****         p_tcb  = OSTCBCurPtr;                               /* Yes.                                
 617              		.loc 1 495 0
 618 004e 40F20003 		movw	r3, #:lower16:OSTCBCurPtr
 619 0052 C0F20003 		movt	r3, #:upper16:OSTCBCurPtr
 620 0056 1B68     		ldr	r3, [r3, #0]
 621 0058 7B60     		str	r3, [r7, #4]
 496:C:\Micrium\Software\uCOS-III\Source\os_task.c ****         CPU_CRITICAL_EXIT();
 622              		.loc 1 496 0
 623 005a F868     		ldr	r0, [r7, #12]
 624 005c FFF7FEFF 		bl	CPU_SR_Restore
 625              	.L42:
 497:C:\Micrium\Software\uCOS-III\Source\os_task.c ****     }
 498:C:\Micrium\Software\uCOS-III\Source\os_task.c **** 
 499:C:\Micrium\Software\uCOS-III\Source\os_task.c ****     OS_CRITICAL_ENTER();
 626              		.loc 1 499 0
 627 0060 FFF7FEFF 		bl	CPU_SR_Save
 628 0064 0346     		mov	r3, r0
 629 0066 FB60     		str	r3, [r7, #12]
 500:C:\Micrium\Software\uCOS-III\Source\os_task.c ****     switch (p_tcb->TaskState) {
 630              		.loc 1 500 0
 631 0068 7B68     		ldr	r3, [r7, #4]
 632 006a 93F83630 		ldrb	r3, [r3, #54]	@ zero_extendqisi2
 633 006e 072B     		cmp	r3, #7
 634 0070 35D8     		bhi	.L43
 635 0072 01A2     		adr	r2, .L48
 636 0074 52F823F0 		ldr	pc, [r2, r3, lsl #2]
ARM GAS  C:\Users\daniel01\AppData\Local\Temp\ccb5Ykxv.s 			page 21


 637              		.align	2
 638              	.L48:
 639 0078 99000000 		.word	.L44+1
 640 007c A1000000 		.word	.L45+1
 641 0080 A9000000 		.word	.L46+1
 642 0084 A9000000 		.word	.L46+1
 643 0088 EF000000 		.word	.L54+1
 644 008c A1000000 		.word	.L45+1
 645 0090 A9000000 		.word	.L46+1
 646 0094 A9000000 		.word	.L46+1
 647              	.L44:
 501:C:\Micrium\Software\uCOS-III\Source\os_task.c ****         case OS_TASK_STATE_RDY:
 502:C:\Micrium\Software\uCOS-III\Source\os_task.c ****              OS_RdyListRemove(p_tcb);
 648              		.loc 1 502 0
 649 0098 7868     		ldr	r0, [r7, #4]
 650 009a FFF7FEFF 		bl	OS_RdyListRemove
 503:C:\Micrium\Software\uCOS-III\Source\os_task.c ****              break;
 651              		.loc 1 503 0
 652 009e 29E0     		b	.L49
 653              	.L45:
 504:C:\Micrium\Software\uCOS-III\Source\os_task.c **** 
 505:C:\Micrium\Software\uCOS-III\Source\os_task.c ****         case OS_TASK_STATE_SUSPENDED:
 506:C:\Micrium\Software\uCOS-III\Source\os_task.c ****              break;
 507:C:\Micrium\Software\uCOS-III\Source\os_task.c **** 
 508:C:\Micrium\Software\uCOS-III\Source\os_task.c ****         case OS_TASK_STATE_DLY:                             /* Task is only delayed, not on any wai
 509:C:\Micrium\Software\uCOS-III\Source\os_task.c ****         case OS_TASK_STATE_DLY_SUSPENDED:
 510:C:\Micrium\Software\uCOS-III\Source\os_task.c ****              OS_TickListRemove(p_tcb);
 654              		.loc 1 510 0
 655 00a0 7868     		ldr	r0, [r7, #4]
 656 00a2 FFF7FEFF 		bl	OS_TickListRemove
 511:C:\Micrium\Software\uCOS-III\Source\os_task.c ****              break;
 657              		.loc 1 511 0
 658 00a6 25E0     		b	.L49
 659              	.L46:
 512:C:\Micrium\Software\uCOS-III\Source\os_task.c **** 
 513:C:\Micrium\Software\uCOS-III\Source\os_task.c ****         case OS_TASK_STATE_PEND:
 514:C:\Micrium\Software\uCOS-III\Source\os_task.c ****         case OS_TASK_STATE_PEND_SUSPENDED:
 515:C:\Micrium\Software\uCOS-III\Source\os_task.c ****         case OS_TASK_STATE_PEND_TIMEOUT:
 516:C:\Micrium\Software\uCOS-III\Source\os_task.c ****         case OS_TASK_STATE_PEND_TIMEOUT_SUSPENDED:
 517:C:\Micrium\Software\uCOS-III\Source\os_task.c ****              OS_TickListRemove(p_tcb);
 660              		.loc 1 517 0
 661 00a8 7868     		ldr	r0, [r7, #4]
 662 00aa FFF7FEFF 		bl	OS_TickListRemove
 518:C:\Micrium\Software\uCOS-III\Source\os_task.c ****              switch (p_tcb->PendOn) {                       /* See what we are pending on          
 663              		.loc 1 518 0
 664 00ae 7B68     		ldr	r3, [r7, #4]
 665 00b0 93F83430 		ldrb	r3, [r3, #52]	@ zero_extendqisi2
 666 00b4 072B     		cmp	r3, #7
 667 00b6 1CD8     		bhi	.L55
 668 00b8 4FF00102 		mov	r2, #1
 669 00bc 02FA03F3 		lsl	r3, r2, r3
 670 00c0 03F08502 		and	r2, r3, #133
 671 00c4 002A     		cmp	r2, #0
 672 00c6 04D1     		bne	.L51
 673 00c8 03F07A03 		and	r3, r3, #122
 674 00cc 002B     		cmp	r3, #0
 675 00ce 02D1     		bne	.L52
ARM GAS  C:\Users\daniel01\AppData\Local\Temp\ccb5Ykxv.s 			page 22


 519:C:\Micrium\Software\uCOS-III\Source\os_task.c ****                  case OS_TASK_PEND_ON_NOTHING:
 520:C:\Micrium\Software\uCOS-III\Source\os_task.c ****                  case OS_TASK_PEND_ON_TASK_Q:               /* There is no wait list for these two 
 521:C:\Micrium\Software\uCOS-III\Source\os_task.c ****                  case OS_TASK_PEND_ON_TASK_SEM:
 522:C:\Micrium\Software\uCOS-III\Source\os_task.c ****                       break;
 523:C:\Micrium\Software\uCOS-III\Source\os_task.c **** 
 524:C:\Micrium\Software\uCOS-III\Source\os_task.c ****                  case OS_TASK_PEND_ON_FLAG:                 /* Remove from wait list               
 525:C:\Micrium\Software\uCOS-III\Source\os_task.c ****                  case OS_TASK_PEND_ON_MULTI:
 526:C:\Micrium\Software\uCOS-III\Source\os_task.c ****                  case OS_TASK_PEND_ON_MUTEX:
 527:C:\Micrium\Software\uCOS-III\Source\os_task.c ****                  case OS_TASK_PEND_ON_Q:
 528:C:\Micrium\Software\uCOS-III\Source\os_task.c ****                  case OS_TASK_PEND_ON_SEM:
 529:C:\Micrium\Software\uCOS-III\Source\os_task.c ****                       OS_PendListRemove(p_tcb);
 530:C:\Micrium\Software\uCOS-III\Source\os_task.c ****                       break;
 531:C:\Micrium\Software\uCOS-III\Source\os_task.c **** 
 532:C:\Micrium\Software\uCOS-III\Source\os_task.c ****                  default:
 533:C:\Micrium\Software\uCOS-III\Source\os_task.c ****                       break;
 534:C:\Micrium\Software\uCOS-III\Source\os_task.c ****              }
 535:C:\Micrium\Software\uCOS-III\Source\os_task.c ****              break;
 676              		.loc 1 535 0
 677 00d0 10E0     		b	.L49
 678              	.L51:
 679              		.loc 1 522 0
 680 00d2 00BF     		nop
 681              		.loc 1 535 0
 682 00d4 0EE0     		b	.L49
 683              	.L52:
 684              		.loc 1 529 0
 685 00d6 7868     		ldr	r0, [r7, #4]
 686 00d8 FFF7FEFF 		bl	OS_PendListRemove
 687              		.loc 1 535 0
 688 00dc 0AE0     		b	.L49
 689              	.L43:
 536:C:\Micrium\Software\uCOS-III\Source\os_task.c **** 
 537:C:\Micrium\Software\uCOS-III\Source\os_task.c ****         default:
 538:C:\Micrium\Software\uCOS-III\Source\os_task.c ****             OS_CRITICAL_EXIT();
 690              		.loc 1 538 0
 691 00de F868     		ldr	r0, [r7, #12]
 692 00e0 FFF7FEFF 		bl	CPU_SR_Restore
 539:C:\Micrium\Software\uCOS-III\Source\os_task.c ****            *p_err = OS_ERR_STATE_INVALID;
 693              		.loc 1 539 0
 694 00e4 3B68     		ldr	r3, [r7, #0]
 695 00e6 46F62D62 		movw	r2, #28205
 696 00ea 1A80     		strh	r2, [r3, #0]	@ movhi
 540:C:\Micrium\Software\uCOS-III\Source\os_task.c ****             return;
 697              		.loc 1 540 0
 698 00ec 2CE0     		b	.L53
 699              	.L54:
 700              		.loc 1 506 0
 701 00ee 00BF     		nop
 702 00f0 00E0     		b	.L49
 703              	.L55:
 704              		.loc 1 535 0
 705 00f2 00BF     		nop
 706              	.L49:
 541:C:\Micrium\Software\uCOS-III\Source\os_task.c ****     }
 542:C:\Micrium\Software\uCOS-III\Source\os_task.c **** 
 543:C:\Micrium\Software\uCOS-III\Source\os_task.c **** #if OS_CFG_TASK_Q_EN > 0u
 544:C:\Micrium\Software\uCOS-III\Source\os_task.c ****     (void)OS_MsgQFreeAll(&p_tcb->MsgQ);                     /* Free task's message queue messages  
ARM GAS  C:\Users\daniel01\AppData\Local\Temp\ccb5Ykxv.s 			page 23


 707              		.loc 1 544 0
 708 00f4 7B68     		ldr	r3, [r7, #4]
 709 00f6 03F16403 		add	r3, r3, #100
 710 00fa 1846     		mov	r0, r3
 711 00fc FFF7FEFF 		bl	OS_MsgQFreeAll
 545:C:\Micrium\Software\uCOS-III\Source\os_task.c **** #endif
 546:C:\Micrium\Software\uCOS-III\Source\os_task.c **** 
 547:C:\Micrium\Software\uCOS-III\Source\os_task.c ****     OSTaskDelHook(p_tcb);                                   /* Call user defined hook              
 712              		.loc 1 547 0
 713 0100 7868     		ldr	r0, [r7, #4]
 714 0102 FFF7FEFF 		bl	OSTaskDelHook
 548:C:\Micrium\Software\uCOS-III\Source\os_task.c **** 
 549:C:\Micrium\Software\uCOS-III\Source\os_task.c **** #if defined(OS_CFG_TLS_TBL_SIZE) && (OS_CFG_TLS_TBL_SIZE > 0u)
 550:C:\Micrium\Software\uCOS-III\Source\os_task.c ****     OS_TLS_TaskDel(p_tcb);                                  /* Call TLS hook                       
 551:C:\Micrium\Software\uCOS-III\Source\os_task.c **** #endif
 552:C:\Micrium\Software\uCOS-III\Source\os_task.c **** 
 553:C:\Micrium\Software\uCOS-III\Source\os_task.c **** #if OS_CFG_DBG_EN > 0u
 554:C:\Micrium\Software\uCOS-III\Source\os_task.c ****     OS_TaskDbgListRemove(p_tcb);
 715              		.loc 1 554 0
 716 0106 7868     		ldr	r0, [r7, #4]
 717 0108 FFF7FEFF 		bl	OS_TaskDbgListRemove
 555:C:\Micrium\Software\uCOS-III\Source\os_task.c **** #endif
 556:C:\Micrium\Software\uCOS-III\Source\os_task.c ****     OSTaskQty--;                                            /* One less task being managed         
 718              		.loc 1 556 0
 719 010c 40F20003 		movw	r3, #:lower16:OSTaskQty
 720 0110 C0F20003 		movt	r3, #:upper16:OSTaskQty
 721 0114 1B88     		ldrh	r3, [r3, #0]
 722 0116 03F1FF33 		add	r3, r3, #-1
 723 011a 9AB2     		uxth	r2, r3
 724 011c 40F20003 		movw	r3, #:lower16:OSTaskQty
 725 0120 C0F20003 		movt	r3, #:upper16:OSTaskQty
 726 0124 1A80     		strh	r2, [r3, #0]	@ movhi
 557:C:\Micrium\Software\uCOS-III\Source\os_task.c **** 
 558:C:\Micrium\Software\uCOS-III\Source\os_task.c ****     OS_TaskInitTCB(p_tcb);                                  /* Initialize the TCB to default values
 727              		.loc 1 558 0
 728 0126 7868     		ldr	r0, [r7, #4]
 729 0128 FFF7FEFF 		bl	OS_TaskInitTCB
 559:C:\Micrium\Software\uCOS-III\Source\os_task.c ****     p_tcb->TaskState = (OS_STATE)OS_TASK_STATE_DEL;         /* Indicate that the task was deleted  
 730              		.loc 1 559 0
 731 012c 7B68     		ldr	r3, [r7, #4]
 732 012e 4FF0FF32 		mov	r2, #-1
 733 0132 83F83620 		strb	r2, [r3, #54]
 560:C:\Micrium\Software\uCOS-III\Source\os_task.c **** 
 561:C:\Micrium\Software\uCOS-III\Source\os_task.c ****     OS_CRITICAL_EXIT_NO_SCHED();
 734              		.loc 1 561 0
 735 0136 F868     		ldr	r0, [r7, #12]
 736 0138 FFF7FEFF 		bl	CPU_SR_Restore
 562:C:\Micrium\Software\uCOS-III\Source\os_task.c **** 
 563:C:\Micrium\Software\uCOS-III\Source\os_task.c ****    *p_err = OS_ERR_NONE;                                    /* See Note #1.                        
 737              		.loc 1 563 0
 738 013c 3B68     		ldr	r3, [r7, #0]
 739 013e 4FF00002 		mov	r2, #0
 740 0142 1A80     		strh	r2, [r3, #0]	@ movhi
 564:C:\Micrium\Software\uCOS-III\Source\os_task.c **** 
 565:C:\Micrium\Software\uCOS-III\Source\os_task.c ****     OSSched();                                              /* Find new highest priority task      
 741              		.loc 1 565 0
 742 0144 FFF7FEFF 		bl	OSSched
ARM GAS  C:\Users\daniel01\AppData\Local\Temp\ccb5Ykxv.s 			page 24


 743              	.L53:
 566:C:\Micrium\Software\uCOS-III\Source\os_task.c **** }
 744              		.loc 1 566 0
 745 0148 07F11007 		add	r7, r7, #16
 746 014c BD46     		mov	sp, r7
 747 014e 80BD     		pop	{r7, pc}
 748              		.cfi_endproc
 749              	.LFE2:
 750              		.size	OSTaskDel, .-OSTaskDel
 751              		.section	.text.OSTaskQFlush,"ax",%progbits
 752              		.align	2
 753              		.global	OSTaskQFlush
 754              		.thumb
 755              		.thumb_func
 756              		.type	OSTaskQFlush, %function
 757              	OSTaskQFlush:
 758              	.LFB3:
 567:C:\Micrium\Software\uCOS-III\Source\os_task.c **** #endif
 568:C:\Micrium\Software\uCOS-III\Source\os_task.c **** 
 569:C:\Micrium\Software\uCOS-III\Source\os_task.c **** /*$PAGE*/
 570:C:\Micrium\Software\uCOS-III\Source\os_task.c **** /*
 571:C:\Micrium\Software\uCOS-III\Source\os_task.c **** ***************************************************************************************************
 572:C:\Micrium\Software\uCOS-III\Source\os_task.c **** *                                                    FLUSH TASK's QUEUE
 573:C:\Micrium\Software\uCOS-III\Source\os_task.c **** *
 574:C:\Micrium\Software\uCOS-III\Source\os_task.c **** * Description: This function is used to flush the task's internal message queue.
 575:C:\Micrium\Software\uCOS-III\Source\os_task.c **** *
 576:C:\Micrium\Software\uCOS-III\Source\os_task.c **** * Arguments  : p_tcb       is a pointer to the task's OS_TCB.  Specifying a NULL pointer indicates 
 577:C:\Micrium\Software\uCOS-III\Source\os_task.c **** *                          flush the message queue of the calling task.
 578:C:\Micrium\Software\uCOS-III\Source\os_task.c **** *
 579:C:\Micrium\Software\uCOS-III\Source\os_task.c **** *              p_err       is a pointer to a variable that will contain an error code returned by t
 580:C:\Micrium\Software\uCOS-III\Source\os_task.c **** *
 581:C:\Micrium\Software\uCOS-III\Source\os_task.c **** *                              OS_ERR_NONE           upon success
 582:C:\Micrium\Software\uCOS-III\Source\os_task.c **** *                              OS_ERR_FLUSH_ISR      if you called this function from an ISR
 583:C:\Micrium\Software\uCOS-III\Source\os_task.c **** *
 584:C:\Micrium\Software\uCOS-III\Source\os_task.c **** * Returns     : The number of entries freed from the queue
 585:C:\Micrium\Software\uCOS-III\Source\os_task.c **** *
 586:C:\Micrium\Software\uCOS-III\Source\os_task.c **** * Note(s)     : 1) You should use this function with great care because, when to flush the queue, y
 587:C:\Micrium\Software\uCOS-III\Source\os_task.c **** *                  references to what the queue entries are pointing to and thus, you could cause '
 588:C:\Micrium\Software\uCOS-III\Source\os_task.c **** *                  other words, the data you are pointing to that's being referenced by the queue e
 589:C:\Micrium\Software\uCOS-III\Source\os_task.c **** *                  likely, need to be de-allocated (i.e. freed).
 590:C:\Micrium\Software\uCOS-III\Source\os_task.c **** ***************************************************************************************************
 591:C:\Micrium\Software\uCOS-III\Source\os_task.c **** */
 592:C:\Micrium\Software\uCOS-III\Source\os_task.c **** 
 593:C:\Micrium\Software\uCOS-III\Source\os_task.c **** #if OS_CFG_TASK_Q_EN > 0u
 594:C:\Micrium\Software\uCOS-III\Source\os_task.c **** OS_MSG_QTY  OSTaskQFlush (OS_TCB  *p_tcb,
 595:C:\Micrium\Software\uCOS-III\Source\os_task.c ****                           OS_ERR  *p_err)
 596:C:\Micrium\Software\uCOS-III\Source\os_task.c **** {
 759              		.loc 1 596 0
 760              		.cfi_startproc
 761              		@ args = 0, pretend = 0, frame = 16
 762              		@ frame_needed = 1, uses_anonymous_args = 0
 763 0000 80B5     		push	{r7, lr}
 764              	.LCFI9:
 765              		.cfi_def_cfa_offset 8
 766 0002 84B0     		sub	sp, sp, #16
 767              	.LCFI10:
 768              		.cfi_def_cfa_offset 24
ARM GAS  C:\Users\daniel01\AppData\Local\Temp\ccb5Ykxv.s 			page 25


 769 0004 00AF     		add	r7, sp, #0
 770              		.cfi_offset 14, -4
 771              		.cfi_offset 7, -8
 772              	.LCFI11:
 773              		.cfi_def_cfa_register 7
 774 0006 7860     		str	r0, [r7, #4]
 775 0008 3960     		str	r1, [r7, #0]
 597:C:\Micrium\Software\uCOS-III\Source\os_task.c ****     OS_MSG_QTY  entries;
 598:C:\Micrium\Software\uCOS-III\Source\os_task.c ****     CPU_SR_ALLOC();
 776              		.loc 1 598 0
 777 000a 4FF00003 		mov	r3, #0
 778 000e FB60     		str	r3, [r7, #12]
 599:C:\Micrium\Software\uCOS-III\Source\os_task.c **** 
 600:C:\Micrium\Software\uCOS-III\Source\os_task.c **** 
 601:C:\Micrium\Software\uCOS-III\Source\os_task.c **** 
 602:C:\Micrium\Software\uCOS-III\Source\os_task.c **** #ifdef OS_SAFETY_CRITICAL
 603:C:\Micrium\Software\uCOS-III\Source\os_task.c ****     if (p_err == (OS_ERR *)0) {
 604:C:\Micrium\Software\uCOS-III\Source\os_task.c ****         OS_SAFETY_CRITICAL_EXCEPTION();
 605:C:\Micrium\Software\uCOS-III\Source\os_task.c ****         return ((OS_MSG_QTY)0);
 606:C:\Micrium\Software\uCOS-III\Source\os_task.c ****     }
 607:C:\Micrium\Software\uCOS-III\Source\os_task.c **** #endif
 608:C:\Micrium\Software\uCOS-III\Source\os_task.c **** 
 609:C:\Micrium\Software\uCOS-III\Source\os_task.c **** #if OS_CFG_CALLED_FROM_ISR_CHK_EN > 0u
 610:C:\Micrium\Software\uCOS-III\Source\os_task.c ****     if (OSIntNestingCtr > (OS_NESTING_CTR)0) {              /* Can't flush a message queue from an 
 779              		.loc 1 610 0
 780 0010 40F20003 		movw	r3, #:lower16:OSIntNestingCtr
 781 0014 C0F20003 		movt	r3, #:upper16:OSIntNestingCtr
 782 0018 1B78     		ldrb	r3, [r3, #0]	@ zero_extendqisi2
 783 001a 002B     		cmp	r3, #0
 784 001c 06D0     		beq	.L57
 611:C:\Micrium\Software\uCOS-III\Source\os_task.c ****        *p_err = OS_ERR_FLUSH_ISR;
 785              		.loc 1 611 0
 786 001e 3B68     		ldr	r3, [r7, #0]
 787 0020 4FF46C52 		mov	r2, #15104
 788 0024 1A80     		strh	r2, [r3, #0]	@ movhi
 612:C:\Micrium\Software\uCOS-III\Source\os_task.c ****         return ((OS_MSG_QTY)0);
 789              		.loc 1 612 0
 790 0026 4FF00003 		mov	r3, #0
 791 002a 23E0     		b	.L58
 792              	.L57:
 613:C:\Micrium\Software\uCOS-III\Source\os_task.c ****     }
 614:C:\Micrium\Software\uCOS-III\Source\os_task.c **** #endif
 615:C:\Micrium\Software\uCOS-III\Source\os_task.c **** 
 616:C:\Micrium\Software\uCOS-III\Source\os_task.c ****     if (p_tcb == (OS_TCB *)0) {                             /* Flush message queue of calling task?
 793              		.loc 1 616 0
 794 002c 7B68     		ldr	r3, [r7, #4]
 795 002e 002B     		cmp	r3, #0
 796 0030 0CD1     		bne	.L59
 617:C:\Micrium\Software\uCOS-III\Source\os_task.c ****         CPU_CRITICAL_ENTER();
 797              		.loc 1 617 0
 798 0032 FFF7FEFF 		bl	CPU_SR_Save
 799 0036 0346     		mov	r3, r0
 800 0038 FB60     		str	r3, [r7, #12]
 618:C:\Micrium\Software\uCOS-III\Source\os_task.c ****         p_tcb = OSTCBCurPtr;
 801              		.loc 1 618 0
 802 003a 40F20003 		movw	r3, #:lower16:OSTCBCurPtr
 803 003e C0F20003 		movt	r3, #:upper16:OSTCBCurPtr
ARM GAS  C:\Users\daniel01\AppData\Local\Temp\ccb5Ykxv.s 			page 26


 804 0042 1B68     		ldr	r3, [r3, #0]
 805 0044 7B60     		str	r3, [r7, #4]
 619:C:\Micrium\Software\uCOS-III\Source\os_task.c ****         CPU_CRITICAL_EXIT();
 806              		.loc 1 619 0
 807 0046 F868     		ldr	r0, [r7, #12]
 808 0048 FFF7FEFF 		bl	CPU_SR_Restore
 809              	.L59:
 620:C:\Micrium\Software\uCOS-III\Source\os_task.c ****     }
 621:C:\Micrium\Software\uCOS-III\Source\os_task.c **** 
 622:C:\Micrium\Software\uCOS-III\Source\os_task.c ****     OS_CRITICAL_ENTER();
 810              		.loc 1 622 0
 811 004c FFF7FEFF 		bl	CPU_SR_Save
 812 0050 0346     		mov	r3, r0
 813 0052 FB60     		str	r3, [r7, #12]
 623:C:\Micrium\Software\uCOS-III\Source\os_task.c ****     entries = OS_MsgQFreeAll(&p_tcb->MsgQ);                 /* Return all OS_MSGs to the OS_MSG poo
 814              		.loc 1 623 0
 815 0054 7B68     		ldr	r3, [r7, #4]
 816 0056 03F16403 		add	r3, r3, #100
 817 005a 1846     		mov	r0, r3
 818 005c FFF7FEFF 		bl	OS_MsgQFreeAll
 819 0060 0346     		mov	r3, r0
 820 0062 7B81     		strh	r3, [r7, #10]	@ movhi
 624:C:\Micrium\Software\uCOS-III\Source\os_task.c ****     OS_CRITICAL_EXIT();
 821              		.loc 1 624 0
 822 0064 F868     		ldr	r0, [r7, #12]
 823 0066 FFF7FEFF 		bl	CPU_SR_Restore
 625:C:\Micrium\Software\uCOS-III\Source\os_task.c ****    *p_err   = OS_ERR_NONE;
 824              		.loc 1 625 0
 825 006a 3B68     		ldr	r3, [r7, #0]
 826 006c 4FF00002 		mov	r2, #0
 827 0070 1A80     		strh	r2, [r3, #0]	@ movhi
 626:C:\Micrium\Software\uCOS-III\Source\os_task.c ****     return (entries);
 828              		.loc 1 626 0
 829 0072 7B89     		ldrh	r3, [r7, #10]
 830              	.L58:
 627:C:\Micrium\Software\uCOS-III\Source\os_task.c **** }
 831              		.loc 1 627 0
 832 0074 1846     		mov	r0, r3
 833 0076 07F11007 		add	r7, r7, #16
 834 007a BD46     		mov	sp, r7
 835 007c 80BD     		pop	{r7, pc}
 836              		.cfi_endproc
 837              	.LFE3:
 838              		.size	OSTaskQFlush, .-OSTaskQFlush
 839 007e 00BF     		.section	.text.OSTaskQPend,"ax",%progbits
 840              		.align	2
 841              		.global	OSTaskQPend
 842              		.thumb
 843              		.thumb_func
 844              		.type	OSTaskQPend, %function
 845              	OSTaskQPend:
 846              	.LFB4:
 628:C:\Micrium\Software\uCOS-III\Source\os_task.c **** #endif
 629:C:\Micrium\Software\uCOS-III\Source\os_task.c **** 
 630:C:\Micrium\Software\uCOS-III\Source\os_task.c **** /*$PAGE*/
 631:C:\Micrium\Software\uCOS-III\Source\os_task.c **** /*
 632:C:\Micrium\Software\uCOS-III\Source\os_task.c **** ***************************************************************************************************
ARM GAS  C:\Users\daniel01\AppData\Local\Temp\ccb5Ykxv.s 			page 27


 633:C:\Micrium\Software\uCOS-III\Source\os_task.c **** *                                                  WAIT FOR A MESSAGE
 634:C:\Micrium\Software\uCOS-III\Source\os_task.c **** *
 635:C:\Micrium\Software\uCOS-III\Source\os_task.c **** * Description: This function causes the current task to wait for a message to be posted to it.
 636:C:\Micrium\Software\uCOS-III\Source\os_task.c **** *
 637:C:\Micrium\Software\uCOS-III\Source\os_task.c **** * Arguments  : timeout       is an optional timeout period (in clock ticks).  If non-zero, your tas
 638:C:\Micrium\Software\uCOS-III\Source\os_task.c **** *                            message to arrive up to the amount of time specified by this argument.
 639:C:\Micrium\Software\uCOS-III\Source\os_task.c **** *                            If you specify 0, however, your task will wait forever or, until a mes
 640:C:\Micrium\Software\uCOS-III\Source\os_task.c **** *
 641:C:\Micrium\Software\uCOS-III\Source\os_task.c **** *              opt           determines whether the user wants to block if the task's queue is empt
 642:C:\Micrium\Software\uCOS-III\Source\os_task.c **** *
 643:C:\Micrium\Software\uCOS-III\Source\os_task.c **** *                                OS_OPT_PEND_BLOCKING
 644:C:\Micrium\Software\uCOS-III\Source\os_task.c **** *                                OS_OPT_PEND_NON_BLOCKING
 645:C:\Micrium\Software\uCOS-III\Source\os_task.c **** *
 646:C:\Micrium\Software\uCOS-III\Source\os_task.c **** *              p_msg_size    is a pointer to a variable that will receive the size of the message
 647:C:\Micrium\Software\uCOS-III\Source\os_task.c **** *
 648:C:\Micrium\Software\uCOS-III\Source\os_task.c **** *              p_ts          is a pointer to a variable that will receive the timestamp of when the
 649:C:\Micrium\Software\uCOS-III\Source\os_task.c **** *                            received.  If you pass a NULL pointer (i.e. (CPU_TS *)0) then you will
 650:C:\Micrium\Software\uCOS-III\Source\os_task.c **** *                            timestamp.  In other words, passing a NULL pointer is valid and indica
 651:C:\Micrium\Software\uCOS-III\Source\os_task.c **** *                            need the timestamp.
 652:C:\Micrium\Software\uCOS-III\Source\os_task.c **** *
 653:C:\Micrium\Software\uCOS-III\Source\os_task.c **** *              p_err         is a pointer to where an error message will be deposited.  Possible er
 654:C:\Micrium\Software\uCOS-III\Source\os_task.c **** *                            messages are:
 655:C:\Micrium\Software\uCOS-III\Source\os_task.c **** *
 656:C:\Micrium\Software\uCOS-III\Source\os_task.c **** *                                OS_ERR_NONE               The call was successful and your task re
 657:C:\Micrium\Software\uCOS-III\Source\os_task.c **** *                                OS_ERR_PEND_ABORT
 658:C:\Micrium\Software\uCOS-III\Source\os_task.c **** *                                OS_ERR_PEND_ISR           If you called this function from an ISR 
 659:C:\Micrium\Software\uCOS-III\Source\os_task.c **** *                                OS_ERR_PEND_WOULD_BLOCK   If you specified non-blocking but the qu
 660:C:\Micrium\Software\uCOS-III\Source\os_task.c **** *                                OS_ERR_Q_EMPTY
 661:C:\Micrium\Software\uCOS-III\Source\os_task.c **** *                                OS_ERR_SCHED_LOCKED       If the scheduler is locked
 662:C:\Micrium\Software\uCOS-III\Source\os_task.c **** *                                OS_ERR_TIMEOUT            A message was not received within the sp
 663:C:\Micrium\Software\uCOS-III\Source\os_task.c **** *                                                          would lead to a suspension.
 664:C:\Micrium\Software\uCOS-III\Source\os_task.c **** *
 665:C:\Micrium\Software\uCOS-III\Source\os_task.c **** * Returns    : A pointer to the message received or a NULL pointer upon error.
 666:C:\Micrium\Software\uCOS-III\Source\os_task.c **** *
 667:C:\Micrium\Software\uCOS-III\Source\os_task.c **** * Note(s)    : 1) It is possible to receive NULL pointers when there are no errors.
 668:C:\Micrium\Software\uCOS-III\Source\os_task.c **** ***************************************************************************************************
 669:C:\Micrium\Software\uCOS-III\Source\os_task.c **** */
 670:C:\Micrium\Software\uCOS-III\Source\os_task.c **** 
 671:C:\Micrium\Software\uCOS-III\Source\os_task.c **** #if OS_CFG_TASK_Q_EN > 0u
 672:C:\Micrium\Software\uCOS-III\Source\os_task.c **** void  *OSTaskQPend (OS_TICK       timeout,
 673:C:\Micrium\Software\uCOS-III\Source\os_task.c ****                     OS_OPT        opt,
 674:C:\Micrium\Software\uCOS-III\Source\os_task.c ****                     OS_MSG_SIZE  *p_msg_size,
 675:C:\Micrium\Software\uCOS-III\Source\os_task.c ****                     CPU_TS       *p_ts,
 676:C:\Micrium\Software\uCOS-III\Source\os_task.c ****                     OS_ERR       *p_err)
 677:C:\Micrium\Software\uCOS-III\Source\os_task.c **** {
 847              		.loc 1 677 0
 848              		.cfi_startproc
 849              		@ args = 4, pretend = 0, frame = 32
 850              		@ frame_needed = 1, uses_anonymous_args = 0
 851 0000 90B5     		push	{r4, r7, lr}
 852              	.LCFI12:
 853              		.cfi_def_cfa_offset 12
 854 0002 89B0     		sub	sp, sp, #36
 855              	.LCFI13:
 856              		.cfi_def_cfa_offset 48
 857 0004 00AF     		add	r7, sp, #0
 858              		.cfi_offset 14, -4
ARM GAS  C:\Users\daniel01\AppData\Local\Temp\ccb5Ykxv.s 			page 28


 859              		.cfi_offset 7, -8
 860              		.cfi_offset 4, -12
 861              	.LCFI14:
 862              		.cfi_def_cfa_register 7
 863 0006 F860     		str	r0, [r7, #12]
 864 0008 7A60     		str	r2, [r7, #4]
 865 000a 3B60     		str	r3, [r7, #0]
 866 000c 0B46     		mov	r3, r1	@ movhi
 867 000e 7B81     		strh	r3, [r7, #10]	@ movhi
 678:C:\Micrium\Software\uCOS-III\Source\os_task.c ****     OS_MSG_Q     *p_msg_q;
 679:C:\Micrium\Software\uCOS-III\Source\os_task.c ****     void         *p_void;
 680:C:\Micrium\Software\uCOS-III\Source\os_task.c ****     CPU_SR_ALLOC();
 868              		.loc 1 680 0
 869 0010 4FF00003 		mov	r3, #0
 870 0014 FB61     		str	r3, [r7, #28]
 681:C:\Micrium\Software\uCOS-III\Source\os_task.c **** 
 682:C:\Micrium\Software\uCOS-III\Source\os_task.c **** 
 683:C:\Micrium\Software\uCOS-III\Source\os_task.c **** 
 684:C:\Micrium\Software\uCOS-III\Source\os_task.c **** #ifdef OS_SAFETY_CRITICAL
 685:C:\Micrium\Software\uCOS-III\Source\os_task.c ****     if (p_err == (OS_ERR *)0) {
 686:C:\Micrium\Software\uCOS-III\Source\os_task.c ****         OS_SAFETY_CRITICAL_EXCEPTION();
 687:C:\Micrium\Software\uCOS-III\Source\os_task.c ****         return ((void *)0);
 688:C:\Micrium\Software\uCOS-III\Source\os_task.c ****     }
 689:C:\Micrium\Software\uCOS-III\Source\os_task.c **** #endif
 690:C:\Micrium\Software\uCOS-III\Source\os_task.c **** 
 691:C:\Micrium\Software\uCOS-III\Source\os_task.c **** #if OS_CFG_CALLED_FROM_ISR_CHK_EN > 0u
 692:C:\Micrium\Software\uCOS-III\Source\os_task.c ****     if (OSIntNestingCtr > (OS_NESTING_CTR)0) {              /* Can't Pend from an ISR              
 871              		.loc 1 692 0
 872 0016 40F20003 		movw	r3, #:lower16:OSIntNestingCtr
 873 001a C0F20003 		movt	r3, #:upper16:OSIntNestingCtr
 874 001e 1B78     		ldrb	r3, [r3, #0]	@ zero_extendqisi2
 875 0020 002B     		cmp	r3, #0
 876 0022 06D0     		beq	.L62
 693:C:\Micrium\Software\uCOS-III\Source\os_task.c ****        *p_err = OS_ERR_PEND_ISR;
 877              		.loc 1 693 0
 878 0024 3B6B     		ldr	r3, [r7, #48]
 879 0026 46F2AE12 		movw	r2, #25006
 880 002a 1A80     		strh	r2, [r3, #0]	@ movhi
 694:C:\Micrium\Software\uCOS-III\Source\os_task.c ****         return ((void *)0);
 881              		.loc 1 694 0
 882 002c 4FF00003 		mov	r3, #0
 883 0030 1AE1     		b	.L63
 884              	.L62:
 695:C:\Micrium\Software\uCOS-III\Source\os_task.c ****     }
 696:C:\Micrium\Software\uCOS-III\Source\os_task.c **** #endif
 697:C:\Micrium\Software\uCOS-III\Source\os_task.c **** 
 698:C:\Micrium\Software\uCOS-III\Source\os_task.c **** #if OS_CFG_ARG_CHK_EN > 0u                                  /* ---------------- VALIDATE ARGUMENTS 
 699:C:\Micrium\Software\uCOS-III\Source\os_task.c ****     if (p_msg_size == (OS_MSG_SIZE *)0) {                   /* User must supply a valid destination
 885              		.loc 1 699 0
 886 0032 7B68     		ldr	r3, [r7, #4]
 887 0034 002B     		cmp	r3, #0
 888 0036 06D1     		bne	.L64
 700:C:\Micrium\Software\uCOS-III\Source\os_task.c ****        *p_err = OS_ERR_PTR_INVALID;
 889              		.loc 1 700 0
 890 0038 3B6B     		ldr	r3, [r7, #48]
 891 003a 46F2D522 		movw	r2, #25301
 892 003e 1A80     		strh	r2, [r3, #0]	@ movhi
ARM GAS  C:\Users\daniel01\AppData\Local\Temp\ccb5Ykxv.s 			page 29


 701:C:\Micrium\Software\uCOS-III\Source\os_task.c ****         return ((void *)0);
 893              		.loc 1 701 0
 894 0040 4FF00003 		mov	r3, #0
 895 0044 10E1     		b	.L63
 896              	.L64:
 702:C:\Micrium\Software\uCOS-III\Source\os_task.c ****     }
 703:C:\Micrium\Software\uCOS-III\Source\os_task.c ****     switch (opt) {                                          /* User must supply a valid option     
 897              		.loc 1 703 0
 898 0046 7B89     		ldrh	r3, [r7, #10]
 899 0048 002B     		cmp	r3, #0
 900 004a 02D0     		beq	.L66
 901 004c B3F5004F 		cmp	r3, #32768
 902 0050 03D1     		bne	.L81
 903              	.L66:
 704:C:\Micrium\Software\uCOS-III\Source\os_task.c ****         case OS_OPT_PEND_BLOCKING:
 705:C:\Micrium\Software\uCOS-III\Source\os_task.c ****         case OS_OPT_PEND_NON_BLOCKING:
 706:C:\Micrium\Software\uCOS-III\Source\os_task.c ****              break;
 707:C:\Micrium\Software\uCOS-III\Source\os_task.c **** 
 708:C:\Micrium\Software\uCOS-III\Source\os_task.c ****         default:
 709:C:\Micrium\Software\uCOS-III\Source\os_task.c ****             *p_err = OS_ERR_OPT_INVALID;
 710:C:\Micrium\Software\uCOS-III\Source\os_task.c ****              return ((void *)0);
 711:C:\Micrium\Software\uCOS-III\Source\os_task.c ****     }
 712:C:\Micrium\Software\uCOS-III\Source\os_task.c **** #endif
 713:C:\Micrium\Software\uCOS-III\Source\os_task.c **** 
 714:C:\Micrium\Software\uCOS-III\Source\os_task.c ****     if (p_ts != (CPU_TS *)0) {
 904              		.loc 1 714 0
 905 0052 3B68     		ldr	r3, [r7, #0]
 906 0054 002B     		cmp	r3, #0
 907 0056 07D1     		bne	.L67
 908 0058 0AE0     		b	.L68
 909              	.L81:
 910              		.loc 1 709 0
 911 005a 3B6B     		ldr	r3, [r7, #48]
 912 005c 45F62562 		movw	r2, #24101
 913 0060 1A80     		strh	r2, [r3, #0]	@ movhi
 914              		.loc 1 710 0
 915 0062 4FF00003 		mov	r3, #0
 916 0066 FFE0     		b	.L63
 917              	.L67:
 715:C:\Micrium\Software\uCOS-III\Source\os_task.c ****        *p_ts  = (CPU_TS  )0;                                /* Initialize the returned timestamp   
 918              		.loc 1 715 0
 919 0068 3B68     		ldr	r3, [r7, #0]
 920 006a 4FF00002 		mov	r2, #0
 921 006e 1A60     		str	r2, [r3, #0]
 922              	.L68:
 716:C:\Micrium\Software\uCOS-III\Source\os_task.c ****     }
 717:C:\Micrium\Software\uCOS-III\Source\os_task.c **** 
 718:C:\Micrium\Software\uCOS-III\Source\os_task.c ****     CPU_CRITICAL_ENTER();
 923              		.loc 1 718 0
 924 0070 FFF7FEFF 		bl	CPU_SR_Save
 925 0074 0346     		mov	r3, r0
 926 0076 FB61     		str	r3, [r7, #28]
 719:C:\Micrium\Software\uCOS-III\Source\os_task.c ****     p_msg_q = &OSTCBCurPtr->MsgQ;                           /* Any message waiting in the message q
 927              		.loc 1 719 0
 928 0078 40F20003 		movw	r3, #:lower16:OSTCBCurPtr
 929 007c C0F20003 		movt	r3, #:upper16:OSTCBCurPtr
 930 0080 1B68     		ldr	r3, [r3, #0]
ARM GAS  C:\Users\daniel01\AppData\Local\Temp\ccb5Ykxv.s 			page 30


 931 0082 03F16403 		add	r3, r3, #100
 932 0086 7B61     		str	r3, [r7, #20]
 720:C:\Micrium\Software\uCOS-III\Source\os_task.c ****     p_void  = OS_MsgQGet(p_msg_q,
 933              		.loc 1 720 0
 934 0088 7869     		ldr	r0, [r7, #20]
 935 008a 7968     		ldr	r1, [r7, #4]
 936 008c 3A68     		ldr	r2, [r7, #0]
 937 008e 3B6B     		ldr	r3, [r7, #48]
 938 0090 FFF7FEFF 		bl	OS_MsgQGet
 939 0094 0346     		mov	r3, r0
 940 0096 BB61     		str	r3, [r7, #24]
 721:C:\Micrium\Software\uCOS-III\Source\os_task.c ****                          p_msg_size,
 722:C:\Micrium\Software\uCOS-III\Source\os_task.c ****                          p_ts,
 723:C:\Micrium\Software\uCOS-III\Source\os_task.c ****                          p_err);
 724:C:\Micrium\Software\uCOS-III\Source\os_task.c ****     if (*p_err == OS_ERR_NONE) {
 941              		.loc 1 724 0
 942 0098 3B6B     		ldr	r3, [r7, #48]
 943 009a 1B88     		ldrh	r3, [r3, #0]
 944 009c 002B     		cmp	r3, #0
 945 009e 2ED1     		bne	.L69
 725:C:\Micrium\Software\uCOS-III\Source\os_task.c **** #if OS_CFG_TASK_PROFILE_EN > 0u
 726:C:\Micrium\Software\uCOS-III\Source\os_task.c ****         if (p_ts != (CPU_TS *)0) {
 946              		.loc 1 726 0
 947 00a0 3B68     		ldr	r3, [r7, #0]
 948 00a2 002B     		cmp	r3, #0
 949 00a4 26D0     		beq	.L70
 727:C:\Micrium\Software\uCOS-III\Source\os_task.c ****             OSTCBCurPtr->MsgQPendTime = OS_TS_GET() - *p_ts;
 950              		.loc 1 727 0
 951 00a6 40F20003 		movw	r3, #:lower16:OSTCBCurPtr
 952 00aa C0F20003 		movt	r3, #:upper16:OSTCBCurPtr
 953 00ae 1C68     		ldr	r4, [r3, #0]
 954 00b0 FFF7FEFF 		bl	CPU_TS_TmrRd
 955 00b4 0246     		mov	r2, r0
 956 00b6 3B68     		ldr	r3, [r7, #0]
 957 00b8 1B68     		ldr	r3, [r3, #0]
 958 00ba C3EB0203 		rsb	r3, r3, r2
 959 00be 6367     		str	r3, [r4, #116]
 728:C:\Micrium\Software\uCOS-III\Source\os_task.c ****             if (OSTCBCurPtr->MsgQPendTimeMax < OSTCBCurPtr->MsgQPendTime) {
 960              		.loc 1 728 0
 961 00c0 40F20003 		movw	r3, #:lower16:OSTCBCurPtr
 962 00c4 C0F20003 		movt	r3, #:upper16:OSTCBCurPtr
 963 00c8 1B68     		ldr	r3, [r3, #0]
 964 00ca 9A6F     		ldr	r2, [r3, #120]
 965 00cc 40F20003 		movw	r3, #:lower16:OSTCBCurPtr
 966 00d0 C0F20003 		movt	r3, #:upper16:OSTCBCurPtr
 967 00d4 1B68     		ldr	r3, [r3, #0]
 968 00d6 5B6F     		ldr	r3, [r3, #116]
 969 00d8 9A42     		cmp	r2, r3
 970 00da 0BD2     		bcs	.L70
 729:C:\Micrium\Software\uCOS-III\Source\os_task.c ****                 OSTCBCurPtr->MsgQPendTimeMax = OSTCBCurPtr->MsgQPendTime;
 971              		.loc 1 729 0
 972 00dc 40F20003 		movw	r3, #:lower16:OSTCBCurPtr
 973 00e0 C0F20003 		movt	r3, #:upper16:OSTCBCurPtr
 974 00e4 1A68     		ldr	r2, [r3, #0]
 975 00e6 40F20003 		movw	r3, #:lower16:OSTCBCurPtr
 976 00ea C0F20003 		movt	r3, #:upper16:OSTCBCurPtr
 977 00ee 1B68     		ldr	r3, [r3, #0]
ARM GAS  C:\Users\daniel01\AppData\Local\Temp\ccb5Ykxv.s 			page 31


 978 00f0 5B6F     		ldr	r3, [r3, #116]
 979 00f2 9367     		str	r3, [r2, #120]
 980              	.L70:
 730:C:\Micrium\Software\uCOS-III\Source\os_task.c ****             }
 731:C:\Micrium\Software\uCOS-III\Source\os_task.c ****         }
 732:C:\Micrium\Software\uCOS-III\Source\os_task.c **** #endif
 733:C:\Micrium\Software\uCOS-III\Source\os_task.c ****         CPU_CRITICAL_EXIT();
 981              		.loc 1 733 0
 982 00f4 F869     		ldr	r0, [r7, #28]
 983 00f6 FFF7FEFF 		bl	CPU_SR_Restore
 734:C:\Micrium\Software\uCOS-III\Source\os_task.c ****         return (p_void);                                    /* Yes, Return oldest message received 
 984              		.loc 1 734 0
 985 00fa BB69     		ldr	r3, [r7, #24]
 986 00fc B4E0     		b	.L63
 987              	.L69:
 735:C:\Micrium\Software\uCOS-III\Source\os_task.c ****     }
 736:C:\Micrium\Software\uCOS-III\Source\os_task.c **** 
 737:C:\Micrium\Software\uCOS-III\Source\os_task.c ****     if ((opt & OS_OPT_PEND_NON_BLOCKING) != (OS_OPT)0) {    /* Caller wants to block if not availab
 988              		.loc 1 737 0
 989 00fe 7B89     		ldrh	r3, [r7, #10]
 990 0100 1BB2     		sxth	r3, r3
 991 0102 002B     		cmp	r3, #0
 992 0104 09DA     		bge	.L71
 738:C:\Micrium\Software\uCOS-III\Source\os_task.c ****        *p_err = OS_ERR_PEND_WOULD_BLOCK;                    /* No                                  
 993              		.loc 1 738 0
 994 0106 3B6B     		ldr	r3, [r7, #48]
 995 0108 46F2B012 		movw	r2, #25008
 996 010c 1A80     		strh	r2, [r3, #0]	@ movhi
 739:C:\Micrium\Software\uCOS-III\Source\os_task.c ****         CPU_CRITICAL_EXIT();
 997              		.loc 1 739 0
 998 010e F869     		ldr	r0, [r7, #28]
 999 0110 FFF7FEFF 		bl	CPU_SR_Restore
 740:C:\Micrium\Software\uCOS-III\Source\os_task.c ****         return ((void *)0);
 1000              		.loc 1 740 0
 1001 0114 4FF00003 		mov	r3, #0
 1002 0118 A6E0     		b	.L63
 1003              	.L71:
 741:C:\Micrium\Software\uCOS-III\Source\os_task.c ****     } else {                                                /* Yes                                 
 742:C:\Micrium\Software\uCOS-III\Source\os_task.c ****         if (OSSchedLockNestingCtr > (OS_NESTING_CTR)0) {    /*     Can't block when the scheduler i
 1004              		.loc 1 742 0
 1005 011a 40F20003 		movw	r3, #:lower16:OSSchedLockNestingCtr
 1006 011e C0F20003 		movt	r3, #:upper16:OSSchedLockNestingCtr
 1007 0122 1B78     		ldrb	r3, [r3, #0]	@ zero_extendqisi2
 1008 0124 002B     		cmp	r3, #0
 1009 0126 09D0     		beq	.L72
 743:C:\Micrium\Software\uCOS-III\Source\os_task.c ****             CPU_CRITICAL_EXIT();
 1010              		.loc 1 743 0
 1011 0128 F869     		ldr	r0, [r7, #28]
 1012 012a FFF7FEFF 		bl	CPU_SR_Restore
 744:C:\Micrium\Software\uCOS-III\Source\os_task.c ****            *p_err = OS_ERR_SCHED_LOCKED;
 1013              		.loc 1 744 0
 1014 012e 3B6B     		ldr	r3, [r7, #48]
 1015 0130 46F66352 		movw	r2, #28003
 1016 0134 1A80     		strh	r2, [r3, #0]	@ movhi
 745:C:\Micrium\Software\uCOS-III\Source\os_task.c ****             return ((void *)0);
 1017              		.loc 1 745 0
 1018 0136 4FF00003 		mov	r3, #0
ARM GAS  C:\Users\daniel01\AppData\Local\Temp\ccb5Ykxv.s 			page 32


 1019 013a 95E0     		b	.L63
 1020              	.L72:
 746:C:\Micrium\Software\uCOS-III\Source\os_task.c ****         }
 747:C:\Micrium\Software\uCOS-III\Source\os_task.c ****     }
 748:C:\Micrium\Software\uCOS-III\Source\os_task.c ****                                                             /* Lock the scheduler/re-enable interru
 749:C:\Micrium\Software\uCOS-III\Source\os_task.c ****     OS_CRITICAL_ENTER_CPU_EXIT();
 750:C:\Micrium\Software\uCOS-III\Source\os_task.c ****     OS_Pend((OS_PEND_DATA *)0,                              /* Block task pending on Message       
 1021              		.loc 1 750 0
 1022 013c 4FF00000 		mov	r0, #0
 1023 0140 4FF00001 		mov	r1, #0
 1024 0144 4FF00202 		mov	r2, #2
 1025 0148 FB68     		ldr	r3, [r7, #12]
 1026 014a FFF7FEFF 		bl	OS_Pend
 751:C:\Micrium\Software\uCOS-III\Source\os_task.c ****             (OS_PEND_OBJ  *)0,
 752:C:\Micrium\Software\uCOS-III\Source\os_task.c ****             (OS_STATE      )OS_TASK_PEND_ON_TASK_Q,
 753:C:\Micrium\Software\uCOS-III\Source\os_task.c ****             (OS_TICK       )timeout);
 754:C:\Micrium\Software\uCOS-III\Source\os_task.c ****     OS_CRITICAL_EXIT_NO_SCHED();
 1027              		.loc 1 754 0
 1028 014e F869     		ldr	r0, [r7, #28]
 1029 0150 FFF7FEFF 		bl	CPU_SR_Restore
 755:C:\Micrium\Software\uCOS-III\Source\os_task.c **** 
 756:C:\Micrium\Software\uCOS-III\Source\os_task.c ****     OSSched();                                              /* Find the next highest priority task 
 1030              		.loc 1 756 0
 1031 0154 FFF7FEFF 		bl	OSSched
 757:C:\Micrium\Software\uCOS-III\Source\os_task.c **** 
 758:C:\Micrium\Software\uCOS-III\Source\os_task.c ****     CPU_CRITICAL_ENTER();
 1032              		.loc 1 758 0
 1033 0158 FFF7FEFF 		bl	CPU_SR_Save
 1034 015c 0346     		mov	r3, r0
 1035 015e FB61     		str	r3, [r7, #28]
 759:C:\Micrium\Software\uCOS-III\Source\os_task.c ****     switch (OSTCBCurPtr->PendStatus) {
 1036              		.loc 1 759 0
 1037 0160 40F20003 		movw	r3, #:lower16:OSTCBCurPtr
 1038 0164 C0F20003 		movt	r3, #:upper16:OSTCBCurPtr
 1039 0168 1B68     		ldr	r3, [r3, #0]
 1040 016a 93F83530 		ldrb	r3, [r3, #53]	@ zero_extendqisi2
 1041 016e 002B     		cmp	r3, #0
 1042 0170 02D0     		beq	.L74
 1043 0172 012B     		cmp	r3, #1
 1044 0174 4BD0     		beq	.L75
 1045 0176 5DE0     		b	.L82
 1046              	.L74:
 760:C:\Micrium\Software\uCOS-III\Source\os_task.c ****         case OS_STATUS_PEND_OK:                             /* Extract message from TCB (Put there 
 761:C:\Micrium\Software\uCOS-III\Source\os_task.c ****              p_void      = OSTCBCurPtr->MsgPtr;
 1047              		.loc 1 761 0
 1048 0178 40F20003 		movw	r3, #:lower16:OSTCBCurPtr
 1049 017c C0F20003 		movt	r3, #:upper16:OSTCBCurPtr
 1050 0180 1B68     		ldr	r3, [r3, #0]
 1051 0182 DB6D     		ldr	r3, [r3, #92]
 1052 0184 BB61     		str	r3, [r7, #24]
 762:C:\Micrium\Software\uCOS-III\Source\os_task.c ****             *p_msg_size  = OSTCBCurPtr->MsgSize;
 1053              		.loc 1 762 0
 1054 0186 40F20003 		movw	r3, #:lower16:OSTCBCurPtr
 1055 018a C0F20003 		movt	r3, #:upper16:OSTCBCurPtr
 1056 018e 1B68     		ldr	r3, [r3, #0]
 1057 0190 B3F86020 		ldrh	r2, [r3, #96]
 1058 0194 7B68     		ldr	r3, [r7, #4]
ARM GAS  C:\Users\daniel01\AppData\Local\Temp\ccb5Ykxv.s 			page 33


 1059 0196 1A80     		strh	r2, [r3, #0]	@ movhi
 763:C:\Micrium\Software\uCOS-III\Source\os_task.c ****              if (p_ts != (CPU_TS *)0) {
 1060              		.loc 1 763 0
 1061 0198 3B68     		ldr	r3, [r7, #0]
 1062 019a 002B     		cmp	r3, #0
 1063 019c 32D0     		beq	.L76
 764:C:\Micrium\Software\uCOS-III\Source\os_task.c ****                 *p_ts  = OSTCBCurPtr->TS;
 1064              		.loc 1 764 0
 1065 019e 40F20003 		movw	r3, #:lower16:OSTCBCurPtr
 1066 01a2 C0F20003 		movt	r3, #:upper16:OSTCBCurPtr
 1067 01a6 1B68     		ldr	r3, [r3, #0]
 1068 01a8 1A6C     		ldr	r2, [r3, #64]
 1069 01aa 3B68     		ldr	r3, [r7, #0]
 1070 01ac 1A60     		str	r2, [r3, #0]
 765:C:\Micrium\Software\uCOS-III\Source\os_task.c **** #if OS_CFG_TASK_PROFILE_EN > 0u
 766:C:\Micrium\Software\uCOS-III\Source\os_task.c ****                 OSTCBCurPtr->MsgQPendTime = OS_TS_GET() - OSTCBCurPtr->TS;
 1071              		.loc 1 766 0
 1072 01ae 40F20003 		movw	r3, #:lower16:OSTCBCurPtr
 1073 01b2 C0F20003 		movt	r3, #:upper16:OSTCBCurPtr
 1074 01b6 1C68     		ldr	r4, [r3, #0]
 1075 01b8 FFF7FEFF 		bl	CPU_TS_TmrRd
 1076 01bc 0246     		mov	r2, r0
 1077 01be 40F20003 		movw	r3, #:lower16:OSTCBCurPtr
 1078 01c2 C0F20003 		movt	r3, #:upper16:OSTCBCurPtr
 1079 01c6 1B68     		ldr	r3, [r3, #0]
 1080 01c8 1B6C     		ldr	r3, [r3, #64]
 1081 01ca C3EB0203 		rsb	r3, r3, r2
 1082 01ce 6367     		str	r3, [r4, #116]
 767:C:\Micrium\Software\uCOS-III\Source\os_task.c ****                 if (OSTCBCurPtr->MsgQPendTimeMax < OSTCBCurPtr->MsgQPendTime) {
 1083              		.loc 1 767 0
 1084 01d0 40F20003 		movw	r3, #:lower16:OSTCBCurPtr
 1085 01d4 C0F20003 		movt	r3, #:upper16:OSTCBCurPtr
 1086 01d8 1B68     		ldr	r3, [r3, #0]
 1087 01da 9A6F     		ldr	r2, [r3, #120]
 1088 01dc 40F20003 		movw	r3, #:lower16:OSTCBCurPtr
 1089 01e0 C0F20003 		movt	r3, #:upper16:OSTCBCurPtr
 1090 01e4 1B68     		ldr	r3, [r3, #0]
 1091 01e6 5B6F     		ldr	r3, [r3, #116]
 1092 01e8 9A42     		cmp	r2, r3
 1093 01ea 0BD2     		bcs	.L76
 768:C:\Micrium\Software\uCOS-III\Source\os_task.c ****                     OSTCBCurPtr->MsgQPendTimeMax = OSTCBCurPtr->MsgQPendTime;
 1094              		.loc 1 768 0
 1095 01ec 40F20003 		movw	r3, #:lower16:OSTCBCurPtr
 1096 01f0 C0F20003 		movt	r3, #:upper16:OSTCBCurPtr
 1097 01f4 1A68     		ldr	r2, [r3, #0]
 1098 01f6 40F20003 		movw	r3, #:lower16:OSTCBCurPtr
 1099 01fa C0F20003 		movt	r3, #:upper16:OSTCBCurPtr
 1100 01fe 1B68     		ldr	r3, [r3, #0]
 1101 0200 5B6F     		ldr	r3, [r3, #116]
 1102 0202 9367     		str	r3, [r2, #120]
 1103              	.L76:
 769:C:\Micrium\Software\uCOS-III\Source\os_task.c ****                 }
 770:C:\Micrium\Software\uCOS-III\Source\os_task.c **** #endif
 771:C:\Micrium\Software\uCOS-III\Source\os_task.c ****              }
 772:C:\Micrium\Software\uCOS-III\Source\os_task.c ****             *p_err = OS_ERR_NONE;
 1104              		.loc 1 772 0
 1105 0204 3B6B     		ldr	r3, [r7, #48]
ARM GAS  C:\Users\daniel01\AppData\Local\Temp\ccb5Ykxv.s 			page 34


 1106 0206 4FF00002 		mov	r2, #0
 1107 020a 1A80     		strh	r2, [r3, #0]	@ movhi
 773:C:\Micrium\Software\uCOS-III\Source\os_task.c ****              break;
 1108              		.loc 1 773 0
 1109 020c 28E0     		b	.L77
 1110              	.L75:
 774:C:\Micrium\Software\uCOS-III\Source\os_task.c **** 
 775:C:\Micrium\Software\uCOS-III\Source\os_task.c ****         case OS_STATUS_PEND_ABORT:                          /* Indicate that we aborted            
 776:C:\Micrium\Software\uCOS-III\Source\os_task.c ****              p_void     = (void      *)0;
 1111              		.loc 1 776 0
 1112 020e 4FF00003 		mov	r3, #0
 1113 0212 BB61     		str	r3, [r7, #24]
 777:C:\Micrium\Software\uCOS-III\Source\os_task.c ****             *p_msg_size = (OS_MSG_SIZE)0;
 1114              		.loc 1 777 0
 1115 0214 7B68     		ldr	r3, [r7, #4]
 1116 0216 4FF00002 		mov	r2, #0
 1117 021a 1A80     		strh	r2, [r3, #0]	@ movhi
 778:C:\Micrium\Software\uCOS-III\Source\os_task.c ****              if (p_ts  != (CPU_TS *)0) {
 1118              		.loc 1 778 0
 1119 021c 3B68     		ldr	r3, [r7, #0]
 1120 021e 002B     		cmp	r3, #0
 1121 0220 03D0     		beq	.L78
 779:C:\Micrium\Software\uCOS-III\Source\os_task.c ****                 *p_ts   = (CPU_TS  )0;
 1122              		.loc 1 779 0
 1123 0222 3B68     		ldr	r3, [r7, #0]
 1124 0224 4FF00002 		mov	r2, #0
 1125 0228 1A60     		str	r2, [r3, #0]
 1126              	.L78:
 780:C:\Micrium\Software\uCOS-III\Source\os_task.c ****              }
 781:C:\Micrium\Software\uCOS-III\Source\os_task.c ****             *p_err      =  OS_ERR_PEND_ABORT;
 1127              		.loc 1 781 0
 1128 022a 3B6B     		ldr	r3, [r7, #48]
 1129 022c 46F2A912 		movw	r2, #25001
 1130 0230 1A80     		strh	r2, [r3, #0]	@ movhi
 782:C:\Micrium\Software\uCOS-III\Source\os_task.c ****              break;
 1131              		.loc 1 782 0
 1132 0232 15E0     		b	.L77
 1133              	.L82:
 783:C:\Micrium\Software\uCOS-III\Source\os_task.c **** 
 784:C:\Micrium\Software\uCOS-III\Source\os_task.c ****         case OS_STATUS_PEND_TIMEOUT:                        /* Indicate that we didn't get event wi
 785:C:\Micrium\Software\uCOS-III\Source\os_task.c ****         default:
 786:C:\Micrium\Software\uCOS-III\Source\os_task.c ****              p_void     = (void      *)0;
 1134              		.loc 1 786 0
 1135 0234 4FF00003 		mov	r3, #0
 1136 0238 BB61     		str	r3, [r7, #24]
 787:C:\Micrium\Software\uCOS-III\Source\os_task.c ****             *p_msg_size = (OS_MSG_SIZE)0;
 1137              		.loc 1 787 0
 1138 023a 7B68     		ldr	r3, [r7, #4]
 1139 023c 4FF00002 		mov	r2, #0
 1140 0240 1A80     		strh	r2, [r3, #0]	@ movhi
 788:C:\Micrium\Software\uCOS-III\Source\os_task.c ****              if (p_ts  != (CPU_TS *)0) {
 1141              		.loc 1 788 0
 1142 0242 3B68     		ldr	r3, [r7, #0]
 1143 0244 002B     		cmp	r3, #0
 1144 0246 07D0     		beq	.L79
 789:C:\Micrium\Software\uCOS-III\Source\os_task.c ****                 *p_ts   =  OSTCBCurPtr->TS;
 1145              		.loc 1 789 0
ARM GAS  C:\Users\daniel01\AppData\Local\Temp\ccb5Ykxv.s 			page 35


 1146 0248 40F20003 		movw	r3, #:lower16:OSTCBCurPtr
 1147 024c C0F20003 		movt	r3, #:upper16:OSTCBCurPtr
 1148 0250 1B68     		ldr	r3, [r3, #0]
 1149 0252 1A6C     		ldr	r2, [r3, #64]
 1150 0254 3B68     		ldr	r3, [r7, #0]
 1151 0256 1A60     		str	r2, [r3, #0]
 1152              	.L79:
 790:C:\Micrium\Software\uCOS-III\Source\os_task.c ****              }
 791:C:\Micrium\Software\uCOS-III\Source\os_task.c ****             *p_err      =  OS_ERR_TIMEOUT;
 1153              		.loc 1 791 0
 1154 0258 3B6B     		ldr	r3, [r7, #48]
 1155 025a 47F2D922 		movw	r2, #29401
 1156 025e 1A80     		strh	r2, [r3, #0]	@ movhi
 1157              	.L77:
 792:C:\Micrium\Software\uCOS-III\Source\os_task.c ****              break;
 793:C:\Micrium\Software\uCOS-III\Source\os_task.c ****     }
 794:C:\Micrium\Software\uCOS-III\Source\os_task.c ****     CPU_CRITICAL_EXIT();
 1158              		.loc 1 794 0
 1159 0260 F869     		ldr	r0, [r7, #28]
 1160 0262 FFF7FEFF 		bl	CPU_SR_Restore
 795:C:\Micrium\Software\uCOS-III\Source\os_task.c ****     return (p_void);                                        /* Return received message             
 1161              		.loc 1 795 0
 1162 0266 BB69     		ldr	r3, [r7, #24]
 1163              	.L63:
 796:C:\Micrium\Software\uCOS-III\Source\os_task.c **** }
 1164              		.loc 1 796 0
 1165 0268 1846     		mov	r0, r3
 1166 026a 07F12407 		add	r7, r7, #36
 1167 026e BD46     		mov	sp, r7
 1168 0270 90BD     		pop	{r4, r7, pc}
 1169              		.cfi_endproc
 1170              	.LFE4:
 1171              		.size	OSTaskQPend, .-OSTaskQPend
 1172 0272 00BF     		.section	.text.OSTaskQPendAbort,"ax",%progbits
 1173              		.align	2
 1174              		.global	OSTaskQPendAbort
 1175              		.thumb
 1176              		.thumb_func
 1177              		.type	OSTaskQPendAbort, %function
 1178              	OSTaskQPendAbort:
 1179              	.LFB5:
 797:C:\Micrium\Software\uCOS-III\Source\os_task.c **** #endif
 798:C:\Micrium\Software\uCOS-III\Source\os_task.c **** 
 799:C:\Micrium\Software\uCOS-III\Source\os_task.c **** /*$PAGE*/
 800:C:\Micrium\Software\uCOS-III\Source\os_task.c **** /*
 801:C:\Micrium\Software\uCOS-III\Source\os_task.c **** ***************************************************************************************************
 802:C:\Micrium\Software\uCOS-III\Source\os_task.c **** *                                              ABORT WAITING FOR A MESSAGE
 803:C:\Micrium\Software\uCOS-III\Source\os_task.c **** *
 804:C:\Micrium\Software\uCOS-III\Source\os_task.c **** * Description: This function aborts & readies the task specified.  This function should be used to 
 805:C:\Micrium\Software\uCOS-III\Source\os_task.c **** *              for a message, rather than to normally post the message to the task via OSTaskQPost(
 806:C:\Micrium\Software\uCOS-III\Source\os_task.c **** *
 807:C:\Micrium\Software\uCOS-III\Source\os_task.c **** * Arguments  : p_tcb     is a pointer to the task to pend abort
 808:C:\Micrium\Software\uCOS-III\Source\os_task.c **** *
 809:C:\Micrium\Software\uCOS-III\Source\os_task.c **** *              opt       provides options for this function:
 810:C:\Micrium\Software\uCOS-III\Source\os_task.c **** *
 811:C:\Micrium\Software\uCOS-III\Source\os_task.c **** *                            OS_OPT_POST_NONE         No option specified
 812:C:\Micrium\Software\uCOS-III\Source\os_task.c **** *                            OS_OPT_POST_NO_SCHED     Indicates that the scheduler will not be call
ARM GAS  C:\Users\daniel01\AppData\Local\Temp\ccb5Ykxv.s 			page 36


 813:C:\Micrium\Software\uCOS-III\Source\os_task.c **** *
 814:C:\Micrium\Software\uCOS-III\Source\os_task.c **** *              p_err     is a pointer to a variable that will contain an error code returned by thi
 815:C:\Micrium\Software\uCOS-III\Source\os_task.c **** *
 816:C:\Micrium\Software\uCOS-III\Source\os_task.c **** *                            OS_ERR_NONE              If the task was readied and informed of the a
 817:C:\Micrium\Software\uCOS-III\Source\os_task.c **** *                            OS_ERR_PEND_ABORT_ISR    If you called this function from an ISR
 818:C:\Micrium\Software\uCOS-III\Source\os_task.c **** *                            OS_ERR_PEND_ABORT_NONE   If task was not pending on a message and thus
 819:C:\Micrium\Software\uCOS-III\Source\os_task.c **** *                                                     abort.
 820:C:\Micrium\Software\uCOS-III\Source\os_task.c **** *                            OS_ERR_PEND_ABORT_SELF   If you passed a NULL pointer for 'p_tcb'
 821:C:\Micrium\Software\uCOS-III\Source\os_task.c **** *
 822:C:\Micrium\Software\uCOS-III\Source\os_task.c **** * Returns    : == DEF_FALSE   if task was not waiting for a message, or upon error.
 823:C:\Micrium\Software\uCOS-III\Source\os_task.c **** *              == DEF_TRUE    if task was waiting for a message and was readied and informed.
 824:C:\Micrium\Software\uCOS-III\Source\os_task.c **** ***************************************************************************************************
 825:C:\Micrium\Software\uCOS-III\Source\os_task.c **** */
 826:C:\Micrium\Software\uCOS-III\Source\os_task.c **** 
 827:C:\Micrium\Software\uCOS-III\Source\os_task.c **** #if (OS_CFG_TASK_Q_EN > 0u) && (OS_CFG_TASK_Q_PEND_ABORT_EN > 0u)
 828:C:\Micrium\Software\uCOS-III\Source\os_task.c **** CPU_BOOLEAN  OSTaskQPendAbort (OS_TCB  *p_tcb,
 829:C:\Micrium\Software\uCOS-III\Source\os_task.c ****                                OS_OPT   opt,
 830:C:\Micrium\Software\uCOS-III\Source\os_task.c ****                                OS_ERR  *p_err)
 831:C:\Micrium\Software\uCOS-III\Source\os_task.c **** {
 1180              		.loc 1 831 0
 1181              		.cfi_startproc
 1182              		@ args = 0, pretend = 0, frame = 24
 1183              		@ frame_needed = 1, uses_anonymous_args = 0
 1184 0000 80B5     		push	{r7, lr}
 1185              	.LCFI15:
 1186              		.cfi_def_cfa_offset 8
 1187 0002 86B0     		sub	sp, sp, #24
 1188              	.LCFI16:
 1189              		.cfi_def_cfa_offset 32
 1190 0004 00AF     		add	r7, sp, #0
 1191              		.cfi_offset 14, -4
 1192              		.cfi_offset 7, -8
 1193              	.LCFI17:
 1194              		.cfi_def_cfa_register 7
 1195 0006 F860     		str	r0, [r7, #12]
 1196 0008 0B46     		mov	r3, r1
 1197 000a 7A60     		str	r2, [r7, #4]
 1198 000c 7B81     		strh	r3, [r7, #10]	@ movhi
 832:C:\Micrium\Software\uCOS-III\Source\os_task.c ****     CPU_TS         ts;
 833:C:\Micrium\Software\uCOS-III\Source\os_task.c ****     CPU_SR_ALLOC();
 1199              		.loc 1 833 0
 1200 000e 4FF00003 		mov	r3, #0
 1201 0012 7B61     		str	r3, [r7, #20]
 834:C:\Micrium\Software\uCOS-III\Source\os_task.c **** 
 835:C:\Micrium\Software\uCOS-III\Source\os_task.c **** 
 836:C:\Micrium\Software\uCOS-III\Source\os_task.c **** 
 837:C:\Micrium\Software\uCOS-III\Source\os_task.c **** #ifdef OS_SAFETY_CRITICAL
 838:C:\Micrium\Software\uCOS-III\Source\os_task.c ****     if (p_err == (OS_ERR *)0) {
 839:C:\Micrium\Software\uCOS-III\Source\os_task.c ****         OS_SAFETY_CRITICAL_EXCEPTION();
 840:C:\Micrium\Software\uCOS-III\Source\os_task.c ****         return (DEF_FALSE);
 841:C:\Micrium\Software\uCOS-III\Source\os_task.c ****     }
 842:C:\Micrium\Software\uCOS-III\Source\os_task.c **** #endif
 843:C:\Micrium\Software\uCOS-III\Source\os_task.c **** 
 844:C:\Micrium\Software\uCOS-III\Source\os_task.c **** #if OS_CFG_CALLED_FROM_ISR_CHK_EN > 0u
 845:C:\Micrium\Software\uCOS-III\Source\os_task.c ****     if (OSIntNestingCtr > (OS_NESTING_CTR)0) {              /* See if called from ISR ...          
 1202              		.loc 1 845 0
 1203 0014 40F20003 		movw	r3, #:lower16:OSIntNestingCtr
ARM GAS  C:\Users\daniel01\AppData\Local\Temp\ccb5Ykxv.s 			page 37


 1204 0018 C0F20003 		movt	r3, #:upper16:OSIntNestingCtr
 1205 001c 1B78     		ldrb	r3, [r3, #0]	@ zero_extendqisi2
 1206 001e 002B     		cmp	r3, #0
 1207 0020 06D0     		beq	.L84
 846:C:\Micrium\Software\uCOS-III\Source\os_task.c ****        *p_err = OS_ERR_PEND_ABORT_ISR;                      /* ... can't Pend Abort from an ISR    
 1208              		.loc 1 846 0
 1209 0022 7B68     		ldr	r3, [r7, #4]
 1210 0024 46F2AA12 		movw	r2, #25002
 1211 0028 1A80     		strh	r2, [r3, #0]	@ movhi
 847:C:\Micrium\Software\uCOS-III\Source\os_task.c ****         return (DEF_FALSE);
 1212              		.loc 1 847 0
 1213 002a 4FF00003 		mov	r3, #0
 1214 002e 4EE0     		b	.L85
 1215              	.L84:
 848:C:\Micrium\Software\uCOS-III\Source\os_task.c ****     }
 849:C:\Micrium\Software\uCOS-III\Source\os_task.c **** #endif
 850:C:\Micrium\Software\uCOS-III\Source\os_task.c **** 
 851:C:\Micrium\Software\uCOS-III\Source\os_task.c **** #if OS_CFG_ARG_CHK_EN > 0u                                  /* ---------------- VALIDATE ARGUMENTS 
 852:C:\Micrium\Software\uCOS-III\Source\os_task.c ****     switch (opt) {                                          /* User must supply a valid option     
 1216              		.loc 1 852 0
 1217 0030 7B89     		ldrh	r3, [r7, #10]
 1218 0032 002B     		cmp	r3, #0
 1219 0034 02D0     		beq	.L87
 1220 0036 B3F5004F 		cmp	r3, #32768
 1221 003a 07D1     		bne	.L94
 1222              	.L87:
 853:C:\Micrium\Software\uCOS-III\Source\os_task.c ****         case OS_OPT_POST_NONE:
 854:C:\Micrium\Software\uCOS-III\Source\os_task.c ****         case OS_OPT_POST_NO_SCHED:
 855:C:\Micrium\Software\uCOS-III\Source\os_task.c ****              break;
 856:C:\Micrium\Software\uCOS-III\Source\os_task.c **** 
 857:C:\Micrium\Software\uCOS-III\Source\os_task.c ****         default:
 858:C:\Micrium\Software\uCOS-III\Source\os_task.c ****             *p_err = OS_ERR_OPT_INVALID;
 859:C:\Micrium\Software\uCOS-III\Source\os_task.c ****              return (DEF_FALSE);
 860:C:\Micrium\Software\uCOS-III\Source\os_task.c ****     }
 861:C:\Micrium\Software\uCOS-III\Source\os_task.c **** #endif
 862:C:\Micrium\Software\uCOS-III\Source\os_task.c **** 
 863:C:\Micrium\Software\uCOS-III\Source\os_task.c ****     CPU_CRITICAL_ENTER();
 1223              		.loc 1 863 0
 1224 003c FFF7FEFF 		bl	CPU_SR_Save
 1225 0040 0346     		mov	r3, r0
 1226 0042 7B61     		str	r3, [r7, #20]
 864:C:\Micrium\Software\uCOS-III\Source\os_task.c **** #if OS_CFG_ARG_CHK_EN > 0u
 865:C:\Micrium\Software\uCOS-III\Source\os_task.c ****     if ((p_tcb == (OS_TCB *)0) ||                           /* Pend abort self?                    
 1227              		.loc 1 865 0
 1228 0044 FB68     		ldr	r3, [r7, #12]
 1229 0046 002B     		cmp	r3, #0
 1230 0048 0FD0     		beq	.L88
 1231 004a 06E0     		b	.L95
 1232              	.L94:
 1233              		.loc 1 858 0
 1234 004c 7B68     		ldr	r3, [r7, #4]
 1235 004e 45F62562 		movw	r2, #24101
 1236 0052 1A80     		strh	r2, [r3, #0]	@ movhi
 1237              		.loc 1 859 0
 1238 0054 4FF00003 		mov	r3, #0
 1239 0058 39E0     		b	.L85
 1240              	.L95:
ARM GAS  C:\Users\daniel01\AppData\Local\Temp\ccb5Ykxv.s 			page 38


 866:C:\Micrium\Software\uCOS-III\Source\os_task.c ****         (p_tcb == OSTCBCurPtr)) {
 1241              		.loc 1 866 0
 1242 005a 40F20003 		movw	r3, #:lower16:OSTCBCurPtr
 1243 005e C0F20003 		movt	r3, #:upper16:OSTCBCurPtr
 1244 0062 1B68     		ldr	r3, [r3, #0]
 1245              		.loc 1 865 0
 1246 0064 FA68     		ldr	r2, [r7, #12]
 1247 0066 9A42     		cmp	r2, r3
 1248 0068 09D1     		bne	.L90
 1249              	.L88:
 867:C:\Micrium\Software\uCOS-III\Source\os_task.c ****         CPU_CRITICAL_EXIT();
 1250              		.loc 1 867 0
 1251 006a 7869     		ldr	r0, [r7, #20]
 1252 006c FFF7FEFF 		bl	CPU_SR_Restore
 868:C:\Micrium\Software\uCOS-III\Source\os_task.c ****        *p_err = OS_ERR_PEND_ABORT_SELF;                     /* ... doesn't make sense              
 1253              		.loc 1 868 0
 1254 0070 7B68     		ldr	r3, [r7, #4]
 1255 0072 46F2AC12 		movw	r2, #25004
 1256 0076 1A80     		strh	r2, [r3, #0]	@ movhi
 869:C:\Micrium\Software\uCOS-III\Source\os_task.c ****         return (DEF_FALSE);
 1257              		.loc 1 869 0
 1258 0078 4FF00003 		mov	r3, #0
 1259 007c 27E0     		b	.L85
 1260              	.L90:
 870:C:\Micrium\Software\uCOS-III\Source\os_task.c ****     }
 871:C:\Micrium\Software\uCOS-III\Source\os_task.c **** #endif
 872:C:\Micrium\Software\uCOS-III\Source\os_task.c **** 
 873:C:\Micrium\Software\uCOS-III\Source\os_task.c ****     if (p_tcb->PendOn != OS_TASK_PEND_ON_TASK_Q) {          /* Is task waiting for a message?      
 1261              		.loc 1 873 0
 1262 007e FB68     		ldr	r3, [r7, #12]
 1263 0080 93F83430 		ldrb	r3, [r3, #52]	@ zero_extendqisi2
 1264 0084 022B     		cmp	r3, #2
 1265 0086 09D0     		beq	.L91
 874:C:\Micrium\Software\uCOS-III\Source\os_task.c ****         CPU_CRITICAL_EXIT();                                /* No                                  
 1266              		.loc 1 874 0
 1267 0088 7869     		ldr	r0, [r7, #20]
 1268 008a FFF7FEFF 		bl	CPU_SR_Restore
 875:C:\Micrium\Software\uCOS-III\Source\os_task.c ****        *p_err = OS_ERR_PEND_ABORT_NONE;
 1269              		.loc 1 875 0
 1270 008e 7B68     		ldr	r3, [r7, #4]
 1271 0090 46F2AB12 		movw	r2, #25003
 1272 0094 1A80     		strh	r2, [r3, #0]	@ movhi
 876:C:\Micrium\Software\uCOS-III\Source\os_task.c ****         return (DEF_FALSE);
 1273              		.loc 1 876 0
 1274 0096 4FF00003 		mov	r3, #0
 1275 009a 18E0     		b	.L85
 1276              	.L91:
 877:C:\Micrium\Software\uCOS-III\Source\os_task.c ****     }
 878:C:\Micrium\Software\uCOS-III\Source\os_task.c **** 
 879:C:\Micrium\Software\uCOS-III\Source\os_task.c ****     OS_CRITICAL_ENTER_CPU_EXIT();
 880:C:\Micrium\Software\uCOS-III\Source\os_task.c ****     ts = OS_TS_GET();                                       /* Get timestamp of when the abort occu
 1277              		.loc 1 880 0
 1278 009c FFF7FEFF 		bl	CPU_TS_TmrRd
 1279 00a0 0346     		mov	r3, r0
 1280 00a2 3B61     		str	r3, [r7, #16]
 881:C:\Micrium\Software\uCOS-III\Source\os_task.c ****     OS_PendAbort((OS_PEND_OBJ *)0,                          /* Abort the pend                      
 1281              		.loc 1 881 0
ARM GAS  C:\Users\daniel01\AppData\Local\Temp\ccb5Ykxv.s 			page 39


 1282 00a4 4FF00000 		mov	r0, #0
 1283 00a8 F968     		ldr	r1, [r7, #12]
 1284 00aa 3A69     		ldr	r2, [r7, #16]
 1285 00ac FFF7FEFF 		bl	OS_PendAbort
 882:C:\Micrium\Software\uCOS-III\Source\os_task.c ****                  p_tcb,
 883:C:\Micrium\Software\uCOS-III\Source\os_task.c ****                  ts);
 884:C:\Micrium\Software\uCOS-III\Source\os_task.c ****     OS_CRITICAL_EXIT_NO_SCHED();
 1286              		.loc 1 884 0
 1287 00b0 7869     		ldr	r0, [r7, #20]
 1288 00b2 FFF7FEFF 		bl	CPU_SR_Restore
 885:C:\Micrium\Software\uCOS-III\Source\os_task.c ****     if ((opt & OS_OPT_POST_NO_SCHED) == (OS_OPT)0) {
 1289              		.loc 1 885 0
 1290 00b6 7B89     		ldrh	r3, [r7, #10]
 1291 00b8 1BB2     		sxth	r3, r3
 1292 00ba 002B     		cmp	r3, #0
 1293 00bc 01DB     		blt	.L92
 886:C:\Micrium\Software\uCOS-III\Source\os_task.c ****         OSSched();                                          /* Run the scheduler                   
 1294              		.loc 1 886 0
 1295 00be FFF7FEFF 		bl	OSSched
 1296              	.L92:
 887:C:\Micrium\Software\uCOS-III\Source\os_task.c ****     }
 888:C:\Micrium\Software\uCOS-III\Source\os_task.c ****    *p_err = OS_ERR_NONE;
 1297              		.loc 1 888 0
 1298 00c2 7B68     		ldr	r3, [r7, #4]
 1299 00c4 4FF00002 		mov	r2, #0
 1300 00c8 1A80     		strh	r2, [r3, #0]	@ movhi
 889:C:\Micrium\Software\uCOS-III\Source\os_task.c ****     return (DEF_TRUE);
 1301              		.loc 1 889 0
 1302 00ca 4FF00103 		mov	r3, #1
 1303              	.L85:
 890:C:\Micrium\Software\uCOS-III\Source\os_task.c **** }
 1304              		.loc 1 890 0
 1305 00ce 1846     		mov	r0, r3
 1306 00d0 07F11807 		add	r7, r7, #24
 1307 00d4 BD46     		mov	sp, r7
 1308 00d6 80BD     		pop	{r7, pc}
 1309              		.cfi_endproc
 1310              	.LFE5:
 1311              		.size	OSTaskQPendAbort, .-OSTaskQPendAbort
 1312              		.section	.text.OSTaskQPost,"ax",%progbits
 1313              		.align	2
 1314              		.global	OSTaskQPost
 1315              		.thumb
 1316              		.thumb_func
 1317              		.type	OSTaskQPost, %function
 1318              	OSTaskQPost:
 1319              	.LFB6:
 891:C:\Micrium\Software\uCOS-III\Source\os_task.c **** #endif
 892:C:\Micrium\Software\uCOS-III\Source\os_task.c **** 
 893:C:\Micrium\Software\uCOS-III\Source\os_task.c **** /*$PAGE*/
 894:C:\Micrium\Software\uCOS-III\Source\os_task.c **** /*
 895:C:\Micrium\Software\uCOS-III\Source\os_task.c **** ***************************************************************************************************
 896:C:\Micrium\Software\uCOS-III\Source\os_task.c **** *                                               POST MESSAGE TO A TASK
 897:C:\Micrium\Software\uCOS-III\Source\os_task.c **** *
 898:C:\Micrium\Software\uCOS-III\Source\os_task.c **** * Description: This function sends a message to a task
 899:C:\Micrium\Software\uCOS-III\Source\os_task.c **** *
 900:C:\Micrium\Software\uCOS-III\Source\os_task.c **** * Arguments  : p_tcb      is a pointer to the TCB of the task receiving a message.  If you specify 
ARM GAS  C:\Users\daniel01\AppData\Local\Temp\ccb5Ykxv.s 			page 40


 901:C:\Micrium\Software\uCOS-III\Source\os_task.c **** *                         the message will be posted to the task's queue of the calling task.  In o
 902:C:\Micrium\Software\uCOS-III\Source\os_task.c **** *                         posting a message to yourself.
 903:C:\Micrium\Software\uCOS-III\Source\os_task.c **** *
 904:C:\Micrium\Software\uCOS-III\Source\os_task.c **** *              p_void     is a pointer to the message to send.
 905:C:\Micrium\Software\uCOS-III\Source\os_task.c **** *
 906:C:\Micrium\Software\uCOS-III\Source\os_task.c **** *              msg_size   is the size of the message sent (in #bytes)
 907:C:\Micrium\Software\uCOS-III\Source\os_task.c **** *
 908:C:\Micrium\Software\uCOS-III\Source\os_task.c **** *              opt        specifies whether the post will be FIFO or LIFO:
 909:C:\Micrium\Software\uCOS-III\Source\os_task.c **** *
 910:C:\Micrium\Software\uCOS-III\Source\os_task.c **** *                             OS_OPT_POST_FIFO       Post at the end   of the queue
 911:C:\Micrium\Software\uCOS-III\Source\os_task.c **** *                             OS_OPT_POST_LIFO       Post at the front of the queue
 912:C:\Micrium\Software\uCOS-III\Source\os_task.c **** *
 913:C:\Micrium\Software\uCOS-III\Source\os_task.c **** *                             OS_OPT_POST_NO_SCHED   Do not run the scheduler after the post
 914:C:\Micrium\Software\uCOS-III\Source\os_task.c **** *
 915:C:\Micrium\Software\uCOS-III\Source\os_task.c **** *                          Note(s): 1) OS_OPT_POST_NO_SCHED can be added with one of the other opti
 916:C:\Micrium\Software\uCOS-III\Source\os_task.c **** *
 917:C:\Micrium\Software\uCOS-III\Source\os_task.c **** *
 918:C:\Micrium\Software\uCOS-III\Source\os_task.c **** *              p_err      is a pointer to a variable that will hold the error code associated
 919:C:\Micrium\Software\uCOS-III\Source\os_task.c **** *                         with the outcome of this call.  Errors can be:
 920:C:\Micrium\Software\uCOS-III\Source\os_task.c **** *
 921:C:\Micrium\Software\uCOS-III\Source\os_task.c **** *                             OS_ERR_NONE            The call was successful and the message was se
 922:C:\Micrium\Software\uCOS-III\Source\os_task.c **** *                             OS_ERR_Q_MAX           If the queue is full
 923:C:\Micrium\Software\uCOS-III\Source\os_task.c **** *                             OS_ERR_MSG_POOL_EMPTY  If there are no more OS_MSGs available from th
 924:C:\Micrium\Software\uCOS-III\Source\os_task.c **** *
 925:C:\Micrium\Software\uCOS-III\Source\os_task.c **** * Returns    : none
 926:C:\Micrium\Software\uCOS-III\Source\os_task.c **** ***************************************************************************************************
 927:C:\Micrium\Software\uCOS-III\Source\os_task.c **** */
 928:C:\Micrium\Software\uCOS-III\Source\os_task.c **** 
 929:C:\Micrium\Software\uCOS-III\Source\os_task.c **** #if OS_CFG_TASK_Q_EN > 0u
 930:C:\Micrium\Software\uCOS-III\Source\os_task.c **** void  OSTaskQPost (OS_TCB       *p_tcb,
 931:C:\Micrium\Software\uCOS-III\Source\os_task.c ****                    void         *p_void,
 932:C:\Micrium\Software\uCOS-III\Source\os_task.c ****                    OS_MSG_SIZE   msg_size,
 933:C:\Micrium\Software\uCOS-III\Source\os_task.c ****                    OS_OPT        opt,
 934:C:\Micrium\Software\uCOS-III\Source\os_task.c ****                    OS_ERR       *p_err)
 935:C:\Micrium\Software\uCOS-III\Source\os_task.c **** {
 1320              		.loc 1 935 0
 1321              		.cfi_startproc
 1322              		@ args = 4, pretend = 0, frame = 24
 1323              		@ frame_needed = 1, uses_anonymous_args = 0
 1324 0000 80B5     		push	{r7, lr}
 1325              	.LCFI18:
 1326              		.cfi_def_cfa_offset 8
 1327 0002 88B0     		sub	sp, sp, #32
 1328              	.LCFI19:
 1329              		.cfi_def_cfa_offset 40
 1330 0004 02AF     		add	r7, sp, #8
 1331              		.cfi_offset 14, -4
 1332              		.cfi_offset 7, -8
 1333              	.LCFI20:
 1334              		.cfi_def_cfa 7, 32
 1335 0006 F860     		str	r0, [r7, #12]
 1336 0008 B960     		str	r1, [r7, #8]
 1337 000a FA80     		strh	r2, [r7, #6]	@ movhi
 1338 000c BB80     		strh	r3, [r7, #4]	@ movhi
 936:C:\Micrium\Software\uCOS-III\Source\os_task.c ****     CPU_TS   ts;
 937:C:\Micrium\Software\uCOS-III\Source\os_task.c **** 
 938:C:\Micrium\Software\uCOS-III\Source\os_task.c **** 
ARM GAS  C:\Users\daniel01\AppData\Local\Temp\ccb5Ykxv.s 			page 41


 939:C:\Micrium\Software\uCOS-III\Source\os_task.c **** 
 940:C:\Micrium\Software\uCOS-III\Source\os_task.c **** #ifdef OS_SAFETY_CRITICAL
 941:C:\Micrium\Software\uCOS-III\Source\os_task.c ****     if (p_err == (OS_ERR *)0) {
 942:C:\Micrium\Software\uCOS-III\Source\os_task.c ****         OS_SAFETY_CRITICAL_EXCEPTION();
 943:C:\Micrium\Software\uCOS-III\Source\os_task.c ****         return;
 944:C:\Micrium\Software\uCOS-III\Source\os_task.c ****     }
 945:C:\Micrium\Software\uCOS-III\Source\os_task.c **** #endif
 946:C:\Micrium\Software\uCOS-III\Source\os_task.c **** 
 947:C:\Micrium\Software\uCOS-III\Source\os_task.c **** #if OS_CFG_ARG_CHK_EN > 0u                                  /* ---------------- VALIDATE ARGUMENTS 
 948:C:\Micrium\Software\uCOS-III\Source\os_task.c ****     switch (opt) {                                          /* User must supply a valid option     
 1339              		.loc 1 948 0
 1340 000e BB88     		ldrh	r3, [r7, #4]
 1341 0010 102B     		cmp	r3, #16
 1342 0012 0BD0     		beq	.L98
 1343 0014 102B     		cmp	r3, #16
 1344 0016 02DC     		bgt	.L99
 1345 0018 002B     		cmp	r3, #0
 1346 001a 07D0     		beq	.L98
 1347 001c 15E0     		b	.L97
 1348              	.L99:
 1349 001e B3F5004F 		cmp	r3, #32768
 1350 0022 03D0     		beq	.L98
 1351 0024 48F21002 		movw	r2, #32784
 1352 0028 9342     		cmp	r3, r2
 1353 002a 0ED1     		bne	.L97
 1354              	.L98:
 949:C:\Micrium\Software\uCOS-III\Source\os_task.c ****         case OS_OPT_POST_FIFO:
 950:C:\Micrium\Software\uCOS-III\Source\os_task.c ****         case OS_OPT_POST_LIFO:
 951:C:\Micrium\Software\uCOS-III\Source\os_task.c ****         case OS_OPT_POST_FIFO | OS_OPT_POST_NO_SCHED:
 952:C:\Micrium\Software\uCOS-III\Source\os_task.c ****         case OS_OPT_POST_LIFO | OS_OPT_POST_NO_SCHED:
 953:C:\Micrium\Software\uCOS-III\Source\os_task.c ****              break;
 954:C:\Micrium\Software\uCOS-III\Source\os_task.c **** 
 955:C:\Micrium\Software\uCOS-III\Source\os_task.c ****         default:
 956:C:\Micrium\Software\uCOS-III\Source\os_task.c ****             *p_err = OS_ERR_OPT_INVALID;
 957:C:\Micrium\Software\uCOS-III\Source\os_task.c ****              return;
 958:C:\Micrium\Software\uCOS-III\Source\os_task.c ****     }
 959:C:\Micrium\Software\uCOS-III\Source\os_task.c **** #endif
 960:C:\Micrium\Software\uCOS-III\Source\os_task.c **** 
 961:C:\Micrium\Software\uCOS-III\Source\os_task.c ****     ts = OS_TS_GET();                                       /* Get timestamp                       
 1355              		.loc 1 961 0
 1356 002c FFF7FEFF 		bl	CPU_TS_TmrRd
 1357 0030 0346     		mov	r3, r0
 1358 0032 7B61     		str	r3, [r7, #20]
 962:C:\Micrium\Software\uCOS-III\Source\os_task.c **** 
 963:C:\Micrium\Software\uCOS-III\Source\os_task.c **** #if OS_CFG_ISR_POST_DEFERRED_EN > 0u
 964:C:\Micrium\Software\uCOS-III\Source\os_task.c ****     if (OSIntNestingCtr > (OS_NESTING_CTR)0) {
 965:C:\Micrium\Software\uCOS-III\Source\os_task.c ****         OS_IntQPost((OS_OBJ_TYPE)OS_OBJ_TYPE_TASK_MSG,      /* Post to ISR queue                   
 966:C:\Micrium\Software\uCOS-III\Source\os_task.c ****                     (void      *)p_tcb,
 967:C:\Micrium\Software\uCOS-III\Source\os_task.c ****                     (void      *)p_void,
 968:C:\Micrium\Software\uCOS-III\Source\os_task.c ****                     (OS_MSG_SIZE)msg_size,
 969:C:\Micrium\Software\uCOS-III\Source\os_task.c ****                     (OS_FLAGS   )0,
 970:C:\Micrium\Software\uCOS-III\Source\os_task.c ****                     (OS_OPT     )opt,
 971:C:\Micrium\Software\uCOS-III\Source\os_task.c ****                     (CPU_TS     )ts,
 972:C:\Micrium\Software\uCOS-III\Source\os_task.c ****                     (OS_ERR    *)p_err);
 973:C:\Micrium\Software\uCOS-III\Source\os_task.c ****         return;
 974:C:\Micrium\Software\uCOS-III\Source\os_task.c ****     }
 975:C:\Micrium\Software\uCOS-III\Source\os_task.c **** #endif
ARM GAS  C:\Users\daniel01\AppData\Local\Temp\ccb5Ykxv.s 			page 42


 976:C:\Micrium\Software\uCOS-III\Source\os_task.c **** 
 977:C:\Micrium\Software\uCOS-III\Source\os_task.c ****     OS_TaskQPost(p_tcb,
 1359              		.loc 1 977 0
 1360 0034 FA88     		ldrh	r2, [r7, #6]
 1361 0036 BB88     		ldrh	r3, [r7, #4]
 1362 0038 7969     		ldr	r1, [r7, #20]
 1363 003a 0091     		str	r1, [sp, #0]
 1364 003c 396A     		ldr	r1, [r7, #32]
 1365 003e 0191     		str	r1, [sp, #4]
 1366 0040 F868     		ldr	r0, [r7, #12]
 1367 0042 B968     		ldr	r1, [r7, #8]
 1368 0044 FFF7FEFF 		bl	OS_TaskQPost
 1369 0048 04E0     		b	.L101
 1370              	.L97:
 1371              		.loc 1 956 0
 1372 004a 3B6A     		ldr	r3, [r7, #32]
 1373 004c 45F62562 		movw	r2, #24101
 1374 0050 1A80     		strh	r2, [r3, #0]	@ movhi
 1375              		.loc 1 957 0
 1376 0052 00BF     		nop
 1377              	.L101:
 978:C:\Micrium\Software\uCOS-III\Source\os_task.c ****                  p_void,
 979:C:\Micrium\Software\uCOS-III\Source\os_task.c ****                  msg_size,
 980:C:\Micrium\Software\uCOS-III\Source\os_task.c ****                  opt,
 981:C:\Micrium\Software\uCOS-III\Source\os_task.c ****                  ts,
 982:C:\Micrium\Software\uCOS-III\Source\os_task.c ****                  p_err);
 983:C:\Micrium\Software\uCOS-III\Source\os_task.c **** }
 1378              		.loc 1 983 0
 1379 0054 07F11807 		add	r7, r7, #24
 1380 0058 BD46     		mov	sp, r7
 1381 005a 80BD     		pop	{r7, pc}
 1382              		.cfi_endproc
 1383              	.LFE6:
 1384              		.size	OSTaskQPost, .-OSTaskQPost
 1385              		.section	.text.OSTaskRegGet,"ax",%progbits
 1386              		.align	2
 1387              		.global	OSTaskRegGet
 1388              		.thumb
 1389              		.thumb_func
 1390              		.type	OSTaskRegGet, %function
 1391              	OSTaskRegGet:
 1392              	.LFB7:
 984:C:\Micrium\Software\uCOS-III\Source\os_task.c **** #endif
 985:C:\Micrium\Software\uCOS-III\Source\os_task.c **** 
 986:C:\Micrium\Software\uCOS-III\Source\os_task.c **** /*$PAGE*/
 987:C:\Micrium\Software\uCOS-III\Source\os_task.c **** /*
 988:C:\Micrium\Software\uCOS-III\Source\os_task.c **** ***************************************************************************************************
 989:C:\Micrium\Software\uCOS-III\Source\os_task.c **** *                                       GET THE CURRENT VALUE OF A TASK REGISTER
 990:C:\Micrium\Software\uCOS-III\Source\os_task.c **** *
 991:C:\Micrium\Software\uCOS-III\Source\os_task.c **** * Description: This function is called to obtain the current value of a task register.  Task regist
 992:C:\Micrium\Software\uCOS-III\Source\os_task.c **** *              specific and can be used to store task specific values such as 'error numbers' (i.e.
 993:C:\Micrium\Software\uCOS-III\Source\os_task.c **** *              etc.
 994:C:\Micrium\Software\uCOS-III\Source\os_task.c **** *
 995:C:\Micrium\Software\uCOS-III\Source\os_task.c **** * Arguments  : p_tcb     is a pointer to the OS_TCB of the task you want to read the register from.
 996:C:\Micrium\Software\uCOS-III\Source\os_task.c **** *                        NULL pointer then you will get the register of the current task.
 997:C:\Micrium\Software\uCOS-III\Source\os_task.c **** *
 998:C:\Micrium\Software\uCOS-III\Source\os_task.c **** *              id        is the 'id' of the desired task variable.  Note that the 'id' must be less
ARM GAS  C:\Users\daniel01\AppData\Local\Temp\ccb5Ykxv.s 			page 43


 999:C:\Micrium\Software\uCOS-III\Source\os_task.c **** *                        OS_CFG_TASK_REG_TBL_SIZE
1000:C:\Micrium\Software\uCOS-III\Source\os_task.c **** *
1001:C:\Micrium\Software\uCOS-III\Source\os_task.c **** *              p_err     is a pointer to a variable that will hold an error code related to this ca
1002:C:\Micrium\Software\uCOS-III\Source\os_task.c **** *
1003:C:\Micrium\Software\uCOS-III\Source\os_task.c **** *                            OS_ERR_NONE            if the call was successful
1004:C:\Micrium\Software\uCOS-III\Source\os_task.c **** *                            OS_ERR_REG_ID_INVALID  if the 'id' is not between 0 and OS_CFG_TASK_RE
1005:C:\Micrium\Software\uCOS-III\Source\os_task.c **** *
1006:C:\Micrium\Software\uCOS-III\Source\os_task.c **** * Returns    : The current value of the task's register or 0 if an error is detected.
1007:C:\Micrium\Software\uCOS-III\Source\os_task.c **** ***************************************************************************************************
1008:C:\Micrium\Software\uCOS-III\Source\os_task.c **** */
1009:C:\Micrium\Software\uCOS-III\Source\os_task.c **** 
1010:C:\Micrium\Software\uCOS-III\Source\os_task.c **** #if OS_CFG_TASK_REG_TBL_SIZE > 0u
1011:C:\Micrium\Software\uCOS-III\Source\os_task.c **** OS_REG  OSTaskRegGet (OS_TCB     *p_tcb,
1012:C:\Micrium\Software\uCOS-III\Source\os_task.c ****                       OS_REG_ID   id,
1013:C:\Micrium\Software\uCOS-III\Source\os_task.c ****                       OS_ERR     *p_err)
1014:C:\Micrium\Software\uCOS-III\Source\os_task.c **** {
 1393              		.loc 1 1014 0
 1394              		.cfi_startproc
 1395              		@ args = 0, pretend = 0, frame = 24
 1396              		@ frame_needed = 1, uses_anonymous_args = 0
 1397 0000 80B5     		push	{r7, lr}
 1398              	.LCFI21:
 1399              		.cfi_def_cfa_offset 8
 1400 0002 86B0     		sub	sp, sp, #24
 1401              	.LCFI22:
 1402              		.cfi_def_cfa_offset 32
 1403 0004 00AF     		add	r7, sp, #0
 1404              		.cfi_offset 14, -4
 1405              		.cfi_offset 7, -8
 1406              	.LCFI23:
 1407              		.cfi_def_cfa_register 7
 1408 0006 F860     		str	r0, [r7, #12]
 1409 0008 0B46     		mov	r3, r1
 1410 000a 7A60     		str	r2, [r7, #4]
 1411 000c FB72     		strb	r3, [r7, #11]
1015:C:\Micrium\Software\uCOS-III\Source\os_task.c ****     OS_REG     value;
1016:C:\Micrium\Software\uCOS-III\Source\os_task.c ****     CPU_SR_ALLOC();
 1412              		.loc 1 1016 0
 1413 000e 4FF00003 		mov	r3, #0
 1414 0012 7B61     		str	r3, [r7, #20]
1017:C:\Micrium\Software\uCOS-III\Source\os_task.c **** 
1018:C:\Micrium\Software\uCOS-III\Source\os_task.c **** 
1019:C:\Micrium\Software\uCOS-III\Source\os_task.c **** 
1020:C:\Micrium\Software\uCOS-III\Source\os_task.c **** #ifdef OS_SAFETY_CRITICAL
1021:C:\Micrium\Software\uCOS-III\Source\os_task.c ****     if (p_err == (OS_ERR *)0) {
1022:C:\Micrium\Software\uCOS-III\Source\os_task.c ****         OS_SAFETY_CRITICAL_EXCEPTION();
1023:C:\Micrium\Software\uCOS-III\Source\os_task.c ****         return ((OS_REG)0);
1024:C:\Micrium\Software\uCOS-III\Source\os_task.c ****     }
1025:C:\Micrium\Software\uCOS-III\Source\os_task.c **** #endif
1026:C:\Micrium\Software\uCOS-III\Source\os_task.c **** 
1027:C:\Micrium\Software\uCOS-III\Source\os_task.c **** #if OS_CFG_ARG_CHK_EN > 0u
1028:C:\Micrium\Software\uCOS-III\Source\os_task.c ****     if (id >= OS_CFG_TASK_REG_TBL_SIZE) {
 1415              		.loc 1 1028 0
 1416 0014 FB7A     		ldrb	r3, [r7, #11]	@ zero_extendqisi2
 1417 0016 002B     		cmp	r3, #0
 1418 0018 06D0     		beq	.L103
1029:C:\Micrium\Software\uCOS-III\Source\os_task.c ****        *p_err = OS_ERR_REG_ID_INVALID;
ARM GAS  C:\Users\daniel01\AppData\Local\Temp\ccb5Ykxv.s 			page 44


 1419              		.loc 1 1029 0
 1420 001a 7B68     		ldr	r3, [r7, #4]
 1421 001c 46F67912 		movw	r2, #27001
 1422 0020 1A80     		strh	r2, [r3, #0]	@ movhi
1030:C:\Micrium\Software\uCOS-III\Source\os_task.c ****         return ((OS_REG)0);
 1423              		.loc 1 1030 0
 1424 0022 4FF00003 		mov	r3, #0
 1425 0026 1DE0     		b	.L104
 1426              	.L103:
1031:C:\Micrium\Software\uCOS-III\Source\os_task.c ****     }
1032:C:\Micrium\Software\uCOS-III\Source\os_task.c **** #endif
1033:C:\Micrium\Software\uCOS-III\Source\os_task.c **** 
1034:C:\Micrium\Software\uCOS-III\Source\os_task.c ****     CPU_CRITICAL_ENTER();
 1427              		.loc 1 1034 0
 1428 0028 FFF7FEFF 		bl	CPU_SR_Save
 1429 002c 0346     		mov	r3, r0
 1430 002e 7B61     		str	r3, [r7, #20]
1035:C:\Micrium\Software\uCOS-III\Source\os_task.c ****     if (p_tcb == (OS_TCB *)0) {
 1431              		.loc 1 1035 0
 1432 0030 FB68     		ldr	r3, [r7, #12]
 1433 0032 002B     		cmp	r3, #0
 1434 0034 05D1     		bne	.L105
1036:C:\Micrium\Software\uCOS-III\Source\os_task.c ****         p_tcb = OSTCBCurPtr;
 1435              		.loc 1 1036 0
 1436 0036 40F20003 		movw	r3, #:lower16:OSTCBCurPtr
 1437 003a C0F20003 		movt	r3, #:upper16:OSTCBCurPtr
 1438 003e 1B68     		ldr	r3, [r3, #0]
 1439 0040 FB60     		str	r3, [r7, #12]
 1440              	.L105:
1037:C:\Micrium\Software\uCOS-III\Source\os_task.c ****     }
1038:C:\Micrium\Software\uCOS-III\Source\os_task.c ****     value = p_tcb->RegTbl[id];
 1441              		.loc 1 1038 0
 1442 0042 FB7A     		ldrb	r3, [r7, #11]	@ zero_extendqisi2
 1443 0044 FA68     		ldr	r2, [r7, #12]
 1444 0046 03F11E03 		add	r3, r3, #30
 1445 004a 4FEA8303 		lsl	r3, r3, #2
 1446 004e 1344     		add	r3, r3, r2
 1447 0050 5B68     		ldr	r3, [r3, #4]
 1448 0052 3B61     		str	r3, [r7, #16]
1039:C:\Micrium\Software\uCOS-III\Source\os_task.c ****     CPU_CRITICAL_EXIT();
 1449              		.loc 1 1039 0
 1450 0054 7869     		ldr	r0, [r7, #20]
 1451 0056 FFF7FEFF 		bl	CPU_SR_Restore
1040:C:\Micrium\Software\uCOS-III\Source\os_task.c ****    *p_err = OS_ERR_NONE;
 1452              		.loc 1 1040 0
 1453 005a 7B68     		ldr	r3, [r7, #4]
 1454 005c 4FF00002 		mov	r2, #0
 1455 0060 1A80     		strh	r2, [r3, #0]	@ movhi
1041:C:\Micrium\Software\uCOS-III\Source\os_task.c ****     return ((OS_REG)value);
 1456              		.loc 1 1041 0
 1457 0062 3B69     		ldr	r3, [r7, #16]
 1458              	.L104:
1042:C:\Micrium\Software\uCOS-III\Source\os_task.c **** }
 1459              		.loc 1 1042 0
 1460 0064 1846     		mov	r0, r3
 1461 0066 07F11807 		add	r7, r7, #24
 1462 006a BD46     		mov	sp, r7
ARM GAS  C:\Users\daniel01\AppData\Local\Temp\ccb5Ykxv.s 			page 45


 1463 006c 80BD     		pop	{r7, pc}
 1464              		.cfi_endproc
 1465              	.LFE7:
 1466              		.size	OSTaskRegGet, .-OSTaskRegGet
 1467 006e 00BF     		.section	.text.OSTaskRegGetID,"ax",%progbits
 1468              		.align	2
 1469              		.global	OSTaskRegGetID
 1470              		.thumb
 1471              		.thumb_func
 1472              		.type	OSTaskRegGetID, %function
 1473              	OSTaskRegGetID:
 1474              	.LFB8:
1043:C:\Micrium\Software\uCOS-III\Source\os_task.c **** #endif
1044:C:\Micrium\Software\uCOS-III\Source\os_task.c **** 
1045:C:\Micrium\Software\uCOS-III\Source\os_task.c **** /*$PAGE*/
1046:C:\Micrium\Software\uCOS-III\Source\os_task.c **** /*
1047:C:\Micrium\Software\uCOS-III\Source\os_task.c **** ***************************************************************************************************
1048:C:\Micrium\Software\uCOS-III\Source\os_task.c **** *                                    ALLOCATE THE NEXT AVAILABLE TASK REGISTER ID
1049:C:\Micrium\Software\uCOS-III\Source\os_task.c **** *
1050:C:\Micrium\Software\uCOS-III\Source\os_task.c **** * Description: This function is called to obtain a task register ID.  This function thus allows tas
1051:C:\Micrium\Software\uCOS-III\Source\os_task.c **** *              allocated dynamically instead of statically.
1052:C:\Micrium\Software\uCOS-III\Source\os_task.c **** *
1053:C:\Micrium\Software\uCOS-III\Source\os_task.c **** * Arguments  : p_err       is a pointer to a variable that will hold an error code related to this 
1054:C:\Micrium\Software\uCOS-III\Source\os_task.c **** *
1055:C:\Micrium\Software\uCOS-III\Source\os_task.c **** *                            OS_ERR_NONE               if the call was successful
1056:C:\Micrium\Software\uCOS-III\Source\os_task.c **** *                            OS_ERR_NO_MORE_ID_AVAIL   if you are attempting to assign more task re
1057:C:\Micrium\Software\uCOS-III\Source\os_task.c **** *                                                           have available through OS_CFG_TASK_REG_
1058:C:\Micrium\Software\uCOS-III\Source\os_task.c **** *
1059:C:\Micrium\Software\uCOS-III\Source\os_task.c **** * Returns    : The next available task register 'id' or OS_CFG_TASK_REG_TBL_SIZE if an error is det
1060:C:\Micrium\Software\uCOS-III\Source\os_task.c **** ***************************************************************************************************
1061:C:\Micrium\Software\uCOS-III\Source\os_task.c **** */
1062:C:\Micrium\Software\uCOS-III\Source\os_task.c **** 
1063:C:\Micrium\Software\uCOS-III\Source\os_task.c **** #if OS_CFG_TASK_REG_TBL_SIZE > 0u
1064:C:\Micrium\Software\uCOS-III\Source\os_task.c **** OS_REG_ID  OSTaskRegGetID (OS_ERR  *p_err)
1065:C:\Micrium\Software\uCOS-III\Source\os_task.c **** {
 1475              		.loc 1 1065 0
 1476              		.cfi_startproc
 1477              		@ args = 0, pretend = 0, frame = 16
 1478              		@ frame_needed = 1, uses_anonymous_args = 0
 1479 0000 80B5     		push	{r7, lr}
 1480              	.LCFI24:
 1481              		.cfi_def_cfa_offset 8
 1482 0002 84B0     		sub	sp, sp, #16
 1483              	.LCFI25:
 1484              		.cfi_def_cfa_offset 24
 1485 0004 00AF     		add	r7, sp, #0
 1486              		.cfi_offset 14, -4
 1487              		.cfi_offset 7, -8
 1488              	.LCFI26:
 1489              		.cfi_def_cfa_register 7
 1490 0006 7860     		str	r0, [r7, #4]
1066:C:\Micrium\Software\uCOS-III\Source\os_task.c ****     OS_REG_ID  id;
1067:C:\Micrium\Software\uCOS-III\Source\os_task.c ****     CPU_SR_ALLOC();
 1491              		.loc 1 1067 0
 1492 0008 4FF00003 		mov	r3, #0
 1493 000c FB60     		str	r3, [r7, #12]
1068:C:\Micrium\Software\uCOS-III\Source\os_task.c **** 
ARM GAS  C:\Users\daniel01\AppData\Local\Temp\ccb5Ykxv.s 			page 46


1069:C:\Micrium\Software\uCOS-III\Source\os_task.c **** 
1070:C:\Micrium\Software\uCOS-III\Source\os_task.c **** 
1071:C:\Micrium\Software\uCOS-III\Source\os_task.c **** #ifdef OS_SAFETY_CRITICAL
1072:C:\Micrium\Software\uCOS-III\Source\os_task.c ****     if (p_err == (OS_ERR *)0) {
1073:C:\Micrium\Software\uCOS-III\Source\os_task.c ****         OS_SAFETY_CRITICAL_EXCEPTION();
1074:C:\Micrium\Software\uCOS-III\Source\os_task.c ****         return ((OS_REG_ID)OS_CFG_TASK_REG_TBL_SIZE);
1075:C:\Micrium\Software\uCOS-III\Source\os_task.c ****     }
1076:C:\Micrium\Software\uCOS-III\Source\os_task.c **** #endif
1077:C:\Micrium\Software\uCOS-III\Source\os_task.c **** 
1078:C:\Micrium\Software\uCOS-III\Source\os_task.c ****     CPU_CRITICAL_ENTER();
 1494              		.loc 1 1078 0
 1495 000e FFF7FEFF 		bl	CPU_SR_Save
 1496 0012 0346     		mov	r3, r0
 1497 0014 FB60     		str	r3, [r7, #12]
1079:C:\Micrium\Software\uCOS-III\Source\os_task.c ****     if (OSTaskRegNextAvailID >= OS_CFG_TASK_REG_TBL_SIZE) {       /* See if we exceeded the number 
 1498              		.loc 1 1079 0
 1499 0016 40F20003 		movw	r3, #:lower16:OSTaskRegNextAvailID
 1500 001a C0F20003 		movt	r3, #:upper16:OSTaskRegNextAvailID
 1501 001e 1B78     		ldrb	r3, [r3, #0]	@ zero_extendqisi2
 1502 0020 002B     		cmp	r3, #0
 1503 0022 09D0     		beq	.L108
1080:C:\Micrium\Software\uCOS-III\Source\os_task.c ****        *p_err = OS_ERR_NO_MORE_ID_AVAIL;                          /* Yes, cannot allocate more task
 1504              		.loc 1 1080 0
 1505 0024 7B68     		ldr	r3, [r7, #4]
 1506 0026 45F6DA12 		movw	r2, #23002
 1507 002a 1A80     		strh	r2, [r3, #0]	@ movhi
1081:C:\Micrium\Software\uCOS-III\Source\os_task.c ****         CPU_CRITICAL_EXIT();
 1508              		.loc 1 1081 0
 1509 002c F868     		ldr	r0, [r7, #12]
 1510 002e FFF7FEFF 		bl	CPU_SR_Restore
1082:C:\Micrium\Software\uCOS-III\Source\os_task.c ****         return ((OS_REG_ID)OS_CFG_TASK_REG_TBL_SIZE);
 1511              		.loc 1 1082 0
 1512 0032 4FF00103 		mov	r3, #1
 1513 0036 1AE0     		b	.L109
 1514              	.L108:
1083:C:\Micrium\Software\uCOS-III\Source\os_task.c ****     }
1084:C:\Micrium\Software\uCOS-III\Source\os_task.c ****      
1085:C:\Micrium\Software\uCOS-III\Source\os_task.c ****     id    = OSTaskRegNextAvailID;								  /* Assign the next available ID                     */
 1515              		.loc 1 1085 0
 1516 0038 40F20003 		movw	r3, #:lower16:OSTaskRegNextAvailID
 1517 003c C0F20003 		movt	r3, #:upper16:OSTaskRegNextAvailID
 1518 0040 1B78     		ldrb	r3, [r3, #0]
 1519 0042 FB72     		strb	r3, [r7, #11]
1086:C:\Micrium\Software\uCOS-III\Source\os_task.c ****     OSTaskRegNextAvailID++;										  /* Increment available ID for next request          */
 1520              		.loc 1 1086 0
 1521 0044 40F20003 		movw	r3, #:lower16:OSTaskRegNextAvailID
 1522 0048 C0F20003 		movt	r3, #:upper16:OSTaskRegNextAvailID
 1523 004c 1B78     		ldrb	r3, [r3, #0]	@ zero_extendqisi2
 1524 004e 03F10103 		add	r3, r3, #1
 1525 0052 DAB2     		uxtb	r2, r3
 1526 0054 40F20003 		movw	r3, #:lower16:OSTaskRegNextAvailID
 1527 0058 C0F20003 		movt	r3, #:upper16:OSTaskRegNextAvailID
 1528 005c 1A70     		strb	r2, [r3, #0]
1087:C:\Micrium\Software\uCOS-III\Source\os_task.c ****     CPU_CRITICAL_EXIT();
 1529              		.loc 1 1087 0
 1530 005e F868     		ldr	r0, [r7, #12]
 1531 0060 FFF7FEFF 		bl	CPU_SR_Restore
ARM GAS  C:\Users\daniel01\AppData\Local\Temp\ccb5Ykxv.s 			page 47


1088:C:\Micrium\Software\uCOS-III\Source\os_task.c ****    *p_err = OS_ERR_NONE;
 1532              		.loc 1 1088 0
 1533 0064 7B68     		ldr	r3, [r7, #4]
 1534 0066 4FF00002 		mov	r2, #0
 1535 006a 1A80     		strh	r2, [r3, #0]	@ movhi
1089:C:\Micrium\Software\uCOS-III\Source\os_task.c ****     return (id);
 1536              		.loc 1 1089 0
 1537 006c FB7A     		ldrb	r3, [r7, #11]	@ zero_extendqisi2
 1538              	.L109:
1090:C:\Micrium\Software\uCOS-III\Source\os_task.c **** }
 1539              		.loc 1 1090 0
 1540 006e 1846     		mov	r0, r3
 1541 0070 07F11007 		add	r7, r7, #16
 1542 0074 BD46     		mov	sp, r7
 1543 0076 80BD     		pop	{r7, pc}
 1544              		.cfi_endproc
 1545              	.LFE8:
 1546              		.size	OSTaskRegGetID, .-OSTaskRegGetID
 1547              		.section	.text.OSTaskRegSet,"ax",%progbits
 1548              		.align	2
 1549              		.global	OSTaskRegSet
 1550              		.thumb
 1551              		.thumb_func
 1552              		.type	OSTaskRegSet, %function
 1553              	OSTaskRegSet:
 1554              	.LFB9:
1091:C:\Micrium\Software\uCOS-III\Source\os_task.c **** #endif
1092:C:\Micrium\Software\uCOS-III\Source\os_task.c **** 
1093:C:\Micrium\Software\uCOS-III\Source\os_task.c **** /*$PAGE*/
1094:C:\Micrium\Software\uCOS-III\Source\os_task.c **** /*
1095:C:\Micrium\Software\uCOS-III\Source\os_task.c **** ***************************************************************************************************
1096:C:\Micrium\Software\uCOS-III\Source\os_task.c **** *                                       SET THE CURRENT VALUE OF A TASK REGISTER
1097:C:\Micrium\Software\uCOS-III\Source\os_task.c **** *
1098:C:\Micrium\Software\uCOS-III\Source\os_task.c **** * Description: This function is called to change the current value of a task register.  Task regist
1099:C:\Micrium\Software\uCOS-III\Source\os_task.c **** *              specific and can be used to store task specific values such as 'error numbers' (i.e.
1100:C:\Micrium\Software\uCOS-III\Source\os_task.c **** *              etc.
1101:C:\Micrium\Software\uCOS-III\Source\os_task.c **** *
1102:C:\Micrium\Software\uCOS-III\Source\os_task.c **** * Arguments  : p_tcb     is a pointer to the OS_TCB of the task you want to set the register for.  
1103:C:\Micrium\Software\uCOS-III\Source\os_task.c **** *                        pointer then you will change the register of the current task.
1104:C:\Micrium\Software\uCOS-III\Source\os_task.c **** *
1105:C:\Micrium\Software\uCOS-III\Source\os_task.c **** *              id        is the 'id' of the desired task register.  Note that the 'id' must be less
1106:C:\Micrium\Software\uCOS-III\Source\os_task.c **** *                        OS_CFG_TASK_REG_TBL_SIZE
1107:C:\Micrium\Software\uCOS-III\Source\os_task.c **** *
1108:C:\Micrium\Software\uCOS-III\Source\os_task.c **** *              value     is the desired value for the task register.
1109:C:\Micrium\Software\uCOS-III\Source\os_task.c **** *
1110:C:\Micrium\Software\uCOS-III\Source\os_task.c **** *              p_err     is a pointer to a variable that will hold an error code related to this ca
1111:C:\Micrium\Software\uCOS-III\Source\os_task.c **** *
1112:C:\Micrium\Software\uCOS-III\Source\os_task.c **** *                            OS_ERR_NONE            if the call was successful
1113:C:\Micrium\Software\uCOS-III\Source\os_task.c **** *                            OS_ERR_REG_ID_INVALID  if the 'id' is not between 0 and OS_CFG_TASK_RE
1114:C:\Micrium\Software\uCOS-III\Source\os_task.c **** *
1115:C:\Micrium\Software\uCOS-III\Source\os_task.c **** * Returns    : none
1116:C:\Micrium\Software\uCOS-III\Source\os_task.c **** ***************************************************************************************************
1117:C:\Micrium\Software\uCOS-III\Source\os_task.c **** */
1118:C:\Micrium\Software\uCOS-III\Source\os_task.c **** 
1119:C:\Micrium\Software\uCOS-III\Source\os_task.c **** #if OS_CFG_TASK_REG_TBL_SIZE > 0u
1120:C:\Micrium\Software\uCOS-III\Source\os_task.c **** void  OSTaskRegSet (OS_TCB     *p_tcb,
1121:C:\Micrium\Software\uCOS-III\Source\os_task.c ****                     OS_REG_ID   id,
ARM GAS  C:\Users\daniel01\AppData\Local\Temp\ccb5Ykxv.s 			page 48


1122:C:\Micrium\Software\uCOS-III\Source\os_task.c ****                     OS_REG      value,
1123:C:\Micrium\Software\uCOS-III\Source\os_task.c ****                     OS_ERR     *p_err)
1124:C:\Micrium\Software\uCOS-III\Source\os_task.c **** {
 1555              		.loc 1 1124 0
 1556              		.cfi_startproc
 1557              		@ args = 0, pretend = 0, frame = 24
 1558              		@ frame_needed = 1, uses_anonymous_args = 0
 1559 0000 80B5     		push	{r7, lr}
 1560              	.LCFI27:
 1561              		.cfi_def_cfa_offset 8
 1562 0002 86B0     		sub	sp, sp, #24
 1563              	.LCFI28:
 1564              		.cfi_def_cfa_offset 32
 1565 0004 00AF     		add	r7, sp, #0
 1566              		.cfi_offset 14, -4
 1567              		.cfi_offset 7, -8
 1568              	.LCFI29:
 1569              		.cfi_def_cfa_register 7
 1570 0006 F860     		str	r0, [r7, #12]
 1571 0008 7A60     		str	r2, [r7, #4]
 1572 000a 3B60     		str	r3, [r7, #0]
 1573 000c 0B46     		mov	r3, r1
 1574 000e FB72     		strb	r3, [r7, #11]
1125:C:\Micrium\Software\uCOS-III\Source\os_task.c ****     CPU_SR_ALLOC();
 1575              		.loc 1 1125 0
 1576 0010 4FF00003 		mov	r3, #0
 1577 0014 7B61     		str	r3, [r7, #20]
1126:C:\Micrium\Software\uCOS-III\Source\os_task.c **** 
1127:C:\Micrium\Software\uCOS-III\Source\os_task.c **** 
1128:C:\Micrium\Software\uCOS-III\Source\os_task.c **** 
1129:C:\Micrium\Software\uCOS-III\Source\os_task.c **** #ifdef OS_SAFETY_CRITICAL
1130:C:\Micrium\Software\uCOS-III\Source\os_task.c ****     if (p_err == (OS_ERR *)0) {
1131:C:\Micrium\Software\uCOS-III\Source\os_task.c ****         OS_SAFETY_CRITICAL_EXCEPTION();
1132:C:\Micrium\Software\uCOS-III\Source\os_task.c ****         return;
1133:C:\Micrium\Software\uCOS-III\Source\os_task.c ****     }
1134:C:\Micrium\Software\uCOS-III\Source\os_task.c **** #endif
1135:C:\Micrium\Software\uCOS-III\Source\os_task.c **** 
1136:C:\Micrium\Software\uCOS-III\Source\os_task.c **** #if OS_CFG_ARG_CHK_EN > 0u
1137:C:\Micrium\Software\uCOS-III\Source\os_task.c ****     if (id >= OS_CFG_TASK_REG_TBL_SIZE) {
 1578              		.loc 1 1137 0
 1579 0016 FB7A     		ldrb	r3, [r7, #11]	@ zero_extendqisi2
 1580 0018 002B     		cmp	r3, #0
 1581 001a 04D0     		beq	.L112
1138:C:\Micrium\Software\uCOS-III\Source\os_task.c ****        *p_err = OS_ERR_REG_ID_INVALID;
 1582              		.loc 1 1138 0
 1583 001c 3B68     		ldr	r3, [r7, #0]
 1584 001e 46F67912 		movw	r2, #27001
 1585 0022 1A80     		strh	r2, [r3, #0]	@ movhi
1139:C:\Micrium\Software\uCOS-III\Source\os_task.c ****         return;
 1586              		.loc 1 1139 0
 1587 0024 1CE0     		b	.L115
 1588              	.L112:
1140:C:\Micrium\Software\uCOS-III\Source\os_task.c ****     }
1141:C:\Micrium\Software\uCOS-III\Source\os_task.c **** #endif
1142:C:\Micrium\Software\uCOS-III\Source\os_task.c **** 
1143:C:\Micrium\Software\uCOS-III\Source\os_task.c ****     CPU_CRITICAL_ENTER();
 1589              		.loc 1 1143 0
ARM GAS  C:\Users\daniel01\AppData\Local\Temp\ccb5Ykxv.s 			page 49


 1590 0026 FFF7FEFF 		bl	CPU_SR_Save
 1591 002a 0346     		mov	r3, r0
 1592 002c 7B61     		str	r3, [r7, #20]
1144:C:\Micrium\Software\uCOS-III\Source\os_task.c ****     if (p_tcb == (OS_TCB *)0) {
 1593              		.loc 1 1144 0
 1594 002e FB68     		ldr	r3, [r7, #12]
 1595 0030 002B     		cmp	r3, #0
 1596 0032 05D1     		bne	.L114
1145:C:\Micrium\Software\uCOS-III\Source\os_task.c ****         p_tcb = OSTCBCurPtr;
 1597              		.loc 1 1145 0
 1598 0034 40F20003 		movw	r3, #:lower16:OSTCBCurPtr
 1599 0038 C0F20003 		movt	r3, #:upper16:OSTCBCurPtr
 1600 003c 1B68     		ldr	r3, [r3, #0]
 1601 003e FB60     		str	r3, [r7, #12]
 1602              	.L114:
1146:C:\Micrium\Software\uCOS-III\Source\os_task.c ****     }
1147:C:\Micrium\Software\uCOS-III\Source\os_task.c ****     p_tcb->RegTbl[id] = value;
 1603              		.loc 1 1147 0
 1604 0040 FB7A     		ldrb	r3, [r7, #11]	@ zero_extendqisi2
 1605 0042 FA68     		ldr	r2, [r7, #12]
 1606 0044 03F11E03 		add	r3, r3, #30
 1607 0048 4FEA8303 		lsl	r3, r3, #2
 1608 004c 1344     		add	r3, r3, r2
 1609 004e 7A68     		ldr	r2, [r7, #4]
 1610 0050 5A60     		str	r2, [r3, #4]
1148:C:\Micrium\Software\uCOS-III\Source\os_task.c ****     CPU_CRITICAL_EXIT();
 1611              		.loc 1 1148 0
 1612 0052 7869     		ldr	r0, [r7, #20]
 1613 0054 FFF7FEFF 		bl	CPU_SR_Restore
1149:C:\Micrium\Software\uCOS-III\Source\os_task.c ****    *p_err             = OS_ERR_NONE;
 1614              		.loc 1 1149 0
 1615 0058 3B68     		ldr	r3, [r7, #0]
 1616 005a 4FF00002 		mov	r2, #0
 1617 005e 1A80     		strh	r2, [r3, #0]	@ movhi
 1618              	.L115:
1150:C:\Micrium\Software\uCOS-III\Source\os_task.c **** }
 1619              		.loc 1 1150 0
 1620 0060 07F11807 		add	r7, r7, #24
 1621 0064 BD46     		mov	sp, r7
 1622 0066 80BD     		pop	{r7, pc}
 1623              		.cfi_endproc
 1624              	.LFE9:
 1625              		.size	OSTaskRegSet, .-OSTaskRegSet
 1626              		.section	.text.OSTaskResume,"ax",%progbits
 1627              		.align	2
 1628              		.global	OSTaskResume
 1629              		.thumb
 1630              		.thumb_func
 1631              		.type	OSTaskResume, %function
 1632              	OSTaskResume:
 1633              	.LFB10:
1151:C:\Micrium\Software\uCOS-III\Source\os_task.c **** #endif
1152:C:\Micrium\Software\uCOS-III\Source\os_task.c **** 
1153:C:\Micrium\Software\uCOS-III\Source\os_task.c **** /*$PAGE*/
1154:C:\Micrium\Software\uCOS-III\Source\os_task.c **** /*
1155:C:\Micrium\Software\uCOS-III\Source\os_task.c **** ***************************************************************************************************
1156:C:\Micrium\Software\uCOS-III\Source\os_task.c **** *                                               RESUME A SUSPENDED TASK
ARM GAS  C:\Users\daniel01\AppData\Local\Temp\ccb5Ykxv.s 			page 50


1157:C:\Micrium\Software\uCOS-III\Source\os_task.c **** *
1158:C:\Micrium\Software\uCOS-III\Source\os_task.c **** * Description: This function is called to resume a previously suspended task.  This is the only cal
1159:C:\Micrium\Software\uCOS-III\Source\os_task.c **** *              explicit task suspension.
1160:C:\Micrium\Software\uCOS-III\Source\os_task.c **** *
1161:C:\Micrium\Software\uCOS-III\Source\os_task.c **** * Arguments  : p_tcb      Is a pointer to the task's OS_TCB to resume
1162:C:\Micrium\Software\uCOS-III\Source\os_task.c **** *
1163:C:\Micrium\Software\uCOS-III\Source\os_task.c **** *              p_err      Is a pointer to a variable that will contain an error code returned by th
1164:C:\Micrium\Software\uCOS-III\Source\os_task.c **** *
1165:C:\Micrium\Software\uCOS-III\Source\os_task.c **** *                             OS_ERR_NONE                  if the requested task is resumed
1166:C:\Micrium\Software\uCOS-III\Source\os_task.c **** *                             OS_ERR_STATE_INVALID         if the task is in an invalid state
1167:C:\Micrium\Software\uCOS-III\Source\os_task.c **** *                             OS_ERR_TASK_RESUME_ISR       if you called this function from an ISR
1168:C:\Micrium\Software\uCOS-III\Source\os_task.c **** *                             OS_ERR_TASK_RESUME_SELF      You cannot resume 'self'
1169:C:\Micrium\Software\uCOS-III\Source\os_task.c **** *                             OS_ERR_TASK_NOT_SUSPENDED    if the task to resume has not been suspe
1170:C:\Micrium\Software\uCOS-III\Source\os_task.c **** *
1171:C:\Micrium\Software\uCOS-III\Source\os_task.c **** * Returns    : none
1172:C:\Micrium\Software\uCOS-III\Source\os_task.c **** ***************************************************************************************************
1173:C:\Micrium\Software\uCOS-III\Source\os_task.c **** */
1174:C:\Micrium\Software\uCOS-III\Source\os_task.c **** 
1175:C:\Micrium\Software\uCOS-III\Source\os_task.c **** #if OS_CFG_TASK_SUSPEND_EN > 0u
1176:C:\Micrium\Software\uCOS-III\Source\os_task.c **** void  OSTaskResume (OS_TCB  *p_tcb,
1177:C:\Micrium\Software\uCOS-III\Source\os_task.c ****                     OS_ERR  *p_err)
1178:C:\Micrium\Software\uCOS-III\Source\os_task.c **** {
 1634              		.loc 1 1178 0
 1635              		.cfi_startproc
 1636              		@ args = 0, pretend = 0, frame = 16
 1637              		@ frame_needed = 1, uses_anonymous_args = 0
 1638 0000 80B5     		push	{r7, lr}
 1639              	.LCFI30:
 1640              		.cfi_def_cfa_offset 8
 1641 0002 84B0     		sub	sp, sp, #16
 1642              	.LCFI31:
 1643              		.cfi_def_cfa_offset 24
 1644 0004 00AF     		add	r7, sp, #0
 1645              		.cfi_offset 14, -4
 1646              		.cfi_offset 7, -8
 1647              	.LCFI32:
 1648              		.cfi_def_cfa_register 7
 1649 0006 7860     		str	r0, [r7, #4]
 1650 0008 3960     		str	r1, [r7, #0]
1179:C:\Micrium\Software\uCOS-III\Source\os_task.c ****     CPU_SR_ALLOC();
 1651              		.loc 1 1179 0
 1652 000a 4FF00003 		mov	r3, #0
 1653 000e FB60     		str	r3, [r7, #12]
1180:C:\Micrium\Software\uCOS-III\Source\os_task.c **** 
1181:C:\Micrium\Software\uCOS-III\Source\os_task.c **** 
1182:C:\Micrium\Software\uCOS-III\Source\os_task.c **** 
1183:C:\Micrium\Software\uCOS-III\Source\os_task.c **** #ifdef OS_SAFETY_CRITICAL
1184:C:\Micrium\Software\uCOS-III\Source\os_task.c ****     if (p_err == (OS_ERR *)0) {
1185:C:\Micrium\Software\uCOS-III\Source\os_task.c ****         OS_SAFETY_CRITICAL_EXCEPTION();
1186:C:\Micrium\Software\uCOS-III\Source\os_task.c ****         return;
1187:C:\Micrium\Software\uCOS-III\Source\os_task.c ****     }
1188:C:\Micrium\Software\uCOS-III\Source\os_task.c **** #endif
1189:C:\Micrium\Software\uCOS-III\Source\os_task.c **** 
1190:C:\Micrium\Software\uCOS-III\Source\os_task.c **** #if (OS_CFG_ISR_POST_DEFERRED_EN   == 0u) && \
1191:C:\Micrium\Software\uCOS-III\Source\os_task.c ****     (OS_CFG_CALLED_FROM_ISR_CHK_EN >  0u)
1192:C:\Micrium\Software\uCOS-III\Source\os_task.c ****     if (OSIntNestingCtr > (OS_NESTING_CTR)0) {              /* Not allowed to call from an ISR     
 1654              		.loc 1 1192 0
ARM GAS  C:\Users\daniel01\AppData\Local\Temp\ccb5Ykxv.s 			page 51


 1655 0010 40F20003 		movw	r3, #:lower16:OSIntNestingCtr
 1656 0014 C0F20003 		movt	r3, #:upper16:OSIntNestingCtr
 1657 0018 1B78     		ldrb	r3, [r3, #0]	@ zero_extendqisi2
 1658 001a 002B     		cmp	r3, #0
 1659 001c 04D0     		beq	.L117
1193:C:\Micrium\Software\uCOS-III\Source\os_task.c ****        *p_err = OS_ERR_TASK_RESUME_ISR;
 1660              		.loc 1 1193 0
 1661 001e 3B68     		ldr	r3, [r7, #0]
 1662 0020 47F25512 		movw	r2, #29013
 1663 0024 1A80     		strh	r2, [r3, #0]	@ movhi
1194:C:\Micrium\Software\uCOS-III\Source\os_task.c ****         return;
 1664              		.loc 1 1194 0
 1665 0026 1DE0     		b	.L121
 1666              	.L117:
1195:C:\Micrium\Software\uCOS-III\Source\os_task.c ****     }
1196:C:\Micrium\Software\uCOS-III\Source\os_task.c **** #endif
1197:C:\Micrium\Software\uCOS-III\Source\os_task.c **** 
1198:C:\Micrium\Software\uCOS-III\Source\os_task.c **** 
1199:C:\Micrium\Software\uCOS-III\Source\os_task.c ****     CPU_CRITICAL_ENTER();
 1667              		.loc 1 1199 0
 1668 0028 FFF7FEFF 		bl	CPU_SR_Save
 1669 002c 0346     		mov	r3, r0
 1670 002e FB60     		str	r3, [r7, #12]
1200:C:\Micrium\Software\uCOS-III\Source\os_task.c **** #if OS_CFG_ARG_CHK_EN > 0u
1201:C:\Micrium\Software\uCOS-III\Source\os_task.c ****     if ((p_tcb == (OS_TCB *)0) ||                           /* We cannot resume 'self'             
 1671              		.loc 1 1201 0
 1672 0030 7B68     		ldr	r3, [r7, #4]
 1673 0032 002B     		cmp	r3, #0
 1674 0034 07D0     		beq	.L119
1202:C:\Micrium\Software\uCOS-III\Source\os_task.c ****         (p_tcb == OSTCBCurPtr)) {
 1675              		.loc 1 1202 0
 1676 0036 40F20003 		movw	r3, #:lower16:OSTCBCurPtr
 1677 003a C0F20003 		movt	r3, #:upper16:OSTCBCurPtr
 1678 003e 1B68     		ldr	r3, [r3, #0]
 1679              		.loc 1 1201 0
 1680 0040 7A68     		ldr	r2, [r7, #4]
 1681 0042 9A42     		cmp	r2, r3
 1682 0044 07D1     		bne	.L120
 1683              	.L119:
1203:C:\Micrium\Software\uCOS-III\Source\os_task.c ****         CPU_CRITICAL_EXIT();
 1684              		.loc 1 1203 0
 1685 0046 F868     		ldr	r0, [r7, #12]
 1686 0048 FFF7FEFF 		bl	CPU_SR_Restore
1204:C:\Micrium\Software\uCOS-III\Source\os_task.c ****        *p_err  = OS_ERR_TASK_RESUME_SELF;
 1687              		.loc 1 1204 0
 1688 004c 3B68     		ldr	r3, [r7, #0]
 1689 004e 47F25712 		movw	r2, #29015
 1690 0052 1A80     		strh	r2, [r3, #0]	@ movhi
1205:C:\Micrium\Software\uCOS-III\Source\os_task.c ****         return;
 1691              		.loc 1 1205 0
 1692 0054 06E0     		b	.L121
 1693              	.L120:
1206:C:\Micrium\Software\uCOS-III\Source\os_task.c ****     }
1207:C:\Micrium\Software\uCOS-III\Source\os_task.c **** #endif
1208:C:\Micrium\Software\uCOS-III\Source\os_task.c ****     CPU_CRITICAL_EXIT();
 1694              		.loc 1 1208 0
 1695 0056 F868     		ldr	r0, [r7, #12]
ARM GAS  C:\Users\daniel01\AppData\Local\Temp\ccb5Ykxv.s 			page 52


 1696 0058 FFF7FEFF 		bl	CPU_SR_Restore
1209:C:\Micrium\Software\uCOS-III\Source\os_task.c **** 
1210:C:\Micrium\Software\uCOS-III\Source\os_task.c **** #if OS_CFG_ISR_POST_DEFERRED_EN > 0u
1211:C:\Micrium\Software\uCOS-III\Source\os_task.c ****     if (OSIntNestingCtr > (OS_NESTING_CTR)0) {              /* See if called from an ISR           
1212:C:\Micrium\Software\uCOS-III\Source\os_task.c ****         OS_IntQPost((OS_OBJ_TYPE)OS_OBJ_TYPE_TASK_RESUME,   /* Post to ISR queue                   
1213:C:\Micrium\Software\uCOS-III\Source\os_task.c ****                     (void      *)p_tcb,
1214:C:\Micrium\Software\uCOS-III\Source\os_task.c ****                     (void      *)0,
1215:C:\Micrium\Software\uCOS-III\Source\os_task.c ****                     (OS_MSG_SIZE)0,
1216:C:\Micrium\Software\uCOS-III\Source\os_task.c ****                     (OS_FLAGS   )0,
1217:C:\Micrium\Software\uCOS-III\Source\os_task.c ****                     (OS_OPT     )0,
1218:C:\Micrium\Software\uCOS-III\Source\os_task.c ****                     (CPU_TS     )0,
1219:C:\Micrium\Software\uCOS-III\Source\os_task.c ****                     (OS_ERR    *)p_err);
1220:C:\Micrium\Software\uCOS-III\Source\os_task.c ****         return;
1221:C:\Micrium\Software\uCOS-III\Source\os_task.c ****     }
1222:C:\Micrium\Software\uCOS-III\Source\os_task.c **** #endif
1223:C:\Micrium\Software\uCOS-III\Source\os_task.c **** 
1224:C:\Micrium\Software\uCOS-III\Source\os_task.c ****     OS_TaskResume(p_tcb, p_err);
 1697              		.loc 1 1224 0
 1698 005c 7868     		ldr	r0, [r7, #4]
 1699 005e 3968     		ldr	r1, [r7, #0]
 1700 0060 FFF7FEFF 		bl	OS_TaskResume
 1701              	.L121:
1225:C:\Micrium\Software\uCOS-III\Source\os_task.c **** }
 1702              		.loc 1 1225 0
 1703 0064 07F11007 		add	r7, r7, #16
 1704 0068 BD46     		mov	sp, r7
 1705 006a 80BD     		pop	{r7, pc}
 1706              		.cfi_endproc
 1707              	.LFE10:
 1708              		.size	OSTaskResume, .-OSTaskResume
 1709              		.section	.text.OSTaskSemPend,"ax",%progbits
 1710              		.align	2
 1711              		.global	OSTaskSemPend
 1712              		.thumb
 1713              		.thumb_func
 1714              		.type	OSTaskSemPend, %function
 1715              	OSTaskSemPend:
 1716              	.LFB11:
1226:C:\Micrium\Software\uCOS-III\Source\os_task.c **** #endif
1227:C:\Micrium\Software\uCOS-III\Source\os_task.c **** 
1228:C:\Micrium\Software\uCOS-III\Source\os_task.c **** /*$PAGE*/
1229:C:\Micrium\Software\uCOS-III\Source\os_task.c **** /*
1230:C:\Micrium\Software\uCOS-III\Source\os_task.c **** ***************************************************************************************************
1231:C:\Micrium\Software\uCOS-III\Source\os_task.c **** *                                              WAIT FOR A TASK SEMAPHORE
1232:C:\Micrium\Software\uCOS-III\Source\os_task.c **** *
1233:C:\Micrium\Software\uCOS-III\Source\os_task.c **** * Description: This function is called to block the current task until a signal is sent by another 
1234:C:\Micrium\Software\uCOS-III\Source\os_task.c **** *
1235:C:\Micrium\Software\uCOS-III\Source\os_task.c **** * Arguments  : timeout       is the amount of time you are will to wait for the signal
1236:C:\Micrium\Software\uCOS-III\Source\os_task.c **** *
1237:C:\Micrium\Software\uCOS-III\Source\os_task.c **** *              opt           determines whether the user wants to block if a semaphore post was not
1238:C:\Micrium\Software\uCOS-III\Source\os_task.c **** *
1239:C:\Micrium\Software\uCOS-III\Source\os_task.c **** *                                OS_OPT_PEND_BLOCKING
1240:C:\Micrium\Software\uCOS-III\Source\os_task.c **** *                                OS_OPT_PEND_NON_BLOCKING
1241:C:\Micrium\Software\uCOS-III\Source\os_task.c **** *
1242:C:\Micrium\Software\uCOS-III\Source\os_task.c **** *              p_ts          is a pointer to a variable that will receive the timestamp of when the
1243:C:\Micrium\Software\uCOS-III\Source\os_task.c **** *                            or pend aborted.  If you pass a NULL pointer (i.e. (CPU_TS *)0) then y
1244:C:\Micrium\Software\uCOS-III\Source\os_task.c **** *                            timestamp.  In other words, passing a NULL pointer is valid and indica
ARM GAS  C:\Users\daniel01\AppData\Local\Temp\ccb5Ykxv.s 			page 53


1245:C:\Micrium\Software\uCOS-III\Source\os_task.c **** *                            need the timestamp.
1246:C:\Micrium\Software\uCOS-III\Source\os_task.c **** *
1247:C:\Micrium\Software\uCOS-III\Source\os_task.c **** *              p_err         is a pointer to an error code that will be set by this function
1248:C:\Micrium\Software\uCOS-III\Source\os_task.c **** *
1249:C:\Micrium\Software\uCOS-III\Source\os_task.c **** *                                OS_ERR_NONE               The call was successful and your task re
1250:C:\Micrium\Software\uCOS-III\Source\os_task.c **** *                                OS_ERR_PEND_ABORT
1251:C:\Micrium\Software\uCOS-III\Source\os_task.c **** *                                OS_ERR_PEND_ISR           If you called this function from an ISR 
1252:C:\Micrium\Software\uCOS-III\Source\os_task.c **** *                                OS_ERR_PEND_WOULD_BLOCK   If you specified non-blocking but no sig
1253:C:\Micrium\Software\uCOS-III\Source\os_task.c **** *                                OS_ERR_SCHED_LOCKED       If the scheduler is locked
1254:C:\Micrium\Software\uCOS-III\Source\os_task.c **** *                                OS_ERR_STATUS_INVALID     If the pend status is invalid
1255:C:\Micrium\Software\uCOS-III\Source\os_task.c **** *                                OS_ERR_TIMEOUT            A message was not received within the sp
1256:C:\Micrium\Software\uCOS-III\Source\os_task.c **** *                                                          would lead to a suspension.
1257:C:\Micrium\Software\uCOS-III\Source\os_task.c **** *
1258:C:\Micrium\Software\uCOS-III\Source\os_task.c **** * Returns    : The current count of signals the task received, 0 if none.
1259:C:\Micrium\Software\uCOS-III\Source\os_task.c **** ***************************************************************************************************
1260:C:\Micrium\Software\uCOS-III\Source\os_task.c **** */
1261:C:\Micrium\Software\uCOS-III\Source\os_task.c **** 
1262:C:\Micrium\Software\uCOS-III\Source\os_task.c **** OS_SEM_CTR  OSTaskSemPend (OS_TICK   timeout,
1263:C:\Micrium\Software\uCOS-III\Source\os_task.c ****                            OS_OPT    opt,
1264:C:\Micrium\Software\uCOS-III\Source\os_task.c ****                            CPU_TS   *p_ts,
1265:C:\Micrium\Software\uCOS-III\Source\os_task.c ****                            OS_ERR   *p_err)
1266:C:\Micrium\Software\uCOS-III\Source\os_task.c **** {
 1717              		.loc 1 1266 0
 1718              		.cfi_startproc
 1719              		@ args = 0, pretend = 0, frame = 24
 1720              		@ frame_needed = 1, uses_anonymous_args = 0
 1721 0000 90B5     		push	{r4, r7, lr}
 1722              	.LCFI33:
 1723              		.cfi_def_cfa_offset 12
 1724 0002 87B0     		sub	sp, sp, #28
 1725              	.LCFI34:
 1726              		.cfi_def_cfa_offset 40
 1727 0004 00AF     		add	r7, sp, #0
 1728              		.cfi_offset 14, -4
 1729              		.cfi_offset 7, -8
 1730              		.cfi_offset 4, -12
 1731              	.LCFI35:
 1732              		.cfi_def_cfa_register 7
 1733 0006 F860     		str	r0, [r7, #12]
 1734 0008 7A60     		str	r2, [r7, #4]
 1735 000a 3B60     		str	r3, [r7, #0]
 1736 000c 0B46     		mov	r3, r1	@ movhi
 1737 000e 7B81     		strh	r3, [r7, #10]	@ movhi
1267:C:\Micrium\Software\uCOS-III\Source\os_task.c ****     OS_SEM_CTR    ctr;
1268:C:\Micrium\Software\uCOS-III\Source\os_task.c ****     CPU_SR_ALLOC();
 1738              		.loc 1 1268 0
 1739 0010 4FF00003 		mov	r3, #0
 1740 0014 7B61     		str	r3, [r7, #20]
1269:C:\Micrium\Software\uCOS-III\Source\os_task.c **** 
1270:C:\Micrium\Software\uCOS-III\Source\os_task.c **** 
1271:C:\Micrium\Software\uCOS-III\Source\os_task.c **** 
1272:C:\Micrium\Software\uCOS-III\Source\os_task.c **** #ifdef OS_SAFETY_CRITICAL
1273:C:\Micrium\Software\uCOS-III\Source\os_task.c ****     if (p_err == (OS_ERR *)0) {
1274:C:\Micrium\Software\uCOS-III\Source\os_task.c ****         OS_SAFETY_CRITICAL_EXCEPTION();
1275:C:\Micrium\Software\uCOS-III\Source\os_task.c ****         return ((OS_SEM_CTR)0);
1276:C:\Micrium\Software\uCOS-III\Source\os_task.c ****     }
1277:C:\Micrium\Software\uCOS-III\Source\os_task.c **** #endif
ARM GAS  C:\Users\daniel01\AppData\Local\Temp\ccb5Ykxv.s 			page 54


1278:C:\Micrium\Software\uCOS-III\Source\os_task.c **** 
1279:C:\Micrium\Software\uCOS-III\Source\os_task.c **** #if OS_CFG_CALLED_FROM_ISR_CHK_EN > 0u
1280:C:\Micrium\Software\uCOS-III\Source\os_task.c ****     if (OSIntNestingCtr > (OS_NESTING_CTR)0) {              /* Not allowed to call from an ISR     
 1741              		.loc 1 1280 0
 1742 0016 40F20003 		movw	r3, #:lower16:OSIntNestingCtr
 1743 001a C0F20003 		movt	r3, #:upper16:OSIntNestingCtr
 1744 001e 1B78     		ldrb	r3, [r3, #0]	@ zero_extendqisi2
 1745 0020 002B     		cmp	r3, #0
 1746 0022 06D0     		beq	.L123
1281:C:\Micrium\Software\uCOS-III\Source\os_task.c ****        *p_err = OS_ERR_PEND_ISR;
 1747              		.loc 1 1281 0
 1748 0024 3B68     		ldr	r3, [r7, #0]
 1749 0026 46F2AE12 		movw	r2, #25006
 1750 002a 1A80     		strh	r2, [r3, #0]	@ movhi
1282:C:\Micrium\Software\uCOS-III\Source\os_task.c ****         return ((OS_SEM_CTR)0);
 1751              		.loc 1 1282 0
 1752 002c 4FF00003 		mov	r3, #0
 1753 0030 1DE1     		b	.L124
 1754              	.L123:
1283:C:\Micrium\Software\uCOS-III\Source\os_task.c ****     }
1284:C:\Micrium\Software\uCOS-III\Source\os_task.c **** #endif
1285:C:\Micrium\Software\uCOS-III\Source\os_task.c **** 
1286:C:\Micrium\Software\uCOS-III\Source\os_task.c **** #if OS_CFG_ARG_CHK_EN > 0u
1287:C:\Micrium\Software\uCOS-III\Source\os_task.c ****     switch (opt) {                                          /* Validate 'opt'                      
 1755              		.loc 1 1287 0
 1756 0032 7B89     		ldrh	r3, [r7, #10]
 1757 0034 002B     		cmp	r3, #0
 1758 0036 02D0     		beq	.L126
 1759 0038 B3F5004F 		cmp	r3, #32768
 1760 003c 03D1     		bne	.L143
 1761              	.L126:
1288:C:\Micrium\Software\uCOS-III\Source\os_task.c ****         case OS_OPT_PEND_BLOCKING:
1289:C:\Micrium\Software\uCOS-III\Source\os_task.c ****         case OS_OPT_PEND_NON_BLOCKING:
1290:C:\Micrium\Software\uCOS-III\Source\os_task.c ****              break;
1291:C:\Micrium\Software\uCOS-III\Source\os_task.c **** 
1292:C:\Micrium\Software\uCOS-III\Source\os_task.c ****         default:
1293:C:\Micrium\Software\uCOS-III\Source\os_task.c ****             *p_err = OS_ERR_OPT_INVALID;
1294:C:\Micrium\Software\uCOS-III\Source\os_task.c ****              return ((OS_SEM_CTR)0);
1295:C:\Micrium\Software\uCOS-III\Source\os_task.c ****     }
1296:C:\Micrium\Software\uCOS-III\Source\os_task.c **** #endif
1297:C:\Micrium\Software\uCOS-III\Source\os_task.c **** 
1298:C:\Micrium\Software\uCOS-III\Source\os_task.c ****     if (p_ts != (CPU_TS *)0) {
 1762              		.loc 1 1298 0
 1763 003e 7B68     		ldr	r3, [r7, #4]
 1764 0040 002B     		cmp	r3, #0
 1765 0042 07D1     		bne	.L127
 1766 0044 0AE0     		b	.L128
 1767              	.L143:
 1768              		.loc 1 1293 0
 1769 0046 3B68     		ldr	r3, [r7, #0]
 1770 0048 45F62562 		movw	r2, #24101
 1771 004c 1A80     		strh	r2, [r3, #0]	@ movhi
 1772              		.loc 1 1294 0
 1773 004e 4FF00003 		mov	r3, #0
 1774 0052 0CE1     		b	.L124
 1775              	.L127:
1299:C:\Micrium\Software\uCOS-III\Source\os_task.c ****        *p_ts  = (CPU_TS  )0;                                /* Initialize the returned timestamp   
ARM GAS  C:\Users\daniel01\AppData\Local\Temp\ccb5Ykxv.s 			page 55


 1776              		.loc 1 1299 0
 1777 0054 7B68     		ldr	r3, [r7, #4]
 1778 0056 4FF00002 		mov	r2, #0
 1779 005a 1A60     		str	r2, [r3, #0]
 1780              	.L128:
1300:C:\Micrium\Software\uCOS-III\Source\os_task.c ****     }
1301:C:\Micrium\Software\uCOS-III\Source\os_task.c **** 
1302:C:\Micrium\Software\uCOS-III\Source\os_task.c ****     CPU_CRITICAL_ENTER();
 1781              		.loc 1 1302 0
 1782 005c FFF7FEFF 		bl	CPU_SR_Save
 1783 0060 0346     		mov	r3, r0
 1784 0062 7B61     		str	r3, [r7, #20]
1303:C:\Micrium\Software\uCOS-III\Source\os_task.c ****     if (OSTCBCurPtr->SemCtr > (OS_SEM_CTR)0) {              /* See if task already been signaled   
 1785              		.loc 1 1303 0
 1786 0064 40F20003 		movw	r3, #:lower16:OSTCBCurPtr
 1787 0068 C0F20003 		movt	r3, #:upper16:OSTCBCurPtr
 1788 006c 1B68     		ldr	r3, [r3, #0]
 1789 006e 5B6C     		ldr	r3, [r3, #68]
 1790 0070 002B     		cmp	r3, #0
 1791 0072 53D0     		beq	.L129
1304:C:\Micrium\Software\uCOS-III\Source\os_task.c ****         OSTCBCurPtr->SemCtr--;
 1792              		.loc 1 1304 0
 1793 0074 40F20003 		movw	r3, #:lower16:OSTCBCurPtr
 1794 0078 C0F20003 		movt	r3, #:upper16:OSTCBCurPtr
 1795 007c 1B68     		ldr	r3, [r3, #0]
 1796 007e 5A6C     		ldr	r2, [r3, #68]
 1797 0080 02F1FF32 		add	r2, r2, #-1
 1798 0084 5A64     		str	r2, [r3, #68]
1305:C:\Micrium\Software\uCOS-III\Source\os_task.c ****         ctr    = OSTCBCurPtr->SemCtr;
 1799              		.loc 1 1305 0
 1800 0086 40F20003 		movw	r3, #:lower16:OSTCBCurPtr
 1801 008a C0F20003 		movt	r3, #:upper16:OSTCBCurPtr
 1802 008e 1B68     		ldr	r3, [r3, #0]
 1803 0090 5B6C     		ldr	r3, [r3, #68]
 1804 0092 3B61     		str	r3, [r7, #16]
1306:C:\Micrium\Software\uCOS-III\Source\os_task.c ****         if (p_ts != (CPU_TS *)0) {
 1805              		.loc 1 1306 0
 1806 0094 7B68     		ldr	r3, [r7, #4]
 1807 0096 002B     		cmp	r3, #0
 1808 0098 07D0     		beq	.L130
1307:C:\Micrium\Software\uCOS-III\Source\os_task.c ****            *p_ts  = OSTCBCurPtr->TS;
 1809              		.loc 1 1307 0
 1810 009a 40F20003 		movw	r3, #:lower16:OSTCBCurPtr
 1811 009e C0F20003 		movt	r3, #:upper16:OSTCBCurPtr
 1812 00a2 1B68     		ldr	r3, [r3, #0]
 1813 00a4 1A6C     		ldr	r2, [r3, #64]
 1814 00a6 7B68     		ldr	r3, [r7, #4]
 1815 00a8 1A60     		str	r2, [r3, #0]
 1816              	.L130:
1308:C:\Micrium\Software\uCOS-III\Source\os_task.c ****         }
1309:C:\Micrium\Software\uCOS-III\Source\os_task.c **** #if OS_CFG_TASK_PROFILE_EN > 0u
1310:C:\Micrium\Software\uCOS-III\Source\os_task.c ****         OSTCBCurPtr->SemPendTime = OS_TS_GET() - OSTCBCurPtr->TS;
 1817              		.loc 1 1310 0
 1818 00aa 40F20003 		movw	r3, #:lower16:OSTCBCurPtr
 1819 00ae C0F20003 		movt	r3, #:upper16:OSTCBCurPtr
 1820 00b2 1C68     		ldr	r4, [r3, #0]
 1821 00b4 FFF7FEFF 		bl	CPU_TS_TmrRd
ARM GAS  C:\Users\daniel01\AppData\Local\Temp\ccb5Ykxv.s 			page 56


 1822 00b8 0246     		mov	r2, r0
 1823 00ba 40F20003 		movw	r3, #:lower16:OSTCBCurPtr
 1824 00be C0F20003 		movt	r3, #:upper16:OSTCBCurPtr
 1825 00c2 1B68     		ldr	r3, [r3, #0]
 1826 00c4 1B6C     		ldr	r3, [r3, #64]
 1827 00c6 C3EB0203 		rsb	r3, r3, r2
 1828 00ca C4F8A430 		str	r3, [r4, #164]
1311:C:\Micrium\Software\uCOS-III\Source\os_task.c ****         if (OSTCBCurPtr->SemPendTimeMax < OSTCBCurPtr->SemPendTime) {
 1829              		.loc 1 1311 0
 1830 00ce 40F20003 		movw	r3, #:lower16:OSTCBCurPtr
 1831 00d2 C0F20003 		movt	r3, #:upper16:OSTCBCurPtr
 1832 00d6 1B68     		ldr	r3, [r3, #0]
 1833 00d8 D3F8A820 		ldr	r2, [r3, #168]
 1834 00dc 40F20003 		movw	r3, #:lower16:OSTCBCurPtr
 1835 00e0 C0F20003 		movt	r3, #:upper16:OSTCBCurPtr
 1836 00e4 1B68     		ldr	r3, [r3, #0]
 1837 00e6 D3F8A430 		ldr	r3, [r3, #164]
 1838 00ea 9A42     		cmp	r2, r3
 1839 00ec 0DD2     		bcs	.L131
1312:C:\Micrium\Software\uCOS-III\Source\os_task.c ****             OSTCBCurPtr->SemPendTimeMax = OSTCBCurPtr->SemPendTime;
 1840              		.loc 1 1312 0
 1841 00ee 40F20003 		movw	r3, #:lower16:OSTCBCurPtr
 1842 00f2 C0F20003 		movt	r3, #:upper16:OSTCBCurPtr
 1843 00f6 1A68     		ldr	r2, [r3, #0]
 1844 00f8 40F20003 		movw	r3, #:lower16:OSTCBCurPtr
 1845 00fc C0F20003 		movt	r3, #:upper16:OSTCBCurPtr
 1846 0100 1B68     		ldr	r3, [r3, #0]
 1847 0102 D3F8A430 		ldr	r3, [r3, #164]
 1848 0106 C2F8A830 		str	r3, [r2, #168]
 1849              	.L131:
1313:C:\Micrium\Software\uCOS-III\Source\os_task.c ****         }
1314:C:\Micrium\Software\uCOS-III\Source\os_task.c **** #endif
1315:C:\Micrium\Software\uCOS-III\Source\os_task.c ****         CPU_CRITICAL_EXIT();
 1850              		.loc 1 1315 0
 1851 010a 7869     		ldr	r0, [r7, #20]
 1852 010c FFF7FEFF 		bl	CPU_SR_Restore
1316:C:\Micrium\Software\uCOS-III\Source\os_task.c ****        *p_err = OS_ERR_NONE;
 1853              		.loc 1 1316 0
 1854 0110 3B68     		ldr	r3, [r7, #0]
 1855 0112 4FF00002 		mov	r2, #0
 1856 0116 1A80     		strh	r2, [r3, #0]	@ movhi
1317:C:\Micrium\Software\uCOS-III\Source\os_task.c ****         return (ctr);
 1857              		.loc 1 1317 0
 1858 0118 3B69     		ldr	r3, [r7, #16]
 1859 011a A8E0     		b	.L124
 1860              	.L129:
1318:C:\Micrium\Software\uCOS-III\Source\os_task.c ****     }
1319:C:\Micrium\Software\uCOS-III\Source\os_task.c **** 
1320:C:\Micrium\Software\uCOS-III\Source\os_task.c ****     if ((opt & OS_OPT_PEND_NON_BLOCKING) != (OS_OPT)0) {    /* Caller wants to block if not availab
 1861              		.loc 1 1320 0
 1862 011c 7B89     		ldrh	r3, [r7, #10]
 1863 011e 1BB2     		sxth	r3, r3
 1864 0120 002B     		cmp	r3, #0
 1865 0122 09DA     		bge	.L132
1321:C:\Micrium\Software\uCOS-III\Source\os_task.c ****         CPU_CRITICAL_EXIT();
 1866              		.loc 1 1321 0
 1867 0124 7869     		ldr	r0, [r7, #20]
ARM GAS  C:\Users\daniel01\AppData\Local\Temp\ccb5Ykxv.s 			page 57


 1868 0126 FFF7FEFF 		bl	CPU_SR_Restore
1322:C:\Micrium\Software\uCOS-III\Source\os_task.c ****        *p_err = OS_ERR_PEND_WOULD_BLOCK;                    /* No                                  
 1869              		.loc 1 1322 0
 1870 012a 3B68     		ldr	r3, [r7, #0]
 1871 012c 46F2B012 		movw	r2, #25008
 1872 0130 1A80     		strh	r2, [r3, #0]	@ movhi
1323:C:\Micrium\Software\uCOS-III\Source\os_task.c ****         return ((OS_SEM_CTR)0);
 1873              		.loc 1 1323 0
 1874 0132 4FF00003 		mov	r3, #0
 1875 0136 9AE0     		b	.L124
 1876              	.L132:
1324:C:\Micrium\Software\uCOS-III\Source\os_task.c ****     } else {                                                /* Yes                                 
1325:C:\Micrium\Software\uCOS-III\Source\os_task.c ****         if (OSSchedLockNestingCtr > (OS_NESTING_CTR)0) {    /* Can't pend when the scheduler is loc
 1877              		.loc 1 1325 0
 1878 0138 40F20003 		movw	r3, #:lower16:OSSchedLockNestingCtr
 1879 013c C0F20003 		movt	r3, #:upper16:OSSchedLockNestingCtr
 1880 0140 1B78     		ldrb	r3, [r3, #0]	@ zero_extendqisi2
 1881 0142 002B     		cmp	r3, #0
 1882 0144 09D0     		beq	.L133
1326:C:\Micrium\Software\uCOS-III\Source\os_task.c ****             CPU_CRITICAL_EXIT();
 1883              		.loc 1 1326 0
 1884 0146 7869     		ldr	r0, [r7, #20]
 1885 0148 FFF7FEFF 		bl	CPU_SR_Restore
1327:C:\Micrium\Software\uCOS-III\Source\os_task.c ****            *p_err = OS_ERR_SCHED_LOCKED;
 1886              		.loc 1 1327 0
 1887 014c 3B68     		ldr	r3, [r7, #0]
 1888 014e 46F66352 		movw	r2, #28003
 1889 0152 1A80     		strh	r2, [r3, #0]	@ movhi
1328:C:\Micrium\Software\uCOS-III\Source\os_task.c ****             return ((OS_SEM_CTR)0);
 1890              		.loc 1 1328 0
 1891 0154 4FF00003 		mov	r3, #0
 1892 0158 89E0     		b	.L124
 1893              	.L133:
1329:C:\Micrium\Software\uCOS-III\Source\os_task.c ****         }
1330:C:\Micrium\Software\uCOS-III\Source\os_task.c ****     }
1331:C:\Micrium\Software\uCOS-III\Source\os_task.c ****                                                             /* Lock the scheduler/re-enable interru
1332:C:\Micrium\Software\uCOS-III\Source\os_task.c ****     OS_CRITICAL_ENTER_CPU_EXIT();                           
1333:C:\Micrium\Software\uCOS-III\Source\os_task.c ****     OS_Pend((OS_PEND_DATA *)0,                              /* Block task pending on Signal        
 1894              		.loc 1 1333 0
 1895 015a 4FF00000 		mov	r0, #0
 1896 015e 4FF00001 		mov	r1, #0
 1897 0162 4FF00702 		mov	r2, #7
 1898 0166 FB68     		ldr	r3, [r7, #12]
 1899 0168 FFF7FEFF 		bl	OS_Pend
1334:C:\Micrium\Software\uCOS-III\Source\os_task.c ****             (OS_PEND_OBJ  *)0,
1335:C:\Micrium\Software\uCOS-III\Source\os_task.c ****             (OS_STATE      )OS_TASK_PEND_ON_TASK_SEM,
1336:C:\Micrium\Software\uCOS-III\Source\os_task.c ****             (OS_TICK       )timeout);
1337:C:\Micrium\Software\uCOS-III\Source\os_task.c ****     OS_CRITICAL_EXIT_NO_SCHED();
 1900              		.loc 1 1337 0
 1901 016c 7869     		ldr	r0, [r7, #20]
 1902 016e FFF7FEFF 		bl	CPU_SR_Restore
1338:C:\Micrium\Software\uCOS-III\Source\os_task.c **** 
1339:C:\Micrium\Software\uCOS-III\Source\os_task.c ****     OSSched();                                              /* Find next highest priority task read
 1903              		.loc 1 1339 0
 1904 0172 FFF7FEFF 		bl	OSSched
1340:C:\Micrium\Software\uCOS-III\Source\os_task.c **** 
1341:C:\Micrium\Software\uCOS-III\Source\os_task.c ****     CPU_CRITICAL_ENTER();
ARM GAS  C:\Users\daniel01\AppData\Local\Temp\ccb5Ykxv.s 			page 58


 1905              		.loc 1 1341 0
 1906 0176 FFF7FEFF 		bl	CPU_SR_Save
 1907 017a 0346     		mov	r3, r0
 1908 017c 7B61     		str	r3, [r7, #20]
1342:C:\Micrium\Software\uCOS-III\Source\os_task.c ****     switch (OSTCBCurPtr->PendStatus) {                      /* See if we timed-out or aborted      
 1909              		.loc 1 1342 0
 1910 017e 40F20003 		movw	r3, #:lower16:OSTCBCurPtr
 1911 0182 C0F20003 		movt	r3, #:upper16:OSTCBCurPtr
 1912 0186 1B68     		ldr	r3, [r3, #0]
 1913 0188 93F83530 		ldrb	r3, [r3, #53]	@ zero_extendqisi2
 1914 018c 012B     		cmp	r3, #1
 1915 018e 43D0     		beq	.L136
 1916 0190 032B     		cmp	r3, #3
 1917 0192 51D0     		beq	.L137
 1918 0194 002B     		cmp	r3, #0
 1919 0196 5BD1     		bne	.L144
 1920              	.L135:
1343:C:\Micrium\Software\uCOS-III\Source\os_task.c ****         case OS_STATUS_PEND_OK:
1344:C:\Micrium\Software\uCOS-III\Source\os_task.c ****              if (p_ts != (CPU_TS *)0) {
 1921              		.loc 1 1344 0
 1922 0198 7B68     		ldr	r3, [r7, #4]
 1923 019a 002B     		cmp	r3, #0
 1924 019c 37D0     		beq	.L138
1345:C:\Micrium\Software\uCOS-III\Source\os_task.c ****                 *p_ts                    =  OSTCBCurPtr->TS;
 1925              		.loc 1 1345 0
 1926 019e 40F20003 		movw	r3, #:lower16:OSTCBCurPtr
 1927 01a2 C0F20003 		movt	r3, #:upper16:OSTCBCurPtr
 1928 01a6 1B68     		ldr	r3, [r3, #0]
 1929 01a8 1A6C     		ldr	r2, [r3, #64]
 1930 01aa 7B68     		ldr	r3, [r7, #4]
 1931 01ac 1A60     		str	r2, [r3, #0]
1346:C:\Micrium\Software\uCOS-III\Source\os_task.c **** #if OS_CFG_TASK_PROFILE_EN > 0u
1347:C:\Micrium\Software\uCOS-III\Source\os_task.c ****                 OSTCBCurPtr->SemPendTime = OS_TS_GET() - OSTCBCurPtr->TS;
 1932              		.loc 1 1347 0
 1933 01ae 40F20003 		movw	r3, #:lower16:OSTCBCurPtr
 1934 01b2 C0F20003 		movt	r3, #:upper16:OSTCBCurPtr
 1935 01b6 1C68     		ldr	r4, [r3, #0]
 1936 01b8 FFF7FEFF 		bl	CPU_TS_TmrRd
 1937 01bc 0246     		mov	r2, r0
 1938 01be 40F20003 		movw	r3, #:lower16:OSTCBCurPtr
 1939 01c2 C0F20003 		movt	r3, #:upper16:OSTCBCurPtr
 1940 01c6 1B68     		ldr	r3, [r3, #0]
 1941 01c8 1B6C     		ldr	r3, [r3, #64]
 1942 01ca C3EB0203 		rsb	r3, r3, r2
 1943 01ce C4F8A430 		str	r3, [r4, #164]
1348:C:\Micrium\Software\uCOS-III\Source\os_task.c ****                 if (OSTCBCurPtr->SemPendTimeMax < OSTCBCurPtr->SemPendTime) {
 1944              		.loc 1 1348 0
 1945 01d2 40F20003 		movw	r3, #:lower16:OSTCBCurPtr
 1946 01d6 C0F20003 		movt	r3, #:upper16:OSTCBCurPtr
 1947 01da 1B68     		ldr	r3, [r3, #0]
 1948 01dc D3F8A820 		ldr	r2, [r3, #168]
 1949 01e0 40F20003 		movw	r3, #:lower16:OSTCBCurPtr
 1950 01e4 C0F20003 		movt	r3, #:upper16:OSTCBCurPtr
 1951 01e8 1B68     		ldr	r3, [r3, #0]
 1952 01ea D3F8A430 		ldr	r3, [r3, #164]
 1953 01ee 9A42     		cmp	r2, r3
 1954 01f0 0DD2     		bcs	.L138
ARM GAS  C:\Users\daniel01\AppData\Local\Temp\ccb5Ykxv.s 			page 59


1349:C:\Micrium\Software\uCOS-III\Source\os_task.c ****                     OSTCBCurPtr->SemPendTimeMax = OSTCBCurPtr->SemPendTime;
 1955              		.loc 1 1349 0
 1956 01f2 40F20003 		movw	r3, #:lower16:OSTCBCurPtr
 1957 01f6 C0F20003 		movt	r3, #:upper16:OSTCBCurPtr
 1958 01fa 1A68     		ldr	r2, [r3, #0]
 1959 01fc 40F20003 		movw	r3, #:lower16:OSTCBCurPtr
 1960 0200 C0F20003 		movt	r3, #:upper16:OSTCBCurPtr
 1961 0204 1B68     		ldr	r3, [r3, #0]
 1962 0206 D3F8A430 		ldr	r3, [r3, #164]
 1963 020a C2F8A830 		str	r3, [r2, #168]
 1964              	.L138:
1350:C:\Micrium\Software\uCOS-III\Source\os_task.c ****                 }
1351:C:\Micrium\Software\uCOS-III\Source\os_task.c **** #endif
1352:C:\Micrium\Software\uCOS-III\Source\os_task.c ****              }
1353:C:\Micrium\Software\uCOS-III\Source\os_task.c ****             *p_err = OS_ERR_NONE;
 1965              		.loc 1 1353 0
 1966 020e 3B68     		ldr	r3, [r7, #0]
 1967 0210 4FF00002 		mov	r2, #0
 1968 0214 1A80     		strh	r2, [r3, #0]	@ movhi
1354:C:\Micrium\Software\uCOS-III\Source\os_task.c ****              break;
 1969              		.loc 1 1354 0
 1970 0216 1FE0     		b	.L139
 1971              	.L136:
1355:C:\Micrium\Software\uCOS-III\Source\os_task.c **** 
1356:C:\Micrium\Software\uCOS-III\Source\os_task.c ****         case OS_STATUS_PEND_ABORT:
1357:C:\Micrium\Software\uCOS-III\Source\os_task.c ****              if (p_ts != (CPU_TS *)0) {
 1972              		.loc 1 1357 0
 1973 0218 7B68     		ldr	r3, [r7, #4]
 1974 021a 002B     		cmp	r3, #0
 1975 021c 07D0     		beq	.L140
1358:C:\Micrium\Software\uCOS-III\Source\os_task.c ****                 *p_ts  =  OSTCBCurPtr->TS;
 1976              		.loc 1 1358 0
 1977 021e 40F20003 		movw	r3, #:lower16:OSTCBCurPtr
 1978 0222 C0F20003 		movt	r3, #:upper16:OSTCBCurPtr
 1979 0226 1B68     		ldr	r3, [r3, #0]
 1980 0228 1A6C     		ldr	r2, [r3, #64]
 1981 022a 7B68     		ldr	r3, [r7, #4]
 1982 022c 1A60     		str	r2, [r3, #0]
 1983              	.L140:
1359:C:\Micrium\Software\uCOS-III\Source\os_task.c ****              }
1360:C:\Micrium\Software\uCOS-III\Source\os_task.c ****             *p_err = OS_ERR_PEND_ABORT;                     /* Indicate that we aborted            
 1984              		.loc 1 1360 0
 1985 022e 3B68     		ldr	r3, [r7, #0]
 1986 0230 46F2A912 		movw	r2, #25001
 1987 0234 1A80     		strh	r2, [r3, #0]	@ movhi
1361:C:\Micrium\Software\uCOS-III\Source\os_task.c ****              break;
 1988              		.loc 1 1361 0
 1989 0236 0FE0     		b	.L139
 1990              	.L137:
1362:C:\Micrium\Software\uCOS-III\Source\os_task.c **** 
1363:C:\Micrium\Software\uCOS-III\Source\os_task.c ****         case OS_STATUS_PEND_TIMEOUT:
1364:C:\Micrium\Software\uCOS-III\Source\os_task.c ****              if (p_ts != (CPU_TS *)0) {
 1991              		.loc 1 1364 0
 1992 0238 7B68     		ldr	r3, [r7, #4]
 1993 023a 002B     		cmp	r3, #0
 1994 023c 03D0     		beq	.L141
1365:C:\Micrium\Software\uCOS-III\Source\os_task.c ****                 *p_ts  = (CPU_TS  )0;
ARM GAS  C:\Users\daniel01\AppData\Local\Temp\ccb5Ykxv.s 			page 60


 1995              		.loc 1 1365 0
 1996 023e 7B68     		ldr	r3, [r7, #4]
 1997 0240 4FF00002 		mov	r2, #0
 1998 0244 1A60     		str	r2, [r3, #0]
 1999              	.L141:
1366:C:\Micrium\Software\uCOS-III\Source\os_task.c ****              }
1367:C:\Micrium\Software\uCOS-III\Source\os_task.c ****             *p_err = OS_ERR_TIMEOUT;                        /* Indicate that we didn't get event wi
 2000              		.loc 1 1367 0
 2001 0246 3B68     		ldr	r3, [r7, #0]
 2002 0248 47F2D922 		movw	r2, #29401
 2003 024c 1A80     		strh	r2, [r3, #0]	@ movhi
1368:C:\Micrium\Software\uCOS-III\Source\os_task.c ****              break;
 2004              		.loc 1 1368 0
 2005 024e 03E0     		b	.L139
 2006              	.L144:
1369:C:\Micrium\Software\uCOS-III\Source\os_task.c **** 
1370:C:\Micrium\Software\uCOS-III\Source\os_task.c ****         default:
1371:C:\Micrium\Software\uCOS-III\Source\os_task.c ****             *p_err = OS_ERR_STATUS_INVALID;
 2007              		.loc 1 1371 0
 2008 0250 3B68     		ldr	r3, [r7, #0]
 2009 0252 46F62E62 		movw	r2, #28206
 2010 0256 1A80     		strh	r2, [r3, #0]	@ movhi
 2011              	.L139:
1372:C:\Micrium\Software\uCOS-III\Source\os_task.c ****              break;
1373:C:\Micrium\Software\uCOS-III\Source\os_task.c ****     }
1374:C:\Micrium\Software\uCOS-III\Source\os_task.c ****     ctr = OSTCBCurPtr->SemCtr;
 2012              		.loc 1 1374 0
 2013 0258 40F20003 		movw	r3, #:lower16:OSTCBCurPtr
 2014 025c C0F20003 		movt	r3, #:upper16:OSTCBCurPtr
 2015 0260 1B68     		ldr	r3, [r3, #0]
 2016 0262 5B6C     		ldr	r3, [r3, #68]
 2017 0264 3B61     		str	r3, [r7, #16]
1375:C:\Micrium\Software\uCOS-III\Source\os_task.c ****     CPU_CRITICAL_EXIT();
 2018              		.loc 1 1375 0
 2019 0266 7869     		ldr	r0, [r7, #20]
 2020 0268 FFF7FEFF 		bl	CPU_SR_Restore
1376:C:\Micrium\Software\uCOS-III\Source\os_task.c ****     return (ctr);
 2021              		.loc 1 1376 0
 2022 026c 3B69     		ldr	r3, [r7, #16]
 2023              	.L124:
1377:C:\Micrium\Software\uCOS-III\Source\os_task.c **** }
 2024              		.loc 1 1377 0
 2025 026e 1846     		mov	r0, r3
 2026 0270 07F11C07 		add	r7, r7, #28
 2027 0274 BD46     		mov	sp, r7
 2028 0276 90BD     		pop	{r4, r7, pc}
 2029              		.cfi_endproc
 2030              	.LFE11:
 2031              		.size	OSTaskSemPend, .-OSTaskSemPend
 2032              		.section	.text.OSTaskSemPendAbort,"ax",%progbits
 2033              		.align	2
 2034              		.global	OSTaskSemPendAbort
 2035              		.thumb
 2036              		.thumb_func
 2037              		.type	OSTaskSemPendAbort, %function
 2038              	OSTaskSemPendAbort:
 2039              	.LFB12:
ARM GAS  C:\Users\daniel01\AppData\Local\Temp\ccb5Ykxv.s 			page 61


1378:C:\Micrium\Software\uCOS-III\Source\os_task.c **** 
1379:C:\Micrium\Software\uCOS-III\Source\os_task.c **** /*$PAGE*/
1380:C:\Micrium\Software\uCOS-III\Source\os_task.c **** /*
1381:C:\Micrium\Software\uCOS-III\Source\os_task.c **** ***************************************************************************************************
1382:C:\Micrium\Software\uCOS-III\Source\os_task.c **** *                                               ABORT WAITING FOR A SIGNAL
1383:C:\Micrium\Software\uCOS-III\Source\os_task.c **** *
1384:C:\Micrium\Software\uCOS-III\Source\os_task.c **** * Description: This function aborts & readies the task specified.  This function should be used to 
1385:C:\Micrium\Software\uCOS-III\Source\os_task.c **** *              for a signal, rather than to normally post the signal to the task via OSTaskSemPost(
1386:C:\Micrium\Software\uCOS-III\Source\os_task.c **** *
1387:C:\Micrium\Software\uCOS-III\Source\os_task.c **** * Arguments  : p_tcb     is a pointer to the task to pend abort
1388:C:\Micrium\Software\uCOS-III\Source\os_task.c **** *
1389:C:\Micrium\Software\uCOS-III\Source\os_task.c **** *              opt       provides options for this function:
1390:C:\Micrium\Software\uCOS-III\Source\os_task.c **** *
1391:C:\Micrium\Software\uCOS-III\Source\os_task.c **** *                            OS_OPT_POST_NONE         No option selected
1392:C:\Micrium\Software\uCOS-III\Source\os_task.c **** *                            OS_OPT_POST_NO_SCHED     Indicates that the scheduler will not be call
1393:C:\Micrium\Software\uCOS-III\Source\os_task.c **** *
1394:C:\Micrium\Software\uCOS-III\Source\os_task.c **** *              p_err     is a pointer to a variable that will contain an error code returned by thi
1395:C:\Micrium\Software\uCOS-III\Source\os_task.c **** *
1396:C:\Micrium\Software\uCOS-III\Source\os_task.c **** *                            OS_ERR_NONE              If the task was readied and informed of the a
1397:C:\Micrium\Software\uCOS-III\Source\os_task.c **** *                            OS_ERR_PEND_ABORT_ISR    If you tried calling this function from an IS
1398:C:\Micrium\Software\uCOS-III\Source\os_task.c **** *                            OS_ERR_PEND_ABORT_NONE   If the task was not waiting for a signal
1399:C:\Micrium\Software\uCOS-III\Source\os_task.c **** *                            OS_ERR_PEND_ABORT_SELF   If you attempted to pend abort the calling ta
1400:C:\Micrium\Software\uCOS-III\Source\os_task.c **** *                                                     possible since the calling task cannot be pen
1401:C:\Micrium\Software\uCOS-III\Source\os_task.c **** *                                                     running.
1402:C:\Micrium\Software\uCOS-III\Source\os_task.c **** *
1403:C:\Micrium\Software\uCOS-III\Source\os_task.c **** * Returns    : == DEF_FALSE   if task was not waiting for a message, or upon error.
1404:C:\Micrium\Software\uCOS-III\Source\os_task.c **** *              == DEF_TRUE    if task was waiting for a message and was readied and informed.
1405:C:\Micrium\Software\uCOS-III\Source\os_task.c **** ***************************************************************************************************
1406:C:\Micrium\Software\uCOS-III\Source\os_task.c **** */
1407:C:\Micrium\Software\uCOS-III\Source\os_task.c **** 
1408:C:\Micrium\Software\uCOS-III\Source\os_task.c **** #if OS_CFG_TASK_SEM_PEND_ABORT_EN > 0u
1409:C:\Micrium\Software\uCOS-III\Source\os_task.c **** CPU_BOOLEAN  OSTaskSemPendAbort (OS_TCB  *p_tcb,
1410:C:\Micrium\Software\uCOS-III\Source\os_task.c ****                                  OS_OPT   opt,
1411:C:\Micrium\Software\uCOS-III\Source\os_task.c ****                                  OS_ERR  *p_err)
1412:C:\Micrium\Software\uCOS-III\Source\os_task.c **** {
 2040              		.loc 1 1412 0
 2041              		.cfi_startproc
 2042              		@ args = 0, pretend = 0, frame = 24
 2043              		@ frame_needed = 1, uses_anonymous_args = 0
 2044 0000 80B5     		push	{r7, lr}
 2045              	.LCFI36:
 2046              		.cfi_def_cfa_offset 8
 2047 0002 86B0     		sub	sp, sp, #24
 2048              	.LCFI37:
 2049              		.cfi_def_cfa_offset 32
 2050 0004 00AF     		add	r7, sp, #0
 2051              		.cfi_offset 14, -4
 2052              		.cfi_offset 7, -8
 2053              	.LCFI38:
 2054              		.cfi_def_cfa_register 7
 2055 0006 F860     		str	r0, [r7, #12]
 2056 0008 0B46     		mov	r3, r1
 2057 000a 7A60     		str	r2, [r7, #4]
 2058 000c 7B81     		strh	r3, [r7, #10]	@ movhi
1413:C:\Micrium\Software\uCOS-III\Source\os_task.c ****     CPU_TS         ts;
1414:C:\Micrium\Software\uCOS-III\Source\os_task.c ****     CPU_SR_ALLOC();
 2059              		.loc 1 1414 0
ARM GAS  C:\Users\daniel01\AppData\Local\Temp\ccb5Ykxv.s 			page 62


 2060 000e 4FF00003 		mov	r3, #0
 2061 0012 7B61     		str	r3, [r7, #20]
1415:C:\Micrium\Software\uCOS-III\Source\os_task.c **** 
1416:C:\Micrium\Software\uCOS-III\Source\os_task.c **** 
1417:C:\Micrium\Software\uCOS-III\Source\os_task.c **** 
1418:C:\Micrium\Software\uCOS-III\Source\os_task.c **** #ifdef OS_SAFETY_CRITICAL
1419:C:\Micrium\Software\uCOS-III\Source\os_task.c ****     if (p_err == (OS_ERR *)0) {
1420:C:\Micrium\Software\uCOS-III\Source\os_task.c ****         OS_SAFETY_CRITICAL_EXCEPTION();
1421:C:\Micrium\Software\uCOS-III\Source\os_task.c ****         return (DEF_FALSE);
1422:C:\Micrium\Software\uCOS-III\Source\os_task.c ****     }
1423:C:\Micrium\Software\uCOS-III\Source\os_task.c **** #endif
1424:C:\Micrium\Software\uCOS-III\Source\os_task.c **** 
1425:C:\Micrium\Software\uCOS-III\Source\os_task.c **** #if OS_CFG_CALLED_FROM_ISR_CHK_EN > 0u
1426:C:\Micrium\Software\uCOS-III\Source\os_task.c ****     if (OSIntNestingCtr > (OS_NESTING_CTR)0) {              /* See if called from ISR ...          
 2062              		.loc 1 1426 0
 2063 0014 40F20003 		movw	r3, #:lower16:OSIntNestingCtr
 2064 0018 C0F20003 		movt	r3, #:upper16:OSIntNestingCtr
 2065 001c 1B78     		ldrb	r3, [r3, #0]	@ zero_extendqisi2
 2066 001e 002B     		cmp	r3, #0
 2067 0020 06D0     		beq	.L146
1427:C:\Micrium\Software\uCOS-III\Source\os_task.c ****        *p_err = OS_ERR_PEND_ABORT_ISR;                      /* ... can't Pend Abort from an ISR    
 2068              		.loc 1 1427 0
 2069 0022 7B68     		ldr	r3, [r7, #4]
 2070 0024 46F2AA12 		movw	r2, #25002
 2071 0028 1A80     		strh	r2, [r3, #0]	@ movhi
1428:C:\Micrium\Software\uCOS-III\Source\os_task.c ****         return (DEF_FALSE);
 2072              		.loc 1 1428 0
 2073 002a 4FF00003 		mov	r3, #0
 2074 002e 55E0     		b	.L147
 2075              	.L146:
1429:C:\Micrium\Software\uCOS-III\Source\os_task.c ****     }
1430:C:\Micrium\Software\uCOS-III\Source\os_task.c **** #endif
1431:C:\Micrium\Software\uCOS-III\Source\os_task.c **** 
1432:C:\Micrium\Software\uCOS-III\Source\os_task.c **** #if OS_CFG_ARG_CHK_EN > 0u
1433:C:\Micrium\Software\uCOS-III\Source\os_task.c ****     switch (opt) {                                          /* Validate 'opt'                      
 2076              		.loc 1 1433 0
 2077 0030 7B89     		ldrh	r3, [r7, #10]
 2078 0032 002B     		cmp	r3, #0
 2079 0034 02D0     		beq	.L149
 2080 0036 B3F5004F 		cmp	r3, #32768
 2081 003a 07D1     		bne	.L156
 2082              	.L149:
1434:C:\Micrium\Software\uCOS-III\Source\os_task.c ****         case OS_OPT_POST_NONE:
1435:C:\Micrium\Software\uCOS-III\Source\os_task.c ****         case OS_OPT_POST_NO_SCHED:
1436:C:\Micrium\Software\uCOS-III\Source\os_task.c ****              break;
1437:C:\Micrium\Software\uCOS-III\Source\os_task.c **** 
1438:C:\Micrium\Software\uCOS-III\Source\os_task.c ****         default:
1439:C:\Micrium\Software\uCOS-III\Source\os_task.c ****             *p_err =  OS_ERR_OPT_INVALID;
1440:C:\Micrium\Software\uCOS-III\Source\os_task.c ****              return (DEF_FALSE);
1441:C:\Micrium\Software\uCOS-III\Source\os_task.c ****     }
1442:C:\Micrium\Software\uCOS-III\Source\os_task.c **** #endif
1443:C:\Micrium\Software\uCOS-III\Source\os_task.c **** 
1444:C:\Micrium\Software\uCOS-III\Source\os_task.c ****     CPU_CRITICAL_ENTER();
 2083              		.loc 1 1444 0
 2084 003c FFF7FEFF 		bl	CPU_SR_Save
 2085 0040 0346     		mov	r3, r0
 2086 0042 7B61     		str	r3, [r7, #20]
ARM GAS  C:\Users\daniel01\AppData\Local\Temp\ccb5Ykxv.s 			page 63


1445:C:\Micrium\Software\uCOS-III\Source\os_task.c ****     if ((p_tcb == (OS_TCB *)0) ||                           /* Pend abort self?                    
 2087              		.loc 1 1445 0
 2088 0044 FB68     		ldr	r3, [r7, #12]
 2089 0046 002B     		cmp	r3, #0
 2090 0048 0FD0     		beq	.L150
 2091 004a 06E0     		b	.L157
 2092              	.L156:
 2093              		.loc 1 1439 0
 2094 004c 7B68     		ldr	r3, [r7, #4]
 2095 004e 45F62562 		movw	r2, #24101
 2096 0052 1A80     		strh	r2, [r3, #0]	@ movhi
 2097              		.loc 1 1440 0
 2098 0054 4FF00003 		mov	r3, #0
 2099 0058 40E0     		b	.L147
 2100              	.L157:
1446:C:\Micrium\Software\uCOS-III\Source\os_task.c ****         (p_tcb == OSTCBCurPtr)) {
 2101              		.loc 1 1446 0
 2102 005a 40F20003 		movw	r3, #:lower16:OSTCBCurPtr
 2103 005e C0F20003 		movt	r3, #:upper16:OSTCBCurPtr
 2104 0062 1B68     		ldr	r3, [r3, #0]
 2105              		.loc 1 1445 0
 2106 0064 FA68     		ldr	r2, [r7, #12]
 2107 0066 9A42     		cmp	r2, r3
 2108 0068 09D1     		bne	.L152
 2109              	.L150:
1447:C:\Micrium\Software\uCOS-III\Source\os_task.c ****         CPU_CRITICAL_EXIT();                                /* ... doesn't make sense!             
 2110              		.loc 1 1447 0
 2111 006a 7869     		ldr	r0, [r7, #20]
 2112 006c FFF7FEFF 		bl	CPU_SR_Restore
1448:C:\Micrium\Software\uCOS-III\Source\os_task.c ****        *p_err = OS_ERR_PEND_ABORT_SELF;
 2113              		.loc 1 1448 0
 2114 0070 7B68     		ldr	r3, [r7, #4]
 2115 0072 46F2AC12 		movw	r2, #25004
 2116 0076 1A80     		strh	r2, [r3, #0]	@ movhi
1449:C:\Micrium\Software\uCOS-III\Source\os_task.c ****         return (DEF_FALSE);
 2117              		.loc 1 1449 0
 2118 0078 4FF00003 		mov	r3, #0
 2119 007c 2EE0     		b	.L147
 2120              	.L152:
1450:C:\Micrium\Software\uCOS-III\Source\os_task.c ****     }
1451:C:\Micrium\Software\uCOS-III\Source\os_task.c **** 
1452:C:\Micrium\Software\uCOS-III\Source\os_task.c ****     if (p_tcb->PendOn != OS_TASK_PEND_ON_TASK_SEM) {        /* Is task waiting for a signal?       
 2121              		.loc 1 1452 0
 2122 007e FB68     		ldr	r3, [r7, #12]
 2123 0080 93F83430 		ldrb	r3, [r3, #52]	@ zero_extendqisi2
 2124 0084 072B     		cmp	r3, #7
 2125 0086 09D0     		beq	.L153
1453:C:\Micrium\Software\uCOS-III\Source\os_task.c ****         CPU_CRITICAL_EXIT();
 2126              		.loc 1 1453 0
 2127 0088 7869     		ldr	r0, [r7, #20]
 2128 008a FFF7FEFF 		bl	CPU_SR_Restore
1454:C:\Micrium\Software\uCOS-III\Source\os_task.c ****        *p_err = OS_ERR_PEND_ABORT_NONE;
 2129              		.loc 1 1454 0
 2130 008e 7B68     		ldr	r3, [r7, #4]
 2131 0090 46F2AB12 		movw	r2, #25003
 2132 0094 1A80     		strh	r2, [r3, #0]	@ movhi
1455:C:\Micrium\Software\uCOS-III\Source\os_task.c ****         return (DEF_FALSE);
ARM GAS  C:\Users\daniel01\AppData\Local\Temp\ccb5Ykxv.s 			page 64


 2133              		.loc 1 1455 0
 2134 0096 4FF00003 		mov	r3, #0
 2135 009a 1FE0     		b	.L147
 2136              	.L153:
1456:C:\Micrium\Software\uCOS-III\Source\os_task.c ****     }
1457:C:\Micrium\Software\uCOS-III\Source\os_task.c ****     CPU_CRITICAL_EXIT();
 2137              		.loc 1 1457 0
 2138 009c 7869     		ldr	r0, [r7, #20]
 2139 009e FFF7FEFF 		bl	CPU_SR_Restore
1458:C:\Micrium\Software\uCOS-III\Source\os_task.c **** 
1459:C:\Micrium\Software\uCOS-III\Source\os_task.c ****     OS_CRITICAL_ENTER();
 2140              		.loc 1 1459 0
 2141 00a2 FFF7FEFF 		bl	CPU_SR_Save
 2142 00a6 0346     		mov	r3, r0
 2143 00a8 7B61     		str	r3, [r7, #20]
1460:C:\Micrium\Software\uCOS-III\Source\os_task.c ****     ts = OS_TS_GET();
 2144              		.loc 1 1460 0
 2145 00aa FFF7FEFF 		bl	CPU_TS_TmrRd
 2146 00ae 0346     		mov	r3, r0
 2147 00b0 3B61     		str	r3, [r7, #16]
1461:C:\Micrium\Software\uCOS-III\Source\os_task.c ****     OS_PendAbort((OS_PEND_OBJ *)0,
 2148              		.loc 1 1461 0
 2149 00b2 4FF00000 		mov	r0, #0
 2150 00b6 F968     		ldr	r1, [r7, #12]
 2151 00b8 3A69     		ldr	r2, [r7, #16]
 2152 00ba FFF7FEFF 		bl	OS_PendAbort
1462:C:\Micrium\Software\uCOS-III\Source\os_task.c ****                  p_tcb,
1463:C:\Micrium\Software\uCOS-III\Source\os_task.c ****                  ts);
1464:C:\Micrium\Software\uCOS-III\Source\os_task.c ****     OS_CRITICAL_EXIT_NO_SCHED();
 2153              		.loc 1 1464 0
 2154 00be 7869     		ldr	r0, [r7, #20]
 2155 00c0 FFF7FEFF 		bl	CPU_SR_Restore
1465:C:\Micrium\Software\uCOS-III\Source\os_task.c ****     if ((opt & OS_OPT_POST_NO_SCHED) == (OS_OPT)0) {
 2156              		.loc 1 1465 0
 2157 00c4 7B89     		ldrh	r3, [r7, #10]
 2158 00c6 1BB2     		sxth	r3, r3
 2159 00c8 002B     		cmp	r3, #0
 2160 00ca 01DB     		blt	.L154
1466:C:\Micrium\Software\uCOS-III\Source\os_task.c ****         OSSched();                                          /* Run the scheduler                   
 2161              		.loc 1 1466 0
 2162 00cc FFF7FEFF 		bl	OSSched
 2163              	.L154:
1467:C:\Micrium\Software\uCOS-III\Source\os_task.c ****     }
1468:C:\Micrium\Software\uCOS-III\Source\os_task.c ****    *p_err = OS_ERR_NONE;
 2164              		.loc 1 1468 0
 2165 00d0 7B68     		ldr	r3, [r7, #4]
 2166 00d2 4FF00002 		mov	r2, #0
 2167 00d6 1A80     		strh	r2, [r3, #0]	@ movhi
1469:C:\Micrium\Software\uCOS-III\Source\os_task.c ****     return (DEF_TRUE);
 2168              		.loc 1 1469 0
 2169 00d8 4FF00103 		mov	r3, #1
 2170              	.L147:
1470:C:\Micrium\Software\uCOS-III\Source\os_task.c **** }
 2171              		.loc 1 1470 0
 2172 00dc 1846     		mov	r0, r3
 2173 00de 07F11807 		add	r7, r7, #24
 2174 00e2 BD46     		mov	sp, r7
ARM GAS  C:\Users\daniel01\AppData\Local\Temp\ccb5Ykxv.s 			page 65


 2175 00e4 80BD     		pop	{r7, pc}
 2176              		.cfi_endproc
 2177              	.LFE12:
 2178              		.size	OSTaskSemPendAbort, .-OSTaskSemPendAbort
 2179 00e6 00BF     		.section	.text.OSTaskSemPost,"ax",%progbits
 2180              		.align	2
 2181              		.global	OSTaskSemPost
 2182              		.thumb
 2183              		.thumb_func
 2184              		.type	OSTaskSemPost, %function
 2185              	OSTaskSemPost:
 2186              	.LFB13:
1471:C:\Micrium\Software\uCOS-III\Source\os_task.c **** #endif
1472:C:\Micrium\Software\uCOS-III\Source\os_task.c **** 
1473:C:\Micrium\Software\uCOS-III\Source\os_task.c **** /*$PAGE*/
1474:C:\Micrium\Software\uCOS-III\Source\os_task.c **** /*
1475:C:\Micrium\Software\uCOS-III\Source\os_task.c **** ***************************************************************************************************
1476:C:\Micrium\Software\uCOS-III\Source\os_task.c **** *                                                    SIGNAL A TASK
1477:C:\Micrium\Software\uCOS-III\Source\os_task.c **** *
1478:C:\Micrium\Software\uCOS-III\Source\os_task.c **** * Description: This function is called to signal a task waiting for a signal.
1479:C:\Micrium\Software\uCOS-III\Source\os_task.c **** *
1480:C:\Micrium\Software\uCOS-III\Source\os_task.c **** * Arguments  : p_tcb     is the pointer to the TCB of the task to signal.  A NULL pointer indicates
1481:C:\Micrium\Software\uCOS-III\Source\os_task.c **** *                        a signal to yourself.
1482:C:\Micrium\Software\uCOS-III\Source\os_task.c **** *
1483:C:\Micrium\Software\uCOS-III\Source\os_task.c **** *              opt       determines the type of POST performed:
1484:C:\Micrium\Software\uCOS-III\Source\os_task.c **** *
1485:C:\Micrium\Software\uCOS-III\Source\os_task.c **** *                             OS_OPT_POST_NONE         No option
1486:C:\Micrium\Software\uCOS-III\Source\os_task.c **** *                             OS_OPT_POST_NO_SCHED     Do not call the scheduler
1487:C:\Micrium\Software\uCOS-III\Source\os_task.c **** *
1488:C:\Micrium\Software\uCOS-III\Source\os_task.c **** *              p_err     is a pointer to an error code returned by this function:
1489:C:\Micrium\Software\uCOS-III\Source\os_task.c **** *
1490:C:\Micrium\Software\uCOS-III\Source\os_task.c **** *                            OS_ERR_NONE              If the requested task is signaled
1491:C:\Micrium\Software\uCOS-III\Source\os_task.c **** *                            OS_ERR_SEM_OVF           If the post would cause the semaphore count t
1492:C:\Micrium\Software\uCOS-III\Source\os_task.c **** *
1493:C:\Micrium\Software\uCOS-III\Source\os_task.c **** * Returns    : The current value of the task's signal counter or 0 if called from an ISR
1494:C:\Micrium\Software\uCOS-III\Source\os_task.c **** ***************************************************************************************************
1495:C:\Micrium\Software\uCOS-III\Source\os_task.c **** */
1496:C:\Micrium\Software\uCOS-III\Source\os_task.c **** 
1497:C:\Micrium\Software\uCOS-III\Source\os_task.c **** OS_SEM_CTR  OSTaskSemPost (OS_TCB  *p_tcb,
1498:C:\Micrium\Software\uCOS-III\Source\os_task.c ****                            OS_OPT   opt,
1499:C:\Micrium\Software\uCOS-III\Source\os_task.c ****                            OS_ERR  *p_err)
1500:C:\Micrium\Software\uCOS-III\Source\os_task.c **** {
 2187              		.loc 1 1500 0
 2188              		.cfi_startproc
 2189              		@ args = 0, pretend = 0, frame = 24
 2190              		@ frame_needed = 1, uses_anonymous_args = 0
 2191 0000 80B5     		push	{r7, lr}
 2192              	.LCFI39:
 2193              		.cfi_def_cfa_offset 8
 2194 0002 86B0     		sub	sp, sp, #24
 2195              	.LCFI40:
 2196              		.cfi_def_cfa_offset 32
 2197 0004 00AF     		add	r7, sp, #0
 2198              		.cfi_offset 14, -4
 2199              		.cfi_offset 7, -8
 2200              	.LCFI41:
 2201              		.cfi_def_cfa_register 7
ARM GAS  C:\Users\daniel01\AppData\Local\Temp\ccb5Ykxv.s 			page 66


 2202 0006 F860     		str	r0, [r7, #12]
 2203 0008 0B46     		mov	r3, r1
 2204 000a 7A60     		str	r2, [r7, #4]
 2205 000c 7B81     		strh	r3, [r7, #10]	@ movhi
1501:C:\Micrium\Software\uCOS-III\Source\os_task.c ****     OS_SEM_CTR  ctr;
1502:C:\Micrium\Software\uCOS-III\Source\os_task.c ****     CPU_TS      ts;
1503:C:\Micrium\Software\uCOS-III\Source\os_task.c **** 
1504:C:\Micrium\Software\uCOS-III\Source\os_task.c **** 
1505:C:\Micrium\Software\uCOS-III\Source\os_task.c **** 
1506:C:\Micrium\Software\uCOS-III\Source\os_task.c **** #ifdef OS_SAFETY_CRITICAL
1507:C:\Micrium\Software\uCOS-III\Source\os_task.c ****     if (p_err == (OS_ERR *)0) {
1508:C:\Micrium\Software\uCOS-III\Source\os_task.c ****         OS_SAFETY_CRITICAL_EXCEPTION();
1509:C:\Micrium\Software\uCOS-III\Source\os_task.c ****         return ((OS_SEM_CTR)0);
1510:C:\Micrium\Software\uCOS-III\Source\os_task.c ****     }
1511:C:\Micrium\Software\uCOS-III\Source\os_task.c **** #endif
1512:C:\Micrium\Software\uCOS-III\Source\os_task.c **** 
1513:C:\Micrium\Software\uCOS-III\Source\os_task.c **** #if OS_CFG_ARG_CHK_EN > 0u
1514:C:\Micrium\Software\uCOS-III\Source\os_task.c ****     switch (opt) {                                          /* Validate 'opt'                      
 2206              		.loc 1 1514 0
 2207 000e 7B89     		ldrh	r3, [r7, #10]
 2208 0010 002B     		cmp	r3, #0
 2209 0012 02D0     		beq	.L160
 2210 0014 B3F5004F 		cmp	r3, #32768
 2211 0018 0ED1     		bne	.L163
 2212              	.L160:
1515:C:\Micrium\Software\uCOS-III\Source\os_task.c ****         case OS_OPT_POST_NONE:
1516:C:\Micrium\Software\uCOS-III\Source\os_task.c ****         case OS_OPT_POST_NO_SCHED:
1517:C:\Micrium\Software\uCOS-III\Source\os_task.c ****              break;
1518:C:\Micrium\Software\uCOS-III\Source\os_task.c **** 
1519:C:\Micrium\Software\uCOS-III\Source\os_task.c ****         default:
1520:C:\Micrium\Software\uCOS-III\Source\os_task.c ****             *p_err =  OS_ERR_OPT_INVALID;
1521:C:\Micrium\Software\uCOS-III\Source\os_task.c ****              return ((OS_SEM_CTR)0u);
1522:C:\Micrium\Software\uCOS-III\Source\os_task.c ****     }
1523:C:\Micrium\Software\uCOS-III\Source\os_task.c **** #endif
1524:C:\Micrium\Software\uCOS-III\Source\os_task.c **** 
1525:C:\Micrium\Software\uCOS-III\Source\os_task.c ****     ts = OS_TS_GET();                                       /* Get timestamp                       
 2213              		.loc 1 1525 0
 2214 001a FFF7FEFF 		bl	CPU_TS_TmrRd
 2215 001e 0346     		mov	r3, r0
 2216 0020 7B61     		str	r3, [r7, #20]
1526:C:\Micrium\Software\uCOS-III\Source\os_task.c **** 
1527:C:\Micrium\Software\uCOS-III\Source\os_task.c **** #if OS_CFG_ISR_POST_DEFERRED_EN > 0u
1528:C:\Micrium\Software\uCOS-III\Source\os_task.c ****     if (OSIntNestingCtr > (OS_NESTING_CTR)0) {              /* See if called from an ISR           
1529:C:\Micrium\Software\uCOS-III\Source\os_task.c ****         OS_IntQPost((OS_OBJ_TYPE)OS_OBJ_TYPE_TASK_SIGNAL,   /* Post to ISR queue                   
1530:C:\Micrium\Software\uCOS-III\Source\os_task.c ****                     (void      *)p_tcb,
1531:C:\Micrium\Software\uCOS-III\Source\os_task.c ****                     (void      *)0,
1532:C:\Micrium\Software\uCOS-III\Source\os_task.c ****                     (OS_MSG_SIZE)0,
1533:C:\Micrium\Software\uCOS-III\Source\os_task.c ****                     (OS_FLAGS   )0,
1534:C:\Micrium\Software\uCOS-III\Source\os_task.c ****                     (OS_OPT     )0,
1535:C:\Micrium\Software\uCOS-III\Source\os_task.c ****                     (CPU_TS     )ts,
1536:C:\Micrium\Software\uCOS-III\Source\os_task.c ****                     (OS_ERR    *)p_err);
1537:C:\Micrium\Software\uCOS-III\Source\os_task.c ****         return ((OS_SEM_CTR)0);
1538:C:\Micrium\Software\uCOS-III\Source\os_task.c ****     }
1539:C:\Micrium\Software\uCOS-III\Source\os_task.c **** #endif
1540:C:\Micrium\Software\uCOS-III\Source\os_task.c **** 
1541:C:\Micrium\Software\uCOS-III\Source\os_task.c ****     ctr = OS_TaskSemPost(p_tcb,
 2217              		.loc 1 1541 0
ARM GAS  C:\Users\daniel01\AppData\Local\Temp\ccb5Ykxv.s 			page 67


 2218 0022 7B89     		ldrh	r3, [r7, #10]
 2219 0024 F868     		ldr	r0, [r7, #12]
 2220 0026 1946     		mov	r1, r3
 2221 0028 7A69     		ldr	r2, [r7, #20]
 2222 002a 7B68     		ldr	r3, [r7, #4]
 2223 002c FFF7FEFF 		bl	OS_TaskSemPost
 2224 0030 0346     		mov	r3, r0
 2225 0032 3B61     		str	r3, [r7, #16]
1542:C:\Micrium\Software\uCOS-III\Source\os_task.c ****                          opt,
1543:C:\Micrium\Software\uCOS-III\Source\os_task.c ****                          ts,
1544:C:\Micrium\Software\uCOS-III\Source\os_task.c ****                          p_err);
1545:C:\Micrium\Software\uCOS-III\Source\os_task.c **** 
1546:C:\Micrium\Software\uCOS-III\Source\os_task.c ****     return (ctr);
 2226              		.loc 1 1546 0
 2227 0034 3B69     		ldr	r3, [r7, #16]
 2228 0036 05E0     		b	.L161
 2229              	.L163:
 2230              		.loc 1 1520 0
 2231 0038 7B68     		ldr	r3, [r7, #4]
 2232 003a 45F62562 		movw	r2, #24101
 2233 003e 1A80     		strh	r2, [r3, #0]	@ movhi
 2234              		.loc 1 1521 0
 2235 0040 4FF00003 		mov	r3, #0
 2236              	.L161:
1547:C:\Micrium\Software\uCOS-III\Source\os_task.c **** }
 2237              		.loc 1 1547 0
 2238 0044 1846     		mov	r0, r3
 2239 0046 07F11807 		add	r7, r7, #24
 2240 004a BD46     		mov	sp, r7
 2241 004c 80BD     		pop	{r7, pc}
 2242              		.cfi_endproc
 2243              	.LFE13:
 2244              		.size	OSTaskSemPost, .-OSTaskSemPost
 2245 004e 00BF     		.section	.text.OSTaskSemSet,"ax",%progbits
 2246              		.align	2
 2247              		.global	OSTaskSemSet
 2248              		.thumb
 2249              		.thumb_func
 2250              		.type	OSTaskSemSet, %function
 2251              	OSTaskSemSet:
 2252              	.LFB14:
1548:C:\Micrium\Software\uCOS-III\Source\os_task.c **** 
1549:C:\Micrium\Software\uCOS-III\Source\os_task.c **** /*$PAGE*/
1550:C:\Micrium\Software\uCOS-III\Source\os_task.c **** /*
1551:C:\Micrium\Software\uCOS-III\Source\os_task.c **** ***************************************************************************************************
1552:C:\Micrium\Software\uCOS-III\Source\os_task.c **** *                                            SET THE SIGNAL COUNTER OF A TASK
1553:C:\Micrium\Software\uCOS-III\Source\os_task.c **** *
1554:C:\Micrium\Software\uCOS-III\Source\os_task.c **** * Description: This function is called to clear the signal counter
1555:C:\Micrium\Software\uCOS-III\Source\os_task.c **** *
1556:C:\Micrium\Software\uCOS-III\Source\os_task.c **** * Arguments  : p_tcb      is the pointer to the TCB of the task to clear the counter.  If you speci
1557:C:\Micrium\Software\uCOS-III\Source\os_task.c **** *                         then the signal counter of the current task will be cleared.
1558:C:\Micrium\Software\uCOS-III\Source\os_task.c **** *
1559:C:\Micrium\Software\uCOS-III\Source\os_task.c **** *              cnt        is the desired value of the semaphore counter
1560:C:\Micrium\Software\uCOS-III\Source\os_task.c **** *
1561:C:\Micrium\Software\uCOS-III\Source\os_task.c **** *              p_err      is a pointer to an error code returned by this function
1562:C:\Micrium\Software\uCOS-III\Source\os_task.c **** *
1563:C:\Micrium\Software\uCOS-III\Source\os_task.c **** *                             OS_ERR_NONE        if the signal counter of the requested task is cle
ARM GAS  C:\Users\daniel01\AppData\Local\Temp\ccb5Ykxv.s 			page 68


1564:C:\Micrium\Software\uCOS-III\Source\os_task.c **** *                             OS_ERR_SET_ISR     if the function was called from an ISR
1565:C:\Micrium\Software\uCOS-III\Source\os_task.c **** *
1566:C:\Micrium\Software\uCOS-III\Source\os_task.c **** * Returns    : none
1567:C:\Micrium\Software\uCOS-III\Source\os_task.c **** ***************************************************************************************************
1568:C:\Micrium\Software\uCOS-III\Source\os_task.c **** */
1569:C:\Micrium\Software\uCOS-III\Source\os_task.c **** 
1570:C:\Micrium\Software\uCOS-III\Source\os_task.c **** OS_SEM_CTR  OSTaskSemSet (OS_TCB      *p_tcb,
1571:C:\Micrium\Software\uCOS-III\Source\os_task.c ****                           OS_SEM_CTR   cnt,
1572:C:\Micrium\Software\uCOS-III\Source\os_task.c ****                           OS_ERR      *p_err)
1573:C:\Micrium\Software\uCOS-III\Source\os_task.c **** {
 2253              		.loc 1 1573 0
 2254              		.cfi_startproc
 2255              		@ args = 0, pretend = 0, frame = 24
 2256              		@ frame_needed = 1, uses_anonymous_args = 0
 2257 0000 80B5     		push	{r7, lr}
 2258              	.LCFI42:
 2259              		.cfi_def_cfa_offset 8
 2260 0002 86B0     		sub	sp, sp, #24
 2261              	.LCFI43:
 2262              		.cfi_def_cfa_offset 32
 2263 0004 00AF     		add	r7, sp, #0
 2264              		.cfi_offset 14, -4
 2265              		.cfi_offset 7, -8
 2266              	.LCFI44:
 2267              		.cfi_def_cfa_register 7
 2268 0006 F860     		str	r0, [r7, #12]
 2269 0008 B960     		str	r1, [r7, #8]
 2270 000a 7A60     		str	r2, [r7, #4]
1574:C:\Micrium\Software\uCOS-III\Source\os_task.c ****     OS_SEM_CTR  ctr;
1575:C:\Micrium\Software\uCOS-III\Source\os_task.c ****     CPU_SR_ALLOC();
 2271              		.loc 1 1575 0
 2272 000c 4FF00003 		mov	r3, #0
 2273 0010 7B61     		str	r3, [r7, #20]
1576:C:\Micrium\Software\uCOS-III\Source\os_task.c **** 
1577:C:\Micrium\Software\uCOS-III\Source\os_task.c **** 
1578:C:\Micrium\Software\uCOS-III\Source\os_task.c **** 
1579:C:\Micrium\Software\uCOS-III\Source\os_task.c **** #ifdef OS_SAFETY_CRITICAL
1580:C:\Micrium\Software\uCOS-III\Source\os_task.c ****     if (p_err == (OS_ERR *)0) {
1581:C:\Micrium\Software\uCOS-III\Source\os_task.c ****         OS_SAFETY_CRITICAL_EXCEPTION();
1582:C:\Micrium\Software\uCOS-III\Source\os_task.c ****         return ((OS_SEM_CTR)0);
1583:C:\Micrium\Software\uCOS-III\Source\os_task.c ****     }
1584:C:\Micrium\Software\uCOS-III\Source\os_task.c **** #endif
1585:C:\Micrium\Software\uCOS-III\Source\os_task.c **** 
1586:C:\Micrium\Software\uCOS-III\Source\os_task.c **** #if OS_CFG_CALLED_FROM_ISR_CHK_EN > 0u
1587:C:\Micrium\Software\uCOS-III\Source\os_task.c ****     if (OSIntNestingCtr > (OS_NESTING_CTR)0) {              /* Not allowed to call from an ISR     
 2274              		.loc 1 1587 0
 2275 0012 40F20003 		movw	r3, #:lower16:OSIntNestingCtr
 2276 0016 C0F20003 		movt	r3, #:upper16:OSIntNestingCtr
 2277 001a 1B78     		ldrb	r3, [r3, #0]	@ zero_extendqisi2
 2278 001c 002B     		cmp	r3, #0
 2279 001e 06D0     		beq	.L165
1588:C:\Micrium\Software\uCOS-III\Source\os_task.c ****        *p_err = OS_ERR_SET_ISR;
 2280              		.loc 1 1588 0
 2281 0020 7B68     		ldr	r3, [r7, #4]
 2282 0022 46F6C652 		movw	r2, #28102
 2283 0026 1A80     		strh	r2, [r3, #0]	@ movhi
1589:C:\Micrium\Software\uCOS-III\Source\os_task.c ****         return ((OS_SEM_CTR)0);
ARM GAS  C:\Users\daniel01\AppData\Local\Temp\ccb5Ykxv.s 			page 69


 2284              		.loc 1 1589 0
 2285 0028 4FF00003 		mov	r3, #0
 2286 002c 1AE0     		b	.L166
 2287              	.L165:
1590:C:\Micrium\Software\uCOS-III\Source\os_task.c ****     }
1591:C:\Micrium\Software\uCOS-III\Source\os_task.c **** #endif
1592:C:\Micrium\Software\uCOS-III\Source\os_task.c **** 
1593:C:\Micrium\Software\uCOS-III\Source\os_task.c ****     CPU_CRITICAL_ENTER();
 2288              		.loc 1 1593 0
 2289 002e FFF7FEFF 		bl	CPU_SR_Save
 2290 0032 0346     		mov	r3, r0
 2291 0034 7B61     		str	r3, [r7, #20]
1594:C:\Micrium\Software\uCOS-III\Source\os_task.c ****     if (p_tcb == (OS_TCB *)0) {
 2292              		.loc 1 1594 0
 2293 0036 FB68     		ldr	r3, [r7, #12]
 2294 0038 002B     		cmp	r3, #0
 2295 003a 05D1     		bne	.L167
1595:C:\Micrium\Software\uCOS-III\Source\os_task.c ****         p_tcb = OSTCBCurPtr;
 2296              		.loc 1 1595 0
 2297 003c 40F20003 		movw	r3, #:lower16:OSTCBCurPtr
 2298 0040 C0F20003 		movt	r3, #:upper16:OSTCBCurPtr
 2299 0044 1B68     		ldr	r3, [r3, #0]
 2300 0046 FB60     		str	r3, [r7, #12]
 2301              	.L167:
1596:C:\Micrium\Software\uCOS-III\Source\os_task.c ****     }
1597:C:\Micrium\Software\uCOS-III\Source\os_task.c ****     ctr           = p_tcb->SemCtr;
 2302              		.loc 1 1597 0
 2303 0048 FB68     		ldr	r3, [r7, #12]
 2304 004a 5B6C     		ldr	r3, [r3, #68]
 2305 004c 3B61     		str	r3, [r7, #16]
1598:C:\Micrium\Software\uCOS-III\Source\os_task.c ****     p_tcb->SemCtr = (OS_SEM_CTR)cnt;
 2306              		.loc 1 1598 0
 2307 004e FB68     		ldr	r3, [r7, #12]
 2308 0050 BA68     		ldr	r2, [r7, #8]
 2309 0052 5A64     		str	r2, [r3, #68]
1599:C:\Micrium\Software\uCOS-III\Source\os_task.c ****     CPU_CRITICAL_EXIT();
 2310              		.loc 1 1599 0
 2311 0054 7869     		ldr	r0, [r7, #20]
 2312 0056 FFF7FEFF 		bl	CPU_SR_Restore
1600:C:\Micrium\Software\uCOS-III\Source\os_task.c ****    *p_err         =  OS_ERR_NONE;
 2313              		.loc 1 1600 0
 2314 005a 7B68     		ldr	r3, [r7, #4]
 2315 005c 4FF00002 		mov	r2, #0
 2316 0060 1A80     		strh	r2, [r3, #0]	@ movhi
1601:C:\Micrium\Software\uCOS-III\Source\os_task.c ****     return (ctr);
 2317              		.loc 1 1601 0
 2318 0062 3B69     		ldr	r3, [r7, #16]
 2319              	.L166:
1602:C:\Micrium\Software\uCOS-III\Source\os_task.c **** }
 2320              		.loc 1 1602 0
 2321 0064 1846     		mov	r0, r3
 2322 0066 07F11807 		add	r7, r7, #24
 2323 006a BD46     		mov	sp, r7
 2324 006c 80BD     		pop	{r7, pc}
 2325              		.cfi_endproc
 2326              	.LFE14:
 2327              		.size	OSTaskSemSet, .-OSTaskSemSet
ARM GAS  C:\Users\daniel01\AppData\Local\Temp\ccb5Ykxv.s 			page 70


 2328 006e 00BF     		.section	.text.OSTaskStkChk,"ax",%progbits
 2329              		.align	2
 2330              		.global	OSTaskStkChk
 2331              		.thumb
 2332              		.thumb_func
 2333              		.type	OSTaskStkChk, %function
 2334              	OSTaskStkChk:
 2335              	.LFB15:
1603:C:\Micrium\Software\uCOS-III\Source\os_task.c **** 
1604:C:\Micrium\Software\uCOS-III\Source\os_task.c **** /*$PAGE*/
1605:C:\Micrium\Software\uCOS-III\Source\os_task.c **** /*
1606:C:\Micrium\Software\uCOS-III\Source\os_task.c **** ***************************************************************************************************
1607:C:\Micrium\Software\uCOS-III\Source\os_task.c **** *                                                    STACK CHECKING
1608:C:\Micrium\Software\uCOS-III\Source\os_task.c **** *
1609:C:\Micrium\Software\uCOS-III\Source\os_task.c **** * Description: This function is called to calculate the amount of free memory left on the specified
1610:C:\Micrium\Software\uCOS-III\Source\os_task.c **** *
1611:C:\Micrium\Software\uCOS-III\Source\os_task.c **** * Arguments  : p_tcb       is a pointer to the TCB of the task to check.  If you specify a NULL poi
1612:C:\Micrium\Software\uCOS-III\Source\os_task.c **** *                          you are specifying that you want to check the stack of the current task.
1613:C:\Micrium\Software\uCOS-III\Source\os_task.c **** *
1614:C:\Micrium\Software\uCOS-III\Source\os_task.c **** *              p_free      is a pointer to a variable that will receive the number of free 'entries
1615:C:\Micrium\Software\uCOS-III\Source\os_task.c **** *
1616:C:\Micrium\Software\uCOS-III\Source\os_task.c **** *              p_used      is a pointer to a variable that will receive the number of used 'entries
1617:C:\Micrium\Software\uCOS-III\Source\os_task.c **** *
1618:C:\Micrium\Software\uCOS-III\Source\os_task.c **** *              p_err       is a pointer to a variable that will contain an error code.
1619:C:\Micrium\Software\uCOS-III\Source\os_task.c **** *
