ARM GAS  C:\Users\daniel01\AppData\Local\Temp\cc9F0FW5.s 			page 1


   1              		.syntax unified
   2              		.cpu cortex-m3
   3              		.fpu softvfp
   4              		.eabi_attribute 20, 1
   5              		.eabi_attribute 21, 1
   6              		.eabi_attribute 23, 3
   7              		.eabi_attribute 24, 1
   8              		.eabi_attribute 25, 1
   9              		.eabi_attribute 26, 1
  10              		.eabi_attribute 30, 6
  11              		.eabi_attribute 18, 4
  12              		.thumb
  13              		.file	"os_time.c"
  20 0000 F2010000 		.text
  20      0200D600 
  20      00000201 
  20      FB0E0D00 
  20      01010101 
  21              	.Ltext0:
  22              		.cfi_sections	.debug_frame
  23              		.section	.text.OSTimeDly,"ax",%progbits
  24              		.align	2
  25              		.global	OSTimeDly
  26              		.thumb
  27              		.thumb_func
  28              		.type	OSTimeDly, %function
  29              	OSTimeDly:
  30              	.LFB0:
  31              		.file 1 "C:\\Micrium\\Software\\uCOS-III\\Source\\os_time.c"
   1:C:\Micrium\Software\uCOS-III\Source\os_time.c **** /*
   2:C:\Micrium\Software\uCOS-III\Source\os_time.c **** ***************************************************************************************************
   3:C:\Micrium\Software\uCOS-III\Source\os_time.c **** *                                                      uC/OS-III
   4:C:\Micrium\Software\uCOS-III\Source\os_time.c **** *                                                 The Real-Time Kernel
   5:C:\Micrium\Software\uCOS-III\Source\os_time.c **** *
   6:C:\Micrium\Software\uCOS-III\Source\os_time.c **** *                                  (c) Copyright 2009-2012; Micrium, Inc.; Weston, FL
   7:C:\Micrium\Software\uCOS-III\Source\os_time.c **** *                           All rights reserved.  Protected by international copyright laws.
   8:C:\Micrium\Software\uCOS-III\Source\os_time.c **** *
   9:C:\Micrium\Software\uCOS-III\Source\os_time.c **** *                                                   TIME MANAGEMENT
  10:C:\Micrium\Software\uCOS-III\Source\os_time.c **** *
  11:C:\Micrium\Software\uCOS-III\Source\os_time.c **** * File    : OS_TIME.C
  12:C:\Micrium\Software\uCOS-III\Source\os_time.c **** * By      : JJL
  13:C:\Micrium\Software\uCOS-III\Source\os_time.c **** * Version : V3.03.01
  14:C:\Micrium\Software\uCOS-III\Source\os_time.c **** *
  15:C:\Micrium\Software\uCOS-III\Source\os_time.c **** * LICENSING TERMS:
  16:C:\Micrium\Software\uCOS-III\Source\os_time.c **** * ---------------
  17:C:\Micrium\Software\uCOS-III\Source\os_time.c **** *           uC/OS-III is provided in source form for FREE short-term evaluation, for educational us
  18:C:\Micrium\Software\uCOS-III\Source\os_time.c **** *           for peaceful research.  If you plan or intend to use uC/OS-III in a commercial applicat
  19:C:\Micrium\Software\uCOS-III\Source\os_time.c **** *           product then, you need to contact Micrium to properly license uC/OS-III for its use in 
  20:C:\Micrium\Software\uCOS-III\Source\os_time.c **** *           application/product.   We provide ALL the source code for your convenience and to help 
  21:C:\Micrium\Software\uCOS-III\Source\os_time.c **** *           experience uC/OS-III.  The fact that the source is provided does NOT mean that you can 
  22:C:\Micrium\Software\uCOS-III\Source\os_time.c **** *           it commercially without paying a licensing fee.
ARM GAS  C:\Users\daniel01\AppData\Local\Temp\cc9F0FW5.s 			page 2


  23:C:\Micrium\Software\uCOS-III\Source\os_time.c **** *
  24:C:\Micrium\Software\uCOS-III\Source\os_time.c **** *           Knowledge of the source code may NOT be used to develop a similar product.
  25:C:\Micrium\Software\uCOS-III\Source\os_time.c **** *
  26:C:\Micrium\Software\uCOS-III\Source\os_time.c **** *           Please help us continue to provide the embedded community with the finest software avai
  27:C:\Micrium\Software\uCOS-III\Source\os_time.c **** *           Your honesty is greatly appreciated.
  28:C:\Micrium\Software\uCOS-III\Source\os_time.c **** *
  29:C:\Micrium\Software\uCOS-III\Source\os_time.c **** *           You can contact us at www.micrium.com, or by phone at +1 (954) 217-2036.
  30:C:\Micrium\Software\uCOS-III\Source\os_time.c **** ***************************************************************************************************
  31:C:\Micrium\Software\uCOS-III\Source\os_time.c **** */
  32:C:\Micrium\Software\uCOS-III\Source\os_time.c **** 
  33:C:\Micrium\Software\uCOS-III\Source\os_time.c **** #define  MICRIUM_SOURCE
  34:C:\Micrium\Software\uCOS-III\Source\os_time.c **** #include <os.h>
  35:C:\Micrium\Software\uCOS-III\Source\os_time.c **** 
  36:C:\Micrium\Software\uCOS-III\Source\os_time.c **** #ifdef VSC_INCLUDE_SOURCE_FILE_NAMES
  37:C:\Micrium\Software\uCOS-III\Source\os_time.c **** const  CPU_CHAR  *os_time__c = "$Id: $";
  38:C:\Micrium\Software\uCOS-III\Source\os_time.c **** #endif
  39:C:\Micrium\Software\uCOS-III\Source\os_time.c **** 
  40:C:\Micrium\Software\uCOS-III\Source\os_time.c **** /*
  41:C:\Micrium\Software\uCOS-III\Source\os_time.c **** ***************************************************************************************************
  42:C:\Micrium\Software\uCOS-III\Source\os_time.c **** *                                                  DELAY TASK 'n' TICKS
  43:C:\Micrium\Software\uCOS-III\Source\os_time.c **** *
  44:C:\Micrium\Software\uCOS-III\Source\os_time.c **** * Description: This function is called to delay execution of the currently running task until the s
  45:C:\Micrium\Software\uCOS-III\Source\os_time.c **** *              system ticks expires.  This, of course, directly equates to delaying the current tas
  46:C:\Micrium\Software\uCOS-III\Source\os_time.c **** *              expire.  No delay will result if the specified delay is 0.  If the specified delay i
  47:C:\Micrium\Software\uCOS-III\Source\os_time.c **** *              then, a context switch will result.
  48:C:\Micrium\Software\uCOS-III\Source\os_time.c **** *
  49:C:\Micrium\Software\uCOS-III\Source\os_time.c **** * Arguments  : dly       is a value in 'clock ticks' that the task will either delay for or, the ta
  50:C:\Micrium\Software\uCOS-III\Source\os_time.c **** *                        of the tick counter (OSTickCtr).  Note that specifying 0 means the task is
  51:C:\Micrium\Software\uCOS-III\Source\os_time.c **** *
  52:C:\Micrium\Software\uCOS-III\Source\os_time.c **** *                        depending on the option argument, the task will wake up when OSTickCtr rea
  53:C:\Micrium\Software\uCOS-III\Source\os_time.c **** *
  54:C:\Micrium\Software\uCOS-III\Source\os_time.c **** *                            OS_OPT_TIME_DLY      : OSTickCtr + dly
  55:C:\Micrium\Software\uCOS-III\Source\os_time.c **** *                            OS_OPT_TIME_TIMEOUT  : OSTickCtr + dly
  56:C:\Micrium\Software\uCOS-III\Source\os_time.c **** *                            OS_OPT_TIME_MATCH    : dly
  57:C:\Micrium\Software\uCOS-III\Source\os_time.c **** *                            OS_OPT_TIME_PERIODIC : OSTCBCurPtr->TickCtrPrev + dly
  58:C:\Micrium\Software\uCOS-III\Source\os_time.c **** *
  59:C:\Micrium\Software\uCOS-III\Source\os_time.c **** *              opt       specifies whether 'dly' represents absolute or relative time; default opti
  60:C:\Micrium\Software\uCOS-III\Source\os_time.c **** *
  61:C:\Micrium\Software\uCOS-III\Source\os_time.c **** *                        *** OS_OPT_TIME_DLY        specifies a relative time from the current valu
  62:C:\Micrium\Software\uCOS-III\Source\os_time.c **** *                            OS_OPT_TIME_TIMEOUT    same as OS_OPT_TIME_DLY.
  63:C:\Micrium\Software\uCOS-III\Source\os_time.c **** *                            OS_OPT_TIME_MATCH      indicates that 'dly' specifies the absolute val
  64:C:\Micrium\Software\uCOS-III\Source\os_time.c **** *                                                   must reach before the task will be resumed.
  65:C:\Micrium\Software\uCOS-III\Source\os_time.c **** *                            OS_OPT_TIME_PERIODIC   indicates that 'dly' specifies the periodic val
  66:C:\Micrium\Software\uCOS-III\Source\os_time.c **** *                                                   must reach before the task will be resumed.
  67:C:\Micrium\Software\uCOS-III\Source\os_time.c **** *
  68:C:\Micrium\Software\uCOS-III\Source\os_time.c **** *              p_err     is a pointer to a variable that will contain an error code from this call.
  69:C:\Micrium\Software\uCOS-III\Source\os_time.c **** *
  70:C:\Micrium\Software\uCOS-III\Source\os_time.c **** *                            OS_ERR_NONE            the call was successful and the delay occurred.
  71:C:\Micrium\Software\uCOS-III\Source\os_time.c **** *                            OS_ERR_OPT_INVALID     if you specified an invalid option for this fun
  72:C:\Micrium\Software\uCOS-III\Source\os_time.c **** *                            OS_ERR_SCHED_LOCKED    can't delay when the scheduler is locked.
  73:C:\Micrium\Software\uCOS-III\Source\os_time.c **** *                            OS_ERR_TIME_DLY_ISR    if you called this function from an ISR.
  74:C:\Micrium\Software\uCOS-III\Source\os_time.c **** *                            OS_ERR_TIME_ZERO_DLY   if you specified a delay of zero.
  75:C:\Micrium\Software\uCOS-III\Source\os_time.c **** *
  76:C:\Micrium\Software\uCOS-III\Source\os_time.c **** * Returns    : none
  77:C:\Micrium\Software\uCOS-III\Source\os_time.c **** ***************************************************************************************************
  78:C:\Micrium\Software\uCOS-III\Source\os_time.c **** */
  79:C:\Micrium\Software\uCOS-III\Source\os_time.c **** 
ARM GAS  C:\Users\daniel01\AppData\Local\Temp\cc9F0FW5.s 			page 3


  80:C:\Micrium\Software\uCOS-III\Source\os_time.c **** void  OSTimeDly (OS_TICK   dly,
  81:C:\Micrium\Software\uCOS-III\Source\os_time.c ****                  OS_OPT    opt,
  82:C:\Micrium\Software\uCOS-III\Source\os_time.c ****                  OS_ERR   *p_err)
  83:C:\Micrium\Software\uCOS-III\Source\os_time.c **** {
  32              		.loc 1 83 0
  33              		.cfi_startproc
  34              		@ args = 0, pretend = 0, frame = 24
  35              		@ frame_needed = 1, uses_anonymous_args = 0
  36 0000 80B5     		push	{r7, lr}
  37              	.LCFI0:
  38              		.cfi_def_cfa_offset 8
  39 0002 86B0     		sub	sp, sp, #24
  40              	.LCFI1:
  41              		.cfi_def_cfa_offset 32
  42 0004 00AF     		add	r7, sp, #0
  43              		.cfi_offset 14, -4
  44              		.cfi_offset 7, -8
  45              	.LCFI2:
  46              		.cfi_def_cfa_register 7
  47 0006 F860     		str	r0, [r7, #12]
  48 0008 0B46     		mov	r3, r1
  49 000a 7A60     		str	r2, [r7, #4]
  50 000c 7B81     		strh	r3, [r7, #10]	@ movhi
  84:C:\Micrium\Software\uCOS-III\Source\os_time.c ****     CPU_SR_ALLOC();
  51              		.loc 1 84 0
  52 000e 4FF00003 		mov	r3, #0
  53 0012 7B61     		str	r3, [r7, #20]
  85:C:\Micrium\Software\uCOS-III\Source\os_time.c **** 
  86:C:\Micrium\Software\uCOS-III\Source\os_time.c **** 
  87:C:\Micrium\Software\uCOS-III\Source\os_time.c **** 
  88:C:\Micrium\Software\uCOS-III\Source\os_time.c **** #ifdef OS_SAFETY_CRITICAL
  89:C:\Micrium\Software\uCOS-III\Source\os_time.c ****     if (p_err == (OS_ERR *)0) {
  90:C:\Micrium\Software\uCOS-III\Source\os_time.c ****         OS_SAFETY_CRITICAL_EXCEPTION();
  91:C:\Micrium\Software\uCOS-III\Source\os_time.c ****         return;
  92:C:\Micrium\Software\uCOS-III\Source\os_time.c ****     }
  93:C:\Micrium\Software\uCOS-III\Source\os_time.c **** #endif
  94:C:\Micrium\Software\uCOS-III\Source\os_time.c **** 
  95:C:\Micrium\Software\uCOS-III\Source\os_time.c **** #if OS_CFG_CALLED_FROM_ISR_CHK_EN > 0u
  96:C:\Micrium\Software\uCOS-III\Source\os_time.c ****     if (OSIntNestingCtr > (OS_NESTING_CTR)0u) {             /* Not allowed to call from an ISR     
  54              		.loc 1 96 0
  55 0014 40F20003 		movw	r3, #:lower16:OSIntNestingCtr
  56 0018 C0F20003 		movt	r3, #:upper16:OSIntNestingCtr
  57 001c 1B78     		ldrb	r3, [r3, #0]	@ zero_extendqisi2
  58 001e 002B     		cmp	r3, #0
  59 0020 04D0     		beq	.L2
  97:C:\Micrium\Software\uCOS-III\Source\os_time.c ****        *p_err = OS_ERR_TIME_DLY_ISR;
  60              		.loc 1 97 0
  61 0022 7B68     		ldr	r3, [r7, #4]
  62 0024 47F27522 		movw	r2, #29301
  63 0028 1A80     		strh	r2, [r3, #0]	@ movhi
  98:C:\Micrium\Software\uCOS-III\Source\os_time.c ****         return;
  64              		.loc 1 98 0
  65 002a 65E0     		b	.L12
  66              	.L2:
  99:C:\Micrium\Software\uCOS-III\Source\os_time.c ****     }
 100:C:\Micrium\Software\uCOS-III\Source\os_time.c **** #endif
 101:C:\Micrium\Software\uCOS-III\Source\os_time.c **** 
ARM GAS  C:\Users\daniel01\AppData\Local\Temp\cc9F0FW5.s 			page 4


 102:C:\Micrium\Software\uCOS-III\Source\os_time.c ****     if (OSSchedLockNestingCtr > (OS_NESTING_CTR)0u) {       /* Can't delay when the scheduler is lo
  67              		.loc 1 102 0
  68 002c 40F20003 		movw	r3, #:lower16:OSSchedLockNestingCtr
  69 0030 C0F20003 		movt	r3, #:upper16:OSSchedLockNestingCtr
  70 0034 1B78     		ldrb	r3, [r3, #0]	@ zero_extendqisi2
  71 0036 002B     		cmp	r3, #0
  72 0038 04D0     		beq	.L4
 103:C:\Micrium\Software\uCOS-III\Source\os_time.c ****        *p_err = OS_ERR_SCHED_LOCKED;
  73              		.loc 1 103 0
  74 003a 7B68     		ldr	r3, [r7, #4]
  75 003c 46F66352 		movw	r2, #28003
  76 0040 1A80     		strh	r2, [r3, #0]	@ movhi
 104:C:\Micrium\Software\uCOS-III\Source\os_time.c ****         return;
  77              		.loc 1 104 0
  78 0042 59E0     		b	.L12
  79              	.L4:
 105:C:\Micrium\Software\uCOS-III\Source\os_time.c ****     }
 106:C:\Micrium\Software\uCOS-III\Source\os_time.c **** 
 107:C:\Micrium\Software\uCOS-III\Source\os_time.c ****     switch (opt) {
  80              		.loc 1 107 0
  81 0044 7B89     		ldrh	r3, [r7, #10]
  82 0046 082B     		cmp	r3, #8
  83 0048 1CD8     		bhi	.L5
  84 004a 01A2     		adr	r2, .L8
  85 004c 52F823F0 		ldr	pc, [r2, r3, lsl #2]
  86              		.align	2
  87              	.L8:
  88 0050 75000000 		.word	.L6+1
  89 0054 85000000 		.word	.L5+1
  90 0058 75000000 		.word	.L6+1
  91 005c 85000000 		.word	.L5+1
  92 0060 8F000000 		.word	.L13+1
  93 0064 85000000 		.word	.L5+1
  94 0068 85000000 		.word	.L5+1
  95 006c 85000000 		.word	.L5+1
  96 0070 75000000 		.word	.L6+1
  97              	.L6:
 108:C:\Micrium\Software\uCOS-III\Source\os_time.c ****         case OS_OPT_TIME_DLY:
 109:C:\Micrium\Software\uCOS-III\Source\os_time.c ****         case OS_OPT_TIME_TIMEOUT:
 110:C:\Micrium\Software\uCOS-III\Source\os_time.c ****         case OS_OPT_TIME_PERIODIC:
 111:C:\Micrium\Software\uCOS-III\Source\os_time.c ****              if (dly == (OS_TICK)0u) {                      /* 0 means no delay!                   
  98              		.loc 1 111 0
  99 0074 FB68     		ldr	r3, [r7, #12]
 100 0076 002B     		cmp	r3, #0
 101 0078 0BD1     		bne	.L14
 112:C:\Micrium\Software\uCOS-III\Source\os_time.c ****                 *p_err = OS_ERR_TIME_ZERO_DLY;
 102              		.loc 1 112 0
 103 007a 7B68     		ldr	r3, [r7, #4]
 104 007c 47F27E22 		movw	r2, #29310
 105 0080 1A80     		strh	r2, [r3, #0]	@ movhi
 113:C:\Micrium\Software\uCOS-III\Source\os_time.c ****                  return;
 106              		.loc 1 113 0
 107 0082 39E0     		b	.L12
 108              	.L5:
 114:C:\Micrium\Software\uCOS-III\Source\os_time.c ****              }
 115:C:\Micrium\Software\uCOS-III\Source\os_time.c ****              break;
 116:C:\Micrium\Software\uCOS-III\Source\os_time.c **** 
ARM GAS  C:\Users\daniel01\AppData\Local\Temp\cc9F0FW5.s 			page 5


 117:C:\Micrium\Software\uCOS-III\Source\os_time.c ****         case OS_OPT_TIME_MATCH:
 118:C:\Micrium\Software\uCOS-III\Source\os_time.c ****              break;
 119:C:\Micrium\Software\uCOS-III\Source\os_time.c **** 
 120:C:\Micrium\Software\uCOS-III\Source\os_time.c ****         default:
 121:C:\Micrium\Software\uCOS-III\Source\os_time.c ****             *p_err = OS_ERR_OPT_INVALID;
 109              		.loc 1 121 0
 110 0084 7B68     		ldr	r3, [r7, #4]
 111 0086 45F62562 		movw	r2, #24101
 112 008a 1A80     		strh	r2, [r3, #0]	@ movhi
 122:C:\Micrium\Software\uCOS-III\Source\os_time.c ****              return;
 113              		.loc 1 122 0
 114 008c 34E0     		b	.L12
 115              	.L13:
 116              		.loc 1 118 0
 117 008e 00BF     		nop
 118 0090 00E0     		b	.L10
 119              	.L14:
 120              		.loc 1 115 0
 121 0092 00BF     		nop
 122              	.L10:
 123:C:\Micrium\Software\uCOS-III\Source\os_time.c ****     }
 124:C:\Micrium\Software\uCOS-III\Source\os_time.c **** 
 125:C:\Micrium\Software\uCOS-III\Source\os_time.c ****     OS_CRITICAL_ENTER();
 123              		.loc 1 125 0
 124 0094 FFF7FEFF 		bl	CPU_SR_Save
 125 0098 0346     		mov	r3, r0
 126 009a 7B61     		str	r3, [r7, #20]
 126:C:\Micrium\Software\uCOS-III\Source\os_time.c ****     OSTCBCurPtr->TaskState = OS_TASK_STATE_DLY;
 127              		.loc 1 126 0
 128 009c 40F20003 		movw	r3, #:lower16:OSTCBCurPtr
 129 00a0 C0F20003 		movt	r3, #:upper16:OSTCBCurPtr
 130 00a4 1B68     		ldr	r3, [r3, #0]
 131 00a6 4FF00102 		mov	r2, #1
 132 00aa 83F83620 		strb	r2, [r3, #54]
 127:C:\Micrium\Software\uCOS-III\Source\os_time.c ****     OS_TickListInsert(OSTCBCurPtr,
 133              		.loc 1 127 0
 134 00ae 40F20003 		movw	r3, #:lower16:OSTCBCurPtr
 135 00b2 C0F20003 		movt	r3, #:upper16:OSTCBCurPtr
 136 00b6 1A68     		ldr	r2, [r3, #0]
 137 00b8 7B89     		ldrh	r3, [r7, #10]
 138 00ba 1046     		mov	r0, r2
 139 00bc F968     		ldr	r1, [r7, #12]
 140 00be 1A46     		mov	r2, r3
 141 00c0 7B68     		ldr	r3, [r7, #4]
 142 00c2 FFF7FEFF 		bl	OS_TickListInsert
 128:C:\Micrium\Software\uCOS-III\Source\os_time.c ****                       dly,
 129:C:\Micrium\Software\uCOS-III\Source\os_time.c ****                       opt,
 130:C:\Micrium\Software\uCOS-III\Source\os_time.c ****                       p_err);
 131:C:\Micrium\Software\uCOS-III\Source\os_time.c ****     if (*p_err != OS_ERR_NONE) {
 143              		.loc 1 131 0
 144 00c6 7B68     		ldr	r3, [r7, #4]
 145 00c8 1B88     		ldrh	r3, [r3, #0]
 146 00ca 002B     		cmp	r3, #0
 147 00cc 03D0     		beq	.L11
 132:C:\Micrium\Software\uCOS-III\Source\os_time.c ****          OS_CRITICAL_EXIT_NO_SCHED();
 148              		.loc 1 132 0
 149 00ce 7869     		ldr	r0, [r7, #20]
ARM GAS  C:\Users\daniel01\AppData\Local\Temp\cc9F0FW5.s 			page 6


 150 00d0 FFF7FEFF 		bl	CPU_SR_Restore
 133:C:\Micrium\Software\uCOS-III\Source\os_time.c ****          return;
 151              		.loc 1 133 0
 152 00d4 10E0     		b	.L12
 153              	.L11:
 134:C:\Micrium\Software\uCOS-III\Source\os_time.c ****     }
 135:C:\Micrium\Software\uCOS-III\Source\os_time.c ****     OS_RdyListRemove(OSTCBCurPtr);                          /* Remove current task from ready list 
 154              		.loc 1 135 0
 155 00d6 40F20003 		movw	r3, #:lower16:OSTCBCurPtr
 156 00da C0F20003 		movt	r3, #:upper16:OSTCBCurPtr
 157 00de 1B68     		ldr	r3, [r3, #0]
 158 00e0 1846     		mov	r0, r3
 159 00e2 FFF7FEFF 		bl	OS_RdyListRemove
 136:C:\Micrium\Software\uCOS-III\Source\os_time.c ****     OS_CRITICAL_EXIT_NO_SCHED();
 160              		.loc 1 136 0
 161 00e6 7869     		ldr	r0, [r7, #20]
 162 00e8 FFF7FEFF 		bl	CPU_SR_Restore
 137:C:\Micrium\Software\uCOS-III\Source\os_time.c ****     OSSched();                                              /* Find next task to run!              
 163              		.loc 1 137 0
 164 00ec FFF7FEFF 		bl	OSSched
 138:C:\Micrium\Software\uCOS-III\Source\os_time.c ****    *p_err = OS_ERR_NONE;
 165              		.loc 1 138 0
 166 00f0 7B68     		ldr	r3, [r7, #4]
 167 00f2 4FF00002 		mov	r2, #0
 168 00f6 1A80     		strh	r2, [r3, #0]	@ movhi
 169              	.L12:
 139:C:\Micrium\Software\uCOS-III\Source\os_time.c **** }
 170              		.loc 1 139 0
 171 00f8 07F11807 		add	r7, r7, #24
 172 00fc BD46     		mov	sp, r7
 173 00fe 80BD     		pop	{r7, pc}
 174              		.cfi_endproc
 175              	.LFE0:
 176              		.size	OSTimeDly, .-OSTimeDly
 177              		.section	.text.OSTimeDlyHMSM,"ax",%progbits
 178              		.align	2
 179              		.global	OSTimeDlyHMSM
 180              		.thumb
 181              		.thumb_func
 182              		.type	OSTimeDlyHMSM, %function
 183              	OSTimeDlyHMSM:
 184              	.LFB1:
 140:C:\Micrium\Software\uCOS-III\Source\os_time.c **** 
 141:C:\Micrium\Software\uCOS-III\Source\os_time.c **** /*$PAGE*/
 142:C:\Micrium\Software\uCOS-III\Source\os_time.c **** /*
 143:C:\Micrium\Software\uCOS-III\Source\os_time.c **** ***************************************************************************************************
 144:C:\Micrium\Software\uCOS-III\Source\os_time.c **** *                                             DELAY TASK FOR SPECIFIED TIME
 145:C:\Micrium\Software\uCOS-III\Source\os_time.c **** *
 146:C:\Micrium\Software\uCOS-III\Source\os_time.c **** * Description: This function is called to delay execution of the currently running task until some 
 147:C:\Micrium\Software\uCOS-III\Source\os_time.c **** *              call allows you to specify the delay time in HOURS, MINUTES, SECONDS and MILLISECOND
 148:C:\Micrium\Software\uCOS-III\Source\os_time.c **** *
 149:C:\Micrium\Software\uCOS-III\Source\os_time.c **** * Arguments  : hours     specifies the number of hours that the task will be delayed (max. is 999 i
 150:C:\Micrium\Software\uCOS-III\Source\os_time.c **** *                        1000 Hz or less otherwise, a higher value would overflow a 32-bit unsigned
 151:C:\Micrium\Software\uCOS-III\Source\os_time.c **** *
 152:C:\Micrium\Software\uCOS-III\Source\os_time.c **** *              minutes   specifies the number of minutes (max. 59 if 'opt' is OS_OPT_TIME_HMSM_STRI
 153:C:\Micrium\Software\uCOS-III\Source\os_time.c **** *
 154:C:\Micrium\Software\uCOS-III\Source\os_time.c **** *              seconds   specifies the number of seconds (max. 59 if 'opt' is OS_OPT_TIME_HMSM_STRI
ARM GAS  C:\Users\daniel01\AppData\Local\Temp\cc9F0FW5.s 			page 7


 155:C:\Micrium\Software\uCOS-III\Source\os_time.c **** *
 156:C:\Micrium\Software\uCOS-III\Source\os_time.c **** *              milli     specifies the number of milliseconds (max. 999 if 'opt' is OS_OPT_TIME_HMS
 157:C:\Micrium\Software\uCOS-III\Source\os_time.c **** *
 158:C:\Micrium\Software\uCOS-III\Source\os_time.c **** *              opt       specifies time delay bit-field options logically OR'd; default options mar
 159:C:\Micrium\Software\uCOS-III\Source\os_time.c **** *
 160:C:\Micrium\Software\uCOS-III\Source\os_time.c **** *                        *** OS_OPT_TIME_DLY        specifies a relative time from the current valu
 161:C:\Micrium\Software\uCOS-III\Source\os_time.c **** *                            OS_OPT_TIME_TIMEOUT    same as OS_OPT_TIME_DLY.
 162:C:\Micrium\Software\uCOS-III\Source\os_time.c **** *                            OS_OPT_TIME_MATCH      indicates that the delay specifies the absolute
 163:C:\Micrium\Software\uCOS-III\Source\os_time.c **** *                                                   must reach before the task will be resumed.
 164:C:\Micrium\Software\uCOS-III\Source\os_time.c **** *                            OS_OPT_TIME_PERIODIC   indicates that the delay specifies the periodic
 165:C:\Micrium\Software\uCOS-III\Source\os_time.c **** *                                                   must reach before the task will be resumed.
 166:C:\Micrium\Software\uCOS-III\Source\os_time.c **** *
 167:C:\Micrium\Software\uCOS-III\Source\os_time.c **** *                        *** OS_OPT_TIME_HMSM_STRICT            strictly allow only hours        (0
 168:C:\Micrium\Software\uCOS-III\Source\os_time.c **** *                                                                                   minutes      (0
 169:C:\Micrium\Software\uCOS-III\Source\os_time.c **** *                                                                                   seconds      (0
 170:C:\Micrium\Software\uCOS-III\Source\os_time.c **** *                                                                                   milliseconds (0
 171:C:\Micrium\Software\uCOS-III\Source\os_time.c **** *                            OS_OPT_TIME_HMSM_NON_STRICT        allow any value of  hours        (0
 172:C:\Micrium\Software\uCOS-III\Source\os_time.c **** *                                                                                   minutes      (0
 173:C:\Micrium\Software\uCOS-III\Source\os_time.c **** *                                                                                   seconds      (0
 174:C:\Micrium\Software\uCOS-III\Source\os_time.c **** *                                                                                   milliseconds (0
 175:C:\Micrium\Software\uCOS-III\Source\os_time.c **** *
 176:C:\Micrium\Software\uCOS-III\Source\os_time.c **** *              p_err     is a pointer to a variable that will receive an error code from this call.
 177:C:\Micrium\Software\uCOS-III\Source\os_time.c **** *
 178:C:\Micrium\Software\uCOS-III\Source\os_time.c **** *                            OS_ERR_NONE                        If the function returns from the de
 179:C:\Micrium\Software\uCOS-III\Source\os_time.c **** *                            OS_ERR_OPT_INVALID                 If you specified an invalid option 
 180:C:\Micrium\Software\uCOS-III\Source\os_time.c **** *                            OS_ERR_SCHED_LOCKED                Can't delay when the scheduler is l
 181:C:\Micrium\Software\uCOS-III\Source\os_time.c **** *                            OS_ERR_TIME_DLY_ISR                If called from an ISR
 182:C:\Micrium\Software\uCOS-III\Source\os_time.c **** *                            OS_ERR_TIME_INVALID_HOURS          If you didn't specify a valid value
 183:C:\Micrium\Software\uCOS-III\Source\os_time.c **** *                            OS_ERR_TIME_INVALID_MINUTES        If you didn't specify a valid value
 184:C:\Micrium\Software\uCOS-III\Source\os_time.c **** *                            OS_ERR_TIME_INVALID_SECONDS        If you didn't specify a valid value
 185:C:\Micrium\Software\uCOS-III\Source\os_time.c **** *                            OS_ERR_TIME_INVALID_MILLISECONDS   If you didn't specify a valid value
 186:C:\Micrium\Software\uCOS-III\Source\os_time.c **** *                            OS_ERR_TIME_ZERO_DLY               If hours, minutes, seconds and mill
 187:C:\Micrium\Software\uCOS-III\Source\os_time.c **** *
 188:C:\Micrium\Software\uCOS-III\Source\os_time.c **** * Returns    : none
 189:C:\Micrium\Software\uCOS-III\Source\os_time.c **** *
 190:C:\Micrium\Software\uCOS-III\Source\os_time.c **** * Note(s)    : 1) The resolution on the milliseconds depends on the tick rate.  For example, you ca
 191:C:\Micrium\Software\uCOS-III\Source\os_time.c **** *                 if the ticker interrupts every 100 mS.  In this case, the delay would be set to 0
 192:C:\Micrium\Software\uCOS-III\Source\os_time.c **** *                 is rounded to the nearest tick.
 193:C:\Micrium\Software\uCOS-III\Source\os_time.c **** *
 194:C:\Micrium\Software\uCOS-III\Source\os_time.c **** *              2) Although this function allows you to delay a task for many, many hours, it's not 
 195:C:\Micrium\Software\uCOS-III\Source\os_time.c **** *                 a task to sleep for that long.
 196:C:\Micrium\Software\uCOS-III\Source\os_time.c **** ***************************************************************************************************
 197:C:\Micrium\Software\uCOS-III\Source\os_time.c **** */
 198:C:\Micrium\Software\uCOS-III\Source\os_time.c **** 
 199:C:\Micrium\Software\uCOS-III\Source\os_time.c **** #if OS_CFG_TIME_DLY_HMSM_EN > 0u
 200:C:\Micrium\Software\uCOS-III\Source\os_time.c **** void  OSTimeDlyHMSM (CPU_INT16U   hours,
 201:C:\Micrium\Software\uCOS-III\Source\os_time.c ****                      CPU_INT16U   minutes,
 202:C:\Micrium\Software\uCOS-III\Source\os_time.c ****                      CPU_INT16U   seconds,
 203:C:\Micrium\Software\uCOS-III\Source\os_time.c ****                      CPU_INT32U   milli,
 204:C:\Micrium\Software\uCOS-III\Source\os_time.c ****                      OS_OPT       opt,
 205:C:\Micrium\Software\uCOS-III\Source\os_time.c ****                      OS_ERR      *p_err)
 206:C:\Micrium\Software\uCOS-III\Source\os_time.c **** {
 185              		.loc 1 206 0
 186              		.cfi_startproc
 187              		@ args = 8, pretend = 0, frame = 32
 188              		@ frame_needed = 1, uses_anonymous_args = 0
 189 0000 80B5     		push	{r7, lr}
ARM GAS  C:\Users\daniel01\AppData\Local\Temp\cc9F0FW5.s 			page 8


 190              	.LCFI3:
 191              		.cfi_def_cfa_offset 8
 192 0002 88B0     		sub	sp, sp, #32
 193              	.LCFI4:
 194              		.cfi_def_cfa_offset 40
 195 0004 00AF     		add	r7, sp, #0
 196              		.cfi_offset 14, -4
 197              		.cfi_offset 7, -8
 198              	.LCFI5:
 199              		.cfi_def_cfa_register 7
 200 0006 7B60     		str	r3, [r7, #4]
 201 0008 0346     		mov	r3, r0	@ movhi
 202 000a FB81     		strh	r3, [r7, #14]	@ movhi
 203 000c 0B46     		mov	r3, r1	@ movhi
 204 000e BB81     		strh	r3, [r7, #12]	@ movhi
 205 0010 1346     		mov	r3, r2	@ movhi
 206 0012 7B81     		strh	r3, [r7, #10]	@ movhi
 207:C:\Micrium\Software\uCOS-III\Source\os_time.c **** #if OS_CFG_ARG_CHK_EN > 0u
 208:C:\Micrium\Software\uCOS-III\Source\os_time.c ****     CPU_BOOLEAN  opt_invalid;
 209:C:\Micrium\Software\uCOS-III\Source\os_time.c ****     CPU_BOOLEAN  opt_non_strict;
 210:C:\Micrium\Software\uCOS-III\Source\os_time.c **** #endif
 211:C:\Micrium\Software\uCOS-III\Source\os_time.c ****     OS_OPT       opt_time;
 212:C:\Micrium\Software\uCOS-III\Source\os_time.c ****     OS_RATE_HZ   tick_rate;
 213:C:\Micrium\Software\uCOS-III\Source\os_time.c ****     OS_TICK      ticks;
 214:C:\Micrium\Software\uCOS-III\Source\os_time.c ****     CPU_SR_ALLOC();
 207              		.loc 1 214 0
 208 0014 4FF00003 		mov	r3, #0
 209 0018 FB61     		str	r3, [r7, #28]
 215:C:\Micrium\Software\uCOS-III\Source\os_time.c **** 
 216:C:\Micrium\Software\uCOS-III\Source\os_time.c **** 
 217:C:\Micrium\Software\uCOS-III\Source\os_time.c **** 
 218:C:\Micrium\Software\uCOS-III\Source\os_time.c **** #ifdef OS_SAFETY_CRITICAL
 219:C:\Micrium\Software\uCOS-III\Source\os_time.c ****     if (p_err == (OS_ERR *)0) {
 220:C:\Micrium\Software\uCOS-III\Source\os_time.c ****         OS_SAFETY_CRITICAL_EXCEPTION();
 221:C:\Micrium\Software\uCOS-III\Source\os_time.c ****         return;
 222:C:\Micrium\Software\uCOS-III\Source\os_time.c ****     }
 223:C:\Micrium\Software\uCOS-III\Source\os_time.c **** #endif
 224:C:\Micrium\Software\uCOS-III\Source\os_time.c **** 
 225:C:\Micrium\Software\uCOS-III\Source\os_time.c **** #if OS_CFG_CALLED_FROM_ISR_CHK_EN > 0u
 226:C:\Micrium\Software\uCOS-III\Source\os_time.c ****     if (OSIntNestingCtr > (OS_NESTING_CTR)0u) {             /* Not allowed to call from an ISR     
 210              		.loc 1 226 0
 211 001a 40F20003 		movw	r3, #:lower16:OSIntNestingCtr
 212 001e C0F20003 		movt	r3, #:upper16:OSIntNestingCtr
 213 0022 1B78     		ldrb	r3, [r3, #0]	@ zero_extendqisi2
 214 0024 002B     		cmp	r3, #0
 215 0026 04D0     		beq	.L16
 227:C:\Micrium\Software\uCOS-III\Source\os_time.c ****        *p_err = OS_ERR_TIME_DLY_ISR;
 216              		.loc 1 227 0
 217 0028 FB6A     		ldr	r3, [r7, #44]
 218 002a 47F27522 		movw	r2, #29301
 219 002e 1A80     		strh	r2, [r3, #0]	@ movhi
 228:C:\Micrium\Software\uCOS-III\Source\os_time.c ****         return;
 220              		.loc 1 228 0
 221 0030 04E1     		b	.L37
 222              	.L16:
 229:C:\Micrium\Software\uCOS-III\Source\os_time.c ****     }
 230:C:\Micrium\Software\uCOS-III\Source\os_time.c **** #endif
ARM GAS  C:\Users\daniel01\AppData\Local\Temp\cc9F0FW5.s 			page 9


 231:C:\Micrium\Software\uCOS-III\Source\os_time.c **** 
 232:C:\Micrium\Software\uCOS-III\Source\os_time.c ****     if (OSSchedLockNestingCtr > (OS_NESTING_CTR)0u) {       /* Can't delay when the scheduler is lo
 223              		.loc 1 232 0
 224 0032 40F20003 		movw	r3, #:lower16:OSSchedLockNestingCtr
 225 0036 C0F20003 		movt	r3, #:upper16:OSSchedLockNestingCtr
 226 003a 1B78     		ldrb	r3, [r3, #0]	@ zero_extendqisi2
 227 003c 002B     		cmp	r3, #0
 228 003e 04D0     		beq	.L18
 233:C:\Micrium\Software\uCOS-III\Source\os_time.c ****        *p_err = OS_ERR_SCHED_LOCKED;
 229              		.loc 1 233 0
 230 0040 FB6A     		ldr	r3, [r7, #44]
 231 0042 46F66352 		movw	r2, #28003
 232 0046 1A80     		strh	r2, [r3, #0]	@ movhi
 234:C:\Micrium\Software\uCOS-III\Source\os_time.c ****         return;
 233              		.loc 1 234 0
 234 0048 F8E0     		b	.L37
 235              	.L18:
 235:C:\Micrium\Software\uCOS-III\Source\os_time.c ****     }
 236:C:\Micrium\Software\uCOS-III\Source\os_time.c **** 
 237:C:\Micrium\Software\uCOS-III\Source\os_time.c ****     opt_time = opt & OS_OPT_TIME_MASK;                      /* Retrieve time options only.         
 236              		.loc 1 237 0
 237 004a 3B8D     		ldrh	r3, [r7, #40]	@ movhi
 238 004c 03F00E03 		and	r3, r3, #14
 239 0050 7B82     		strh	r3, [r7, #18]	@ movhi
 238:C:\Micrium\Software\uCOS-III\Source\os_time.c ****     switch (opt_time) {
 240              		.loc 1 238 0
 241 0052 7B8A     		ldrh	r3, [r7, #18]
 242 0054 082B     		cmp	r3, #8
 243 0056 26D8     		bhi	.L19
 244 0058 01A0     		adr	r0, .L22
 245 005a 50F823F0 		ldr	pc, [r0, r3, lsl #2]
 246 005e 00BF     		.align	2
 247              	.L22:
 248 0060 85000000 		.word	.L20+1
 249 0064 A7000000 		.word	.L19+1
 250 0068 85000000 		.word	.L20+1
 251 006c A7000000 		.word	.L19+1
 252 0070 B1000000 		.word	.L38+1
 253 0074 A7000000 		.word	.L19+1
 254 0078 A7000000 		.word	.L19+1
 255 007c A7000000 		.word	.L19+1
 256 0080 85000000 		.word	.L20+1
 257              	.L20:
 239:C:\Micrium\Software\uCOS-III\Source\os_time.c ****         case OS_OPT_TIME_DLY:
 240:C:\Micrium\Software\uCOS-III\Source\os_time.c ****         case OS_OPT_TIME_TIMEOUT:
 241:C:\Micrium\Software\uCOS-III\Source\os_time.c ****         case OS_OPT_TIME_PERIODIC:
 242:C:\Micrium\Software\uCOS-III\Source\os_time.c ****              if (milli == (CPU_INT32U)0u) {                 /* Make sure we didn't specify a 0 dela
 258              		.loc 1 242 0
 259 0084 7B68     		ldr	r3, [r7, #4]
 260 0086 002B     		cmp	r3, #0
 261 0088 14D1     		bne	.L39
 243:C:\Micrium\Software\uCOS-III\Source\os_time.c ****                  if (seconds == (CPU_INT16U)0u) {
 262              		.loc 1 243 0
 263 008a 7B89     		ldrh	r3, [r7, #10]
 264 008c 002B     		cmp	r3, #0
 265 008e 13D1     		bne	.L40
 244:C:\Micrium\Software\uCOS-III\Source\os_time.c ****                      if (minutes == (CPU_INT16U)0u) {
ARM GAS  C:\Users\daniel01\AppData\Local\Temp\cc9F0FW5.s 			page 10


 266              		.loc 1 244 0
 267 0090 BB89     		ldrh	r3, [r7, #12]
 268 0092 002B     		cmp	r3, #0
 269 0094 12D1     		bne	.L41
 245:C:\Micrium\Software\uCOS-III\Source\os_time.c ****                          if (hours == (CPU_INT16U)0u) {
 270              		.loc 1 245 0
 271 0096 FB89     		ldrh	r3, [r7, #14]
 272 0098 002B     		cmp	r3, #0
 273 009a 11D1     		bne	.L42
 246:C:\Micrium\Software\uCOS-III\Source\os_time.c ****                             *p_err = OS_ERR_TIME_ZERO_DLY;
 274              		.loc 1 246 0
 275 009c FB6A     		ldr	r3, [r7, #44]
 276 009e 47F27E22 		movw	r2, #29310
 277 00a2 1A80     		strh	r2, [r3, #0]	@ movhi
 247:C:\Micrium\Software\uCOS-III\Source\os_time.c ****                              return;
 278              		.loc 1 247 0
 279 00a4 CAE0     		b	.L37
 280              	.L19:
 248:C:\Micrium\Software\uCOS-III\Source\os_time.c ****                          }
 249:C:\Micrium\Software\uCOS-III\Source\os_time.c ****                      }
 250:C:\Micrium\Software\uCOS-III\Source\os_time.c ****                  }
 251:C:\Micrium\Software\uCOS-III\Source\os_time.c ****              }
 252:C:\Micrium\Software\uCOS-III\Source\os_time.c ****              break;
 253:C:\Micrium\Software\uCOS-III\Source\os_time.c **** 
 254:C:\Micrium\Software\uCOS-III\Source\os_time.c ****         case OS_OPT_TIME_MATCH:
 255:C:\Micrium\Software\uCOS-III\Source\os_time.c ****              break;
 256:C:\Micrium\Software\uCOS-III\Source\os_time.c **** 
 257:C:\Micrium\Software\uCOS-III\Source\os_time.c ****         default:
 258:C:\Micrium\Software\uCOS-III\Source\os_time.c ****             *p_err = OS_ERR_OPT_INVALID;
 281              		.loc 1 258 0
 282 00a6 FB6A     		ldr	r3, [r7, #44]
 283 00a8 45F62562 		movw	r2, #24101
 284 00ac 1A80     		strh	r2, [r3, #0]	@ movhi
 259:C:\Micrium\Software\uCOS-III\Source\os_time.c ****              return;
 285              		.loc 1 259 0
 286 00ae C5E0     		b	.L37
 287              	.L38:
 288              		.loc 1 255 0
 289 00b0 00BF     		nop
 290 00b2 06E0     		b	.L24
 291              	.L39:
 292              		.loc 1 252 0
 293 00b4 00BF     		nop
 294 00b6 04E0     		b	.L24
 295              	.L40:
 296 00b8 00BF     		nop
 297 00ba 02E0     		b	.L24
 298              	.L41:
 299 00bc 00BF     		nop
 300 00be 00E0     		b	.L24
 301              	.L42:
 302 00c0 00BF     		nop
 303              	.L24:
 260:C:\Micrium\Software\uCOS-III\Source\os_time.c ****     }
 261:C:\Micrium\Software\uCOS-III\Source\os_time.c **** 
 262:C:\Micrium\Software\uCOS-III\Source\os_time.c **** #if OS_CFG_ARG_CHK_EN > 0u                                  /* Validate arguments to be within rang
 263:C:\Micrium\Software\uCOS-III\Source\os_time.c ****     opt_invalid = DEF_BIT_IS_SET_ANY(opt, ~OS_OPT_TIME_OPTS_MASK);
ARM GAS  C:\Users\daniel01\AppData\Local\Temp\cc9F0FW5.s 			page 11


 304              		.loc 1 263 0
 305 00c2 3B8D     		ldrh	r3, [r7, #40]
 306 00c4 23F01E03 		bic	r3, r3, #30
 307 00c8 002B     		cmp	r3, #0
 308 00ca 0CBF     		ite	eq
 309 00cc 0023     		moveq	r3, #0
 310 00ce 0123     		movne	r3, #1
 311 00d0 3B74     		strb	r3, [r7, #16]
 264:C:\Micrium\Software\uCOS-III\Source\os_time.c ****     if (opt_invalid == DEF_YES) {
 312              		.loc 1 264 0
 313 00d2 3B7C     		ldrb	r3, [r7, #16]	@ zero_extendqisi2
 314 00d4 012B     		cmp	r3, #1
 315 00d6 04D1     		bne	.L25
 265:C:\Micrium\Software\uCOS-III\Source\os_time.c ****        *p_err = OS_ERR_OPT_INVALID;
 316              		.loc 1 265 0
 317 00d8 FB6A     		ldr	r3, [r7, #44]
 318 00da 45F62562 		movw	r2, #24101
 319 00de 1A80     		strh	r2, [r3, #0]	@ movhi
 266:C:\Micrium\Software\uCOS-III\Source\os_time.c ****         return;
 320              		.loc 1 266 0
 321 00e0 ACE0     		b	.L37
 322              	.L25:
 267:C:\Micrium\Software\uCOS-III\Source\os_time.c ****     }
 268:C:\Micrium\Software\uCOS-III\Source\os_time.c **** 
 269:C:\Micrium\Software\uCOS-III\Source\os_time.c ****     opt_non_strict = DEF_BIT_IS_SET(opt, OS_OPT_TIME_HMSM_NON_STRICT);
 323              		.loc 1 269 0
 324 00e2 3B8D     		ldrh	r3, [r7, #40]
 325 00e4 03F01003 		and	r3, r3, #16
 326 00e8 002B     		cmp	r3, #0
 327 00ea 02D0     		beq	.L26
 328 00ec 4FF00103 		mov	r3, #1
 329 00f0 01E0     		b	.L27
 330              	.L26:
 331 00f2 4FF00003 		mov	r3, #0
 332              	.L27:
 333 00f6 7B74     		strb	r3, [r7, #17]
 270:C:\Micrium\Software\uCOS-III\Source\os_time.c ****     if (opt_non_strict != DEF_YES) {
 334              		.loc 1 270 0
 335 00f8 7B7C     		ldrb	r3, [r7, #17]	@ zero_extendqisi2
 336 00fa 012B     		cmp	r3, #1
 337 00fc 21D0     		beq	.L28
 271:C:\Micrium\Software\uCOS-III\Source\os_time.c ****          if (milli   > (CPU_INT32U)999u) {
 338              		.loc 1 271 0
 339 00fe 7A68     		ldr	r2, [r7, #4]
 340 0100 40F2E733 		movw	r3, #999
 341 0104 9A42     		cmp	r2, r3
 342 0106 04D9     		bls	.L29
 272:C:\Micrium\Software\uCOS-III\Source\os_time.c ****             *p_err = OS_ERR_TIME_INVALID_MILLISECONDS;
 343              		.loc 1 272 0
 344 0108 FB6A     		ldr	r3, [r7, #44]
 345 010a 47F27B22 		movw	r2, #29307
 346 010e 1A80     		strh	r2, [r3, #0]	@ movhi
 273:C:\Micrium\Software\uCOS-III\Source\os_time.c ****              return;
 347              		.loc 1 273 0
 348 0110 94E0     		b	.L37
 349              	.L29:
 274:C:\Micrium\Software\uCOS-III\Source\os_time.c ****          }
ARM GAS  C:\Users\daniel01\AppData\Local\Temp\cc9F0FW5.s 			page 12


 275:C:\Micrium\Software\uCOS-III\Source\os_time.c ****          if (seconds > (CPU_INT16U)59u) {
 350              		.loc 1 275 0
 351 0112 7B89     		ldrh	r3, [r7, #10]
 352 0114 3B2B     		cmp	r3, #59
 353 0116 04D9     		bls	.L30
 276:C:\Micrium\Software\uCOS-III\Source\os_time.c ****             *p_err = OS_ERR_TIME_INVALID_SECONDS;
 354              		.loc 1 276 0
 355 0118 FB6A     		ldr	r3, [r7, #44]
 356 011a 47F27A22 		movw	r2, #29306
 357 011e 1A80     		strh	r2, [r3, #0]	@ movhi
 277:C:\Micrium\Software\uCOS-III\Source\os_time.c ****              return;
 358              		.loc 1 277 0
 359 0120 8CE0     		b	.L37
 360              	.L30:
 278:C:\Micrium\Software\uCOS-III\Source\os_time.c ****          }
 279:C:\Micrium\Software\uCOS-III\Source\os_time.c ****          if (minutes > (CPU_INT16U)59u) {
 361              		.loc 1 279 0
 362 0122 BB89     		ldrh	r3, [r7, #12]
 363 0124 3B2B     		cmp	r3, #59
 364 0126 04D9     		bls	.L31
 280:C:\Micrium\Software\uCOS-III\Source\os_time.c ****             *p_err = OS_ERR_TIME_INVALID_MINUTES;
 365              		.loc 1 280 0
 366 0128 FB6A     		ldr	r3, [r7, #44]
 367 012a 47F27922 		movw	r2, #29305
 368 012e 1A80     		strh	r2, [r3, #0]	@ movhi
 281:C:\Micrium\Software\uCOS-III\Source\os_time.c ****              return;
 369              		.loc 1 281 0
 370 0130 84E0     		b	.L37
 371              	.L31:
 282:C:\Micrium\Software\uCOS-III\Source\os_time.c ****          }
 283:C:\Micrium\Software\uCOS-III\Source\os_time.c ****          if (hours   > (CPU_INT16U)99u) {
 372              		.loc 1 283 0
 373 0132 FB89     		ldrh	r3, [r7, #14]
 374 0134 632B     		cmp	r3, #99
 375 0136 18D9     		bls	.L43
 284:C:\Micrium\Software\uCOS-III\Source\os_time.c ****             *p_err = OS_ERR_TIME_INVALID_HOURS;
 376              		.loc 1 284 0
 377 0138 FB6A     		ldr	r3, [r7, #44]
 378 013a 47F27822 		movw	r2, #29304
 379 013e 1A80     		strh	r2, [r3, #0]	@ movhi
 285:C:\Micrium\Software\uCOS-III\Source\os_time.c ****              return;
 380              		.loc 1 285 0
 381 0140 7CE0     		b	.L37
 382              	.L28:
 286:C:\Micrium\Software\uCOS-III\Source\os_time.c ****          }
 287:C:\Micrium\Software\uCOS-III\Source\os_time.c ****     } else {
 288:C:\Micrium\Software\uCOS-III\Source\os_time.c ****          if (minutes > (CPU_INT16U)9999u) {
 383              		.loc 1 288 0
 384 0142 BA89     		ldrh	r2, [r7, #12]
 385 0144 42F20F73 		movw	r3, #9999
 386 0148 9A42     		cmp	r2, r3
 387 014a 04D9     		bls	.L34
 289:C:\Micrium\Software\uCOS-III\Source\os_time.c ****             *p_err = OS_ERR_TIME_INVALID_MINUTES;
 388              		.loc 1 289 0
 389 014c FB6A     		ldr	r3, [r7, #44]
 390 014e 47F27922 		movw	r2, #29305
 391 0152 1A80     		strh	r2, [r3, #0]	@ movhi
ARM GAS  C:\Users\daniel01\AppData\Local\Temp\cc9F0FW5.s 			page 13


 290:C:\Micrium\Software\uCOS-III\Source\os_time.c ****              return;
 392              		.loc 1 290 0
 393 0154 72E0     		b	.L37
 394              	.L34:
 291:C:\Micrium\Software\uCOS-III\Source\os_time.c ****          }
 292:C:\Micrium\Software\uCOS-III\Source\os_time.c ****          if (hours   > (CPU_INT16U)999u) {
 395              		.loc 1 292 0
 396 0156 FA89     		ldrh	r2, [r7, #14]
 397 0158 40F2E733 		movw	r3, #999
 398 015c 9A42     		cmp	r2, r3
 399 015e 05D9     		bls	.L33
 293:C:\Micrium\Software\uCOS-III\Source\os_time.c ****             *p_err = OS_ERR_TIME_INVALID_HOURS;
 400              		.loc 1 293 0
 401 0160 FB6A     		ldr	r3, [r7, #44]
 402 0162 47F27822 		movw	r2, #29304
 403 0166 1A80     		strh	r2, [r3, #0]	@ movhi
 294:C:\Micrium\Software\uCOS-III\Source\os_time.c ****              return;
 404              		.loc 1 294 0
 405 0168 68E0     		b	.L37
 406              	.L43:
 407              		.loc 1 285 0
 408 016a 00BF     		nop
 409              	.L33:
 295:C:\Micrium\Software\uCOS-III\Source\os_time.c ****          }
 296:C:\Micrium\Software\uCOS-III\Source\os_time.c ****     }
 297:C:\Micrium\Software\uCOS-III\Source\os_time.c **** #endif
 298:C:\Micrium\Software\uCOS-III\Source\os_time.c **** 
 299:C:\Micrium\Software\uCOS-III\Source\os_time.c ****                                                             /* Compute the total number of clock ti
 300:C:\Micrium\Software\uCOS-III\Source\os_time.c ****                                                             /* .. (rounded to the nearest tick)    
 301:C:\Micrium\Software\uCOS-III\Source\os_time.c ****     tick_rate = OSCfg_TickRate_Hz;
 410              		.loc 1 301 0
 411 016c 40F20003 		movw	r3, #:lower16:OSCfg_TickRate_Hz
 412 0170 C0F20003 		movt	r3, #:upper16:OSCfg_TickRate_Hz
 413 0174 1B68     		ldr	r3, [r3, #0]
 414 0176 7B61     		str	r3, [r7, #20]
 302:C:\Micrium\Software\uCOS-III\Source\os_time.c ****     ticks     = ((OS_TICK)hours * (OS_TICK)3600u + (OS_TICK)minutes * (OS_TICK)60u + (OS_TICK)secon
 415              		.loc 1 302 0
 416 0178 FB89     		ldrh	r3, [r7, #14]
 417 017a 4FF46162 		mov	r2, #3600
 418 017e 02FB03F1 		mul	r1, r2, r3
 419 0182 BA89     		ldrh	r2, [r7, #12]
 420 0184 1346     		mov	r3, r2
 421 0186 4FEA0313 		lsl	r3, r3, #4
 422 018a C2EB0303 		rsb	r3, r2, r3
 423 018e 4FEA8303 		lsl	r3, r3, #2
 424 0192 01EB0302 		add	r2, r1, r3
 425 0196 7B89     		ldrh	r3, [r7, #10]
 426 0198 1344     		add	r3, r2, r3
 303:C:\Micrium\Software\uCOS-III\Source\os_time.c ****               + (tick_rate * ((OS_TICK)milli + (OS_TICK)500u / tick_rate)) / (OS_TICK)1000u;
 427              		.loc 1 303 0
 428 019a 7A69     		ldr	r2, [r7, #20]
 429 019c 02FB03F2 		mul	r2, r2, r3
 430 01a0 4FF4FA71 		mov	r1, #500
 431 01a4 7B69     		ldr	r3, [r7, #20]
 432 01a6 B1FBF3F1 		udiv	r1, r1, r3
 433 01aa 7B68     		ldr	r3, [r7, #4]
 434 01ac 0B44     		add	r3, r1, r3
ARM GAS  C:\Users\daniel01\AppData\Local\Temp\cc9F0FW5.s 			page 14


 435 01ae 7969     		ldr	r1, [r7, #20]
 436 01b0 01FB03F1 		mul	r1, r1, r3
 437 01b4 44F6D353 		movw	r3, #:lower16:274877907
 438 01b8 C1F26203 		movt	r3, #:upper16:274877907
 439 01bc A3FB0103 		umull	r0, r3, r3, r1
 440 01c0 4FEA9313 		lsr	r3, r3, #6
 441              		.loc 1 302 0
 442 01c4 1344     		add	r3, r2, r3
 443 01c6 BB61     		str	r3, [r7, #24]
 304:C:\Micrium\Software\uCOS-III\Source\os_time.c **** 
 305:C:\Micrium\Software\uCOS-III\Source\os_time.c ****     if (ticks > (OS_TICK)0u) {
 444              		.loc 1 305 0
 445 01c8 BB69     		ldr	r3, [r7, #24]
 446 01ca 002B     		cmp	r3, #0
 447 01cc 32D0     		beq	.L35
 306:C:\Micrium\Software\uCOS-III\Source\os_time.c ****         OS_CRITICAL_ENTER();
 448              		.loc 1 306 0
 449 01ce FFF7FEFF 		bl	CPU_SR_Save
 450 01d2 0346     		mov	r3, r0
 451 01d4 FB61     		str	r3, [r7, #28]
 307:C:\Micrium\Software\uCOS-III\Source\os_time.c ****         OSTCBCurPtr->TaskState = OS_TASK_STATE_DLY;
 452              		.loc 1 307 0
 453 01d6 40F20003 		movw	r3, #:lower16:OSTCBCurPtr
 454 01da C0F20003 		movt	r3, #:upper16:OSTCBCurPtr
 455 01de 1B68     		ldr	r3, [r3, #0]
 456 01e0 4FF00102 		mov	r2, #1
 457 01e4 83F83620 		strb	r2, [r3, #54]
 308:C:\Micrium\Software\uCOS-III\Source\os_time.c ****         OS_TickListInsert(OSTCBCurPtr,
 458              		.loc 1 308 0
 459 01e8 40F20003 		movw	r3, #:lower16:OSTCBCurPtr
 460 01ec C0F20003 		movt	r3, #:upper16:OSTCBCurPtr
 461 01f0 1A68     		ldr	r2, [r3, #0]
 462 01f2 7B8A     		ldrh	r3, [r7, #18]
 463 01f4 1046     		mov	r0, r2
 464 01f6 B969     		ldr	r1, [r7, #24]
 465 01f8 1A46     		mov	r2, r3
 466 01fa FB6A     		ldr	r3, [r7, #44]
 467 01fc FFF7FEFF 		bl	OS_TickListInsert
 309:C:\Micrium\Software\uCOS-III\Source\os_time.c ****                           ticks,
 310:C:\Micrium\Software\uCOS-III\Source\os_time.c ****                           opt_time,
 311:C:\Micrium\Software\uCOS-III\Source\os_time.c ****                           p_err);
 312:C:\Micrium\Software\uCOS-III\Source\os_time.c ****         if (*p_err != OS_ERR_NONE) {
 468              		.loc 1 312 0
 469 0200 FB6A     		ldr	r3, [r7, #44]
 470 0202 1B88     		ldrh	r3, [r3, #0]
 471 0204 002B     		cmp	r3, #0
 472 0206 03D0     		beq	.L36
 313:C:\Micrium\Software\uCOS-III\Source\os_time.c ****              OS_CRITICAL_EXIT_NO_SCHED();
 473              		.loc 1 313 0
 474 0208 F869     		ldr	r0, [r7, #28]
 475 020a FFF7FEFF 		bl	CPU_SR_Restore
 314:C:\Micrium\Software\uCOS-III\Source\os_time.c ****              return;
 476              		.loc 1 314 0
 477 020e 15E0     		b	.L37
 478              	.L36:
 315:C:\Micrium\Software\uCOS-III\Source\os_time.c ****         }
 316:C:\Micrium\Software\uCOS-III\Source\os_time.c ****         OS_RdyListRemove(OSTCBCurPtr);                      /* Remove current task from ready list 
ARM GAS  C:\Users\daniel01\AppData\Local\Temp\cc9F0FW5.s 			page 15


 479              		.loc 1 316 0
 480 0210 40F20003 		movw	r3, #:lower16:OSTCBCurPtr
 481 0214 C0F20003 		movt	r3, #:upper16:OSTCBCurPtr
 482 0218 1B68     		ldr	r3, [r3, #0]
 483 021a 1846     		mov	r0, r3
 484 021c FFF7FEFF 		bl	OS_RdyListRemove
 317:C:\Micrium\Software\uCOS-III\Source\os_time.c ****         OS_CRITICAL_EXIT_NO_SCHED();
 485              		.loc 1 317 0
 486 0220 F869     		ldr	r0, [r7, #28]
 487 0222 FFF7FEFF 		bl	CPU_SR_Restore
 318:C:\Micrium\Software\uCOS-III\Source\os_time.c ****         OSSched();                                          /* Find next task to run!              
 488              		.loc 1 318 0
 489 0226 FFF7FEFF 		bl	OSSched
 319:C:\Micrium\Software\uCOS-III\Source\os_time.c ****        *p_err = OS_ERR_NONE;
 490              		.loc 1 319 0
 491 022a FB6A     		ldr	r3, [r7, #44]
 492 022c 4FF00002 		mov	r2, #0
 493 0230 1A80     		strh	r2, [r3, #0]	@ movhi
 494 0232 03E0     		b	.L37
 495              	.L35:
 320:C:\Micrium\Software\uCOS-III\Source\os_time.c ****     } else {
 321:C:\Micrium\Software\uCOS-III\Source\os_time.c ****        *p_err = OS_ERR_TIME_ZERO_DLY;
 496              		.loc 1 321 0
 497 0234 FB6A     		ldr	r3, [r7, #44]
 498 0236 47F27E22 		movw	r2, #29310
 499 023a 1A80     		strh	r2, [r3, #0]	@ movhi
 500              	.L37:
 322:C:\Micrium\Software\uCOS-III\Source\os_time.c ****     }
 323:C:\Micrium\Software\uCOS-III\Source\os_time.c **** }
 501              		.loc 1 323 0
 502 023c 07F12007 		add	r7, r7, #32
 503 0240 BD46     		mov	sp, r7
 504 0242 80BD     		pop	{r7, pc}
 505              		.cfi_endproc
 506              	.LFE1:
 507              		.size	OSTimeDlyHMSM, .-OSTimeDlyHMSM
 508              		.section	.text.OSTimeDlyResume,"ax",%progbits
 509              		.align	2
 510              		.global	OSTimeDlyResume
 511              		.thumb
 512              		.thumb_func
 513              		.type	OSTimeDlyResume, %function
 514              	OSTimeDlyResume:
 515              	.LFB2:
 324:C:\Micrium\Software\uCOS-III\Source\os_time.c **** #endif
 325:C:\Micrium\Software\uCOS-III\Source\os_time.c **** /*$PAGE*/
 326:C:\Micrium\Software\uCOS-III\Source\os_time.c **** /*
 327:C:\Micrium\Software\uCOS-III\Source\os_time.c **** ***************************************************************************************************
 328:C:\Micrium\Software\uCOS-III\Source\os_time.c **** *                                                RESUME A DELAYED TASK
 329:C:\Micrium\Software\uCOS-III\Source\os_time.c **** *
 330:C:\Micrium\Software\uCOS-III\Source\os_time.c **** * Description: This function is used resume a task that has been delayed through a call to either O
 331:C:\Micrium\Software\uCOS-III\Source\os_time.c **** *              OSTimeDlyHMSM().  Note that cannot call this function to resume a task that is waiti
 332:C:\Micrium\Software\uCOS-III\Source\os_time.c **** *              with timeout.
 333:C:\Micrium\Software\uCOS-III\Source\os_time.c **** *
 334:C:\Micrium\Software\uCOS-III\Source\os_time.c **** * Arguments  : p_tcb    is a pointer to the TCB of the task to resume.
 335:C:\Micrium\Software\uCOS-III\Source\os_time.c **** *
 336:C:\Micrium\Software\uCOS-III\Source\os_time.c **** *              p_err    is a pointer to a variable that will receive an error code
ARM GAS  C:\Users\daniel01\AppData\Local\Temp\cc9F0FW5.s 			page 16


 337:C:\Micrium\Software\uCOS-III\Source\os_time.c **** *
 338:C:\Micrium\Software\uCOS-III\Source\os_time.c **** *                           OS_ERR_NONE                  Task has been resumed
 339:C:\Micrium\Software\uCOS-III\Source\os_time.c **** *                           OS_ERR_STATE_INVALID         Task is in an invalid state
 340:C:\Micrium\Software\uCOS-III\Source\os_time.c **** *                           OS_ERR_TIME_DLY_RESUME_ISR   If called from an ISR
 341:C:\Micrium\Software\uCOS-III\Source\os_time.c **** *                           OS_ERR_TIME_NOT_DLY          Task is not waiting for time to expire
 342:C:\Micrium\Software\uCOS-III\Source\os_time.c **** *                           OS_ERR_TASK_SUSPENDED        Task cannot be resumed, it was suspended b
 343:C:\Micrium\Software\uCOS-III\Source\os_time.c **** *
 344:C:\Micrium\Software\uCOS-III\Source\os_time.c **** * Note(s)    : none
 345:C:\Micrium\Software\uCOS-III\Source\os_time.c **** ***************************************************************************************************
 346:C:\Micrium\Software\uCOS-III\Source\os_time.c **** */
 347:C:\Micrium\Software\uCOS-III\Source\os_time.c **** 
 348:C:\Micrium\Software\uCOS-III\Source\os_time.c **** #if OS_CFG_TIME_DLY_RESUME_EN > 0u
 349:C:\Micrium\Software\uCOS-III\Source\os_time.c **** void  OSTimeDlyResume (OS_TCB  *p_tcb,
 350:C:\Micrium\Software\uCOS-III\Source\os_time.c ****                        OS_ERR  *p_err)
 351:C:\Micrium\Software\uCOS-III\Source\os_time.c **** {
 516              		.loc 1 351 0
 517              		.cfi_startproc
 518              		@ args = 0, pretend = 0, frame = 16
 519              		@ frame_needed = 1, uses_anonymous_args = 0
 520 0000 80B5     		push	{r7, lr}
 521              	.LCFI6:
 522              		.cfi_def_cfa_offset 8
 523 0002 84B0     		sub	sp, sp, #16
 524              	.LCFI7:
 525              		.cfi_def_cfa_offset 24
 526 0004 00AF     		add	r7, sp, #0
 527              		.cfi_offset 14, -4
 528              		.cfi_offset 7, -8
 529              	.LCFI8:
 530              		.cfi_def_cfa_register 7
 531 0006 7860     		str	r0, [r7, #4]
 532 0008 3960     		str	r1, [r7, #0]
 352:C:\Micrium\Software\uCOS-III\Source\os_time.c ****     CPU_SR_ALLOC();
 533              		.loc 1 352 0
 534 000a 4FF00003 		mov	r3, #0
 535 000e FB60     		str	r3, [r7, #12]
 353:C:\Micrium\Software\uCOS-III\Source\os_time.c **** 
 354:C:\Micrium\Software\uCOS-III\Source\os_time.c **** 
 355:C:\Micrium\Software\uCOS-III\Source\os_time.c **** 
 356:C:\Micrium\Software\uCOS-III\Source\os_time.c **** #ifdef OS_SAFETY_CRITICAL
 357:C:\Micrium\Software\uCOS-III\Source\os_time.c ****     if (p_err == (OS_ERR *)0) {
 358:C:\Micrium\Software\uCOS-III\Source\os_time.c ****         OS_SAFETY_CRITICAL_EXCEPTION();
 359:C:\Micrium\Software\uCOS-III\Source\os_time.c ****         return;
 360:C:\Micrium\Software\uCOS-III\Source\os_time.c ****     }
 361:C:\Micrium\Software\uCOS-III\Source\os_time.c **** #endif
 362:C:\Micrium\Software\uCOS-III\Source\os_time.c **** 
 363:C:\Micrium\Software\uCOS-III\Source\os_time.c **** #if OS_CFG_CALLED_FROM_ISR_CHK_EN > 0u
 364:C:\Micrium\Software\uCOS-III\Source\os_time.c ****     if (OSIntNestingCtr > (OS_NESTING_CTR)0u) {             /* Not allowed to call from an ISR     
 536              		.loc 1 364 0
 537 0010 40F20003 		movw	r3, #:lower16:OSIntNestingCtr
 538 0014 C0F20003 		movt	r3, #:upper16:OSIntNestingCtr
 539 0018 1B78     		ldrb	r3, [r3, #0]	@ zero_extendqisi2
 540 001a 002B     		cmp	r3, #0
 541 001c 04D0     		beq	.L45
 365:C:\Micrium\Software\uCOS-III\Source\os_time.c ****        *p_err = OS_ERR_TIME_DLY_RESUME_ISR;
 542              		.loc 1 365 0
 543 001e 3B68     		ldr	r3, [r7, #0]
ARM GAS  C:\Users\daniel01\AppData\Local\Temp\cc9F0FW5.s 			page 17


 544 0020 47F27622 		movw	r2, #29302
 545 0024 1A80     		strh	r2, [r3, #0]	@ movhi
 366:C:\Micrium\Software\uCOS-III\Source\os_time.c ****         return;
 546              		.loc 1 366 0
 547 0026 8FE0     		b	.L60
 548              	.L45:
 367:C:\Micrium\Software\uCOS-III\Source\os_time.c ****     }
 368:C:\Micrium\Software\uCOS-III\Source\os_time.c **** #endif
 369:C:\Micrium\Software\uCOS-III\Source\os_time.c **** 
 370:C:\Micrium\Software\uCOS-III\Source\os_time.c **** #if OS_CFG_ARG_CHK_EN > 0u
 371:C:\Micrium\Software\uCOS-III\Source\os_time.c ****     if (p_tcb == (OS_TCB *)0) {                             /* Not possible for the running task to
 549              		.loc 1 371 0
 550 0028 7B68     		ldr	r3, [r7, #4]
 551 002a 002B     		cmp	r3, #0
 552 002c 04D1     		bne	.L47
 372:C:\Micrium\Software\uCOS-III\Source\os_time.c ****        *p_err = OS_ERR_TASK_NOT_DLY;
 553              		.loc 1 372 0
 554 002e 3B68     		ldr	r3, [r7, #0]
 555 0030 47F25112 		movw	r2, #29009
 556 0034 1A80     		strh	r2, [r3, #0]	@ movhi
 373:C:\Micrium\Software\uCOS-III\Source\os_time.c ****         return;
 557              		.loc 1 373 0
 558 0036 87E0     		b	.L60
 559              	.L47:
 374:C:\Micrium\Software\uCOS-III\Source\os_time.c ****     }
 375:C:\Micrium\Software\uCOS-III\Source\os_time.c **** #endif
 376:C:\Micrium\Software\uCOS-III\Source\os_time.c **** 
 377:C:\Micrium\Software\uCOS-III\Source\os_time.c ****     CPU_CRITICAL_ENTER();
 560              		.loc 1 377 0
 561 0038 FFF7FEFF 		bl	CPU_SR_Save
 562 003c 0346     		mov	r3, r0
 563 003e FB60     		str	r3, [r7, #12]
 378:C:\Micrium\Software\uCOS-III\Source\os_time.c ****     if (p_tcb == OSTCBCurPtr) {                             /* Not possible for the running task to
 564              		.loc 1 378 0
 565 0040 40F20003 		movw	r3, #:lower16:OSTCBCurPtr
 566 0044 C0F20003 		movt	r3, #:upper16:OSTCBCurPtr
 567 0048 1B68     		ldr	r3, [r3, #0]
 568 004a 7A68     		ldr	r2, [r7, #4]
 569 004c 9A42     		cmp	r2, r3
 570 004e 07D1     		bne	.L48
 379:C:\Micrium\Software\uCOS-III\Source\os_time.c ****        *p_err = OS_ERR_TASK_NOT_DLY;
 571              		.loc 1 379 0
 572 0050 3B68     		ldr	r3, [r7, #0]
 573 0052 47F25112 		movw	r2, #29009
 574 0056 1A80     		strh	r2, [r3, #0]	@ movhi
 380:C:\Micrium\Software\uCOS-III\Source\os_time.c ****         CPU_CRITICAL_EXIT();
 575              		.loc 1 380 0
 576 0058 F868     		ldr	r0, [r7, #12]
 577 005a FFF7FEFF 		bl	CPU_SR_Restore
 381:C:\Micrium\Software\uCOS-III\Source\os_time.c ****         return;
 578              		.loc 1 381 0
 579 005e 73E0     		b	.L60
 580              	.L48:
 382:C:\Micrium\Software\uCOS-III\Source\os_time.c ****     }
 383:C:\Micrium\Software\uCOS-III\Source\os_time.c **** 
 384:C:\Micrium\Software\uCOS-III\Source\os_time.c ****     switch (p_tcb->TaskState) {
 581              		.loc 1 384 0
ARM GAS  C:\Users\daniel01\AppData\Local\Temp\cc9F0FW5.s 			page 18


 582 0060 7B68     		ldr	r3, [r7, #4]
 583 0062 93F83630 		ldrb	r3, [r3, #54]	@ zero_extendqisi2
 584 0066 072B     		cmp	r3, #7
 585 0068 65D8     		bhi	.L49
 586 006a 01A2     		adr	r2, .L58
 587 006c 52F823F0 		ldr	pc, [r2, r3, lsl #2]
 588              		.align	2
 589              	.L58:
 590 0070 91000000 		.word	.L50+1
 591 0074 A1000000 		.word	.L51+1
 592 0078 C7000000 		.word	.L52+1
 593 007c D7000000 		.word	.L53+1
 594 0080 E7000000 		.word	.L54+1
 595 0084 F7000000 		.word	.L55+1
 596 0088 17010000 		.word	.L56+1
 597 008c 27010000 		.word	.L57+1
 598              	.L50:
 385:C:\Micrium\Software\uCOS-III\Source\os_time.c ****         case OS_TASK_STATE_RDY:                             /* Cannot Abort delay if task is ready 
 386:C:\Micrium\Software\uCOS-III\Source\os_time.c ****              CPU_CRITICAL_EXIT();
 599              		.loc 1 386 0
 600 0090 F868     		ldr	r0, [r7, #12]
 601 0092 FFF7FEFF 		bl	CPU_SR_Restore
 387:C:\Micrium\Software\uCOS-III\Source\os_time.c ****             *p_err = OS_ERR_TASK_NOT_DLY;
 602              		.loc 1 387 0
 603 0096 3B68     		ldr	r3, [r7, #0]
 604 0098 47F25112 		movw	r2, #29009
 605 009c 1A80     		strh	r2, [r3, #0]	@ movhi
 388:C:\Micrium\Software\uCOS-III\Source\os_time.c ****              break;
 606              		.loc 1 388 0
 607 009e 51E0     		b	.L59
 608              	.L51:
 389:C:\Micrium\Software\uCOS-III\Source\os_time.c **** 
 390:C:\Micrium\Software\uCOS-III\Source\os_time.c ****         case OS_TASK_STATE_DLY:
 391:C:\Micrium\Software\uCOS-III\Source\os_time.c ****              OS_CRITICAL_ENTER_CPU_EXIT();
 392:C:\Micrium\Software\uCOS-III\Source\os_time.c ****              p_tcb->TaskState = OS_TASK_STATE_RDY;
 609              		.loc 1 392 0
 610 00a0 7B68     		ldr	r3, [r7, #4]
 611 00a2 4FF00002 		mov	r2, #0
 612 00a6 83F83620 		strb	r2, [r3, #54]
 393:C:\Micrium\Software\uCOS-III\Source\os_time.c ****              OS_TickListRemove(p_tcb);                      /* Remove task from tick list          
 613              		.loc 1 393 0
 614 00aa 7868     		ldr	r0, [r7, #4]
 615 00ac FFF7FEFF 		bl	OS_TickListRemove
 394:C:\Micrium\Software\uCOS-III\Source\os_time.c ****              OS_RdyListInsert(p_tcb);                       /* Add to ready list                   
 616              		.loc 1 394 0
 617 00b0 7868     		ldr	r0, [r7, #4]
 618 00b2 FFF7FEFF 		bl	OS_RdyListInsert
 395:C:\Micrium\Software\uCOS-III\Source\os_time.c ****              OS_CRITICAL_EXIT_NO_SCHED();
 619              		.loc 1 395 0
 620 00b6 F868     		ldr	r0, [r7, #12]
 621 00b8 FFF7FEFF 		bl	CPU_SR_Restore
 396:C:\Micrium\Software\uCOS-III\Source\os_time.c ****             *p_err = OS_ERR_NONE;
 622              		.loc 1 396 0
 623 00bc 3B68     		ldr	r3, [r7, #0]
 624 00be 4FF00002 		mov	r2, #0
 625 00c2 1A80     		strh	r2, [r3, #0]	@ movhi
 397:C:\Micrium\Software\uCOS-III\Source\os_time.c ****              break;
ARM GAS  C:\Users\daniel01\AppData\Local\Temp\cc9F0FW5.s 			page 19


 626              		.loc 1 397 0
 627 00c4 3EE0     		b	.L59
 628              	.L52:
 398:C:\Micrium\Software\uCOS-III\Source\os_time.c **** 
 399:C:\Micrium\Software\uCOS-III\Source\os_time.c ****         case OS_TASK_STATE_PEND:
 400:C:\Micrium\Software\uCOS-III\Source\os_time.c ****              CPU_CRITICAL_EXIT();
 629              		.loc 1 400 0
 630 00c6 F868     		ldr	r0, [r7, #12]
 631 00c8 FFF7FEFF 		bl	CPU_SR_Restore
 401:C:\Micrium\Software\uCOS-III\Source\os_time.c ****             *p_err = OS_ERR_TASK_NOT_DLY;
 632              		.loc 1 401 0
 633 00cc 3B68     		ldr	r3, [r7, #0]
 634 00ce 47F25112 		movw	r2, #29009
 635 00d2 1A80     		strh	r2, [r3, #0]	@ movhi
 402:C:\Micrium\Software\uCOS-III\Source\os_time.c ****              break;
 636              		.loc 1 402 0
 637 00d4 36E0     		b	.L59
 638              	.L53:
 403:C:\Micrium\Software\uCOS-III\Source\os_time.c **** 
 404:C:\Micrium\Software\uCOS-III\Source\os_time.c ****         case OS_TASK_STATE_PEND_TIMEOUT:
 405:C:\Micrium\Software\uCOS-III\Source\os_time.c ****              CPU_CRITICAL_EXIT();
 639              		.loc 1 405 0
 640 00d6 F868     		ldr	r0, [r7, #12]
 641 00d8 FFF7FEFF 		bl	CPU_SR_Restore
 406:C:\Micrium\Software\uCOS-III\Source\os_time.c ****             *p_err = OS_ERR_TASK_NOT_DLY;
 642              		.loc 1 406 0
 643 00dc 3B68     		ldr	r3, [r7, #0]
 644 00de 47F25112 		movw	r2, #29009
 645 00e2 1A80     		strh	r2, [r3, #0]	@ movhi
 407:C:\Micrium\Software\uCOS-III\Source\os_time.c ****              break;
 646              		.loc 1 407 0
 647 00e4 2EE0     		b	.L59
 648              	.L54:
 408:C:\Micrium\Software\uCOS-III\Source\os_time.c **** 
 409:C:\Micrium\Software\uCOS-III\Source\os_time.c ****         case OS_TASK_STATE_SUSPENDED:
 410:C:\Micrium\Software\uCOS-III\Source\os_time.c ****              CPU_CRITICAL_EXIT();
 649              		.loc 1 410 0
 650 00e6 F868     		ldr	r0, [r7, #12]
 651 00e8 FFF7FEFF 		bl	CPU_SR_Restore
 411:C:\Micrium\Software\uCOS-III\Source\os_time.c ****             *p_err = OS_ERR_TASK_NOT_DLY;
 652              		.loc 1 411 0
 653 00ec 3B68     		ldr	r3, [r7, #0]
 654 00ee 47F25112 		movw	r2, #29009
 655 00f2 1A80     		strh	r2, [r3, #0]	@ movhi
 412:C:\Micrium\Software\uCOS-III\Source\os_time.c ****              break;
 656              		.loc 1 412 0
 657 00f4 26E0     		b	.L59
 658              	.L55:
 413:C:\Micrium\Software\uCOS-III\Source\os_time.c **** 
 414:C:\Micrium\Software\uCOS-III\Source\os_time.c ****         case OS_TASK_STATE_DLY_SUSPENDED:
 415:C:\Micrium\Software\uCOS-III\Source\os_time.c ****              OS_CRITICAL_ENTER_CPU_EXIT();
 416:C:\Micrium\Software\uCOS-III\Source\os_time.c ****              p_tcb->TaskState = OS_TASK_STATE_SUSPENDED;
 659              		.loc 1 416 0
 660 00f6 7B68     		ldr	r3, [r7, #4]
 661 00f8 4FF00402 		mov	r2, #4
 662 00fc 83F83620 		strb	r2, [r3, #54]
 417:C:\Micrium\Software\uCOS-III\Source\os_time.c ****              OS_TickListRemove(p_tcb);                      /* Remove task from tick list          
ARM GAS  C:\Users\daniel01\AppData\Local\Temp\cc9F0FW5.s 			page 20


 663              		.loc 1 417 0
 664 0100 7868     		ldr	r0, [r7, #4]
 665 0102 FFF7FEFF 		bl	OS_TickListRemove
 418:C:\Micrium\Software\uCOS-III\Source\os_time.c ****              OS_CRITICAL_EXIT_NO_SCHED();
 666              		.loc 1 418 0
 667 0106 F868     		ldr	r0, [r7, #12]
 668 0108 FFF7FEFF 		bl	CPU_SR_Restore
 419:C:\Micrium\Software\uCOS-III\Source\os_time.c ****             *p_err            = OS_ERR_TASK_SUSPENDED;
 669              		.loc 1 419 0
 670 010c 3B68     		ldr	r3, [r7, #0]
 671 010e 47F25A12 		movw	r2, #29018
 672 0112 1A80     		strh	r2, [r3, #0]	@ movhi
 420:C:\Micrium\Software\uCOS-III\Source\os_time.c ****              break;
 673              		.loc 1 420 0
 674 0114 16E0     		b	.L59
 675              	.L56:
 421:C:\Micrium\Software\uCOS-III\Source\os_time.c **** 
 422:C:\Micrium\Software\uCOS-III\Source\os_time.c ****         case OS_TASK_STATE_PEND_SUSPENDED:
 423:C:\Micrium\Software\uCOS-III\Source\os_time.c ****              CPU_CRITICAL_EXIT();
 676              		.loc 1 423 0
 677 0116 F868     		ldr	r0, [r7, #12]
 678 0118 FFF7FEFF 		bl	CPU_SR_Restore
 424:C:\Micrium\Software\uCOS-III\Source\os_time.c ****             *p_err = OS_ERR_TASK_NOT_DLY;
 679              		.loc 1 424 0
 680 011c 3B68     		ldr	r3, [r7, #0]
 681 011e 47F25112 		movw	r2, #29009
 682 0122 1A80     		strh	r2, [r3, #0]	@ movhi
 425:C:\Micrium\Software\uCOS-III\Source\os_time.c ****              break;
 683              		.loc 1 425 0
 684 0124 0EE0     		b	.L59
 685              	.L57:
 426:C:\Micrium\Software\uCOS-III\Source\os_time.c **** 
 427:C:\Micrium\Software\uCOS-III\Source\os_time.c ****         case OS_TASK_STATE_PEND_TIMEOUT_SUSPENDED:
 428:C:\Micrium\Software\uCOS-III\Source\os_time.c ****              CPU_CRITICAL_EXIT();
 686              		.loc 1 428 0
 687 0126 F868     		ldr	r0, [r7, #12]
 688 0128 FFF7FEFF 		bl	CPU_SR_Restore
 429:C:\Micrium\Software\uCOS-III\Source\os_time.c ****             *p_err = OS_ERR_TASK_NOT_DLY;
 689              		.loc 1 429 0
 690 012c 3B68     		ldr	r3, [r7, #0]
 691 012e 47F25112 		movw	r2, #29009
 692 0132 1A80     		strh	r2, [r3, #0]	@ movhi
 430:C:\Micrium\Software\uCOS-III\Source\os_time.c ****              break;
 693              		.loc 1 430 0
 694 0134 06E0     		b	.L59
 695              	.L49:
 431:C:\Micrium\Software\uCOS-III\Source\os_time.c **** 
 432:C:\Micrium\Software\uCOS-III\Source\os_time.c ****         default:
 433:C:\Micrium\Software\uCOS-III\Source\os_time.c ****              CPU_CRITICAL_EXIT();
 696              		.loc 1 433 0
 697 0136 F868     		ldr	r0, [r7, #12]
 698 0138 FFF7FEFF 		bl	CPU_SR_Restore
 434:C:\Micrium\Software\uCOS-III\Source\os_time.c ****             *p_err = OS_ERR_STATE_INVALID;
 699              		.loc 1 434 0
 700 013c 3B68     		ldr	r3, [r7, #0]
 701 013e 46F62D62 		movw	r2, #28205
 702 0142 1A80     		strh	r2, [r3, #0]	@ movhi
ARM GAS  C:\Users\daniel01\AppData\Local\Temp\cc9F0FW5.s 			page 21


 703              	.L59:
 435:C:\Micrium\Software\uCOS-III\Source\os_time.c ****              break;
 436:C:\Micrium\Software\uCOS-III\Source\os_time.c ****     }
 437:C:\Micrium\Software\uCOS-III\Source\os_time.c **** 
 438:C:\Micrium\Software\uCOS-III\Source\os_time.c ****     OSSched();
 704              		.loc 1 438 0
 705 0144 FFF7FEFF 		bl	OSSched
 706              	.L60:
 439:C:\Micrium\Software\uCOS-III\Source\os_time.c **** }
 707              		.loc 1 439 0
 708 0148 07F11007 		add	r7, r7, #16
 709 014c BD46     		mov	sp, r7
 710 014e 80BD     		pop	{r7, pc}
 711              		.cfi_endproc
 712              	.LFE2:
 713              		.size	OSTimeDlyResume, .-OSTimeDlyResume
 714              		.section	.text.OSTimeGet,"ax",%progbits
 715              		.align	2
 716              		.global	OSTimeGet
 717              		.thumb
 718              		.thumb_func
 719              		.type	OSTimeGet, %function
 720              	OSTimeGet:
 721              	.LFB3:
 440:C:\Micrium\Software\uCOS-III\Source\os_time.c **** #endif
 441:C:\Micrium\Software\uCOS-III\Source\os_time.c **** /*$PAGE*/
 442:C:\Micrium\Software\uCOS-III\Source\os_time.c **** /*
 443:C:\Micrium\Software\uCOS-III\Source\os_time.c **** ***************************************************************************************************
 444:C:\Micrium\Software\uCOS-III\Source\os_time.c **** *                                               GET CURRENT SYSTEM TIME
 445:C:\Micrium\Software\uCOS-III\Source\os_time.c **** *
 446:C:\Micrium\Software\uCOS-III\Source\os_time.c **** * Description: This function is used by your application to obtain the current value of the counter
 447:C:\Micrium\Software\uCOS-III\Source\os_time.c **** *              the number of clock ticks.
 448:C:\Micrium\Software\uCOS-III\Source\os_time.c **** *
 449:C:\Micrium\Software\uCOS-III\Source\os_time.c **** * Arguments  : p_err    is a pointer to a variable that will receive an error code
 450:C:\Micrium\Software\uCOS-III\Source\os_time.c **** *
 451:C:\Micrium\Software\uCOS-III\Source\os_time.c **** *                           OS_ERR_NONE           If the call was successful
 452:C:\Micrium\Software\uCOS-III\Source\os_time.c **** *
 453:C:\Micrium\Software\uCOS-III\Source\os_time.c **** * Returns    : The current value of OSTickCtr
 454:C:\Micrium\Software\uCOS-III\Source\os_time.c **** ***************************************************************************************************
 455:C:\Micrium\Software\uCOS-III\Source\os_time.c **** */
 456:C:\Micrium\Software\uCOS-III\Source\os_time.c **** 
 457:C:\Micrium\Software\uCOS-III\Source\os_time.c **** OS_TICK  OSTimeGet (OS_ERR  *p_err)
 458:C:\Micrium\Software\uCOS-III\Source\os_time.c **** {
 722              		.loc 1 458 0
 723              		.cfi_startproc
 724              		@ args = 0, pretend = 0, frame = 16
 725              		@ frame_needed = 1, uses_anonymous_args = 0
 726 0000 80B5     		push	{r7, lr}
 727              	.LCFI9:
 728              		.cfi_def_cfa_offset 8
 729 0002 84B0     		sub	sp, sp, #16
 730              	.LCFI10:
 731              		.cfi_def_cfa_offset 24
 732 0004 00AF     		add	r7, sp, #0
 733              		.cfi_offset 14, -4
 734              		.cfi_offset 7, -8
 735              	.LCFI11:
ARM GAS  C:\Users\daniel01\AppData\Local\Temp\cc9F0FW5.s 			page 22


 736              		.cfi_def_cfa_register 7
 737 0006 7860     		str	r0, [r7, #4]
 459:C:\Micrium\Software\uCOS-III\Source\os_time.c ****     OS_TICK  ticks;
 460:C:\Micrium\Software\uCOS-III\Source\os_time.c ****     CPU_SR_ALLOC();
 738              		.loc 1 460 0
 739 0008 4FF00003 		mov	r3, #0
 740 000c FB60     		str	r3, [r7, #12]
 461:C:\Micrium\Software\uCOS-III\Source\os_time.c **** 
 462:C:\Micrium\Software\uCOS-III\Source\os_time.c **** 
 463:C:\Micrium\Software\uCOS-III\Source\os_time.c **** 
 464:C:\Micrium\Software\uCOS-III\Source\os_time.c **** #ifdef OS_SAFETY_CRITICAL
 465:C:\Micrium\Software\uCOS-III\Source\os_time.c ****     if (p_err == (OS_ERR *)0) {
 466:C:\Micrium\Software\uCOS-III\Source\os_time.c ****         OS_SAFETY_CRITICAL_EXCEPTION();
 467:C:\Micrium\Software\uCOS-III\Source\os_time.c ****         return ((OS_TICK)0);
 468:C:\Micrium\Software\uCOS-III\Source\os_time.c ****     }
 469:C:\Micrium\Software\uCOS-III\Source\os_time.c **** #endif
 470:C:\Micrium\Software\uCOS-III\Source\os_time.c **** 
 471:C:\Micrium\Software\uCOS-III\Source\os_time.c ****     CPU_CRITICAL_ENTER();
 741              		.loc 1 471 0
 742 000e FFF7FEFF 		bl	CPU_SR_Save
 743 0012 0346     		mov	r3, r0
 744 0014 FB60     		str	r3, [r7, #12]
 472:C:\Micrium\Software\uCOS-III\Source\os_time.c ****     ticks = OSTickCtr;
 745              		.loc 1 472 0
 746 0016 40F20003 		movw	r3, #:lower16:OSTickCtr
 747 001a C0F20003 		movt	r3, #:upper16:OSTickCtr
 748 001e 1B68     		ldr	r3, [r3, #0]
 749 0020 BB60     		str	r3, [r7, #8]
 473:C:\Micrium\Software\uCOS-III\Source\os_time.c ****     CPU_CRITICAL_EXIT();
 750              		.loc 1 473 0
 751 0022 F868     		ldr	r0, [r7, #12]
 752 0024 FFF7FEFF 		bl	CPU_SR_Restore
 474:C:\Micrium\Software\uCOS-III\Source\os_time.c ****    *p_err = OS_ERR_NONE;
 753              		.loc 1 474 0
 754 0028 7B68     		ldr	r3, [r7, #4]
 755 002a 4FF00002 		mov	r2, #0
 756 002e 1A80     		strh	r2, [r3, #0]	@ movhi
 475:C:\Micrium\Software\uCOS-III\Source\os_time.c ****     return (ticks);
 757              		.loc 1 475 0
 758 0030 BB68     		ldr	r3, [r7, #8]
 476:C:\Micrium\Software\uCOS-III\Source\os_time.c **** }
 759              		.loc 1 476 0
 760 0032 1846     		mov	r0, r3
 761 0034 07F11007 		add	r7, r7, #16
 762 0038 BD46     		mov	sp, r7
 763 003a 80BD     		pop	{r7, pc}
 764              		.cfi_endproc
 765              	.LFE3:
 766              		.size	OSTimeGet, .-OSTimeGet
 767              		.section	.text.OSTimeSet,"ax",%progbits
 768              		.align	2
 769              		.global	OSTimeSet
 770              		.thumb
 771              		.thumb_func
 772              		.type	OSTimeSet, %function
 773              	OSTimeSet:
 774              	.LFB4:
ARM GAS  C:\Users\daniel01\AppData\Local\Temp\cc9F0FW5.s 			page 23


 477:C:\Micrium\Software\uCOS-III\Source\os_time.c **** 
 478:C:\Micrium\Software\uCOS-III\Source\os_time.c **** /*
 479:C:\Micrium\Software\uCOS-III\Source\os_time.c **** ***************************************************************************************************
 480:C:\Micrium\Software\uCOS-III\Source\os_time.c **** *                                                   SET SYSTEM CLOCK
 481:C:\Micrium\Software\uCOS-III\Source\os_time.c **** *
 482:C:\Micrium\Software\uCOS-III\Source\os_time.c **** * Description: This function sets the counter which keeps track of the number of clock ticks.
 483:C:\Micrium\Software\uCOS-III\Source\os_time.c **** *
 484:C:\Micrium\Software\uCOS-III\Source\os_time.c **** * Arguments  : ticks    is the desired tick value
 485:C:\Micrium\Software\uCOS-III\Source\os_time.c **** *
 486:C:\Micrium\Software\uCOS-III\Source\os_time.c **** *              p_err    is a pointer to a variable that will receive an error code
 487:C:\Micrium\Software\uCOS-III\Source\os_time.c **** *
 488:C:\Micrium\Software\uCOS-III\Source\os_time.c **** *                           OS_ERR_NONE           If the call was successful
 489:C:\Micrium\Software\uCOS-III\Source\os_time.c **** *
 490:C:\Micrium\Software\uCOS-III\Source\os_time.c **** * Returns    : none
 491:C:\Micrium\Software\uCOS-III\Source\os_time.c **** ***************************************************************************************************
 492:C:\Micrium\Software\uCOS-III\Source\os_time.c **** */
 493:C:\Micrium\Software\uCOS-III\Source\os_time.c **** 
 494:C:\Micrium\Software\uCOS-III\Source\os_time.c **** void  OSTimeSet (OS_TICK   ticks,
 495:C:\Micrium\Software\uCOS-III\Source\os_time.c ****                  OS_ERR   *p_err)
 496:C:\Micrium\Software\uCOS-III\Source\os_time.c **** {
 775              		.loc 1 496 0
 776              		.cfi_startproc
 777              		@ args = 0, pretend = 0, frame = 16
 778              		@ frame_needed = 1, uses_anonymous_args = 0
 779 0000 80B5     		push	{r7, lr}
 780              	.LCFI12:
 781              		.cfi_def_cfa_offset 8
 782 0002 84B0     		sub	sp, sp, #16
 783              	.LCFI13:
 784              		.cfi_def_cfa_offset 24
 785 0004 00AF     		add	r7, sp, #0
 786              		.cfi_offset 14, -4
 787              		.cfi_offset 7, -8
 788              	.LCFI14:
 789              		.cfi_def_cfa_register 7
 790 0006 7860     		str	r0, [r7, #4]
 791 0008 3960     		str	r1, [r7, #0]
 497:C:\Micrium\Software\uCOS-III\Source\os_time.c ****     CPU_SR_ALLOC();
 792              		.loc 1 497 0
 793 000a 4FF00003 		mov	r3, #0
 794 000e FB60     		str	r3, [r7, #12]
 498:C:\Micrium\Software\uCOS-III\Source\os_time.c **** 
 499:C:\Micrium\Software\uCOS-III\Source\os_time.c **** 
 500:C:\Micrium\Software\uCOS-III\Source\os_time.c **** 
 501:C:\Micrium\Software\uCOS-III\Source\os_time.c **** #ifdef OS_SAFETY_CRITICAL
 502:C:\Micrium\Software\uCOS-III\Source\os_time.c ****     if (p_err == (OS_ERR *)0) {
 503:C:\Micrium\Software\uCOS-III\Source\os_time.c ****         OS_SAFETY_CRITICAL_EXCEPTION();
 504:C:\Micrium\Software\uCOS-III\Source\os_time.c ****         return;
 505:C:\Micrium\Software\uCOS-III\Source\os_time.c ****     }
 506:C:\Micrium\Software\uCOS-III\Source\os_time.c **** #endif
 507:C:\Micrium\Software\uCOS-III\Source\os_time.c **** 
 508:C:\Micrium\Software\uCOS-III\Source\os_time.c ****     CPU_CRITICAL_ENTER();
 795              		.loc 1 508 0
 796 0010 FFF7FEFF 		bl	CPU_SR_Save
 797 0014 0346     		mov	r3, r0
 798 0016 FB60     		str	r3, [r7, #12]
 509:C:\Micrium\Software\uCOS-III\Source\os_time.c ****     OSTickCtr = ticks;
ARM GAS  C:\Users\daniel01\AppData\Local\Temp\cc9F0FW5.s 			page 24


 799              		.loc 1 509 0
 800 0018 40F20003 		movw	r3, #:lower16:OSTickCtr
 801 001c C0F20003 		movt	r3, #:upper16:OSTickCtr
 802 0020 7A68     		ldr	r2, [r7, #4]
 803 0022 1A60     		str	r2, [r3, #0]
 510:C:\Micrium\Software\uCOS-III\Source\os_time.c ****     CPU_CRITICAL_EXIT();
 804              		.loc 1 510 0
 805 0024 F868     		ldr	r0, [r7, #12]
 806 0026 FFF7FEFF 		bl	CPU_SR_Restore
 511:C:\Micrium\Software\uCOS-III\Source\os_time.c ****    *p_err     = OS_ERR_NONE;
 807              		.loc 1 511 0
 808 002a 3B68     		ldr	r3, [r7, #0]
 809 002c 4FF00002 		mov	r2, #0
 810 0030 1A80     		strh	r2, [r3, #0]	@ movhi
 512:C:\Micrium\Software\uCOS-III\Source\os_time.c **** }
 811              		.loc 1 512 0
 812 0032 07F11007 		add	r7, r7, #16
 813 0036 BD46     		mov	sp, r7
 814 0038 80BD     		pop	{r7, pc}
 815              		.cfi_endproc
 816              	.LFE4:
 817              		.size	OSTimeSet, .-OSTimeSet
 818 003a 00BF     		.section	.text.OSTimeTick,"ax",%progbits
 819              		.align	2
 820              		.global	OSTimeTick
 821              		.thumb
 822              		.thumb_func
 823              		.type	OSTimeTick, %function
 824              	OSTimeTick:
 825              	.LFB5:
 513:C:\Micrium\Software\uCOS-III\Source\os_time.c **** 
 514:C:\Micrium\Software\uCOS-III\Source\os_time.c **** /*$PAGE*/
 515:C:\Micrium\Software\uCOS-III\Source\os_time.c **** /*
 516:C:\Micrium\Software\uCOS-III\Source\os_time.c **** ***************************************************************************************************
 517:C:\Micrium\Software\uCOS-III\Source\os_time.c **** *                                                 PROCESS SYSTEM TICK
 518:C:\Micrium\Software\uCOS-III\Source\os_time.c **** *
 519:C:\Micrium\Software\uCOS-III\Source\os_time.c **** * Description: This function is used to signal to uC/OS-III the occurrence of a 'system tick' (also
 520:C:\Micrium\Software\uCOS-III\Source\os_time.c **** *              'clock tick').  This function should be called by the tick ISR.
 521:C:\Micrium\Software\uCOS-III\Source\os_time.c **** *
 522:C:\Micrium\Software\uCOS-III\Source\os_time.c **** * Arguments  : none
 523:C:\Micrium\Software\uCOS-III\Source\os_time.c **** *
 524:C:\Micrium\Software\uCOS-III\Source\os_time.c **** * Returns    : none
 525:C:\Micrium\Software\uCOS-III\Source\os_time.c **** ***************************************************************************************************
 526:C:\Micrium\Software\uCOS-III\Source\os_time.c **** */
 527:C:\Micrium\Software\uCOS-III\Source\os_time.c **** 
 528:C:\Micrium\Software\uCOS-III\Source\os_time.c **** void  OSTimeTick (void)
 529:C:\Micrium\Software\uCOS-III\Source\os_time.c **** {
 826              		.loc 1 529 0
 827              		.cfi_startproc
 828              		@ args = 0, pretend = 0, frame = 8
 829              		@ frame_needed = 1, uses_anonymous_args = 0
 830 0000 80B5     		push	{r7, lr}
 831              	.LCFI15:
 832              		.cfi_def_cfa_offset 8
 833 0002 82B0     		sub	sp, sp, #8
 834              	.LCFI16:
 835              		.cfi_def_cfa_offset 16
ARM GAS  C:\Users\daniel01\AppData\Local\Temp\cc9F0FW5.s 			page 25


 836 0004 00AF     		add	r7, sp, #0
 837              		.cfi_offset 14, -4
 838              		.cfi_offset 7, -8
 839              	.LCFI17:
 840              		.cfi_def_cfa_register 7
 530:C:\Micrium\Software\uCOS-III\Source\os_time.c ****     OS_ERR  err;
 531:C:\Micrium\Software\uCOS-III\Source\os_time.c **** #if OS_CFG_ISR_POST_DEFERRED_EN > 0u
 532:C:\Micrium\Software\uCOS-III\Source\os_time.c ****     CPU_TS  ts;
 533:C:\Micrium\Software\uCOS-III\Source\os_time.c **** #endif
 534:C:\Micrium\Software\uCOS-III\Source\os_time.c **** 
 535:C:\Micrium\Software\uCOS-III\Source\os_time.c **** 
 536:C:\Micrium\Software\uCOS-III\Source\os_time.c ****     OSTimeTickHook();                                       /* Call user definable hook            
 841              		.loc 1 536 0
 842 0006 FFF7FEFF 		bl	OSTimeTickHook
 537:C:\Micrium\Software\uCOS-III\Source\os_time.c **** 
 538:C:\Micrium\Software\uCOS-III\Source\os_time.c **** #if OS_CFG_ISR_POST_DEFERRED_EN > 0u
 539:C:\Micrium\Software\uCOS-III\Source\os_time.c **** 
 540:C:\Micrium\Software\uCOS-III\Source\os_time.c ****     ts = OS_TS_GET();                                       /* Get timestamp                       
 541:C:\Micrium\Software\uCOS-III\Source\os_time.c ****     OS_IntQPost((OS_OBJ_TYPE) OS_OBJ_TYPE_TICK,             /* Post to ISR queue                   
 542:C:\Micrium\Software\uCOS-III\Source\os_time.c ****                 (void      *)&OSRdyList[OSPrioCur],
 543:C:\Micrium\Software\uCOS-III\Source\os_time.c ****                 (void      *) 0,
 544:C:\Micrium\Software\uCOS-III\Source\os_time.c ****                 (OS_MSG_SIZE) 0u,
 545:C:\Micrium\Software\uCOS-III\Source\os_time.c ****                 (OS_FLAGS   ) 0u,
 546:C:\Micrium\Software\uCOS-III\Source\os_time.c ****                 (OS_OPT     ) 0u,
 547:C:\Micrium\Software\uCOS-III\Source\os_time.c ****                 (CPU_TS     ) ts,
 548:C:\Micrium\Software\uCOS-III\Source\os_time.c ****                 (OS_ERR    *)&err);
 549:C:\Micrium\Software\uCOS-III\Source\os_time.c **** 
 550:C:\Micrium\Software\uCOS-III\Source\os_time.c **** #else
 551:C:\Micrium\Software\uCOS-III\Source\os_time.c **** 
 552:C:\Micrium\Software\uCOS-III\Source\os_time.c ****    (void)OSTaskSemPost((OS_TCB *)&OSTickTaskTCB,            /* Signal tick task                    
 843              		.loc 1 552 0
 844 000a 07F10603 		add	r3, r7, #6
 845 000e 40F20000 		movw	r0, #:lower16:OSTickTaskTCB
 846 0012 C0F20000 		movt	r0, #:upper16:OSTickTaskTCB
 847 0016 4FF00001 		mov	r1, #0
 848 001a 1A46     		mov	r2, r3
 849 001c FFF7FEFF 		bl	OSTaskSemPost
 553:C:\Micrium\Software\uCOS-III\Source\os_time.c ****                        (OS_OPT  ) OS_OPT_POST_NONE,
 554:C:\Micrium\Software\uCOS-III\Source\os_time.c ****                        (OS_ERR *)&err);
 555:C:\Micrium\Software\uCOS-III\Source\os_time.c **** 
 556:C:\Micrium\Software\uCOS-III\Source\os_time.c **** 
 557:C:\Micrium\Software\uCOS-III\Source\os_time.c **** #if OS_CFG_SCHED_ROUND_ROBIN_EN > 0u
 558:C:\Micrium\Software\uCOS-III\Source\os_time.c ****     OS_SchedRoundRobin(&OSRdyList[OSPrioCur]);
 850              		.loc 1 558 0
 851 0020 40F20003 		movw	r3, #:lower16:OSPrioCur
 852 0024 C0F20003 		movt	r3, #:upper16:OSPrioCur
 853 0028 1B78     		ldrb	r3, [r3, #0]	@ zero_extendqisi2
 854 002a 1A46     		mov	r2, r3
 855 002c 1346     		mov	r3, r2
 856 002e 4FEA4303 		lsl	r3, r3, #1
 857 0032 1344     		add	r3, r3, r2
 858 0034 4FEA8303 		lsl	r3, r3, #2
 859 0038 1A46     		mov	r2, r3
 860 003a 40F20003 		movw	r3, #:lower16:OSRdyList
 861 003e C0F20003 		movt	r3, #:upper16:OSRdyList
 862 0042 1344     		add	r3, r2, r3
 863 0044 1846     		mov	r0, r3
ARM GAS  C:\Users\daniel01\AppData\Local\Temp\cc9F0FW5.s 			page 26


 864 0046 FFF7FEFF 		bl	OS_SchedRoundRobin
 559:C:\Micrium\Software\uCOS-III\Source\os_time.c **** #endif
 560:C:\Micrium\Software\uCOS-III\Source\os_time.c **** 
 561:C:\Micrium\Software\uCOS-III\Source\os_time.c **** #if OS_CFG_TMR_EN > 0u
 562:C:\Micrium\Software\uCOS-III\Source\os_time.c ****     OSTmrUpdateCtr--;
 865              		.loc 1 562 0
 866 004a 40F20003 		movw	r3, #:lower16:OSTmrUpdateCtr
 867 004e C0F20003 		movt	r3, #:upper16:OSTmrUpdateCtr
 868 0052 1B68     		ldr	r3, [r3, #0]
 869 0054 03F1FF32 		add	r2, r3, #-1
 870 0058 40F20003 		movw	r3, #:lower16:OSTmrUpdateCtr
 871 005c C0F20003 		movt	r3, #:upper16:OSTmrUpdateCtr
 872 0060 1A60     		str	r2, [r3, #0]
 563:C:\Micrium\Software\uCOS-III\Source\os_time.c ****     if (OSTmrUpdateCtr == (OS_CTR)0u) {
 873              		.loc 1 563 0
 874 0062 40F20003 		movw	r3, #:lower16:OSTmrUpdateCtr
 875 0066 C0F20003 		movt	r3, #:upper16:OSTmrUpdateCtr
 876 006a 1B68     		ldr	r3, [r3, #0]
 877 006c 002B     		cmp	r3, #0
 878 006e 14D1     		bne	.L67
 564:C:\Micrium\Software\uCOS-III\Source\os_time.c ****         OSTmrUpdateCtr = OSTmrUpdateCnt;
 879              		.loc 1 564 0
 880 0070 40F20003 		movw	r3, #:lower16:OSTmrUpdateCnt
 881 0074 C0F20003 		movt	r3, #:upper16:OSTmrUpdateCnt
 882 0078 1A68     		ldr	r2, [r3, #0]
 883 007a 40F20003 		movw	r3, #:lower16:OSTmrUpdateCtr
 884 007e C0F20003 		movt	r3, #:upper16:OSTmrUpdateCtr
 885 0082 1A60     		str	r2, [r3, #0]
 565:C:\Micrium\Software\uCOS-III\Source\os_time.c ****         OSTaskSemPost((OS_TCB *)&OSTmrTaskTCB,              /* Signal timer task                   
 886              		.loc 1 565 0
 887 0084 07F10603 		add	r3, r7, #6
 888 0088 40F20000 		movw	r0, #:lower16:OSTmrTaskTCB
 889 008c C0F20000 		movt	r0, #:upper16:OSTmrTaskTCB
 890 0090 4FF00001 		mov	r1, #0
 891 0094 1A46     		mov	r2, r3
 892 0096 FFF7FEFF 		bl	OSTaskSemPost
 893              	.L67:
 566:C:\Micrium\Software\uCOS-III\Source\os_time.c ****                       (OS_OPT  ) OS_OPT_POST_NONE,
 567:C:\Micrium\Software\uCOS-III\Source\os_time.c ****                       (OS_ERR *)&err);
 568:C:\Micrium\Software\uCOS-III\Source\os_time.c ****     }
 569:C:\Micrium\Software\uCOS-III\Source\os_time.c **** #endif
 570:C:\Micrium\Software\uCOS-III\Source\os_time.c **** 
 571:C:\Micrium\Software\uCOS-III\Source\os_time.c **** #endif
 572:C:\Micrium\Software\uCOS-III\Source\os_time.c **** }
 894              		.loc 1 572 0
 895 009a 07F10807 		add	r7, r7, #8
 896 009e BD46     		mov	sp, r7
 897 00a0 80BD     		pop	{r7, pc}
 898              		.cfi_endproc
 899              	.LFE5:
 900              		.size	OSTimeTick, .-OSTimeTick
 901 00a2 00BF     		.text
 902              	.Letext0: