ARM GAS  C:\Users\daniel01\AppData\Local\Temp\ccxoNE0f.s 			page 1


   1              		.syntax unified
   2              		.cpu cortex-m3
   3              		.fpu softvfp
   4              		.eabi_attribute 20, 1
   5              		.eabi_attribute 21, 1
   6              		.eabi_attribute 23, 3
   7              		.eabi_attribute 24, 1
   8              		.eabi_attribute 25, 1
   9              		.eabi_attribute 26, 1
  10              		.eabi_attribute 30, 6
  11              		.eabi_attribute 18, 4
  12              		.thumb
  13              		.file	"os_tmr.c"
  14              		.section	.debug_abbrev,"",%progbits
  15              	.Ldebug_abbrev0:
  16              		.section	.debug_info,"",%progbits
  17              	.Ldebug_info0:
  18              		.section	.debug_line,"",%progbits
  19              	.Ldebug_line0:
  20 0000 41030000 		.text
  20      0200D500 
  20      00000201 
  20      FB0E0D00 
  20      01010101 
  21              	.Ltext0:
  22              		.cfi_sections	.debug_frame
  23              		.section	.text.OSTmrCreate,"ax",%progbits
  24              		.align	2
  25              		.global	OSTmrCreate
  26              		.thumb
  27              		.thumb_func
  28              		.type	OSTmrCreate, %function
  29              	OSTmrCreate:
  30              	.LFB0:
  31              		.file 1 "C:\\Micrium\\Software\\uCOS-III\\Source\\os_tmr.c"
   1:C:\Micrium\Software\uCOS-III\Source\os_tmr.c **** /*
   2:C:\Micrium\Software\uCOS-III\Source\os_tmr.c **** ***************************************************************************************************
   3:C:\Micrium\Software\uCOS-III\Source\os_tmr.c **** *                                                      uC/OS-III
   4:C:\Micrium\Software\uCOS-III\Source\os_tmr.c **** *                                                 The Real-Time Kernel
   5:C:\Micrium\Software\uCOS-III\Source\os_tmr.c **** *
   6:C:\Micrium\Software\uCOS-III\Source\os_tmr.c **** *                                  (c) Copyright 2009-2012; Micrium, Inc.; Weston, FL
   7:C:\Micrium\Software\uCOS-III\Source\os_tmr.c **** *                           All rights reserved.  Protected by international copyright laws.
   8:C:\Micrium\Software\uCOS-III\Source\os_tmr.c **** *
   9:C:\Micrium\Software\uCOS-III\Source\os_tmr.c **** *                                                   TIMER MANAGEMENT
  10:C:\Micrium\Software\uCOS-III\Source\os_tmr.c **** *
  11:C:\Micrium\Software\uCOS-III\Source\os_tmr.c **** * File    : OS_TMR.C
  12:C:\Micrium\Software\uCOS-III\Source\os_tmr.c **** * By      : JJL
  13:C:\Micrium\Software\uCOS-III\Source\os_tmr.c **** * Version : V3.03.01
  14:C:\Micrium\Software\uCOS-III\Source\os_tmr.c **** *
  15:C:\Micrium\Software\uCOS-III\Source\os_tmr.c **** * LICENSING TERMS:
  16:C:\Micrium\Software\uCOS-III\Source\os_tmr.c **** * ---------------
  17:C:\Micrium\Software\uCOS-III\Source\os_tmr.c **** *           uC/OS-III is provided in source form for FREE short-term evaluation, for educational us
  18:C:\Micrium\Software\uCOS-III\Source\os_tmr.c **** *           for peaceful research.  If you plan or intend to use uC/OS-III in a commercial applicat
  19:C:\Micrium\Software\uCOS-III\Source\os_tmr.c **** *           product then, you need to contact Micrium to properly license uC/OS-III for its use in 
  20:C:\Micrium\Software\uCOS-III\Source\os_tmr.c **** *           application/product.   We provide ALL the source code for your convenience and to help 
  21:C:\Micrium\Software\uCOS-III\Source\os_tmr.c **** *           experience uC/OS-III.  The fact that the source is provided does NOT mean that you can 
  22:C:\Micrium\Software\uCOS-III\Source\os_tmr.c **** *           it commercially without paying a licensing fee.
ARM GAS  C:\Users\daniel01\AppData\Local\Temp\ccxoNE0f.s 			page 2


  23:C:\Micrium\Software\uCOS-III\Source\os_tmr.c **** *
  24:C:\Micrium\Software\uCOS-III\Source\os_tmr.c **** *           Knowledge of the source code may NOT be used to develop a similar product.
  25:C:\Micrium\Software\uCOS-III\Source\os_tmr.c **** *
  26:C:\Micrium\Software\uCOS-III\Source\os_tmr.c **** *           Please help us continue to provide the embedded community with the finest software avai
  27:C:\Micrium\Software\uCOS-III\Source\os_tmr.c **** *           Your honesty is greatly appreciated.
  28:C:\Micrium\Software\uCOS-III\Source\os_tmr.c **** *
  29:C:\Micrium\Software\uCOS-III\Source\os_tmr.c **** *           You can contact us at www.micrium.com, or by phone at +1 (954) 217-2036.
  30:C:\Micrium\Software\uCOS-III\Source\os_tmr.c **** ***************************************************************************************************
  31:C:\Micrium\Software\uCOS-III\Source\os_tmr.c **** */
  32:C:\Micrium\Software\uCOS-III\Source\os_tmr.c **** 
  33:C:\Micrium\Software\uCOS-III\Source\os_tmr.c **** #define  MICRIUM_SOURCE
  34:C:\Micrium\Software\uCOS-III\Source\os_tmr.c **** #include <os.h>
  35:C:\Micrium\Software\uCOS-III\Source\os_tmr.c **** 
  36:C:\Micrium\Software\uCOS-III\Source\os_tmr.c **** #ifdef VSC_INCLUDE_SOURCE_FILE_NAMES
  37:C:\Micrium\Software\uCOS-III\Source\os_tmr.c **** const  CPU_CHAR  *os_tmr__c = "$Id: $";
  38:C:\Micrium\Software\uCOS-III\Source\os_tmr.c **** #endif
  39:C:\Micrium\Software\uCOS-III\Source\os_tmr.c **** 
  40:C:\Micrium\Software\uCOS-III\Source\os_tmr.c **** 
  41:C:\Micrium\Software\uCOS-III\Source\os_tmr.c **** #if OS_CFG_TMR_EN > 0u
  42:C:\Micrium\Software\uCOS-III\Source\os_tmr.c **** /*
  43:C:\Micrium\Software\uCOS-III\Source\os_tmr.c **** ***************************************************************************************************
  44:C:\Micrium\Software\uCOS-III\Source\os_tmr.c **** *                                                     CONSTANTS
  45:C:\Micrium\Software\uCOS-III\Source\os_tmr.c **** ***************************************************************************************************
  46:C:\Micrium\Software\uCOS-III\Source\os_tmr.c **** */
  47:C:\Micrium\Software\uCOS-III\Source\os_tmr.c **** 
  48:C:\Micrium\Software\uCOS-III\Source\os_tmr.c **** #define  OS_OPT_LINK_DLY       (OS_OPT)(0u)
  49:C:\Micrium\Software\uCOS-III\Source\os_tmr.c **** #define  OS_OPT_LINK_PERIODIC  (OS_OPT)(1u)
  50:C:\Micrium\Software\uCOS-III\Source\os_tmr.c **** 
  51:C:\Micrium\Software\uCOS-III\Source\os_tmr.c **** /*$PAGE*/
  52:C:\Micrium\Software\uCOS-III\Source\os_tmr.c **** /*
  53:C:\Micrium\Software\uCOS-III\Source\os_tmr.c **** ***************************************************************************************************
  54:C:\Micrium\Software\uCOS-III\Source\os_tmr.c **** *                                                   CREATE A TIMER
  55:C:\Micrium\Software\uCOS-III\Source\os_tmr.c **** *
  56:C:\Micrium\Software\uCOS-III\Source\os_tmr.c **** * Description: This function is called by your application code to create a timer.
  57:C:\Micrium\Software\uCOS-III\Source\os_tmr.c **** *
  58:C:\Micrium\Software\uCOS-III\Source\os_tmr.c **** * Arguments  : p_tmr           Is a pointer to a timer control block
  59:C:\Micrium\Software\uCOS-III\Source\os_tmr.c **** *
  60:C:\Micrium\Software\uCOS-III\Source\os_tmr.c **** *              p_name          Is a pointer to an ASCII string that is used to name the timer.  Nam
  61:C:\Micrium\Software\uCOS-III\Source\os_tmr.c **** *                              debugging.
  62:C:\Micrium\Software\uCOS-III\Source\os_tmr.c **** *
  63:C:\Micrium\Software\uCOS-III\Source\os_tmr.c **** *              dly             Initial delay.
  64:C:\Micrium\Software\uCOS-III\Source\os_tmr.c **** *                              If the timer is configured for ONE-SHOT mode, this is the timeout us
  65:C:\Micrium\Software\uCOS-III\Source\os_tmr.c **** *                              If the timer is configured for PERIODIC mode, this is the first time
  66:C:\Micrium\Software\uCOS-III\Source\os_tmr.c **** *                              before the timer starts entering periodic mode
  67:C:\Micrium\Software\uCOS-III\Source\os_tmr.c **** *
  68:C:\Micrium\Software\uCOS-III\Source\os_tmr.c **** *              period          The 'period' being repeated for the timer.
  69:C:\Micrium\Software\uCOS-III\Source\os_tmr.c **** *                              If you specified 'OS_OPT_TMR_PERIODIC' as an option, when the timer 
  70:C:\Micrium\Software\uCOS-III\Source\os_tmr.c **** *                              automatically restart with the same period.
  71:C:\Micrium\Software\uCOS-III\Source\os_tmr.c **** *
  72:C:\Micrium\Software\uCOS-III\Source\os_tmr.c **** *              opt             Specifies either:
  73:C:\Micrium\Software\uCOS-III\Source\os_tmr.c **** *
  74:C:\Micrium\Software\uCOS-III\Source\os_tmr.c **** *                                  OS_OPT_TMR_ONE_SHOT       The timer counts down only once
  75:C:\Micrium\Software\uCOS-III\Source\os_tmr.c **** *                                  OS_OPT_TMR_PERIODIC       The timer counts down and then reloads
  76:C:\Micrium\Software\uCOS-III\Source\os_tmr.c **** *
  77:C:\Micrium\Software\uCOS-III\Source\os_tmr.c **** *              p_callback      Is a pointer to a callback function that will be called when the tim
  78:C:\Micrium\Software\uCOS-III\Source\os_tmr.c **** *                              callback function must be declared as follows:
  79:C:\Micrium\Software\uCOS-III\Source\os_tmr.c **** *
ARM GAS  C:\Users\daniel01\AppData\Local\Temp\ccxoNE0f.s 			page 3


  80:C:\Micrium\Software\uCOS-III\Source\os_tmr.c **** *                                  void  MyCallback (OS_TMR *p_tmr, void *p_arg);
  81:C:\Micrium\Software\uCOS-III\Source\os_tmr.c **** *
  82:C:\Micrium\Software\uCOS-III\Source\os_tmr.c **** *              p_callback_arg  Is an argument (a pointer) that is passed to the callback function w
  83:C:\Micrium\Software\uCOS-III\Source\os_tmr.c **** *
  84:C:\Micrium\Software\uCOS-III\Source\os_tmr.c **** *              p_err           Is a pointer to an error code.  '*p_err' will contain one of the fol
  85:C:\Micrium\Software\uCOS-III\Source\os_tmr.c **** *
  86:C:\Micrium\Software\uCOS-III\Source\os_tmr.c **** *                                 OS_ERR_NONE
  87:C:\Micrium\Software\uCOS-III\Source\os_tmr.c **** *                                 OS_ERR_ILLEGAL_CREATE_RUN_TIME if you are trying to create the ti
  88:C:\Micrium\Software\uCOS-III\Source\os_tmr.c **** *                                                                  OSSafetyCriticalStart().
  89:C:\Micrium\Software\uCOS-III\Source\os_tmr.c **** *                                 OS_ERR_OBJ_CREATED             if the timer has already been crea
  90:C:\Micrium\Software\uCOS-III\Source\os_tmr.c **** *                                 OS_ERR_OBJ_PTR_NULL            is 'p_tmr' is a NULL pointer
  91:C:\Micrium\Software\uCOS-III\Source\os_tmr.c **** *                                 OS_ERR_OBJ_TYPE                if the object type is invalid
  92:C:\Micrium\Software\uCOS-III\Source\os_tmr.c **** *                                 OS_ERR_OPT_INVALID             you specified an invalid option
  93:C:\Micrium\Software\uCOS-III\Source\os_tmr.c **** *                                 OS_ERR_TMR_INVALID_DLY         you specified an invalid delay
  94:C:\Micrium\Software\uCOS-III\Source\os_tmr.c **** *                                 OS_ERR_TMR_INVALID_PERIOD      you specified an invalid period
  95:C:\Micrium\Software\uCOS-III\Source\os_tmr.c **** *                                 OS_ERR_TMR_ISR                 if the call was made from an ISR
  96:C:\Micrium\Software\uCOS-III\Source\os_tmr.c **** *
  97:C:\Micrium\Software\uCOS-III\Source\os_tmr.c **** * Returns    : none
  98:C:\Micrium\Software\uCOS-III\Source\os_tmr.c **** *
  99:C:\Micrium\Software\uCOS-III\Source\os_tmr.c **** * Note(s)    : 1) This function only creates the timer.  In other words, the timer is not started w
 100:C:\Micrium\Software\uCOS-III\Source\os_tmr.c **** *                 start the timer, call OSTmrStart().
 101:C:\Micrium\Software\uCOS-III\Source\os_tmr.c **** ***************************************************************************************************
 102:C:\Micrium\Software\uCOS-III\Source\os_tmr.c **** */
 103:C:\Micrium\Software\uCOS-III\Source\os_tmr.c **** 
 104:C:\Micrium\Software\uCOS-III\Source\os_tmr.c **** void  OSTmrCreate (OS_TMR               *p_tmr,
 105:C:\Micrium\Software\uCOS-III\Source\os_tmr.c ****                    CPU_CHAR             *p_name,
 106:C:\Micrium\Software\uCOS-III\Source\os_tmr.c ****                    OS_TICK               dly,
 107:C:\Micrium\Software\uCOS-III\Source\os_tmr.c ****                    OS_TICK               period,
 108:C:\Micrium\Software\uCOS-III\Source\os_tmr.c ****                    OS_OPT                opt,
 109:C:\Micrium\Software\uCOS-III\Source\os_tmr.c ****                    OS_TMR_CALLBACK_PTR   p_callback,
 110:C:\Micrium\Software\uCOS-III\Source\os_tmr.c ****                    void                 *p_callback_arg,
 111:C:\Micrium\Software\uCOS-III\Source\os_tmr.c ****                    OS_ERR               *p_err)
 112:C:\Micrium\Software\uCOS-III\Source\os_tmr.c **** {
  32              		.loc 1 112 0
  33              		.cfi_startproc
  34              		@ args = 16, pretend = 0, frame = 24
  35              		@ frame_needed = 1, uses_anonymous_args = 0
  36 0000 80B5     		push	{r7, lr}
  37              	.LCFI0:
  38              		.cfi_def_cfa_offset 8
  39 0002 86B0     		sub	sp, sp, #24
  40              	.LCFI1:
  41              		.cfi_def_cfa_offset 32
  42 0004 00AF     		add	r7, sp, #0
  43              		.cfi_offset 14, -4
  44              		.cfi_offset 7, -8
  45              	.LCFI2:
  46              		.cfi_def_cfa_register 7
  47 0006 F860     		str	r0, [r7, #12]
  48 0008 B960     		str	r1, [r7, #8]
  49 000a 7A60     		str	r2, [r7, #4]
  50 000c 3B60     		str	r3, [r7, #0]
 113:C:\Micrium\Software\uCOS-III\Source\os_tmr.c ****     CPU_SR_ALLOC();
  51              		.loc 1 113 0
  52 000e 4FF00003 		mov	r3, #0
  53 0012 7B61     		str	r3, [r7, #20]
 114:C:\Micrium\Software\uCOS-III\Source\os_tmr.c **** 
ARM GAS  C:\Users\daniel01\AppData\Local\Temp\ccxoNE0f.s 			page 4


 115:C:\Micrium\Software\uCOS-III\Source\os_tmr.c **** 
 116:C:\Micrium\Software\uCOS-III\Source\os_tmr.c **** 
 117:C:\Micrium\Software\uCOS-III\Source\os_tmr.c **** #ifdef OS_SAFETY_CRITICAL
 118:C:\Micrium\Software\uCOS-III\Source\os_tmr.c ****     if (p_err == (OS_ERR *)0) {
 119:C:\Micrium\Software\uCOS-III\Source\os_tmr.c ****         OS_SAFETY_CRITICAL_EXCEPTION();
 120:C:\Micrium\Software\uCOS-III\Source\os_tmr.c ****         return;
 121:C:\Micrium\Software\uCOS-III\Source\os_tmr.c ****     }
 122:C:\Micrium\Software\uCOS-III\Source\os_tmr.c **** #endif
 123:C:\Micrium\Software\uCOS-III\Source\os_tmr.c **** 
 124:C:\Micrium\Software\uCOS-III\Source\os_tmr.c **** #ifdef OS_SAFETY_CRITICAL_IEC61508
 125:C:\Micrium\Software\uCOS-III\Source\os_tmr.c ****     if (OSSafetyCriticalStartFlag == DEF_TRUE) {
 126:C:\Micrium\Software\uCOS-III\Source\os_tmr.c ****        *p_err = OS_ERR_ILLEGAL_CREATE_RUN_TIME;
 127:C:\Micrium\Software\uCOS-III\Source\os_tmr.c ****         return;
 128:C:\Micrium\Software\uCOS-III\Source\os_tmr.c ****     }
 129:C:\Micrium\Software\uCOS-III\Source\os_tmr.c **** #endif
 130:C:\Micrium\Software\uCOS-III\Source\os_tmr.c **** 
 131:C:\Micrium\Software\uCOS-III\Source\os_tmr.c **** #if OS_CFG_CALLED_FROM_ISR_CHK_EN > 0u
 132:C:\Micrium\Software\uCOS-III\Source\os_tmr.c ****     if (OSIntNestingCtr > (OS_NESTING_CTR)0) {              /* See if trying to call from an ISR   
  54              		.loc 1 132 0
  55 0014 40F20003 		movw	r3, #:lower16:OSIntNestingCtr
  56 0018 C0F20003 		movt	r3, #:upper16:OSIntNestingCtr
  57 001c 1B78     		ldrb	r3, [r3, #0]	@ zero_extendqisi2
  58 001e 002B     		cmp	r3, #0
  59 0020 04D0     		beq	.L2
 133:C:\Micrium\Software\uCOS-III\Source\os_tmr.c ****        *p_err = OS_ERR_TMR_ISR;
  60              		.loc 1 133 0
  61 0022 FB6A     		ldr	r3, [r7, #44]
  62 0024 47F24332 		movw	r2, #29507
  63 0028 1A80     		strh	r2, [r3, #0]	@ movhi
 134:C:\Micrium\Software\uCOS-III\Source\os_tmr.c ****         return;
  64              		.loc 1 134 0
  65 002a 6CE0     		b	.L11
  66              	.L2:
 135:C:\Micrium\Software\uCOS-III\Source\os_tmr.c ****     }
 136:C:\Micrium\Software\uCOS-III\Source\os_tmr.c **** #endif
 137:C:\Micrium\Software\uCOS-III\Source\os_tmr.c **** 
 138:C:\Micrium\Software\uCOS-III\Source\os_tmr.c **** #if OS_CFG_ARG_CHK_EN > 0u
 139:C:\Micrium\Software\uCOS-III\Source\os_tmr.c ****     if (p_tmr == (OS_TMR *)0) {                             /* Validate 'p_tmr'                    
  67              		.loc 1 139 0
  68 002c FB68     		ldr	r3, [r7, #12]
  69 002e 002B     		cmp	r3, #0
  70 0030 04D1     		bne	.L4
 140:C:\Micrium\Software\uCOS-III\Source\os_tmr.c ****        *p_err = OS_ERR_OBJ_PTR_NULL;
  71              		.loc 1 140 0
  72 0032 FB6A     		ldr	r3, [r7, #44]
  73 0034 45F6C352 		movw	r2, #24003
  74 0038 1A80     		strh	r2, [r3, #0]	@ movhi
 141:C:\Micrium\Software\uCOS-III\Source\os_tmr.c ****         return;
  75              		.loc 1 141 0
  76 003a 64E0     		b	.L11
  77              	.L4:
 142:C:\Micrium\Software\uCOS-III\Source\os_tmr.c ****     }
 143:C:\Micrium\Software\uCOS-III\Source\os_tmr.c **** 
 144:C:\Micrium\Software\uCOS-III\Source\os_tmr.c ****     switch (opt) {
  78              		.loc 1 144 0
  79 003c 3B8C     		ldrh	r3, [r7, #32]
  80 003e 012B     		cmp	r3, #1
ARM GAS  C:\Users\daniel01\AppData\Local\Temp\ccxoNE0f.s 			page 5


  81 0040 09D0     		beq	.L6
  82 0042 022B     		cmp	r3, #2
  83 0044 0FD1     		bne	.L12
  84              	.L7:
 145:C:\Micrium\Software\uCOS-III\Source\os_tmr.c ****         case OS_OPT_TMR_PERIODIC:
 146:C:\Micrium\Software\uCOS-III\Source\os_tmr.c ****              if (period == (OS_TICK)0) {
  85              		.loc 1 146 0
  86 0046 3B68     		ldr	r3, [r7, #0]
  87 0048 002B     		cmp	r3, #0
  88 004a 11D1     		bne	.L13
 147:C:\Micrium\Software\uCOS-III\Source\os_tmr.c ****                 *p_err = OS_ERR_TMR_INVALID_PERIOD;
  89              		.loc 1 147 0
  90 004c FB6A     		ldr	r3, [r7, #44]
  91 004e 47F24032 		movw	r2, #29504
  92 0052 1A80     		strh	r2, [r3, #0]	@ movhi
 148:C:\Micrium\Software\uCOS-III\Source\os_tmr.c ****                  return;
  93              		.loc 1 148 0
  94 0054 57E0     		b	.L11
  95              	.L6:
 149:C:\Micrium\Software\uCOS-III\Source\os_tmr.c ****              }
 150:C:\Micrium\Software\uCOS-III\Source\os_tmr.c ****              break;
 151:C:\Micrium\Software\uCOS-III\Source\os_tmr.c **** 
 152:C:\Micrium\Software\uCOS-III\Source\os_tmr.c ****         case OS_OPT_TMR_ONE_SHOT:
 153:C:\Micrium\Software\uCOS-III\Source\os_tmr.c ****              if (dly == (OS_TICK)0) {
  96              		.loc 1 153 0
  97 0056 7B68     		ldr	r3, [r7, #4]
  98 0058 002B     		cmp	r3, #0
  99 005a 0BD1     		bne	.L14
 154:C:\Micrium\Software\uCOS-III\Source\os_tmr.c ****                 *p_err = OS_ERR_TMR_INVALID_DLY;
 100              		.loc 1 154 0
 101 005c FB6A     		ldr	r3, [r7, #44]
 102 005e 47F23F32 		movw	r2, #29503
 103 0062 1A80     		strh	r2, [r3, #0]	@ movhi
 155:C:\Micrium\Software\uCOS-III\Source\os_tmr.c ****                  return;
 104              		.loc 1 155 0
 105 0064 4FE0     		b	.L11
 106              	.L12:
 156:C:\Micrium\Software\uCOS-III\Source\os_tmr.c ****              }
 157:C:\Micrium\Software\uCOS-III\Source\os_tmr.c ****              break;
 158:C:\Micrium\Software\uCOS-III\Source\os_tmr.c **** 
 159:C:\Micrium\Software\uCOS-III\Source\os_tmr.c ****         default:
 160:C:\Micrium\Software\uCOS-III\Source\os_tmr.c ****             *p_err = OS_ERR_OPT_INVALID;
 107              		.loc 1 160 0
 108 0066 FB6A     		ldr	r3, [r7, #44]
 109 0068 45F62562 		movw	r2, #24101
 110 006c 1A80     		strh	r2, [r3, #0]	@ movhi
 161:C:\Micrium\Software\uCOS-III\Source\os_tmr.c ****              return;
 111              		.loc 1 161 0
 112 006e 4AE0     		b	.L11
 113              	.L13:
 114              		.loc 1 150 0
 115 0070 00BF     		nop
 116 0072 00E0     		b	.L9
 117              	.L14:
 118              		.loc 1 157 0
 119 0074 00BF     		nop
 120              	.L9:
ARM GAS  C:\Users\daniel01\AppData\Local\Temp\ccxoNE0f.s 			page 6


 162:C:\Micrium\Software\uCOS-III\Source\os_tmr.c ****     }
 163:C:\Micrium\Software\uCOS-III\Source\os_tmr.c **** #endif
 164:C:\Micrium\Software\uCOS-III\Source\os_tmr.c **** 
 165:C:\Micrium\Software\uCOS-III\Source\os_tmr.c ****     OS_CRITICAL_ENTER();
 121              		.loc 1 165 0
 122 0076 FFF7FEFF 		bl	CPU_SR_Save
 123 007a 0346     		mov	r3, r0
 124 007c 7B61     		str	r3, [r7, #20]
 166:C:\Micrium\Software\uCOS-III\Source\os_tmr.c ****     p_tmr->State          = (OS_STATE           )OS_TMR_STATE_STOPPED;     /* Initialize the timer 
 125              		.loc 1 166 0
 126 007e FB68     		ldr	r3, [r7, #12]
 127 0080 4FF00102 		mov	r2, #1
 128 0084 83F82A20 		strb	r2, [r3, #42]
 167:C:\Micrium\Software\uCOS-III\Source\os_tmr.c ****     p_tmr->Type           = (OS_OBJ_TYPE        )OS_OBJ_TYPE_TMR;
 129              		.loc 1 167 0
 130 0088 FA68     		ldr	r2, [r7, #12]
 131 008a 44F65453 		movw	r3, #:lower16:542264660
 132 008e C2F25203 		movt	r3, #:upper16:542264660
 133 0092 1360     		str	r3, [r2, #0]
 168:C:\Micrium\Software\uCOS-III\Source\os_tmr.c ****     p_tmr->NamePtr        = (CPU_CHAR          *)p_name;
 134              		.loc 1 168 0
 135 0094 FB68     		ldr	r3, [r7, #12]
 136 0096 BA68     		ldr	r2, [r7, #8]
 137 0098 5A60     		str	r2, [r3, #4]
 169:C:\Micrium\Software\uCOS-III\Source\os_tmr.c ****     p_tmr->Dly            = (OS_TICK            )dly;
 138              		.loc 1 169 0
 139 009a FB68     		ldr	r3, [r7, #12]
 140 009c 7A68     		ldr	r2, [r7, #4]
 141 009e 1A62     		str	r2, [r3, #32]
 170:C:\Micrium\Software\uCOS-III\Source\os_tmr.c ****     p_tmr->Match          = (OS_TICK            )0;
 142              		.loc 1 170 0
 143 00a0 FB68     		ldr	r3, [r7, #12]
 144 00a2 4FF00002 		mov	r2, #0
 145 00a6 9A61     		str	r2, [r3, #24]
 171:C:\Micrium\Software\uCOS-III\Source\os_tmr.c ****     p_tmr->Remain         = (OS_TICK            )0;
 146              		.loc 1 171 0
 147 00a8 FB68     		ldr	r3, [r7, #12]
 148 00aa 4FF00002 		mov	r2, #0
 149 00ae DA61     		str	r2, [r3, #28]
 172:C:\Micrium\Software\uCOS-III\Source\os_tmr.c ****     p_tmr->Period         = (OS_TICK            )period;
 150              		.loc 1 172 0
 151 00b0 FB68     		ldr	r3, [r7, #12]
 152 00b2 3A68     		ldr	r2, [r7, #0]
 153 00b4 5A62     		str	r2, [r3, #36]
 173:C:\Micrium\Software\uCOS-III\Source\os_tmr.c ****     p_tmr->Opt            = (OS_OPT             )opt;
 154              		.loc 1 173 0
 155 00b6 FB68     		ldr	r3, [r7, #12]
 156 00b8 3A8C     		ldrh	r2, [r7, #32]	@ movhi
 157 00ba 1A85     		strh	r2, [r3, #40]	@ movhi
 174:C:\Micrium\Software\uCOS-III\Source\os_tmr.c ****     p_tmr->CallbackPtr    = (OS_TMR_CALLBACK_PTR)p_callback;
 158              		.loc 1 174 0
 159 00bc FB68     		ldr	r3, [r7, #12]
 160 00be 7A6A     		ldr	r2, [r7, #36]
 161 00c0 9A60     		str	r2, [r3, #8]
 175:C:\Micrium\Software\uCOS-III\Source\os_tmr.c ****     p_tmr->CallbackPtrArg = (void              *)p_callback_arg;
 162              		.loc 1 175 0
 163 00c2 FB68     		ldr	r3, [r7, #12]
ARM GAS  C:\Users\daniel01\AppData\Local\Temp\ccxoNE0f.s 			page 7


 164 00c4 BA6A     		ldr	r2, [r7, #40]
 165 00c6 DA60     		str	r2, [r3, #12]
 176:C:\Micrium\Software\uCOS-III\Source\os_tmr.c ****     p_tmr->NextPtr        = (OS_TMR            *)0;
 166              		.loc 1 176 0
 167 00c8 FB68     		ldr	r3, [r7, #12]
 168 00ca 4FF00002 		mov	r2, #0
 169 00ce 1A61     		str	r2, [r3, #16]
 177:C:\Micrium\Software\uCOS-III\Source\os_tmr.c ****     p_tmr->PrevPtr        = (OS_TMR            *)0;
 170              		.loc 1 177 0
 171 00d0 FB68     		ldr	r3, [r7, #12]
 172 00d2 4FF00002 		mov	r2, #0
 173 00d6 5A61     		str	r2, [r3, #20]
 178:C:\Micrium\Software\uCOS-III\Source\os_tmr.c **** 
 179:C:\Micrium\Software\uCOS-III\Source\os_tmr.c **** #if OS_CFG_DBG_EN > 0u
 180:C:\Micrium\Software\uCOS-III\Source\os_tmr.c ****     OS_TmrDbgListAdd(p_tmr);
 174              		.loc 1 180 0
 175 00d8 F868     		ldr	r0, [r7, #12]
 176 00da FFF7FEFF 		bl	OS_TmrDbgListAdd
 181:C:\Micrium\Software\uCOS-III\Source\os_tmr.c **** #endif
 182:C:\Micrium\Software\uCOS-III\Source\os_tmr.c ****     OSTmrQty++;                                             /* Keep track of the number of timers c
 177              		.loc 1 182 0
 178 00de 40F20003 		movw	r3, #:lower16:OSTmrQty
 179 00e2 C0F20003 		movt	r3, #:upper16:OSTmrQty
 180 00e6 1B88     		ldrh	r3, [r3, #0]
 181 00e8 03F10103 		add	r3, r3, #1
 182 00ec 9AB2     		uxth	r2, r3
 183 00ee 40F20003 		movw	r3, #:lower16:OSTmrQty
 184 00f2 C0F20003 		movt	r3, #:upper16:OSTmrQty
 185 00f6 1A80     		strh	r2, [r3, #0]	@ movhi
 183:C:\Micrium\Software\uCOS-III\Source\os_tmr.c **** 
 184:C:\Micrium\Software\uCOS-III\Source\os_tmr.c ****     OS_CRITICAL_EXIT_NO_SCHED();
 186              		.loc 1 184 0
 187 00f8 7869     		ldr	r0, [r7, #20]
 188 00fa FFF7FEFF 		bl	CPU_SR_Restore
 185:C:\Micrium\Software\uCOS-III\Source\os_tmr.c ****    *p_err = OS_ERR_NONE;
 189              		.loc 1 185 0
 190 00fe FB6A     		ldr	r3, [r7, #44]
 191 0100 4FF00002 		mov	r2, #0
 192 0104 1A80     		strh	r2, [r3, #0]	@ movhi
 193              	.L11:
 186:C:\Micrium\Software\uCOS-III\Source\os_tmr.c **** }
 194              		.loc 1 186 0
 195 0106 07F11807 		add	r7, r7, #24
 196 010a BD46     		mov	sp, r7
 197 010c 80BD     		pop	{r7, pc}
 198              		.cfi_endproc
 199              	.LFE0:
 200              		.size	OSTmrCreate, .-OSTmrCreate
 201 010e 00BF     		.section	.text.OSTmrDel,"ax",%progbits
 202              		.align	2
 203              		.global	OSTmrDel
 204              		.thumb
 205              		.thumb_func
 206              		.type	OSTmrDel, %function
 207              	OSTmrDel:
 208              	.LFB1:
 187:C:\Micrium\Software\uCOS-III\Source\os_tmr.c **** 
ARM GAS  C:\Users\daniel01\AppData\Local\Temp\ccxoNE0f.s 			page 8


 188:C:\Micrium\Software\uCOS-III\Source\os_tmr.c **** /*$PAGE*/
 189:C:\Micrium\Software\uCOS-III\Source\os_tmr.c **** /*
 190:C:\Micrium\Software\uCOS-III\Source\os_tmr.c **** ***************************************************************************************************
 191:C:\Micrium\Software\uCOS-III\Source\os_tmr.c **** *                                                   DELETE A TIMER
 192:C:\Micrium\Software\uCOS-III\Source\os_tmr.c **** *
 193:C:\Micrium\Software\uCOS-III\Source\os_tmr.c **** * Description: This function is called by your application code to delete a timer.
 194:C:\Micrium\Software\uCOS-III\Source\os_tmr.c **** *
 195:C:\Micrium\Software\uCOS-III\Source\os_tmr.c **** * Arguments  : p_tmr          Is a pointer to the timer to stop and delete.
 196:C:\Micrium\Software\uCOS-III\Source\os_tmr.c **** *
 197:C:\Micrium\Software\uCOS-III\Source\os_tmr.c **** *              p_err          Is a pointer to an error code.  '*p_err' will contain one of the foll
 198:C:\Micrium\Software\uCOS-III\Source\os_tmr.c **** *
 199:C:\Micrium\Software\uCOS-III\Source\os_tmr.c **** *                                 OS_ERR_NONE
 200:C:\Micrium\Software\uCOS-III\Source\os_tmr.c **** *                                 OS_ERR_OBJ_TYPE             'p_tmr' is not pointing to a timer
 201:C:\Micrium\Software\uCOS-III\Source\os_tmr.c **** *                                 OS_ERR_TMR_INVALID          'p_tmr' is a NULL pointer
 202:C:\Micrium\Software\uCOS-III\Source\os_tmr.c **** *                                 OS_ERR_TMR_ISR              if the function was called from an IS
 203:C:\Micrium\Software\uCOS-III\Source\os_tmr.c **** *                                 OS_ERR_TMR_INACTIVE         if the timer was not created
 204:C:\Micrium\Software\uCOS-III\Source\os_tmr.c **** *                                 OS_ERR_TMR_INVALID_STATE    the timer is in an invalid state
 205:C:\Micrium\Software\uCOS-III\Source\os_tmr.c **** *
 206:C:\Micrium\Software\uCOS-III\Source\os_tmr.c **** * Returns    : DEF_TRUE   if the timer was deleted
 207:C:\Micrium\Software\uCOS-III\Source\os_tmr.c **** *              DEF_FALSE  if not or upon an error
 208:C:\Micrium\Software\uCOS-III\Source\os_tmr.c **** ***************************************************************************************************
 209:C:\Micrium\Software\uCOS-III\Source\os_tmr.c **** */
 210:C:\Micrium\Software\uCOS-III\Source\os_tmr.c **** 
 211:C:\Micrium\Software\uCOS-III\Source\os_tmr.c **** #if OS_CFG_TMR_DEL_EN > 0u
 212:C:\Micrium\Software\uCOS-III\Source\os_tmr.c **** CPU_BOOLEAN  OSTmrDel (OS_TMR  *p_tmr,
 213:C:\Micrium\Software\uCOS-III\Source\os_tmr.c ****                        OS_ERR  *p_err)
 214:C:\Micrium\Software\uCOS-III\Source\os_tmr.c **** {
 209              		.loc 1 214 0
 210              		.cfi_startproc
 211              		@ args = 0, pretend = 0, frame = 16
 212              		@ frame_needed = 1, uses_anonymous_args = 0
 213 0000 80B5     		push	{r7, lr}
 214              	.LCFI3:
 215              		.cfi_def_cfa_offset 8
 216 0002 84B0     		sub	sp, sp, #16
 217              	.LCFI4:
 218              		.cfi_def_cfa_offset 24
 219 0004 00AF     		add	r7, sp, #0
 220              		.cfi_offset 14, -4
 221              		.cfi_offset 7, -8
 222              	.LCFI5:
 223              		.cfi_def_cfa_register 7
 224 0006 7860     		str	r0, [r7, #4]
 225 0008 3960     		str	r1, [r7, #0]
 215:C:\Micrium\Software\uCOS-III\Source\os_tmr.c ****     OS_ERR       err;
 216:C:\Micrium\Software\uCOS-III\Source\os_tmr.c ****     CPU_BOOLEAN  success;
 217:C:\Micrium\Software\uCOS-III\Source\os_tmr.c **** 
 218:C:\Micrium\Software\uCOS-III\Source\os_tmr.c **** 
 219:C:\Micrium\Software\uCOS-III\Source\os_tmr.c **** 
 220:C:\Micrium\Software\uCOS-III\Source\os_tmr.c **** #ifdef OS_SAFETY_CRITICAL
 221:C:\Micrium\Software\uCOS-III\Source\os_tmr.c ****     if (p_err == (OS_ERR *)0) {
 222:C:\Micrium\Software\uCOS-III\Source\os_tmr.c ****         OS_SAFETY_CRITICAL_EXCEPTION();
 223:C:\Micrium\Software\uCOS-III\Source\os_tmr.c ****         return (DEF_FALSE);
 224:C:\Micrium\Software\uCOS-III\Source\os_tmr.c ****     }
 225:C:\Micrium\Software\uCOS-III\Source\os_tmr.c **** #endif
 226:C:\Micrium\Software\uCOS-III\Source\os_tmr.c **** 
 227:C:\Micrium\Software\uCOS-III\Source\os_tmr.c **** #if OS_CFG_CALLED_FROM_ISR_CHK_EN > 0u
ARM GAS  C:\Users\daniel01\AppData\Local\Temp\ccxoNE0f.s 			page 9


 228:C:\Micrium\Software\uCOS-III\Source\os_tmr.c ****     if (OSIntNestingCtr > (OS_NESTING_CTR)0) {              /* See if trying to call from an ISR   
 226              		.loc 1 228 0
 227 000a 40F20003 		movw	r3, #:lower16:OSIntNestingCtr
 228 000e C0F20003 		movt	r3, #:upper16:OSIntNestingCtr
 229 0012 1B78     		ldrb	r3, [r3, #0]	@ zero_extendqisi2
 230 0014 002B     		cmp	r3, #0
 231 0016 06D0     		beq	.L16
 229:C:\Micrium\Software\uCOS-III\Source\os_tmr.c ****        *p_err  = OS_ERR_TMR_ISR;
 232              		.loc 1 229 0
 233 0018 3B68     		ldr	r3, [r7, #0]
 234 001a 47F24332 		movw	r2, #29507
 235 001e 1A80     		strh	r2, [r3, #0]	@ movhi
 230:C:\Micrium\Software\uCOS-III\Source\os_tmr.c ****         return (DEF_FALSE);
 236              		.loc 1 230 0
 237 0020 4FF00003 		mov	r3, #0
 238 0024 6BE0     		b	.L17
 239              	.L16:
 231:C:\Micrium\Software\uCOS-III\Source\os_tmr.c ****     }
 232:C:\Micrium\Software\uCOS-III\Source\os_tmr.c **** #endif
 233:C:\Micrium\Software\uCOS-III\Source\os_tmr.c **** 
 234:C:\Micrium\Software\uCOS-III\Source\os_tmr.c **** #if OS_CFG_ARG_CHK_EN > 0u
 235:C:\Micrium\Software\uCOS-III\Source\os_tmr.c ****     if (p_tmr == (OS_TMR *)0) {
 240              		.loc 1 235 0
 241 0026 7B68     		ldr	r3, [r7, #4]
 242 0028 002B     		cmp	r3, #0
 243 002a 06D1     		bne	.L18
 236:C:\Micrium\Software\uCOS-III\Source\os_tmr.c ****        *p_err = OS_ERR_TMR_INVALID;
 244              		.loc 1 236 0
 245 002c 3B68     		ldr	r3, [r7, #0]
 246 002e 47F24232 		movw	r2, #29506
 247 0032 1A80     		strh	r2, [r3, #0]	@ movhi
 237:C:\Micrium\Software\uCOS-III\Source\os_tmr.c ****         return (DEF_FALSE);
 248              		.loc 1 237 0
 249 0034 4FF00003 		mov	r3, #0
 250 0038 61E0     		b	.L17
 251              	.L18:
 238:C:\Micrium\Software\uCOS-III\Source\os_tmr.c ****     }
 239:C:\Micrium\Software\uCOS-III\Source\os_tmr.c **** #endif
 240:C:\Micrium\Software\uCOS-III\Source\os_tmr.c **** 
 241:C:\Micrium\Software\uCOS-III\Source\os_tmr.c **** #if OS_CFG_OBJ_TYPE_CHK_EN > 0u
 242:C:\Micrium\Software\uCOS-III\Source\os_tmr.c ****     if (p_tmr->Type != OS_OBJ_TYPE_TMR) {                   /* Make sure timer was created         
 243:C:\Micrium\Software\uCOS-III\Source\os_tmr.c ****        *p_err = OS_ERR_OBJ_TYPE;
 244:C:\Micrium\Software\uCOS-III\Source\os_tmr.c ****         return (DEF_FALSE);
 245:C:\Micrium\Software\uCOS-III\Source\os_tmr.c ****     }
 246:C:\Micrium\Software\uCOS-III\Source\os_tmr.c **** #endif
 247:C:\Micrium\Software\uCOS-III\Source\os_tmr.c **** 
 248:C:\Micrium\Software\uCOS-III\Source\os_tmr.c ****     OSSchedLock(&err);
 252              		.loc 1 248 0
 253 003a 07F10C03 		add	r3, r7, #12
 254 003e 1846     		mov	r0, r3
 255 0040 FFF7FEFF 		bl	OSSchedLock
 249:C:\Micrium\Software\uCOS-III\Source\os_tmr.c **** #if OS_CFG_DBG_EN > 0u
 250:C:\Micrium\Software\uCOS-III\Source\os_tmr.c ****     OS_TmrDbgListRemove(p_tmr);
 256              		.loc 1 250 0
 257 0044 7868     		ldr	r0, [r7, #4]
 258 0046 FFF7FEFF 		bl	OS_TmrDbgListRemove
 251:C:\Micrium\Software\uCOS-III\Source\os_tmr.c **** #endif
ARM GAS  C:\Users\daniel01\AppData\Local\Temp\ccxoNE0f.s 			page 10


 252:C:\Micrium\Software\uCOS-III\Source\os_tmr.c ****     OSTmrQty--;                                             /* One less timer                      
 259              		.loc 1 252 0
 260 004a 40F20003 		movw	r3, #:lower16:OSTmrQty
 261 004e C0F20003 		movt	r3, #:upper16:OSTmrQty
 262 0052 1B88     		ldrh	r3, [r3, #0]
 263 0054 03F1FF33 		add	r3, r3, #-1
 264 0058 9AB2     		uxth	r2, r3
 265 005a 40F20003 		movw	r3, #:lower16:OSTmrQty
 266 005e C0F20003 		movt	r3, #:upper16:OSTmrQty
 267 0062 1A80     		strh	r2, [r3, #0]	@ movhi
 253:C:\Micrium\Software\uCOS-III\Source\os_tmr.c **** 
 254:C:\Micrium\Software\uCOS-III\Source\os_tmr.c ****     switch (p_tmr->State) {
 268              		.loc 1 254 0
 269 0064 7B68     		ldr	r3, [r7, #4]
 270 0066 93F82A30 		ldrb	r3, [r3, #42]	@ zero_extendqisi2
 271 006a 032B     		cmp	r3, #3
 272 006c 3AD8     		bhi	.L19
 273 006e 01A2     		adr	r2, .L23
 274 0070 52F823F0 		ldr	pc, [r2, r3, lsl #2]
 275              		.align	2
 276              	.L23:
 277 0074 CB000000 		.word	.L20+1
 278 0078 AB000000 		.word	.L21+1
 279 007c 85000000 		.word	.L22+1
 280 0080 AB000000 		.word	.L21+1
 281              	.L22:
 255:C:\Micrium\Software\uCOS-III\Source\os_tmr.c ****         case OS_TMR_STATE_RUNNING:
 256:C:\Micrium\Software\uCOS-III\Source\os_tmr.c ****              OS_TmrUnlink(p_tmr);                           /* Remove from current wheel spoke     
 282              		.loc 1 256 0
 283 0084 7868     		ldr	r0, [r7, #4]
 284 0086 FFF7FEFF 		bl	OS_TmrUnlink
 257:C:\Micrium\Software\uCOS-III\Source\os_tmr.c ****              OS_TmrClr(p_tmr);
 285              		.loc 1 257 0
 286 008a 7868     		ldr	r0, [r7, #4]
 287 008c FFF7FEFF 		bl	OS_TmrClr
 258:C:\Micrium\Software\uCOS-III\Source\os_tmr.c ****              OSSchedUnlock(&err);
 288              		.loc 1 258 0
 289 0090 07F10C03 		add	r3, r7, #12
 290 0094 1846     		mov	r0, r3
 291 0096 FFF7FEFF 		bl	OSSchedUnlock
 259:C:\Micrium\Software\uCOS-III\Source\os_tmr.c ****             *p_err   = OS_ERR_NONE;
 292              		.loc 1 259 0
 293 009a 3B68     		ldr	r3, [r7, #0]
 294 009c 4FF00002 		mov	r2, #0
 295 00a0 1A80     		strh	r2, [r3, #0]	@ movhi
 260:C:\Micrium\Software\uCOS-III\Source\os_tmr.c ****              success = DEF_TRUE;
 296              		.loc 1 260 0
 297 00a2 4FF00103 		mov	r3, #1
 298 00a6 FB73     		strb	r3, [r7, #15]
 261:C:\Micrium\Software\uCOS-III\Source\os_tmr.c ****              break;
 299              		.loc 1 261 0
 300 00a8 28E0     		b	.L24
 301              	.L21:
 262:C:\Micrium\Software\uCOS-III\Source\os_tmr.c **** 
 263:C:\Micrium\Software\uCOS-III\Source\os_tmr.c ****         case OS_TMR_STATE_STOPPED:                          /* Timer has not started or ...        
 264:C:\Micrium\Software\uCOS-III\Source\os_tmr.c ****         case OS_TMR_STATE_COMPLETED:                        /* ... timer has completed the ONE-SHOT
 265:C:\Micrium\Software\uCOS-III\Source\os_tmr.c ****              OS_TmrClr(p_tmr);                              /* Clear timer fields                  
ARM GAS  C:\Users\daniel01\AppData\Local\Temp\ccxoNE0f.s 			page 11


 302              		.loc 1 265 0
 303 00aa 7868     		ldr	r0, [r7, #4]
 304 00ac FFF7FEFF 		bl	OS_TmrClr
 266:C:\Micrium\Software\uCOS-III\Source\os_tmr.c ****              OSSchedUnlock(&err);
 305              		.loc 1 266 0
 306 00b0 07F10C03 		add	r3, r7, #12
 307 00b4 1846     		mov	r0, r3
 308 00b6 FFF7FEFF 		bl	OSSchedUnlock
 267:C:\Micrium\Software\uCOS-III\Source\os_tmr.c ****             *p_err   = OS_ERR_NONE;
 309              		.loc 1 267 0
 310 00ba 3B68     		ldr	r3, [r7, #0]
 311 00bc 4FF00002 		mov	r2, #0
 312 00c0 1A80     		strh	r2, [r3, #0]	@ movhi
 268:C:\Micrium\Software\uCOS-III\Source\os_tmr.c ****              success = DEF_TRUE;
 313              		.loc 1 268 0
 314 00c2 4FF00103 		mov	r3, #1
 315 00c6 FB73     		strb	r3, [r7, #15]
 269:C:\Micrium\Software\uCOS-III\Source\os_tmr.c ****              break;
 316              		.loc 1 269 0
 317 00c8 18E0     		b	.L24
 318              	.L20:
 270:C:\Micrium\Software\uCOS-III\Source\os_tmr.c ****              
 271:C:\Micrium\Software\uCOS-III\Source\os_tmr.c ****         case OS_TMR_STATE_UNUSED:                           /* Already deleted                     
 272:C:\Micrium\Software\uCOS-III\Source\os_tmr.c ****              OSSchedUnlock(&err);
 319              		.loc 1 272 0
 320 00ca 07F10C03 		add	r3, r7, #12
 321 00ce 1846     		mov	r0, r3
 322 00d0 FFF7FEFF 		bl	OSSchedUnlock
 273:C:\Micrium\Software\uCOS-III\Source\os_tmr.c ****             *p_err   = OS_ERR_TMR_INACTIVE;
 323              		.loc 1 273 0
 324 00d4 3B68     		ldr	r3, [r7, #0]
 325 00d6 47F23D32 		movw	r2, #29501
 326 00da 1A80     		strh	r2, [r3, #0]	@ movhi
 274:C:\Micrium\Software\uCOS-III\Source\os_tmr.c ****              success = DEF_FALSE;
 327              		.loc 1 274 0
 328 00dc 4FF00003 		mov	r3, #0
 329 00e0 FB73     		strb	r3, [r7, #15]
 275:C:\Micrium\Software\uCOS-III\Source\os_tmr.c ****              break;
 330              		.loc 1 275 0
 331 00e2 0BE0     		b	.L24
 332              	.L19:
 276:C:\Micrium\Software\uCOS-III\Source\os_tmr.c **** 
 277:C:\Micrium\Software\uCOS-III\Source\os_tmr.c ****         default:
 278:C:\Micrium\Software\uCOS-III\Source\os_tmr.c ****              OSSchedUnlock(&err);
 333              		.loc 1 278 0
 334 00e4 07F10C03 		add	r3, r7, #12
 335 00e8 1846     		mov	r0, r3
 336 00ea FFF7FEFF 		bl	OSSchedUnlock
 279:C:\Micrium\Software\uCOS-III\Source\os_tmr.c ****             *p_err   = OS_ERR_TMR_INVALID_STATE;
 337              		.loc 1 279 0
 338 00ee 3B68     		ldr	r3, [r7, #0]
 339 00f0 47F24132 		movw	r2, #29505
 340 00f4 1A80     		strh	r2, [r3, #0]	@ movhi
 280:C:\Micrium\Software\uCOS-III\Source\os_tmr.c ****              success = DEF_FALSE;
 341              		.loc 1 280 0
 342 00f6 4FF00003 		mov	r3, #0
 343 00fa FB73     		strb	r3, [r7, #15]
ARM GAS  C:\Users\daniel01\AppData\Local\Temp\ccxoNE0f.s 			page 12


 344              	.L24:
 281:C:\Micrium\Software\uCOS-III\Source\os_tmr.c ****              break;
 282:C:\Micrium\Software\uCOS-III\Source\os_tmr.c ****     }
 283:C:\Micrium\Software\uCOS-III\Source\os_tmr.c ****     return (success);
 345              		.loc 1 283 0
 346 00fc FB7B     		ldrb	r3, [r7, #15]	@ zero_extendqisi2
 347              	.L17:
 284:C:\Micrium\Software\uCOS-III\Source\os_tmr.c **** }
 348              		.loc 1 284 0
 349 00fe 1846     		mov	r0, r3
 350 0100 07F11007 		add	r7, r7, #16
 351 0104 BD46     		mov	sp, r7
 352 0106 80BD     		pop	{r7, pc}
 353              		.cfi_endproc
 354              	.LFE1:
 355              		.size	OSTmrDel, .-OSTmrDel
 356              		.section	.text.OSTmrRemainGet,"ax",%progbits
 357              		.align	2
 358              		.global	OSTmrRemainGet
 359              		.thumb
 360              		.thumb_func
 361              		.type	OSTmrRemainGet, %function
 362              	OSTmrRemainGet:
 363              	.LFB2:
 285:C:\Micrium\Software\uCOS-III\Source\os_tmr.c **** #endif
 286:C:\Micrium\Software\uCOS-III\Source\os_tmr.c **** 
 287:C:\Micrium\Software\uCOS-III\Source\os_tmr.c **** /*$PAGE*/
 288:C:\Micrium\Software\uCOS-III\Source\os_tmr.c **** /*
 289:C:\Micrium\Software\uCOS-III\Source\os_tmr.c **** ***************************************************************************************************
 290:C:\Micrium\Software\uCOS-III\Source\os_tmr.c **** *                                    GET HOW MUCH TIME IS LEFT BEFORE A TIMER EXPIRES
 291:C:\Micrium\Software\uCOS-III\Source\os_tmr.c **** *
 292:C:\Micrium\Software\uCOS-III\Source\os_tmr.c **** * Description: This function is called to get the number of ticks before a timer times out.
 293:C:\Micrium\Software\uCOS-III\Source\os_tmr.c **** *
 294:C:\Micrium\Software\uCOS-III\Source\os_tmr.c **** * Arguments  : p_tmr    Is a pointer to the timer to obtain the remaining time from.
 295:C:\Micrium\Software\uCOS-III\Source\os_tmr.c **** *
 296:C:\Micrium\Software\uCOS-III\Source\os_tmr.c **** *              p_err    Is a pointer to an error code.  '*p_err' will contain one of the following:
 297:C:\Micrium\Software\uCOS-III\Source\os_tmr.c **** *
 298:C:\Micrium\Software\uCOS-III\Source\os_tmr.c **** *                           OS_ERR_NONE
 299:C:\Micrium\Software\uCOS-III\Source\os_tmr.c **** *                           OS_ERR_OBJ_TYPE           'p_tmr' is not pointing to a timer
 300:C:\Micrium\Software\uCOS-III\Source\os_tmr.c **** *                           OS_ERR_TMR_INVALID        'p_tmr' is a NULL pointer
 301:C:\Micrium\Software\uCOS-III\Source\os_tmr.c **** *                           OS_ERR_TMR_ISR            if the call was made from an ISR
 302:C:\Micrium\Software\uCOS-III\Source\os_tmr.c **** *                           OS_ERR_TMR_INACTIVE       'p_tmr' points to a timer that is not active
 303:C:\Micrium\Software\uCOS-III\Source\os_tmr.c **** *                           OS_ERR_TMR_INVALID_STATE  the timer is in an invalid state
 304:C:\Micrium\Software\uCOS-III\Source\os_tmr.c **** *
 305:C:\Micrium\Software\uCOS-III\Source\os_tmr.c **** * Returns    : The time remaining for the timer to expire.  The time represents 'timer' increments.
 306:C:\Micrium\Software\uCOS-III\Source\os_tmr.c **** *              OS_TmrTask() is signaled every 1/10 of a second then the returned value represents t
 307:C:\Micrium\Software\uCOS-III\Source\os_tmr.c **** *              a second remaining before the timer expires.
 308:C:\Micrium\Software\uCOS-III\Source\os_tmr.c **** ***************************************************************************************************
 309:C:\Micrium\Software\uCOS-III\Source\os_tmr.c **** */
 310:C:\Micrium\Software\uCOS-III\Source\os_tmr.c **** 
 311:C:\Micrium\Software\uCOS-III\Source\os_tmr.c **** OS_TICK  OSTmrRemainGet (OS_TMR  *p_tmr,
 312:C:\Micrium\Software\uCOS-III\Source\os_tmr.c ****                          OS_ERR  *p_err)
 313:C:\Micrium\Software\uCOS-III\Source\os_tmr.c **** {
 364              		.loc 1 313 0
 365              		.cfi_startproc
 366              		@ args = 0, pretend = 0, frame = 16
 367              		@ frame_needed = 1, uses_anonymous_args = 0
ARM GAS  C:\Users\daniel01\AppData\Local\Temp\ccxoNE0f.s 			page 13


 368 0000 80B5     		push	{r7, lr}
 369              	.LCFI6:
 370              		.cfi_def_cfa_offset 8
 371 0002 84B0     		sub	sp, sp, #16
 372              	.LCFI7:
 373              		.cfi_def_cfa_offset 24
 374 0004 00AF     		add	r7, sp, #0
 375              		.cfi_offset 14, -4
 376              		.cfi_offset 7, -8
 377              	.LCFI8:
 378              		.cfi_def_cfa_register 7
 379 0006 7860     		str	r0, [r7, #4]
 380 0008 3960     		str	r1, [r7, #0]
 314:C:\Micrium\Software\uCOS-III\Source\os_tmr.c ****     OS_TICK  remain;
 315:C:\Micrium\Software\uCOS-III\Source\os_tmr.c ****     OS_ERR   err;
 316:C:\Micrium\Software\uCOS-III\Source\os_tmr.c **** 
 317:C:\Micrium\Software\uCOS-III\Source\os_tmr.c **** 
 318:C:\Micrium\Software\uCOS-III\Source\os_tmr.c **** 
 319:C:\Micrium\Software\uCOS-III\Source\os_tmr.c **** #ifdef OS_SAFETY_CRITICAL
 320:C:\Micrium\Software\uCOS-III\Source\os_tmr.c ****     if (p_err == (OS_ERR *)0) {
 321:C:\Micrium\Software\uCOS-III\Source\os_tmr.c ****         OS_SAFETY_CRITICAL_EXCEPTION();
 322:C:\Micrium\Software\uCOS-III\Source\os_tmr.c ****         return ((OS_TICK)0);
 323:C:\Micrium\Software\uCOS-III\Source\os_tmr.c ****     }
 324:C:\Micrium\Software\uCOS-III\Source\os_tmr.c **** #endif
 325:C:\Micrium\Software\uCOS-III\Source\os_tmr.c **** 
 326:C:\Micrium\Software\uCOS-III\Source\os_tmr.c **** #if OS_CFG_CALLED_FROM_ISR_CHK_EN > 0u
 327:C:\Micrium\Software\uCOS-III\Source\os_tmr.c ****     if (OSIntNestingCtr > (OS_NESTING_CTR)0) {              /* See if trying to call from an ISR   
 381              		.loc 1 327 0
 382 000a 40F20003 		movw	r3, #:lower16:OSIntNestingCtr
 383 000e C0F20003 		movt	r3, #:upper16:OSIntNestingCtr
 384 0012 1B78     		ldrb	r3, [r3, #0]	@ zero_extendqisi2
 385 0014 002B     		cmp	r3, #0
 386 0016 06D0     		beq	.L27
 328:C:\Micrium\Software\uCOS-III\Source\os_tmr.c ****        *p_err = OS_ERR_TMR_ISR;
 387              		.loc 1 328 0
 388 0018 3B68     		ldr	r3, [r7, #0]
 389 001a 47F24332 		movw	r2, #29507
 390 001e 1A80     		strh	r2, [r3, #0]	@ movhi
 329:C:\Micrium\Software\uCOS-III\Source\os_tmr.c ****         return ((OS_TICK)0);
 391              		.loc 1 329 0
 392 0020 4FF00003 		mov	r3, #0
 393 0024 7CE0     		b	.L28
 394              	.L27:
 330:C:\Micrium\Software\uCOS-III\Source\os_tmr.c ****     }
 331:C:\Micrium\Software\uCOS-III\Source\os_tmr.c **** #endif
 332:C:\Micrium\Software\uCOS-III\Source\os_tmr.c **** 
 333:C:\Micrium\Software\uCOS-III\Source\os_tmr.c **** #if OS_CFG_ARG_CHK_EN > 0u
 334:C:\Micrium\Software\uCOS-III\Source\os_tmr.c ****     if (p_tmr == (OS_TMR *)0) {
 395              		.loc 1 334 0
 396 0026 7B68     		ldr	r3, [r7, #4]
 397 0028 002B     		cmp	r3, #0
 398 002a 06D1     		bne	.L29
 335:C:\Micrium\Software\uCOS-III\Source\os_tmr.c ****        *p_err = OS_ERR_TMR_INVALID;
 399              		.loc 1 335 0
 400 002c 3B68     		ldr	r3, [r7, #0]
 401 002e 47F24232 		movw	r2, #29506
 402 0032 1A80     		strh	r2, [r3, #0]	@ movhi
ARM GAS  C:\Users\daniel01\AppData\Local\Temp\ccxoNE0f.s 			page 14


 336:C:\Micrium\Software\uCOS-III\Source\os_tmr.c ****         return ((OS_TICK)0);
 403              		.loc 1 336 0
 404 0034 4FF00003 		mov	r3, #0
 405 0038 72E0     		b	.L28
 406              	.L29:
 337:C:\Micrium\Software\uCOS-III\Source\os_tmr.c ****     }
 338:C:\Micrium\Software\uCOS-III\Source\os_tmr.c **** #endif
 339:C:\Micrium\Software\uCOS-III\Source\os_tmr.c **** 
 340:C:\Micrium\Software\uCOS-III\Source\os_tmr.c **** #if OS_CFG_OBJ_TYPE_CHK_EN > 0u
 341:C:\Micrium\Software\uCOS-III\Source\os_tmr.c ****     if (p_tmr->Type != OS_OBJ_TYPE_TMR) {                   /* Make sure timer was created         
 342:C:\Micrium\Software\uCOS-III\Source\os_tmr.c ****        *p_err = OS_ERR_OBJ_TYPE;
 343:C:\Micrium\Software\uCOS-III\Source\os_tmr.c ****         return ((OS_TICK)0);
 344:C:\Micrium\Software\uCOS-III\Source\os_tmr.c ****     }
 345:C:\Micrium\Software\uCOS-III\Source\os_tmr.c **** #endif
 346:C:\Micrium\Software\uCOS-III\Source\os_tmr.c **** 
 347:C:\Micrium\Software\uCOS-III\Source\os_tmr.c ****     OSSchedLock(&err);
 407              		.loc 1 347 0
 408 003a 07F10A03 		add	r3, r7, #10
 409 003e 1846     		mov	r0, r3
 410 0040 FFF7FEFF 		bl	OSSchedLock
 348:C:\Micrium\Software\uCOS-III\Source\os_tmr.c ****     switch (p_tmr->State) {
 411              		.loc 1 348 0
 412 0044 7B68     		ldr	r3, [r7, #4]
 413 0046 93F82A30 		ldrb	r3, [r3, #42]	@ zero_extendqisi2
 414 004a 032B     		cmp	r3, #3
 415 004c 5BD8     		bhi	.L30
 416 004e 01A2     		adr	r2, .L35
 417 0050 52F823F0 		ldr	pc, [r2, r3, lsl #2]
 418              		.align	2
 419              	.L35:
 420 0054 ED000000 		.word	.L31+1
 421 0058 93000000 		.word	.L32+1
 422 005c 65000000 		.word	.L33+1
 423 0060 D3000000 		.word	.L34+1
 424              	.L33:
 349:C:\Micrium\Software\uCOS-III\Source\os_tmr.c ****         case OS_TMR_STATE_RUNNING:
 350:C:\Micrium\Software\uCOS-III\Source\os_tmr.c ****              remain        = p_tmr->Match                   /* Determine how much time is left to t
 425              		.loc 1 350 0
 426 0064 7B68     		ldr	r3, [r7, #4]
 427 0066 9A69     		ldr	r2, [r3, #24]
 428 0068 40F20003 		movw	r3, #:lower16:OSTmrTickCtr
 429 006c C0F20003 		movt	r3, #:upper16:OSTmrTickCtr
 430 0070 1B68     		ldr	r3, [r3, #0]
 431 0072 C3EB0203 		rsb	r3, r3, r2
 432 0076 FB60     		str	r3, [r7, #12]
 351:C:\Micrium\Software\uCOS-III\Source\os_tmr.c ****                            - OSTmrTickCtr;
 352:C:\Micrium\Software\uCOS-III\Source\os_tmr.c ****              p_tmr->Remain = remain;
 433              		.loc 1 352 0
 434 0078 7B68     		ldr	r3, [r7, #4]
 435 007a FA68     		ldr	r2, [r7, #12]
 436 007c DA61     		str	r2, [r3, #28]
 353:C:\Micrium\Software\uCOS-III\Source\os_tmr.c ****              OSSchedUnlock(&err);
 437              		.loc 1 353 0
 438 007e 07F10A03 		add	r3, r7, #10
 439 0082 1846     		mov	r0, r3
 440 0084 FFF7FEFF 		bl	OSSchedUnlock
 354:C:\Micrium\Software\uCOS-III\Source\os_tmr.c ****             *p_err         = OS_ERR_NONE;
ARM GAS  C:\Users\daniel01\AppData\Local\Temp\ccxoNE0f.s 			page 15


 441              		.loc 1 354 0
 442 0088 3B68     		ldr	r3, [r7, #0]
 443 008a 4FF00002 		mov	r2, #0
 444 008e 1A80     		strh	r2, [r3, #0]	@ movhi
 355:C:\Micrium\Software\uCOS-III\Source\os_tmr.c ****              break;
 445              		.loc 1 355 0
 446 0090 45E0     		b	.L36
 447              	.L32:
 356:C:\Micrium\Software\uCOS-III\Source\os_tmr.c **** 
 357:C:\Micrium\Software\uCOS-III\Source\os_tmr.c ****         case OS_TMR_STATE_STOPPED:                          /* It's assumed that the timer has not 
 358:C:\Micrium\Software\uCOS-III\Source\os_tmr.c ****              if (p_tmr->Opt == OS_OPT_TMR_PERIODIC) {
 448              		.loc 1 358 0
 449 0092 7B68     		ldr	r3, [r7, #4]
 450 0094 1B8D     		ldrh	r3, [r3, #40]
 451 0096 022B     		cmp	r3, #2
 452 0098 0BD1     		bne	.L37
 359:C:\Micrium\Software\uCOS-III\Source\os_tmr.c ****                  if (p_tmr->Dly == 0u) {
 453              		.loc 1 359 0
 454 009a 7B68     		ldr	r3, [r7, #4]
 455 009c 1B6A     		ldr	r3, [r3, #32]
 456 009e 002B     		cmp	r3, #0
 457 00a0 03D1     		bne	.L38
 360:C:\Micrium\Software\uCOS-III\Source\os_tmr.c ****                      remain = p_tmr->Period;
 458              		.loc 1 360 0
 459 00a2 7B68     		ldr	r3, [r7, #4]
 460 00a4 5B6A     		ldr	r3, [r3, #36]
 461 00a6 FB60     		str	r3, [r7, #12]
 361:C:\Micrium\Software\uCOS-III\Source\os_tmr.c ****                  } else {
 362:C:\Micrium\Software\uCOS-III\Source\os_tmr.c ****                      remain = p_tmr->Dly;
 462              		.loc 1 362 0
 463 00a8 06E0     		b	.L40
 464              	.L38:
 465 00aa 7B68     		ldr	r3, [r7, #4]
 466 00ac 1B6A     		ldr	r3, [r3, #32]
 467 00ae FB60     		str	r3, [r7, #12]
 468 00b0 02E0     		b	.L40
 469              	.L37:
 363:C:\Micrium\Software\uCOS-III\Source\os_tmr.c ****                  }
 364:C:\Micrium\Software\uCOS-III\Source\os_tmr.c ****              } else {
 365:C:\Micrium\Software\uCOS-III\Source\os_tmr.c ****                  remain = p_tmr->Dly;
 470              		.loc 1 365 0
 471 00b2 7B68     		ldr	r3, [r7, #4]
 472 00b4 1B6A     		ldr	r3, [r3, #32]
 473 00b6 FB60     		str	r3, [r7, #12]
 474              	.L40:
 366:C:\Micrium\Software\uCOS-III\Source\os_tmr.c ****              }
 367:C:\Micrium\Software\uCOS-III\Source\os_tmr.c ****              p_tmr->Remain = remain;
 475              		.loc 1 367 0
 476 00b8 7B68     		ldr	r3, [r7, #4]
 477 00ba FA68     		ldr	r2, [r7, #12]
 478 00bc DA61     		str	r2, [r3, #28]
 368:C:\Micrium\Software\uCOS-III\Source\os_tmr.c ****              OSSchedUnlock(&err);
 479              		.loc 1 368 0
 480 00be 07F10A03 		add	r3, r7, #10
 481 00c2 1846     		mov	r0, r3
 482 00c4 FFF7FEFF 		bl	OSSchedUnlock
 369:C:\Micrium\Software\uCOS-III\Source\os_tmr.c ****             *p_err         = OS_ERR_NONE;
ARM GAS  C:\Users\daniel01\AppData\Local\Temp\ccxoNE0f.s 			page 16


 483              		.loc 1 369 0
 484 00c8 3B68     		ldr	r3, [r7, #0]
 485 00ca 4FF00002 		mov	r2, #0
 486 00ce 1A80     		strh	r2, [r3, #0]	@ movhi
 370:C:\Micrium\Software\uCOS-III\Source\os_tmr.c ****              break;
 487              		.loc 1 370 0
 488 00d0 25E0     		b	.L36
 489              	.L34:
 371:C:\Micrium\Software\uCOS-III\Source\os_tmr.c **** 
 372:C:\Micrium\Software\uCOS-III\Source\os_tmr.c ****         case OS_TMR_STATE_COMPLETED:                        /* Only ONE-SHOT that timed out can be 
 373:C:\Micrium\Software\uCOS-III\Source\os_tmr.c ****              OSSchedUnlock(&err);
 490              		.loc 1 373 0
 491 00d2 07F10A03 		add	r3, r7, #10
 492 00d6 1846     		mov	r0, r3
 493 00d8 FFF7FEFF 		bl	OSSchedUnlock
 374:C:\Micrium\Software\uCOS-III\Source\os_tmr.c ****             *p_err  = OS_ERR_NONE;
 494              		.loc 1 374 0
 495 00dc 3B68     		ldr	r3, [r7, #0]
 496 00de 4FF00002 		mov	r2, #0
 497 00e2 1A80     		strh	r2, [r3, #0]	@ movhi
 375:C:\Micrium\Software\uCOS-III\Source\os_tmr.c ****              remain = (OS_TICK)0;
 498              		.loc 1 375 0
 499 00e4 4FF00003 		mov	r3, #0
 500 00e8 FB60     		str	r3, [r7, #12]
 376:C:\Micrium\Software\uCOS-III\Source\os_tmr.c ****              break;
 501              		.loc 1 376 0
 502 00ea 18E0     		b	.L36
 503              	.L31:
 377:C:\Micrium\Software\uCOS-III\Source\os_tmr.c **** 
 378:C:\Micrium\Software\uCOS-III\Source\os_tmr.c ****         case OS_TMR_STATE_UNUSED:
 379:C:\Micrium\Software\uCOS-III\Source\os_tmr.c ****              OSSchedUnlock(&err);
 504              		.loc 1 379 0
 505 00ec 07F10A03 		add	r3, r7, #10
 506 00f0 1846     		mov	r0, r3
 507 00f2 FFF7FEFF 		bl	OSSchedUnlock
 380:C:\Micrium\Software\uCOS-III\Source\os_tmr.c ****             *p_err  = OS_ERR_TMR_INACTIVE;
 508              		.loc 1 380 0
 509 00f6 3B68     		ldr	r3, [r7, #0]
 510 00f8 47F23D32 		movw	r2, #29501
 511 00fc 1A80     		strh	r2, [r3, #0]	@ movhi
 381:C:\Micrium\Software\uCOS-III\Source\os_tmr.c ****              remain = (OS_TICK)0;
 512              		.loc 1 381 0
 513 00fe 4FF00003 		mov	r3, #0
 514 0102 FB60     		str	r3, [r7, #12]
 382:C:\Micrium\Software\uCOS-III\Source\os_tmr.c ****              break;
 515              		.loc 1 382 0
 516 0104 0BE0     		b	.L36
 517              	.L30:
 383:C:\Micrium\Software\uCOS-III\Source\os_tmr.c **** 
 384:C:\Micrium\Software\uCOS-III\Source\os_tmr.c ****         default:
 385:C:\Micrium\Software\uCOS-III\Source\os_tmr.c ****              OSSchedUnlock(&err);
 518              		.loc 1 385 0
 519 0106 07F10A03 		add	r3, r7, #10
 520 010a 1846     		mov	r0, r3
 521 010c FFF7FEFF 		bl	OSSchedUnlock
 386:C:\Micrium\Software\uCOS-III\Source\os_tmr.c ****             *p_err = OS_ERR_TMR_INVALID_STATE;
 522              		.loc 1 386 0
ARM GAS  C:\Users\daniel01\AppData\Local\Temp\ccxoNE0f.s 			page 17


 523 0110 3B68     		ldr	r3, [r7, #0]
 524 0112 47F24132 		movw	r2, #29505
 525 0116 1A80     		strh	r2, [r3, #0]	@ movhi
 387:C:\Micrium\Software\uCOS-III\Source\os_tmr.c ****              remain = (OS_TICK)0;
 526              		.loc 1 387 0
 527 0118 4FF00003 		mov	r3, #0
 528 011c FB60     		str	r3, [r7, #12]
 529              	.L36:
 388:C:\Micrium\Software\uCOS-III\Source\os_tmr.c ****              break;
 389:C:\Micrium\Software\uCOS-III\Source\os_tmr.c ****     }
 390:C:\Micrium\Software\uCOS-III\Source\os_tmr.c ****     return (remain);
 530              		.loc 1 390 0
 531 011e FB68     		ldr	r3, [r7, #12]
 532              	.L28:
 391:C:\Micrium\Software\uCOS-III\Source\os_tmr.c **** }
 533              		.loc 1 391 0
 534 0120 1846     		mov	r0, r3
 535 0122 07F11007 		add	r7, r7, #16
 536 0126 BD46     		mov	sp, r7
 537 0128 80BD     		pop	{r7, pc}
 538              		.cfi_endproc
 539              	.LFE2:
 540              		.size	OSTmrRemainGet, .-OSTmrRemainGet
 541 012a 00BF     		.section	.text.OSTmrStart,"ax",%progbits
 542              		.align	2
 543              		.global	OSTmrStart
 544              		.thumb
 545              		.thumb_func
 546              		.type	OSTmrStart, %function
 547              	OSTmrStart:
 548              	.LFB3:
 392:C:\Micrium\Software\uCOS-III\Source\os_tmr.c **** 
 393:C:\Micrium\Software\uCOS-III\Source\os_tmr.c **** /*$PAGE*/
 394:C:\Micrium\Software\uCOS-III\Source\os_tmr.c **** /*
 395:C:\Micrium\Software\uCOS-III\Source\os_tmr.c **** ***************************************************************************************************
 396:C:\Micrium\Software\uCOS-III\Source\os_tmr.c **** *                                                   START A TIMER
 397:C:\Micrium\Software\uCOS-III\Source\os_tmr.c **** *
 398:C:\Micrium\Software\uCOS-III\Source\os_tmr.c **** * Description: This function is called by your application code to start a timer.
 399:C:\Micrium\Software\uCOS-III\Source\os_tmr.c **** *
 400:C:\Micrium\Software\uCOS-III\Source\os_tmr.c **** * Arguments  : p_tmr    Is a pointer to an OS_TMR
 401:C:\Micrium\Software\uCOS-III\Source\os_tmr.c **** *
 402:C:\Micrium\Software\uCOS-III\Source\os_tmr.c **** *              p_err    Is a pointer to an error code.  '*p_err' will contain one of the following:
 403:C:\Micrium\Software\uCOS-III\Source\os_tmr.c **** *
 404:C:\Micrium\Software\uCOS-III\Source\os_tmr.c **** *                           OS_ERR_NONE
 405:C:\Micrium\Software\uCOS-III\Source\os_tmr.c **** *                           OS_ERR_OBJ_TYPE            if 'p_tmr' is not pointing to a timer
 406:C:\Micrium\Software\uCOS-III\Source\os_tmr.c **** *                           OS_ERR_TMR_INVALID
 407:C:\Micrium\Software\uCOS-III\Source\os_tmr.c **** *                           OS_ERR_TMR_INACTIVE        if the timer was not created
 408:C:\Micrium\Software\uCOS-III\Source\os_tmr.c **** *                           OS_ERR_TMR_INVALID_STATE   the timer is in an invalid state
 409:C:\Micrium\Software\uCOS-III\Source\os_tmr.c **** *                           OS_ERR_TMR_ISR             if the call was made from an ISR
 410:C:\Micrium\Software\uCOS-III\Source\os_tmr.c **** *
 411:C:\Micrium\Software\uCOS-III\Source\os_tmr.c **** * Returns    : DEF_TRUE      is the timer was started
 412:C:\Micrium\Software\uCOS-III\Source\os_tmr.c **** *              DEF_FALSE     if not or upon an error
 413:C:\Micrium\Software\uCOS-III\Source\os_tmr.c **** *
 414:C:\Micrium\Software\uCOS-III\Source\os_tmr.c **** * Note(s)    : 1) When starting/restarting a timer, regardless if it is in PERIODIC or ONE-SHOT mod
 415:C:\Micrium\Software\uCOS-III\Source\os_tmr.c **** *                 linked to the timer wheel with the OS_OPT_LINK_DLY option. This option sets the i
 416:C:\Micrium\Software\uCOS-III\Source\os_tmr.c **** *                 time for the timer. For timers in PERIODIC mode, subsequent expiration times are 
 417:C:\Micrium\Software\uCOS-III\Source\os_tmr.c **** *                 the OS_TmrTask().
ARM GAS  C:\Users\daniel01\AppData\Local\Temp\ccxoNE0f.s 			page 18


 418:C:\Micrium\Software\uCOS-III\Source\os_tmr.c **** ***************************************************************************************************
 419:C:\Micrium\Software\uCOS-III\Source\os_tmr.c **** */
 420:C:\Micrium\Software\uCOS-III\Source\os_tmr.c **** 
 421:C:\Micrium\Software\uCOS-III\Source\os_tmr.c **** CPU_BOOLEAN  OSTmrStart (OS_TMR  *p_tmr,
 422:C:\Micrium\Software\uCOS-III\Source\os_tmr.c ****                          OS_ERR  *p_err)
 423:C:\Micrium\Software\uCOS-III\Source\os_tmr.c **** {
 549              		.loc 1 423 0
 550              		.cfi_startproc
 551              		@ args = 0, pretend = 0, frame = 16
 552              		@ frame_needed = 1, uses_anonymous_args = 0
 553 0000 80B5     		push	{r7, lr}
 554              	.LCFI9:
 555              		.cfi_def_cfa_offset 8
 556 0002 84B0     		sub	sp, sp, #16
 557              	.LCFI10:
 558              		.cfi_def_cfa_offset 24
 559 0004 00AF     		add	r7, sp, #0
 560              		.cfi_offset 14, -4
 561              		.cfi_offset 7, -8
 562              	.LCFI11:
 563              		.cfi_def_cfa_register 7
 564 0006 7860     		str	r0, [r7, #4]
 565 0008 3960     		str	r1, [r7, #0]
 424:C:\Micrium\Software\uCOS-III\Source\os_tmr.c ****     OS_ERR       err;
 425:C:\Micrium\Software\uCOS-III\Source\os_tmr.c ****     CPU_BOOLEAN  success;
 426:C:\Micrium\Software\uCOS-III\Source\os_tmr.c **** 
 427:C:\Micrium\Software\uCOS-III\Source\os_tmr.c **** 
 428:C:\Micrium\Software\uCOS-III\Source\os_tmr.c **** 
 429:C:\Micrium\Software\uCOS-III\Source\os_tmr.c **** #ifdef OS_SAFETY_CRITICAL
 430:C:\Micrium\Software\uCOS-III\Source\os_tmr.c ****     if (p_err == (OS_ERR *)0) {
 431:C:\Micrium\Software\uCOS-III\Source\os_tmr.c ****         OS_SAFETY_CRITICAL_EXCEPTION();
 432:C:\Micrium\Software\uCOS-III\Source\os_tmr.c ****         return (DEF_FALSE);
 433:C:\Micrium\Software\uCOS-III\Source\os_tmr.c ****     }
 434:C:\Micrium\Software\uCOS-III\Source\os_tmr.c **** #endif
 435:C:\Micrium\Software\uCOS-III\Source\os_tmr.c **** 
 436:C:\Micrium\Software\uCOS-III\Source\os_tmr.c **** #if OS_CFG_CALLED_FROM_ISR_CHK_EN > 0u
 437:C:\Micrium\Software\uCOS-III\Source\os_tmr.c ****     if (OSIntNestingCtr > (OS_NESTING_CTR)0) {              /* See if trying to call from an ISR   
 566              		.loc 1 437 0
 567 000a 40F20003 		movw	r3, #:lower16:OSIntNestingCtr
 568 000e C0F20003 		movt	r3, #:upper16:OSIntNestingCtr
 569 0012 1B78     		ldrb	r3, [r3, #0]	@ zero_extendqisi2
 570 0014 002B     		cmp	r3, #0
 571 0016 06D0     		beq	.L43
 438:C:\Micrium\Software\uCOS-III\Source\os_tmr.c ****        *p_err = OS_ERR_TMR_ISR;
 572              		.loc 1 438 0
 573 0018 3B68     		ldr	r3, [r7, #0]
 574 001a 47F24332 		movw	r2, #29507
 575 001e 1A80     		strh	r2, [r3, #0]	@ movhi
 439:C:\Micrium\Software\uCOS-III\Source\os_tmr.c ****         return (DEF_FALSE);
 576              		.loc 1 439 0
 577 0020 4FF00003 		mov	r3, #0
 578 0024 5FE0     		b	.L44
 579              	.L43:
 440:C:\Micrium\Software\uCOS-III\Source\os_tmr.c ****     }
 441:C:\Micrium\Software\uCOS-III\Source\os_tmr.c **** #endif
 442:C:\Micrium\Software\uCOS-III\Source\os_tmr.c **** 
 443:C:\Micrium\Software\uCOS-III\Source\os_tmr.c **** #if OS_CFG_ARG_CHK_EN > 0u
ARM GAS  C:\Users\daniel01\AppData\Local\Temp\ccxoNE0f.s 			page 19


 444:C:\Micrium\Software\uCOS-III\Source\os_tmr.c ****     if (p_tmr == (OS_TMR *)0) {
 580              		.loc 1 444 0
 581 0026 7B68     		ldr	r3, [r7, #4]
 582 0028 002B     		cmp	r3, #0
 583 002a 06D1     		bne	.L45
 445:C:\Micrium\Software\uCOS-III\Source\os_tmr.c ****        *p_err = OS_ERR_TMR_INVALID;
 584              		.loc 1 445 0
 585 002c 3B68     		ldr	r3, [r7, #0]
 586 002e 47F24232 		movw	r2, #29506
 587 0032 1A80     		strh	r2, [r3, #0]	@ movhi
 446:C:\Micrium\Software\uCOS-III\Source\os_tmr.c ****         return (DEF_FALSE);
 588              		.loc 1 446 0
 589 0034 4FF00003 		mov	r3, #0
 590 0038 55E0     		b	.L44
 591              	.L45:
 447:C:\Micrium\Software\uCOS-III\Source\os_tmr.c ****     }
 448:C:\Micrium\Software\uCOS-III\Source\os_tmr.c **** #endif
 449:C:\Micrium\Software\uCOS-III\Source\os_tmr.c **** 
 450:C:\Micrium\Software\uCOS-III\Source\os_tmr.c **** #if OS_CFG_OBJ_TYPE_CHK_EN > 0u
 451:C:\Micrium\Software\uCOS-III\Source\os_tmr.c ****     if (p_tmr->Type != OS_OBJ_TYPE_TMR) {                   /* Make sure timer was created         
 452:C:\Micrium\Software\uCOS-III\Source\os_tmr.c ****        *p_err = OS_ERR_OBJ_TYPE;
 453:C:\Micrium\Software\uCOS-III\Source\os_tmr.c ****         return (DEF_FALSE);
 454:C:\Micrium\Software\uCOS-III\Source\os_tmr.c ****     }
 455:C:\Micrium\Software\uCOS-III\Source\os_tmr.c **** #endif
 456:C:\Micrium\Software\uCOS-III\Source\os_tmr.c **** 
 457:C:\Micrium\Software\uCOS-III\Source\os_tmr.c ****     OSSchedLock(&err);
 592              		.loc 1 457 0
 593 003a 07F10C03 		add	r3, r7, #12
 594 003e 1846     		mov	r0, r3
 595 0040 FFF7FEFF 		bl	OSSchedLock
 458:C:\Micrium\Software\uCOS-III\Source\os_tmr.c ****     switch (p_tmr->State) {
 596              		.loc 1 458 0
 597 0044 7B68     		ldr	r3, [r7, #4]
 598 0046 93F82A30 		ldrb	r3, [r3, #42]	@ zero_extendqisi2
 599 004a 032B     		cmp	r3, #3
 600 004c 3ED8     		bhi	.L46
 601 004e 01A2     		adr	r2, .L50
 602 0050 52F823F0 		ldr	pc, [r2, r3, lsl #2]
 603              		.align	2
 604              	.L50:
 605 0054 B3000000 		.word	.L47+1
 606 0058 8F000000 		.word	.L48+1
 607 005c 65000000 		.word	.L49+1
 608 0060 8F000000 		.word	.L48+1
 609              	.L49:
 459:C:\Micrium\Software\uCOS-III\Source\os_tmr.c ****         case OS_TMR_STATE_RUNNING:                          /* Restart the timer                   
 460:C:\Micrium\Software\uCOS-III\Source\os_tmr.c ****              OS_TmrUnlink(p_tmr);                           /* ... Stop the timer                  
 610              		.loc 1 460 0
 611 0064 7868     		ldr	r0, [r7, #4]
 612 0066 FFF7FEFF 		bl	OS_TmrUnlink
 461:C:\Micrium\Software\uCOS-III\Source\os_tmr.c ****              OS_TmrLink(p_tmr, OS_OPT_LINK_DLY);            /* ... Link timer to timer wheel (see N
 613              		.loc 1 461 0
 614 006a 7868     		ldr	r0, [r7, #4]
 615 006c 4FF00001 		mov	r1, #0
 616 0070 FFF7FEFF 		bl	OS_TmrLink
 462:C:\Micrium\Software\uCOS-III\Source\os_tmr.c ****              OSSchedUnlock(&err);
 617              		.loc 1 462 0
ARM GAS  C:\Users\daniel01\AppData\Local\Temp\ccxoNE0f.s 			page 20


 618 0074 07F10C03 		add	r3, r7, #12
 619 0078 1846     		mov	r0, r3
 620 007a FFF7FEFF 		bl	OSSchedUnlock
 463:C:\Micrium\Software\uCOS-III\Source\os_tmr.c ****             *p_err   = OS_ERR_NONE;
 621              		.loc 1 463 0
 622 007e 3B68     		ldr	r3, [r7, #0]
 623 0080 4FF00002 		mov	r2, #0
 624 0084 1A80     		strh	r2, [r3, #0]	@ movhi
 464:C:\Micrium\Software\uCOS-III\Source\os_tmr.c ****              success = DEF_TRUE;
 625              		.loc 1 464 0
 626 0086 4FF00103 		mov	r3, #1
 627 008a FB73     		strb	r3, [r7, #15]
 465:C:\Micrium\Software\uCOS-III\Source\os_tmr.c ****              break;
 628              		.loc 1 465 0
 629 008c 2AE0     		b	.L51
 630              	.L48:
 466:C:\Micrium\Software\uCOS-III\Source\os_tmr.c **** 
 467:C:\Micrium\Software\uCOS-III\Source\os_tmr.c ****         case OS_TMR_STATE_STOPPED:                          /* Start the timer                     
 468:C:\Micrium\Software\uCOS-III\Source\os_tmr.c ****         case OS_TMR_STATE_COMPLETED:
 469:C:\Micrium\Software\uCOS-III\Source\os_tmr.c ****              OS_TmrLink(p_tmr, OS_OPT_LINK_DLY);            /* ... Link timer to timer wheel (see N
 631              		.loc 1 469 0
 632 008e 7868     		ldr	r0, [r7, #4]
 633 0090 4FF00001 		mov	r1, #0
 634 0094 FFF7FEFF 		bl	OS_TmrLink
 470:C:\Micrium\Software\uCOS-III\Source\os_tmr.c ****              OSSchedUnlock(&err);
 635              		.loc 1 470 0
 636 0098 07F10C03 		add	r3, r7, #12
 637 009c 1846     		mov	r0, r3
 638 009e FFF7FEFF 		bl	OSSchedUnlock
 471:C:\Micrium\Software\uCOS-III\Source\os_tmr.c ****             *p_err   = OS_ERR_NONE;
 639              		.loc 1 471 0
 640 00a2 3B68     		ldr	r3, [r7, #0]
 641 00a4 4FF00002 		mov	r2, #0
 642 00a8 1A80     		strh	r2, [r3, #0]	@ movhi
 472:C:\Micrium\Software\uCOS-III\Source\os_tmr.c ****              success = DEF_TRUE;
 643              		.loc 1 472 0
 644 00aa 4FF00103 		mov	r3, #1
 645 00ae FB73     		strb	r3, [r7, #15]
 473:C:\Micrium\Software\uCOS-III\Source\os_tmr.c ****              break;
 646              		.loc 1 473 0
 647 00b0 18E0     		b	.L51
 648              	.L47:
 474:C:\Micrium\Software\uCOS-III\Source\os_tmr.c **** 
 475:C:\Micrium\Software\uCOS-III\Source\os_tmr.c ****         case OS_TMR_STATE_UNUSED:                           /* Timer not created                   
 476:C:\Micrium\Software\uCOS-III\Source\os_tmr.c ****              OSSchedUnlock(&err);
 649              		.loc 1 476 0
 650 00b2 07F10C03 		add	r3, r7, #12
 651 00b6 1846     		mov	r0, r3
 652 00b8 FFF7FEFF 		bl	OSSchedUnlock
 477:C:\Micrium\Software\uCOS-III\Source\os_tmr.c ****             *p_err   = OS_ERR_TMR_INACTIVE;
 653              		.loc 1 477 0
 654 00bc 3B68     		ldr	r3, [r7, #0]
 655 00be 47F23D32 		movw	r2, #29501
 656 00c2 1A80     		strh	r2, [r3, #0]	@ movhi
 478:C:\Micrium\Software\uCOS-III\Source\os_tmr.c ****              success = DEF_FALSE;
 657              		.loc 1 478 0
 658 00c4 4FF00003 		mov	r3, #0
ARM GAS  C:\Users\daniel01\AppData\Local\Temp\ccxoNE0f.s 			page 21


 659 00c8 FB73     		strb	r3, [r7, #15]
 479:C:\Micrium\Software\uCOS-III\Source\os_tmr.c ****              break;
 660              		.loc 1 479 0
 661 00ca 0BE0     		b	.L51
 662              	.L46:
 480:C:\Micrium\Software\uCOS-III\Source\os_tmr.c **** 
 481:C:\Micrium\Software\uCOS-III\Source\os_tmr.c ****         default:
 482:C:\Micrium\Software\uCOS-III\Source\os_tmr.c ****              OSSchedUnlock(&err);
 663              		.loc 1 482 0
 664 00cc 07F10C03 		add	r3, r7, #12
 665 00d0 1846     		mov	r0, r3
 666 00d2 FFF7FEFF 		bl	OSSchedUnlock
 483:C:\Micrium\Software\uCOS-III\Source\os_tmr.c ****             *p_err = OS_ERR_TMR_INVALID_STATE;
 667              		.loc 1 483 0
 668 00d6 3B68     		ldr	r3, [r7, #0]
 669 00d8 47F24132 		movw	r2, #29505
 670 00dc 1A80     		strh	r2, [r3, #0]	@ movhi
 484:C:\Micrium\Software\uCOS-III\Source\os_tmr.c ****              success = DEF_FALSE;
 671              		.loc 1 484 0
 672 00de 4FF00003 		mov	r3, #0
 673 00e2 FB73     		strb	r3, [r7, #15]
 674              	.L51:
 485:C:\Micrium\Software\uCOS-III\Source\os_tmr.c ****              break;
 486:C:\Micrium\Software\uCOS-III\Source\os_tmr.c ****     }
 487:C:\Micrium\Software\uCOS-III\Source\os_tmr.c ****     return (success);
 675              		.loc 1 487 0
 676 00e4 FB7B     		ldrb	r3, [r7, #15]	@ zero_extendqisi2
 677              	.L44:
 488:C:\Micrium\Software\uCOS-III\Source\os_tmr.c **** }
 678              		.loc 1 488 0
 679 00e6 1846     		mov	r0, r3
 680 00e8 07F11007 		add	r7, r7, #16
 681 00ec BD46     		mov	sp, r7
 682 00ee 80BD     		pop	{r7, pc}
 683              		.cfi_endproc
 684              	.LFE3:
 685              		.size	OSTmrStart, .-OSTmrStart
 686              		.section	.text.OSTmrStateGet,"ax",%progbits
 687              		.align	2
 688              		.global	OSTmrStateGet
 689              		.thumb
 690              		.thumb_func
 691              		.type	OSTmrStateGet, %function
 692              	OSTmrStateGet:
 693              	.LFB4:
 489:C:\Micrium\Software\uCOS-III\Source\os_tmr.c **** 
 490:C:\Micrium\Software\uCOS-III\Source\os_tmr.c **** /*$PAGE*/
 491:C:\Micrium\Software\uCOS-III\Source\os_tmr.c **** /*
 492:C:\Micrium\Software\uCOS-III\Source\os_tmr.c **** ***************************************************************************************************
 493:C:\Micrium\Software\uCOS-III\Source\os_tmr.c **** *                                           FIND OUT WHAT STATE A TIMER IS IN
 494:C:\Micrium\Software\uCOS-III\Source\os_tmr.c **** *
 495:C:\Micrium\Software\uCOS-III\Source\os_tmr.c **** * Description: This function is called to determine what state the timer is in:
 496:C:\Micrium\Software\uCOS-III\Source\os_tmr.c **** *
 497:C:\Micrium\Software\uCOS-III\Source\os_tmr.c **** *                  OS_TMR_STATE_UNUSED     the timer has not been created
 498:C:\Micrium\Software\uCOS-III\Source\os_tmr.c **** *                  OS_TMR_STATE_STOPPED    the timer has been created but has not been started or h
 499:C:\Micrium\Software\uCOS-III\Source\os_tmr.c **** *                  OS_TMR_COMPLETED        the timer is in ONE-SHOT mode and has completed it's tim
 500:C:\Micrium\Software\uCOS-III\Source\os_tmr.c **** *                  OS_TMR_RUNNING          the timer is currently running
ARM GAS  C:\Users\daniel01\AppData\Local\Temp\ccxoNE0f.s 			page 22


 501:C:\Micrium\Software\uCOS-III\Source\os_tmr.c **** *
 502:C:\Micrium\Software\uCOS-III\Source\os_tmr.c **** * Arguments  : p_tmr    Is a pointer to the desired timer
 503:C:\Micrium\Software\uCOS-III\Source\os_tmr.c **** *
 504:C:\Micrium\Software\uCOS-III\Source\os_tmr.c **** *              p_err    Is a pointer to an error code.  '*p_err' will contain one of the following:
 505:C:\Micrium\Software\uCOS-III\Source\os_tmr.c **** *
 506:C:\Micrium\Software\uCOS-III\Source\os_tmr.c **** *                           OS_ERR_NONE
 507:C:\Micrium\Software\uCOS-III\Source\os_tmr.c **** *                           OS_ERR_OBJ_TYPE            if 'p_tmr' is not pointing to a timer
 508:C:\Micrium\Software\uCOS-III\Source\os_tmr.c **** *                           OS_ERR_TMR_INVALID        'p_tmr' is a NULL pointer
 509:C:\Micrium\Software\uCOS-III\Source\os_tmr.c **** *                           OS_ERR_TMR_INVALID_STATE  if the timer is not in a valid state
 510:C:\Micrium\Software\uCOS-III\Source\os_tmr.c **** *                           OS_ERR_TMR_ISR            if the call was made from an ISR
 511:C:\Micrium\Software\uCOS-III\Source\os_tmr.c **** *
 512:C:\Micrium\Software\uCOS-III\Source\os_tmr.c **** * Returns    : The current state of the timer (see description).
 513:C:\Micrium\Software\uCOS-III\Source\os_tmr.c **** ***************************************************************************************************
 514:C:\Micrium\Software\uCOS-III\Source\os_tmr.c **** */
 515:C:\Micrium\Software\uCOS-III\Source\os_tmr.c **** 
 516:C:\Micrium\Software\uCOS-III\Source\os_tmr.c **** OS_STATE  OSTmrStateGet (OS_TMR  *p_tmr,
 517:C:\Micrium\Software\uCOS-III\Source\os_tmr.c ****                          OS_ERR  *p_err)
 518:C:\Micrium\Software\uCOS-III\Source\os_tmr.c **** {
 694              		.loc 1 518 0
 695              		.cfi_startproc
 696              		@ args = 0, pretend = 0, frame = 16
 697              		@ frame_needed = 1, uses_anonymous_args = 0
 698 0000 80B5     		push	{r7, lr}
 699              	.LCFI12:
 700              		.cfi_def_cfa_offset 8
 701 0002 84B0     		sub	sp, sp, #16
 702              	.LCFI13:
 703              		.cfi_def_cfa_offset 24
 704 0004 00AF     		add	r7, sp, #0
 705              		.cfi_offset 14, -4
 706              		.cfi_offset 7, -8
 707              	.LCFI14:
 708              		.cfi_def_cfa_register 7
 709 0006 7860     		str	r0, [r7, #4]
 710 0008 3960     		str	r1, [r7, #0]
 519:C:\Micrium\Software\uCOS-III\Source\os_tmr.c ****     OS_STATE  state;
 520:C:\Micrium\Software\uCOS-III\Source\os_tmr.c ****     CPU_SR_ALLOC();
 711              		.loc 1 520 0
 712 000a 4FF00003 		mov	r3, #0
 713 000e FB60     		str	r3, [r7, #12]
 521:C:\Micrium\Software\uCOS-III\Source\os_tmr.c **** 
 522:C:\Micrium\Software\uCOS-III\Source\os_tmr.c **** 
 523:C:\Micrium\Software\uCOS-III\Source\os_tmr.c **** 
 524:C:\Micrium\Software\uCOS-III\Source\os_tmr.c **** #ifdef OS_SAFETY_CRITICAL
 525:C:\Micrium\Software\uCOS-III\Source\os_tmr.c ****     if (p_err == (OS_ERR *)0) {
 526:C:\Micrium\Software\uCOS-III\Source\os_tmr.c ****         OS_SAFETY_CRITICAL_EXCEPTION();
 527:C:\Micrium\Software\uCOS-III\Source\os_tmr.c ****         return (OS_TMR_STATE_UNUSED);
 528:C:\Micrium\Software\uCOS-III\Source\os_tmr.c ****     }
 529:C:\Micrium\Software\uCOS-III\Source\os_tmr.c **** #endif
 530:C:\Micrium\Software\uCOS-III\Source\os_tmr.c **** 
 531:C:\Micrium\Software\uCOS-III\Source\os_tmr.c **** #if OS_CFG_CALLED_FROM_ISR_CHK_EN > 0u
 532:C:\Micrium\Software\uCOS-III\Source\os_tmr.c ****     if (OSIntNestingCtr > (OS_NESTING_CTR)0) {              /* See if trying to call from an ISR   
 714              		.loc 1 532 0
 715 0010 40F20003 		movw	r3, #:lower16:OSIntNestingCtr
 716 0014 C0F20003 		movt	r3, #:upper16:OSIntNestingCtr
 717 0018 1B78     		ldrb	r3, [r3, #0]	@ zero_extendqisi2
 718 001a 002B     		cmp	r3, #0
ARM GAS  C:\Users\daniel01\AppData\Local\Temp\ccxoNE0f.s 			page 23


 719 001c 06D0     		beq	.L54
 533:C:\Micrium\Software\uCOS-III\Source\os_tmr.c ****        *p_err = OS_ERR_TMR_ISR;
 720              		.loc 1 533 0
 721 001e 3B68     		ldr	r3, [r7, #0]
 722 0020 47F24332 		movw	r2, #29507
 723 0024 1A80     		strh	r2, [r3, #0]	@ movhi
 534:C:\Micrium\Software\uCOS-III\Source\os_tmr.c ****         return (OS_TMR_STATE_UNUSED);
 724              		.loc 1 534 0
 725 0026 4FF00003 		mov	r3, #0
 726 002a 23E0     		b	.L55
 727              	.L54:
 535:C:\Micrium\Software\uCOS-III\Source\os_tmr.c ****     }
 536:C:\Micrium\Software\uCOS-III\Source\os_tmr.c **** #endif
 537:C:\Micrium\Software\uCOS-III\Source\os_tmr.c **** 
 538:C:\Micrium\Software\uCOS-III\Source\os_tmr.c **** #if OS_CFG_ARG_CHK_EN > 0u
 539:C:\Micrium\Software\uCOS-III\Source\os_tmr.c ****     if (p_tmr == (OS_TMR *)0) {
 728              		.loc 1 539 0
 729 002c 7B68     		ldr	r3, [r7, #4]
 730 002e 002B     		cmp	r3, #0
 731 0030 06D1     		bne	.L56
 540:C:\Micrium\Software\uCOS-III\Source\os_tmr.c ****        *p_err = OS_ERR_TMR_INVALID;
 732              		.loc 1 540 0
 733 0032 3B68     		ldr	r3, [r7, #0]
 734 0034 47F24232 		movw	r2, #29506
 735 0038 1A80     		strh	r2, [r3, #0]	@ movhi
 541:C:\Micrium\Software\uCOS-III\Source\os_tmr.c ****         return (OS_TMR_STATE_UNUSED);
 736              		.loc 1 541 0
 737 003a 4FF00003 		mov	r3, #0
 738 003e 19E0     		b	.L55
 739              	.L56:
 542:C:\Micrium\Software\uCOS-III\Source\os_tmr.c ****     }
 543:C:\Micrium\Software\uCOS-III\Source\os_tmr.c **** #endif
 544:C:\Micrium\Software\uCOS-III\Source\os_tmr.c **** 
 545:C:\Micrium\Software\uCOS-III\Source\os_tmr.c **** #if OS_CFG_OBJ_TYPE_CHK_EN > 0u
 546:C:\Micrium\Software\uCOS-III\Source\os_tmr.c ****     if (p_tmr->Type != OS_OBJ_TYPE_TMR) {                   /* Make sure timer was created         
 547:C:\Micrium\Software\uCOS-III\Source\os_tmr.c ****        *p_err = OS_ERR_OBJ_TYPE;
 548:C:\Micrium\Software\uCOS-III\Source\os_tmr.c ****         return (OS_TMR_STATE_UNUSED);
 549:C:\Micrium\Software\uCOS-III\Source\os_tmr.c ****     }
 550:C:\Micrium\Software\uCOS-III\Source\os_tmr.c **** #endif
 551:C:\Micrium\Software\uCOS-III\Source\os_tmr.c **** 
 552:C:\Micrium\Software\uCOS-III\Source\os_tmr.c ****     CPU_CRITICAL_ENTER();
 740              		.loc 1 552 0
 741 0040 FFF7FEFF 		bl	CPU_SR_Save
 742 0044 0346     		mov	r3, r0
 743 0046 FB60     		str	r3, [r7, #12]
 553:C:\Micrium\Software\uCOS-III\Source\os_tmr.c ****     state = p_tmr->State;
 744              		.loc 1 553 0
 745 0048 7B68     		ldr	r3, [r7, #4]
 746 004a 93F82A30 		ldrb	r3, [r3, #42]
 747 004e FB72     		strb	r3, [r7, #11]
 554:C:\Micrium\Software\uCOS-III\Source\os_tmr.c ****     switch (state) {
 748              		.loc 1 554 0
 749 0050 FB7A     		ldrb	r3, [r7, #11]	@ zero_extendqisi2
 750 0052 03F10003 		add	r3, r3, #0
 751 0056 032B     		cmp	r3, #3
 752 0058 04D8     		bhi	.L57
 555:C:\Micrium\Software\uCOS-III\Source\os_tmr.c ****         case OS_TMR_STATE_UNUSED:
ARM GAS  C:\Users\daniel01\AppData\Local\Temp\ccxoNE0f.s 			page 24


 556:C:\Micrium\Software\uCOS-III\Source\os_tmr.c ****         case OS_TMR_STATE_STOPPED:
 557:C:\Micrium\Software\uCOS-III\Source\os_tmr.c ****         case OS_TMR_STATE_COMPLETED:
 558:C:\Micrium\Software\uCOS-III\Source\os_tmr.c ****         case OS_TMR_STATE_RUNNING:
 559:C:\Micrium\Software\uCOS-III\Source\os_tmr.c ****             *p_err = OS_ERR_NONE;
 753              		.loc 1 559 0
 754 005a 3B68     		ldr	r3, [r7, #0]
 755 005c 4FF00002 		mov	r2, #0
 756 0060 1A80     		strh	r2, [r3, #0]	@ movhi
 560:C:\Micrium\Software\uCOS-III\Source\os_tmr.c ****              break;
 757              		.loc 1 560 0
 758 0062 03E0     		b	.L59
 759              	.L57:
 561:C:\Micrium\Software\uCOS-III\Source\os_tmr.c **** 
 562:C:\Micrium\Software\uCOS-III\Source\os_tmr.c ****         default:
 563:C:\Micrium\Software\uCOS-III\Source\os_tmr.c ****             *p_err = OS_ERR_TMR_INVALID_STATE;
 760              		.loc 1 563 0
 761 0064 3B68     		ldr	r3, [r7, #0]
 762 0066 47F24132 		movw	r2, #29505
 763 006a 1A80     		strh	r2, [r3, #0]	@ movhi
 764              	.L59:
 564:C:\Micrium\Software\uCOS-III\Source\os_tmr.c ****              break;
 565:C:\Micrium\Software\uCOS-III\Source\os_tmr.c ****     }
 566:C:\Micrium\Software\uCOS-III\Source\os_tmr.c ****     CPU_CRITICAL_EXIT();
 765              		.loc 1 566 0
 766 006c F868     		ldr	r0, [r7, #12]
 767 006e FFF7FEFF 		bl	CPU_SR_Restore
 567:C:\Micrium\Software\uCOS-III\Source\os_tmr.c ****     return (state);
 768              		.loc 1 567 0
 769 0072 FB7A     		ldrb	r3, [r7, #11]	@ zero_extendqisi2
 770              	.L55:
 568:C:\Micrium\Software\uCOS-III\Source\os_tmr.c **** }
 771              		.loc 1 568 0
 772 0074 1846     		mov	r0, r3
 773 0076 07F11007 		add	r7, r7, #16
 774 007a BD46     		mov	sp, r7
 775 007c 80BD     		pop	{r7, pc}
 776              		.cfi_endproc
 777              	.LFE4:
 778              		.size	OSTmrStateGet, .-OSTmrStateGet
 779 007e 00BF     		.section	.text.OSTmrStop,"ax",%progbits
 780              		.align	2
 781              		.global	OSTmrStop
 782              		.thumb
 783              		.thumb_func
 784              		.type	OSTmrStop, %function
 785              	OSTmrStop:
 786              	.LFB5:
 569:C:\Micrium\Software\uCOS-III\Source\os_tmr.c **** 
 570:C:\Micrium\Software\uCOS-III\Source\os_tmr.c **** /*$PAGE*/
 571:C:\Micrium\Software\uCOS-III\Source\os_tmr.c **** /*
 572:C:\Micrium\Software\uCOS-III\Source\os_tmr.c **** ***************************************************************************************************
 573:C:\Micrium\Software\uCOS-III\Source\os_tmr.c **** *                                                    STOP A TIMER
 574:C:\Micrium\Software\uCOS-III\Source\os_tmr.c **** *
 575:C:\Micrium\Software\uCOS-III\Source\os_tmr.c **** * Description: This function is called by your application code to stop a timer.
 576:C:\Micrium\Software\uCOS-III\Source\os_tmr.c **** *
 577:C:\Micrium\Software\uCOS-III\Source\os_tmr.c **** * Arguments  : p_tmr          Is a pointer to the timer to stop.
 578:C:\Micrium\Software\uCOS-III\Source\os_tmr.c **** *
ARM GAS  C:\Users\daniel01\AppData\Local\Temp\ccxoNE0f.s 			page 25


 579:C:\Micrium\Software\uCOS-III\Source\os_tmr.c **** *              opt           Allows you to specify an option to this functions which can be:
 580:C:\Micrium\Software\uCOS-III\Source\os_tmr.c **** *
 581:C:\Micrium\Software\uCOS-III\Source\os_tmr.c **** *                               OS_OPT_TMR_NONE            Do nothing special but stop the timer
 582:C:\Micrium\Software\uCOS-III\Source\os_tmr.c **** *                               OS_OPT_TMR_CALLBACK        Execute the callback function, pass it t
 583:C:\Micrium\Software\uCOS-III\Source\os_tmr.c **** *                                                          specified when the timer was created.
 584:C:\Micrium\Software\uCOS-III\Source\os_tmr.c **** *                               OS_OPT_TMR_CALLBACK_ARG    Execute the callback function, pass it t
 585:C:\Micrium\Software\uCOS-III\Source\os_tmr.c **** *                                                          specified in THIS function call
 586:C:\Micrium\Software\uCOS-III\Source\os_tmr.c **** *
 587:C:\Micrium\Software\uCOS-III\Source\os_tmr.c **** *              callback_arg  Is a pointer to a 'new' callback argument that can be passed to the ca
 588:C:\Micrium\Software\uCOS-III\Source\os_tmr.c **** *                               instead of the timer's callback argument.  In other words, use 'cal
 589:C:\Micrium\Software\uCOS-III\Source\os_tmr.c **** *                               THIS function INSTEAD of p_tmr->OSTmrCallbackArg
 590:C:\Micrium\Software\uCOS-III\Source\os_tmr.c **** *
 591:C:\Micrium\Software\uCOS-III\Source\os_tmr.c **** *              p_err          Is a pointer to an error code.  '*p_err' will contain one of the foll
 592:C:\Micrium\Software\uCOS-III\Source\os_tmr.c **** *                               OS_ERR_NONE
 593:C:\Micrium\Software\uCOS-III\Source\os_tmr.c **** *                               OS_ERR_OBJ_TYPE            if 'p_tmr' is not pointing to a timer
 594:C:\Micrium\Software\uCOS-III\Source\os_tmr.c **** *                               OS_ERR_OPT_INVALID         if you specified an invalid option for '
 595:C:\Micrium\Software\uCOS-III\Source\os_tmr.c **** *                               OS_ERR_TMR_INACTIVE        if the timer was not created
 596:C:\Micrium\Software\uCOS-III\Source\os_tmr.c **** *                               OS_ERR_TMR_INVALID         'p_tmr' is a NULL pointer
 597:C:\Micrium\Software\uCOS-III\Source\os_tmr.c **** *                               OS_ERR_TMR_INVALID_STATE   the timer is in an invalid state
 598:C:\Micrium\Software\uCOS-III\Source\os_tmr.c **** *                               OS_ERR_TMR_ISR             if the function was called from an ISR
 599:C:\Micrium\Software\uCOS-III\Source\os_tmr.c **** *                               OS_ERR_TMR_NO_CALLBACK     if the timer does not have a callback fu
 600:C:\Micrium\Software\uCOS-III\Source\os_tmr.c **** *                               OS_ERR_TMR_STOPPED         if the timer was already stopped
 601:C:\Micrium\Software\uCOS-III\Source\os_tmr.c **** *
 602:C:\Micrium\Software\uCOS-III\Source\os_tmr.c **** * Returns    : DEF_TRUE       If we stopped the timer (if the timer is already stopped, we also ret
 603:C:\Micrium\Software\uCOS-III\Source\os_tmr.c **** *              DEF_FALSE      If not
 604:C:\Micrium\Software\uCOS-III\Source\os_tmr.c **** ***************************************************************************************************
 605:C:\Micrium\Software\uCOS-III\Source\os_tmr.c **** */
 606:C:\Micrium\Software\uCOS-III\Source\os_tmr.c **** 
 607:C:\Micrium\Software\uCOS-III\Source\os_tmr.c **** CPU_BOOLEAN  OSTmrStop (OS_TMR  *p_tmr,
 608:C:\Micrium\Software\uCOS-III\Source\os_tmr.c ****                         OS_OPT   opt,
 609:C:\Micrium\Software\uCOS-III\Source\os_tmr.c ****                         void    *p_callback_arg,
 610:C:\Micrium\Software\uCOS-III\Source\os_tmr.c ****                         OS_ERR  *p_err)
 611:C:\Micrium\Software\uCOS-III\Source\os_tmr.c **** {
 787              		.loc 1 611 0
 788              		.cfi_startproc
 789              		@ args = 0, pretend = 0, frame = 32
 790              		@ frame_needed = 1, uses_anonymous_args = 0
 791 0000 80B5     		push	{r7, lr}
 792              	.LCFI15:
 793              		.cfi_def_cfa_offset 8
 794 0002 88B0     		sub	sp, sp, #32
 795              	.LCFI16:
 796              		.cfi_def_cfa_offset 40
 797 0004 00AF     		add	r7, sp, #0
 798              		.cfi_offset 14, -4
 799              		.cfi_offset 7, -8
 800              	.LCFI17:
 801              		.cfi_def_cfa_register 7
 802 0006 F860     		str	r0, [r7, #12]
 803 0008 7A60     		str	r2, [r7, #4]
 804 000a 3B60     		str	r3, [r7, #0]
 805 000c 0B46     		mov	r3, r1	@ movhi
 806 000e 7B81     		strh	r3, [r7, #10]	@ movhi
 612:C:\Micrium\Software\uCOS-III\Source\os_tmr.c ****     OS_TMR_CALLBACK_PTR  p_fnct;
 613:C:\Micrium\Software\uCOS-III\Source\os_tmr.c ****     OS_ERR               err;
 614:C:\Micrium\Software\uCOS-III\Source\os_tmr.c ****     CPU_BOOLEAN          success;
 615:C:\Micrium\Software\uCOS-III\Source\os_tmr.c **** 
ARM GAS  C:\Users\daniel01\AppData\Local\Temp\ccxoNE0f.s 			page 26


 616:C:\Micrium\Software\uCOS-III\Source\os_tmr.c **** 
 617:C:\Micrium\Software\uCOS-III\Source\os_tmr.c **** 
 618:C:\Micrium\Software\uCOS-III\Source\os_tmr.c **** #ifdef OS_SAFETY_CRITICAL
 619:C:\Micrium\Software\uCOS-III\Source\os_tmr.c ****     if (p_err == (OS_ERR *)0) {
 620:C:\Micrium\Software\uCOS-III\Source\os_tmr.c ****         OS_SAFETY_CRITICAL_EXCEPTION();
 621:C:\Micrium\Software\uCOS-III\Source\os_tmr.c ****         return (DEF_FALSE);
 622:C:\Micrium\Software\uCOS-III\Source\os_tmr.c ****     }
 623:C:\Micrium\Software\uCOS-III\Source\os_tmr.c **** #endif
 624:C:\Micrium\Software\uCOS-III\Source\os_tmr.c **** 
 625:C:\Micrium\Software\uCOS-III\Source\os_tmr.c **** #if OS_CFG_CALLED_FROM_ISR_CHK_EN > 0u
 626:C:\Micrium\Software\uCOS-III\Source\os_tmr.c ****     if (OSIntNestingCtr > (OS_NESTING_CTR)0) {                        /* See if trying to call from
 807              		.loc 1 626 0
 808 0010 40F20003 		movw	r3, #:lower16:OSIntNestingCtr
 809 0014 C0F20003 		movt	r3, #:upper16:OSIntNestingCtr
 810 0018 1B78     		ldrb	r3, [r3, #0]	@ zero_extendqisi2
 811 001a 002B     		cmp	r3, #0
 812 001c 06D0     		beq	.L62
 627:C:\Micrium\Software\uCOS-III\Source\os_tmr.c ****        *p_err = OS_ERR_TMR_ISR;
 813              		.loc 1 627 0
 814 001e 3B68     		ldr	r3, [r7, #0]
 815 0020 47F24332 		movw	r2, #29507
 816 0024 1A80     		strh	r2, [r3, #0]	@ movhi
 628:C:\Micrium\Software\uCOS-III\Source\os_tmr.c ****         return (DEF_FALSE);
 817              		.loc 1 628 0
 818 0026 4FF00003 		mov	r3, #0
 819 002a 8DE0     		b	.L63
 820              	.L62:
 629:C:\Micrium\Software\uCOS-III\Source\os_tmr.c ****     }
 630:C:\Micrium\Software\uCOS-III\Source\os_tmr.c **** #endif
 631:C:\Micrium\Software\uCOS-III\Source\os_tmr.c **** 
 632:C:\Micrium\Software\uCOS-III\Source\os_tmr.c **** #if OS_CFG_ARG_CHK_EN > 0u
 633:C:\Micrium\Software\uCOS-III\Source\os_tmr.c ****     if (p_tmr == (OS_TMR *)0) {
 821              		.loc 1 633 0
 822 002c FB68     		ldr	r3, [r7, #12]
 823 002e 002B     		cmp	r3, #0
 824 0030 06D1     		bne	.L64
 634:C:\Micrium\Software\uCOS-III\Source\os_tmr.c ****        *p_err = OS_ERR_TMR_INVALID;
 825              		.loc 1 634 0
 826 0032 3B68     		ldr	r3, [r7, #0]
 827 0034 47F24232 		movw	r2, #29506
 828 0038 1A80     		strh	r2, [r3, #0]	@ movhi
 635:C:\Micrium\Software\uCOS-III\Source\os_tmr.c ****         return (DEF_FALSE);
 829              		.loc 1 635 0
 830 003a 4FF00003 		mov	r3, #0
 831 003e 83E0     		b	.L63
 832              	.L64:
 636:C:\Micrium\Software\uCOS-III\Source\os_tmr.c ****     }
 637:C:\Micrium\Software\uCOS-III\Source\os_tmr.c **** #endif
 638:C:\Micrium\Software\uCOS-III\Source\os_tmr.c **** 
 639:C:\Micrium\Software\uCOS-III\Source\os_tmr.c **** #if OS_CFG_OBJ_TYPE_CHK_EN > 0u
 640:C:\Micrium\Software\uCOS-III\Source\os_tmr.c ****     if (p_tmr->Type != OS_OBJ_TYPE_TMR) {                             /* Make sure timer was create
 641:C:\Micrium\Software\uCOS-III\Source\os_tmr.c ****        *p_err = OS_ERR_OBJ_TYPE;
 642:C:\Micrium\Software\uCOS-III\Source\os_tmr.c ****         return (DEF_FALSE);
 643:C:\Micrium\Software\uCOS-III\Source\os_tmr.c ****     }
 644:C:\Micrium\Software\uCOS-III\Source\os_tmr.c **** #endif
 645:C:\Micrium\Software\uCOS-III\Source\os_tmr.c **** 
 646:C:\Micrium\Software\uCOS-III\Source\os_tmr.c ****     OSSchedLock(&err);
ARM GAS  C:\Users\daniel01\AppData\Local\Temp\ccxoNE0f.s 			page 27


 833              		.loc 1 646 0
 834 0040 07F11603 		add	r3, r7, #22
 835 0044 1846     		mov	r0, r3
 836 0046 FFF7FEFF 		bl	OSSchedLock
 647:C:\Micrium\Software\uCOS-III\Source\os_tmr.c ****     switch (p_tmr->State) {
 837              		.loc 1 647 0
 838 004a FB68     		ldr	r3, [r7, #12]
 839 004c 93F82A30 		ldrb	r3, [r3, #42]	@ zero_extendqisi2
 840 0050 032B     		cmp	r3, #3
 841 0052 6CD8     		bhi	.L65
 842 0054 01A2     		adr	r2, .L69
 843 0056 52F823F0 		ldr	pc, [r2, r3, lsl #2]
 844 005a 00BF     		.align	2
 845              	.L69:
 846 005c 15010000 		.word	.L66+1
 847 0060 FB000000 		.word	.L67+1
 848 0064 6D000000 		.word	.L68+1
 849 0068 FB000000 		.word	.L67+1
 850              	.L68:
 648:C:\Micrium\Software\uCOS-III\Source\os_tmr.c ****         case OS_TMR_STATE_RUNNING:
 649:C:\Micrium\Software\uCOS-III\Source\os_tmr.c ****              OS_TmrUnlink(p_tmr);                                     /* Remove from current wheel 
 851              		.loc 1 649 0
 852 006c F868     		ldr	r0, [r7, #12]
 853 006e FFF7FEFF 		bl	OS_TmrUnlink
 650:C:\Micrium\Software\uCOS-III\Source\os_tmr.c ****             *p_err = OS_ERR_NONE;
 854              		.loc 1 650 0
 855 0072 3B68     		ldr	r3, [r7, #0]
 856 0074 4FF00002 		mov	r2, #0
 857 0078 1A80     		strh	r2, [r3, #0]	@ movhi
 651:C:\Micrium\Software\uCOS-III\Source\os_tmr.c ****              switch (opt) {
 858              		.loc 1 651 0
 859 007a 7B89     		ldrh	r3, [r7, #10]
 860 007c 032B     		cmp	r3, #3
 861 007e 04D0     		beq	.L72
 862 0080 042B     		cmp	r3, #4
 863 0082 14D0     		beq	.L73
 864 0084 002B     		cmp	r3, #0
 865 0086 2ED0     		beq	.L82
 866 0088 21E0     		b	.L81
 867              	.L72:
 652:C:\Micrium\Software\uCOS-III\Source\os_tmr.c ****                  case OS_OPT_TMR_CALLBACK:
 653:C:\Micrium\Software\uCOS-III\Source\os_tmr.c ****                       p_fnct = p_tmr->CallbackPtr;                         /* Execute callback func
 868              		.loc 1 653 0
 869 008a FB68     		ldr	r3, [r7, #12]
 870 008c 9B68     		ldr	r3, [r3, #8]
 871 008e BB61     		str	r3, [r7, #24]
 654:C:\Micrium\Software\uCOS-III\Source\os_tmr.c ****                       if (p_fnct != (OS_TMR_CALLBACK_PTR)0) {              /* ... if available     
 872              		.loc 1 654 0
 873 0090 BB69     		ldr	r3, [r7, #24]
 874 0092 002B     		cmp	r3, #0
 875 0094 06D0     		beq	.L74
 655:C:\Micrium\Software\uCOS-III\Source\os_tmr.c ****                         (*p_fnct)((void *)p_tmr, p_tmr->CallbackPtrArg);   /* Use callback arg when
 876              		.loc 1 655 0
 877 0096 FB68     		ldr	r3, [r7, #12]
 878 0098 DA68     		ldr	r2, [r3, #12]
 879 009a BB69     		ldr	r3, [r7, #24]
 880 009c F868     		ldr	r0, [r7, #12]
ARM GAS  C:\Users\daniel01\AppData\Local\Temp\ccxoNE0f.s 			page 28


 881 009e 1146     		mov	r1, r2
 882 00a0 9847     		blx	r3
 656:C:\Micrium\Software\uCOS-III\Source\os_tmr.c ****                       } else {
 657:C:\Micrium\Software\uCOS-III\Source\os_tmr.c ****                          *p_err = OS_ERR_TMR_NO_CALLBACK;
 658:C:\Micrium\Software\uCOS-III\Source\os_tmr.c ****                       }
 659:C:\Micrium\Software\uCOS-III\Source\os_tmr.c ****                       break;
 883              		.loc 1 659 0
 884 00a2 21E0     		b	.L76
 885              	.L74:
 886              		.loc 1 657 0
 887 00a4 3B68     		ldr	r3, [r7, #0]
 888 00a6 47F24432 		movw	r2, #29508
 889 00aa 1A80     		strh	r2, [r3, #0]	@ movhi
 890              		.loc 1 659 0
 891 00ac 1CE0     		b	.L76
 892              	.L73:
 660:C:\Micrium\Software\uCOS-III\Source\os_tmr.c **** 
 661:C:\Micrium\Software\uCOS-III\Source\os_tmr.c ****                  case OS_OPT_TMR_CALLBACK_ARG:
 662:C:\Micrium\Software\uCOS-III\Source\os_tmr.c ****                       p_fnct = p_tmr->CallbackPtr;                    /* Execute callback function 
 893              		.loc 1 662 0
 894 00ae FB68     		ldr	r3, [r7, #12]
 895 00b0 9B68     		ldr	r3, [r3, #8]
 896 00b2 BB61     		str	r3, [r7, #24]
 663:C:\Micrium\Software\uCOS-III\Source\os_tmr.c ****                       if (p_fnct != (OS_TMR_CALLBACK_PTR)0) {
 897              		.loc 1 663 0
 898 00b4 BB69     		ldr	r3, [r7, #24]
 899 00b6 002B     		cmp	r3, #0
 900 00b8 04D0     		beq	.L77
 664:C:\Micrium\Software\uCOS-III\Source\os_tmr.c ****                         (*p_fnct)((void *)p_tmr, p_callback_arg);     /* .. using the 'callback_arg
 901              		.loc 1 664 0
 902 00ba BB69     		ldr	r3, [r7, #24]
 903 00bc F868     		ldr	r0, [r7, #12]
 904 00be 7968     		ldr	r1, [r7, #4]
 905 00c0 9847     		blx	r3
 665:C:\Micrium\Software\uCOS-III\Source\os_tmr.c ****                       } else {
 666:C:\Micrium\Software\uCOS-III\Source\os_tmr.c ****                          *p_err = OS_ERR_TMR_NO_CALLBACK;
 667:C:\Micrium\Software\uCOS-III\Source\os_tmr.c ****                       }
 668:C:\Micrium\Software\uCOS-III\Source\os_tmr.c ****                       break;
 906              		.loc 1 668 0
 907 00c2 11E0     		b	.L76
 908              	.L77:
 909              		.loc 1 666 0
 910 00c4 3B68     		ldr	r3, [r7, #0]
 911 00c6 47F24432 		movw	r2, #29508
 912 00ca 1A80     		strh	r2, [r3, #0]	@ movhi
 913              		.loc 1 668 0
 914 00cc 0CE0     		b	.L76
 915              	.L81:
 669:C:\Micrium\Software\uCOS-III\Source\os_tmr.c **** 
 670:C:\Micrium\Software\uCOS-III\Source\os_tmr.c ****                  case OS_OPT_TMR_NONE:
 671:C:\Micrium\Software\uCOS-III\Source\os_tmr.c ****                       break;
 672:C:\Micrium\Software\uCOS-III\Source\os_tmr.c **** 
 673:C:\Micrium\Software\uCOS-III\Source\os_tmr.c ****                  default:
 674:C:\Micrium\Software\uCOS-III\Source\os_tmr.c ****                      OSSchedUnlock(&err);
 916              		.loc 1 674 0
 917 00ce 07F11603 		add	r3, r7, #22
 918 00d2 1846     		mov	r0, r3
ARM GAS  C:\Users\daniel01\AppData\Local\Temp\ccxoNE0f.s 			page 29


 919 00d4 FFF7FEFF 		bl	OSSchedUnlock
 675:C:\Micrium\Software\uCOS-III\Source\os_tmr.c ****                     *p_err = OS_ERR_OPT_INVALID;
 920              		.loc 1 675 0
 921 00d8 3B68     		ldr	r3, [r7, #0]
 922 00da 45F62562 		movw	r2, #24101
 923 00de 1A80     		strh	r2, [r3, #0]	@ movhi
 676:C:\Micrium\Software\uCOS-III\Source\os_tmr.c ****                      return (DEF_FALSE);
 924              		.loc 1 676 0
 925 00e0 4FF00003 		mov	r3, #0
 926 00e4 30E0     		b	.L63
 927              	.L82:
 928              		.loc 1 671 0
 929 00e6 00BF     		nop
 930              	.L76:
 677:C:\Micrium\Software\uCOS-III\Source\os_tmr.c ****              }
 678:C:\Micrium\Software\uCOS-III\Source\os_tmr.c ****              OSSchedUnlock(&err);
 931              		.loc 1 678 0
 932 00e8 07F11603 		add	r3, r7, #22
 933 00ec 1846     		mov	r0, r3
 934 00ee FFF7FEFF 		bl	OSSchedUnlock
 679:C:\Micrium\Software\uCOS-III\Source\os_tmr.c ****              success = DEF_TRUE;
 935              		.loc 1 679 0
 936 00f2 4FF00103 		mov	r3, #1
 937 00f6 FB77     		strb	r3, [r7, #31]
 680:C:\Micrium\Software\uCOS-III\Source\os_tmr.c ****              break;
 938              		.loc 1 680 0
 939 00f8 25E0     		b	.L79
 940              	.L67:
 681:C:\Micrium\Software\uCOS-III\Source\os_tmr.c **** 
 682:C:\Micrium\Software\uCOS-III\Source\os_tmr.c ****         case OS_TMR_STATE_COMPLETED:                                  /* Timer has already complete
 683:C:\Micrium\Software\uCOS-III\Source\os_tmr.c ****         case OS_TMR_STATE_STOPPED:                                    /* ... timer has not started 
 684:C:\Micrium\Software\uCOS-III\Source\os_tmr.c ****              OSSchedUnlock(&err);
 941              		.loc 1 684 0
 942 00fa 07F11603 		add	r3, r7, #22
 943 00fe 1846     		mov	r0, r3
 944 0100 FFF7FEFF 		bl	OSSchedUnlock
 685:C:\Micrium\Software\uCOS-III\Source\os_tmr.c ****             *p_err   = OS_ERR_TMR_STOPPED;
 945              		.loc 1 685 0
 946 0104 3B68     		ldr	r3, [r7, #0]
 947 0106 47F24932 		movw	r2, #29513
 948 010a 1A80     		strh	r2, [r3, #0]	@ movhi
 686:C:\Micrium\Software\uCOS-III\Source\os_tmr.c ****              success = DEF_TRUE;
 949              		.loc 1 686 0
 950 010c 4FF00103 		mov	r3, #1
 951 0110 FB77     		strb	r3, [r7, #31]
 687:C:\Micrium\Software\uCOS-III\Source\os_tmr.c ****              break;
 952              		.loc 1 687 0
 953 0112 18E0     		b	.L79
 954              	.L66:
 688:C:\Micrium\Software\uCOS-III\Source\os_tmr.c **** 
 689:C:\Micrium\Software\uCOS-III\Source\os_tmr.c ****         case OS_TMR_STATE_UNUSED:                                     /* Timer was not created     
 690:C:\Micrium\Software\uCOS-III\Source\os_tmr.c ****              OSSchedUnlock(&err);
 955              		.loc 1 690 0
 956 0114 07F11603 		add	r3, r7, #22
 957 0118 1846     		mov	r0, r3
 958 011a FFF7FEFF 		bl	OSSchedUnlock
 691:C:\Micrium\Software\uCOS-III\Source\os_tmr.c ****             *p_err   = OS_ERR_TMR_INACTIVE;
ARM GAS  C:\Users\daniel01\AppData\Local\Temp\ccxoNE0f.s 			page 30


 959              		.loc 1 691 0
 960 011e 3B68     		ldr	r3, [r7, #0]
 961 0120 47F23D32 		movw	r2, #29501
 962 0124 1A80     		strh	r2, [r3, #0]	@ movhi
 692:C:\Micrium\Software\uCOS-III\Source\os_tmr.c ****              success = DEF_FALSE;
 963              		.loc 1 692 0
 964 0126 4FF00003 		mov	r3, #0
 965 012a FB77     		strb	r3, [r7, #31]
 693:C:\Micrium\Software\uCOS-III\Source\os_tmr.c ****              break;
 966              		.loc 1 693 0
 967 012c 0BE0     		b	.L79
 968              	.L65:
 694:C:\Micrium\Software\uCOS-III\Source\os_tmr.c **** 
 695:C:\Micrium\Software\uCOS-III\Source\os_tmr.c ****         default:
 696:C:\Micrium\Software\uCOS-III\Source\os_tmr.c ****              OSSchedUnlock(&err);
 969              		.loc 1 696 0
 970 012e 07F11603 		add	r3, r7, #22
 971 0132 1846     		mov	r0, r3
 972 0134 FFF7FEFF 		bl	OSSchedUnlock
 697:C:\Micrium\Software\uCOS-III\Source\os_tmr.c ****             *p_err   = OS_ERR_TMR_INVALID_STATE;
 973              		.loc 1 697 0
 974 0138 3B68     		ldr	r3, [r7, #0]
 975 013a 47F24132 		movw	r2, #29505
 976 013e 1A80     		strh	r2, [r3, #0]	@ movhi
 698:C:\Micrium\Software\uCOS-III\Source\os_tmr.c ****              success = DEF_FALSE;
 977              		.loc 1 698 0
 978 0140 4FF00003 		mov	r3, #0
 979 0144 FB77     		strb	r3, [r7, #31]
 980              	.L79:
 699:C:\Micrium\Software\uCOS-III\Source\os_tmr.c ****              break;
 700:C:\Micrium\Software\uCOS-III\Source\os_tmr.c ****     }
 701:C:\Micrium\Software\uCOS-III\Source\os_tmr.c ****     return (success);
 981              		.loc 1 701 0
 982 0146 FB7F     		ldrb	r3, [r7, #31]	@ zero_extendqisi2
 983              	.L63:
 702:C:\Micrium\Software\uCOS-III\Source\os_tmr.c **** }
 984              		.loc 1 702 0
 985 0148 1846     		mov	r0, r3
 986 014a 07F12007 		add	r7, r7, #32
 987 014e BD46     		mov	sp, r7
 988 0150 80BD     		pop	{r7, pc}
 989              		.cfi_endproc
 990              	.LFE5:
 991              		.size	OSTmrStop, .-OSTmrStop
 992 0152 00BF     		.section	.rodata
 993              		.align	2
 994              	.LC0:
 995 0000 3F544D52 		.ascii	"?TMR\000"
 995      00
 996              		.section	.text.OS_TmrClr,"ax",%progbits
 997              		.align	2
 998              		.global	OS_TmrClr
 999              		.thumb
 1000              		.thumb_func
 1001              		.type	OS_TmrClr, %function
 1002              	OS_TmrClr:
 1003              	.LFB6:
ARM GAS  C:\Users\daniel01\AppData\Local\Temp\ccxoNE0f.s 			page 31


 703:C:\Micrium\Software\uCOS-III\Source\os_tmr.c **** 
 704:C:\Micrium\Software\uCOS-III\Source\os_tmr.c **** /*$PAGE*/
 705:C:\Micrium\Software\uCOS-III\Source\os_tmr.c **** /*
 706:C:\Micrium\Software\uCOS-III\Source\os_tmr.c **** ***************************************************************************************************
 707:C:\Micrium\Software\uCOS-III\Source\os_tmr.c **** *                                                 CLEAR TIMER FIELDS
 708:C:\Micrium\Software\uCOS-III\Source\os_tmr.c **** *
 709:C:\Micrium\Software\uCOS-III\Source\os_tmr.c **** * Description: This function is called to clear all timer fields.
 710:C:\Micrium\Software\uCOS-III\Source\os_tmr.c **** *
 711:C:\Micrium\Software\uCOS-III\Source\os_tmr.c **** * Argument(s): p_tmr    is a pointer to the timer to clear
 712:C:\Micrium\Software\uCOS-III\Source\os_tmr.c **** *              -----
 713:C:\Micrium\Software\uCOS-III\Source\os_tmr.c **** *
 714:C:\Micrium\Software\uCOS-III\Source\os_tmr.c **** * Returns    : none
 715:C:\Micrium\Software\uCOS-III\Source\os_tmr.c **** *
 716:C:\Micrium\Software\uCOS-III\Source\os_tmr.c **** * Note(s)    : 1) This function is INTERNAL to uC/OS-III and your application MUST NOT call it.
 717:C:\Micrium\Software\uCOS-III\Source\os_tmr.c **** ***************************************************************************************************
 718:C:\Micrium\Software\uCOS-III\Source\os_tmr.c **** */
 719:C:\Micrium\Software\uCOS-III\Source\os_tmr.c **** 
 720:C:\Micrium\Software\uCOS-III\Source\os_tmr.c **** void  OS_TmrClr (OS_TMR  *p_tmr)
 721:C:\Micrium\Software\uCOS-III\Source\os_tmr.c **** {
 1004              		.loc 1 721 0
 1005              		.cfi_startproc
 1006              		@ args = 0, pretend = 0, frame = 8
 1007              		@ frame_needed = 1, uses_anonymous_args = 0
 1008              		@ link register save eliminated.
 1009 0000 80B4     		push	{r7}
 1010              	.LCFI18:
 1011              		.cfi_def_cfa_offset 4
 1012 0002 83B0     		sub	sp, sp, #12
 1013              	.LCFI19:
 1014              		.cfi_def_cfa_offset 16
 1015 0004 00AF     		add	r7, sp, #0
 1016              		.cfi_offset 7, -4
 1017              	.LCFI20:
 1018              		.cfi_def_cfa_register 7
 1019 0006 7860     		str	r0, [r7, #4]
 722:C:\Micrium\Software\uCOS-III\Source\os_tmr.c ****     p_tmr->State          = OS_TMR_STATE_UNUSED;            /* Clear timer fields                  
 1020              		.loc 1 722 0
 1021 0008 7B68     		ldr	r3, [r7, #4]
 1022 000a 4FF00002 		mov	r2, #0
 1023 000e 83F82A20 		strb	r2, [r3, #42]
 723:C:\Micrium\Software\uCOS-III\Source\os_tmr.c ****     p_tmr->Type           = OS_OBJ_TYPE_NONE;
 1024              		.loc 1 723 0
 1025 0012 7A68     		ldr	r2, [r7, #4]
 1026 0014 44F64E73 		movw	r3, #:lower16:1162760014
 1027 0018 C4F24E53 		movt	r3, #:upper16:1162760014
 1028 001c 1360     		str	r3, [r2, #0]
 724:C:\Micrium\Software\uCOS-III\Source\os_tmr.c ****     p_tmr->NamePtr        = (CPU_CHAR          *)((void *)"?TMR");
 1029              		.loc 1 724 0
 1030 001e 7A68     		ldr	r2, [r7, #4]
 1031 0020 40F20003 		movw	r3, #:lower16:.LC0
 1032 0024 C0F20003 		movt	r3, #:upper16:.LC0
 1033 0028 5360     		str	r3, [r2, #4]
 725:C:\Micrium\Software\uCOS-III\Source\os_tmr.c ****     p_tmr->Dly            = (OS_TICK            )0;
 1034              		.loc 1 725 0
 1035 002a 7B68     		ldr	r3, [r7, #4]
 1036 002c 4FF00002 		mov	r2, #0
 1037 0030 1A62     		str	r2, [r3, #32]
ARM GAS  C:\Users\daniel01\AppData\Local\Temp\ccxoNE0f.s 			page 32


 726:C:\Micrium\Software\uCOS-III\Source\os_tmr.c ****     p_tmr->Match          = (OS_TICK            )0;
 1038              		.loc 1 726 0
 1039 0032 7B68     		ldr	r3, [r7, #4]
 1040 0034 4FF00002 		mov	r2, #0
 1041 0038 9A61     		str	r2, [r3, #24]
 727:C:\Micrium\Software\uCOS-III\Source\os_tmr.c ****     p_tmr->Remain         = (OS_TICK            )0;
 1042              		.loc 1 727 0
 1043 003a 7B68     		ldr	r3, [r7, #4]
 1044 003c 4FF00002 		mov	r2, #0
 1045 0040 DA61     		str	r2, [r3, #28]
 728:C:\Micrium\Software\uCOS-III\Source\os_tmr.c ****     p_tmr->Period         = (OS_TICK            )0;
 1046              		.loc 1 728 0
 1047 0042 7B68     		ldr	r3, [r7, #4]
 1048 0044 4FF00002 		mov	r2, #0
 1049 0048 5A62     		str	r2, [r3, #36]
 729:C:\Micrium\Software\uCOS-III\Source\os_tmr.c ****     p_tmr->Opt            = (OS_OPT             )0;
 1050              		.loc 1 729 0
 1051 004a 7B68     		ldr	r3, [r7, #4]
 1052 004c 4FF00002 		mov	r2, #0
 1053 0050 1A85     		strh	r2, [r3, #40]	@ movhi
 730:C:\Micrium\Software\uCOS-III\Source\os_tmr.c ****     p_tmr->CallbackPtr    = (OS_TMR_CALLBACK_PTR)0;
 1054              		.loc 1 730 0
 1055 0052 7B68     		ldr	r3, [r7, #4]
 1056 0054 4FF00002 		mov	r2, #0
 1057 0058 9A60     		str	r2, [r3, #8]
 731:C:\Micrium\Software\uCOS-III\Source\os_tmr.c ****     p_tmr->CallbackPtrArg = (void              *)0;
 1058              		.loc 1 731 0
 1059 005a 7B68     		ldr	r3, [r7, #4]
 1060 005c 4FF00002 		mov	r2, #0
 1061 0060 DA60     		str	r2, [r3, #12]
 732:C:\Micrium\Software\uCOS-III\Source\os_tmr.c ****     p_tmr->NextPtr        = (OS_TMR            *)0;
 1062              		.loc 1 732 0
 1063 0062 7B68     		ldr	r3, [r7, #4]
 1064 0064 4FF00002 		mov	r2, #0
 1065 0068 1A61     		str	r2, [r3, #16]
 733:C:\Micrium\Software\uCOS-III\Source\os_tmr.c ****     p_tmr->PrevPtr        = (OS_TMR            *)0;
 1066              		.loc 1 733 0
 1067 006a 7B68     		ldr	r3, [r7, #4]
 1068 006c 4FF00002 		mov	r2, #0
 1069 0070 5A61     		str	r2, [r3, #20]
 734:C:\Micrium\Software\uCOS-III\Source\os_tmr.c **** }
 1070              		.loc 1 734 0
 1071 0072 07F10C07 		add	r7, r7, #12
 1072 0076 BD46     		mov	sp, r7
 1073 0078 80BC     		pop	{r7}
 1074 007a 7047     		bx	lr
 1075              		.cfi_endproc
 1076              	.LFE6:
 1077              		.size	OS_TmrClr, .-OS_TmrClr
 1078              		.section	.text.OS_TmrDbgListAdd,"ax",%progbits
 1079              		.align	2
 1080              		.global	OS_TmrDbgListAdd
 1081              		.thumb
 1082              		.thumb_func
 1083              		.type	OS_TmrDbgListAdd, %function
 1084              	OS_TmrDbgListAdd:
 1085              	.LFB7:
ARM GAS  C:\Users\daniel01\AppData\Local\Temp\ccxoNE0f.s 			page 33


 735:C:\Micrium\Software\uCOS-III\Source\os_tmr.c **** 
 736:C:\Micrium\Software\uCOS-III\Source\os_tmr.c **** /*$PAGE*/
 737:C:\Micrium\Software\uCOS-III\Source\os_tmr.c **** /*
 738:C:\Micrium\Software\uCOS-III\Source\os_tmr.c **** ***************************************************************************************************
 739:C:\Micrium\Software\uCOS-III\Source\os_tmr.c **** *                                         ADD/REMOVE TIMER TO/FROM DEBUG TABLE
 740:C:\Micrium\Software\uCOS-III\Source\os_tmr.c **** *
 741:C:\Micrium\Software\uCOS-III\Source\os_tmr.c **** * Description: These functions are called by uC/OS-III to add or remove a timer to/from a timer deb
 742:C:\Micrium\Software\uCOS-III\Source\os_tmr.c **** *
 743:C:\Micrium\Software\uCOS-III\Source\os_tmr.c **** * Arguments  : p_tmr     is a pointer to the timer to add/remove
 744:C:\Micrium\Software\uCOS-III\Source\os_tmr.c **** *
 745:C:\Micrium\Software\uCOS-III\Source\os_tmr.c **** * Returns    : none
 746:C:\Micrium\Software\uCOS-III\Source\os_tmr.c **** *
 747:C:\Micrium\Software\uCOS-III\Source\os_tmr.c **** * Note(s)    : These functions are INTERNAL to uC/OS-III and your application should not call it.
 748:C:\Micrium\Software\uCOS-III\Source\os_tmr.c **** ***************************************************************************************************
 749:C:\Micrium\Software\uCOS-III\Source\os_tmr.c **** */
 750:C:\Micrium\Software\uCOS-III\Source\os_tmr.c **** 
 751:C:\Micrium\Software\uCOS-III\Source\os_tmr.c **** 
 752:C:\Micrium\Software\uCOS-III\Source\os_tmr.c **** #if OS_CFG_DBG_EN > 0u
 753:C:\Micrium\Software\uCOS-III\Source\os_tmr.c **** void  OS_TmrDbgListAdd (OS_TMR  *p_tmr)
 754:C:\Micrium\Software\uCOS-III\Source\os_tmr.c **** {
 1086              		.loc 1 754 0
 1087              		.cfi_startproc
 1088              		@ args = 0, pretend = 0, frame = 8
 1089              		@ frame_needed = 1, uses_anonymous_args = 0
 1090              		@ link register save eliminated.
 1091 0000 80B4     		push	{r7}
 1092              	.LCFI21:
 1093              		.cfi_def_cfa_offset 4
 1094 0002 83B0     		sub	sp, sp, #12
 1095              	.LCFI22:
 1096              		.cfi_def_cfa_offset 16
 1097 0004 00AF     		add	r7, sp, #0
 1098              		.cfi_offset 7, -4
 1099              	.LCFI23:
 1100              		.cfi_def_cfa_register 7
 1101 0006 7860     		str	r0, [r7, #4]
 755:C:\Micrium\Software\uCOS-III\Source\os_tmr.c ****     p_tmr->DbgPrevPtr               = (OS_TMR *)0;
 1102              		.loc 1 755 0
 1103 0008 7B68     		ldr	r3, [r7, #4]
 1104 000a 4FF00002 		mov	r2, #0
 1105 000e DA62     		str	r2, [r3, #44]
 756:C:\Micrium\Software\uCOS-III\Source\os_tmr.c ****     if (OSTmrDbgListPtr == (OS_TMR *)0) {
 1106              		.loc 1 756 0
 1107 0010 40F20003 		movw	r3, #:lower16:OSTmrDbgListPtr
 1108 0014 C0F20003 		movt	r3, #:upper16:OSTmrDbgListPtr
 1109 0018 1B68     		ldr	r3, [r3, #0]
 1110 001a 002B     		cmp	r3, #0
 1111 001c 04D1     		bne	.L86
 757:C:\Micrium\Software\uCOS-III\Source\os_tmr.c ****         p_tmr->DbgNextPtr           = (OS_TMR *)0;
 1112              		.loc 1 757 0
 1113 001e 7B68     		ldr	r3, [r7, #4]
 1114 0020 4FF00002 		mov	r2, #0
 1115 0024 1A63     		str	r2, [r3, #48]
 1116 0026 0DE0     		b	.L87
 1117              	.L86:
 758:C:\Micrium\Software\uCOS-III\Source\os_tmr.c ****     } else {
 759:C:\Micrium\Software\uCOS-III\Source\os_tmr.c ****         p_tmr->DbgNextPtr           =  OSTmrDbgListPtr;
ARM GAS  C:\Users\daniel01\AppData\Local\Temp\ccxoNE0f.s 			page 34


 1118              		.loc 1 759 0
 1119 0028 40F20003 		movw	r3, #:lower16:OSTmrDbgListPtr
 1120 002c C0F20003 		movt	r3, #:upper16:OSTmrDbgListPtr
 1121 0030 1A68     		ldr	r2, [r3, #0]
 1122 0032 7B68     		ldr	r3, [r7, #4]
 1123 0034 1A63     		str	r2, [r3, #48]
 760:C:\Micrium\Software\uCOS-III\Source\os_tmr.c ****         OSTmrDbgListPtr->DbgPrevPtr =  p_tmr;
 1124              		.loc 1 760 0
 1125 0036 40F20003 		movw	r3, #:lower16:OSTmrDbgListPtr
 1126 003a C0F20003 		movt	r3, #:upper16:OSTmrDbgListPtr
 1127 003e 1B68     		ldr	r3, [r3, #0]
 1128 0040 7A68     		ldr	r2, [r7, #4]
 1129 0042 DA62     		str	r2, [r3, #44]
 1130              	.L87:
 761:C:\Micrium\Software\uCOS-III\Source\os_tmr.c ****     }
 762:C:\Micrium\Software\uCOS-III\Source\os_tmr.c ****     OSTmrDbgListPtr                 =  p_tmr;
 1131              		.loc 1 762 0
 1132 0044 40F20003 		movw	r3, #:lower16:OSTmrDbgListPtr
 1133 0048 C0F20003 		movt	r3, #:upper16:OSTmrDbgListPtr
 1134 004c 7A68     		ldr	r2, [r7, #4]
 1135 004e 1A60     		str	r2, [r3, #0]
 763:C:\Micrium\Software\uCOS-III\Source\os_tmr.c **** }
 1136              		.loc 1 763 0
 1137 0050 07F10C07 		add	r7, r7, #12
 1138 0054 BD46     		mov	sp, r7
 1139 0056 80BC     		pop	{r7}
 1140 0058 7047     		bx	lr
 1141              		.cfi_endproc
 1142              	.LFE7:
 1143              		.size	OS_TmrDbgListAdd, .-OS_TmrDbgListAdd
 1144 005a 00BF     		.section	.text.OS_TmrDbgListRemove,"ax",%progbits
 1145              		.align	2
 1146              		.global	OS_TmrDbgListRemove
 1147              		.thumb
 1148              		.thumb_func
 1149              		.type	OS_TmrDbgListRemove, %function
 1150              	OS_TmrDbgListRemove:
 1151              	.LFB8:
 764:C:\Micrium\Software\uCOS-III\Source\os_tmr.c **** 
 765:C:\Micrium\Software\uCOS-III\Source\os_tmr.c **** 
 766:C:\Micrium\Software\uCOS-III\Source\os_tmr.c **** 
 767:C:\Micrium\Software\uCOS-III\Source\os_tmr.c **** void  OS_TmrDbgListRemove (OS_TMR  *p_tmr)
 768:C:\Micrium\Software\uCOS-III\Source\os_tmr.c **** {
 1152              		.loc 1 768 0
 1153              		.cfi_startproc
 1154              		@ args = 0, pretend = 0, frame = 16
 1155              		@ frame_needed = 1, uses_anonymous_args = 0
 1156              		@ link register save eliminated.
 1157 0000 80B4     		push	{r7}
 1158              	.LCFI24:
 1159              		.cfi_def_cfa_offset 4
 1160 0002 85B0     		sub	sp, sp, #20
 1161              	.LCFI25:
 1162              		.cfi_def_cfa_offset 24
 1163 0004 00AF     		add	r7, sp, #0
 1164              		.cfi_offset 7, -4
 1165              	.LCFI26:
ARM GAS  C:\Users\daniel01\AppData\Local\Temp\ccxoNE0f.s 			page 35


 1166              		.cfi_def_cfa_register 7
 1167 0006 7860     		str	r0, [r7, #4]
 769:C:\Micrium\Software\uCOS-III\Source\os_tmr.c ****     OS_TMR  *p_tmr_next;
 770:C:\Micrium\Software\uCOS-III\Source\os_tmr.c ****     OS_TMR  *p_tmr_prev;
 771:C:\Micrium\Software\uCOS-III\Source\os_tmr.c **** 
 772:C:\Micrium\Software\uCOS-III\Source\os_tmr.c **** 
 773:C:\Micrium\Software\uCOS-III\Source\os_tmr.c ****     p_tmr_prev = p_tmr->DbgPrevPtr;
 1168              		.loc 1 773 0
 1169 0008 7B68     		ldr	r3, [r7, #4]
 1170 000a DB6A     		ldr	r3, [r3, #44]
 1171 000c FB60     		str	r3, [r7, #12]
 774:C:\Micrium\Software\uCOS-III\Source\os_tmr.c ****     p_tmr_next = p_tmr->DbgNextPtr;
 1172              		.loc 1 774 0
 1173 000e 7B68     		ldr	r3, [r7, #4]
 1174 0010 1B6B     		ldr	r3, [r3, #48]
 1175 0012 BB60     		str	r3, [r7, #8]
 775:C:\Micrium\Software\uCOS-III\Source\os_tmr.c **** 
 776:C:\Micrium\Software\uCOS-III\Source\os_tmr.c ****     if (p_tmr_prev == (OS_TMR *)0) {
 1176              		.loc 1 776 0
 1177 0014 FB68     		ldr	r3, [r7, #12]
 1178 0016 002B     		cmp	r3, #0
 1179 0018 11D1     		bne	.L90
 777:C:\Micrium\Software\uCOS-III\Source\os_tmr.c ****         OSTmrDbgListPtr = p_tmr_next;
 1180              		.loc 1 777 0
 1181 001a 40F20003 		movw	r3, #:lower16:OSTmrDbgListPtr
 1182 001e C0F20003 		movt	r3, #:upper16:OSTmrDbgListPtr
 1183 0022 BA68     		ldr	r2, [r7, #8]
 1184 0024 1A60     		str	r2, [r3, #0]
 778:C:\Micrium\Software\uCOS-III\Source\os_tmr.c ****         if (p_tmr_next != (OS_TMR *)0) {
 1185              		.loc 1 778 0
 1186 0026 BB68     		ldr	r3, [r7, #8]
 1187 0028 002B     		cmp	r3, #0
 1188 002a 03D0     		beq	.L91
 779:C:\Micrium\Software\uCOS-III\Source\os_tmr.c ****             p_tmr_next->DbgPrevPtr = (OS_TMR *)0;
 1189              		.loc 1 779 0
 1190 002c BB68     		ldr	r3, [r7, #8]
 1191 002e 4FF00002 		mov	r2, #0
 1192 0032 DA62     		str	r2, [r3, #44]
 1193              	.L91:
 780:C:\Micrium\Software\uCOS-III\Source\os_tmr.c ****         }
 781:C:\Micrium\Software\uCOS-III\Source\os_tmr.c ****         p_tmr->DbgNextPtr = (OS_TMR *)0;
 1194              		.loc 1 781 0
 1195 0034 7B68     		ldr	r3, [r7, #4]
 1196 0036 4FF00002 		mov	r2, #0
 1197 003a 1A63     		str	r2, [r3, #48]
 1198 003c 19E0     		b	.L94
 1199              	.L90:
 782:C:\Micrium\Software\uCOS-III\Source\os_tmr.c **** 
 783:C:\Micrium\Software\uCOS-III\Source\os_tmr.c ****     } else if (p_tmr_next == (OS_TMR *)0) {
 1200              		.loc 1 783 0
 1201 003e BB68     		ldr	r3, [r7, #8]
 1202 0040 002B     		cmp	r3, #0
 1203 0042 08D1     		bne	.L93
 784:C:\Micrium\Software\uCOS-III\Source\os_tmr.c ****         p_tmr_prev->DbgNextPtr = (OS_TMR *)0;
 1204              		.loc 1 784 0
 1205 0044 FB68     		ldr	r3, [r7, #12]
 1206 0046 4FF00002 		mov	r2, #0
ARM GAS  C:\Users\daniel01\AppData\Local\Temp\ccxoNE0f.s 			page 36


 1207 004a 1A63     		str	r2, [r3, #48]
 785:C:\Micrium\Software\uCOS-III\Source\os_tmr.c ****         p_tmr->DbgPrevPtr      = (OS_TMR *)0;
 1208              		.loc 1 785 0
 1209 004c 7B68     		ldr	r3, [r7, #4]
 1210 004e 4FF00002 		mov	r2, #0
 1211 0052 DA62     		str	r2, [r3, #44]
 1212 0054 0DE0     		b	.L94
 1213              	.L93:
 786:C:\Micrium\Software\uCOS-III\Source\os_tmr.c **** 
 787:C:\Micrium\Software\uCOS-III\Source\os_tmr.c ****     } else {
 788:C:\Micrium\Software\uCOS-III\Source\os_tmr.c ****         p_tmr_prev->DbgNextPtr =  p_tmr_next;
 1214              		.loc 1 788 0
 1215 0056 FB68     		ldr	r3, [r7, #12]
 1216 0058 BA68     		ldr	r2, [r7, #8]
 1217 005a 1A63     		str	r2, [r3, #48]
 789:C:\Micrium\Software\uCOS-III\Source\os_tmr.c ****         p_tmr_next->DbgPrevPtr =  p_tmr_prev;
 1218              		.loc 1 789 0
 1219 005c BB68     		ldr	r3, [r7, #8]
 1220 005e FA68     		ldr	r2, [r7, #12]
 1221 0060 DA62     		str	r2, [r3, #44]
 790:C:\Micrium\Software\uCOS-III\Source\os_tmr.c ****         p_tmr->DbgNextPtr      = (OS_TMR *)0;
 1222              		.loc 1 790 0
 1223 0062 7B68     		ldr	r3, [r7, #4]
 1224 0064 4FF00002 		mov	r2, #0
 1225 0068 1A63     		str	r2, [r3, #48]
 791:C:\Micrium\Software\uCOS-III\Source\os_tmr.c ****         p_tmr->DbgPrevPtr      = (OS_TMR *)0;
 1226              		.loc 1 791 0
 1227 006a 7B68     		ldr	r3, [r7, #4]
 1228 006c 4FF00002 		mov	r2, #0
 1229 0070 DA62     		str	r2, [r3, #44]
 1230              	.L94:
 792:C:\Micrium\Software\uCOS-III\Source\os_tmr.c ****     }
 793:C:\Micrium\Software\uCOS-III\Source\os_tmr.c **** }
 1231              		.loc 1 793 0
 1232 0072 07F11407 		add	r7, r7, #20
 1233 0076 BD46     		mov	sp, r7
 1234 0078 80BC     		pop	{r7}
 1235 007a 7047     		bx	lr
 1236              		.cfi_endproc
 1237              	.LFE8:
 1238              		.size	OS_TmrDbgListRemove, .-OS_TmrDbgListRemove
 1239              		.section	.rodata
 1240 0005 000000   		.align	2
 1241              	.LC1:
 1242 0008 75432F4F 		.ascii	"uC/OS-III Timer Task\000"
 1242      532D4949 
 1242      49205469 
 1242      6D657220 
 1242      5461736B 
 1243 001d 000000   		.section	.text.OS_TmrInit,"ax",%progbits
 1244              		.align	2
 1245              		.global	OS_TmrInit
 1246              		.thumb
 1247              		.thumb_func
 1248              		.type	OS_TmrInit, %function
 1249              	OS_TmrInit:
 1250              	.LFB9:
ARM GAS  C:\Users\daniel01\AppData\Local\Temp\ccxoNE0f.s 			page 37


 794:C:\Micrium\Software\uCOS-III\Source\os_tmr.c **** #endif
 795:C:\Micrium\Software\uCOS-III\Source\os_tmr.c **** 
 796:C:\Micrium\Software\uCOS-III\Source\os_tmr.c **** /*$PAGE*/
 797:C:\Micrium\Software\uCOS-III\Source\os_tmr.c **** /*
 798:C:\Micrium\Software\uCOS-III\Source\os_tmr.c **** ***************************************************************************************************
 799:C:\Micrium\Software\uCOS-III\Source\os_tmr.c **** *                                             INITIALIZE THE TIMER MANAGER
 800:C:\Micrium\Software\uCOS-III\Source\os_tmr.c **** *
 801:C:\Micrium\Software\uCOS-III\Source\os_tmr.c **** * Description: This function is called by OSInit() to initialize the timer manager module.
 802:C:\Micrium\Software\uCOS-III\Source\os_tmr.c **** *
 803:C:\Micrium\Software\uCOS-III\Source\os_tmr.c **** * Argument(s): p_err    is a pointer to a variable that will contain an error code returned by this
 804:C:\Micrium\Software\uCOS-III\Source\os_tmr.c **** *
 805:C:\Micrium\Software\uCOS-III\Source\os_tmr.c **** *                           OS_ERR_NONE
 806:C:\Micrium\Software\uCOS-III\Source\os_tmr.c **** *                           OS_ERR_TMR_STK_INVALID       if you didn't specify a stack for the time
 807:C:\Micrium\Software\uCOS-III\Source\os_tmr.c **** *                           OS_ERR_TMR_STK_SIZE_INVALID  if you didn't allocate enough space for th
 808:C:\Micrium\Software\uCOS-III\Source\os_tmr.c **** *                           OS_ERR_PRIO_INVALID          if you specified the same priority as the 
 809:C:\Micrium\Software\uCOS-III\Source\os_tmr.c **** *                           OS_ERR_xxx                   any error code returned by OSTaskCreate()
 810:C:\Micrium\Software\uCOS-III\Source\os_tmr.c **** *
 811:C:\Micrium\Software\uCOS-III\Source\os_tmr.c **** * Returns    : none
 812:C:\Micrium\Software\uCOS-III\Source\os_tmr.c **** *
 813:C:\Micrium\Software\uCOS-III\Source\os_tmr.c **** * Note(s)    : 1) This function is INTERNAL to uC/OS-III and your application MUST NOT call it.
 814:C:\Micrium\Software\uCOS-III\Source\os_tmr.c **** ***************************************************************************************************
 815:C:\Micrium\Software\uCOS-III\Source\os_tmr.c **** */
 816:C:\Micrium\Software\uCOS-III\Source\os_tmr.c **** 
 817:C:\Micrium\Software\uCOS-III\Source\os_tmr.c **** void  OS_TmrInit (OS_ERR  *p_err)
 818:C:\Micrium\Software\uCOS-III\Source\os_tmr.c **** {
 1251              		.loc 1 818 0
 1252              		.cfi_startproc
 1253              		@ args = 0, pretend = 0, frame = 16
 1254              		@ frame_needed = 1, uses_anonymous_args = 0
 1255 0000 80B5     		push	{r7, lr}
 1256              	.LCFI27:
 1257              		.cfi_def_cfa_offset 8
 1258 0002 8EB0     		sub	sp, sp, #56
 1259              	.LCFI28:
 1260              		.cfi_def_cfa_offset 64
 1261 0004 0AAF     		add	r7, sp, #40
 1262              		.cfi_offset 14, -4
 1263              		.cfi_offset 7, -8
 1264              	.LCFI29:
 1265              		.cfi_def_cfa 7, 24
 1266 0006 7860     		str	r0, [r7, #4]
 819:C:\Micrium\Software\uCOS-III\Source\os_tmr.c ****     OS_TMR_SPOKE_IX   i;
 820:C:\Micrium\Software\uCOS-III\Source\os_tmr.c ****     OS_TMR_SPOKE     *p_spoke;
 821:C:\Micrium\Software\uCOS-III\Source\os_tmr.c **** 
 822:C:\Micrium\Software\uCOS-III\Source\os_tmr.c **** 
 823:C:\Micrium\Software\uCOS-III\Source\os_tmr.c **** 
 824:C:\Micrium\Software\uCOS-III\Source\os_tmr.c **** #ifdef OS_SAFETY_CRITICAL
 825:C:\Micrium\Software\uCOS-III\Source\os_tmr.c ****     if (p_err == (OS_ERR *)0) {
 826:C:\Micrium\Software\uCOS-III\Source\os_tmr.c ****         OS_SAFETY_CRITICAL_EXCEPTION();
 827:C:\Micrium\Software\uCOS-III\Source\os_tmr.c ****         return;
 828:C:\Micrium\Software\uCOS-III\Source\os_tmr.c ****     }
 829:C:\Micrium\Software\uCOS-III\Source\os_tmr.c **** #endif
 830:C:\Micrium\Software\uCOS-III\Source\os_tmr.c **** 
 831:C:\Micrium\Software\uCOS-III\Source\os_tmr.c **** #if OS_CFG_DBG_EN > 0u
 832:C:\Micrium\Software\uCOS-III\Source\os_tmr.c ****     OSTmrDbgListPtr = (OS_TMR *)0;
 1267              		.loc 1 832 0
 1268 0008 40F20003 		movw	r3, #:lower16:OSTmrDbgListPtr
ARM GAS  C:\Users\daniel01\AppData\Local\Temp\ccxoNE0f.s 			page 38


 1269 000c C0F20003 		movt	r3, #:upper16:OSTmrDbgListPtr
 1270 0010 4FF00002 		mov	r2, #0
 1271 0014 1A60     		str	r2, [r3, #0]
 833:C:\Micrium\Software\uCOS-III\Source\os_tmr.c **** #endif
 834:C:\Micrium\Software\uCOS-III\Source\os_tmr.c **** 
 835:C:\Micrium\Software\uCOS-III\Source\os_tmr.c ****     if (OSCfg_TmrTaskRate_Hz > (OS_RATE_HZ)0) {
 1272              		.loc 1 835 0
 1273 0016 40F20003 		movw	r3, #:lower16:OSCfg_TmrTaskRate_Hz
 1274 001a C0F20003 		movt	r3, #:upper16:OSCfg_TmrTaskRate_Hz
 1275 001e 1B68     		ldr	r3, [r3, #0]
 1276 0020 002B     		cmp	r3, #0
 1277 0022 11D0     		beq	.L96
 836:C:\Micrium\Software\uCOS-III\Source\os_tmr.c ****         OSTmrUpdateCnt = OSCfg_TickRate_Hz / OSCfg_TmrTaskRate_Hz;
 1278              		.loc 1 836 0
 1279 0024 40F20003 		movw	r3, #:lower16:OSCfg_TickRate_Hz
 1280 0028 C0F20003 		movt	r3, #:upper16:OSCfg_TickRate_Hz
 1281 002c 1A68     		ldr	r2, [r3, #0]
 1282 002e 40F20003 		movw	r3, #:lower16:OSCfg_TmrTaskRate_Hz
 1283 0032 C0F20003 		movt	r3, #:upper16:OSCfg_TmrTaskRate_Hz
 1284 0036 1B68     		ldr	r3, [r3, #0]
 1285 0038 B2FBF3F2 		udiv	r2, r2, r3
 1286 003c 40F20003 		movw	r3, #:lower16:OSTmrUpdateCnt
 1287 0040 C0F20003 		movt	r3, #:upper16:OSTmrUpdateCnt
 1288 0044 1A60     		str	r2, [r3, #0]
 1289 0046 11E0     		b	.L97
 1290              	.L96:
 837:C:\Micrium\Software\uCOS-III\Source\os_tmr.c ****     } else {
 838:C:\Micrium\Software\uCOS-III\Source\os_tmr.c ****         OSTmrUpdateCnt = OSCfg_TickRate_Hz / (OS_RATE_HZ)10;
 1291              		.loc 1 838 0
 1292 0048 40F20003 		movw	r3, #:lower16:OSCfg_TickRate_Hz
 1293 004c C0F20003 		movt	r3, #:upper16:OSCfg_TickRate_Hz
 1294 0050 1A68     		ldr	r2, [r3, #0]
 1295 0052 4CF6CD43 		movw	r3, #:lower16:-858993459
 1296 0056 CCF6CC43 		movt	r3, #:upper16:-858993459
 1297 005a A3FB0213 		umull	r1, r3, r3, r2
 1298 005e 4FEAD302 		lsr	r2, r3, #3
 1299 0062 40F20003 		movw	r3, #:lower16:OSTmrUpdateCnt
 1300 0066 C0F20003 		movt	r3, #:upper16:OSTmrUpdateCnt
 1301 006a 1A60     		str	r2, [r3, #0]
 1302              	.L97:
 839:C:\Micrium\Software\uCOS-III\Source\os_tmr.c ****     }
 840:C:\Micrium\Software\uCOS-III\Source\os_tmr.c ****     OSTmrUpdateCtr   = OSTmrUpdateCnt;
 1303              		.loc 1 840 0
 1304 006c 40F20003 		movw	r3, #:lower16:OSTmrUpdateCnt
 1305 0070 C0F20003 		movt	r3, #:upper16:OSTmrUpdateCnt
 1306 0074 1A68     		ldr	r2, [r3, #0]
 1307 0076 40F20003 		movw	r3, #:lower16:OSTmrUpdateCtr
 1308 007a C0F20003 		movt	r3, #:upper16:OSTmrUpdateCtr
 1309 007e 1A60     		str	r2, [r3, #0]
 841:C:\Micrium\Software\uCOS-III\Source\os_tmr.c **** 
 842:C:\Micrium\Software\uCOS-III\Source\os_tmr.c ****     OSTmrTickCtr     = (OS_TICK)0;
 1310              		.loc 1 842 0
 1311 0080 40F20003 		movw	r3, #:lower16:OSTmrTickCtr
 1312 0084 C0F20003 		movt	r3, #:upper16:OSTmrTickCtr
 1313 0088 4FF00002 		mov	r2, #0
 1314 008c 1A60     		str	r2, [r3, #0]
 843:C:\Micrium\Software\uCOS-III\Source\os_tmr.c **** 
ARM GAS  C:\Users\daniel01\AppData\Local\Temp\ccxoNE0f.s 			page 39


 844:C:\Micrium\Software\uCOS-III\Source\os_tmr.c ****     OSTmrTaskTimeMax = (CPU_TS)0;
 1315              		.loc 1 844 0
 1316 008e 40F20003 		movw	r3, #:lower16:OSTmrTaskTimeMax
 1317 0092 C0F20003 		movt	r3, #:upper16:OSTmrTaskTimeMax
 1318 0096 4FF00002 		mov	r2, #0
 1319 009a 1A60     		str	r2, [r3, #0]
 845:C:\Micrium\Software\uCOS-III\Source\os_tmr.c **** 
 846:C:\Micrium\Software\uCOS-III\Source\os_tmr.c ****     for (i = 0u; i < OSCfg_TmrWheelSize; i++) {
 1320              		.loc 1 846 0
 1321 009c 4FF00003 		mov	r3, #0
 1322 00a0 7B81     		strh	r3, [r7, #10]	@ movhi
 1323 00a2 18E0     		b	.L98
 1324              	.L99:
 847:C:\Micrium\Software\uCOS-III\Source\os_tmr.c ****         p_spoke                = &OSCfg_TmrWheel[i];
 1325              		.loc 1 847 0
 1326 00a4 7B89     		ldrh	r3, [r7, #10]
 1327 00a6 4FEAC302 		lsl	r2, r3, #3
 1328 00aa 40F20003 		movw	r3, #:lower16:OSCfg_TmrWheel
 1329 00ae C0F20003 		movt	r3, #:upper16:OSCfg_TmrWheel
 1330 00b2 1344     		add	r3, r2, r3
 1331 00b4 FB60     		str	r3, [r7, #12]
 848:C:\Micrium\Software\uCOS-III\Source\os_tmr.c ****         p_spoke->NbrEntries    = (OS_OBJ_QTY)0;
 1332              		.loc 1 848 0
 1333 00b6 FB68     		ldr	r3, [r7, #12]
 1334 00b8 4FF00002 		mov	r2, #0
 1335 00bc 9A80     		strh	r2, [r3, #4]	@ movhi
 849:C:\Micrium\Software\uCOS-III\Source\os_tmr.c ****         p_spoke->NbrEntriesMax = (OS_OBJ_QTY)0;
 1336              		.loc 1 849 0
 1337 00be FB68     		ldr	r3, [r7, #12]
 1338 00c0 4FF00002 		mov	r2, #0
 1339 00c4 DA80     		strh	r2, [r3, #6]	@ movhi
 850:C:\Micrium\Software\uCOS-III\Source\os_tmr.c ****         p_spoke->FirstPtr      = (OS_TMR   *)0;
 1340              		.loc 1 850 0
 1341 00c6 FB68     		ldr	r3, [r7, #12]
 1342 00c8 4FF00002 		mov	r2, #0
 1343 00cc 1A60     		str	r2, [r3, #0]
 1344              		.loc 1 846 0
 1345 00ce 7B89     		ldrh	r3, [r7, #10]	@ movhi
 1346 00d0 03F10103 		add	r3, r3, #1
 1347 00d4 7B81     		strh	r3, [r7, #10]	@ movhi
 1348              	.L98:
 1349 00d6 40F20003 		movw	r3, #:lower16:OSCfg_TmrWheelSize
 1350 00da C0F20003 		movt	r3, #:upper16:OSCfg_TmrWheelSize
 1351 00de 1B88     		ldrh	r3, [r3, #0]
 1352 00e0 7A89     		ldrh	r2, [r7, #10]
 1353 00e2 9A42     		cmp	r2, r3
 1354 00e4 DED3     		bcc	.L99
 851:C:\Micrium\Software\uCOS-III\Source\os_tmr.c ****     }
 852:C:\Micrium\Software\uCOS-III\Source\os_tmr.c **** 
 853:C:\Micrium\Software\uCOS-III\Source\os_tmr.c ****                                                             /* ---------------- CREATE THE TIMER TA
 854:C:\Micrium\Software\uCOS-III\Source\os_tmr.c ****     if (OSCfg_TmrTaskStkBasePtr == (CPU_STK*)0) {
 1355              		.loc 1 854 0
 1356 00e6 40F20003 		movw	r3, #:lower16:OSCfg_TmrTaskStkBasePtr
 1357 00ea C0F20003 		movt	r3, #:upper16:OSCfg_TmrTaskStkBasePtr
 1358 00ee 1B68     		ldr	r3, [r3, #0]
 1359 00f0 002B     		cmp	r3, #0
 1360 00f2 04D1     		bne	.L100
ARM GAS  C:\Users\daniel01\AppData\Local\Temp\ccxoNE0f.s 			page 40


 855:C:\Micrium\Software\uCOS-III\Source\os_tmr.c ****        *p_err = OS_ERR_TMR_STK_INVALID;
 1361              		.loc 1 855 0
 1362 00f4 7B68     		ldr	r3, [r7, #4]
 1363 00f6 47F24732 		movw	r2, #29511
 1364 00fa 1A80     		strh	r2, [r3, #0]	@ movhi
 856:C:\Micrium\Software\uCOS-III\Source\os_tmr.c ****         return;
 1365              		.loc 1 856 0
 1366 00fc 52E0     		b	.L104
 1367              	.L100:
 857:C:\Micrium\Software\uCOS-III\Source\os_tmr.c ****     }
 858:C:\Micrium\Software\uCOS-III\Source\os_tmr.c **** 
 859:C:\Micrium\Software\uCOS-III\Source\os_tmr.c ****     if (OSCfg_TmrTaskStkSize < OSCfg_StkSizeMin) {
 1368              		.loc 1 859 0
 1369 00fe 40F20003 		movw	r3, #:lower16:OSCfg_TmrTaskStkSize
 1370 0102 C0F20003 		movt	r3, #:upper16:OSCfg_TmrTaskStkSize
 1371 0106 1A68     		ldr	r2, [r3, #0]
 1372 0108 40F20003 		movw	r3, #:lower16:OSCfg_StkSizeMin
 1373 010c C0F20003 		movt	r3, #:upper16:OSCfg_StkSizeMin
 1374 0110 1B68     		ldr	r3, [r3, #0]
 1375 0112 9A42     		cmp	r2, r3
 1376 0114 04D2     		bcs	.L102
 860:C:\Micrium\Software\uCOS-III\Source\os_tmr.c ****        *p_err = OS_ERR_TMR_STK_SIZE_INVALID;
 1377              		.loc 1 860 0
 1378 0116 7B68     		ldr	r3, [r7, #4]
 1379 0118 47F24832 		movw	r2, #29512
 1380 011c 1A80     		strh	r2, [r3, #0]	@ movhi
 861:C:\Micrium\Software\uCOS-III\Source\os_tmr.c ****         return;
 1381              		.loc 1 861 0
 1382 011e 41E0     		b	.L104
 1383              	.L102:
 862:C:\Micrium\Software\uCOS-III\Source\os_tmr.c ****     }
 863:C:\Micrium\Software\uCOS-III\Source\os_tmr.c **** 
 864:C:\Micrium\Software\uCOS-III\Source\os_tmr.c ****     if (OSCfg_TmrTaskPrio >= (OS_CFG_PRIO_MAX - 1u)) {
 1384              		.loc 1 864 0
 1385 0120 40F20003 		movw	r3, #:lower16:OSCfg_TmrTaskPrio
 1386 0124 C0F20003 		movt	r3, #:upper16:OSCfg_TmrTaskPrio
 1387 0128 1B78     		ldrb	r3, [r3, #0]	@ zero_extendqisi2
 1388 012a 062B     		cmp	r3, #6
 1389 012c 04D9     		bls	.L103
 865:C:\Micrium\Software\uCOS-III\Source\os_tmr.c ****        *p_err = OS_ERR_TMR_PRIO_INVALID;
 1390              		.loc 1 865 0
 1391 012e 7B68     		ldr	r3, [r7, #4]
 1392 0130 47F24632 		movw	r2, #29510
 1393 0134 1A80     		strh	r2, [r3, #0]	@ movhi
 866:C:\Micrium\Software\uCOS-III\Source\os_tmr.c ****         return;
 1394              		.loc 1 866 0
 1395 0136 35E0     		b	.L104
 1396              	.L103:
 867:C:\Micrium\Software\uCOS-III\Source\os_tmr.c ****     }
 868:C:\Micrium\Software\uCOS-III\Source\os_tmr.c **** 
 869:C:\Micrium\Software\uCOS-III\Source\os_tmr.c ****     OSTaskCreate((OS_TCB     *)&OSTmrTaskTCB,
 1397              		.loc 1 869 0
 1398 0138 40F20003 		movw	r3, #:lower16:OSCfg_TmrTaskPrio
 1399 013c C0F20003 		movt	r3, #:upper16:OSCfg_TmrTaskPrio
 1400 0140 1878     		ldrb	r0, [r3, #0]	@ zero_extendqisi2
 1401 0142 40F20003 		movw	r3, #:lower16:OSCfg_TmrTaskStkBasePtr
 1402 0146 C0F20003 		movt	r3, #:upper16:OSCfg_TmrTaskStkBasePtr
ARM GAS  C:\Users\daniel01\AppData\Local\Temp\ccxoNE0f.s 			page 41


 1403 014a 1968     		ldr	r1, [r3, #0]
 1404 014c 40F20003 		movw	r3, #:lower16:OSCfg_TmrTaskStkLimit
 1405 0150 C0F20003 		movt	r3, #:upper16:OSCfg_TmrTaskStkLimit
 1406 0154 1A68     		ldr	r2, [r3, #0]
 1407 0156 40F20003 		movw	r3, #:lower16:OSCfg_TmrTaskStkSize
 1408 015a C0F20003 		movt	r3, #:upper16:OSCfg_TmrTaskStkSize
 1409 015e 1B68     		ldr	r3, [r3, #0]
 1410 0160 0090     		str	r0, [sp, #0]
 1411 0162 0191     		str	r1, [sp, #4]
 1412 0164 0292     		str	r2, [sp, #8]
 1413 0166 0393     		str	r3, [sp, #12]
 1414 0168 4FF00003 		mov	r3, #0
 1415 016c 0493     		str	r3, [sp, #16]
 1416 016e 4FF00003 		mov	r3, #0
 1417 0172 0593     		str	r3, [sp, #20]
 1418 0174 4FF00003 		mov	r3, #0
 1419 0178 0693     		str	r3, [sp, #24]
 1420 017a 4FF00B03 		mov	r3, #11
 1421 017e 0793     		str	r3, [sp, #28]
 1422 0180 7B68     		ldr	r3, [r7, #4]
 1423 0182 0893     		str	r3, [sp, #32]
 1424 0184 40F20000 		movw	r0, #:lower16:OSTmrTaskTCB
 1425 0188 C0F20000 		movt	r0, #:upper16:OSTmrTaskTCB
 1426 018c 40F20001 		movw	r1, #:lower16:.LC1
 1427 0190 C0F20001 		movt	r1, #:upper16:.LC1
 1428 0194 40F20002 		movw	r2, #:lower16:OS_TmrTask
 1429 0198 C0F20002 		movt	r2, #:upper16:OS_TmrTask
 1430 019c 4FF00003 		mov	r3, #0
 1431 01a0 FFF7FEFF 		bl	OSTaskCreate
 1432              	.L104:
 870:C:\Micrium\Software\uCOS-III\Source\os_tmr.c ****                  (CPU_CHAR   *)((void *)"uC/OS-III Timer Task"),
 871:C:\Micrium\Software\uCOS-III\Source\os_tmr.c ****                  (OS_TASK_PTR )OS_TmrTask,
 872:C:\Micrium\Software\uCOS-III\Source\os_tmr.c ****                  (void       *)0,
 873:C:\Micrium\Software\uCOS-III\Source\os_tmr.c ****                  (OS_PRIO     )OSCfg_TmrTaskPrio,
 874:C:\Micrium\Software\uCOS-III\Source\os_tmr.c ****                  (CPU_STK    *)OSCfg_TmrTaskStkBasePtr,
 875:C:\Micrium\Software\uCOS-III\Source\os_tmr.c ****                  (CPU_STK_SIZE)OSCfg_TmrTaskStkLimit,
 876:C:\Micrium\Software\uCOS-III\Source\os_tmr.c ****                  (CPU_STK_SIZE)OSCfg_TmrTaskStkSize,
 877:C:\Micrium\Software\uCOS-III\Source\os_tmr.c ****                  (OS_MSG_QTY  )0,
 878:C:\Micrium\Software\uCOS-III\Source\os_tmr.c ****                  (OS_TICK     )0,
 879:C:\Micrium\Software\uCOS-III\Source\os_tmr.c ****                  (void       *)0,
 880:C:\Micrium\Software\uCOS-III\Source\os_tmr.c ****                  (OS_OPT      )(OS_OPT_TASK_STK_CHK | OS_OPT_TASK_STK_CLR | OS_OPT_TASK_NO_TLS),
 881:C:\Micrium\Software\uCOS-III\Source\os_tmr.c ****                  (OS_ERR     *)p_err);
 882:C:\Micrium\Software\uCOS-III\Source\os_tmr.c **** }
 1433              		.loc 1 882 0
 1434 01a4 07F11007 		add	r7, r7, #16
 1435 01a8 BD46     		mov	sp, r7
 1436 01aa 80BD     		pop	{r7, pc}
 1437              		.cfi_endproc
 1438              	.LFE9:
 1439              		.size	OS_TmrInit, .-OS_TmrInit
 1440              		.section	.text.OS_TmrLink,"ax",%progbits
 1441              		.align	2
 1442              		.global	OS_TmrLink
 1443              		.thumb
 1444              		.thumb_func
 1445              		.type	OS_TmrLink, %function
 1446              	OS_TmrLink:
ARM GAS  C:\Users\daniel01\AppData\Local\Temp\ccxoNE0f.s 			page 42


 1447              	.LFB10:
 883:C:\Micrium\Software\uCOS-III\Source\os_tmr.c **** 
 884:C:\Micrium\Software\uCOS-III\Source\os_tmr.c **** /*$PAGE*/
 885:C:\Micrium\Software\uCOS-III\Source\os_tmr.c **** /*
 886:C:\Micrium\Software\uCOS-III\Source\os_tmr.c **** ***************************************************************************************************
 887:C:\Micrium\Software\uCOS-III\Source\os_tmr.c **** *                                         INSERT A TIMER INTO THE TIMER WHEEL
 888:C:\Micrium\Software\uCOS-III\Source\os_tmr.c **** *
 889:C:\Micrium\Software\uCOS-III\Source\os_tmr.c **** * Description: This function is called to insert the timer into the timer wheel.  The timer is alwa
 890:C:\Micrium\Software\uCOS-III\Source\os_tmr.c **** *              beginning of the list.
 891:C:\Micrium\Software\uCOS-III\Source\os_tmr.c **** *
 892:C:\Micrium\Software\uCOS-III\Source\os_tmr.c **** * Arguments  : p_tmr          Is a pointer to the timer to insert.
 893:C:\Micrium\Software\uCOS-III\Source\os_tmr.c **** *              -----
 894:C:\Micrium\Software\uCOS-III\Source\os_tmr.c **** *
 895:C:\Micrium\Software\uCOS-III\Source\os_tmr.c **** *              opt            Is either:
 896:C:\Micrium\Software\uCOS-III\Source\os_tmr.c **** *
 897:C:\Micrium\Software\uCOS-III\Source\os_tmr.c **** *                               OS_OPT_LINK_PERIODIC    Means to re-insert the timer after a period
 898:C:\Micrium\Software\uCOS-III\Source\os_tmr.c **** *                               OS_OPT_LINK_DLY         Means to insert    the timer the first time
 899:C:\Micrium\Software\uCOS-III\Source\os_tmr.c **** *
 900:C:\Micrium\Software\uCOS-III\Source\os_tmr.c **** * Returns    : none
 901:C:\Micrium\Software\uCOS-III\Source\os_tmr.c **** *
 902:C:\Micrium\Software\uCOS-III\Source\os_tmr.c **** * Note(s)    : 1) This function is INTERNAL to uC/OS-III and your application MUST NOT call it.
 903:C:\Micrium\Software\uCOS-III\Source\os_tmr.c **** ***************************************************************************************************
 904:C:\Micrium\Software\uCOS-III\Source\os_tmr.c **** */
 905:C:\Micrium\Software\uCOS-III\Source\os_tmr.c **** 
 906:C:\Micrium\Software\uCOS-III\Source\os_tmr.c **** void  OS_TmrLink (OS_TMR  *p_tmr,
 907:C:\Micrium\Software\uCOS-III\Source\os_tmr.c ****                   OS_OPT   opt)
 908:C:\Micrium\Software\uCOS-III\Source\os_tmr.c **** {
 1448              		.loc 1 908 0
 1449              		.cfi_startproc
 1450              		@ args = 0, pretend = 0, frame = 24
 1451              		@ frame_needed = 1, uses_anonymous_args = 0
 1452              		@ link register save eliminated.
 1453 0000 80B4     		push	{r7}
 1454              	.LCFI30:
 1455              		.cfi_def_cfa_offset 4
 1456 0002 87B0     		sub	sp, sp, #28
 1457              	.LCFI31:
 1458              		.cfi_def_cfa_offset 32
 1459 0004 00AF     		add	r7, sp, #0
 1460              		.cfi_offset 7, -4
 1461              	.LCFI32:
 1462              		.cfi_def_cfa_register 7
 1463 0006 7860     		str	r0, [r7, #4]
 1464 0008 0B46     		mov	r3, r1
 1465 000a 7B80     		strh	r3, [r7, #2]	@ movhi
 909:C:\Micrium\Software\uCOS-III\Source\os_tmr.c ****     OS_TMR_SPOKE     *p_spoke;
 910:C:\Micrium\Software\uCOS-III\Source\os_tmr.c ****     OS_TMR           *p_tmr0;
 911:C:\Micrium\Software\uCOS-III\Source\os_tmr.c ****     OS_TMR           *p_tmr1;
 912:C:\Micrium\Software\uCOS-III\Source\os_tmr.c ****     OS_TMR_SPOKE_IX   spoke;
 913:C:\Micrium\Software\uCOS-III\Source\os_tmr.c **** 
 914:C:\Micrium\Software\uCOS-III\Source\os_tmr.c **** 
 915:C:\Micrium\Software\uCOS-III\Source\os_tmr.c **** 
 916:C:\Micrium\Software\uCOS-III\Source\os_tmr.c ****     p_tmr->State = OS_TMR_STATE_RUNNING;
 1466              		.loc 1 916 0
 1467 000c 7B68     		ldr	r3, [r7, #4]
 1468 000e 4FF00202 		mov	r2, #2
 1469 0012 83F82A20 		strb	r2, [r3, #42]
ARM GAS  C:\Users\daniel01\AppData\Local\Temp\ccxoNE0f.s 			page 43


 917:C:\Micrium\Software\uCOS-III\Source\os_tmr.c ****     if (opt == OS_OPT_LINK_PERIODIC) {                      /* Determine when timer will expire    
 1470              		.loc 1 917 0
 1471 0016 7B88     		ldrh	r3, [r7, #2]
 1472 0018 012B     		cmp	r3, #1
 1473 001a 0AD1     		bne	.L106
 918:C:\Micrium\Software\uCOS-III\Source\os_tmr.c ****         p_tmr->Match = p_tmr->Period + OSTmrTickCtr;
 1474              		.loc 1 918 0
 1475 001c 7B68     		ldr	r3, [r7, #4]
 1476 001e 5A6A     		ldr	r2, [r3, #36]
 1477 0020 40F20003 		movw	r3, #:lower16:OSTmrTickCtr
 1478 0024 C0F20003 		movt	r3, #:upper16:OSTmrTickCtr
 1479 0028 1B68     		ldr	r3, [r3, #0]
 1480 002a 1A44     		add	r2, r2, r3
 1481 002c 7B68     		ldr	r3, [r7, #4]
 1482 002e 9A61     		str	r2, [r3, #24]
 1483 0030 18E0     		b	.L107
 1484              	.L106:
 919:C:\Micrium\Software\uCOS-III\Source\os_tmr.c ****     } else {
 920:C:\Micrium\Software\uCOS-III\Source\os_tmr.c ****         if (p_tmr->Dly == (OS_TICK)0) {
 1485              		.loc 1 920 0
 1486 0032 7B68     		ldr	r3, [r7, #4]
 1487 0034 1B6A     		ldr	r3, [r3, #32]
 1488 0036 002B     		cmp	r3, #0
 1489 0038 0AD1     		bne	.L108
 921:C:\Micrium\Software\uCOS-III\Source\os_tmr.c ****             p_tmr->Match = p_tmr->Period + OSTmrTickCtr;
 1490              		.loc 1 921 0
 1491 003a 7B68     		ldr	r3, [r7, #4]
 1492 003c 5A6A     		ldr	r2, [r3, #36]
 1493 003e 40F20003 		movw	r3, #:lower16:OSTmrTickCtr
 1494 0042 C0F20003 		movt	r3, #:upper16:OSTmrTickCtr
 1495 0046 1B68     		ldr	r3, [r3, #0]
 1496 0048 1A44     		add	r2, r2, r3
 1497 004a 7B68     		ldr	r3, [r7, #4]
 1498 004c 9A61     		str	r2, [r3, #24]
 1499 004e 09E0     		b	.L107
 1500              	.L108:
 922:C:\Micrium\Software\uCOS-III\Source\os_tmr.c ****         } else {
 923:C:\Micrium\Software\uCOS-III\Source\os_tmr.c ****             p_tmr->Match = p_tmr->Dly    + OSTmrTickCtr;
 1501              		.loc 1 923 0
 1502 0050 7B68     		ldr	r3, [r7, #4]
 1503 0052 1A6A     		ldr	r2, [r3, #32]
 1504 0054 40F20003 		movw	r3, #:lower16:OSTmrTickCtr
 1505 0058 C0F20003 		movt	r3, #:upper16:OSTmrTickCtr
 1506 005c 1B68     		ldr	r3, [r3, #0]
 1507 005e 1A44     		add	r2, r2, r3
 1508 0060 7B68     		ldr	r3, [r7, #4]
 1509 0062 9A61     		str	r2, [r3, #24]
 1510              	.L107:
 924:C:\Micrium\Software\uCOS-III\Source\os_tmr.c ****         }
 925:C:\Micrium\Software\uCOS-III\Source\os_tmr.c ****     }
 926:C:\Micrium\Software\uCOS-III\Source\os_tmr.c ****     spoke  = (OS_TMR_SPOKE_IX)(p_tmr->Match % OSCfg_TmrWheelSize);
 1511              		.loc 1 926 0
 1512 0064 7B68     		ldr	r3, [r7, #4]
 1513 0066 9A69     		ldr	r2, [r3, #24]
 1514 0068 40F20003 		movw	r3, #:lower16:OSCfg_TmrWheelSize
 1515 006c C0F20003 		movt	r3, #:upper16:OSCfg_TmrWheelSize
 1516 0070 1B88     		ldrh	r3, [r3, #0]
ARM GAS  C:\Users\daniel01\AppData\Local\Temp\ccxoNE0f.s 			page 44


 1517 0072 B2FBF3F1 		udiv	r1, r2, r3
 1518 0076 03FB01F3 		mul	r3, r3, r1
 1519 007a C3EB0203 		rsb	r3, r3, r2
 1520 007e FB82     		strh	r3, [r7, #22]	@ movhi
 927:C:\Micrium\Software\uCOS-III\Source\os_tmr.c ****     p_spoke = &OSCfg_TmrWheel[spoke];
 1521              		.loc 1 927 0
 1522 0080 FB8A     		ldrh	r3, [r7, #22]
 1523 0082 4FEAC302 		lsl	r2, r3, #3
 1524 0086 40F20003 		movw	r3, #:lower16:OSCfg_TmrWheel
 1525 008a C0F20003 		movt	r3, #:upper16:OSCfg_TmrWheel
 1526 008e 1344     		add	r3, r2, r3
 1527 0090 BB60     		str	r3, [r7, #8]
 928:C:\Micrium\Software\uCOS-III\Source\os_tmr.c **** 
 929:C:\Micrium\Software\uCOS-III\Source\os_tmr.c ****     if (p_spoke->FirstPtr ==  (OS_TMR *)0) {                /* Link into timer wheel               
 1528              		.loc 1 929 0
 1529 0092 BB68     		ldr	r3, [r7, #8]
 1530 0094 1B68     		ldr	r3, [r3, #0]
 1531 0096 002B     		cmp	r3, #0
 1532 0098 0FD1     		bne	.L109
 930:C:\Micrium\Software\uCOS-III\Source\os_tmr.c ****         p_tmr->NextPtr      = (OS_TMR *)0;
 1533              		.loc 1 930 0
 1534 009a 7B68     		ldr	r3, [r7, #4]
 1535 009c 4FF00002 		mov	r2, #0
 1536 00a0 1A61     		str	r2, [r3, #16]
 931:C:\Micrium\Software\uCOS-III\Source\os_tmr.c ****         p_tmr->PrevPtr      = (OS_TMR *)0;
 1537              		.loc 1 931 0
 1538 00a2 7B68     		ldr	r3, [r7, #4]
 1539 00a4 4FF00002 		mov	r2, #0
 1540 00a8 5A61     		str	r2, [r3, #20]
 932:C:\Micrium\Software\uCOS-III\Source\os_tmr.c ****         p_spoke->FirstPtr   = p_tmr;
 1541              		.loc 1 932 0
 1542 00aa BB68     		ldr	r3, [r7, #8]
 1543 00ac 7A68     		ldr	r2, [r7, #4]
 1544 00ae 1A60     		str	r2, [r3, #0]
 933:C:\Micrium\Software\uCOS-III\Source\os_tmr.c ****         p_spoke->NbrEntries = 1u;
 1545              		.loc 1 933 0
 1546 00b0 BB68     		ldr	r3, [r7, #8]
 1547 00b2 4FF00102 		mov	r2, #1
 1548 00b6 9A80     		strh	r2, [r3, #4]	@ movhi
 1549 00b8 63E0     		b	.L110
 1550              	.L109:
 934:C:\Micrium\Software\uCOS-III\Source\os_tmr.c ****     } else {
 935:C:\Micrium\Software\uCOS-III\Source\os_tmr.c ****         p_tmr->Remain  = p_tmr->Match                       /* Compute remaining time for timer    
 1551              		.loc 1 935 0
 1552 00ba 7B68     		ldr	r3, [r7, #4]
 1553 00bc 9A69     		ldr	r2, [r3, #24]
 1554 00be 40F20003 		movw	r3, #:lower16:OSTmrTickCtr
 1555 00c2 C0F20003 		movt	r3, #:upper16:OSTmrTickCtr
 1556 00c6 1B68     		ldr	r3, [r3, #0]
 1557 00c8 C3EB0202 		rsb	r2, r3, r2
 1558 00cc 7B68     		ldr	r3, [r7, #4]
 1559 00ce DA61     		str	r2, [r3, #28]
 936:C:\Micrium\Software\uCOS-III\Source\os_tmr.c ****                        - OSTmrTickCtr;
 937:C:\Micrium\Software\uCOS-III\Source\os_tmr.c ****         p_tmr1         = p_spoke->FirstPtr;                 /* Point to current first timer in the 
 1560              		.loc 1 937 0
 1561 00d0 BB68     		ldr	r3, [r7, #8]
 1562 00d2 1B68     		ldr	r3, [r3, #0]
ARM GAS  C:\Users\daniel01\AppData\Local\Temp\ccxoNE0f.s 			page 45


 1563 00d4 3B61     		str	r3, [r7, #16]
 938:C:\Micrium\Software\uCOS-III\Source\os_tmr.c ****         while (p_tmr1 != (OS_TMR *)0) {
 1564              		.loc 1 938 0
 1565 00d6 4AE0     		b	.L111
 1566              	.L117:
 939:C:\Micrium\Software\uCOS-III\Source\os_tmr.c ****             p_tmr1->Remain = p_tmr1->Match                  /* Compute time remaining of current ti
 1567              		.loc 1 939 0
 1568 00d8 3B69     		ldr	r3, [r7, #16]
 1569 00da 9A69     		ldr	r2, [r3, #24]
 1570 00dc 40F20003 		movw	r3, #:lower16:OSTmrTickCtr
 1571 00e0 C0F20003 		movt	r3, #:upper16:OSTmrTickCtr
 1572 00e4 1B68     		ldr	r3, [r3, #0]
 1573 00e6 C3EB0202 		rsb	r2, r3, r2
 1574 00ea 3B69     		ldr	r3, [r7, #16]
 1575 00ec DA61     		str	r2, [r3, #28]
 940:C:\Micrium\Software\uCOS-III\Source\os_tmr.c ****                            - OSTmrTickCtr;
 941:C:\Micrium\Software\uCOS-III\Source\os_tmr.c ****             if (p_tmr->Remain > p_tmr1->Remain) {           /* Do we need to insert AFTER current t
 1576              		.loc 1 941 0
 1577 00ee 7B68     		ldr	r3, [r7, #4]
 1578 00f0 DA69     		ldr	r2, [r3, #28]
 1579 00f2 3B69     		ldr	r3, [r7, #16]
 1580 00f4 DB69     		ldr	r3, [r3, #28]
 1581 00f6 9A42     		cmp	r2, r3
 1582 00f8 15D9     		bls	.L112
 942:C:\Micrium\Software\uCOS-III\Source\os_tmr.c ****                 if (p_tmr1->NextPtr  != (OS_TMR *)0) {      /* Yes, are we pointing at the last tim
 1583              		.loc 1 942 0
 1584 00fa 3B69     		ldr	r3, [r7, #16]
 1585 00fc 1B69     		ldr	r3, [r3, #16]
 1586 00fe 002B     		cmp	r3, #0
 1587 0100 03D0     		beq	.L113
 943:C:\Micrium\Software\uCOS-III\Source\os_tmr.c ****                     p_tmr1            = p_tmr1->NextPtr;    /* No,  Point to next timer in the list
 1588              		.loc 1 943 0
 1589 0102 3B69     		ldr	r3, [r7, #16]
 1590 0104 1B69     		ldr	r3, [r3, #16]
 1591 0106 3B61     		str	r3, [r7, #16]
 944:C:\Micrium\Software\uCOS-III\Source\os_tmr.c ****                 } else {
 945:C:\Micrium\Software\uCOS-III\Source\os_tmr.c ****                     p_tmr->NextPtr    = (OS_TMR *)0;
 946:C:\Micrium\Software\uCOS-III\Source\os_tmr.c ****                     p_tmr->PrevPtr    =  p_tmr1;
 947:C:\Micrium\Software\uCOS-III\Source\os_tmr.c ****                     p_tmr1->NextPtr   =  p_tmr;             /* Yes, timer to insert is now new last
 948:C:\Micrium\Software\uCOS-III\Source\os_tmr.c ****                     p_tmr1            = (OS_TMR *)0;        /* Break loop                          
 1592              		.loc 1 948 0
 1593 0108 31E0     		b	.L111
 1594              	.L113:
 1595              		.loc 1 945 0
 1596 010a 7B68     		ldr	r3, [r7, #4]
 1597 010c 4FF00002 		mov	r2, #0
 1598 0110 1A61     		str	r2, [r3, #16]
 1599              		.loc 1 946 0
 1600 0112 7B68     		ldr	r3, [r7, #4]
 1601 0114 3A69     		ldr	r2, [r7, #16]
 1602 0116 5A61     		str	r2, [r3, #20]
 1603              		.loc 1 947 0
 1604 0118 3B69     		ldr	r3, [r7, #16]
 1605 011a 7A68     		ldr	r2, [r7, #4]
 1606 011c 1A61     		str	r2, [r3, #16]
 1607              		.loc 1 948 0
 1608 011e 4FF00003 		mov	r3, #0
ARM GAS  C:\Users\daniel01\AppData\Local\Temp\ccxoNE0f.s 			page 46


 1609 0122 3B61     		str	r3, [r7, #16]
 1610 0124 23E0     		b	.L111
 1611              	.L112:
 949:C:\Micrium\Software\uCOS-III\Source\os_tmr.c ****                 }
 950:C:\Micrium\Software\uCOS-III\Source\os_tmr.c ****             } else {                                        /* Insert before the current timer     
 951:C:\Micrium\Software\uCOS-III\Source\os_tmr.c ****                 if (p_tmr1->PrevPtr == (OS_TMR *)0) {       /* Are we inserting before the first ti
 1612              		.loc 1 951 0
 1613 0126 3B69     		ldr	r3, [r7, #16]
 1614 0128 5B69     		ldr	r3, [r3, #20]
 1615 012a 002B     		cmp	r3, #0
 1616 012c 0DD1     		bne	.L115
 952:C:\Micrium\Software\uCOS-III\Source\os_tmr.c ****                     p_tmr->PrevPtr    = (OS_TMR *)0;
 1617              		.loc 1 952 0
 1618 012e 7B68     		ldr	r3, [r7, #4]
 1619 0130 4FF00002 		mov	r2, #0
 1620 0134 5A61     		str	r2, [r3, #20]
 953:C:\Micrium\Software\uCOS-III\Source\os_tmr.c ****                     p_tmr->NextPtr    = p_tmr1;
 1621              		.loc 1 953 0
 1622 0136 7B68     		ldr	r3, [r7, #4]
 1623 0138 3A69     		ldr	r2, [r7, #16]
 1624 013a 1A61     		str	r2, [r3, #16]
 954:C:\Micrium\Software\uCOS-III\Source\os_tmr.c ****                     p_tmr1->PrevPtr   = p_tmr;
 1625              		.loc 1 954 0
 1626 013c 3B69     		ldr	r3, [r7, #16]
 1627 013e 7A68     		ldr	r2, [r7, #4]
 1628 0140 5A61     		str	r2, [r3, #20]
 955:C:\Micrium\Software\uCOS-III\Source\os_tmr.c ****                     p_spoke->FirstPtr = p_tmr;
 1629              		.loc 1 955 0
 1630 0142 BB68     		ldr	r3, [r7, #8]
 1631 0144 7A68     		ldr	r2, [r7, #4]
 1632 0146 1A60     		str	r2, [r3, #0]
 1633 0148 0EE0     		b	.L116
 1634              	.L115:
 956:C:\Micrium\Software\uCOS-III\Source\os_tmr.c ****                 } else {                                    /* Insert in between 2 timers already i
 957:C:\Micrium\Software\uCOS-III\Source\os_tmr.c ****                     p_tmr0            = p_tmr1->PrevPtr;
 1635              		.loc 1 957 0
 1636 014a 3B69     		ldr	r3, [r7, #16]
 1637 014c 5B69     		ldr	r3, [r3, #20]
 1638 014e FB60     		str	r3, [r7, #12]
 958:C:\Micrium\Software\uCOS-III\Source\os_tmr.c ****                     p_tmr->PrevPtr    = p_tmr0;
 1639              		.loc 1 958 0
 1640 0150 7B68     		ldr	r3, [r7, #4]
 1641 0152 FA68     		ldr	r2, [r7, #12]
 1642 0154 5A61     		str	r2, [r3, #20]
 959:C:\Micrium\Software\uCOS-III\Source\os_tmr.c ****                     p_tmr->NextPtr    = p_tmr1;
 1643              		.loc 1 959 0
 1644 0156 7B68     		ldr	r3, [r7, #4]
 1645 0158 3A69     		ldr	r2, [r7, #16]
 1646 015a 1A61     		str	r2, [r3, #16]
 960:C:\Micrium\Software\uCOS-III\Source\os_tmr.c ****                     p_tmr0->NextPtr   = p_tmr;
 1647              		.loc 1 960 0
 1648 015c FB68     		ldr	r3, [r7, #12]
 1649 015e 7A68     		ldr	r2, [r7, #4]
 1650 0160 1A61     		str	r2, [r3, #16]
 961:C:\Micrium\Software\uCOS-III\Source\os_tmr.c ****                     p_tmr1->PrevPtr   = p_tmr;
 1651              		.loc 1 961 0
 1652 0162 3B69     		ldr	r3, [r7, #16]
ARM GAS  C:\Users\daniel01\AppData\Local\Temp\ccxoNE0f.s 			page 47


 1653 0164 7A68     		ldr	r2, [r7, #4]
 1654 0166 5A61     		str	r2, [r3, #20]
 1655              	.L116:
 962:C:\Micrium\Software\uCOS-III\Source\os_tmr.c ****                 }
 963:C:\Micrium\Software\uCOS-III\Source\os_tmr.c ****                 p_tmr1 = (OS_TMR *)0;                       /* Break loop                          
 1656              		.loc 1 963 0
 1657 0168 4FF00003 		mov	r3, #0
 1658 016c 3B61     		str	r3, [r7, #16]
 1659              	.L111:
 1660              		.loc 1 938 0
 1661 016e 3B69     		ldr	r3, [r7, #16]
 1662 0170 002B     		cmp	r3, #0
 1663 0172 B1D1     		bne	.L117
 964:C:\Micrium\Software\uCOS-III\Source\os_tmr.c ****             }
 965:C:\Micrium\Software\uCOS-III\Source\os_tmr.c ****         }
 966:C:\Micrium\Software\uCOS-III\Source\os_tmr.c ****         p_spoke->NbrEntries++;
 1664              		.loc 1 966 0
 1665 0174 BB68     		ldr	r3, [r7, #8]
 1666 0176 9B88     		ldrh	r3, [r3, #4]
 1667 0178 03F10103 		add	r3, r3, #1
 1668 017c 9AB2     		uxth	r2, r3
 1669 017e BB68     		ldr	r3, [r7, #8]
 1670 0180 9A80     		strh	r2, [r3, #4]	@ movhi
 1671              	.L110:
 967:C:\Micrium\Software\uCOS-III\Source\os_tmr.c ****     }
 968:C:\Micrium\Software\uCOS-III\Source\os_tmr.c ****     if (p_spoke->NbrEntriesMax < p_spoke->NbrEntries) {     /* Keep track of maximum number of entr
 1672              		.loc 1 968 0
 1673 0182 BB68     		ldr	r3, [r7, #8]
 1674 0184 DA88     		ldrh	r2, [r3, #6]
 1675 0186 BB68     		ldr	r3, [r7, #8]
 1676 0188 9B88     		ldrh	r3, [r3, #4]
 1677 018a 9A42     		cmp	r2, r3
 1678 018c 03D2     		bcs	.L119
 969:C:\Micrium\Software\uCOS-III\Source\os_tmr.c ****         p_spoke->NbrEntriesMax = p_spoke->NbrEntries;
 1679              		.loc 1 969 0
 1680 018e BB68     		ldr	r3, [r7, #8]
 1681 0190 9A88     		ldrh	r2, [r3, #4]
 1682 0192 BB68     		ldr	r3, [r7, #8]
 1683 0194 DA80     		strh	r2, [r3, #6]	@ movhi
 1684              	.L119:
 970:C:\Micrium\Software\uCOS-III\Source\os_tmr.c ****     }
 971:C:\Micrium\Software\uCOS-III\Source\os_tmr.c **** }
 1685              		.loc 1 971 0
 1686 0196 07F11C07 		add	r7, r7, #28
 1687 019a BD46     		mov	sp, r7
 1688 019c 80BC     		pop	{r7}
 1689 019e 7047     		bx	lr
 1690              		.cfi_endproc
 1691              	.LFE10:
 1692              		.size	OS_TmrLink, .-OS_TmrLink
 1693              		.section	.text.OS_TmrResetPeak,"ax",%progbits
 1694              		.align	2
 1695              		.global	OS_TmrResetPeak
 1696              		.thumb
 1697              		.thumb_func
 1698              		.type	OS_TmrResetPeak, %function
 1699              	OS_TmrResetPeak:
ARM GAS  C:\Users\daniel01\AppData\Local\Temp\ccxoNE0f.s 			page 48


 1700              	.LFB11:
 972:C:\Micrium\Software\uCOS-III\Source\os_tmr.c **** 
 973:C:\Micrium\Software\uCOS-III\Source\os_tmr.c **** /*$PAGE*/
 974:C:\Micrium\Software\uCOS-III\Source\os_tmr.c **** /*
 975:C:\Micrium\Software\uCOS-III\Source\os_tmr.c **** ***************************************************************************************************
 976:C:\Micrium\Software\uCOS-III\Source\os_tmr.c **** *                                              RESET TIMER LIST PEAK DETECTOR
 977:C:\Micrium\Software\uCOS-III\Source\os_tmr.c **** *
 978:C:\Micrium\Software\uCOS-III\Source\os_tmr.c **** * Description: This function is used to reset the peak detector for the number of entries in each s
 979:C:\Micrium\Software\uCOS-III\Source\os_tmr.c **** *
 980:C:\Micrium\Software\uCOS-III\Source\os_tmr.c **** * Arguments  : void
 981:C:\Micrium\Software\uCOS-III\Source\os_tmr.c **** *
 982:C:\Micrium\Software\uCOS-III\Source\os_tmr.c **** * Returns    : none
 983:C:\Micrium\Software\uCOS-III\Source\os_tmr.c **** *
 984:C:\Micrium\Software\uCOS-III\Source\os_tmr.c **** * Note(s)    : This function is INTERNAL to uC/OS-III and your application should not call it.
 985:C:\Micrium\Software\uCOS-III\Source\os_tmr.c **** ***************************************************************************************************
 986:C:\Micrium\Software\uCOS-III\Source\os_tmr.c **** */
 987:C:\Micrium\Software\uCOS-III\Source\os_tmr.c **** 
 988:C:\Micrium\Software\uCOS-III\Source\os_tmr.c **** void  OS_TmrResetPeak (void)
 989:C:\Micrium\Software\uCOS-III\Source\os_tmr.c **** {
 1701              		.loc 1 989 0
 1702              		.cfi_startproc
 1703              		@ args = 0, pretend = 0, frame = 8
 1704              		@ frame_needed = 1, uses_anonymous_args = 0
 1705              		@ link register save eliminated.
 1706 0000 80B4     		push	{r7}
 1707              	.LCFI33:
 1708              		.cfi_def_cfa_offset 4
 1709 0002 83B0     		sub	sp, sp, #12
 1710              	.LCFI34:
 1711              		.cfi_def_cfa_offset 16
 1712 0004 00AF     		add	r7, sp, #0
 1713              		.cfi_offset 7, -4
 1714              	.LCFI35:
 1715              		.cfi_def_cfa_register 7
 990:C:\Micrium\Software\uCOS-III\Source\os_tmr.c ****     OS_TMR_SPOKE     *p_spoke;
 991:C:\Micrium\Software\uCOS-III\Source\os_tmr.c ****     OS_TMR_SPOKE_IX   i;
 992:C:\Micrium\Software\uCOS-III\Source\os_tmr.c **** 
 993:C:\Micrium\Software\uCOS-III\Source\os_tmr.c **** 
 994:C:\Micrium\Software\uCOS-III\Source\os_tmr.c **** 
 995:C:\Micrium\Software\uCOS-III\Source\os_tmr.c ****     for (i = 0u; i < OSCfg_TmrWheelSize; i++) {
 1716              		.loc 1 995 0
 1717 0006 4FF00003 		mov	r3, #0
 1718 000a FB80     		strh	r3, [r7, #6]	@ movhi
 1719 000c 10E0     		b	.L121
 1720              	.L122:
 996:C:\Micrium\Software\uCOS-III\Source\os_tmr.c ****         p_spoke                = (OS_TMR_SPOKE *)&OSCfg_TmrWheel[i];
 1721              		.loc 1 996 0
 1722 000e FB88     		ldrh	r3, [r7, #6]
 1723 0010 4FEAC302 		lsl	r2, r3, #3
 1724 0014 40F20003 		movw	r3, #:lower16:OSCfg_TmrWheel
 1725 0018 C0F20003 		movt	r3, #:upper16:OSCfg_TmrWheel
 1726 001c 1344     		add	r3, r2, r3
 1727 001e 3B60     		str	r3, [r7, #0]
 997:C:\Micrium\Software\uCOS-III\Source\os_tmr.c ****         p_spoke->NbrEntriesMax = (OS_OBJ_QTY    )0u;
 1728              		.loc 1 997 0
 1729 0020 3B68     		ldr	r3, [r7, #0]
 1730 0022 4FF00002 		mov	r2, #0
ARM GAS  C:\Users\daniel01\AppData\Local\Temp\ccxoNE0f.s 			page 49


 1731 0026 DA80     		strh	r2, [r3, #6]	@ movhi
 1732              		.loc 1 995 0
 1733 0028 FB88     		ldrh	r3, [r7, #6]	@ movhi
 1734 002a 03F10103 		add	r3, r3, #1
 1735 002e FB80     		strh	r3, [r7, #6]	@ movhi
 1736              	.L121:
 1737 0030 40F20003 		movw	r3, #:lower16:OSCfg_TmrWheelSize
 1738 0034 C0F20003 		movt	r3, #:upper16:OSCfg_TmrWheelSize
 1739 0038 1B88     		ldrh	r3, [r3, #0]
 1740 003a FA88     		ldrh	r2, [r7, #6]
 1741 003c 9A42     		cmp	r2, r3
 1742 003e E6D3     		bcc	.L122
 998:C:\Micrium\Software\uCOS-III\Source\os_tmr.c ****     }
 999:C:\Micrium\Software\uCOS-III\Source\os_tmr.c **** }
 1743              		.loc 1 999 0
 1744 0040 07F10C07 		add	r7, r7, #12
 1745 0044 BD46     		mov	sp, r7
 1746 0046 80BC     		pop	{r7}
 1747 0048 7047     		bx	lr
 1748              		.cfi_endproc
 1749              	.LFE11:
 1750              		.size	OS_TmrResetPeak, .-OS_TmrResetPeak
 1751 004a 00BF     		.section	.text.OS_TmrUnlink,"ax",%progbits
 1752              		.align	2
 1753              		.global	OS_TmrUnlink
 1754              		.thumb
 1755              		.thumb_func
 1756              		.type	OS_TmrUnlink, %function
 1757              	OS_TmrUnlink:
 1758              	.LFB12:
1000:C:\Micrium\Software\uCOS-III\Source\os_tmr.c **** 
1001:C:\Micrium\Software\uCOS-III\Source\os_tmr.c **** /*$PAGE*/
1002:C:\Micrium\Software\uCOS-III\Source\os_tmr.c **** /*
1003:C:\Micrium\Software\uCOS-III\Source\os_tmr.c **** ***************************************************************************************************
1004:C:\Micrium\Software\uCOS-III\Source\os_tmr.c **** *                                         REMOVE A TIMER FROM THE TIMER WHEEL
1005:C:\Micrium\Software\uCOS-III\Source\os_tmr.c **** *
1006:C:\Micrium\Software\uCOS-III\Source\os_tmr.c **** * Description: This function is called to remove the timer from the timer wheel.
1007:C:\Micrium\Software\uCOS-III\Source\os_tmr.c **** *
1008:C:\Micrium\Software\uCOS-III\Source\os_tmr.c **** * Arguments  : p_tmr          Is a pointer to the timer to remove.
1009:C:\Micrium\Software\uCOS-III\Source\os_tmr.c **** *              -----
1010:C:\Micrium\Software\uCOS-III\Source\os_tmr.c **** *
1011:C:\Micrium\Software\uCOS-III\Source\os_tmr.c **** * Returns    : none
1012:C:\Micrium\Software\uCOS-III\Source\os_tmr.c **** *
1013:C:\Micrium\Software\uCOS-III\Source\os_tmr.c **** * Note(s)    : 1) This function is INTERNAL to uC/OS-III and your application MUST NOT call it.
1014:C:\Micrium\Software\uCOS-III\Source\os_tmr.c **** ***************************************************************************************************
1015:C:\Micrium\Software\uCOS-III\Source\os_tmr.c **** */
1016:C:\Micrium\Software\uCOS-III\Source\os_tmr.c **** 
1017:C:\Micrium\Software\uCOS-III\Source\os_tmr.c **** void  OS_TmrUnlink (OS_TMR  *p_tmr)
1018:C:\Micrium\Software\uCOS-III\Source\os_tmr.c **** {
 1759              		.loc 1 1018 0
 1760              		.cfi_startproc
 1761              		@ args = 0, pretend = 0, frame = 24
 1762              		@ frame_needed = 1, uses_anonymous_args = 0
 1763              		@ link register save eliminated.
 1764 0000 80B4     		push	{r7}
 1765              	.LCFI36:
 1766              		.cfi_def_cfa_offset 4
ARM GAS  C:\Users\daniel01\AppData\Local\Temp\ccxoNE0f.s 			page 50


 1767 0002 87B0     		sub	sp, sp, #28
 1768              	.LCFI37:
 1769              		.cfi_def_cfa_offset 32
 1770 0004 00AF     		add	r7, sp, #0
 1771              		.cfi_offset 7, -4
 1772              	.LCFI38:
 1773              		.cfi_def_cfa_register 7
 1774 0006 7860     		str	r0, [r7, #4]
1019:C:\Micrium\Software\uCOS-III\Source\os_tmr.c ****     OS_TMR_SPOKE    *p_spoke;
1020:C:\Micrium\Software\uCOS-III\Source\os_tmr.c ****     OS_TMR          *p_tmr1;
1021:C:\Micrium\Software\uCOS-III\Source\os_tmr.c ****     OS_TMR          *p_tmr2;
1022:C:\Micrium\Software\uCOS-III\Source\os_tmr.c ****     OS_TMR_SPOKE_IX  spoke;
1023:C:\Micrium\Software\uCOS-III\Source\os_tmr.c **** 
1024:C:\Micrium\Software\uCOS-III\Source\os_tmr.c **** 
1025:C:\Micrium\Software\uCOS-III\Source\os_tmr.c **** 
1026:C:\Micrium\Software\uCOS-III\Source\os_tmr.c ****     spoke   = (OS_TMR_SPOKE_IX)(p_tmr->Match % OSCfg_TmrWheelSize);
 1775              		.loc 1 1026 0
 1776 0008 7B68     		ldr	r3, [r7, #4]
 1777 000a 9A69     		ldr	r2, [r3, #24]
 1778 000c 40F20003 		movw	r3, #:lower16:OSCfg_TmrWheelSize
 1779 0010 C0F20003 		movt	r3, #:upper16:OSCfg_TmrWheelSize
 1780 0014 1B88     		ldrh	r3, [r3, #0]
 1781 0016 B2FBF3F1 		udiv	r1, r2, r3
 1782 001a 03FB01F3 		mul	r3, r3, r1
 1783 001e C3EB0203 		rsb	r3, r3, r2
 1784 0022 FB82     		strh	r3, [r7, #22]	@ movhi
1027:C:\Micrium\Software\uCOS-III\Source\os_tmr.c ****     p_spoke = &OSCfg_TmrWheel[spoke];
 1785              		.loc 1 1027 0
 1786 0024 FB8A     		ldrh	r3, [r7, #22]
 1787 0026 4FEAC302 		lsl	r2, r3, #3
 1788 002a 40F20003 		movw	r3, #:lower16:OSCfg_TmrWheel
 1789 002e C0F20003 		movt	r3, #:upper16:OSCfg_TmrWheel
 1790 0032 1344     		add	r3, r2, r3
 1791 0034 BB60     		str	r3, [r7, #8]
1028:C:\Micrium\Software\uCOS-III\Source\os_tmr.c **** 
1029:C:\Micrium\Software\uCOS-III\Source\os_tmr.c ****     if (p_spoke->FirstPtr == p_tmr) {                       /* See if timer to remove is at the beg
 1792              		.loc 1 1029 0
 1793 0036 BB68     		ldr	r3, [r7, #8]
 1794 0038 1A68     		ldr	r2, [r3, #0]
 1795 003a 7B68     		ldr	r3, [r7, #4]
 1796 003c 9A42     		cmp	r2, r3
 1797 003e 0DD1     		bne	.L125
1030:C:\Micrium\Software\uCOS-III\Source\os_tmr.c ****         p_tmr1            = (OS_TMR *)p_tmr->NextPtr;
 1798              		.loc 1 1030 0
 1799 0040 7B68     		ldr	r3, [r7, #4]
 1800 0042 1B69     		ldr	r3, [r3, #16]
 1801 0044 FB60     		str	r3, [r7, #12]
1031:C:\Micrium\Software\uCOS-III\Source\os_tmr.c ****         p_spoke->FirstPtr = (OS_TMR *)p_tmr1;
 1802              		.loc 1 1031 0
 1803 0046 BB68     		ldr	r3, [r7, #8]
 1804 0048 FA68     		ldr	r2, [r7, #12]
 1805 004a 1A60     		str	r2, [r3, #0]
1032:C:\Micrium\Software\uCOS-III\Source\os_tmr.c ****         if (p_tmr1 != (OS_TMR *)0) {
 1806              		.loc 1 1032 0
 1807 004c FB68     		ldr	r3, [r7, #12]
 1808 004e 002B     		cmp	r3, #0
 1809 0050 14D0     		beq	.L129
ARM GAS  C:\Users\daniel01\AppData\Local\Temp\ccxoNE0f.s 			page 51


1033:C:\Micrium\Software\uCOS-III\Source\os_tmr.c ****             p_tmr1->PrevPtr = (OS_TMR *)0;
 1810              		.loc 1 1033 0
 1811 0052 FB68     		ldr	r3, [r7, #12]
 1812 0054 4FF00002 		mov	r2, #0
 1813 0058 5A61     		str	r2, [r3, #20]
 1814 005a 10E0     		b	.L127
 1815              	.L125:
1034:C:\Micrium\Software\uCOS-III\Source\os_tmr.c ****         }
1035:C:\Micrium\Software\uCOS-III\Source\os_tmr.c ****     } else {
1036:C:\Micrium\Software\uCOS-III\Source\os_tmr.c ****         p_tmr1          = (OS_TMR *)p_tmr->PrevPtr;         /* Remove timer from somewhere in the l
 1816              		.loc 1 1036 0
 1817 005c 7B68     		ldr	r3, [r7, #4]
 1818 005e 5B69     		ldr	r3, [r3, #20]
 1819 0060 FB60     		str	r3, [r7, #12]
1037:C:\Micrium\Software\uCOS-III\Source\os_tmr.c ****         p_tmr2          = (OS_TMR *)p_tmr->NextPtr;
 1820              		.loc 1 1037 0
 1821 0062 7B68     		ldr	r3, [r7, #4]
 1822 0064 1B69     		ldr	r3, [r3, #16]
 1823 0066 3B61     		str	r3, [r7, #16]
1038:C:\Micrium\Software\uCOS-III\Source\os_tmr.c ****         p_tmr1->NextPtr = p_tmr2;
 1824              		.loc 1 1038 0
 1825 0068 FB68     		ldr	r3, [r7, #12]
 1826 006a 3A69     		ldr	r2, [r7, #16]
 1827 006c 1A61     		str	r2, [r3, #16]
1039:C:\Micrium\Software\uCOS-III\Source\os_tmr.c ****         if (p_tmr2 != (OS_TMR *)0) {
 1828              		.loc 1 1039 0
 1829 006e 3B69     		ldr	r3, [r7, #16]
 1830 0070 002B     		cmp	r3, #0
 1831 0072 04D0     		beq	.L127
1040:C:\Micrium\Software\uCOS-III\Source\os_tmr.c ****             p_tmr2->PrevPtr = (OS_TMR *)p_tmr1;
 1832              		.loc 1 1040 0
 1833 0074 3B69     		ldr	r3, [r7, #16]
 1834 0076 FA68     		ldr	r2, [r7, #12]
 1835 0078 5A61     		str	r2, [r3, #20]
 1836 007a 00E0     		b	.L127
 1837              	.L129:
 1838              		.loc 1 1033 0
 1839 007c 00BF     		nop
 1840              	.L127:
1041:C:\Micrium\Software\uCOS-III\Source\os_tmr.c ****         }
1042:C:\Micrium\Software\uCOS-III\Source\os_tmr.c ****     }
1043:C:\Micrium\Software\uCOS-III\Source\os_tmr.c ****     p_tmr->State   = OS_TMR_STATE_STOPPED;
 1841              		.loc 1 1043 0
 1842 007e 7B68     		ldr	r3, [r7, #4]
 1843 0080 4FF00102 		mov	r2, #1
 1844 0084 83F82A20 		strb	r2, [r3, #42]
1044:C:\Micrium\Software\uCOS-III\Source\os_tmr.c ****     p_tmr->NextPtr = (OS_TMR *)0;
 1845              		.loc 1 1044 0
 1846 0088 7B68     		ldr	r3, [r7, #4]
 1847 008a 4FF00002 		mov	r2, #0
 1848 008e 1A61     		str	r2, [r3, #16]
1045:C:\Micrium\Software\uCOS-III\Source\os_tmr.c ****     p_tmr->PrevPtr = (OS_TMR *)0;
 1849              		.loc 1 1045 0
 1850 0090 7B68     		ldr	r3, [r7, #4]
 1851 0092 4FF00002 		mov	r2, #0
 1852 0096 5A61     		str	r2, [r3, #20]
1046:C:\Micrium\Software\uCOS-III\Source\os_tmr.c ****     p_spoke->NbrEntries--;
ARM GAS  C:\Users\daniel01\AppData\Local\Temp\ccxoNE0f.s 			page 52


 1853              		.loc 1 1046 0
 1854 0098 BB68     		ldr	r3, [r7, #8]
 1855 009a 9B88     		ldrh	r3, [r3, #4]
 1856 009c 03F1FF33 		add	r3, r3, #-1
 1857 00a0 9AB2     		uxth	r2, r3
 1858 00a2 BB68     		ldr	r3, [r7, #8]
 1859 00a4 9A80     		strh	r2, [r3, #4]	@ movhi
1047:C:\Micrium\Software\uCOS-III\Source\os_tmr.c **** }
 1860              		.loc 1 1047 0
 1861 00a6 07F11C07 		add	r7, r7, #28
 1862 00aa BD46     		mov	sp, r7
 1863 00ac 80BC     		pop	{r7}
 1864 00ae 7047     		bx	lr
 1865              		.cfi_endproc
 1866              	.LFE12:
 1867              		.size	OS_TmrUnlink, .-OS_TmrUnlink
 1868              		.section	.text.OS_TmrTask,"ax",%progbits
 1869              		.align	2
 1870              		.global	OS_TmrTask
 1871              		.thumb
 1872              		.thumb_func
 1873              		.type	OS_TmrTask, %function
 1874              	OS_TmrTask:
 1875              	.LFB13:
1048:C:\Micrium\Software\uCOS-III\Source\os_tmr.c **** 
1049:C:\Micrium\Software\uCOS-III\Source\os_tmr.c **** /*$PAGE*/
1050:C:\Micrium\Software\uCOS-III\Source\os_tmr.c **** /*
1051:C:\Micrium\Software\uCOS-III\Source\os_tmr.c **** ***************************************************************************************************
1052:C:\Micrium\Software\uCOS-III\Source\os_tmr.c **** *                                                 TIMER MANAGEMENT TASK
1053:C:\Micrium\Software\uCOS-III\Source\os_tmr.c **** *
1054:C:\Micrium\Software\uCOS-III\Source\os_tmr.c **** * Description: This task is created by OS_TmrInit().
1055:C:\Micrium\Software\uCOS-III\Source\os_tmr.c **** *
1056:C:\Micrium\Software\uCOS-III\Source\os_tmr.c **** * Arguments  : none
1057:C:\Micrium\Software\uCOS-III\Source\os_tmr.c **** *
1058:C:\Micrium\Software\uCOS-III\Source\os_tmr.c **** * Returns    : none
1059:C:\Micrium\Software\uCOS-III\Source\os_tmr.c **** *
1060:C:\Micrium\Software\uCOS-III\Source\os_tmr.c **** * Note(s)    : 1) This function is INTERNAL to uC/OS-III and your application MUST NOT call it.
1061:C:\Micrium\Software\uCOS-III\Source\os_tmr.c **** ***************************************************************************************************
1062:C:\Micrium\Software\uCOS-III\Source\os_tmr.c **** */
1063:C:\Micrium\Software\uCOS-III\Source\os_tmr.c **** 
1064:C:\Micrium\Software\uCOS-III\Source\os_tmr.c **** void  OS_TmrTask (void  *p_arg)
1065:C:\Micrium\Software\uCOS-III\Source\os_tmr.c **** {
 1876              		.loc 1 1065 0
 1877              		.cfi_startproc
 1878              		@ args = 0, pretend = 0, frame = 48
 1879              		@ frame_needed = 1, uses_anonymous_args = 0
 1880 0000 80B5     		push	{r7, lr}
 1881              	.LCFI39:
 1882              		.cfi_def_cfa_offset 8
 1883 0002 8CB0     		sub	sp, sp, #48
 1884              	.LCFI40:
 1885              		.cfi_def_cfa_offset 56
 1886 0004 00AF     		add	r7, sp, #0
 1887              		.cfi_offset 14, -4
 1888              		.cfi_offset 7, -8
 1889              	.LCFI41:
 1890              		.cfi_def_cfa_register 7
ARM GAS  C:\Users\daniel01\AppData\Local\Temp\ccxoNE0f.s 			page 53


 1891 0006 7860     		str	r0, [r7, #4]
 1892 0008 00E0     		b	.L140
 1893              	.L142:
1066:C:\Micrium\Software\uCOS-III\Source\os_tmr.c ****     CPU_BOOLEAN          done;
1067:C:\Micrium\Software\uCOS-III\Source\os_tmr.c ****     OS_ERR               err;
1068:C:\Micrium\Software\uCOS-III\Source\os_tmr.c ****     OS_TMR_CALLBACK_PTR  p_fnct;
1069:C:\Micrium\Software\uCOS-III\Source\os_tmr.c ****     OS_TMR_SPOKE        *p_spoke;
1070:C:\Micrium\Software\uCOS-III\Source\os_tmr.c ****     OS_TMR              *p_tmr;
1071:C:\Micrium\Software\uCOS-III\Source\os_tmr.c ****     OS_TMR              *p_tmr_next;
1072:C:\Micrium\Software\uCOS-III\Source\os_tmr.c ****     OS_TMR_SPOKE_IX      spoke;
1073:C:\Micrium\Software\uCOS-III\Source\os_tmr.c ****     CPU_TS               ts;
1074:C:\Micrium\Software\uCOS-III\Source\os_tmr.c ****     CPU_TS               ts_start;
1075:C:\Micrium\Software\uCOS-III\Source\os_tmr.c ****     CPU_TS               ts_end;
1076:C:\Micrium\Software\uCOS-III\Source\os_tmr.c **** 
1077:C:\Micrium\Software\uCOS-III\Source\os_tmr.c **** 
1078:C:\Micrium\Software\uCOS-III\Source\os_tmr.c **** 
1079:C:\Micrium\Software\uCOS-III\Source\os_tmr.c ****     p_arg = p_arg;                                               /* Not using 'p_arg', prevent comp
1080:C:\Micrium\Software\uCOS-III\Source\os_tmr.c ****     while (DEF_ON) {
1081:C:\Micrium\Software\uCOS-III\Source\os_tmr.c ****         (void)OSTaskSemPend((OS_TICK )0,                         /* Wait for signal indicating time
1082:C:\Micrium\Software\uCOS-III\Source\os_tmr.c ****                             (OS_OPT  )OS_OPT_PEND_BLOCKING,
1083:C:\Micrium\Software\uCOS-III\Source\os_tmr.c ****                             (CPU_TS *)&ts,
1084:C:\Micrium\Software\uCOS-III\Source\os_tmr.c ****                             (OS_ERR *)&err);
1085:C:\Micrium\Software\uCOS-III\Source\os_tmr.c **** 
1086:C:\Micrium\Software\uCOS-III\Source\os_tmr.c ****         OSSchedLock(&err);
1087:C:\Micrium\Software\uCOS-III\Source\os_tmr.c ****         ts_start = OS_TS_GET();
1088:C:\Micrium\Software\uCOS-III\Source\os_tmr.c ****         OSTmrTickCtr++;                                          /* Increment the current time     
1089:C:\Micrium\Software\uCOS-III\Source\os_tmr.c ****         spoke    = (OS_TMR_SPOKE_IX)(OSTmrTickCtr % OSCfg_TmrWheelSize);
1090:C:\Micrium\Software\uCOS-III\Source\os_tmr.c ****         p_spoke  = &OSCfg_TmrWheel[spoke];
1091:C:\Micrium\Software\uCOS-III\Source\os_tmr.c ****         p_tmr    = p_spoke->FirstPtr;
1092:C:\Micrium\Software\uCOS-III\Source\os_tmr.c ****         done     = DEF_FALSE;
1093:C:\Micrium\Software\uCOS-III\Source\os_tmr.c ****         while (done == DEF_FALSE) {
1094:C:\Micrium\Software\uCOS-III\Source\os_tmr.c ****             if (p_tmr != (OS_TMR *)0) {
1095:C:\Micrium\Software\uCOS-III\Source\os_tmr.c ****                 p_tmr_next = (OS_TMR *)p_tmr->NextPtr;           /* Point to next tmr to update bec
1096:C:\Micrium\Software\uCOS-III\Source\os_tmr.c ****                                                                  /* ... timer could get unlinked fr
1097:C:\Micrium\Software\uCOS-III\Source\os_tmr.c ****                 if (OSTmrTickCtr == p_tmr->Match) {              /* Process each timer that expires
1098:C:\Micrium\Software\uCOS-III\Source\os_tmr.c ****                     OS_TmrUnlink(p_tmr);                         /* Remove from current wheel spoke
1099:C:\Micrium\Software\uCOS-III\Source\os_tmr.c ****                     if (p_tmr->Opt == OS_OPT_TMR_PERIODIC) {
1100:C:\Micrium\Software\uCOS-III\Source\os_tmr.c ****                         OS_TmrLink(p_tmr,
1101:C:\Micrium\Software\uCOS-III\Source\os_tmr.c ****                                    OS_OPT_LINK_PERIODIC);        /* Recalculate new position of tim
1102:C:\Micrium\Software\uCOS-III\Source\os_tmr.c ****                     } else {
1103:C:\Micrium\Software\uCOS-III\Source\os_tmr.c ****                         p_tmr->State = OS_TMR_STATE_COMPLETED;   /* Indicate that the timer has com
1104:C:\Micrium\Software\uCOS-III\Source\os_tmr.c ****                     }
1105:C:\Micrium\Software\uCOS-III\Source\os_tmr.c ****                     p_fnct = p_tmr->CallbackPtr;                 /* Execute callback function if av
1106:C:\Micrium\Software\uCOS-III\Source\os_tmr.c ****                     if (p_fnct != (OS_TMR_CALLBACK_PTR)0) {
1107:C:\Micrium\Software\uCOS-III\Source\os_tmr.c ****                         (*p_fnct)((void *)p_tmr,
1108:C:\Micrium\Software\uCOS-III\Source\os_tmr.c ****                                   p_tmr->CallbackPtrArg);
1109:C:\Micrium\Software\uCOS-III\Source\os_tmr.c ****                     }
1110:C:\Micrium\Software\uCOS-III\Source\os_tmr.c ****                     p_tmr = p_tmr_next;                          /* See if next timer matches      
1111:C:\Micrium\Software\uCOS-III\Source\os_tmr.c ****                 } else {
1112:C:\Micrium\Software\uCOS-III\Source\os_tmr.c ****                     done  = DEF_TRUE;
1113:C:\Micrium\Software\uCOS-III\Source\os_tmr.c ****                 }
1114:C:\Micrium\Software\uCOS-III\Source\os_tmr.c ****             } else {
1115:C:\Micrium\Software\uCOS-III\Source\os_tmr.c ****                 done = DEF_TRUE;
1116:C:\Micrium\Software\uCOS-III\Source\os_tmr.c ****             }
1117:C:\Micrium\Software\uCOS-III\Source\os_tmr.c ****         }
1118:C:\Micrium\Software\uCOS-III\Source\os_tmr.c ****         ts_end = OS_TS_GET() - ts_start;                         /* Measure execution time of timer
1119:C:\Micrium\Software\uCOS-III\Source\os_tmr.c ****         OSSchedUnlock(&err);
ARM GAS  C:\Users\daniel01\AppData\Local\Temp\ccxoNE0f.s 			page 54


1120:C:\Micrium\Software\uCOS-III\Source\os_tmr.c ****         if (OSTmrTaskTimeMax < ts_end) {
1121:C:\Micrium\Software\uCOS-III\Source\os_tmr.c ****             OSTmrTaskTimeMax = ts_end;
1122:C:\Micrium\Software\uCOS-III\Source\os_tmr.c ****         }
1123:C:\Micrium\Software\uCOS-III\Source\os_tmr.c ****     }
 1894              		.loc 1 1123 0
 1895 000a 00BF     		nop
 1896              	.L140:
 1897              		.loc 1 1081 0
 1898 000c 07F10C02 		add	r2, r7, #12
 1899 0010 07F11003 		add	r3, r7, #16
 1900 0014 4FF00000 		mov	r0, #0
 1901 0018 4FF00001 		mov	r1, #0
 1902 001c FFF7FEFF 		bl	OSTaskSemPend
 1903              		.loc 1 1086 0
 1904 0020 07F11003 		add	r3, r7, #16
 1905 0024 1846     		mov	r0, r3
 1906 0026 FFF7FEFF 		bl	OSSchedLock
 1907              		.loc 1 1087 0
 1908 002a FFF7FEFF 		bl	CPU_TS_TmrRd
 1909 002e 0346     		mov	r3, r0
 1910 0030 BB62     		str	r3, [r7, #40]
 1911              		.loc 1 1088 0
 1912 0032 40F20003 		movw	r3, #:lower16:OSTmrTickCtr
 1913 0036 C0F20003 		movt	r3, #:upper16:OSTmrTickCtr
 1914 003a 1B68     		ldr	r3, [r3, #0]
 1915 003c 03F10102 		add	r2, r3, #1
 1916 0040 40F20003 		movw	r3, #:lower16:OSTmrTickCtr
 1917 0044 C0F20003 		movt	r3, #:upper16:OSTmrTickCtr
 1918 0048 1A60     		str	r2, [r3, #0]
 1919              		.loc 1 1089 0
 1920 004a 40F20003 		movw	r3, #:lower16:OSTmrTickCtr
 1921 004e C0F20003 		movt	r3, #:upper16:OSTmrTickCtr
 1922 0052 1A68     		ldr	r2, [r3, #0]
 1923 0054 40F20003 		movw	r3, #:lower16:OSCfg_TmrWheelSize
 1924 0058 C0F20003 		movt	r3, #:upper16:OSCfg_TmrWheelSize
 1925 005c 1B88     		ldrh	r3, [r3, #0]
 1926 005e B2FBF3F1 		udiv	r1, r2, r3
 1927 0062 03FB01F3 		mul	r3, r3, r1
 1928 0066 C3EB0203 		rsb	r3, r3, r2
 1929 006a FB84     		strh	r3, [r7, #38]	@ movhi
 1930              		.loc 1 1090 0
 1931 006c FB8C     		ldrh	r3, [r7, #38]
 1932 006e 4FEAC302 		lsl	r2, r3, #3
 1933 0072 40F20003 		movw	r3, #:lower16:OSCfg_TmrWheel
 1934 0076 C0F20003 		movt	r3, #:upper16:OSCfg_TmrWheel
 1935 007a 1344     		add	r3, r2, r3
 1936 007c BB61     		str	r3, [r7, #24]
 1937              		.loc 1 1091 0
 1938 007e BB69     		ldr	r3, [r7, #24]
 1939 0080 1B68     		ldr	r3, [r3, #0]
 1940 0082 FB61     		str	r3, [r7, #28]
 1941              		.loc 1 1092 0
 1942 0084 4FF00003 		mov	r3, #0
 1943 0088 FB74     		strb	r3, [r7, #19]
 1944              		.loc 1 1093 0
 1945 008a 36E0     		b	.L131
 1946              	.L138:
ARM GAS  C:\Users\daniel01\AppData\Local\Temp\ccxoNE0f.s 			page 55


 1947              		.loc 1 1094 0
 1948 008c FB69     		ldr	r3, [r7, #28]
 1949 008e 002B     		cmp	r3, #0
 1950 0090 30D0     		beq	.L132
 1951              		.loc 1 1095 0
 1952 0092 FB69     		ldr	r3, [r7, #28]
 1953 0094 1B69     		ldr	r3, [r3, #16]
 1954 0096 3B62     		str	r3, [r7, #32]
 1955              		.loc 1 1097 0
 1956 0098 FB69     		ldr	r3, [r7, #28]
 1957 009a 9A69     		ldr	r2, [r3, #24]
 1958 009c 40F20003 		movw	r3, #:lower16:OSTmrTickCtr
 1959 00a0 C0F20003 		movt	r3, #:upper16:OSTmrTickCtr
 1960 00a4 1B68     		ldr	r3, [r3, #0]
 1961 00a6 9A42     		cmp	r2, r3
 1962 00a8 20D1     		bne	.L133
 1963              		.loc 1 1098 0
 1964 00aa F869     		ldr	r0, [r7, #28]
 1965 00ac FFF7FEFF 		bl	OS_TmrUnlink
 1966              		.loc 1 1099 0
 1967 00b0 FB69     		ldr	r3, [r7, #28]
 1968 00b2 1B8D     		ldrh	r3, [r3, #40]
 1969 00b4 022B     		cmp	r3, #2
 1970 00b6 05D1     		bne	.L134
 1971              		.loc 1 1100 0
 1972 00b8 F869     		ldr	r0, [r7, #28]
 1973 00ba 4FF00101 		mov	r1, #1
 1974 00be FFF7FEFF 		bl	OS_TmrLink
 1975 00c2 04E0     		b	.L135
 1976              	.L134:
 1977              		.loc 1 1103 0
 1978 00c4 FB69     		ldr	r3, [r7, #28]
 1979 00c6 4FF00302 		mov	r2, #3
 1980 00ca 83F82A20 		strb	r2, [r3, #42]
 1981              	.L135:
 1982              		.loc 1 1105 0
 1983 00ce FB69     		ldr	r3, [r7, #28]
 1984 00d0 9B68     		ldr	r3, [r3, #8]
 1985 00d2 7B61     		str	r3, [r7, #20]
 1986              		.loc 1 1106 0
 1987 00d4 7B69     		ldr	r3, [r7, #20]
 1988 00d6 002B     		cmp	r3, #0
 1989 00d8 05D0     		beq	.L136
 1990              		.loc 1 1107 0
 1991 00da FB69     		ldr	r3, [r7, #28]
 1992 00dc DA68     		ldr	r2, [r3, #12]
 1993 00de 7B69     		ldr	r3, [r7, #20]
 1994 00e0 F869     		ldr	r0, [r7, #28]
 1995 00e2 1146     		mov	r1, r2
 1996 00e4 9847     		blx	r3
 1997              	.L136:
 1998              		.loc 1 1110 0
 1999 00e6 3B6A     		ldr	r3, [r7, #32]
 2000 00e8 FB61     		str	r3, [r7, #28]
 2001              		.loc 1 1112 0
 2002 00ea 06E0     		b	.L131
 2003              	.L133:
ARM GAS  C:\Users\daniel01\AppData\Local\Temp\ccxoNE0f.s 			page 56


 2004 00ec 4FF00103 		mov	r3, #1
 2005 00f0 FB74     		strb	r3, [r7, #19]
 2006 00f2 02E0     		b	.L131
 2007              	.L132:
 2008              		.loc 1 1115 0
 2009 00f4 4FF00103 		mov	r3, #1
 2010 00f8 FB74     		strb	r3, [r7, #19]
 2011              	.L131:
 2012              		.loc 1 1093 0
 2013 00fa FB7C     		ldrb	r3, [r7, #19]	@ zero_extendqisi2
 2014 00fc 002B     		cmp	r3, #0
 2015 00fe C5D0     		beq	.L138
 2016              		.loc 1 1118 0
 2017 0100 FFF7FEFF 		bl	CPU_TS_TmrRd
 2018 0104 0246     		mov	r2, r0
 2019 0106 BB6A     		ldr	r3, [r7, #40]
 2020 0108 C3EB0203 		rsb	r3, r3, r2
 2021 010c FB62     		str	r3, [r7, #44]
 2022              		.loc 1 1119 0
 2023 010e 07F11003 		add	r3, r7, #16
 2024 0112 1846     		mov	r0, r3
 2025 0114 FFF7FEFF 		bl	OSSchedUnlock
 2026              		.loc 1 1120 0
 2027 0118 40F20003 		movw	r3, #:lower16:OSTmrTaskTimeMax
 2028 011c C0F20003 		movt	r3, #:upper16:OSTmrTaskTimeMax
 2029 0120 1A68     		ldr	r2, [r3, #0]
 2030 0122 FB6A     		ldr	r3, [r7, #44]
 2031 0124 9A42     		cmp	r2, r3
 2032 0126 BFF470AF 		bcs	.L142
 2033              		.loc 1 1121 0
 2034 012a 40F20003 		movw	r3, #:lower16:OSTmrTaskTimeMax
 2035 012e C0F20003 		movt	r3, #:upper16:OSTmrTaskTimeMax
 2036 0132 FA6A     		ldr	r2, [r7, #44]
 2037 0134 1A60     		str	r2, [r3, #0]
 2038              		.loc 1 1123 0
 2039 0136 69E7     		b	.L140
 2040              		.cfi_endproc
 2041              	.LFE13:
 2042              		.size	OS_TmrTask, .-OS_TmrTask
 2043              		.text
 2044              	.Letext0:
 2045              		.section	.debug_loc,"",%progbits
 2046              	.Ldebug_loc0:
 2047              	.LLST0:
 2048 0000 00000000 		.4byte	.LFB0
 2049 0004 02000000 		.4byte	.LCFI0
 2050 0008 0100     		.2byte	0x1
 2051 000a 5D       		.byte	0x5d
 2052 000b 02000000 		.4byte	.LCFI0
 2053 000f 04000000 		.4byte	.LCFI1
 2054 0013 0200     		.2byte	0x2
 2055 0015 7D       		.byte	0x7d
 2056 0016 08       		.sleb128 8
 2057 0017 04000000 		.4byte	.LCFI1
 2058 001b 06000000 		.4byte	.LCFI2
 2059 001f 0200     		.2byte	0x2
 2060 0021 7D       		.byte	0x7d
ARM GAS  C:\Users\daniel01\AppData\Local\Temp\ccxoNE0f.s 			page 57


 2061 0022 20       		.sleb128 32
 2062 0023 06000000 		.4byte	.LCFI2
 2063 0027 0E010000 		.4byte	.LFE0
 2064 002b 0200     		.2byte	0x2
 2065 002d 77       		.byte	0x77
 2066 002e 20       		.sleb128 32
 2067 002f 00000000 		.4byte	0x0
 2068 0033 00000000 		.4byte	0x0
 2069              	.LLST1:
 2070 0037 00000000 		.4byte	.LFB1
 2071 003b 02000000 		.4byte	.LCFI3
 2072 003f 0100     		.2byte	0x1
 2073 0041 5D       		.byte	0x5d
 2074 0042 02000000 		.4byte	.LCFI3
 2075 0046 04000000 		.4byte	.LCFI4
 2076 004a 0200     		.2byte	0x2
 2077 004c 7D       		.byte	0x7d
 2078 004d 08       		.sleb128 8
 2079 004e 04000000 		.4byte	.LCFI4
 2080 0052 06000000 		.4byte	.LCFI5
 2081 0056 0200     		.2byte	0x2
 2082 0058 7D       		.byte	0x7d
 2083 0059 18       		.sleb128 24
 2084 005a 06000000 		.4byte	.LCFI5
 2085 005e 08010000 		.4byte	.LFE1
 2086 0062 0200     		.2byte	0x2
 2087 0064 77       		.byte	0x77
 2088 0065 18       		.sleb128 24
 2089 0066 00000000 		.4byte	0x0
 2090 006a 00000000 		.4byte	0x0
 2091              	.LLST2:
 2092 006e 00000000 		.4byte	.LFB2
 2093 0072 02000000 		.4byte	.LCFI6
 2094 0076 0100     		.2byte	0x1
 2095 0078 5D       		.byte	0x5d
 2096 0079 02000000 		.4byte	.LCFI6
 2097 007d 04000000 		.4byte	.LCFI7
 2098 0081 0200     		.2byte	0x2
 2099 0083 7D       		.byte	0x7d
 2100 0084 08       		.sleb128 8
 2101 0085 04000000 		.4byte	.LCFI7
 2102 0089 06000000 		.4byte	.LCFI8
 2103 008d 0200     		.2byte	0x2
 2104 008f 7D       		.byte	0x7d
 2105 0090 18       		.sleb128 24
 2106 0091 06000000 		.4byte	.LCFI8
 2107 0095 2A010000 		.4byte	.LFE2
 2108 0099 0200     		.2byte	0x2
 2109 009b 77       		.byte	0x77
 2110 009c 18       		.sleb128 24
 2111 009d 00000000 		.4byte	0x0
 2112 00a1 00000000 		.4byte	0x0
 2113              	.LLST3:
 2114 00a5 00000000 		.4byte	.LFB3
 2115 00a9 02000000 		.4byte	.LCFI9
 2116 00ad 0100     		.2byte	0x1
 2117 00af 5D       		.byte	0x5d
ARM GAS  C:\Users\daniel01\AppData\Local\Temp\ccxoNE0f.s 			page 58


 2118 00b0 02000000 		.4byte	.LCFI9
 2119 00b4 04000000 		.4byte	.LCFI10
 2120 00b8 0200     		.2byte	0x2
 2121 00ba 7D       		.byte	0x7d
 2122 00bb 08       		.sleb128 8
 2123 00bc 04000000 		.4byte	.LCFI10
 2124 00c0 06000000 		.4byte	.LCFI11
 2125 00c4 0200     		.2byte	0x2
 2126 00c6 7D       		.byte	0x7d
 2127 00c7 18       		.sleb128 24
 2128 00c8 06000000 		.4byte	.LCFI11
 2129 00cc F0000000 		.4byte	.LFE3
 2130 00d0 0200     		.2byte	0x2
 2131 00d2 77       		.byte	0x77
 2132 00d3 18       		.sleb128 24
 2133 00d4 00000000 		.4byte	0x0
 2134 00d8 00000000 		.4byte	0x0
 2135              	.LLST4:
 2136 00dc 00000000 		.4byte	.LFB4
 2137 00e0 02000000 		.4byte	.LCFI12
 2138 00e4 0100     		.2byte	0x1
 2139 00e6 5D       		.byte	0x5d
 2140 00e7 02000000 		.4byte	.LCFI12
 2141 00eb 04000000 		.4byte	.LCFI13
 2142 00ef 0200     		.2byte	0x2
 2143 00f1 7D       		.byte	0x7d
 2144 00f2 08       		.sleb128 8
 2145 00f3 04000000 		.4byte	.LCFI13
 2146 00f7 06000000 		.4byte	.LCFI14
 2147 00fb 0200     		.2byte	0x2
 2148 00fd 7D       		.byte	0x7d
 2149 00fe 18       		.sleb128 24
 2150 00ff 06000000 		.4byte	.LCFI14
 2151 0103 7E000000 		.4byte	.LFE4
 2152 0107 0200     		.2byte	0x2
 2153 0109 77       		.byte	0x77
 2154 010a 18       		.sleb128 24
 2155 010b 00000000 		.4byte	0x0
 2156 010f 00000000 		.4byte	0x0
 2157              	.LLST5:
 2158 0113 00000000 		.4byte	.LFB5
 2159 0117 02000000 		.4byte	.LCFI15
 2160 011b 0100     		.2byte	0x1
 2161 011d 5D       		.byte	0x5d
 2162 011e 02000000 		.4byte	.LCFI15
 2163 0122 04000000 		.4byte	.LCFI16
 2164 0126 0200     		.2byte	0x2
 2165 0128 7D       		.byte	0x7d
 2166 0129 08       		.sleb128 8
 2167 012a 04000000 		.4byte	.LCFI16
 2168 012e 06000000 		.4byte	.LCFI17
 2169 0132 0200     		.2byte	0x2
 2170 0134 7D       		.byte	0x7d
 2171 0135 28       		.sleb128 40
 2172 0136 06000000 		.4byte	.LCFI17
 2173 013a 52010000 		.4byte	.LFE5
 2174 013e 0200     		.2byte	0x2
ARM GAS  C:\Users\daniel01\AppData\Local\Temp\ccxoNE0f.s 			page 59


 2175 0140 77       		.byte	0x77
 2176 0141 28       		.sleb128 40
 2177 0142 00000000 		.4byte	0x0
 2178 0146 00000000 		.4byte	0x0
 2179              	.LLST6:
 2180 014a 00000000 		.4byte	.LFB6
 2181 014e 02000000 		.4byte	.LCFI18
 2182 0152 0100     		.2byte	0x1
 2183 0154 5D       		.byte	0x5d
 2184 0155 02000000 		.4byte	.LCFI18
 2185 0159 04000000 		.4byte	.LCFI19
 2186 015d 0200     		.2byte	0x2
 2187 015f 7D       		.byte	0x7d
 2188 0160 04       		.sleb128 4
 2189 0161 04000000 		.4byte	.LCFI19
 2190 0165 06000000 		.4byte	.LCFI20
 2191 0169 0200     		.2byte	0x2
 2192 016b 7D       		.byte	0x7d
 2193 016c 10       		.sleb128 16
 2194 016d 06000000 		.4byte	.LCFI20
 2195 0171 7C000000 		.4byte	.LFE6
 2196 0175 0200     		.2byte	0x2
 2197 0177 77       		.byte	0x77
 2198 0178 10       		.sleb128 16
 2199 0179 00000000 		.4byte	0x0
 2200 017d 00000000 		.4byte	0x0
 2201              	.LLST7:
 2202 0181 00000000 		.4byte	.LFB7
 2203 0185 02000000 		.4byte	.LCFI21
 2204 0189 0100     		.2byte	0x1
 2205 018b 5D       		.byte	0x5d
 2206 018c 02000000 		.4byte	.LCFI21
 2207 0190 04000000 		.4byte	.LCFI22
 2208 0194 0200     		.2byte	0x2
 2209 0196 7D       		.byte	0x7d
 2210 0197 04       		.sleb128 4
 2211 0198 04000000 		.4byte	.LCFI22
 2212 019c 06000000 		.4byte	.LCFI23
 2213 01a0 0200     		.2byte	0x2
 2214 01a2 7D       		.byte	0x7d
 2215 01a3 10       		.sleb128 16
 2216 01a4 06000000 		.4byte	.LCFI23
 2217 01a8 5A000000 		.4byte	.LFE7
 2218 01ac 0200     		.2byte	0x2
 2219 01ae 77       		.byte	0x77
 2220 01af 10       		.sleb128 16
 2221 01b0 00000000 		.4byte	0x0
 2222 01b4 00000000 		.4byte	0x0
 2223              	.LLST8:
 2224 01b8 00000000 		.4byte	.LFB8
 2225 01bc 02000000 		.4byte	.LCFI24
 2226 01c0 0100     		.2byte	0x1
 2227 01c2 5D       		.byte	0x5d
 2228 01c3 02000000 		.4byte	.LCFI24
 2229 01c7 04000000 		.4byte	.LCFI25
 2230 01cb 0200     		.2byte	0x2
 2231 01cd 7D       		.byte	0x7d
ARM GAS  C:\Users\daniel01\AppData\Local\Temp\ccxoNE0f.s 			page 60


 2232 01ce 04       		.sleb128 4
 2233 01cf 04000000 		.4byte	.LCFI25
 2234 01d3 06000000 		.4byte	.LCFI26
 2235 01d7 0200     		.2byte	0x2
 2236 01d9 7D       		.byte	0x7d
 2237 01da 18       		.sleb128 24
 2238 01db 06000000 		.4byte	.LCFI26
 2239 01df 7C000000 		.4byte	.LFE8
 2240 01e3 0200     		.2byte	0x2
 2241 01e5 77       		.byte	0x77
 2242 01e6 18       		.sleb128 24
 2243 01e7 00000000 		.4byte	0x0
 2244 01eb 00000000 		.4byte	0x0
 2245              	.LLST9:
 2246 01ef 00000000 		.4byte	.LFB9
 2247 01f3 02000000 		.4byte	.LCFI27
 2248 01f7 0100     		.2byte	0x1
 2249 01f9 5D       		.byte	0x5d
 2250 01fa 02000000 		.4byte	.LCFI27
 2251 01fe 04000000 		.4byte	.LCFI28
 2252 0202 0200     		.2byte	0x2
 2253 0204 7D       		.byte	0x7d
 2254 0205 08       		.sleb128 8
 2255 0206 04000000 		.4byte	.LCFI28
 2256 020a 06000000 		.4byte	.LCFI29
 2257 020e 0300     		.2byte	0x3
 2258 0210 7D       		.byte	0x7d
 2259 0211 C000     		.sleb128 64
 2260 0213 06000000 		.4byte	.LCFI29
 2261 0217 AC010000 		.4byte	.LFE9
 2262 021b 0200     		.2byte	0x2
 2263 021d 77       		.byte	0x77
 2264 021e 18       		.sleb128 24
 2265 021f 00000000 		.4byte	0x0
 2266 0223 00000000 		.4byte	0x0
 2267              	.LLST10:
 2268 0227 00000000 		.4byte	.LFB10
 2269 022b 02000000 		.4byte	.LCFI30
 2270 022f 0100     		.2byte	0x1
 2271 0231 5D       		.byte	0x5d
 2272 0232 02000000 		.4byte	.LCFI30
 2273 0236 04000000 		.4byte	.LCFI31
 2274 023a 0200     		.2byte	0x2
 2275 023c 7D       		.byte	0x7d
 2276 023d 04       		.sleb128 4
 2277 023e 04000000 		.4byte	.LCFI31
 2278 0242 06000000 		.4byte	.LCFI32
 2279 0246 0200     		.2byte	0x2
 2280 0248 7D       		.byte	0x7d
 2281 0249 20       		.sleb128 32
 2282 024a 06000000 		.4byte	.LCFI32
 2283 024e A0010000 		.4byte	.LFE10
 2284 0252 0200     		.2byte	0x2
 2285 0254 77       		.byte	0x77
 2286 0255 20       		.sleb128 32
 2287 0256 00000000 		.4byte	0x0
 2288 025a 00000000 		.4byte	0x0
ARM GAS  C:\Users\daniel01\AppData\Local\Temp\ccxoNE0f.s 			page 61


 2289              	.LLST11:
 2290 025e 00000000 		.4byte	.LFB11
 2291 0262 02000000 		.4byte	.LCFI33
 2292 0266 0100     		.2byte	0x1
 2293 0268 5D       		.byte	0x5d
 2294 0269 02000000 		.4byte	.LCFI33
 2295 026d 04000000 		.4byte	.LCFI34
 2296 0271 0200     		.2byte	0x2
 2297 0273 7D       		.byte	0x7d
 2298 0274 04       		.sleb128 4
 2299 0275 04000000 		.4byte	.LCFI34
 2300 0279 06000000 		.4byte	.LCFI35
 2301 027d 0200     		.2byte	0x2
 2302 027f 7D       		.byte	0x7d
 2303 0280 10       		.sleb128 16
 2304 0281 06000000 		.4byte	.LCFI35
 2305 0285 4A000000 		.4byte	.LFE11
 2306 0289 0200     		.2byte	0x2
 2307 028b 77       		.byte	0x77
 2308 028c 10       		.sleb128 16
 2309 028d 00000000 		.4byte	0x0
 2310 0291 00000000 		.4byte	0x0
 2311              	.LLST12:
 2312 0295 00000000 		.4byte	.LFB12
 2313 0299 02000000 		.4byte	.LCFI36
 2314 029d 0100     		.2byte	0x1
 2315 029f 5D       		.byte	0x5d
 2316 02a0 02000000 		.4byte	.LCFI36
 2317 02a4 04000000 		.4byte	.LCFI37
 2318 02a8 0200     		.2byte	0x2
 2319 02aa 7D       		.byte	0x7d
 2320 02ab 04       		.sleb128 4
 2321 02ac 04000000 		.4byte	.LCFI37
 2322 02b0 06000000 		.4byte	.LCFI38
 2323 02b4 0200     		.2byte	0x2
 2324 02b6 7D       		.byte	0x7d
 2325 02b7 20       		.sleb128 32
 2326 02b8 06000000 		.4byte	.LCFI38
 2327 02bc B0000000 		.4byte	.LFE12
 2328 02c0 0200     		.2byte	0x2
 2329 02c2 77       		.byte	0x77
 2330 02c3 20       		.sleb128 32
 2331 02c4 00000000 		.4byte	0x0
 2332 02c8 00000000 		.4byte	0x0
 2333              	.LLST13:
 2334 02cc 00000000 		.4byte	.LFB13
 2335 02d0 02000000 		.4byte	.LCFI39
 2336 02d4 0100     		.2byte	0x1
 2337 02d6 5D       		.byte	0x5d
 2338 02d7 02000000 		.4byte	.LCFI39
 2339 02db 04000000 		.4byte	.LCFI40
 2340 02df 0200     		.2byte	0x2
 2341 02e1 7D       		.byte	0x7d
 2342 02e2 08       		.sleb128 8
 2343 02e3 04000000 		.4byte	.LCFI40
 2344 02e7 06000000 		.4byte	.LCFI41
 2345 02eb 0200     		.2byte	0x2
ARM GAS  C:\Users\daniel01\AppData\Local\Temp\ccxoNE0f.s 			page 62


 2346 02ed 7D       		.byte	0x7d
 2347 02ee 38       		.sleb128 56
 2348 02ef 06000000 		.4byte	.LCFI41
 2349 02f3 38010000 		.4byte	.LFE13
 2350 02f7 0200     		.2byte	0x2
 2351 02f9 77       		.byte	0x77
 2352 02fa 38       		.sleb128 56
 2353 02fb 00000000 		.4byte	0x0
 2354 02ff 00000000 		.4byte	0x0
 2355              		.file 2 "..\\..\\..\\..\\..\\..\\uC-CPU\\ARM-Cortex-M3\\GNU/cpu.h"
 2356              		.file 3 "..\\..\\..\\..\\..\\..\\uC-CPU/cpu_core.h"
 2357              		.file 4 "..\\..\\..\\..\\..\\..\\uCOS-III\\Source/os_type.h"
 2358              		.file 5 "..\\..\\..\\..\\..\\..\\uCOS-III\\Source/os.h"
 2359              		.section	.debug_info
 2360 0000 66140000 		.4byte	0x1466
 2361 0004 0200     		.2byte	0x2
 2362 0006 00000000 		.4byte	.Ldebug_abbrev0
 2363 000a 04       		.byte	0x4
 2364 000b 01       		.uleb128 0x1
 2365 000c 4B000000 		.4byte	.LASF347
 2366 0010 01       		.byte	0x1
 2367 0011 03070000 		.4byte	.LASF348
 2368 0015 26130000 		.4byte	.LASF349
 2369 0019 00000000 		.4byte	0x0
 2370 001d 00000000 		.4byte	0x0
 2371 0021 00000000 		.4byte	.Ldebug_ranges0+0x0
 2372 0025 00000000 		.4byte	.Ldebug_line0
 2373 0029 02       		.uleb128 0x2
 2374 002a 82070000 		.4byte	.LASF0
 2375 002e 02       		.byte	0x2
 2376 002f 76       		.byte	0x76
 2377 0030 34000000 		.4byte	0x34
 2378 0034 03       		.uleb128 0x3
 2379 0035 01       		.byte	0x1
 2380 0036 08       		.byte	0x8
 2381 0037 34090000 		.4byte	.LASF2
 2382 003b 02       		.uleb128 0x2
 2383 003c 1E100000 		.4byte	.LASF1
 2384 0040 02       		.byte	0x2
 2385 0041 77       		.byte	0x77
 2386 0042 46000000 		.4byte	0x46
 2387 0046 03       		.uleb128 0x3
 2388 0047 01       		.byte	0x1
 2389 0048 08       		.byte	0x8
 2390 0049 81100000 		.4byte	.LASF3
 2391 004d 02       		.uleb128 0x2
 2392 004e 43060000 		.4byte	.LASF4
 2393 0052 02       		.byte	0x2
 2394 0053 78       		.byte	0x78
 2395 0054 46000000 		.4byte	0x46
 2396 0058 03       		.uleb128 0x3
 2397 0059 01       		.byte	0x1
 2398 005a 06       		.byte	0x6
 2399 005b F1110000 		.4byte	.LASF5
 2400 005f 02       		.uleb128 0x2
 2401 0060 DD0A0000 		.4byte	.LASF6
 2402 0064 02       		.byte	0x2
ARM GAS  C:\Users\daniel01\AppData\Local\Temp\ccxoNE0f.s 			page 63


 2403 0065 7A       		.byte	0x7a
 2404 0066 6A000000 		.4byte	0x6a
 2405 006a 03       		.uleb128 0x3
 2406 006b 02       		.byte	0x2
 2407 006c 07       		.byte	0x7
 2408 006d 1E120000 		.4byte	.LASF7
 2409 0071 03       		.uleb128 0x3
 2410 0072 02       		.byte	0x2
 2411 0073 05       		.byte	0x5
 2412 0074 CD0D0000 		.4byte	.LASF8
 2413 0078 02       		.uleb128 0x2
 2414 0079 D9010000 		.4byte	.LASF9
 2415 007d 02       		.byte	0x2
 2416 007e 7C       		.byte	0x7c
 2417 007f 83000000 		.4byte	0x83
 2418 0083 03       		.uleb128 0x3
 2419 0084 04       		.byte	0x4
 2420 0085 07       		.byte	0x7
 2421 0086 2D0F0000 		.4byte	.LASF10
 2422 008a 04       		.uleb128 0x4
 2423 008b 04       		.byte	0x4
 2424 008c 05       		.byte	0x5
 2425 008d 696E7400 		.ascii	"int\000"
 2426 0091 03       		.uleb128 0x3
 2427 0092 08       		.byte	0x8
 2428 0093 07       		.byte	0x7
 2429 0094 80050000 		.4byte	.LASF11
 2430 0098 03       		.uleb128 0x3
 2431 0099 08       		.byte	0x8
 2432 009a 05       		.byte	0x5
 2433 009b 480A0000 		.4byte	.LASF12
 2434 009f 03       		.uleb128 0x3
 2435 00a0 04       		.byte	0x4
 2436 00a1 04       		.byte	0x4
 2437 00a2 D3040000 		.4byte	.LASF13
 2438 00a6 03       		.uleb128 0x3
 2439 00a7 08       		.byte	0x8
 2440 00a8 04       		.byte	0x4
 2441 00a9 B2120000 		.4byte	.LASF14
 2442 00ad 05       		.uleb128 0x5
 2443 00ae 04       		.byte	0x4
 2444 00af B3000000 		.4byte	0xb3
 2445 00b3 06       		.uleb128 0x6
 2446 00b4 01       		.byte	0x1
 2447 00b5 BF000000 		.4byte	0xbf
 2448 00b9 07       		.uleb128 0x7
 2449 00ba BF000000 		.4byte	0xbf
 2450 00be 00       		.byte	0x0
 2451 00bf 08       		.uleb128 0x8
 2452 00c0 04       		.byte	0x4
 2453 00c1 02       		.uleb128 0x2
 2454 00c2 C40F0000 		.4byte	.LASF15
 2455 00c6 02       		.byte	0x2
 2456 00c7 B5       		.byte	0xb5
 2457 00c8 78000000 		.4byte	0x78
 2458 00cc 02       		.uleb128 0x2
 2459 00cd FC140000 		.4byte	.LASF16
ARM GAS  C:\Users\daniel01\AppData\Local\Temp\ccxoNE0f.s 			page 64


 2460 00d1 02       		.byte	0x2
 2461 00d2 D9       		.byte	0xd9
 2462 00d3 78000000 		.4byte	0x78
 2463 00d7 02       		.uleb128 0x2
 2464 00d8 B6070000 		.4byte	.LASF17
 2465 00dc 02       		.byte	0x2
 2466 00dd DA       		.byte	0xda
 2467 00de C1000000 		.4byte	0xc1
 2468 00e2 09       		.uleb128 0x9
 2469 00e3 6A090000 		.4byte	.LASF18
 2470 00e7 02       		.byte	0x2
 2471 00e8 2901     		.2byte	0x129
 2472 00ea 78000000 		.4byte	0x78
 2473 00ee 02       		.uleb128 0x2
 2474 00ef 8F0B0000 		.4byte	.LASF19
 2475 00f3 03       		.byte	0x3
 2476 00f4 C4       		.byte	0xc4
 2477 00f5 78000000 		.4byte	0x78
 2478 00f9 02       		.uleb128 0x2
 2479 00fa 410A0000 		.4byte	.LASF20
 2480 00fe 03       		.byte	0x3
 2481 00ff C7       		.byte	0xc7
 2482 0100 EE000000 		.4byte	0xee
 2483 0104 02       		.uleb128 0x2
 2484 0105 AF010000 		.4byte	.LASF21
 2485 0109 04       		.byte	0x4
 2486 010a 30       		.byte	0x30
 2487 010b 5F000000 		.4byte	0x5f
 2488 010f 02       		.uleb128 0x2
 2489 0110 A2070000 		.4byte	.LASF22
 2490 0114 04       		.byte	0x4
 2491 0115 32       		.byte	0x32
 2492 0116 78000000 		.4byte	0x78
 2493 011a 02       		.uleb128 0x2
 2494 011b 22000000 		.4byte	.LASF23
 2495 011f 04       		.byte	0x4
 2496 0120 34       		.byte	0x34
 2497 0121 78000000 		.4byte	0x78
 2498 0125 02       		.uleb128 0x2
 2499 0126 2A100000 		.4byte	.LASF24
 2500 012a 04       		.byte	0x4
 2501 012b 36       		.byte	0x36
 2502 012c 78000000 		.4byte	0x78
 2503 0130 02       		.uleb128 0x2
 2504 0131 31120000 		.4byte	.LASF25
 2505 0135 04       		.byte	0x4
 2506 0136 38       		.byte	0x38
 2507 0137 78000000 		.4byte	0x78
 2508 013b 02       		.uleb128 0x2
 2509 013c C3070000 		.4byte	.LASF26
 2510 0140 04       		.byte	0x4
 2511 0141 3F       		.byte	0x3f
 2512 0142 5F000000 		.4byte	0x5f
 2513 0146 02       		.uleb128 0x2
 2514 0147 47070000 		.4byte	.LASF27
 2515 014b 04       		.byte	0x4
 2516 014c 40       		.byte	0x40
ARM GAS  C:\Users\daniel01\AppData\Local\Temp\ccxoNE0f.s 			page 65


 2517 014d 5F000000 		.4byte	0x5f
 2518 0151 02       		.uleb128 0x2
 2519 0152 7B0E0000 		.4byte	.LASF28
 2520 0156 04       		.byte	0x4
 2521 0157 42       		.byte	0x42
 2522 0158 4D000000 		.4byte	0x4d
 2523 015c 02       		.uleb128 0x2
 2524 015d 96020000 		.4byte	.LASF29
 2525 0161 04       		.byte	0x4
 2526 0162 44       		.byte	0x44
 2527 0163 5F000000 		.4byte	0x5f
 2528 0167 02       		.uleb128 0x2
 2529 0168 39090000 		.4byte	.LASF30
 2530 016c 04       		.byte	0x4
 2531 016d 45       		.byte	0x45
 2532 016e 78000000 		.4byte	0x78
 2533 0172 02       		.uleb128 0x2
 2534 0173 C8100000 		.4byte	.LASF31
 2535 0177 04       		.byte	0x4
 2536 0178 47       		.byte	0x47
 2537 0179 5F000000 		.4byte	0x5f
 2538 017d 02       		.uleb128 0x2
 2539 017e CB040000 		.4byte	.LASF32
 2540 0182 04       		.byte	0x4
 2541 0183 49       		.byte	0x49
 2542 0184 4D000000 		.4byte	0x4d
 2543 0188 02       		.uleb128 0x2
 2544 0189 B1090000 		.4byte	.LASF33
 2545 018d 04       		.byte	0x4
 2546 018e 4D       		.byte	0x4d
 2547 018f 78000000 		.4byte	0x78
 2548 0193 02       		.uleb128 0x2
 2549 0194 BF060000 		.4byte	.LASF34
 2550 0198 04       		.byte	0x4
 2551 0199 4F       		.byte	0x4f
 2552 019a 78000000 		.4byte	0x78
 2553 019e 02       		.uleb128 0x2
 2554 019f BB0B0000 		.4byte	.LASF35
 2555 01a3 04       		.byte	0x4
 2556 01a4 52       		.byte	0x52
 2557 01a5 78000000 		.4byte	0x78
 2558 01a9 02       		.uleb128 0x2
 2559 01aa BF100000 		.4byte	.LASF36
 2560 01ae 04       		.byte	0x4
 2561 01af 54       		.byte	0x54
 2562 01b0 4D000000 		.4byte	0x4d
 2563 01b4 02       		.uleb128 0x2
 2564 01b5 D2060000 		.4byte	.LASF37
 2565 01b9 04       		.byte	0x4
 2566 01ba 56       		.byte	0x56
 2567 01bb 4D000000 		.4byte	0x4d
 2568 01bf 02       		.uleb128 0x2
 2569 01c0 460B0000 		.4byte	.LASF38
 2570 01c4 04       		.byte	0x4
 2571 01c5 58       		.byte	0x58
 2572 01c6 78000000 		.4byte	0x78
 2573 01ca 02       		.uleb128 0x2
ARM GAS  C:\Users\daniel01\AppData\Local\Temp\ccxoNE0f.s 			page 66


 2574 01cb 71090000 		.4byte	.LASF39
 2575 01cf 04       		.byte	0x4
 2576 01d0 5B       		.byte	0x5b
 2577 01d1 5F000000 		.4byte	0x5f
 2578 01d5 0A       		.uleb128 0xa
 2579 01d6 74010000 		.4byte	.LASF350
 2580 01da 02       		.byte	0x2
 2581 01db 05       		.byte	0x5
 2582 01dc A501     		.2byte	0x1a5
 2583 01de E9060000 		.4byte	0x6e9
 2584 01e2 0B       		.uleb128 0xb
 2585 01e3 5A120000 		.4byte	.LASF40
 2586 01e7 00       		.sleb128 0
 2587 01e8 0B       		.uleb128 0xb
 2588 01e9 82000000 		.4byte	.LASF41
 2589 01ed 90CE00   		.sleb128 10000
 2590 01f0 0B       		.uleb128 0xb
 2591 01f1 19030000 		.4byte	.LASF42
 2592 01f5 91CE00   		.sleb128 10001
 2593 01f8 0B       		.uleb128 0xb
 2594 01f9 8B000000 		.4byte	.LASF43
 2595 01fd F8D500   		.sleb128 11000
 2596 0200 0B       		.uleb128 0xb
 2597 0201 94000000 		.4byte	.LASF44
 2598 0205 E0DD00   		.sleb128 12000
 2599 0208 0B       		.uleb128 0xb
 2600 0209 9D010000 		.4byte	.LASF45
 2601 020d E1DD00   		.sleb128 12001
 2602 0210 0B       		.uleb128 0xb
 2603 0211 9D000000 		.4byte	.LASF46
 2604 0215 C8E500   		.sleb128 13000
 2605 0218 0B       		.uleb128 0xb
 2606 0219 FE080000 		.4byte	.LASF47
 2607 021d C9E500   		.sleb128 13001
 2608 0220 0B       		.uleb128 0xb
 2609 0221 A6000000 		.4byte	.LASF48
 2610 0225 B0ED00   		.sleb128 14000
 2611 0228 0B       		.uleb128 0xb
 2612 0229 AF000000 		.4byte	.LASF49
 2613 022d 98F500   		.sleb128 15000
 2614 0230 0B       		.uleb128 0xb
 2615 0231 0A120000 		.4byte	.LASF50
 2616 0235 99F500   		.sleb128 15001
 2617 0238 0B       		.uleb128 0xb
 2618 0239 50080000 		.4byte	.LASF51
 2619 023d FDF500   		.sleb128 15101
 2620 0240 0B       		.uleb128 0xb
 2621 0241 880F0000 		.4byte	.LASF52
 2622 0245 FEF500   		.sleb128 15102
 2623 0248 0B       		.uleb128 0xb
 2624 0249 560A0000 		.4byte	.LASF53
 2625 024d FFF500   		.sleb128 15103
 2626 0250 0B       		.uleb128 0xb
 2627 0251 95120000 		.4byte	.LASF54
 2628 0255 80F600   		.sleb128 15104
 2629 0258 0B       		.uleb128 0xb
 2630 0259 B8000000 		.4byte	.LASF55
ARM GAS  C:\Users\daniel01\AppData\Local\Temp\ccxoNE0f.s 			page 67


 2631 025d 80FD00   		.sleb128 16000
 2632 0260 0B       		.uleb128 0xb
 2633 0261 C1000000 		.4byte	.LASF56
 2634 0265 E88401   		.sleb128 17000
 2635 0268 0B       		.uleb128 0xb
 2636 0269 CA000000 		.4byte	.LASF57
 2637 026d D08C01   		.sleb128 18000
 2638 0270 0B       		.uleb128 0xb
 2639 0271 55040000 		.4byte	.LASF58
 2640 0275 D18C01   		.sleb128 18001
 2641 0278 0B       		.uleb128 0xb
 2642 0279 E7020000 		.4byte	.LASF59
 2643 027d D28C01   		.sleb128 18002
 2644 0280 0B       		.uleb128 0xb
 2645 0281 0B040000 		.4byte	.LASF60
 2646 0285 D38C01   		.sleb128 18003
 2647 0288 0B       		.uleb128 0xb
 2648 0289 8B010000 		.4byte	.LASF61
 2649 028d D48C01   		.sleb128 18004
 2650 0290 0B       		.uleb128 0xb
 2651 0291 8F110000 		.4byte	.LASF62
 2652 0295 D58C01   		.sleb128 18005
 2653 0298 0B       		.uleb128 0xb
 2654 0299 8A0C0000 		.4byte	.LASF63
 2655 029d D68C01   		.sleb128 18006
 2656 02a0 0B       		.uleb128 0xb
 2657 02a1 D3000000 		.4byte	.LASF64
 2658 02a5 B89401   		.sleb128 19000
 2659 02a8 0B       		.uleb128 0xb
 2660 02a9 DC000000 		.4byte	.LASF65
 2661 02ad A09C01   		.sleb128 20000
 2662 02b0 0B       		.uleb128 0xb
 2663 02b1 E5000000 		.4byte	.LASF66
 2664 02b5 88A401   		.sleb128 21000
 2665 02b8 0B       		.uleb128 0xb
 2666 02b9 9D0D0000 		.4byte	.LASF67
 2667 02bd 89A401   		.sleb128 21001
 2668 02c0 0B       		.uleb128 0xb
 2669 02c1 EE000000 		.4byte	.LASF68
 2670 02c5 F0AB01   		.sleb128 22000
 2671 02c8 0B       		.uleb128 0xb
 2672 02c9 E4100000 		.4byte	.LASF69
 2673 02cd B9AD01   		.sleb128 22201
 2674 02d0 0B       		.uleb128 0xb
 2675 02d1 4E0B0000 		.4byte	.LASF70
 2676 02d5 BAAD01   		.sleb128 22202
 2677 02d8 0B       		.uleb128 0xb
 2678 02d9 7D0D0000 		.4byte	.LASF71
 2679 02dd BBAD01   		.sleb128 22203
 2680 02e0 0B       		.uleb128 0xb
 2681 02e1 69080000 		.4byte	.LASF72
 2682 02e5 BCAD01   		.sleb128 22204
 2683 02e8 0B       		.uleb128 0xb
 2684 02e9 040B0000 		.4byte	.LASF73
 2685 02ed BDAD01   		.sleb128 22205
 2686 02f0 0B       		.uleb128 0xb
 2687 02f1 640D0000 		.4byte	.LASF74
ARM GAS  C:\Users\daniel01\AppData\Local\Temp\ccxoNE0f.s 			page 68


 2688 02f5 BEAD01   		.sleb128 22206
 2689 02f8 0B       		.uleb128 0xb
 2690 02f9 760B0000 		.4byte	.LASF75
 2691 02fd BFAD01   		.sleb128 22207
 2692 0300 0B       		.uleb128 0xb
 2693 0301 1E050000 		.4byte	.LASF76
 2694 0305 C0AD01   		.sleb128 22208
 2695 0308 0B       		.uleb128 0xb
 2696 0309 DE130000 		.4byte	.LASF77
 2697 030d C1AD01   		.sleb128 22209
 2698 0310 0B       		.uleb128 0xb
 2699 0311 D5140000 		.4byte	.LASF78
 2700 0315 C2AD01   		.sleb128 22210
 2701 0318 0B       		.uleb128 0xb
 2702 0319 E90D0000 		.4byte	.LASF79
 2703 031d 9DAE01   		.sleb128 22301
 2704 0320 0B       		.uleb128 0xb
 2705 0321 620E0000 		.4byte	.LASF80
 2706 0325 9EAE01   		.sleb128 22302
 2707 0328 0B       		.uleb128 0xb
 2708 0329 30070000 		.4byte	.LASF81
 2709 032d 81AF01   		.sleb128 22401
 2710 0330 0B       		.uleb128 0xb
 2711 0331 4F0F0000 		.4byte	.LASF82
 2712 0335 82AF01   		.sleb128 22402
 2713 0338 0B       		.uleb128 0xb
 2714 0339 43030000 		.4byte	.LASF83
 2715 033d 83AF01   		.sleb128 22403
 2716 0340 0B       		.uleb128 0xb
 2717 0341 F7000000 		.4byte	.LASF84
 2718 0345 D8B301   		.sleb128 23000
 2719 0348 0B       		.uleb128 0xb
 2720 0349 C6060000 		.4byte	.LASF85
 2721 034d D9B301   		.sleb128 23001
 2722 0350 0B       		.uleb128 0xb
 2723 0351 F8040000 		.4byte	.LASF86
 2724 0355 DAB301   		.sleb128 23002
 2725 0358 0B       		.uleb128 0xb
 2726 0359 00010000 		.4byte	.LASF87
 2727 035d C0BB01   		.sleb128 24000
 2728 0360 0B       		.uleb128 0xb
 2729 0361 94030000 		.4byte	.LASF88
 2730 0365 C1BB01   		.sleb128 24001
 2731 0368 0B       		.uleb128 0xb
 2732 0369 320A0000 		.4byte	.LASF89
 2733 036d C2BB01   		.sleb128 24002
 2734 0370 0B       		.uleb128 0xb
 2735 0371 1C0B0000 		.4byte	.LASF90
 2736 0375 C3BB01   		.sleb128 24003
 2737 0378 0B       		.uleb128 0xb
 2738 0379 CF0E0000 		.4byte	.LASF91
 2739 037d C4BB01   		.sleb128 24004
 2740 0380 0B       		.uleb128 0xb
 2741 0381 57090000 		.4byte	.LASF92
 2742 0385 A5BC01   		.sleb128 24101
 2743 0388 0B       		.uleb128 0xb
 2744 0389 070D0000 		.4byte	.LASF93
ARM GAS  C:\Users\daniel01\AppData\Local\Temp\ccxoNE0f.s 			page 69


 2745 038d 89BD01   		.sleb128 24201
 2746 0390 0B       		.uleb128 0xb
 2747 0391 CE070000 		.4byte	.LASF94
 2748 0395 8ABD01   		.sleb128 24202
 2749 0398 0B       		.uleb128 0xb
 2750 0399 09010000 		.4byte	.LASF95
 2751 039d A8C301   		.sleb128 25000
 2752 03a0 0B       		.uleb128 0xb
 2753 03a1 B9120000 		.4byte	.LASF96
 2754 03a5 A9C301   		.sleb128 25001
 2755 03a8 0B       		.uleb128 0xb
 2756 03a9 AE0F0000 		.4byte	.LASF97
 2757 03ad AAC301   		.sleb128 25002
 2758 03b0 0B       		.uleb128 0xb
 2759 03b1 160F0000 		.4byte	.LASF98
 2760 03b5 ABC301   		.sleb128 25003
 2761 03b8 0B       		.uleb128 0xb
 2762 03b9 C60A0000 		.4byte	.LASF99
 2763 03bd ACC301   		.sleb128 25004
 2764 03c0 0B       		.uleb128 0xb
 2765 03c1 0B130000 		.4byte	.LASF100
 2766 03c5 ADC301   		.sleb128 25005
 2767 03c8 0B       		.uleb128 0xb
 2768 03c9 19110000 		.4byte	.LASF101
 2769 03cd AEC301   		.sleb128 25006
 2770 03d0 0B       		.uleb128 0xb
 2771 03d1 83020000 		.4byte	.LASF102
 2772 03d5 AFC301   		.sleb128 25007
 2773 03d8 0B       		.uleb128 0xb
 2774 03d9 17020000 		.4byte	.LASF103
 2775 03dd B0C301   		.sleb128 25008
 2776 03e0 0B       		.uleb128 0xb
 2777 03e1 E3040000 		.4byte	.LASF104
 2778 03e5 8DC401   		.sleb128 25101
 2779 03e8 0B       		.uleb128 0xb
 2780 03e9 CD0F0000 		.4byte	.LASF105
 2781 03ed 8EC401   		.sleb128 25102
 2782 03f0 0B       		.uleb128 0xb
 2783 03f1 A8140000 		.4byte	.LASF106
 2784 03f5 F1C401   		.sleb128 25201
 2785 03f8 0B       		.uleb128 0xb
 2786 03f9 EC120000 		.4byte	.LASF107
 2787 03fd F2C401   		.sleb128 25202
 2788 0400 0B       		.uleb128 0xb
 2789 0401 07000000 		.4byte	.LASF108
 2790 0405 F3C401   		.sleb128 25203
 2791 0408 0B       		.uleb128 0xb
 2792 0409 D70C0000 		.4byte	.LASF109
 2793 040d D5C501   		.sleb128 25301
 2794 0410 0B       		.uleb128 0xb
 2795 0411 12010000 		.4byte	.LASF110
 2796 0415 90CB01   		.sleb128 26000
 2797 0418 0B       		.uleb128 0xb
 2798 0419 5E110000 		.4byte	.LASF111
 2799 041d 91CB01   		.sleb128 26001
 2800 0420 0B       		.uleb128 0xb
 2801 0421 8F060000 		.4byte	.LASF112
ARM GAS  C:\Users\daniel01\AppData\Local\Temp\ccxoNE0f.s 			page 70


 2802 0425 92CB01   		.sleb128 26002
 2803 0428 0B       		.uleb128 0xb
 2804 0429 1F090000 		.4byte	.LASF113
 2805 042d 93CB01   		.sleb128 26003
 2806 0430 0B       		.uleb128 0xb
 2807 0431 870A0000 		.4byte	.LASF114
 2808 0435 94CB01   		.sleb128 26004
 2809 0438 0B       		.uleb128 0xb
 2810 0439 1B010000 		.4byte	.LASF115
 2811 043d F8D201   		.sleb128 27000
 2812 0440 0B       		.uleb128 0xb
 2813 0441 300B0000 		.4byte	.LASF116
 2814 0445 F9D201   		.sleb128 27001
 2815 0448 0B       		.uleb128 0xb
 2816 0449 4F0D0000 		.4byte	.LASF117
 2817 044d FAD201   		.sleb128 27002
 2818 0450 0B       		.uleb128 0xb
 2819 0451 E80A0000 		.4byte	.LASF118
 2820 0455 FBD201   		.sleb128 27003
 2821 0458 0B       		.uleb128 0xb
 2822 0459 24010000 		.4byte	.LASF119
 2823 045d E0DA01   		.sleb128 28000
 2824 0460 0B       		.uleb128 0xb
 2825 0461 8C090000 		.4byte	.LASF120
 2826 0465 E1DA01   		.sleb128 28001
 2827 0468 0B       		.uleb128 0xb
 2828 0469 D0080000 		.4byte	.LASF121
 2829 046d E2DA01   		.sleb128 28002
 2830 0470 0B       		.uleb128 0xb
 2831 0471 81120000 		.4byte	.LASF122
 2832 0475 E3DA01   		.sleb128 28003
 2833 0478 0B       		.uleb128 0xb
 2834 0479 D4120000 		.4byte	.LASF123
 2835 047d E4DA01   		.sleb128 28004
 2836 0480 0B       		.uleb128 0xb
 2837 0481 FF0D0000 		.4byte	.LASF124
 2838 0485 E5DA01   		.sleb128 28005
 2839 0488 0B       		.uleb128 0xb
 2840 0489 31140000 		.4byte	.LASF125
 2841 048d C5DB01   		.sleb128 28101
 2842 0490 0B       		.uleb128 0xb
 2843 0491 0C140000 		.4byte	.LASF126
 2844 0495 C6DB01   		.sleb128 28102
 2845 0498 0B       		.uleb128 0xb
 2846 0499 6D020000 		.4byte	.LASF127
 2847 049d A9DC01   		.sleb128 28201
 2848 04a0 0B       		.uleb128 0xb
 2849 04a1 CA090000 		.4byte	.LASF128
 2850 04a5 AADC01   		.sleb128 28202
 2851 04a8 0B       		.uleb128 0xb
 2852 04a9 38080000 		.4byte	.LASF129
 2853 04ad ABDC01   		.sleb128 28203
 2854 04b0 0B       		.uleb128 0xb
 2855 04b1 6B0F0000 		.4byte	.LASF130
 2856 04b5 ACDC01   		.sleb128 28204
 2857 04b8 0B       		.uleb128 0xb
 2858 04b9 EA0C0000 		.4byte	.LASF131
ARM GAS  C:\Users\daniel01\AppData\Local\Temp\ccxoNE0f.s 			page 71


 2859 04bd ADDC01   		.sleb128 28205
 2860 04c0 0B       		.uleb128 0xb
 2861 04c1 FA100000 		.4byte	.LASF132
 2862 04c5 AEDC01   		.sleb128 28206
 2863 04c8 0B       		.uleb128 0xb
 2864 04c9 E4010000 		.4byte	.LASF133
 2865 04cd AFDC01   		.sleb128 28207
 2866 04d0 0B       		.uleb128 0xb
 2867 04d1 3B100000 		.4byte	.LASF134
 2868 04d5 B0DC01   		.sleb128 28208
 2869 04d8 0B       		.uleb128 0xb
 2870 04d9 F10F0000 		.4byte	.LASF135
 2871 04dd B1DC01   		.sleb128 28209
 2872 04e0 0B       		.uleb128 0xb
 2873 04e1 2D010000 		.4byte	.LASF136
 2874 04e5 C8E201   		.sleb128 29000
 2875 04e8 0B       		.uleb128 0xb
 2876 04e9 3A020000 		.4byte	.LASF137
 2877 04ed C9E201   		.sleb128 29001
 2878 04f0 0B       		.uleb128 0xb
 2879 04f1 8B070000 		.4byte	.LASF138
 2880 04f5 CAE201   		.sleb128 29002
 2881 04f8 0B       		.uleb128 0xb
 2882 04f9 C4110000 		.4byte	.LASF139
 2883 04fd CBE201   		.sleb128 29003
 2884 0500 0B       		.uleb128 0xb
 2885 0501 40140000 		.4byte	.LASF140
 2886 0505 CCE201   		.sleb128 29004
 2887 0508 0B       		.uleb128 0xb
 2888 0509 F3050000 		.4byte	.LASF141
 2889 050d CDE201   		.sleb128 29005
 2890 0510 0B       		.uleb128 0xb
 2891 0511 B70C0000 		.4byte	.LASF142
 2892 0515 CEE201   		.sleb128 29006
 2893 0518 0B       		.uleb128 0xb
 2894 0519 2C0C0000 		.4byte	.LASF143
 2895 051d CFE201   		.sleb128 29007
 2896 0520 0B       		.uleb128 0xb
 2897 0521 5E0B0000 		.4byte	.LASF144
 2898 0525 D0E201   		.sleb128 29008
 2899 0528 0B       		.uleb128 0xb
 2900 0529 C8020000 		.4byte	.LASF145
 2901 052d D1E201   		.sleb128 29009
 2902 0530 0B       		.uleb128 0xb
 2903 0531 050C0000 		.4byte	.LASF146
 2904 0535 D2E201   		.sleb128 29010
 2905 0538 0B       		.uleb128 0xb
 2906 0539 AE020000 		.4byte	.LASF147
 2907 053d D3E201   		.sleb128 29011
 2908 0540 0B       		.uleb128 0xb
 2909 0541 8F100000 		.4byte	.LASF148
 2910 0545 D4E201   		.sleb128 29012
 2911 0548 0B       		.uleb128 0xb
 2912 0549 00020000 		.4byte	.LASF149
 2913 054d D5E201   		.sleb128 29013
 2914 0550 0B       		.uleb128 0xb
 2915 0551 9E040000 		.4byte	.LASF150
ARM GAS  C:\Users\daniel01\AppData\Local\Temp\ccxoNE0f.s 			page 72


 2916 0555 D6E201   		.sleb128 29014
 2917 0558 0B       		.uleb128 0xb
 2918 0559 A20E0000 		.4byte	.LASF151
 2919 055d D7E201   		.sleb128 29015
 2920 0560 0B       		.uleb128 0xb
 2921 0561 97050000 		.4byte	.LASF152
 2922 0565 D8E201   		.sleb128 29016
 2923 0568 0B       		.uleb128 0xb
 2924 0569 B50D0000 		.4byte	.LASF153
 2925 056d D9E201   		.sleb128 29017
 2926 0570 0B       		.uleb128 0xb
 2927 0571 F6130000 		.4byte	.LASF154
 2928 0575 DAE201   		.sleb128 29018
 2929 0578 0B       		.uleb128 0xb
 2930 0579 F2030000 		.4byte	.LASF155
 2931 057d DBE201   		.sleb128 29019
 2932 0580 0B       		.uleb128 0xb
 2933 0581 D3050000 		.4byte	.LASF156
 2934 0585 DCE201   		.sleb128 29020
 2935 0588 0B       		.uleb128 0xb
 2936 0589 2B030000 		.4byte	.LASF157
 2937 058d DDE201   		.sleb128 29021
 2938 0590 0B       		.uleb128 0xb
 2939 0591 580C0000 		.4byte	.LASF158
 2940 0595 DEE201   		.sleb128 29022
 2941 0598 0B       		.uleb128 0xb
 2942 0599 FF020000 		.4byte	.LASF159
 2943 059d DFE201   		.sleb128 29023
 2944 05a0 0B       		.uleb128 0xb
 2945 05a1 62060000 		.4byte	.LASF160
 2946 05a5 ADE301   		.sleb128 29101
 2947 05a8 0B       		.uleb128 0xb
 2948 05a9 6A050000 		.4byte	.LASF161
 2949 05ad C0E301   		.sleb128 29120
 2950 05b0 0B       		.uleb128 0xb
 2951 05b1 A80C0000 		.4byte	.LASF162
 2952 05b5 C1E301   		.sleb128 29121
 2953 05b8 0B       		.uleb128 0xb
 2954 05b9 41120000 		.4byte	.LASF163
 2955 05bd C2E301   		.sleb128 29122
 2956 05c0 0B       		.uleb128 0xb
 2957 05c1 45090000 		.4byte	.LASF164
 2958 05c5 C3E301   		.sleb128 29123
 2959 05c8 0B       		.uleb128 0xb
 2960 05c9 E6060000 		.4byte	.LASF165
 2961 05cd C4E301   		.sleb128 29124
 2962 05d0 0B       		.uleb128 0xb
 2963 05d1 8F140000 		.4byte	.LASF166
 2964 05d5 91E401   		.sleb128 29201
 2965 05d8 0B       		.uleb128 0xb
 2966 05d9 4A0E0000 		.4byte	.LASF167
 2967 05dd 92E401   		.sleb128 29202
 2968 05e0 0B       		.uleb128 0xb
 2969 05e1 BC010000 		.4byte	.LASF168
 2970 05e5 93E401   		.sleb128 29203
 2971 05e8 0B       		.uleb128 0xb
 2972 05e9 E20B0000 		.4byte	.LASF169
ARM GAS  C:\Users\daniel01\AppData\Local\Temp\ccxoNE0f.s 			page 73


 2973 05ed 94E401   		.sleb128 29204
 2974 05f0 0B       		.uleb128 0xb
 2975 05f1 DD0F0000 		.4byte	.LASF170
 2976 05f5 F5E401   		.sleb128 29301
 2977 05f8 0B       		.uleb128 0xb
 2978 05f9 74140000 		.4byte	.LASF171
 2979 05fd F6E401   		.sleb128 29302
 2980 0600 0B       		.uleb128 0xb
 2981 0601 55140000 		.4byte	.LASF172
 2982 0605 F7E401   		.sleb128 29303
 2983 0608 0B       		.uleb128 0xb
 2984 0609 53070000 		.4byte	.LASF173
 2985 060d F8E401   		.sleb128 29304
 2986 0610 0B       		.uleb128 0xb
 2987 0611 66000000 		.4byte	.LASF174
 2988 0615 F9E401   		.sleb128 29305
 2989 0618 0B       		.uleb128 0xb
 2990 0619 A8110000 		.4byte	.LASF175
 2991 061d FAE401   		.sleb128 29306
 2992 0620 0B       		.uleb128 0xb
 2993 0621 9E060000 		.4byte	.LASF176
 2994 0625 FBE401   		.sleb128 29307
 2995 0628 0B       		.uleb128 0xb
 2996 0629 E3090000 		.4byte	.LASF177
 2997 062d FCE401   		.sleb128 29308
 2998 0630 0B       		.uleb128 0xb
 2999 0631 3B0D0000 		.4byte	.LASF178
 3000 0635 FDE401   		.sleb128 29309
 3001 0638 0B       		.uleb128 0xb
 3002 0639 0E080000 		.4byte	.LASF179
 3003 063d FEE401   		.sleb128 29310
 3004 0640 0B       		.uleb128 0xb
 3005 0641 9F100000 		.4byte	.LASF180
 3006 0645 D9E501   		.sleb128 29401
 3007 0648 0B       		.uleb128 0xb
 3008 0649 56050000 		.4byte	.LASF181
 3009 064d BDE601   		.sleb128 29501
 3010 0650 0B       		.uleb128 0xb
 3011 0651 B8080000 		.4byte	.LASF182
 3012 0655 BEE601   		.sleb128 29502
 3013 0658 0B       		.uleb128 0xb
 3014 0659 7E040000 		.4byte	.LASF183
 3015 065d BFE601   		.sleb128 29503
 3016 0660 0B       		.uleb128 0xb
 3017 0661 5A010000 		.4byte	.LASF184
 3018 0665 C0E601   		.sleb128 29504
 3019 0668 0B       		.uleb128 0xb
 3020 0669 61030000 		.4byte	.LASF185
 3021 066d C1E601   		.sleb128 29505
 3022 0670 0B       		.uleb128 0xb
 3023 0671 B3050000 		.4byte	.LASF186
 3024 0675 C2E601   		.sleb128 29506
 3025 0678 0B       		.uleb128 0xb
 3026 0679 57000000 		.4byte	.LASF187
 3027 067d C3E601   		.sleb128 29507
 3028 0680 0B       		.uleb128 0xb
 3029 0681 3F050000 		.4byte	.LASF188
ARM GAS  C:\Users\daniel01\AppData\Local\Temp\ccxoNE0f.s 			page 74


 3030 0685 C4E601   		.sleb128 29508
 3031 0688 0B       		.uleb128 0xb
 3032 0689 6D070000 		.4byte	.LASF189
 3033 068d C5E601   		.sleb128 29509
 3034 0690 0B       		.uleb128 0xb
 3035 0691 400C0000 		.4byte	.LASF190
 3036 0695 C6E601   		.sleb128 29510
 3037 0698 0B       		.uleb128 0xb
 3038 0699 21060000 		.4byte	.LASF191
 3039 069d C7E601   		.sleb128 29511
 3040 06a0 0B       		.uleb128 0xb
 3041 06a1 C60B0000 		.4byte	.LASF192
 3042 06a5 C8E601   		.sleb128 29512
 3043 06a8 0B       		.uleb128 0xb
 3044 06a9 6E100000 		.4byte	.LASF193
 3045 06ad C9E601   		.sleb128 29513
 3046 06b0 0B       		.uleb128 0xb
 3047 06b1 36010000 		.4byte	.LASF194
 3048 06b5 B0EA01   		.sleb128 30000
 3049 06b8 0B       		.uleb128 0xb
 3050 06b9 3F010000 		.4byte	.LASF195
 3051 06bd 98F201   		.sleb128 31000
 3052 06c0 0B       		.uleb128 0xb
 3053 06c1 48010000 		.4byte	.LASF196
 3054 06c5 80FA01   		.sleb128 32000
 3055 06c8 0B       		.uleb128 0xb
 3056 06c9 51010000 		.4byte	.LASF197
 3057 06cd E88102   		.sleb128 33000
 3058 06d0 0B       		.uleb128 0xb
 3059 06d1 10110000 		.4byte	.LASF198
 3060 06d5 D08902   		.sleb128 34000
 3061 06d8 0B       		.uleb128 0xb
 3062 06d9 210A0000 		.4byte	.LASF199
 3063 06dd D18902   		.sleb128 34001
 3064 06e0 0B       		.uleb128 0xb
 3065 06e1 29110000 		.4byte	.LASF200
 3066 06e5 B89102   		.sleb128 35000
 3067 06e8 00       		.byte	0x0
 3068 06e9 09       		.uleb128 0x9
 3069 06ea 1B000000 		.4byte	.LASF201
 3070 06ee 05       		.byte	0x5
 3071 06ef 7202     		.2byte	0x272
 3072 06f1 D5010000 		.4byte	0x1d5
 3073 06f5 09       		.uleb128 0x9
 3074 06f6 AA080000 		.4byte	.LASF202
 3075 06fa 05       		.byte	0x5
 3076 06fb 8202     		.2byte	0x282
 3077 06fd 01070000 		.4byte	0x701
 3078 0701 0C       		.uleb128 0xc
 3079 0702 5B060000 		.4byte	.LASF208
 3080 0706 10       		.byte	0x10
 3081 0707 05       		.byte	0x5
 3082 0708 8202     		.2byte	0x282
 3083 070a 4B070000 		.4byte	0x74b
 3084 070e 0D       		.uleb128 0xd
 3085 070f FF0C0000 		.4byte	.LASF203
 3086 0713 05       		.byte	0x5
ARM GAS  C:\Users\daniel01\AppData\Local\Temp\ccxoNE0f.s 			page 75


 3087 0714 4103     		.2byte	0x341
 3088 0716 E60D0000 		.4byte	0xde6
 3089 071a 02       		.byte	0x2
 3090 071b 23       		.byte	0x23
 3091 071c 00       		.uleb128 0x0
 3092 071d 0D       		.uleb128 0xd
 3093 071e 3A120000 		.4byte	.LASF204
 3094 0722 05       		.byte	0x5
 3095 0723 4203     		.2byte	0x342
 3096 0725 BF000000 		.4byte	0xbf
 3097 0729 02       		.byte	0x2
 3098 072a 23       		.byte	0x23
 3099 072b 04       		.uleb128 0x4
 3100 072c 0D       		.uleb128 0xd
 3101 072d 470F0000 		.4byte	.LASF205
 3102 0731 05       		.byte	0x5
 3103 0732 4303     		.2byte	0x343
 3104 0734 46010000 		.4byte	0x146
 3105 0738 02       		.byte	0x2
 3106 0739 23       		.byte	0x23
 3107 073a 08       		.uleb128 0x8
 3108 073b 0D       		.uleb128 0xd
 3109 073c 04120000 		.4byte	.LASF206
 3110 0740 05       		.byte	0x5
 3111 0741 4403     		.2byte	0x344
 3112 0743 F9000000 		.4byte	0xf9
 3113 0747 02       		.byte	0x2
 3114 0748 23       		.byte	0x23
 3115 0749 0C       		.uleb128 0xc
 3116 074a 00       		.byte	0x0
 3117 074b 09       		.uleb128 0x9
 3118 074c 0A0A0000 		.4byte	.LASF207
 3119 0750 05       		.byte	0x5
 3120 0751 8402     		.2byte	0x284
 3121 0753 57070000 		.4byte	0x757
 3122 0757 0C       		.uleb128 0xc
 3123 0758 BA140000 		.4byte	.LASF209
 3124 075c 10       		.byte	0x10
 3125 075d 05       		.byte	0x5
 3126 075e 8402     		.2byte	0x284
 3127 0760 B0070000 		.4byte	0x7b0
 3128 0764 0D       		.uleb128 0xd
 3129 0765 F50E0000 		.4byte	.LASF210
 3130 0769 05       		.byte	0x5
 3131 076a 5403     		.2byte	0x354
 3132 076c E60D0000 		.4byte	0xde6
 3133 0770 02       		.byte	0x2
 3134 0771 23       		.byte	0x23
 3135 0772 00       		.uleb128 0x0
 3136 0773 0D       		.uleb128 0xd
 3137 0774 4A110000 		.4byte	.LASF211
 3138 0778 05       		.byte	0x5
 3139 0779 5503     		.2byte	0x355
 3140 077b E60D0000 		.4byte	0xde6
 3141 077f 02       		.byte	0x2
 3142 0780 23       		.byte	0x23
 3143 0781 04       		.uleb128 0x4
ARM GAS  C:\Users\daniel01\AppData\Local\Temp\ccxoNE0f.s 			page 76


 3144 0782 0D       		.uleb128 0xd
 3145 0783 F4070000 		.4byte	.LASF212
 3146 0787 05       		.byte	0x5
 3147 0788 5603     		.2byte	0x356
 3148 078a 3B010000 		.4byte	0x13b
 3149 078e 02       		.byte	0x2
 3150 078f 23       		.byte	0x23
 3151 0790 08       		.uleb128 0x8
 3152 0791 0D       		.uleb128 0xd
 3153 0792 7B010000 		.4byte	.LASF213
 3154 0796 05       		.byte	0x5
 3155 0797 5703     		.2byte	0x357
 3156 0799 3B010000 		.4byte	0x13b
 3157 079d 02       		.byte	0x2
 3158 079e 23       		.byte	0x23
 3159 079f 0A       		.uleb128 0xa
 3160 07a0 0D       		.uleb128 0xd
 3161 07a1 C3130000 		.4byte	.LASF214
 3162 07a5 05       		.byte	0x5
 3163 07a6 5803     		.2byte	0x358
 3164 07a8 3B010000 		.4byte	0x13b
 3165 07ac 02       		.byte	0x2
 3166 07ad 23       		.byte	0x23
 3167 07ae 0C       		.uleb128 0xc
 3168 07af 00       		.byte	0x0
 3169 07b0 09       		.uleb128 0x9
 3170 07b1 CF100000 		.4byte	.LASF215
 3171 07b5 05       		.byte	0x5
 3172 07b6 8E02     		.2byte	0x28e
 3173 07b8 AD000000 		.4byte	0xad
 3174 07bc 09       		.uleb128 0x9
 3175 07bd 34100000 		.4byte	.LASF216
 3176 07c1 05       		.byte	0x5
 3177 07c2 9002     		.2byte	0x290
 3178 07c4 C8070000 		.4byte	0x7c8
 3179 07c8 0C       		.uleb128 0xc
 3180 07c9 00000000 		.4byte	.LASF217
 3181 07cd C0       		.byte	0xc0
 3182 07ce 05       		.byte	0x5
 3183 07cf 9002     		.2byte	0x290
 3184 07d1 E40A0000 		.4byte	0xae4
 3185 07d5 0D       		.uleb128 0xd
 3186 07d6 6B0A0000 		.4byte	.LASF218
 3187 07da 05       		.byte	0x5
 3188 07db AC03     		.2byte	0x3ac
 3189 07dd EC0D0000 		.4byte	0xdec
 3190 07e1 02       		.byte	0x2
 3191 07e2 23       		.byte	0x23
 3192 07e3 00       		.uleb128 0x0
 3193 07e4 0D       		.uleb128 0xd
 3194 07e5 A20F0000 		.4byte	.LASF219
 3195 07e9 05       		.byte	0x5
 3196 07ea AE03     		.2byte	0x3ae
 3197 07ec BF000000 		.4byte	0xbf
 3198 07f0 02       		.byte	0x2
 3199 07f1 23       		.byte	0x23
 3200 07f2 04       		.uleb128 0x4
ARM GAS  C:\Users\daniel01\AppData\Local\Temp\ccxoNE0f.s 			page 77


 3201 07f3 0D       		.uleb128 0xd
 3202 07f4 A30B0000 		.4byte	.LASF220
 3203 07f8 05       		.byte	0x5
 3204 07f9 B003     		.2byte	0x3b0
 3205 07fb EC0D0000 		.4byte	0xdec
 3206 07ff 02       		.byte	0x2
 3207 0800 23       		.byte	0x23
 3208 0801 08       		.uleb128 0x8
 3209 0802 0D       		.uleb128 0xd
 3210 0803 FF0C0000 		.4byte	.LASF203
 3211 0807 05       		.byte	0x5
 3212 0808 B203     		.2byte	0x3b2
 3213 080a CE0D0000 		.4byte	0xdce
 3214 080e 02       		.byte	0x2
 3215 080f 23       		.byte	0x23
 3216 0810 0C       		.uleb128 0xc
 3217 0811 0D       		.uleb128 0xd
 3218 0812 2C090000 		.4byte	.LASF221
 3219 0816 05       		.byte	0x5
 3220 0817 B303     		.2byte	0x3b3
 3221 0819 CE0D0000 		.4byte	0xdce
 3222 081d 02       		.byte	0x2
 3223 081e 23       		.byte	0x23
 3224 081f 10       		.uleb128 0x10
 3225 0820 0D       		.uleb128 0xd
 3226 0821 F90B0000 		.4byte	.LASF222
 3227 0825 05       		.byte	0x5
 3228 0826 B503     		.2byte	0x3b5
 3229 0828 CE0D0000 		.4byte	0xdce
 3230 082c 02       		.byte	0x2
 3231 082d 23       		.byte	0x23
 3232 082e 14       		.uleb128 0x14
 3233 082f 0D       		.uleb128 0xd
 3234 0830 23080000 		.4byte	.LASF223
 3235 0834 05       		.byte	0x5
 3236 0835 B603     		.2byte	0x3b6
 3237 0837 CE0D0000 		.4byte	0xdce
 3238 083b 02       		.byte	0x2
 3239 083c 23       		.byte	0x23
 3240 083d 18       		.uleb128 0x18
 3241 083e 0D       		.uleb128 0xd
 3242 083f 32110000 		.4byte	.LASF224
 3243 0843 05       		.byte	0x5
 3244 0844 B803     		.2byte	0x3b8
 3245 0846 F20D0000 		.4byte	0xdf2
 3246 084a 02       		.byte	0x2
 3247 084b 23       		.byte	0x23
 3248 084c 1C       		.uleb128 0x1c
 3249 084d 0D       		.uleb128 0xd
 3250 084e F7090000 		.4byte	.LASF225
 3251 0852 05       		.byte	0x5
 3252 0853 BA03     		.2byte	0x3ba
 3253 0855 E00D0000 		.4byte	0xde0
 3254 0859 02       		.byte	0x2
 3255 085a 23       		.byte	0x23
 3256 085b 20       		.uleb128 0x20
 3257 085c 0D       		.uleb128 0xd
ARM GAS  C:\Users\daniel01\AppData\Local\Temp\ccxoNE0f.s 			page 78


 3258 085d 7D060000 		.4byte	.LASF226
 3259 0861 05       		.byte	0x5
 3260 0862 BC03     		.2byte	0x3bc
 3261 0864 EC0D0000 		.4byte	0xdec
 3262 0868 02       		.byte	0x2
 3263 0869 23       		.byte	0x23
 3264 086a 24       		.uleb128 0x24
 3265 086b 0D       		.uleb128 0xd
 3266 086c BC090000 		.4byte	.LASF227
 3267 0870 05       		.byte	0x5
 3268 0871 C203     		.2byte	0x3c2
 3269 0873 B0070000 		.4byte	0x7b0
 3270 0877 02       		.byte	0x2
 3271 0878 23       		.byte	0x23
 3272 0879 28       		.uleb128 0x28
 3273 087a 0D       		.uleb128 0xd
 3274 087b 51110000 		.4byte	.LASF228
 3275 087f 05       		.byte	0x5
 3276 0880 C303     		.2byte	0x3c3
 3277 0882 BF000000 		.4byte	0xbf
 3278 0886 02       		.byte	0x2
 3279 0887 23       		.byte	0x23
 3280 0888 2C       		.uleb128 0x2c
 3281 0889 0D       		.uleb128 0xd
 3282 088a DF0E0000 		.4byte	.LASF229
 3283 088e 05       		.byte	0x5
 3284 088f C503     		.2byte	0x3c5
 3285 0891 D40D0000 		.4byte	0xdd4
 3286 0895 02       		.byte	0x2
 3287 0896 23       		.byte	0x23
 3288 0897 30       		.uleb128 0x30
 3289 0898 0D       		.uleb128 0xd
 3290 0899 7A030000 		.4byte	.LASF230
 3291 089d 05       		.byte	0x5
 3292 089e C603     		.2byte	0x3c6
 3293 08a0 A9010000 		.4byte	0x1a9
 3294 08a4 02       		.byte	0x2
 3295 08a5 23       		.byte	0x23
 3296 08a6 34       		.uleb128 0x34
 3297 08a7 0D       		.uleb128 0xd
 3298 08a8 FF090000 		.4byte	.LASF231
 3299 08ac 05       		.byte	0x5
 3300 08ad C703     		.2byte	0x3c7
 3301 08af B4010000 		.4byte	0x1b4
 3302 08b3 02       		.byte	0x2
 3303 08b4 23       		.byte	0x23
 3304 08b5 35       		.uleb128 0x35
 3305 08b6 0D       		.uleb128 0xd
 3306 08b7 DC060000 		.4byte	.LASF232
 3307 08bb 05       		.byte	0x5
 3308 08bc C903     		.2byte	0x3c9
 3309 08be A9010000 		.4byte	0x1a9
 3310 08c2 02       		.byte	0x2
 3311 08c3 23       		.byte	0x23
 3312 08c4 36       		.uleb128 0x36
 3313 08c5 0D       		.uleb128 0xd
 3314 08c6 A6120000 		.4byte	.LASF233
ARM GAS  C:\Users\daniel01\AppData\Local\Temp\ccxoNE0f.s 			page 79


 3315 08ca 05       		.byte	0x5
 3316 08cb CA03     		.2byte	0x3ca
 3317 08cd 7D010000 		.4byte	0x17d
 3318 08d1 02       		.byte	0x2
 3319 08d2 23       		.byte	0x23
 3320 08d3 37       		.uleb128 0x37
 3321 08d4 0D       		.uleb128 0xd
 3322 08d5 75060000 		.4byte	.LASF234
 3323 08d9 05       		.byte	0x5
 3324 08da CB03     		.2byte	0x3cb
 3325 08dc D7000000 		.4byte	0xd7
 3326 08e0 02       		.byte	0x2
 3327 08e1 23       		.byte	0x23
 3328 08e2 38       		.uleb128 0x38
 3329 08e3 0E       		.uleb128 0xe
 3330 08e4 4F707400 		.ascii	"Opt\000"
 3331 08e8 05       		.byte	0x5
 3332 08e9 CC03     		.2byte	0x3cc
 3333 08eb 72010000 		.4byte	0x172
 3334 08ef 02       		.byte	0x2
 3335 08f0 23       		.byte	0x23
 3336 08f1 3C       		.uleb128 0x3c
 3337 08f2 0D       		.uleb128 0xd
 3338 08f3 81030000 		.4byte	.LASF235
 3339 08f7 05       		.byte	0x5
 3340 08f8 CE03     		.2byte	0x3ce
 3341 08fa 5C010000 		.4byte	0x15c
 3342 08fe 02       		.byte	0x2
 3343 08ff 23       		.byte	0x23
 3344 0900 3E       		.uleb128 0x3e
 3345 0901 0E       		.uleb128 0xe
 3346 0902 545300   		.ascii	"TS\000"
 3347 0905 05       		.byte	0x5
 3348 0906 D003     		.2byte	0x3d0
 3349 0908 F9000000 		.4byte	0xf9
 3350 090c 02       		.byte	0x2
 3351 090d 23       		.byte	0x23
 3352 090e 40       		.uleb128 0x40
 3353 090f 0D       		.uleb128 0xd
 3354 0910 EE0E0000 		.4byte	.LASF236
 3355 0914 05       		.byte	0x5
 3356 0915 D203     		.2byte	0x3d2
 3357 0917 9E010000 		.4byte	0x19e
 3358 091b 02       		.byte	0x2
 3359 091c 23       		.byte	0x23
 3360 091d 44       		.uleb128 0x44
 3361 091e 0D       		.uleb128 0xd
 3362 091f E8070000 		.4byte	.LASF237
 3363 0923 05       		.byte	0x5
 3364 0924 D503     		.2byte	0x3d5
 3365 0926 BF010000 		.4byte	0x1bf
 3366 092a 02       		.byte	0x2
 3367 092b 23       		.byte	0x23
 3368 092c 48       		.uleb128 0x48
 3369 092d 0D       		.uleb128 0xd
 3370 092e 1D040000 		.4byte	.LASF238
 3371 0932 05       		.byte	0x5
ARM GAS  C:\Users\daniel01\AppData\Local\Temp\ccxoNE0f.s 			page 80


 3372 0933 D603     		.2byte	0x3d6
 3373 0935 BF010000 		.4byte	0x1bf
 3374 0939 02       		.byte	0x2
 3375 093a 23       		.byte	0x23
 3376 093b 4C       		.uleb128 0x4c
 3377 093c 0D       		.uleb128 0xd
 3378 093d FB0E0000 		.4byte	.LASF239
 3379 0941 05       		.byte	0x5
 3380 0942 D703     		.2byte	0x3d7
 3381 0944 BF010000 		.4byte	0x1bf
 3382 0948 02       		.byte	0x2
 3383 0949 23       		.byte	0x23
 3384 094a 50       		.uleb128 0x50
 3385 094b 0D       		.uleb128 0xd
 3386 094c 69140000 		.4byte	.LASF240
 3387 0950 05       		.byte	0x5
 3388 0951 D903     		.2byte	0x3d9
 3389 0953 BF010000 		.4byte	0x1bf
 3390 0957 02       		.byte	0x2
 3391 0958 23       		.byte	0x23
 3392 0959 54       		.uleb128 0x54
 3393 095a 0D       		.uleb128 0xd
 3394 095b 130A0000 		.4byte	.LASF241
 3395 095f 05       		.byte	0x5
 3396 0960 DA03     		.2byte	0x3da
 3397 0962 BF010000 		.4byte	0x1bf
 3398 0966 02       		.byte	0x2
 3399 0967 23       		.byte	0x23
 3400 0968 58       		.uleb128 0x58
 3401 0969 0D       		.uleb128 0xd
 3402 096a 3A120000 		.4byte	.LASF204
 3403 096e 05       		.byte	0x5
 3404 096f DD03     		.2byte	0x3dd
 3405 0971 BF000000 		.4byte	0xbf
 3406 0975 02       		.byte	0x2
 3407 0976 23       		.byte	0x23
 3408 0977 5C       		.uleb128 0x5c
 3409 0978 0D       		.uleb128 0xd
 3410 0979 470F0000 		.4byte	.LASF205
 3411 097d 05       		.byte	0x5
 3412 097e DE03     		.2byte	0x3de
 3413 0980 46010000 		.4byte	0x146
 3414 0984 02       		.byte	0x2
 3415 0985 23       		.byte	0x23
 3416 0986 60       		.uleb128 0x60
 3417 0987 0D       		.uleb128 0xd
 3418 0988 AC090000 		.4byte	.LASF242
 3419 098c 05       		.byte	0x5
 3420 098d E203     		.2byte	0x3e2
 3421 098f 4B070000 		.4byte	0x74b
 3422 0993 02       		.byte	0x2
 3423 0994 23       		.byte	0x23
 3424 0995 64       		.uleb128 0x64
 3425 0996 0D       		.uleb128 0xd
 3426 0997 9D080000 		.4byte	.LASF243
 3427 099b 05       		.byte	0x5
 3428 099c E403     		.2byte	0x3e4
ARM GAS  C:\Users\daniel01\AppData\Local\Temp\ccxoNE0f.s 			page 81


 3429 099e F9000000 		.4byte	0xf9
 3430 09a2 02       		.byte	0x2
 3431 09a3 23       		.byte	0x23
 3432 09a4 74       		.uleb128 0x74
 3433 09a5 0D       		.uleb128 0xd
 3434 09a6 8D080000 		.4byte	.LASF244
 3435 09aa 05       		.byte	0x5
 3436 09ab E503     		.2byte	0x3e5
 3437 09ad F9000000 		.4byte	0xf9
 3438 09b1 02       		.byte	0x2
 3439 09b2 23       		.byte	0x23
 3440 09b3 78       		.uleb128 0x78
 3441 09b4 0D       		.uleb128 0xd
 3442 09b5 1B140000 		.4byte	.LASF245
 3443 09b9 05       		.byte	0x5
 3444 09ba EA03     		.2byte	0x3ea
 3445 09bc F80D0000 		.4byte	0xdf8
 3446 09c0 02       		.byte	0x2
 3447 09c1 23       		.byte	0x23
 3448 09c2 7C       		.uleb128 0x7c
 3449 09c3 0D       		.uleb128 0xd
 3450 09c4 74040000 		.4byte	.LASF246
 3451 09c8 05       		.byte	0x5
 3452 09c9 EE03     		.2byte	0x3ee
 3453 09cb 30010000 		.4byte	0x130
 3454 09cf 03       		.byte	0x3
 3455 09d0 23       		.byte	0x23
 3456 09d1 8001     		.uleb128 0x80
 3457 09d3 0D       		.uleb128 0xd
 3458 09d4 2F080000 		.4byte	.LASF247
 3459 09d8 05       		.byte	0x5
 3460 09d9 EF03     		.2byte	0x3ef
 3461 09db 30010000 		.4byte	0x130
 3462 09df 03       		.byte	0x3
 3463 09e0 23       		.byte	0x23
 3464 09e1 8401     		.uleb128 0x84
 3465 09e3 0D       		.uleb128 0xd
 3466 09e4 F7010000 		.4byte	.LASF248
 3467 09e8 05       		.byte	0x5
 3468 09e9 F003     		.2byte	0x3f0
 3469 09eb 72010000 		.4byte	0x172
 3470 09ef 03       		.byte	0x3
 3471 09f0 23       		.byte	0x23
 3472 09f1 8801     		.uleb128 0x88
 3473 09f3 0D       		.uleb128 0xd
 3474 09f4 980B0000 		.4byte	.LASF249
 3475 09f8 05       		.byte	0x5
 3476 09f9 F403     		.2byte	0x3f4
 3477 09fb 51010000 		.4byte	0x151
 3478 09ff 03       		.byte	0x3
 3479 0a00 23       		.byte	0x23
 3480 0a01 8A01     		.uleb128 0x8a
 3481 0a03 0D       		.uleb128 0xd
 3482 0a04 CB120000 		.4byte	.LASF250
 3483 0a08 05       		.byte	0x5
 3484 0a09 F803     		.2byte	0x3f8
 3485 0a0b 04010000 		.4byte	0x104
ARM GAS  C:\Users\daniel01\AppData\Local\Temp\ccxoNE0f.s 			page 82


 3486 0a0f 03       		.byte	0x3
 3487 0a10 23       		.byte	0x23
 3488 0a11 8C01     		.uleb128 0x8c
 3489 0a13 0D       		.uleb128 0xd
 3490 0a14 BA0E0000 		.4byte	.LASF251
 3491 0a18 05       		.byte	0x5
 3492 0a19 F903     		.2byte	0x3f9
 3493 0a1b 04010000 		.4byte	0x104
 3494 0a1f 03       		.byte	0x3
 3495 0a20 23       		.byte	0x23
 3496 0a21 8E01     		.uleb128 0x8e
 3497 0a23 0D       		.uleb128 0xd
 3498 0a24 95040000 		.4byte	.LASF252
 3499 0a28 05       		.byte	0x5
 3500 0a29 FA03     		.2byte	0x3fa
 3501 0a2b 1A010000 		.4byte	0x11a
 3502 0a2f 03       		.byte	0x3
 3503 0a30 23       		.byte	0x23
 3504 0a31 9001     		.uleb128 0x90
 3505 0a33 0D       		.uleb128 0xd
 3506 0a34 AF0B0000 		.4byte	.LASF253
 3507 0a38 05       		.byte	0x5
 3508 0a39 FB03     		.2byte	0x3fb
 3509 0a3b F9000000 		.4byte	0xf9
 3510 0a3f 03       		.byte	0x3
 3511 0a40 23       		.byte	0x23
 3512 0a41 9401     		.uleb128 0x94
 3513 0a43 0D       		.uleb128 0xd
 3514 0a44 950A0000 		.4byte	.LASF254
 3515 0a48 05       		.byte	0x5
 3516 0a49 FC03     		.2byte	0x3fc
 3517 0a4b F9000000 		.4byte	0xf9
 3518 0a4f 03       		.byte	0x3
 3519 0a50 23       		.byte	0x23
 3520 0a51 9801     		.uleb128 0x98
 3521 0a53 0D       		.uleb128 0xd
 3522 0a54 8A0E0000 		.4byte	.LASF255
 3523 0a58 05       		.byte	0x5
 3524 0a59 FD03     		.2byte	0x3fd
 3525 0a5b 25010000 		.4byte	0x125
 3526 0a5f 03       		.byte	0x3
 3527 0a60 23       		.byte	0x23
 3528 0a61 9C01     		.uleb128 0x9c
 3529 0a63 0D       		.uleb128 0xd
 3530 0a64 3A0E0000 		.4byte	.LASF256
 3531 0a68 05       		.byte	0x5
 3532 0a69 FE03     		.2byte	0x3fe
 3533 0a6b 25010000 		.4byte	0x125
 3534 0a6f 03       		.byte	0x3
 3535 0a70 23       		.byte	0x23
 3536 0a71 A001     		.uleb128 0xa0
 3537 0a73 0D       		.uleb128 0xd
 3538 0a74 CB0C0000 		.4byte	.LASF257
 3539 0a78 05       		.byte	0x5
 3540 0a79 0004     		.2byte	0x400
 3541 0a7b F9000000 		.4byte	0xf9
 3542 0a7f 03       		.byte	0x3
ARM GAS  C:\Users\daniel01\AppData\Local\Temp\ccxoNE0f.s 			page 83


 3543 0a80 23       		.byte	0x23
 3544 0a81 A401     		.uleb128 0xa4
 3545 0a83 0D       		.uleb128 0xd
 3546 0a84 170E0000 		.4byte	.LASF258
 3547 0a88 05       		.byte	0x5
 3548 0a89 0104     		.2byte	0x401
 3549 0a8b F9000000 		.4byte	0xf9
 3550 0a8f 03       		.byte	0x3
 3551 0a90 23       		.byte	0x23
 3552 0a91 A801     		.uleb128 0xa8
 3553 0a93 0D       		.uleb128 0xd
 3554 0a94 AB050000 		.4byte	.LASF259
 3555 0a98 05       		.byte	0x5
 3556 0a99 0504     		.2byte	0x405
 3557 0a9b D7000000 		.4byte	0xd7
 3558 0a9f 03       		.byte	0x3
 3559 0aa0 23       		.byte	0x23
 3560 0aa1 AC01     		.uleb128 0xac
 3561 0aa3 0D       		.uleb128 0xd
 3562 0aa4 E0070000 		.4byte	.LASF260
 3563 0aa8 05       		.byte	0x5
 3564 0aa9 0604     		.2byte	0x406
 3565 0aab D7000000 		.4byte	0xd7
 3566 0aaf 03       		.byte	0x3
 3567 0ab0 23       		.byte	0x23
 3568 0ab1 B001     		.uleb128 0xb0
 3569 0ab3 0D       		.uleb128 0xd
 3570 0ab4 DC020000 		.4byte	.LASF261
 3571 0ab8 05       		.byte	0x5
 3572 0ab9 1104     		.2byte	0x411
 3573 0abb CE0D0000 		.4byte	0xdce
 3574 0abf 03       		.byte	0x3
 3575 0ac0 23       		.byte	0x23
 3576 0ac1 B401     		.uleb128 0xb4
 3577 0ac3 0D       		.uleb128 0xd
 3578 0ac4 F4020000 		.4byte	.LASF262
 3579 0ac8 05       		.byte	0x5
 3580 0ac9 1204     		.2byte	0x412
 3581 0acb CE0D0000 		.4byte	0xdce
 3582 0acf 03       		.byte	0x3
 3583 0ad0 23       		.byte	0x23
 3584 0ad1 B801     		.uleb128 0xb8
 3585 0ad3 0D       		.uleb128 0xd
 3586 0ad4 3F110000 		.4byte	.LASF263
 3587 0ad8 05       		.byte	0x5
 3588 0ad9 1304     		.2byte	0x413
 3589 0adb E00D0000 		.4byte	0xde0
 3590 0adf 03       		.byte	0x3
 3591 0ae0 23       		.byte	0x23
 3592 0ae1 BC01     		.uleb128 0xbc
 3593 0ae3 00       		.byte	0x0
 3594 0ae4 09       		.uleb128 0x9
 3595 0ae5 10050000 		.4byte	.LASF264
 3596 0ae9 05       		.byte	0x5
 3597 0aea 9E02     		.2byte	0x29e
 3598 0aec F00A0000 		.4byte	0xaf0
 3599 0af0 0C       		.uleb128 0xc
ARM GAS  C:\Users\daniel01\AppData\Local\Temp\ccxoNE0f.s 			page 84


 3600 0af1 790A0000 		.4byte	.LASF265
 3601 0af5 08       		.byte	0x8
 3602 0af6 05       		.byte	0x5
 3603 0af7 9E02     		.2byte	0x29e
 3604 0af9 2B0B0000 		.4byte	0xb2b
 3605 0afd 0D       		.uleb128 0xd
 3606 0afe 620F0000 		.4byte	.LASF266
 3607 0b02 05       		.byte	0x5
 3608 0b03 1F04     		.2byte	0x41f
 3609 0b05 CE0D0000 		.4byte	0xdce
 3610 0b09 02       		.byte	0x2
 3611 0b0a 23       		.byte	0x23
 3612 0b0b 00       		.uleb128 0x0
 3613 0b0c 0D       		.uleb128 0xd
 3614 0b0d 7B010000 		.4byte	.LASF213
 3615 0b11 05       		.byte	0x5
 3616 0b12 2004     		.2byte	0x420
 3617 0b14 5C010000 		.4byte	0x15c
 3618 0b18 02       		.byte	0x2
 3619 0b19 23       		.byte	0x23
 3620 0b1a 04       		.uleb128 0x4
 3621 0b1b 0D       		.uleb128 0xd
 3622 0b1c C3130000 		.4byte	.LASF214
 3623 0b20 05       		.byte	0x5
 3624 0b21 2104     		.2byte	0x421
 3625 0b23 5C010000 		.4byte	0x15c
 3626 0b27 02       		.byte	0x2
 3627 0b28 23       		.byte	0x23
 3628 0b29 06       		.uleb128 0x6
 3629 0b2a 00       		.byte	0x0
 3630 0b2b 09       		.uleb128 0x9
 3631 0b2c 260E0000 		.4byte	.LASF267
 3632 0b30 05       		.byte	0x5
 3633 0b31 A002     		.2byte	0x2a0
 3634 0b33 370B0000 		.4byte	0xb37
 3635 0b37 05       		.uleb128 0x5
 3636 0b38 04       		.byte	0x4
 3637 0b39 3D0B0000 		.4byte	0xb3d
 3638 0b3d 06       		.uleb128 0x6
 3639 0b3e 01       		.byte	0x1
 3640 0b3f 4E0B0000 		.4byte	0xb4e
 3641 0b43 07       		.uleb128 0x7
 3642 0b44 BF000000 		.4byte	0xbf
 3643 0b48 07       		.uleb128 0x7
 3644 0b49 BF000000 		.4byte	0xbf
 3645 0b4d 00       		.byte	0x0
 3646 0b4e 09       		.uleb128 0x9
 3647 0b4f 1D0D0000 		.4byte	.LASF268
 3648 0b53 05       		.byte	0x5
 3649 0b54 A102     		.2byte	0x2a1
 3650 0b56 5A0B0000 		.4byte	0xb5a
 3651 0b5a 0C       		.uleb128 0xc
 3652 0b5b E20D0000 		.4byte	.LASF269
 3653 0b5f 34       		.byte	0x34
 3654 0b60 05       		.byte	0x5
 3655 0b61 A102     		.2byte	0x2a1
 3656 0b63 3A0C0000 		.4byte	0xc3a
ARM GAS  C:\Users\daniel01\AppData\Local\Temp\ccxoNE0f.s 			page 85


 3657 0b67 0D       		.uleb128 0xd
 3658 0b68 A90F0000 		.4byte	.LASF270
 3659 0b6c 05       		.byte	0x5
 3660 0b6d 2C04     		.2byte	0x42c
 3661 0b6f 67010000 		.4byte	0x167
 3662 0b73 02       		.byte	0x2
 3663 0b74 23       		.byte	0x23
 3664 0b75 00       		.uleb128 0x0
 3665 0b76 0D       		.uleb128 0xd
 3666 0b77 F7090000 		.4byte	.LASF225
 3667 0b7b 05       		.byte	0x5
 3668 0b7c 2D04     		.2byte	0x42d
 3669 0b7e E00D0000 		.4byte	0xde0
 3670 0b82 02       		.byte	0x2
 3671 0b83 23       		.byte	0x23
 3672 0b84 04       		.uleb128 0x4
 3673 0b85 0D       		.uleb128 0xd
 3674 0b86 81080000 		.4byte	.LASF271
 3675 0b8a 05       		.byte	0x5
 3676 0b8b 2E04     		.2byte	0x42e
 3677 0b8d 2B0B0000 		.4byte	0xb2b
 3678 0b91 02       		.byte	0x2
 3679 0b92 23       		.byte	0x23
 3680 0b93 08       		.uleb128 0x8
 3681 0b94 0D       		.uleb128 0xd
 3682 0b95 22140000 		.4byte	.LASF272
 3683 0b99 05       		.byte	0x5
 3684 0b9a 2F04     		.2byte	0x42f
 3685 0b9c BF000000 		.4byte	0xbf
 3686 0ba0 02       		.byte	0x2
 3687 0ba1 23       		.byte	0x23
 3688 0ba2 0C       		.uleb128 0xc
 3689 0ba3 0D       		.uleb128 0xd
 3690 0ba4 FF0C0000 		.4byte	.LASF203
 3691 0ba8 05       		.byte	0x5
 3692 0ba9 3004     		.2byte	0x430
 3693 0bab 0B0E0000 		.4byte	0xe0b
 3694 0baf 02       		.byte	0x2
 3695 0bb0 23       		.byte	0x23
 3696 0bb1 10       		.uleb128 0x10
 3697 0bb2 0D       		.uleb128 0xd
 3698 0bb3 2C090000 		.4byte	.LASF221
 3699 0bb7 05       		.byte	0x5
 3700 0bb8 3104     		.2byte	0x431
 3701 0bba 0B0E0000 		.4byte	0xe0b
 3702 0bbe 02       		.byte	0x2
 3703 0bbf 23       		.byte	0x23
 3704 0bc0 14       		.uleb128 0x14
 3705 0bc1 0D       		.uleb128 0xd
 3706 0bc2 04150000 		.4byte	.LASF273
 3707 0bc6 05       		.byte	0x5
 3708 0bc7 3204     		.2byte	0x432
 3709 0bc9 BF010000 		.4byte	0x1bf
 3710 0bcd 02       		.byte	0x2
 3711 0bce 23       		.byte	0x23
 3712 0bcf 18       		.uleb128 0x18
 3713 0bd0 0D       		.uleb128 0xd
ARM GAS  C:\Users\daniel01\AppData\Local\Temp\ccxoNE0f.s 			page 86


 3714 0bd1 0B060000 		.4byte	.LASF274
 3715 0bd5 05       		.byte	0x5
 3716 0bd6 3304     		.2byte	0x433
 3717 0bd8 BF010000 		.4byte	0x1bf
 3718 0bdc 02       		.byte	0x2
 3719 0bdd 23       		.byte	0x23
 3720 0bde 1C       		.uleb128 0x1c
 3721 0bdf 0E       		.uleb128 0xe
 3722 0be0 446C7900 		.ascii	"Dly\000"
 3723 0be4 05       		.byte	0x5
 3724 0be5 3404     		.2byte	0x434
 3725 0be7 BF010000 		.4byte	0x1bf
 3726 0beb 02       		.byte	0x2
 3727 0bec 23       		.byte	0x23
 3728 0bed 20       		.uleb128 0x20
 3729 0bee 0D       		.uleb128 0xd
 3730 0bef A70A0000 		.4byte	.LASF275
 3731 0bf3 05       		.byte	0x5
 3732 0bf4 3504     		.2byte	0x435
 3733 0bf6 BF010000 		.4byte	0x1bf
 3734 0bfa 02       		.byte	0x2
 3735 0bfb 23       		.byte	0x23
 3736 0bfc 24       		.uleb128 0x24
 3737 0bfd 0E       		.uleb128 0xe
 3738 0bfe 4F707400 		.ascii	"Opt\000"
 3739 0c02 05       		.byte	0x5
 3740 0c03 3604     		.2byte	0x436
 3741 0c05 72010000 		.4byte	0x172
 3742 0c09 02       		.byte	0x2
 3743 0c0a 23       		.byte	0x23
 3744 0c0b 28       		.uleb128 0x28
 3745 0c0c 0D       		.uleb128 0xd
 3746 0c0d 13030000 		.4byte	.LASF276
 3747 0c11 05       		.byte	0x5
 3748 0c12 3704     		.2byte	0x437
 3749 0c14 A9010000 		.4byte	0x1a9
 3750 0c18 02       		.byte	0x2
 3751 0c19 23       		.byte	0x23
 3752 0c1a 2A       		.uleb128 0x2a
 3753 0c1b 0D       		.uleb128 0xd
 3754 0c1c DC020000 		.4byte	.LASF261
 3755 0c20 05       		.byte	0x5
 3756 0c21 3904     		.2byte	0x439
 3757 0c23 0B0E0000 		.4byte	0xe0b
 3758 0c27 02       		.byte	0x2
 3759 0c28 23       		.byte	0x23
 3760 0c29 2C       		.uleb128 0x2c
 3761 0c2a 0D       		.uleb128 0xd
 3762 0c2b F4020000 		.4byte	.LASF262
 3763 0c2f 05       		.byte	0x5
 3764 0c30 3A04     		.2byte	0x43a
 3765 0c32 0B0E0000 		.4byte	0xe0b
 3766 0c36 02       		.byte	0x2
 3767 0c37 23       		.byte	0x23
 3768 0c38 30       		.uleb128 0x30
 3769 0c39 00       		.byte	0x0
 3770 0c3a 09       		.uleb128 0x9
ARM GAS  C:\Users\daniel01\AppData\Local\Temp\ccxoNE0f.s 			page 87


 3771 0c3b 4E060000 		.4byte	.LASF277
 3772 0c3f 05       		.byte	0x5
 3773 0c40 A202     		.2byte	0x2a2
 3774 0c42 460C0000 		.4byte	0xc46
 3775 0c46 0C       		.uleb128 0xc
 3776 0c47 A9070000 		.4byte	.LASF278
 3777 0c4b 08       		.byte	0x8
 3778 0c4c 05       		.byte	0x5
 3779 0c4d A202     		.2byte	0x2a2
 3780 0c4f 810C0000 		.4byte	0xc81
 3781 0c53 0D       		.uleb128 0xd
 3782 0c54 620F0000 		.4byte	.LASF266
 3783 0c58 05       		.byte	0x5
 3784 0c59 4104     		.2byte	0x441
 3785 0c5b 0B0E0000 		.4byte	0xe0b
 3786 0c5f 02       		.byte	0x2
 3787 0c60 23       		.byte	0x23
 3788 0c61 00       		.uleb128 0x0
 3789 0c62 0D       		.uleb128 0xd
 3790 0c63 7B010000 		.4byte	.LASF213
 3791 0c67 05       		.byte	0x5
 3792 0c68 4204     		.2byte	0x442
 3793 0c6a 5C010000 		.4byte	0x15c
 3794 0c6e 02       		.byte	0x2
 3795 0c6f 23       		.byte	0x23
 3796 0c70 04       		.uleb128 0x4
 3797 0c71 0D       		.uleb128 0xd
 3798 0c72 C3130000 		.4byte	.LASF214
 3799 0c76 05       		.byte	0x5
 3800 0c77 4304     		.2byte	0x443
 3801 0c79 5C010000 		.4byte	0x15c
 3802 0c7d 02       		.byte	0x2
 3803 0c7e 23       		.byte	0x23
 3804 0c7f 06       		.uleb128 0x6
 3805 0c80 00       		.byte	0x0
 3806 0c81 09       		.uleb128 0x9
 3807 0c82 C6050000 		.4byte	.LASF279
 3808 0c86 05       		.byte	0x5
 3809 0c87 A502     		.2byte	0x2a5
 3810 0c89 8D0C0000 		.4byte	0xc8d
 3811 0c8d 0C       		.uleb128 0xc
 3812 0c8e 74120000 		.4byte	.LASF280
 3813 0c92 20       		.byte	0x20
 3814 0c93 05       		.byte	0x5
 3815 0c94 A502     		.2byte	0x2a5
 3816 0c96 130D0000 		.4byte	0xd13
 3817 0c9a 0D       		.uleb128 0xd
 3818 0c9b 2C090000 		.4byte	.LASF221
 3819 0c9f 05       		.byte	0x5
 3820 0ca0 DE02     		.2byte	0x2de
 3821 0ca2 D40D0000 		.4byte	0xdd4
 3822 0ca6 02       		.byte	0x2
 3823 0ca7 23       		.byte	0x23
 3824 0ca8 00       		.uleb128 0x0
 3825 0ca9 0D       		.uleb128 0xd
 3826 0caa FF0C0000 		.4byte	.LASF203
 3827 0cae 05       		.byte	0x5
ARM GAS  C:\Users\daniel01\AppData\Local\Temp\ccxoNE0f.s 			page 88


 3828 0caf DF02     		.2byte	0x2df
 3829 0cb1 D40D0000 		.4byte	0xdd4
 3830 0cb5 02       		.byte	0x2
 3831 0cb6 23       		.byte	0x23
 3832 0cb7 04       		.uleb128 0x4
 3833 0cb8 0D       		.uleb128 0xd
 3834 0cb9 BF0A0000 		.4byte	.LASF281
 3835 0cbd 05       		.byte	0x5
 3836 0cbe E002     		.2byte	0x2e0
 3837 0cc0 CE0D0000 		.4byte	0xdce
 3838 0cc4 02       		.byte	0x2
 3839 0cc5 23       		.byte	0x23
 3840 0cc6 08       		.uleb128 0x8
 3841 0cc7 0D       		.uleb128 0xd
 3842 0cc8 1B130000 		.4byte	.LASF282
 3843 0ccc 05       		.byte	0x5
 3844 0ccd E102     		.2byte	0x2e1
 3845 0ccf DA0D0000 		.4byte	0xdda
 3846 0cd3 02       		.byte	0x2
 3847 0cd4 23       		.byte	0x23
 3848 0cd5 0C       		.uleb128 0xc
 3849 0cd6 0D       		.uleb128 0xd
 3850 0cd7 800C0000 		.4byte	.LASF283
 3851 0cdb 05       		.byte	0x5
 3852 0cdc E202     		.2byte	0x2e2
 3853 0cde DA0D0000 		.4byte	0xdda
 3854 0ce2 02       		.byte	0x2
 3855 0ce3 23       		.byte	0x23
 3856 0ce4 10       		.uleb128 0x10
 3857 0ce5 0D       		.uleb128 0xd
 3858 0ce6 35040000 		.4byte	.LASF284
 3859 0cea 05       		.byte	0x5
 3860 0ceb E302     		.2byte	0x2e3
 3861 0ced BF000000 		.4byte	0xbf
 3862 0cf1 02       		.byte	0x2
 3863 0cf2 23       		.byte	0x23
 3864 0cf3 14       		.uleb128 0x14
 3865 0cf4 0D       		.uleb128 0xd
 3866 0cf5 D70D0000 		.4byte	.LASF285
 3867 0cf9 05       		.byte	0x5
 3868 0cfa E402     		.2byte	0x2e4
 3869 0cfc 46010000 		.4byte	0x146
 3870 0d00 02       		.byte	0x2
 3871 0d01 23       		.byte	0x23
 3872 0d02 18       		.uleb128 0x18
 3873 0d03 0D       		.uleb128 0xd
 3874 0d04 970D0000 		.4byte	.LASF286
 3875 0d08 05       		.byte	0x5
 3876 0d09 E502     		.2byte	0x2e5
 3877 0d0b F9000000 		.4byte	0xf9
 3878 0d0f 02       		.byte	0x2
 3879 0d10 23       		.byte	0x23
 3880 0d11 1C       		.uleb128 0x1c
 3881 0d12 00       		.byte	0x0
 3882 0d13 09       		.uleb128 0x9
 3883 0d14 D4110000 		.4byte	.LASF287
 3884 0d18 05       		.byte	0x5
ARM GAS  C:\Users\daniel01\AppData\Local\Temp\ccxoNE0f.s 			page 89


 3885 0d19 A602     		.2byte	0x2a6
 3886 0d1b 1F0D0000 		.4byte	0xd1f
 3887 0d1f 0C       		.uleb128 0xc
 3888 0d20 D1130000 		.4byte	.LASF288
 3889 0d24 0C       		.byte	0xc
 3890 0d25 05       		.byte	0x5
 3891 0d26 A602     		.2byte	0x2a6
 3892 0d28 5A0D0000 		.4byte	0xd5a
 3893 0d2c 0D       		.uleb128 0xd
 3894 0d2d 060F0000 		.4byte	.LASF289
 3895 0d31 05       		.byte	0x5
 3896 0d32 EA02     		.2byte	0x2ea
 3897 0d34 D40D0000 		.4byte	0xdd4
 3898 0d38 02       		.byte	0x2
 3899 0d39 23       		.byte	0x23
 3900 0d3a 00       		.uleb128 0x0
 3901 0d3b 0D       		.uleb128 0xd
 3902 0d3c C9030000 		.4byte	.LASF290
 3903 0d40 05       		.byte	0x5
 3904 0d41 EB02     		.2byte	0x2eb
 3905 0d43 D40D0000 		.4byte	0xdd4
 3906 0d47 02       		.byte	0x2
 3907 0d48 23       		.byte	0x23
 3908 0d49 04       		.uleb128 0x4
 3909 0d4a 0D       		.uleb128 0xd
 3910 0d4b 7B010000 		.4byte	.LASF213
 3911 0d4f 05       		.byte	0x5
 3912 0d50 EC02     		.2byte	0x2ec
 3913 0d52 5C010000 		.4byte	0x15c
 3914 0d56 02       		.byte	0x2
 3915 0d57 23       		.byte	0x23
 3916 0d58 08       		.uleb128 0x8
 3917 0d59 00       		.byte	0x0
 3918 0d5a 09       		.uleb128 0x9
 3919 0d5b 960E0000 		.4byte	.LASF291
 3920 0d5f 05       		.byte	0x5
 3921 0d60 A702     		.2byte	0x2a7
 3922 0d62 660D0000 		.4byte	0xd66
 3923 0d66 0C       		.uleb128 0xc
 3924 0d67 3F040000 		.4byte	.LASF292
 3925 0d6b 20       		.byte	0x20
 3926 0d6c 05       		.byte	0x5
 3927 0d6d A702     		.2byte	0x2a7
 3928 0d6f CE0D0000 		.4byte	0xdce
 3929 0d73 0D       		.uleb128 0xd
 3930 0d74 A90F0000 		.4byte	.LASF270
 3931 0d78 05       		.byte	0x5
 3932 0d79 0003     		.2byte	0x300
 3933 0d7b 67010000 		.4byte	0x167
 3934 0d7f 02       		.byte	0x2
 3935 0d80 23       		.byte	0x23
 3936 0d81 00       		.uleb128 0x0
 3937 0d82 0D       		.uleb128 0xd
 3938 0d83 F7090000 		.4byte	.LASF225
 3939 0d87 05       		.byte	0x5
 3940 0d88 0103     		.2byte	0x301
 3941 0d8a E00D0000 		.4byte	0xde0
ARM GAS  C:\Users\daniel01\AppData\Local\Temp\ccxoNE0f.s 			page 90


 3942 0d8e 02       		.byte	0x2
 3943 0d8f 23       		.byte	0x23
 3944 0d90 04       		.uleb128 0x4
 3945 0d91 0D       		.uleb128 0xd
 3946 0d92 C60E0000 		.4byte	.LASF293
 3947 0d96 05       		.byte	0x5
 3948 0d97 0203     		.2byte	0x302
 3949 0d99 130D0000 		.4byte	0xd13
 3950 0d9d 02       		.byte	0x2
 3951 0d9e 23       		.byte	0x23
 3952 0d9f 08       		.uleb128 0x8
 3953 0da0 0D       		.uleb128 0xd
 3954 0da1 DC020000 		.4byte	.LASF261
 3955 0da5 05       		.byte	0x5
 3956 0da6 0403     		.2byte	0x304
 3957 0da8 BF000000 		.4byte	0xbf
 3958 0dac 02       		.byte	0x2
 3959 0dad 23       		.byte	0x23
 3960 0dae 14       		.uleb128 0x14
 3961 0daf 0D       		.uleb128 0xd
 3962 0db0 F4020000 		.4byte	.LASF262
 3963 0db4 05       		.byte	0x5
 3964 0db5 0503     		.2byte	0x305
 3965 0db7 BF000000 		.4byte	0xbf
 3966 0dbb 02       		.byte	0x2
 3967 0dbc 23       		.byte	0x23
 3968 0dbd 18       		.uleb128 0x18
 3969 0dbe 0D       		.uleb128 0xd
 3970 0dbf 3F110000 		.4byte	.LASF263
 3971 0dc3 05       		.byte	0x5
 3972 0dc4 0603     		.2byte	0x306
 3973 0dc6 E00D0000 		.4byte	0xde0
 3974 0dca 02       		.byte	0x2
 3975 0dcb 23       		.byte	0x23
 3976 0dcc 1C       		.uleb128 0x1c
 3977 0dcd 00       		.byte	0x0
 3978 0dce 05       		.uleb128 0x5
 3979 0dcf 04       		.byte	0x4
 3980 0dd0 BC070000 		.4byte	0x7bc
 3981 0dd4 05       		.uleb128 0x5
 3982 0dd5 04       		.byte	0x4
 3983 0dd6 810C0000 		.4byte	0xc81
 3984 0dda 05       		.uleb128 0x5
 3985 0ddb 04       		.byte	0x4
 3986 0ddc 5A0D0000 		.4byte	0xd5a
 3987 0de0 05       		.uleb128 0x5
 3988 0de1 04       		.byte	0x4
 3989 0de2 29000000 		.4byte	0x29
 3990 0de6 05       		.uleb128 0x5
 3991 0de7 04       		.byte	0x4
 3992 0de8 F5060000 		.4byte	0x6f5
 3993 0dec 05       		.uleb128 0x5
 3994 0ded 04       		.byte	0x4
 3995 0dee CC000000 		.4byte	0xcc
 3996 0df2 05       		.uleb128 0x5
 3997 0df3 04       		.byte	0x4
 3998 0df4 E40A0000 		.4byte	0xae4
ARM GAS  C:\Users\daniel01\AppData\Local\Temp\ccxoNE0f.s 			page 91


 3999 0df8 0F       		.uleb128 0xf
 4000 0df9 93010000 		.4byte	0x193
 4001 0dfd 080E0000 		.4byte	0xe08
 4002 0e01 10       		.uleb128 0x10
 4003 0e02 080E0000 		.4byte	0xe08
 4004 0e06 00       		.byte	0x0
 4005 0e07 00       		.byte	0x0
 4006 0e08 11       		.uleb128 0x11
 4007 0e09 04       		.byte	0x4
 4008 0e0a 07       		.byte	0x7
 4009 0e0b 05       		.uleb128 0x5
 4010 0e0c 04       		.byte	0x4
 4011 0e0d 4E0B0000 		.4byte	0xb4e
 4012 0e11 12       		.uleb128 0x12
 4013 0e12 01       		.byte	0x1
 4014 0e13 13090000 		.4byte	.LASF310
 4015 0e17 01       		.byte	0x1
 4016 0e18 68       		.byte	0x68
 4017 0e19 01       		.byte	0x1
 4018 0e1a 00000000 		.4byte	.LFB0
 4019 0e1e 0E010000 		.4byte	.LFE0
 4020 0e22 00000000 		.4byte	.LLST0
 4021 0e26 A90E0000 		.4byte	0xea9
 4022 0e2a 13       		.uleb128 0x13
 4023 0e2b 0A150000 		.4byte	.LASF294
 4024 0e2f 01       		.byte	0x1
 4025 0e30 68       		.byte	0x68
 4026 0e31 0B0E0000 		.4byte	0xe0b
 4027 0e35 02       		.byte	0x2
 4028 0e36 91       		.byte	0x91
 4029 0e37 6C       		.sleb128 -20
 4030 0e38 13       		.uleb128 0x13
 4031 0e39 B1080000 		.4byte	.LASF295
 4032 0e3d 01       		.byte	0x1
 4033 0e3e 69       		.byte	0x69
 4034 0e3f E00D0000 		.4byte	0xde0
 4035 0e43 02       		.byte	0x2
 4036 0e44 91       		.byte	0x91
 4037 0e45 68       		.sleb128 -24
 4038 0e46 14       		.uleb128 0x14
 4039 0e47 646C7900 		.ascii	"dly\000"
 4040 0e4b 01       		.byte	0x1
 4041 0e4c 6A       		.byte	0x6a
 4042 0e4d BF010000 		.4byte	0x1bf
 4043 0e51 02       		.byte	0x2
 4044 0e52 91       		.byte	0x91
 4045 0e53 64       		.sleb128 -28
 4046 0e54 13       		.uleb128 0x13
 4047 0e55 FD110000 		.4byte	.LASF296
 4048 0e59 01       		.byte	0x1
 4049 0e5a 6B       		.byte	0x6b
 4050 0e5b BF010000 		.4byte	0x1bf
 4051 0e5f 02       		.byte	0x2
 4052 0e60 91       		.byte	0x91
 4053 0e61 60       		.sleb128 -32
 4054 0e62 14       		.uleb128 0x14
 4055 0e63 6F707400 		.ascii	"opt\000"
ARM GAS  C:\Users\daniel01\AppData\Local\Temp\ccxoNE0f.s 			page 92


 4056 0e67 01       		.byte	0x1
 4057 0e68 6C       		.byte	0x6c
 4058 0e69 72010000 		.4byte	0x172
 4059 0e6d 02       		.byte	0x2
 4060 0e6e 91       		.byte	0x91
 4061 0e6f 00       		.sleb128 0
 4062 0e70 13       		.uleb128 0x13
 4063 0e71 38060000 		.4byte	.LASF297
 4064 0e75 01       		.byte	0x1
 4065 0e76 6D       		.byte	0x6d
 4066 0e77 2B0B0000 		.4byte	0xb2b
 4067 0e7b 02       		.byte	0x2
 4068 0e7c 91       		.byte	0x91
 4069 0e7d 04       		.sleb128 4
 4070 0e7e 13       		.uleb128 0x13
 4071 0e7f 56020000 		.4byte	.LASF298
 4072 0e83 01       		.byte	0x1
 4073 0e84 6E       		.byte	0x6e
 4074 0e85 BF000000 		.4byte	0xbf
 4075 0e89 02       		.byte	0x2
 4076 0e8a 91       		.byte	0x91
 4077 0e8b 08       		.sleb128 8
 4078 0e8c 13       		.uleb128 0x13
 4079 0e8d 0D090000 		.4byte	.LASF299
 4080 0e91 01       		.byte	0x1
 4081 0e92 6F       		.byte	0x6f
 4082 0e93 A90E0000 		.4byte	0xea9
 4083 0e97 02       		.byte	0x2
 4084 0e98 91       		.byte	0x91
 4085 0e99 0C       		.sleb128 12
 4086 0e9a 15       		.uleb128 0x15
 4087 0e9b 38050000 		.4byte	.LASF300
 4088 0e9f 01       		.byte	0x1
 4089 0ea0 71       		.byte	0x71
 4090 0ea1 E2000000 		.4byte	0xe2
 4091 0ea5 02       		.byte	0x2
 4092 0ea6 91       		.byte	0x91
 4093 0ea7 74       		.sleb128 -12
 4094 0ea8 00       		.byte	0x0
 4095 0ea9 05       		.uleb128 0x5
 4096 0eaa 04       		.byte	0x4
 4097 0eab E9060000 		.4byte	0x6e9
 4098 0eaf 16       		.uleb128 0x16
 4099 0eb0 01       		.byte	0x1
 4100 0eb1 53100000 		.4byte	.LASF302
 4101 0eb5 01       		.byte	0x1
 4102 0eb6 D4       		.byte	0xd4
 4103 0eb7 01       		.byte	0x1
 4104 0eb8 3B000000 		.4byte	0x3b
 4105 0ebc 00000000 		.4byte	.LFB1
 4106 0ec0 08010000 		.4byte	.LFE1
 4107 0ec4 37000000 		.4byte	.LLST1
 4108 0ec8 050F0000 		.4byte	0xf05
 4109 0ecc 13       		.uleb128 0x13
 4110 0ecd 0A150000 		.4byte	.LASF294
 4111 0ed1 01       		.byte	0x1
 4112 0ed2 D4       		.byte	0xd4
ARM GAS  C:\Users\daniel01\AppData\Local\Temp\ccxoNE0f.s 			page 93


 4113 0ed3 0B0E0000 		.4byte	0xe0b
 4114 0ed7 02       		.byte	0x2
 4115 0ed8 91       		.byte	0x91
 4116 0ed9 6C       		.sleb128 -20
 4117 0eda 13       		.uleb128 0x13
 4118 0edb 0D090000 		.4byte	.LASF299
 4119 0edf 01       		.byte	0x1
 4120 0ee0 D5       		.byte	0xd5
 4121 0ee1 A90E0000 		.4byte	0xea9
 4122 0ee5 02       		.byte	0x2
 4123 0ee6 91       		.byte	0x91
 4124 0ee7 68       		.sleb128 -24
 4125 0ee8 17       		.uleb128 0x17
 4126 0ee9 65727200 		.ascii	"err\000"
 4127 0eed 01       		.byte	0x1
 4128 0eee D7       		.byte	0xd7
 4129 0eef E9060000 		.4byte	0x6e9
 4130 0ef3 02       		.byte	0x2
 4131 0ef4 91       		.byte	0x91
 4132 0ef5 74       		.sleb128 -12
 4133 0ef6 15       		.uleb128 0x15
 4134 0ef7 0E0F0000 		.4byte	.LASF301
 4135 0efb 01       		.byte	0x1
 4136 0efc D8       		.byte	0xd8
 4137 0efd 3B000000 		.4byte	0x3b
 4138 0f01 02       		.byte	0x2
 4139 0f02 91       		.byte	0x91
 4140 0f03 77       		.sleb128 -9
 4141 0f04 00       		.byte	0x0
 4142 0f05 18       		.uleb128 0x18
 4143 0f06 01       		.byte	0x1
 4144 0f07 ED140000 		.4byte	.LASF303
 4145 0f0b 01       		.byte	0x1
 4146 0f0c 3701     		.2byte	0x137
 4147 0f0e 01       		.byte	0x1
 4148 0f0f BF010000 		.4byte	0x1bf
 4149 0f13 00000000 		.4byte	.LFB2
 4150 0f17 2A010000 		.4byte	.LFE2
 4151 0f1b 6E000000 		.4byte	.LLST2
 4152 0f1f 600F0000 		.4byte	0xf60
 4153 0f23 19       		.uleb128 0x19
 4154 0f24 0A150000 		.4byte	.LASF294
 4155 0f28 01       		.byte	0x1
 4156 0f29 3701     		.2byte	0x137
 4157 0f2b 0B0E0000 		.4byte	0xe0b
 4158 0f2f 02       		.byte	0x2
 4159 0f30 91       		.byte	0x91
 4160 0f31 6C       		.sleb128 -20
 4161 0f32 19       		.uleb128 0x19
 4162 0f33 0D090000 		.4byte	.LASF299
 4163 0f37 01       		.byte	0x1
 4164 0f38 3801     		.2byte	0x138
 4165 0f3a A90E0000 		.4byte	0xea9
 4166 0f3e 02       		.byte	0x2
 4167 0f3f 91       		.byte	0x91
 4168 0f40 68       		.sleb128 -24
 4169 0f41 1A       		.uleb128 0x1a
ARM GAS  C:\Users\daniel01\AppData\Local\Temp\ccxoNE0f.s 			page 94


 4170 0f42 340D0000 		.4byte	.LASF304
 4171 0f46 01       		.byte	0x1
 4172 0f47 3A01     		.2byte	0x13a
 4173 0f49 BF010000 		.4byte	0x1bf
 4174 0f4d 02       		.byte	0x2
 4175 0f4e 91       		.byte	0x91
 4176 0f4f 74       		.sleb128 -12
 4177 0f50 1B       		.uleb128 0x1b
 4178 0f51 65727200 		.ascii	"err\000"
 4179 0f55 01       		.byte	0x1
 4180 0f56 3B01     		.2byte	0x13b
 4181 0f58 E9060000 		.4byte	0x6e9
 4182 0f5c 02       		.byte	0x2
 4183 0f5d 91       		.byte	0x91
 4184 0f5e 72       		.sleb128 -14
 4185 0f5f 00       		.byte	0x0
 4186 0f60 18       		.uleb128 0x18
 4187 0f61 01       		.byte	0x1
 4188 0f62 2A040000 		.4byte	.LASF305
 4189 0f66 01       		.byte	0x1
 4190 0f67 A501     		.2byte	0x1a5
 4191 0f69 01       		.byte	0x1
 4192 0f6a 3B000000 		.4byte	0x3b
 4193 0f6e 00000000 		.4byte	.LFB3
 4194 0f72 F0000000 		.4byte	.LFE3
 4195 0f76 A5000000 		.4byte	.LLST3
 4196 0f7a BB0F0000 		.4byte	0xfbb
 4197 0f7e 19       		.uleb128 0x19
 4198 0f7f 0A150000 		.4byte	.LASF294
 4199 0f83 01       		.byte	0x1
 4200 0f84 A501     		.2byte	0x1a5
 4201 0f86 0B0E0000 		.4byte	0xe0b
 4202 0f8a 02       		.byte	0x2
 4203 0f8b 91       		.byte	0x91
 4204 0f8c 6C       		.sleb128 -20
 4205 0f8d 19       		.uleb128 0x19
 4206 0f8e 0D090000 		.4byte	.LASF299
 4207 0f92 01       		.byte	0x1
 4208 0f93 A601     		.2byte	0x1a6
 4209 0f95 A90E0000 		.4byte	0xea9
 4210 0f99 02       		.byte	0x2
 4211 0f9a 91       		.byte	0x91
 4212 0f9b 68       		.sleb128 -24
 4213 0f9c 1B       		.uleb128 0x1b
 4214 0f9d 65727200 		.ascii	"err\000"
 4215 0fa1 01       		.byte	0x1
 4216 0fa2 A801     		.2byte	0x1a8
 4217 0fa4 E9060000 		.4byte	0x6e9
 4218 0fa8 02       		.byte	0x2
 4219 0fa9 91       		.byte	0x91
 4220 0faa 74       		.sleb128 -12
 4221 0fab 1A       		.uleb128 0x1a
 4222 0fac 0E0F0000 		.4byte	.LASF301
 4223 0fb0 01       		.byte	0x1
 4224 0fb1 A901     		.2byte	0x1a9
 4225 0fb3 3B000000 		.4byte	0x3b
 4226 0fb7 02       		.byte	0x2
ARM GAS  C:\Users\daniel01\AppData\Local\Temp\ccxoNE0f.s 			page 95


 4227 0fb8 91       		.byte	0x91
 4228 0fb9 77       		.sleb128 -9
 4229 0fba 00       		.byte	0x0
 4230 0fbb 18       		.uleb128 0x18
 4231 0fbc 01       		.byte	0x1
 4232 0fbd 66120000 		.4byte	.LASF306
 4233 0fc1 01       		.byte	0x1
 4234 0fc2 0402     		.2byte	0x204
 4235 0fc4 01       		.byte	0x1
 4236 0fc5 A9010000 		.4byte	0x1a9
 4237 0fc9 00000000 		.4byte	.LFB4
 4238 0fcd 7E000000 		.4byte	.LFE4
 4239 0fd1 DC000000 		.4byte	.LLST4
 4240 0fd5 16100000 		.4byte	0x1016
 4241 0fd9 19       		.uleb128 0x19
 4242 0fda 0A150000 		.4byte	.LASF294
 4243 0fde 01       		.byte	0x1
 4244 0fdf 0402     		.2byte	0x204
 4245 0fe1 0B0E0000 		.4byte	0xe0b
 4246 0fe5 02       		.byte	0x2
 4247 0fe6 91       		.byte	0x91
 4248 0fe7 6C       		.sleb128 -20
 4249 0fe8 19       		.uleb128 0x19
 4250 0fe9 0D090000 		.4byte	.LASF299
 4251 0fed 01       		.byte	0x1
 4252 0fee 0502     		.2byte	0x205
 4253 0ff0 A90E0000 		.4byte	0xea9
 4254 0ff4 02       		.byte	0x2
 4255 0ff5 91       		.byte	0x91
 4256 0ff6 68       		.sleb128 -24
 4257 0ff7 1A       		.uleb128 0x1a
 4258 0ff8 6C110000 		.4byte	.LASF307
 4259 0ffc 01       		.byte	0x1
 4260 0ffd 0702     		.2byte	0x207
 4261 0fff A9010000 		.4byte	0x1a9
 4262 1003 02       		.byte	0x2
 4263 1004 91       		.byte	0x91
 4264 1005 73       		.sleb128 -13
 4265 1006 1A       		.uleb128 0x1a
 4266 1007 38050000 		.4byte	.LASF300
 4267 100b 01       		.byte	0x1
 4268 100c 0802     		.2byte	0x208
 4269 100e E2000000 		.4byte	0xe2
 4270 1012 02       		.byte	0x2
 4271 1013 91       		.byte	0x91
 4272 1014 74       		.sleb128 -12
 4273 1015 00       		.byte	0x0
 4274 1016 18       		.uleb128 0x18
 4275 1017 01       		.byte	0x1
 4276 1018 D9040000 		.4byte	.LASF308
 4277 101c 01       		.byte	0x1
 4278 101d 5F02     		.2byte	0x25f
 4279 101f 01       		.byte	0x1
 4280 1020 3B000000 		.4byte	0x3b
 4281 1024 00000000 		.4byte	.LFB5
 4282 1028 52010000 		.4byte	.LFE5
 4283 102c 13010000 		.4byte	.LLST5
ARM GAS  C:\Users\daniel01\AppData\Local\Temp\ccxoNE0f.s 			page 96


 4284 1030 9E100000 		.4byte	0x109e
 4285 1034 19       		.uleb128 0x19
 4286 1035 0A150000 		.4byte	.LASF294
 4287 1039 01       		.byte	0x1
 4288 103a 5F02     		.2byte	0x25f
 4289 103c 0B0E0000 		.4byte	0xe0b
 4290 1040 02       		.byte	0x2
 4291 1041 91       		.byte	0x91
 4292 1042 64       		.sleb128 -28
 4293 1043 1C       		.uleb128 0x1c
 4294 1044 6F707400 		.ascii	"opt\000"
 4295 1048 01       		.byte	0x1
 4296 1049 6002     		.2byte	0x260
 4297 104b 72010000 		.4byte	0x172
 4298 104f 02       		.byte	0x2
 4299 1050 91       		.byte	0x91
 4300 1051 62       		.sleb128 -30
 4301 1052 19       		.uleb128 0x19
 4302 1053 56020000 		.4byte	.LASF298
 4303 1057 01       		.byte	0x1
 4304 1058 6102     		.2byte	0x261
 4305 105a BF000000 		.4byte	0xbf
 4306 105e 02       		.byte	0x2
 4307 105f 91       		.byte	0x91
 4308 1060 5C       		.sleb128 -36
 4309 1061 19       		.uleb128 0x19
 4310 1062 0D090000 		.4byte	.LASF299
 4311 1066 01       		.byte	0x1
 4312 1067 6202     		.2byte	0x262
 4313 1069 A90E0000 		.4byte	0xea9
 4314 106d 02       		.byte	0x2
 4315 106e 91       		.byte	0x91
 4316 106f 58       		.sleb128 -40
 4317 1070 1A       		.uleb128 0x1a
 4318 1071 88060000 		.4byte	.LASF309
 4319 1075 01       		.byte	0x1
 4320 1076 6402     		.2byte	0x264
 4321 1078 2B0B0000 		.4byte	0xb2b
 4322 107c 02       		.byte	0x2
 4323 107d 91       		.byte	0x91
 4324 107e 70       		.sleb128 -16
 4325 107f 1B       		.uleb128 0x1b
 4326 1080 65727200 		.ascii	"err\000"
 4327 1084 01       		.byte	0x1
 4328 1085 6502     		.2byte	0x265
 4329 1087 E9060000 		.4byte	0x6e9
 4330 108b 02       		.byte	0x2
 4331 108c 91       		.byte	0x91
 4332 108d 6E       		.sleb128 -18
 4333 108e 1A       		.uleb128 0x1a
 4334 108f 0E0F0000 		.4byte	.LASF301
 4335 1093 01       		.byte	0x1
 4336 1094 6602     		.2byte	0x266
 4337 1096 3B000000 		.4byte	0x3b
 4338 109a 02       		.byte	0x2
 4339 109b 91       		.byte	0x91
 4340 109c 77       		.sleb128 -9
ARM GAS  C:\Users\daniel01\AppData\Local\Temp\ccxoNE0f.s 			page 97


 4341 109d 00       		.byte	0x0
 4342 109e 1D       		.uleb128 0x1d
 4343 109f 01       		.byte	0x1
 4344 10a0 4B040000 		.4byte	.LASF311
 4345 10a4 01       		.byte	0x1
 4346 10a5 D002     		.2byte	0x2d0
 4347 10a7 01       		.byte	0x1
 4348 10a8 00000000 		.4byte	.LFB6
 4349 10ac 7C000000 		.4byte	.LFE6
 4350 10b0 4A010000 		.4byte	.LLST6
 4351 10b4 C8100000 		.4byte	0x10c8
 4352 10b8 19       		.uleb128 0x19
 4353 10b9 0A150000 		.4byte	.LASF294
 4354 10bd 01       		.byte	0x1
 4355 10be D002     		.2byte	0x2d0
 4356 10c0 0B0E0000 		.4byte	0xe0b
 4357 10c4 02       		.byte	0x2
 4358 10c5 91       		.byte	0x91
 4359 10c6 74       		.sleb128 -12
 4360 10c7 00       		.byte	0x0
 4361 10c8 1D       		.uleb128 0x1d
 4362 10c9 01       		.byte	0x1
 4363 10ca AE0A0000 		.4byte	.LASF312
 4364 10ce 01       		.byte	0x1
 4365 10cf F102     		.2byte	0x2f1
 4366 10d1 01       		.byte	0x1
 4367 10d2 00000000 		.4byte	.LFB7
 4368 10d6 5A000000 		.4byte	.LFE7
 4369 10da 81010000 		.4byte	.LLST7
 4370 10de F2100000 		.4byte	0x10f2
 4371 10e2 19       		.uleb128 0x19
 4372 10e3 0A150000 		.4byte	.LASF294
 4373 10e7 01       		.byte	0x1
 4374 10e8 F102     		.2byte	0x2f1
 4375 10ea 0B0E0000 		.4byte	0xe0b
 4376 10ee 02       		.byte	0x2
 4377 10ef 91       		.byte	0x91
 4378 10f0 74       		.sleb128 -12
 4379 10f1 00       		.byte	0x0
 4380 10f2 1D       		.uleb128 0x1d
 4381 10f3 01       		.byte	0x1
 4382 10f4 0A100000 		.4byte	.LASF313
 4383 10f8 01       		.byte	0x1
 4384 10f9 FF02     		.2byte	0x2ff
 4385 10fb 01       		.byte	0x1
 4386 10fc 00000000 		.4byte	.LFB8
 4387 1100 7C000000 		.4byte	.LFE8
 4388 1104 B8010000 		.4byte	.LLST8
 4389 1108 3A110000 		.4byte	0x113a
 4390 110c 19       		.uleb128 0x19
 4391 110d 0A150000 		.4byte	.LASF294
 4392 1111 01       		.byte	0x1
 4393 1112 FF02     		.2byte	0x2ff
 4394 1114 0B0E0000 		.4byte	0xe0b
 4395 1118 02       		.byte	0x2
 4396 1119 91       		.byte	0x91
 4397 111a 6C       		.sleb128 -20
ARM GAS  C:\Users\daniel01\AppData\Local\Temp\ccxoNE0f.s 			page 98


 4398 111b 1A       		.uleb128 0x1a
 4399 111c 03080000 		.4byte	.LASF314
 4400 1120 01       		.byte	0x1
 4401 1121 0103     		.2byte	0x301
 4402 1123 0B0E0000 		.4byte	0xe0b
 4403 1127 02       		.byte	0x2
 4404 1128 91       		.byte	0x91
 4405 1129 70       		.sleb128 -16
 4406 112a 1A       		.uleb128 0x1a
 4407 112b 81090000 		.4byte	.LASF315
 4408 112f 01       		.byte	0x1
 4409 1130 0203     		.2byte	0x302
 4410 1132 0B0E0000 		.4byte	0xe0b
 4411 1136 02       		.byte	0x2
 4412 1137 91       		.byte	0x91
 4413 1138 74       		.sleb128 -12
 4414 1139 00       		.byte	0x0
 4415 113a 1D       		.uleb128 0x1d
 4416 113b 01       		.byte	0x1
 4417 113c E7030000 		.4byte	.LASF316
 4418 1140 01       		.byte	0x1
 4419 1141 3103     		.2byte	0x331
 4420 1143 01       		.byte	0x1
 4421 1144 00000000 		.4byte	.LFB9
 4422 1148 AC010000 		.4byte	.LFE9
 4423 114c EF010000 		.4byte	.LLST9
 4424 1150 80110000 		.4byte	0x1180
 4425 1154 19       		.uleb128 0x19
 4426 1155 0D090000 		.4byte	.LASF299
 4427 1159 01       		.byte	0x1
 4428 115a 3103     		.2byte	0x331
 4429 115c A90E0000 		.4byte	0xea9
 4430 1160 02       		.byte	0x2
 4431 1161 91       		.byte	0x91
 4432 1162 6C       		.sleb128 -20
 4433 1163 1B       		.uleb128 0x1b
 4434 1164 6900     		.ascii	"i\000"
 4435 1166 01       		.byte	0x1
 4436 1167 3303     		.2byte	0x333
 4437 1169 CA010000 		.4byte	0x1ca
 4438 116d 02       		.byte	0x2
 4439 116e 91       		.byte	0x91
 4440 116f 72       		.sleb128 -14
 4441 1170 1A       		.uleb128 0x1a
 4442 1171 65020000 		.4byte	.LASF317
 4443 1175 01       		.byte	0x1
 4444 1176 3403     		.2byte	0x334
 4445 1178 80110000 		.4byte	0x1180
 4446 117c 02       		.byte	0x2
 4447 117d 91       		.byte	0x91
 4448 117e 74       		.sleb128 -12
 4449 117f 00       		.byte	0x0
 4450 1180 05       		.uleb128 0x5
 4451 1181 04       		.byte	0x4
 4452 1182 3A0C0000 		.4byte	0xc3a
 4453 1186 1D       		.uleb128 0x1d
 4454 1187 01       		.byte	0x1
ARM GAS  C:\Users\daniel01\AppData\Local\Temp\ccxoNE0f.s 			page 99


 4455 1188 2F020000 		.4byte	.LASF318
 4456 118c 01       		.byte	0x1
 4457 118d 8A03     		.2byte	0x38a
 4458 118f 01       		.byte	0x1
 4459 1190 00000000 		.4byte	.LFB10
 4460 1194 A0010000 		.4byte	.LFE10
 4461 1198 27020000 		.4byte	.LLST10
 4462 119c FB110000 		.4byte	0x11fb
 4463 11a0 19       		.uleb128 0x19
 4464 11a1 0A150000 		.4byte	.LASF294
 4465 11a5 01       		.byte	0x1
 4466 11a6 8A03     		.2byte	0x38a
 4467 11a8 0B0E0000 		.4byte	0xe0b
 4468 11ac 02       		.byte	0x2
 4469 11ad 91       		.byte	0x91
 4470 11ae 64       		.sleb128 -28
 4471 11af 1C       		.uleb128 0x1c
 4472 11b0 6F707400 		.ascii	"opt\000"
 4473 11b4 01       		.byte	0x1
 4474 11b5 8B03     		.2byte	0x38b
 4475 11b7 72010000 		.4byte	0x172
 4476 11bb 02       		.byte	0x2
 4477 11bc 91       		.byte	0x91
 4478 11bd 62       		.sleb128 -30
 4479 11be 1A       		.uleb128 0x1a
 4480 11bf 65020000 		.4byte	.LASF317
 4481 11c3 01       		.byte	0x1
 4482 11c4 8D03     		.2byte	0x38d
 4483 11c6 80110000 		.4byte	0x1180
 4484 11ca 02       		.byte	0x2
 4485 11cb 91       		.byte	0x91
 4486 11cc 68       		.sleb128 -24
 4487 11cd 1A       		.uleb128 0x1a
 4488 11ce 81110000 		.4byte	.LASF319
 4489 11d2 01       		.byte	0x1
 4490 11d3 8E03     		.2byte	0x38e
 4491 11d5 0B0E0000 		.4byte	0xe0b
 4492 11d9 02       		.byte	0x2
 4493 11da 91       		.byte	0x91
 4494 11db 6C       		.sleb128 -20
 4495 11dc 1A       		.uleb128 0x1a
 4496 11dd 88110000 		.4byte	.LASF320
 4497 11e1 01       		.byte	0x1
 4498 11e2 8F03     		.2byte	0x38f
 4499 11e4 0B0E0000 		.4byte	0xe0b
 4500 11e8 02       		.byte	0x2
 4501 11e9 91       		.byte	0x91
 4502 11ea 70       		.sleb128 -16
 4503 11eb 1A       		.uleb128 0x1a
 4504 11ec A10A0000 		.4byte	.LASF321
 4505 11f0 01       		.byte	0x1
 4506 11f1 9003     		.2byte	0x390
 4507 11f3 CA010000 		.4byte	0x1ca
 4508 11f7 02       		.byte	0x2
 4509 11f8 91       		.byte	0x91
 4510 11f9 76       		.sleb128 -10
 4511 11fa 00       		.byte	0x0
ARM GAS  C:\Users\daniel01\AppData\Local\Temp\ccxoNE0f.s 			page 100


 4512 11fb 1D       		.uleb128 0x1d
 4513 11fc 01       		.byte	0x1
 4514 11fd 30000000 		.4byte	.LASF322
 4515 1201 01       		.byte	0x1
 4516 1202 DC03     		.2byte	0x3dc
 4517 1204 01       		.byte	0x1
 4518 1205 00000000 		.4byte	.LFB11
 4519 1209 4A000000 		.4byte	.LFE11
 4520 120d 5E020000 		.4byte	.LLST11
 4521 1211 32120000 		.4byte	0x1232
 4522 1215 1A       		.uleb128 0x1a
 4523 1216 65020000 		.4byte	.LASF317
 4524 121a 01       		.byte	0x1
 4525 121b DE03     		.2byte	0x3de
 4526 121d 80110000 		.4byte	0x1180
 4527 1221 02       		.byte	0x2
 4528 1222 91       		.byte	0x91
 4529 1223 70       		.sleb128 -16
 4530 1224 1B       		.uleb128 0x1b
 4531 1225 6900     		.ascii	"i\000"
 4532 1227 01       		.byte	0x1
 4533 1228 DF03     		.2byte	0x3df
 4534 122a CA010000 		.4byte	0x1ca
 4535 122e 02       		.byte	0x2
 4536 122f 91       		.byte	0x91
 4537 1230 76       		.sleb128 -10
 4538 1231 00       		.byte	0x0
 4539 1232 1D       		.uleb128 0x1d
 4540 1233 01       		.byte	0x1
 4541 1234 3A0F0000 		.4byte	.LASF323
 4542 1238 01       		.byte	0x1
 4543 1239 F903     		.2byte	0x3f9
 4544 123b 01       		.byte	0x1
 4545 123c 00000000 		.4byte	.LFB12
 4546 1240 B0000000 		.4byte	.LFE12
 4547 1244 95020000 		.4byte	.LLST12
 4548 1248 98120000 		.4byte	0x1298
 4549 124c 19       		.uleb128 0x19
 4550 124d 0A150000 		.4byte	.LASF294
 4551 1251 01       		.byte	0x1
 4552 1252 F903     		.2byte	0x3f9
 4553 1254 0B0E0000 		.4byte	0xe0b
 4554 1258 02       		.byte	0x2
 4555 1259 91       		.byte	0x91
 4556 125a 64       		.sleb128 -28
 4557 125b 1A       		.uleb128 0x1a
 4558 125c 65020000 		.4byte	.LASF317
 4559 1260 01       		.byte	0x1
 4560 1261 FB03     		.2byte	0x3fb
 4561 1263 80110000 		.4byte	0x1180
 4562 1267 02       		.byte	0x2
 4563 1268 91       		.byte	0x91
 4564 1269 68       		.sleb128 -24
 4565 126a 1A       		.uleb128 0x1a
 4566 126b 88110000 		.4byte	.LASF320
 4567 126f 01       		.byte	0x1
 4568 1270 FC03     		.2byte	0x3fc
ARM GAS  C:\Users\daniel01\AppData\Local\Temp\ccxoNE0f.s 			page 101


 4569 1272 0B0E0000 		.4byte	0xe0b
 4570 1276 02       		.byte	0x2
 4571 1277 91       		.byte	0x91
 4572 1278 6C       		.sleb128 -20
 4573 1279 1A       		.uleb128 0x1a
 4574 127a 720A0000 		.4byte	.LASF324
 4575 127e 01       		.byte	0x1
 4576 127f FD03     		.2byte	0x3fd
 4577 1281 0B0E0000 		.4byte	0xe0b
 4578 1285 02       		.byte	0x2
 4579 1286 91       		.byte	0x91
 4580 1287 70       		.sleb128 -16
 4581 1288 1A       		.uleb128 0x1a
 4582 1289 A10A0000 		.4byte	.LASF321
 4583 128d 01       		.byte	0x1
 4584 128e FE03     		.2byte	0x3fe
 4585 1290 CA010000 		.4byte	0x1ca
 4586 1294 02       		.byte	0x2
 4587 1295 91       		.byte	0x91
 4588 1296 76       		.sleb128 -10
 4589 1297 00       		.byte	0x0
 4590 1298 1D       		.uleb128 0x1d
 4591 1299 01       		.byte	0x1
 4592 129a 40000000 		.4byte	.LASF325
 4593 129e 01       		.byte	0x1
 4594 129f 2804     		.2byte	0x428
 4595 12a1 01       		.byte	0x1
 4596 12a2 00000000 		.4byte	.LFB13
 4597 12a6 38010000 		.4byte	.LFE13
 4598 12aa CC020000 		.4byte	.LLST13
 4599 12ae 57130000 		.4byte	0x1357
 4600 12b2 19       		.uleb128 0x19
 4601 12b3 9C0F0000 		.4byte	.LASF326
 4602 12b7 01       		.byte	0x1
 4603 12b8 2804     		.2byte	0x428
 4604 12ba BF000000 		.4byte	0xbf
 4605 12be 02       		.byte	0x2
 4606 12bf 91       		.byte	0x91
 4607 12c0 4C       		.sleb128 -52
 4608 12c1 1A       		.uleb128 0x1a
 4609 12c2 86010000 		.4byte	.LASF327
 4610 12c6 01       		.byte	0x1
 4611 12c7 2A04     		.2byte	0x42a
 4612 12c9 3B000000 		.4byte	0x3b
 4613 12cd 02       		.byte	0x2
 4614 12ce 91       		.byte	0x91
 4615 12cf 5B       		.sleb128 -37
 4616 12d0 1B       		.uleb128 0x1b
 4617 12d1 65727200 		.ascii	"err\000"
 4618 12d5 01       		.byte	0x1
 4619 12d6 2B04     		.2byte	0x42b
 4620 12d8 E9060000 		.4byte	0x6e9
 4621 12dc 02       		.byte	0x2
 4622 12dd 91       		.byte	0x91
 4623 12de 58       		.sleb128 -40
 4624 12df 1A       		.uleb128 0x1a
 4625 12e0 88060000 		.4byte	.LASF309
ARM GAS  C:\Users\daniel01\AppData\Local\Temp\ccxoNE0f.s 			page 102


 4626 12e4 01       		.byte	0x1
 4627 12e5 2C04     		.2byte	0x42c
 4628 12e7 2B0B0000 		.4byte	0xb2b
 4629 12eb 02       		.byte	0x2
 4630 12ec 91       		.byte	0x91
 4631 12ed 5C       		.sleb128 -36
 4632 12ee 1A       		.uleb128 0x1a
 4633 12ef 65020000 		.4byte	.LASF317
 4634 12f3 01       		.byte	0x1
 4635 12f4 2D04     		.2byte	0x42d
 4636 12f6 80110000 		.4byte	0x1180
 4637 12fa 02       		.byte	0x2
 4638 12fb 91       		.byte	0x91
 4639 12fc 60       		.sleb128 -32
 4640 12fd 1A       		.uleb128 0x1a
 4641 12fe 0A150000 		.4byte	.LASF294
 4642 1302 01       		.byte	0x1
 4643 1303 2E04     		.2byte	0x42e
 4644 1305 0B0E0000 		.4byte	0xe0b
 4645 1309 02       		.byte	0x2
 4646 130a 91       		.byte	0x91
 4647 130b 64       		.sleb128 -28
 4648 130c 1A       		.uleb128 0x1a
 4649 130d 03080000 		.4byte	.LASF314
 4650 1311 01       		.byte	0x1
 4651 1312 2F04     		.2byte	0x42f
 4652 1314 0B0E0000 		.4byte	0xe0b
 4653 1318 02       		.byte	0x2
 4654 1319 91       		.byte	0x91
 4655 131a 68       		.sleb128 -24
 4656 131b 1A       		.uleb128 0x1a
 4657 131c A10A0000 		.4byte	.LASF321
 4658 1320 01       		.byte	0x1
 4659 1321 3004     		.2byte	0x430
 4660 1323 CA010000 		.4byte	0x1ca
 4661 1327 02       		.byte	0x2
 4662 1328 91       		.byte	0x91
 4663 1329 6E       		.sleb128 -18
 4664 132a 1B       		.uleb128 0x1b
 4665 132b 747300   		.ascii	"ts\000"
 4666 132e 01       		.byte	0x1
 4667 132f 3104     		.2byte	0x431
 4668 1331 F9000000 		.4byte	0xf9
 4669 1335 02       		.byte	0x2
 4670 1336 91       		.byte	0x91
 4671 1337 54       		.sleb128 -44
 4672 1338 1A       		.uleb128 0x1a
 4673 1339 58030000 		.4byte	.LASF328
 4674 133d 01       		.byte	0x1
 4675 133e 3204     		.2byte	0x432
 4676 1340 F9000000 		.4byte	0xf9
 4677 1344 02       		.byte	0x2
 4678 1345 91       		.byte	0x91
 4679 1346 70       		.sleb128 -16
 4680 1347 1A       		.uleb128 0x1a
 4681 1348 AB120000 		.4byte	.LASF329
 4682 134c 01       		.byte	0x1
ARM GAS  C:\Users\daniel01\AppData\Local\Temp\ccxoNE0f.s 			page 103


 4683 134d 3304     		.2byte	0x433
 4684 134f F9000000 		.4byte	0xf9
 4685 1353 02       		.byte	0x2
 4686 1354 91       		.byte	0x91
 4687 1355 74       		.sleb128 -12
 4688 1356 00       		.byte	0x0
 4689 1357 1E       		.uleb128 0x1e
 4690 1358 240D0000 		.4byte	.LASF330
 4691 135c 05       		.byte	0x5
 4692 135d 5F04     		.2byte	0x45f
 4693 135f 51010000 		.4byte	0x151
 4694 1363 01       		.byte	0x1
 4695 1364 01       		.byte	0x1
 4696 1365 1E       		.uleb128 0x1e
 4697 1366 E1110000 		.4byte	.LASF331
 4698 136a 05       		.byte	0x5
 4699 136b DA04     		.2byte	0x4da
 4700 136d 0B0E0000 		.4byte	0xe0b
 4701 1371 01       		.byte	0x1
 4702 1372 01       		.byte	0x1
 4703 1373 1E       		.uleb128 0x1e
 4704 1374 DB100000 		.4byte	.LASF332
 4705 1378 05       		.byte	0x5
 4706 1379 DC04     		.2byte	0x4dc
 4707 137b 5C010000 		.4byte	0x15c
 4708 137f 01       		.byte	0x1
 4709 1380 01       		.byte	0x1
 4710 1381 1E       		.uleb128 0x1e
 4711 1382 A1020000 		.4byte	.LASF333
 4712 1386 05       		.byte	0x5
 4713 1387 DD04     		.2byte	0x4dd
 4714 1389 BC070000 		.4byte	0x7bc
 4715 138d 01       		.byte	0x1
 4716 138e 01       		.byte	0x1
 4717 138f 1E       		.uleb128 0x1e
 4718 1390 AE100000 		.4byte	.LASF334
 4719 1394 05       		.byte	0x5
 4720 1395 DE04     		.2byte	0x4de
 4721 1397 F9000000 		.4byte	0xf9
 4722 139b 01       		.byte	0x1
 4723 139c 01       		.byte	0x1
 4724 139d 1E       		.uleb128 0x1e
 4725 139e A7030000 		.4byte	.LASF335
 4726 13a2 05       		.byte	0x5
 4727 13a3 DF04     		.2byte	0x4df
 4728 13a5 BF010000 		.4byte	0x1bf
 4729 13a9 01       		.byte	0x1
 4730 13aa 01       		.byte	0x1
 4731 13ab 1E       		.uleb128 0x1e
 4732 13ac 72110000 		.4byte	.LASF336
 4733 13b0 05       		.byte	0x5
 4734 13b1 E004     		.2byte	0x4e0
 4735 13b3 0F010000 		.4byte	0x10f
 4736 13b7 01       		.byte	0x1
 4737 13b8 01       		.byte	0x1
 4738 13b9 1E       		.uleb128 0x1e
 4739 13ba 12060000 		.4byte	.LASF337
ARM GAS  C:\Users\daniel01\AppData\Local\Temp\ccxoNE0f.s 			page 104


 4740 13be 05       		.byte	0x5
 4741 13bf E104     		.2byte	0x4e1
 4742 13c1 0F010000 		.4byte	0x10f
 4743 13c5 01       		.byte	0x1
 4744 13c6 01       		.byte	0x1
 4745 13c7 1E       		.uleb128 0x1e
 4746 13c8 1B0C0000 		.4byte	.LASF338
 4747 13cc 05       		.byte	0x5
 4748 13cd 0D05     		.2byte	0x50d
 4749 13cf D5130000 		.4byte	0x13d5
 4750 13d3 01       		.byte	0x1
 4751 13d4 01       		.byte	0x1
 4752 13d5 1F       		.uleb128 0x1f
 4753 13d6 D7000000 		.4byte	0xd7
 4754 13da 1E       		.uleb128 0x1e
 4755 13db C3140000 		.4byte	.LASF339
 4756 13df 05       		.byte	0x5
 4757 13e0 0F05     		.2byte	0x50f
 4758 13e2 E8130000 		.4byte	0x13e8
 4759 13e6 01       		.byte	0x1
 4760 13e7 01       		.byte	0x1
 4761 13e8 1F       		.uleb128 0x1f
 4762 13e9 88010000 		.4byte	0x188
 4763 13ed 1E       		.uleb128 0x1e
 4764 13ee 5C100000 		.4byte	.LASF340
 4765 13f2 05       		.byte	0x5
 4766 13f3 1805     		.2byte	0x518
 4767 13f5 FB130000 		.4byte	0x13fb
 4768 13f9 01       		.byte	0x1
 4769 13fa 01       		.byte	0x1
 4770 13fb 1F       		.uleb128 0x1f
 4771 13fc 7D010000 		.4byte	0x17d
 4772 1400 1E       		.uleb128 0x1e
 4773 1401 B6040000 		.4byte	.LASF341
 4774 1405 05       		.byte	0x5
 4775 1406 1905     		.2byte	0x519
 4776 1408 E8130000 		.4byte	0x13e8
 4777 140c 01       		.byte	0x1
 4778 140d 01       		.byte	0x1
 4779 140e 1E       		.uleb128 0x1e
 4780 140f E6080000 		.4byte	.LASF342
 4781 1413 05       		.byte	0x5
 4782 1414 1A05     		.2byte	0x51a
 4783 1416 1C140000 		.4byte	0x141c
 4784 141a 01       		.byte	0x1
 4785 141b 01       		.byte	0x1
 4786 141c 1F       		.uleb128 0x1f
 4787 141d EC0D0000 		.4byte	0xdec
 4788 1421 1E       		.uleb128 0x1e
 4789 1422 D1030000 		.4byte	.LASF343
 4790 1426 05       		.byte	0x5
 4791 1427 1B05     		.2byte	0x51b
 4792 1429 D5130000 		.4byte	0x13d5
 4793 142d 01       		.byte	0x1
 4794 142e 01       		.byte	0x1
 4795 142f 1E       		.uleb128 0x1e
 4796 1430 B4030000 		.4byte	.LASF344
ARM GAS  C:\Users\daniel01\AppData\Local\Temp\ccxoNE0f.s 			page 105


 4797 1434 05       		.byte	0x5
 4798 1435 1C05     		.2byte	0x51c
 4799 1437 D5130000 		.4byte	0x13d5
 4800 143b 01       		.byte	0x1
 4801 143c 01       		.byte	0x1
 4802 143d 1E       		.uleb128 0x1e
 4803 143e F8120000 		.4byte	.LASF345
 4804 1442 05       		.byte	0x5
 4805 1443 1E05     		.2byte	0x51e
 4806 1445 4B140000 		.4byte	0x144b
 4807 1449 01       		.byte	0x1
 4808 144a 01       		.byte	0x1
 4809 144b 1F       		.uleb128 0x1f
 4810 144c 5C010000 		.4byte	0x15c
 4811 1450 0F       		.uleb128 0xf
 4812 1451 3A0C0000 		.4byte	0xc3a
 4813 1455 5B140000 		.4byte	0x145b
 4814 1459 20       		.uleb128 0x20
 4815 145a 00       		.byte	0x0
 4816 145b 1E       		.uleb128 0x1e
 4817 145c 710C0000 		.4byte	.LASF346
 4818 1460 05       		.byte	0x5
 4819 1461 3805     		.2byte	0x538
 4820 1463 50140000 		.4byte	0x1450
 4821 1467 01       		.byte	0x1
 4822 1468 01       		.byte	0x1
 4823 1469 00       		.byte	0x0
 4824              		.section	.debug_abbrev
 4825 0000 01       		.uleb128 0x1
 4826 0001 11       		.uleb128 0x11
 4827 0002 01       		.byte	0x1
 4828 0003 25       		.uleb128 0x25
 4829 0004 0E       		.uleb128 0xe
 4830 0005 13       		.uleb128 0x13
 4831 0006 0B       		.uleb128 0xb
 4832 0007 03       		.uleb128 0x3
 4833 0008 0E       		.uleb128 0xe
 4834 0009 1B       		.uleb128 0x1b
 4835 000a 0E       		.uleb128 0xe
 4836 000b 11       		.uleb128 0x11
 4837 000c 01       		.uleb128 0x1
 4838 000d 52       		.uleb128 0x52
 4839 000e 01       		.uleb128 0x1
 4840 000f 55       		.uleb128 0x55
 4841 0010 06       		.uleb128 0x6
 4842 0011 10       		.uleb128 0x10
 4843 0012 06       		.uleb128 0x6
 4844 0013 00       		.byte	0x0
 4845 0014 00       		.byte	0x0
 4846 0015 02       		.uleb128 0x2
 4847 0016 16       		.uleb128 0x16
 4848 0017 00       		.byte	0x0
 4849 0018 03       		.uleb128 0x3
 4850 0019 0E       		.uleb128 0xe
 4851 001a 3A       		.uleb128 0x3a
 4852 001b 0B       		.uleb128 0xb
 4853 001c 3B       		.uleb128 0x3b
ARM GAS  C:\Users\daniel01\AppData\Local\Temp\ccxoNE0f.s 			page 106


 4854 001d 0B       		.uleb128 0xb
 4855 001e 49       		.uleb128 0x49
 4856 001f 13       		.uleb128 0x13
 4857 0020 00       		.byte	0x0
 4858 0021 00       		.byte	0x0
 4859 0022 03       		.uleb128 0x3
 4860 0023 24       		.uleb128 0x24
 4861 0024 00       		.byte	0x0
 4862 0025 0B       		.uleb128 0xb
 4863 0026 0B       		.uleb128 0xb
 4864 0027 3E       		.uleb128 0x3e
 4865 0028 0B       		.uleb128 0xb
 4866 0029 03       		.uleb128 0x3
 4867 002a 0E       		.uleb128 0xe
 4868 002b 00       		.byte	0x0
 4869 002c 00       		.byte	0x0
 4870 002d 04       		.uleb128 0x4
 4871 002e 24       		.uleb128 0x24
 4872 002f 00       		.byte	0x0
 4873 0030 0B       		.uleb128 0xb
 4874 0031 0B       		.uleb128 0xb
 4875 0032 3E       		.uleb128 0x3e
 4876 0033 0B       		.uleb128 0xb
 4877 0034 03       		.uleb128 0x3
 4878 0035 08       		.uleb128 0x8
 4879 0036 00       		.byte	0x0
 4880 0037 00       		.byte	0x0
 4881 0038 05       		.uleb128 0x5
 4882 0039 0F       		.uleb128 0xf
 4883 003a 00       		.byte	0x0
 4884 003b 0B       		.uleb128 0xb
 4885 003c 0B       		.uleb128 0xb
 4886 003d 49       		.uleb128 0x49
 4887 003e 13       		.uleb128 0x13
 4888 003f 00       		.byte	0x0
 4889 0040 00       		.byte	0x0
 4890 0041 06       		.uleb128 0x6
 4891 0042 15       		.uleb128 0x15
 4892 0043 01       		.byte	0x1
 4893 0044 27       		.uleb128 0x27
 4894 0045 0C       		.uleb128 0xc
 4895 0046 01       		.uleb128 0x1
 4896 0047 13       		.uleb128 0x13
 4897 0048 00       		.byte	0x0
 4898 0049 00       		.byte	0x0
 4899 004a 07       		.uleb128 0x7
 4900 004b 05       		.uleb128 0x5
 4901 004c 00       		.byte	0x0
 4902 004d 49       		.uleb128 0x49
 4903 004e 13       		.uleb128 0x13
 4904 004f 00       		.byte	0x0
 4905 0050 00       		.byte	0x0
 4906 0051 08       		.uleb128 0x8
 4907 0052 0F       		.uleb128 0xf
 4908 0053 00       		.byte	0x0
 4909 0054 0B       		.uleb128 0xb
 4910 0055 0B       		.uleb128 0xb
ARM GAS  C:\Users\daniel01\AppData\Local\Temp\ccxoNE0f.s 			page 107


 4911 0056 00       		.byte	0x0
 4912 0057 00       		.byte	0x0
 4913 0058 09       		.uleb128 0x9
 4914 0059 16       		.uleb128 0x16
 4915 005a 00       		.byte	0x0
 4916 005b 03       		.uleb128 0x3
 4917 005c 0E       		.uleb128 0xe
 4918 005d 3A       		.uleb128 0x3a
 4919 005e 0B       		.uleb128 0xb
 4920 005f 3B       		.uleb128 0x3b
 4921 0060 05       		.uleb128 0x5
 4922 0061 49       		.uleb128 0x49
 4923 0062 13       		.uleb128 0x13
 4924 0063 00       		.byte	0x0
 4925 0064 00       		.byte	0x0
 4926 0065 0A       		.uleb128 0xa
 4927 0066 04       		.uleb128 0x4
 4928 0067 01       		.byte	0x1
 4929 0068 03       		.uleb128 0x3
 4930 0069 0E       		.uleb128 0xe
 4931 006a 0B       		.uleb128 0xb
 4932 006b 0B       		.uleb128 0xb
 4933 006c 3A       		.uleb128 0x3a
 4934 006d 0B       		.uleb128 0xb
 4935 006e 3B       		.uleb128 0x3b
 4936 006f 05       		.uleb128 0x5
 4937 0070 01       		.uleb128 0x1
 4938 0071 13       		.uleb128 0x13
 4939 0072 00       		.byte	0x0
 4940 0073 00       		.byte	0x0
 4941 0074 0B       		.uleb128 0xb
 4942 0075 28       		.uleb128 0x28
 4943 0076 00       		.byte	0x0
 4944 0077 03       		.uleb128 0x3
 4945 0078 0E       		.uleb128 0xe
 4946 0079 1C       		.uleb128 0x1c
 4947 007a 0D       		.uleb128 0xd
 4948 007b 00       		.byte	0x0
 4949 007c 00       		.byte	0x0
 4950 007d 0C       		.uleb128 0xc
 4951 007e 13       		.uleb128 0x13
 4952 007f 01       		.byte	0x1
 4953 0080 03       		.uleb128 0x3
 4954 0081 0E       		.uleb128 0xe
 4955 0082 0B       		.uleb128 0xb
 4956 0083 0B       		.uleb128 0xb
 4957 0084 3A       		.uleb128 0x3a
 4958 0085 0B       		.uleb128 0xb
 4959 0086 3B       		.uleb128 0x3b
 4960 0087 05       		.uleb128 0x5
 4961 0088 01       		.uleb128 0x1
 4962 0089 13       		.uleb128 0x13
 4963 008a 00       		.byte	0x0
 4964 008b 00       		.byte	0x0
 4965 008c 0D       		.uleb128 0xd
 4966 008d 0D       		.uleb128 0xd
 4967 008e 00       		.byte	0x0
ARM GAS  C:\Users\daniel01\AppData\Local\Temp\ccxoNE0f.s 			page 108


 4968 008f 03       		.uleb128 0x3
 4969 0090 0E       		.uleb128 0xe
 4970 0091 3A       		.uleb128 0x3a
 4971 0092 0B       		.uleb128 0xb
 4972 0093 3B       		.uleb128 0x3b
 4973 0094 05       		.uleb128 0x5
 4974 0095 49       		.uleb128 0x49
 4975 0096 13       		.uleb128 0x13
 4976 0097 38       		.uleb128 0x38
 4977 0098 0A       		.uleb128 0xa
 4978 0099 00       		.byte	0x0
 4979 009a 00       		.byte	0x0
 4980 009b 0E       		.uleb128 0xe
 4981 009c 0D       		.uleb128 0xd
 4982 009d 00       		.byte	0x0
 4983 009e 03       		.uleb128 0x3
 4984 009f 08       		.uleb128 0x8
 4985 00a0 3A       		.uleb128 0x3a
 4986 00a1 0B       		.uleb128 0xb
 4987 00a2 3B       		.uleb128 0x3b
 4988 00a3 05       		.uleb128 0x5
 4989 00a4 49       		.uleb128 0x49
 4990 00a5 13       		.uleb128 0x13
 4991 00a6 38       		.uleb128 0x38
 4992 00a7 0A       		.uleb128 0xa
 4993 00a8 00       		.byte	0x0
 4994 00a9 00       		.byte	0x0
 4995 00aa 0F       		.uleb128 0xf
 4996 00ab 01       		.uleb128 0x1
 4997 00ac 01       		.byte	0x1
 4998 00ad 49       		.uleb128 0x49
 4999 00ae 13       		.uleb128 0x13
 5000 00af 01       		.uleb128 0x1
 5001 00b0 13       		.uleb128 0x13
 5002 00b1 00       		.byte	0x0
 5003 00b2 00       		.byte	0x0
 5004 00b3 10       		.uleb128 0x10
 5005 00b4 21       		.uleb128 0x21
 5006 00b5 00       		.byte	0x0
 5007 00b6 49       		.uleb128 0x49
 5008 00b7 13       		.uleb128 0x13
 5009 00b8 2F       		.uleb128 0x2f
 5010 00b9 0B       		.uleb128 0xb
 5011 00ba 00       		.byte	0x0
 5012 00bb 00       		.byte	0x0
 5013 00bc 11       		.uleb128 0x11
 5014 00bd 24       		.uleb128 0x24
 5015 00be 00       		.byte	0x0
 5016 00bf 0B       		.uleb128 0xb
 5017 00c0 0B       		.uleb128 0xb
 5018 00c1 3E       		.uleb128 0x3e
 5019 00c2 0B       		.uleb128 0xb
 5020 00c3 00       		.byte	0x0
 5021 00c4 00       		.byte	0x0
 5022 00c5 12       		.uleb128 0x12
 5023 00c6 2E       		.uleb128 0x2e
 5024 00c7 01       		.byte	0x1
ARM GAS  C:\Users\daniel01\AppData\Local\Temp\ccxoNE0f.s 			page 109


 5025 00c8 3F       		.uleb128 0x3f
 5026 00c9 0C       		.uleb128 0xc
 5027 00ca 03       		.uleb128 0x3
 5028 00cb 0E       		.uleb128 0xe
 5029 00cc 3A       		.uleb128 0x3a
 5030 00cd 0B       		.uleb128 0xb
 5031 00ce 3B       		.uleb128 0x3b
 5032 00cf 0B       		.uleb128 0xb
 5033 00d0 27       		.uleb128 0x27
 5034 00d1 0C       		.uleb128 0xc
 5035 00d2 11       		.uleb128 0x11
 5036 00d3 01       		.uleb128 0x1
 5037 00d4 12       		.uleb128 0x12
 5038 00d5 01       		.uleb128 0x1
 5039 00d6 40       		.uleb128 0x40
 5040 00d7 06       		.uleb128 0x6
 5041 00d8 01       		.uleb128 0x1
 5042 00d9 13       		.uleb128 0x13
 5043 00da 00       		.byte	0x0
 5044 00db 00       		.byte	0x0
 5045 00dc 13       		.uleb128 0x13
 5046 00dd 05       		.uleb128 0x5
 5047 00de 00       		.byte	0x0
 5048 00df 03       		.uleb128 0x3
 5049 00e0 0E       		.uleb128 0xe
 5050 00e1 3A       		.uleb128 0x3a
 5051 00e2 0B       		.uleb128 0xb
 5052 00e3 3B       		.uleb128 0x3b
 5053 00e4 0B       		.uleb128 0xb
 5054 00e5 49       		.uleb128 0x49
 5055 00e6 13       		.uleb128 0x13
 5056 00e7 02       		.uleb128 0x2
 5057 00e8 0A       		.uleb128 0xa
 5058 00e9 00       		.byte	0x0
 5059 00ea 00       		.byte	0x0
 5060 00eb 14       		.uleb128 0x14
 5061 00ec 05       		.uleb128 0x5
 5062 00ed 00       		.byte	0x0
 5063 00ee 03       		.uleb128 0x3
 5064 00ef 08       		.uleb128 0x8
 5065 00f0 3A       		.uleb128 0x3a
 5066 00f1 0B       		.uleb128 0xb
 5067 00f2 3B       		.uleb128 0x3b
 5068 00f3 0B       		.uleb128 0xb
 5069 00f4 49       		.uleb128 0x49
 5070 00f5 13       		.uleb128 0x13
 5071 00f6 02       		.uleb128 0x2
 5072 00f7 0A       		.uleb128 0xa
 5073 00f8 00       		.byte	0x0
 5074 00f9 00       		.byte	0x0
 5075 00fa 15       		.uleb128 0x15
 5076 00fb 34       		.uleb128 0x34
 5077 00fc 00       		.byte	0x0
 5078 00fd 03       		.uleb128 0x3
 5079 00fe 0E       		.uleb128 0xe
 5080 00ff 3A       		.uleb128 0x3a
 5081 0100 0B       		.uleb128 0xb
ARM GAS  C:\Users\daniel01\AppData\Local\Temp\ccxoNE0f.s 			page 110


 5082 0101 3B       		.uleb128 0x3b
 5083 0102 0B       		.uleb128 0xb
 5084 0103 49       		.uleb128 0x49
 5085 0104 13       		.uleb128 0x13
 5086 0105 02       		.uleb128 0x2
 5087 0106 0A       		.uleb128 0xa
 5088 0107 00       		.byte	0x0
 5089 0108 00       		.byte	0x0
 5090 0109 16       		.uleb128 0x16
 5091 010a 2E       		.uleb128 0x2e
 5092 010b 01       		.byte	0x1
 5093 010c 3F       		.uleb128 0x3f
 5094 010d 0C       		.uleb128 0xc
 5095 010e 03       		.uleb128 0x3
 5096 010f 0E       		.uleb128 0xe
 5097 0110 3A       		.uleb128 0x3a
 5098 0111 0B       		.uleb128 0xb
 5099 0112 3B       		.uleb128 0x3b
 5100 0113 0B       		.uleb128 0xb
 5101 0114 27       		.uleb128 0x27
 5102 0115 0C       		.uleb128 0xc
 5103 0116 49       		.uleb128 0x49
 5104 0117 13       		.uleb128 0x13
 5105 0118 11       		.uleb128 0x11
 5106 0119 01       		.uleb128 0x1
 5107 011a 12       		.uleb128 0x12
 5108 011b 01       		.uleb128 0x1
 5109 011c 40       		.uleb128 0x40
 5110 011d 06       		.uleb128 0x6
 5111 011e 01       		.uleb128 0x1
 5112 011f 13       		.uleb128 0x13
 5113 0120 00       		.byte	0x0
 5114 0121 00       		.byte	0x0
 5115 0122 17       		.uleb128 0x17
 5116 0123 34       		.uleb128 0x34
 5117 0124 00       		.byte	0x0
 5118 0125 03       		.uleb128 0x3
 5119 0126 08       		.uleb128 0x8
 5120 0127 3A       		.uleb128 0x3a
 5121 0128 0B       		.uleb128 0xb
 5122 0129 3B       		.uleb128 0x3b
 5123 012a 0B       		.uleb128 0xb
 5124 012b 49       		.uleb128 0x49
 5125 012c 13       		.uleb128 0x13
 5126 012d 02       		.uleb128 0x2
 5127 012e 0A       		.uleb128 0xa
 5128 012f 00       		.byte	0x0
 5129 0130 00       		.byte	0x0
 5130 0131 18       		.uleb128 0x18
 5131 0132 2E       		.uleb128 0x2e
 5132 0133 01       		.byte	0x1
 5133 0134 3F       		.uleb128 0x3f
 5134 0135 0C       		.uleb128 0xc
 5135 0136 03       		.uleb128 0x3
 5136 0137 0E       		.uleb128 0xe
 5137 0138 3A       		.uleb128 0x3a
 5138 0139 0B       		.uleb128 0xb
ARM GAS  C:\Users\daniel01\AppData\Local\Temp\ccxoNE0f.s 			page 111


 5139 013a 3B       		.uleb128 0x3b
 5140 013b 05       		.uleb128 0x5
 5141 013c 27       		.uleb128 0x27
 5142 013d 0C       		.uleb128 0xc
 5143 013e 49       		.uleb128 0x49
 5144 013f 13       		.uleb128 0x13
 5145 0140 11       		.uleb128 0x11
 5146 0141 01       		.uleb128 0x1
 5147 0142 12       		.uleb128 0x12
 5148 0143 01       		.uleb128 0x1
 5149 0144 40       		.uleb128 0x40
 5150 0145 06       		.uleb128 0x6
 5151 0146 01       		.uleb128 0x1
 5152 0147 13       		.uleb128 0x13
 5153 0148 00       		.byte	0x0
 5154 0149 00       		.byte	0x0
 5155 014a 19       		.uleb128 0x19
 5156 014b 05       		.uleb128 0x5
 5157 014c 00       		.byte	0x0
 5158 014d 03       		.uleb128 0x3
 5159 014e 0E       		.uleb128 0xe
 5160 014f 3A       		.uleb128 0x3a
 5161 0150 0B       		.uleb128 0xb
 5162 0151 3B       		.uleb128 0x3b
 5163 0152 05       		.uleb128 0x5
 5164 0153 49       		.uleb128 0x49
 5165 0154 13       		.uleb128 0x13
 5166 0155 02       		.uleb128 0x2
 5167 0156 0A       		.uleb128 0xa
 5168 0157 00       		.byte	0x0
 5169 0158 00       		.byte	0x0
 5170 0159 1A       		.uleb128 0x1a
 5171 015a 34       		.uleb128 0x34
 5172 015b 00       		.byte	0x0
 5173 015c 03       		.uleb128 0x3
 5174 015d 0E       		.uleb128 0xe
 5175 015e 3A       		.uleb128 0x3a
 5176 015f 0B       		.uleb128 0xb
 5177 0160 3B       		.uleb128 0x3b
 5178 0161 05       		.uleb128 0x5
 5179 0162 49       		.uleb128 0x49
 5180 0163 13       		.uleb128 0x13
 5181 0164 02       		.uleb128 0x2
 5182 0165 0A       		.uleb128 0xa
 5183 0166 00       		.byte	0x0
 5184 0167 00       		.byte	0x0
 5185 0168 1B       		.uleb128 0x1b
 5186 0169 34       		.uleb128 0x34
 5187 016a 00       		.byte	0x0
 5188 016b 03       		.uleb128 0x3
 5189 016c 08       		.uleb128 0x8
 5190 016d 3A       		.uleb128 0x3a
 5191 016e 0B       		.uleb128 0xb
 5192 016f 3B       		.uleb128 0x3b
 5193 0170 05       		.uleb128 0x5
 5194 0171 49       		.uleb128 0x49
 5195 0172 13       		.uleb128 0x13
ARM GAS  C:\Users\daniel01\AppData\Local\Temp\ccxoNE0f.s 			page 112


 5196 0173 02       		.uleb128 0x2
 5197 0174 0A       		.uleb128 0xa
 5198 0175 00       		.byte	0x0
 5199 0176 00       		.byte	0x0
 5200 0177 1C       		.uleb128 0x1c
 5201 0178 05       		.uleb128 0x5
 5202 0179 00       		.byte	0x0
 5203 017a 03       		.uleb128 0x3
 5204 017b 08       		.uleb128 0x8
 5205 017c 3A       		.uleb128 0x3a
 5206 017d 0B       		.uleb128 0xb
 5207 017e 3B       		.uleb128 0x3b
 5208 017f 05       		.uleb128 0x5
 5209 0180 49       		.uleb128 0x49
 5210 0181 13       		.uleb128 0x13
 5211 0182 02       		.uleb128 0x2
 5212 0183 0A       		.uleb128 0xa
 5213 0184 00       		.byte	0x0
 5214 0185 00       		.byte	0x0
 5215 0186 1D       		.uleb128 0x1d
 5216 0187 2E       		.uleb128 0x2e
 5217 0188 01       		.byte	0x1
 5218 0189 3F       		.uleb128 0x3f
 5219 018a 0C       		.uleb128 0xc
 5220 018b 03       		.uleb128 0x3
 5221 018c 0E       		.uleb128 0xe
 5222 018d 3A       		.uleb128 0x3a
 5223 018e 0B       		.uleb128 0xb
 5224 018f 3B       		.uleb128 0x3b
 5225 0190 05       		.uleb128 0x5
 5226 0191 27       		.uleb128 0x27
 5227 0192 0C       		.uleb128 0xc
 5228 0193 11       		.uleb128 0x11
 5229 0194 01       		.uleb128 0x1
 5230 0195 12       		.uleb128 0x12
 5231 0196 01       		.uleb128 0x1
 5232 0197 40       		.uleb128 0x40
 5233 0198 06       		.uleb128 0x6
 5234 0199 01       		.uleb128 0x1
 5235 019a 13       		.uleb128 0x13
 5236 019b 00       		.byte	0x0
 5237 019c 00       		.byte	0x0
 5238 019d 1E       		.uleb128 0x1e
 5239 019e 34       		.uleb128 0x34
 5240 019f 00       		.byte	0x0
 5241 01a0 03       		.uleb128 0x3
 5242 01a1 0E       		.uleb128 0xe
 5243 01a2 3A       		.uleb128 0x3a
 5244 01a3 0B       		.uleb128 0xb
 5245 01a4 3B       		.uleb128 0x3b
 5246 01a5 05       		.uleb128 0x5
 5247 01a6 49       		.uleb128 0x49
 5248 01a7 13       		.uleb128 0x13
 5249 01a8 3F       		.uleb128 0x3f
 5250 01a9 0C       		.uleb128 0xc
 5251 01aa 3C       		.uleb128 0x3c
 5252 01ab 0C       		.uleb128 0xc
ARM GAS  C:\Users\daniel01\AppData\Local\Temp\ccxoNE0f.s 			page 113


 5253 01ac 00       		.byte	0x0
 5254 01ad 00       		.byte	0x0
 5255 01ae 1F       		.uleb128 0x1f
 5256 01af 26       		.uleb128 0x26
 5257 01b0 00       		.byte	0x0
 5258 01b1 49       		.uleb128 0x49
 5259 01b2 13       		.uleb128 0x13
 5260 01b3 00       		.byte	0x0
 5261 01b4 00       		.byte	0x0
 5262 01b5 20       		.uleb128 0x20
 5263 01b6 21       		.uleb128 0x21
 5264 01b7 00       		.byte	0x0
 5265 01b8 00       		.byte	0x0
 5266 01b9 00       		.byte	0x0
 5267 01ba 00       		.byte	0x0
 5268              		.section	.debug_pubnames,"",%progbits
 5269 0000 FA000000 		.4byte	0xfa
 5270 0004 0200     		.2byte	0x2
 5271 0006 00000000 		.4byte	.Ldebug_info0
 5272 000a 6A140000 		.4byte	0x146a
 5273 000e 110E0000 		.4byte	0xe11
 5274 0012 4F53546D 		.ascii	"OSTmrCreate\000"
 5274      72437265 
 5274      61746500 
 5275 001e AF0E0000 		.4byte	0xeaf
 5276 0022 4F53546D 		.ascii	"OSTmrDel\000"
 5276      7244656C 
 5276      00
 5277 002b 050F0000 		.4byte	0xf05
 5278 002f 4F53546D 		.ascii	"OSTmrRemainGet\000"
 5278      7252656D 
 5278      61696E47 
 5278      657400
 5279 003e 600F0000 		.4byte	0xf60
 5280 0042 4F53546D 		.ascii	"OSTmrStart\000"
 5280      72537461 
 5280      727400
 5281 004d BB0F0000 		.4byte	0xfbb
 5282 0051 4F53546D 		.ascii	"OSTmrStateGet\000"
 5282      72537461 
 5282      74654765 
 5282      7400
 5283 005f 16100000 		.4byte	0x1016
 5284 0063 4F53546D 		.ascii	"OSTmrStop\000"
 5284      7253746F 
 5284      7000
 5285 006d 9E100000 		.4byte	0x109e
 5286 0071 4F535F54 		.ascii	"OS_TmrClr\000"
 5286      6D72436C 
 5286      7200
 5287 007b C8100000 		.4byte	0x10c8
 5288 007f 4F535F54 		.ascii	"OS_TmrDbgListAdd\000"
 5288      6D724462 
 5288      674C6973 
 5288      74416464 
 5288      00
 5289 0090 F2100000 		.4byte	0x10f2
ARM GAS  C:\Users\daniel01\AppData\Local\Temp\ccxoNE0f.s 			page 114


 5290 0094 4F535F54 		.ascii	"OS_TmrDbgListRemove\000"
 5290      6D724462 
 5290      674C6973 
 5290      7452656D 
 5290      6F766500 
 5291 00a8 3A110000 		.4byte	0x113a
 5292 00ac 4F535F54 		.ascii	"OS_TmrInit\000"
 5292      6D72496E 
 5292      697400
 5293 00b7 86110000 		.4byte	0x1186
 5294 00bb 4F535F54 		.ascii	"OS_TmrLink\000"
 5294      6D724C69 
 5294      6E6B00
 5295 00c6 FB110000 		.4byte	0x11fb
 5296 00ca 4F535F54 		.ascii	"OS_TmrResetPeak\000"
 5296      6D725265 
 5296      73657450 
 5296      65616B00 
 5297 00da 32120000 		.4byte	0x1232
 5298 00de 4F535F54 		.ascii	"OS_TmrUnlink\000"
 5298      6D72556E 
 5298      6C696E6B 
 5298      00
 5299 00eb 98120000 		.4byte	0x1298
 5300 00ef 4F535F54 		.ascii	"OS_TmrTask\000"
 5300      6D725461 
 5300      736B00
 5301 00fa 00000000 		.4byte	0x0
 5302              		.section	.debug_aranges,"",%progbits
 5303 0000 84000000 		.4byte	0x84
 5304 0004 0200     		.2byte	0x2
 5305 0006 00000000 		.4byte	.Ldebug_info0
 5306 000a 04       		.byte	0x4
 5307 000b 00       		.byte	0x0
 5308 000c 0000     		.2byte	0x0
 5309 000e 0000     		.2byte	0x0
 5310 0010 00000000 		.4byte	.LFB0
 5311 0014 0E010000 		.4byte	.LFE0-.LFB0
 5312 0018 00000000 		.4byte	.LFB1
 5313 001c 08010000 		.4byte	.LFE1-.LFB1
 5314 0020 00000000 		.4byte	.LFB2
 5315 0024 2A010000 		.4byte	.LFE2-.LFB2
 5316 0028 00000000 		.4byte	.LFB3
 5317 002c F0000000 		.4byte	.LFE3-.LFB3
 5318 0030 00000000 		.4byte	.LFB4
 5319 0034 7E000000 		.4byte	.LFE4-.LFB4
 5320 0038 00000000 		.4byte	.LFB5
 5321 003c 52010000 		.4byte	.LFE5-.LFB5
 5322 0040 00000000 		.4byte	.LFB6
 5323 0044 7C000000 		.4byte	.LFE6-.LFB6
 5324 0048 00000000 		.4byte	.LFB7
 5325 004c 5A000000 		.4byte	.LFE7-.LFB7
 5326 0050 00000000 		.4byte	.LFB8
 5327 0054 7C000000 		.4byte	.LFE8-.LFB8
 5328 0058 00000000 		.4byte	.LFB9
 5329 005c AC010000 		.4byte	.LFE9-.LFB9
 5330 0060 00000000 		.4byte	.LFB10
ARM GAS  C:\Users\daniel01\AppData\Local\Temp\ccxoNE0f.s 			page 115


 5331 0064 A0010000 		.4byte	.LFE10-.LFB10
 5332 0068 00000000 		.4byte	.LFB11
 5333 006c 4A000000 		.4byte	.LFE11-.LFB11
 5334 0070 00000000 		.4byte	.LFB12
 5335 0074 B0000000 		.4byte	.LFE12-.LFB12
 5336 0078 00000000 		.4byte	.LFB13
 5337 007c 38010000 		.4byte	.LFE13-.LFB13
 5338 0080 00000000 		.4byte	0x0
 5339 0084 00000000 		.4byte	0x0
 5340              		.section	.debug_ranges,"",%progbits
 5341              	.Ldebug_ranges0:
 5342 0000 00000000 		.4byte	.Ltext0
 5343 0004 00000000 		.4byte	.Letext0
 5344 0008 00000000 		.4byte	.LFB0
 5345 000c 0E010000 		.4byte	.LFE0
 5346 0010 00000000 		.4byte	.LFB1
 5347 0014 08010000 		.4byte	.LFE1
 5348 0018 00000000 		.4byte	.LFB2
 5349 001c 2A010000 		.4byte	.LFE2
 5350 0020 00000000 		.4byte	.LFB3
 5351 0024 F0000000 		.4byte	.LFE3
 5352 0028 00000000 		.4byte	.LFB4
 5353 002c 7E000000 		.4byte	.LFE4
 5354 0030 00000000 		.4byte	.LFB5
 5355 0034 52010000 		.4byte	.LFE5
 5356 0038 00000000 		.4byte	.LFB6
 5357 003c 7C000000 		.4byte	.LFE6
 5358 0040 00000000 		.4byte	.LFB7
 5359 0044 5A000000 		.4byte	.LFE7
 5360 0048 00000000 		.4byte	.LFB8
 5361 004c 7C000000 		.4byte	.LFE8
 5362 0050 00000000 		.4byte	.LFB9
 5363 0054 AC010000 		.4byte	.LFE9
 5364 0058 00000000 		.4byte	.LFB10
 5365 005c A0010000 		.4byte	.LFE10
 5366 0060 00000000 		.4byte	.LFB11
 5367 0064 4A000000 		.4byte	.LFE11
 5368 0068 00000000 		.4byte	.LFB12
 5369 006c B0000000 		.4byte	.LFE12
 5370 0070 00000000 		.4byte	.LFB13
 5371 0074 38010000 		.4byte	.LFE13
 5372 0078 00000000 		.4byte	0x0
 5373 007c 00000000 		.4byte	0x0
 5374              		.section	.debug_str,"MS",%progbits,1
 5375              	.LASF217:
 5376 0000 6F735F74 		.ascii	"os_tcb\000"
 5376      636200
 5377              	.LASF108:
 5378 0007 4F535F45 		.ascii	"OS_ERR_PRIO_INVALID\000"
 5378      52525F50 
 5378      52494F5F 
 5378      494E5641 
 5378      4C494400 
 5379              	.LASF201:
 5380 001b 4F535F45 		.ascii	"OS_ERR\000"
 5380      525200
 5381              	.LASF23:
ARM GAS  C:\Users\daniel01\AppData\Local\Temp\ccxoNE0f.s 			page 116


 5382 0022 4F535F43 		.ascii	"OS_CTX_SW_CTR\000"
 5382      54585F53 
 5382      575F4354 
 5382      5200
 5383              	.LASF322:
 5384 0030 4F535F54 		.ascii	"OS_TmrResetPeak\000"
 5384      6D725265 
 5384      73657450 
 5384      65616B00 
 5385              	.LASF325:
 5386 0040 4F535F54 		.ascii	"OS_TmrTask\000"
 5386      6D725461 
 5386      736B00
 5387              	.LASF347:
 5388 004b 474E5520 		.ascii	"GNU C 4.4.1\000"
 5388      4320342E 
 5388      342E3100 
 5389              	.LASF187:
 5390 0057 4F535F45 		.ascii	"OS_ERR_TMR_ISR\000"
 5390      52525F54 
 5390      4D525F49 
 5390      535200
 5391              	.LASF174:
 5392 0066 4F535F45 		.ascii	"OS_ERR_TIME_INVALID_MINUTES\000"
 5392      52525F54 
 5392      494D455F 
 5392      494E5641 
 5392      4C49445F 
 5393              	.LASF41:
 5394 0082 4F535F45 		.ascii	"OS_ERR_A\000"
 5394      52525F41 
 5394      00
 5395              	.LASF43:
 5396 008b 4F535F45 		.ascii	"OS_ERR_B\000"
 5396      52525F42 
 5396      00
 5397              	.LASF44:
 5398 0094 4F535F45 		.ascii	"OS_ERR_C\000"
 5398      52525F43 
 5398      00
 5399              	.LASF46:
 5400 009d 4F535F45 		.ascii	"OS_ERR_D\000"
 5400      52525F44 
 5400      00
 5401              	.LASF48:
 5402 00a6 4F535F45 		.ascii	"OS_ERR_E\000"
 5402      52525F45 
 5402      00
 5403              	.LASF49:
 5404 00af 4F535F45 		.ascii	"OS_ERR_F\000"
 5404      52525F46 
 5404      00
 5405              	.LASF55:
 5406 00b8 4F535F45 		.ascii	"OS_ERR_G\000"
 5406      52525F47 
 5406      00
 5407              	.LASF56:
ARM GAS  C:\Users\daniel01\AppData\Local\Temp\ccxoNE0f.s 			page 117


 5408 00c1 4F535F45 		.ascii	"OS_ERR_H\000"
 5408      52525F48 
 5408      00
 5409              	.LASF57:
 5410 00ca 4F535F45 		.ascii	"OS_ERR_I\000"
 5410      52525F49 
 5410      00
 5411              	.LASF64:
 5412 00d3 4F535F45 		.ascii	"OS_ERR_J\000"
 5412      52525F4A 
 5412      00
 5413              	.LASF65:
 5414 00dc 4F535F45 		.ascii	"OS_ERR_K\000"
 5414      52525F4B 
 5414      00
 5415              	.LASF66:
 5416 00e5 4F535F45 		.ascii	"OS_ERR_L\000"
 5416      52525F4C 
 5416      00
 5417              	.LASF68:
 5418 00ee 4F535F45 		.ascii	"OS_ERR_M\000"
 5418      52525F4D 
 5418      00
 5419              	.LASF84:
 5420 00f7 4F535F45 		.ascii	"OS_ERR_N\000"
 5420      52525F4E 
 5420      00
 5421              	.LASF87:
 5422 0100 4F535F45 		.ascii	"OS_ERR_O\000"
 5422      52525F4F 
 5422      00
 5423              	.LASF95:
 5424 0109 4F535F45 		.ascii	"OS_ERR_P\000"
 5424      52525F50 
 5424      00
 5425              	.LASF110:
 5426 0112 4F535F45 		.ascii	"OS_ERR_Q\000"
 5426      52525F51 
 5426      00
 5427              	.LASF115:
 5428 011b 4F535F45 		.ascii	"OS_ERR_R\000"
 5428      52525F52 
 5428      00
 5429              	.LASF119:
 5430 0124 4F535F45 		.ascii	"OS_ERR_S\000"
 5430      52525F53 
 5430      00
 5431              	.LASF136:
 5432 012d 4F535F45 		.ascii	"OS_ERR_T\000"
 5432      52525F54 
 5432      00
 5433              	.LASF194:
 5434 0136 4F535F45 		.ascii	"OS_ERR_U\000"
 5434      52525F55 
 5434      00
 5435              	.LASF195:
 5436 013f 4F535F45 		.ascii	"OS_ERR_V\000"
ARM GAS  C:\Users\daniel01\AppData\Local\Temp\ccxoNE0f.s 			page 118


 5436      52525F56 
 5436      00
 5437              	.LASF196:
 5438 0148 4F535F45 		.ascii	"OS_ERR_W\000"
 5438      52525F57 
 5438      00
 5439              	.LASF197:
 5440 0151 4F535F45 		.ascii	"OS_ERR_X\000"
 5440      52525F58 
 5440      00
 5441              	.LASF184:
 5442 015a 4F535F45 		.ascii	"OS_ERR_TMR_INVALID_PERIOD\000"
 5442      52525F54 
 5442      4D525F49 
 5442      4E56414C 
 5442      49445F50 
 5443              	.LASF350:
 5444 0174 6F735F65 		.ascii	"os_err\000"
 5444      727200
 5445              	.LASF213:
 5446 017b 4E627245 		.ascii	"NbrEntries\000"
 5446      6E747269 
 5446      657300
 5447              	.LASF327:
 5448 0186 646F6E65 		.ascii	"done\000"
 5448      00
 5449              	.LASF61:
 5450 018b 4F535F45 		.ascii	"OS_ERR_INT_Q_SIZE\000"
 5450      52525F49 
 5450      4E545F51 
 5450      5F53495A 
 5450      4500
 5451              	.LASF45:
 5452 019d 4F535F45 		.ascii	"OS_ERR_CREATE_ISR\000"
 5452      52525F43 
 5452      52454154 
 5452      455F4953 
 5452      5200
 5453              	.LASF21:
 5454 01af 4F535F43 		.ascii	"OS_CPU_USAGE\000"
 5454      50555F55 
 5454      53414745 
 5454      00
 5455              	.LASF168:
 5456 01bc 4F535F45 		.ascii	"OS_ERR_TICK_STK_SIZE_INVALID\000"
 5456      52525F54 
 5456      49434B5F 
 5456      53544B5F 
 5456      53495A45 
 5457              	.LASF9:
 5458 01d9 4350555F 		.ascii	"CPU_INT32U\000"
 5458      494E5433 
 5458      325500
 5459              	.LASF133:
 5460 01e4 4F535F45 		.ascii	"OS_ERR_STK_INVALID\000"
 5460      52525F53 
 5460      544B5F49 
ARM GAS  C:\Users\daniel01\AppData\Local\Temp\ccxoNE0f.s 			page 119


 5460      4E56414C 
 5460      494400
 5461              	.LASF248:
 5462 01f7 466C6167 		.ascii	"FlagsOpt\000"
 5462      734F7074 
 5462      00
 5463              	.LASF149:
 5464 0200 4F535F45 		.ascii	"OS_ERR_TASK_RESUME_ISR\000"
 5464      52525F54 
 5464      41534B5F 
 5464      52455355 
 5464      4D455F49 
 5465              	.LASF103:
 5466 0217 4F535F45 		.ascii	"OS_ERR_PEND_WOULD_BLOCK\000"
 5466      52525F50 
 5466      454E445F 
 5466      574F554C 
 5466      445F424C 
 5467              	.LASF318:
 5468 022f 4F535F54 		.ascii	"OS_TmrLink\000"
 5468      6D724C69 
 5468      6E6B00
 5469              	.LASF137:
 5470 023a 4F535F45 		.ascii	"OS_ERR_TASK_CHANGE_PRIO_ISR\000"
 5470      52525F54 
 5470      41534B5F 
 5470      4348414E 
 5470      47455F50 
 5471              	.LASF298:
 5472 0256 705F6361 		.ascii	"p_callback_arg\000"
 5472      6C6C6261 
 5472      636B5F61 
 5472      726700
 5473              	.LASF317:
 5474 0265 705F7370 		.ascii	"p_spoke\000"
 5474      6F6B6500 
 5475              	.LASF127:
 5476 026d 4F535F45 		.ascii	"OS_ERR_STAT_RESET_ISR\000"
 5476      52525F53 
 5476      5441545F 
 5476      52455345 
 5476      545F4953 
 5477              	.LASF102:
 5478 0283 4F535F45 		.ascii	"OS_ERR_PEND_LOCKED\000"
 5478      52525F50 
 5478      454E445F 
 5478      4C4F434B 
 5478      454400
 5479              	.LASF29:
 5480 0296 4F535F4F 		.ascii	"OS_OBJ_QTY\000"
 5480      424A5F51 
 5480      545900
 5481              	.LASF333:
 5482 02a1 4F53546D 		.ascii	"OSTmrTaskTCB\000"
 5482      72546173 
 5482      6B544342 
 5482      00
ARM GAS  C:\Users\daniel01\AppData\Local\Temp\ccxoNE0f.s 			page 120


 5483              	.LASF147:
 5484 02ae 4F535F45 		.ascii	"OS_ERR_TASK_NOT_SUSPENDED\000"
 5484      52525F54 
 5484      41534B5F 
 5484      4E4F545F 
 5484      53555350 
 5485              	.LASF145:
 5486 02c8 4F535F45 		.ascii	"OS_ERR_TASK_NOT_DLY\000"
 5486      52525F54 
 5486      41534B5F 
 5486      4E4F545F 
 5486      444C5900 
 5487              	.LASF261:
 5488 02dc 44626750 		.ascii	"DbgPrevPtr\000"
 5488      72657650 
 5488      747200
 5489              	.LASF59:
 5490 02e7 4F535F45 		.ascii	"OS_ERR_INT_Q\000"
 5490      52525F49 
 5490      4E545F51 
 5490      00
 5491              	.LASF262:
 5492 02f4 4462674E 		.ascii	"DbgNextPtr\000"
 5492      65787450 
 5492      747200
 5493              	.LASF159:
 5494 02ff 4F535F45 		.ascii	"OS_ERR_TASK_WAITING\000"
 5494      52525F54 
 5494      41534B5F 
 5494      57414954 
 5494      494E4700 
 5495              	.LASF276:
 5496 0313 53746174 		.ascii	"State\000"
 5496      6500
 5497              	.LASF42:
 5498 0319 4F535F45 		.ascii	"OS_ERR_ACCEPT_ISR\000"
 5498      52525F41 
 5498      43434550 
 5498      545F4953 
 5498      5200
 5499              	.LASF157:
 5500 032b 4F535F45 		.ascii	"OS_ERR_TASK_SUSPEND_ISR\000"
 5500      52525F54 
 5500      41534B5F 
 5500      53555350 
 5500      454E445F 
 5501              	.LASF83:
 5502 0343 4F535F45 		.ascii	"OS_ERR_MUTEX_NESTING\000"
 5502      52525F4D 
 5502      55544558 
 5502      5F4E4553 
 5502      54494E47 
 5503              	.LASF328:
 5504 0358 74735F73 		.ascii	"ts_start\000"
 5504      74617274 
 5504      00
 5505              	.LASF185:
ARM GAS  C:\Users\daniel01\AppData\Local\Temp\ccxoNE0f.s 			page 121


 5506 0361 4F535F45 		.ascii	"OS_ERR_TMR_INVALID_STATE\000"
 5506      52525F54 
 5506      4D525F49 
 5506      4E56414C 
 5506      49445F53 
 5507              	.LASF230:
 5508 037a 50656E64 		.ascii	"PendOn\000"
 5508      4F6E00
 5509              	.LASF235:
 5510 0381 50656E64 		.ascii	"PendDataTblEntries\000"
 5510      44617461 
 5510      54626C45 
 5510      6E747269 
 5510      657300
 5511              	.LASF88:
 5512 0394 4F535F45 		.ascii	"OS_ERR_OBJ_CREATED\000"
 5512      52525F4F 
 5512      424A5F43 
 5512      52454154 
 5512      454400
 5513              	.LASF335:
 5514 03a7 4F53546D 		.ascii	"OSTmrTickCtr\000"
 5514      72546963 
 5514      6B437472 
 5514      00
 5515              	.LASF344:
 5516 03b4 4F534366 		.ascii	"OSCfg_TmrTaskStkSize\000"
 5516      675F546D 
 5516      72546173 
 5516      6B53746B 
 5516      53697A65 
 5517              	.LASF290:
 5518 03c9 5461696C 		.ascii	"TailPtr\000"
 5518      50747200 
 5519              	.LASF343:
 5520 03d1 4F534366 		.ascii	"OSCfg_TmrTaskStkLimit\000"
 5520      675F546D 
 5520      72546173 
 5520      6B53746B 
 5520      4C696D69 
 5521              	.LASF316:
 5522 03e7 4F535F54 		.ascii	"OS_TmrInit\000"
 5522      6D72496E 
 5522      697400
 5523              	.LASF155:
 5524 03f2 4F535F45 		.ascii	"OS_ERR_TASK_SUSPEND_IDLE\000"
 5524      52525F54 
 5524      41534B5F 
 5524      53555350 
 5524      454E445F 
 5525              	.LASF60:
 5526 040b 4F535F45 		.ascii	"OS_ERR_INT_Q_FULL\000"
 5526      52525F49 
 5526      4E545F51 
 5526      5F46554C 
 5526      4C00
 5527              	.LASF238:
ARM GAS  C:\Users\daniel01\AppData\Local\Temp\ccxoNE0f.s 			page 122


 5528 041d 5469636B 		.ascii	"TickCtrMatch\000"
 5528      4374724D 
 5528      61746368 
 5528      00
 5529              	.LASF305:
 5530 042a 4F53546D 		.ascii	"OSTmrStart\000"
 5530      72537461 
 5530      727400
 5531              	.LASF284:
 5532 0435 5264794D 		.ascii	"RdyMsgPtr\000"
 5532      73675074 
 5532      7200
 5533              	.LASF292:
 5534 043f 6F735F70 		.ascii	"os_pend_obj\000"
 5534      656E645F 
 5534      6F626A00 
 5535              	.LASF311:
 5536 044b 4F535F54 		.ascii	"OS_TmrClr\000"
 5536      6D72436C 
 5536      7200
 5537              	.LASF58:
 5538 0455 4F535F45 		.ascii	"OS_ERR_ILLEGAL_CREATE_RUN_TIME\000"
 5538      52525F49 
 5538      4C4C4547 
 5538      414C5F43 
 5538      52454154 
 5539              	.LASF246:
 5540 0474 466C6167 		.ascii	"FlagsPend\000"
 5540      7350656E 
 5540      6400
 5541              	.LASF183:
 5542 047e 4F535F45 		.ascii	"OS_ERR_TMR_INVALID_DLY\000"
 5542      52525F54 
 5542      4D525F49 
 5542      4E56414C 
 5542      49445F44 
 5543              	.LASF252:
 5544 0495 43747853 		.ascii	"CtxSwCtr\000"
 5544      77437472 
 5544      00
 5545              	.LASF150:
 5546 049e 4F535F45 		.ascii	"OS_ERR_TASK_RESUME_PRIO\000"
 5546      52525F54 
 5546      41534B5F 
 5546      52455355 
 5546      4D455F50 
 5547              	.LASF341:
 5548 04b6 4F534366 		.ascii	"OSCfg_TmrTaskRate_Hz\000"
 5548      675F546D 
 5548      72546173 
 5548      6B526174 
 5548      655F487A 
 5549              	.LASF32:
 5550 04cb 4F535F50 		.ascii	"OS_PRIO\000"
 5550      52494F00 
 5551              	.LASF13:
 5552 04d3 666C6F61 		.ascii	"float\000"
ARM GAS  C:\Users\daniel01\AppData\Local\Temp\ccxoNE0f.s 			page 123


 5552      7400
 5553              	.LASF308:
 5554 04d9 4F53546D 		.ascii	"OSTmrStop\000"
 5554      7253746F 
 5554      7000
 5555              	.LASF104:
 5556 04e3 4F535F45 		.ascii	"OS_ERR_POST_NULL_PTR\000"
 5556      52525F50 
 5556      4F53545F 
 5556      4E554C4C 
 5556      5F505452 
 5557              	.LASF86:
 5558 04f8 4F535F45 		.ascii	"OS_ERR_NO_MORE_ID_AVAIL\000"
 5558      52525F4E 
 5558      4F5F4D4F 
 5558      52455F49 
 5558      445F4156 
 5559              	.LASF264:
 5560 0510 4F535F54 		.ascii	"OS_TICK_SPOKE\000"
 5560      49434B5F 
 5560      53504F4B 
 5560      4500
 5561              	.LASF76:
 5562 051e 4F535F45 		.ascii	"OS_ERR_MEM_INVALID_P_DATA\000"
 5562      52525F4D 
 5562      454D5F49 
 5562      4E56414C 
 5562      49445F50 
 5563              	.LASF300:
 5564 0538 6370755F 		.ascii	"cpu_sr\000"
 5564      737200
 5565              	.LASF188:
 5566 053f 4F535F45 		.ascii	"OS_ERR_TMR_NO_CALLBACK\000"
 5566      52525F54 
 5566      4D525F4E 
 5566      4F5F4341 
 5566      4C4C4241 
 5567              	.LASF181:
 5568 0556 4F535F45 		.ascii	"OS_ERR_TMR_INACTIVE\000"
 5568      52525F54 
 5568      4D525F49 
 5568      4E414354 
 5568      49564500 
 5569              	.LASF161:
 5570 056a 4F535F45 		.ascii	"OS_ERR_TLS_ID_INVALID\000"
 5570      52525F54 
 5570      4C535F49 
 5570      445F494E 
 5570      56414C49 
 5571              	.LASF11:
 5572 0580 6C6F6E67 		.ascii	"long long unsigned int\000"
 5572      206C6F6E 
 5572      6720756E 
 5572      7369676E 
 5572      65642069 
 5573              	.LASF152:
 5574 0597 4F535F45 		.ascii	"OS_ERR_TASK_RUNNING\000"
ARM GAS  C:\Users\daniel01\AppData\Local\Temp\ccxoNE0f.s 			page 124


 5574      52525F54 
 5574      41534B5F 
 5574      52554E4E 
 5574      494E4700 
 5575              	.LASF259:
 5576 05ab 53746B55 		.ascii	"StkUsed\000"
 5576      73656400 
 5577              	.LASF186:
 5578 05b3 4F535F45 		.ascii	"OS_ERR_TMR_INVALID\000"
 5578      52525F54 
 5578      4D525F49 
 5578      4E56414C 
 5578      494400
 5579              	.LASF279:
 5580 05c6 4F535F50 		.ascii	"OS_PEND_DATA\000"
 5580      454E445F 
 5580      44415441 
 5580      00
 5581              	.LASF156:
 5582 05d3 4F535F45 		.ascii	"OS_ERR_TASK_SUSPEND_INT_HANDLER\000"
 5582      52525F54 
 5582      41534B5F 
 5582      53555350 
 5582      454E445F 
 5583              	.LASF141:
 5584 05f3 4F535F45 		.ascii	"OS_ERR_TASK_DEL_INVALID\000"
 5584      52525F54 
 5584      41534B5F 
 5584      44454C5F 
 5584      494E5641 
 5585              	.LASF274:
 5586 060b 52656D61 		.ascii	"Remain\000"
 5586      696E00
 5587              	.LASF337:
 5588 0612 4F53546D 		.ascii	"OSTmrUpdateCtr\000"
 5588      72557064 
 5588      61746543 
 5588      747200
 5589              	.LASF191:
 5590 0621 4F535F45 		.ascii	"OS_ERR_TMR_STK_INVALID\000"
 5590      52525F54 
 5590      4D525F53 
 5590      544B5F49 
 5590      4E56414C 
 5591              	.LASF297:
 5592 0638 705F6361 		.ascii	"p_callback\000"
 5592      6C6C6261 
 5592      636B00
 5593              	.LASF4:
 5594 0643 4350555F 		.ascii	"CPU_INT08U\000"
 5594      494E5430 
 5594      385500
 5595              	.LASF277:
 5596 064e 4F535F54 		.ascii	"OS_TMR_SPOKE\000"
 5596      4D525F53 
 5596      504F4B45 
 5596      00
ARM GAS  C:\Users\daniel01\AppData\Local\Temp\ccxoNE0f.s 			page 125


 5597              	.LASF208:
 5598 065b 6F735F6D 		.ascii	"os_msg\000"
 5598      736700
 5599              	.LASF160:
 5600 0662 4F535F45 		.ascii	"OS_ERR_TCB_INVALID\000"
 5600      52525F54 
 5600      43425F49 
 5600      4E56414C 
 5600      494400
 5601              	.LASF234:
 5602 0675 53746B53 		.ascii	"StkSize\000"
 5602      697A6500 
 5603              	.LASF226:
 5604 067d 53746B42 		.ascii	"StkBasePtr\000"
 5604      61736550 
 5604      747200
 5605              	.LASF309:
 5606 0688 705F666E 		.ascii	"p_fnct\000"
 5606      637400
 5607              	.LASF112:
 5608 068f 4F535F45 		.ascii	"OS_ERR_Q_EMPTY\000"
 5608      52525F51 
 5608      5F454D50 
 5608      545900
 5609              	.LASF176:
 5610 069e 4F535F45 		.ascii	"OS_ERR_TIME_INVALID_MILLISECONDS\000"
 5610      52525F54 
 5610      494D455F 
 5610      494E5641 
 5610      4C49445F 
 5611              	.LASF34:
 5612 06bf 4F535F52 		.ascii	"OS_REG\000"
 5612      454700
 5613              	.LASF85:
 5614 06c6 4F535F45 		.ascii	"OS_ERR_NAME\000"
 5614      52525F4E 
 5614      414D4500 
 5615              	.LASF37:
 5616 06d2 4F535F53 		.ascii	"OS_STATUS\000"
 5616      54415455 
 5616      5300
 5617              	.LASF232:
 5618 06dc 5461736B 		.ascii	"TaskState\000"
 5618      53746174 
 5618      6500
 5619              	.LASF165:
 5620 06e6 4F535F45 		.ascii	"OS_ERR_TLS_DESTRUCT_ASSIGNED\000"
 5620      52525F54 
 5620      4C535F44 
 5620      45535452 
 5620      5543545F 
 5621              	.LASF348:
 5622 0703 433A5C4D 		.ascii	"C:\\Micrium\\Software\\uCOS-III\\Source\\os_tmr.c\000"
 5622      69637269 
 5622      756D5C53 
 5622      6F667477 
 5622      6172655C 
ARM GAS  C:\Users\daniel01\AppData\Local\Temp\ccxoNE0f.s 			page 126


 5623              	.LASF81:
 5624 0730 4F535F45 		.ascii	"OS_ERR_MUTEX_NOT_OWNER\000"
 5624      52525F4D 
 5624      55544558 
 5624      5F4E4F54 
 5624      5F4F574E 
 5625              	.LASF27:
 5626 0747 4F535F4D 		.ascii	"OS_MSG_SIZE\000"
 5626      53475F53 
 5626      495A4500 
 5627              	.LASF173:
 5628 0753 4F535F45 		.ascii	"OS_ERR_TIME_INVALID_HOURS\000"
 5628      52525F54 
 5628      494D455F 
 5628      494E5641 
 5628      4C49445F 
 5629              	.LASF189:
 5630 076d 4F535F45 		.ascii	"OS_ERR_TMR_NON_AVAIL\000"
 5630      52525F54 
 5630      4D525F4E 
 5630      4F4E5F41 
 5630      5641494C 
 5631              	.LASF0:
 5632 0782 4350555F 		.ascii	"CPU_CHAR\000"
 5632      43484152 
 5632      00
 5633              	.LASF138:
 5634 078b 4F535F45 		.ascii	"OS_ERR_TASK_CREATE_ISR\000"
 5634      52525F54 
 5634      41534B5F 
 5634      43524541 
 5634      54455F49 
 5635              	.LASF22:
 5636 07a2 4F535F43 		.ascii	"OS_CTR\000"
 5636      545200
 5637              	.LASF278:
 5638 07a9 6F735F74 		.ascii	"os_tmr_spoke\000"
 5638      6D725F73 
 5638      706F6B65 
 5638      00
 5639              	.LASF17:
 5640 07b6 4350555F 		.ascii	"CPU_STK_SIZE\000"
 5640      53544B5F 
 5640      53495A45 
 5640      00
 5641              	.LASF26:
 5642 07c3 4F535F4D 		.ascii	"OS_MSG_QTY\000"
 5642      53475F51 
 5642      545900
 5643              	.LASF94:
 5644 07ce 4F535F45 		.ascii	"OS_ERR_OS_RUNNING\000"
 5644      52525F4F 
 5644      535F5255 
 5644      4E4E494E 
 5644      4700
 5645              	.LASF260:
 5646 07e0 53746B46 		.ascii	"StkFree\000"
ARM GAS  C:\Users\daniel01\AppData\Local\Temp\ccxoNE0f.s 			page 127


 5646      72656500 
 5647              	.LASF237:
 5648 07e8 5469636B 		.ascii	"TickCtrPrev\000"
 5648      43747250 
 5648      72657600 
 5649              	.LASF212:
 5650 07f4 4E627245 		.ascii	"NbrEntriesSize\000"
 5650      6E747269 
 5650      65735369 
 5650      7A6500
 5651              	.LASF314:
 5652 0803 705F746D 		.ascii	"p_tmr_next\000"
 5652      725F6E65 
 5652      787400
 5653              	.LASF179:
 5654 080e 4F535F45 		.ascii	"OS_ERR_TIME_ZERO_DLY\000"
 5654      52525F54 
 5654      494D455F 
 5654      5A45524F 
 5654      5F444C59 
 5655              	.LASF223:
 5656 0823 5469636B 		.ascii	"TickPrevPtr\000"
 5656      50726576 
 5656      50747200 
 5657              	.LASF247:
 5658 082f 466C6167 		.ascii	"FlagsRdy\000"
 5658      73526479 
 5658      00
 5659              	.LASF129:
 5660 0838 4F535F45 		.ascii	"OS_ERR_STAT_STK_INVALID\000"
 5660      52525F53 
 5660      5441545F 
 5660      53544B5F 
 5660      494E5641 
 5661              	.LASF51:
 5662 0850 4F535F45 		.ascii	"OS_ERR_FLAG_GRP_DEPLETED\000"
 5662      52525F46 
 5662      4C41475F 
 5662      4752505F 
 5662      4445504C 
 5663              	.LASF72:
 5664 0869 4F535F45 		.ascii	"OS_ERR_MEM_INVALID_BLKS\000"
 5664      52525F4D 
 5664      454D5F49 
 5664      4E56414C 
 5664      49445F42 
 5665              	.LASF271:
 5666 0881 43616C6C 		.ascii	"CallbackPtr\000"
 5666      6261636B 
 5666      50747200 
 5667              	.LASF244:
 5668 088d 4D736751 		.ascii	"MsgQPendTimeMax\000"
 5668      50656E64 
 5668      54696D65 
 5668      4D617800 
 5669              	.LASF243:
 5670 089d 4D736751 		.ascii	"MsgQPendTime\000"
ARM GAS  C:\Users\daniel01\AppData\Local\Temp\ccxoNE0f.s 			page 128


 5670      50656E64 
 5670      54696D65 
 5670      00
 5671              	.LASF202:
 5672 08aa 4F535F4D 		.ascii	"OS_MSG\000"
 5672      534700
 5673              	.LASF295:
 5674 08b1 705F6E61 		.ascii	"p_name\000"
 5674      6D6500
 5675              	.LASF182:
 5676 08b8 4F535F45 		.ascii	"OS_ERR_TMR_INVALID_DEST\000"
 5676      52525F54 
 5676      4D525F49 
 5676      4E56414C 
 5676      49445F44 
 5677              	.LASF121:
 5678 08d0 4F535F45 		.ascii	"OS_ERR_SCHED_LOCK_ISR\000"
 5678      52525F53 
 5678      43484544 
 5678      5F4C4F43 
 5678      4B5F4953 
 5679              	.LASF342:
 5680 08e6 4F534366 		.ascii	"OSCfg_TmrTaskStkBasePtr\000"
 5680      675F546D 
 5680      72546173 
 5680      6B53746B 
 5680      42617365 
 5681              	.LASF47:
 5682 08fe 4F535F45 		.ascii	"OS_ERR_DEL_ISR\000"
 5682      52525F44 
 5682      454C5F49 
 5682      535200
 5683              	.LASF299:
 5684 090d 705F6572 		.ascii	"p_err\000"
 5684      7200
 5685              	.LASF310:
 5686 0913 4F53546D 		.ascii	"OSTmrCreate\000"
 5686      72437265 
 5686      61746500 
 5687              	.LASF113:
 5688 091f 4F535F45 		.ascii	"OS_ERR_Q_MAX\000"
 5688      52525F51 
 5688      5F4D4158 
 5688      00
 5689              	.LASF221:
 5690 092c 50726576 		.ascii	"PrevPtr\000"
 5690      50747200 
 5691              	.LASF2:
 5692 0934 63686172 		.ascii	"char\000"
 5692      00
 5693              	.LASF30:
 5694 0939 4F535F4F 		.ascii	"OS_OBJ_TYPE\000"
 5694      424A5F54 
 5694      59504500 
 5695              	.LASF164:
 5696 0945 4F535F45 		.ascii	"OS_ERR_TLS_NOT_EN\000"
 5696      52525F54 
ARM GAS  C:\Users\daniel01\AppData\Local\Temp\ccxoNE0f.s 			page 129


 5696      4C535F4E 
 5696      4F545F45 
 5696      4E00
 5697              	.LASF92:
 5698 0957 4F535F45 		.ascii	"OS_ERR_OPT_INVALID\000"
 5698      52525F4F 
 5698      50545F49 
 5698      4E56414C 
 5698      494400
 5699              	.LASF18:
 5700 096a 4350555F 		.ascii	"CPU_SR\000"
 5700      535200
 5701              	.LASF39:
 5702 0971 4F535F54 		.ascii	"OS_TMR_SPOKE_IX\000"
 5702      4D525F53 
 5702      504F4B45 
 5702      5F495800 
 5703              	.LASF315:
 5704 0981 705F746D 		.ascii	"p_tmr_prev\000"
 5704      725F7072 
 5704      657600
 5705              	.LASF120:
 5706 098c 4F535F45 		.ascii	"OS_ERR_SCHED_INVALID_TIME_SLICE\000"
 5706      52525F53 
 5706      43484544 
 5706      5F494E56 
 5706      414C4944 
 5707              	.LASF242:
 5708 09ac 4D736751 		.ascii	"MsgQ\000"
 5708      00
 5709              	.LASF33:
 5710 09b1 4F535F52 		.ascii	"OS_RATE_HZ\000"
 5710      4154455F 
 5710      485A00
 5711              	.LASF227:
 5712 09bc 5461736B 		.ascii	"TaskEntryAddr\000"
 5712      456E7472 
 5712      79416464 
 5712      7200
 5713              	.LASF128:
 5714 09ca 4F535F45 		.ascii	"OS_ERR_STAT_PRIO_INVALID\000"
 5714      52525F53 
 5714      5441545F 
 5714      5052494F 
 5714      5F494E56 
 5715              	.LASF177:
 5716 09e3 4F535F45 		.ascii	"OS_ERR_TIME_NOT_DLY\000"
 5716      52525F54 
 5716      494D455F 
 5716      4E4F545F 
 5716      444C5900 
 5717              	.LASF225:
 5718 09f7 4E616D65 		.ascii	"NamePtr\000"
 5718      50747200 
 5719              	.LASF231:
 5720 09ff 50656E64 		.ascii	"PendStatus\000"
 5720      53746174 
ARM GAS  C:\Users\daniel01\AppData\Local\Temp\ccxoNE0f.s 			page 130


 5720      757300
 5721              	.LASF207:
 5722 0a0a 4F535F4D 		.ascii	"OS_MSG_Q\000"
 5722      53475F51 
 5722      00
 5723              	.LASF241:
 5724 0a13 54696D65 		.ascii	"TimeQuantaCtr\000"
 5724      5175616E 
 5724      74614374 
 5724      7200
 5725              	.LASF199:
 5726 0a21 4F535F45 		.ascii	"OS_ERR_YIELD_ISR\000"
 5726      52525F59 
 5726      49454C44 
 5726      5F495352 
 5726      00
 5727              	.LASF89:
 5728 0a32 4F535F45 		.ascii	"OS_ERR_OBJ_DEL\000"
 5728      52525F4F 
 5728      424A5F44 
 5728      454C00
 5729              	.LASF20:
 5730 0a41 4350555F 		.ascii	"CPU_TS\000"
 5730      545300
 5731              	.LASF12:
 5732 0a48 6C6F6E67 		.ascii	"long long int\000"
 5732      206C6F6E 
 5732      6720696E 
 5732      7400
 5733              	.LASF53:
 5734 0a56 4F535F45 		.ascii	"OS_ERR_FLAG_PEND_OPT\000"
 5734      52525F46 
 5734      4C41475F 
 5734      50454E44 
 5734      5F4F5054 
 5735              	.LASF218:
 5736 0a6b 53746B50 		.ascii	"StkPtr\000"
 5736      747200
 5737              	.LASF324:
 5738 0a72 705F746D 		.ascii	"p_tmr2\000"
 5738      723200
 5739              	.LASF265:
 5740 0a79 6F735F74 		.ascii	"os_tick_spoke\000"
 5740      69636B5F 
 5740      73706F6B 
 5740      6500
 5741              	.LASF114:
 5742 0a87 4F535F45 		.ascii	"OS_ERR_Q_SIZE\000"
 5742      52525F51 
 5742      5F53495A 
 5742      4500
 5743              	.LASF254:
 5744 0a95 4379636C 		.ascii	"CyclesStart\000"
 5744      65735374 
 5744      61727400 
 5745              	.LASF321:
 5746 0aa1 73706F6B 		.ascii	"spoke\000"
ARM GAS  C:\Users\daniel01\AppData\Local\Temp\ccxoNE0f.s 			page 131


 5746      6500
 5747              	.LASF275:
 5748 0aa7 50657269 		.ascii	"Period\000"
 5748      6F6400
 5749              	.LASF312:
 5750 0aae 4F535F54 		.ascii	"OS_TmrDbgListAdd\000"
 5750      6D724462 
 5750      674C6973 
 5750      74416464 
 5750      00
 5751              	.LASF281:
 5752 0abf 54434250 		.ascii	"TCBPtr\000"
 5752      747200
 5753              	.LASF99:
 5754 0ac6 4F535F45 		.ascii	"OS_ERR_PEND_ABORT_SELF\000"
 5754      52525F50 
 5754      454E445F 
 5754      41424F52 
 5754      545F5345 
 5755              	.LASF6:
 5756 0add 4350555F 		.ascii	"CPU_INT16U\000"
 5756      494E5431 
 5756      365500
 5757              	.LASF118:
 5758 0ae8 4F535F45 		.ascii	"OS_ERR_ROUND_ROBIN_DISABLED\000"
 5758      52525F52 
 5758      4F554E44 
 5758      5F524F42 
 5758      494E5F44 
 5759              	.LASF73:
 5760 0b04 4F535F45 		.ascii	"OS_ERR_MEM_INVALID_PART\000"
 5760      52525F4D 
 5760      454D5F49 
 5760      4E56414C 
 5760      49445F50 
 5761              	.LASF90:
 5762 0b1c 4F535F45 		.ascii	"OS_ERR_OBJ_PTR_NULL\000"
 5762      52525F4F 
 5762      424A5F50 
 5762      54525F4E 
 5762      554C4C00 
 5763              	.LASF116:
 5764 0b30 4F535F45 		.ascii	"OS_ERR_REG_ID_INVALID\000"
 5764      52525F52 
 5764      45475F49 
 5764      445F494E 
 5764      56414C49 
 5765              	.LASF38:
 5766 0b46 4F535F54 		.ascii	"OS_TICK\000"
 5766      49434B00 
 5767              	.LASF70:
 5768 0b4e 4F535F45 		.ascii	"OS_ERR_MEM_FULL\000"
 5768      52525F4D 
 5768      454D5F46 
 5768      554C4C00 
 5769              	.LASF144:
 5770 0b5e 4F535F45 		.ascii	"OS_ERR_TASK_NO_MORE_TCB\000"
ARM GAS  C:\Users\daniel01\AppData\Local\Temp\ccxoNE0f.s 			page 132


 5770      52525F54 
 5770      41534B5F 
 5770      4E4F5F4D 
 5770      4F52455F 
 5771              	.LASF75:
 5772 0b76 4F535F45 		.ascii	"OS_ERR_MEM_INVALID_P_MEM\000"
 5772      52525F4D 
 5772      454D5F49 
 5772      4E56414C 
 5772      49445F50 
 5773              	.LASF19:
 5774 0b8f 4350555F 		.ascii	"CPU_TS32\000"
 5774      54533332 
 5774      00
 5775              	.LASF249:
 5776 0b98 53757370 		.ascii	"SuspendCtr\000"
 5776      656E6443 
 5776      747200
 5777              	.LASF220:
 5778 0ba3 53746B4C 		.ascii	"StkLimitPtr\000"
 5778      696D6974 
 5778      50747200 
 5779              	.LASF253:
 5780 0baf 4379636C 		.ascii	"CyclesDelta\000"
 5780      65734465 
 5780      6C746100 
 5781              	.LASF35:
 5782 0bbb 4F535F53 		.ascii	"OS_SEM_CTR\000"
 5782      454D5F43 
 5782      545200
 5783              	.LASF192:
 5784 0bc6 4F535F45 		.ascii	"OS_ERR_TMR_STK_SIZE_INVALID\000"
 5784      52525F54 
 5784      4D525F53 
 5784      544B5F53 
 5784      495A455F 
 5785              	.LASF169:
 5786 0be2 4F535F45 		.ascii	"OS_ERR_TICK_WHEEL_SIZE\000"
 5786      52525F54 
 5786      49434B5F 
 5786      57484545 
 5786      4C5F5349 
 5787              	.LASF222:
 5788 0bf9 5469636B 		.ascii	"TickNextPtr\000"
 5788      4E657874 
 5788      50747200 
 5789              	.LASF146:
 5790 0c05 4F535F45 		.ascii	"OS_ERR_TASK_NOT_EXIST\000"
 5790      52525F54 
 5790      41534B5F 
 5790      4E4F545F 
 5790      45584953 
 5791              	.LASF338:
 5792 0c1b 4F534366 		.ascii	"OSCfg_StkSizeMin\000"
 5792      675F5374 
 5792      6B53697A 
 5792      654D696E 
ARM GAS  C:\Users\daniel01\AppData\Local\Temp\ccxoNE0f.s 			page 133


 5792      00
 5793              	.LASF143:
 5794 0c2c 4F535F45 		.ascii	"OS_ERR_TASK_INVALID\000"
 5794      52525F54 
 5794      41534B5F 
 5794      494E5641 
 5794      4C494400 
 5795              	.LASF190:
 5796 0c40 4F535F45 		.ascii	"OS_ERR_TMR_PRIO_INVALID\000"
 5796      52525F54 
 5796      4D525F50 
 5796      52494F5F 
 5796      494E5641 
 5797              	.LASF158:
 5798 0c58 4F535F45 		.ascii	"OS_ERR_TASK_SUSPEND_PRIO\000"
 5798      52525F54 
 5798      41534B5F 
 5798      53555350 
 5798      454E445F 
 5799              	.LASF346:
 5800 0c71 4F534366 		.ascii	"OSCfg_TmrWheel\000"
 5800      675F546D 
 5800      72576865 
 5800      656C00
 5801              	.LASF283:
 5802 0c80 5264794F 		.ascii	"RdyObjPtr\000"
 5802      626A5074 
 5802      7200
 5803              	.LASF63:
 5804 0c8a 4F535F45 		.ascii	"OS_ERR_INT_Q_STK_SIZE_INVALID\000"
 5804      52525F49 
 5804      4E545F51 
 5804      5F53544B 
 5804      5F53495A 
 5805              	.LASF162:
 5806 0ca8 4F535F45 		.ascii	"OS_ERR_TLS_ISR\000"
 5806      52525F54 
 5806      4C535F49 
 5806      535200
 5807              	.LASF142:
 5808 0cb7 4F535F45 		.ascii	"OS_ERR_TASK_DEL_ISR\000"
 5808      52525F54 
 5808      41534B5F 
 5808      44454C5F 
 5808      49535200 
 5809              	.LASF257:
 5810 0ccb 53656D50 		.ascii	"SemPendTime\000"
 5810      656E6454 
 5810      696D6500 
 5811              	.LASF109:
 5812 0cd7 4F535F45 		.ascii	"OS_ERR_PTR_INVALID\000"
 5812      52525F50 
 5812      54525F49 
 5812      4E56414C 
 5812      494400
 5813              	.LASF131:
 5814 0cea 4F535F45 		.ascii	"OS_ERR_STATE_INVALID\000"
ARM GAS  C:\Users\daniel01\AppData\Local\Temp\ccxoNE0f.s 			page 134


 5814      52525F53 
 5814      54415445 
 5814      5F494E56 
 5814      414C4944 
 5815              	.LASF203:
 5816 0cff 4E657874 		.ascii	"NextPtr\000"
 5816      50747200 
 5817              	.LASF93:
 5818 0d07 4F535F45 		.ascii	"OS_ERR_OS_NOT_RUNNING\000"
 5818      52525F4F 
 5818      535F4E4F 
 5818      545F5255 
 5818      4E4E494E 
 5819              	.LASF268:
 5820 0d1d 4F535F54 		.ascii	"OS_TMR\000"
 5820      4D5200
 5821              	.LASF330:
 5822 0d24 4F53496E 		.ascii	"OSIntNestingCtr\000"
 5822      744E6573 
 5822      74696E67 
 5822      43747200 
 5823              	.LASF304:
 5824 0d34 72656D61 		.ascii	"remain\000"
 5824      696E00
 5825              	.LASF178:
 5826 0d3b 4F535F45 		.ascii	"OS_ERR_TIME_SET_ISR\000"
 5826      52525F54 
 5826      494D455F 
 5826      5345545F 
 5826      49535200 
 5827              	.LASF117:
 5828 0d4f 4F535F45 		.ascii	"OS_ERR_ROUND_ROBIN_1\000"
 5828      52525F52 
 5828      4F554E44 
 5828      5F524F42 
 5828      494E5F31 
 5829              	.LASF74:
 5830 0d64 4F535F45 		.ascii	"OS_ERR_MEM_INVALID_P_BLK\000"
 5830      52525F4D 
 5830      454D5F49 
 5830      4E56414C 
 5830      49445F50 
 5831              	.LASF71:
 5832 0d7d 4F535F45 		.ascii	"OS_ERR_MEM_INVALID_P_ADDR\000"
 5832      52525F4D 
 5832      454D5F49 
 5832      4E56414C 
 5832      49445F50 
 5833              	.LASF286:
 5834 0d97 52647954 		.ascii	"RdyTS\000"
 5834      5300
 5835              	.LASF67:
 5836 0d9d 4F535F45 		.ascii	"OS_ERR_LOCK_NESTING_OVF\000"
 5836      52525F4C 
 5836      4F434B5F 
 5836      4E455354 
 5836      494E475F 
ARM GAS  C:\Users\daniel01\AppData\Local\Temp\ccxoNE0f.s 			page 135


 5837              	.LASF153:
 5838 0db5 4F535F45 		.ascii	"OS_ERR_TASK_STK_CHK_ISR\000"
 5838      52525F54 
 5838      41534B5F 
 5838      53544B5F 
 5838      43484B5F 
 5839              	.LASF8:
 5840 0dcd 73686F72 		.ascii	"short int\000"
 5840      7420696E 
 5840      7400
 5841              	.LASF285:
 5842 0dd7 5264794D 		.ascii	"RdyMsgSize\000"
 5842      73675369 
 5842      7A6500
 5843              	.LASF269:
 5844 0de2 6F735F74 		.ascii	"os_tmr\000"
 5844      6D7200
 5845              	.LASF79:
 5846 0de9 4F535F45 		.ascii	"OS_ERR_MSG_POOL_EMPTY\000"
 5846      52525F4D 
 5846      53475F50 
 5846      4F4F4C5F 
 5846      454D5054 
 5847              	.LASF124:
 5848 0dff 4F535F45 		.ascii	"OS_ERR_SCHED_UNLOCK_ISR\000"
 5848      52525F53 
 5848      43484544 
 5848      5F554E4C 
 5848      4F434B5F 
 5849              	.LASF258:
 5850 0e17 53656D50 		.ascii	"SemPendTimeMax\000"
 5850      656E6454 
 5850      696D654D 
 5850      617800
 5851              	.LASF267:
 5852 0e26 4F535F54 		.ascii	"OS_TMR_CALLBACK_PTR\000"
 5852      4D525F43 
 5852      414C4C42 
 5852      41434B5F 
 5852      50545200 
 5853              	.LASF256:
 5854 0e3a 4379636C 		.ascii	"CyclesTotalPrev\000"
 5854      6573546F 
 5854      74616C50 
 5854      72657600 
 5855              	.LASF167:
 5856 0e4a 4F535F45 		.ascii	"OS_ERR_TICK_STK_INVALID\000"
 5856      52525F54 
 5856      49434B5F 
 5856      53544B5F 
 5856      494E5641 
 5857              	.LASF80:
 5858 0e62 4F535F45 		.ascii	"OS_ERR_MSG_POOL_NULL_PTR\000"
 5858      52525F4D 
 5858      53475F50 
 5858      4F4F4C5F 
 5858      4E554C4C 
ARM GAS  C:\Users\daniel01\AppData\Local\Temp\ccxoNE0f.s 			page 136


 5859              	.LASF28:
 5860 0e7b 4F535F4E 		.ascii	"OS_NESTING_CTR\000"
 5860      45535449 
 5860      4E475F43 
 5860      545200
 5861              	.LASF255:
 5862 0e8a 4379636C 		.ascii	"CyclesTotal\000"
 5862      6573546F 
 5862      74616C00 
 5863              	.LASF291:
 5864 0e96 4F535F50 		.ascii	"OS_PEND_OBJ\000"
 5864      454E445F 
 5864      4F424A00 
 5865              	.LASF151:
 5866 0ea2 4F535F45 		.ascii	"OS_ERR_TASK_RESUME_SELF\000"
 5866      52525F54 
 5866      41534B5F 
 5866      52455355 
 5866      4D455F53 
 5867              	.LASF251:
 5868 0eba 43505555 		.ascii	"CPUUsageMax\000"
 5868      73616765 
 5868      4D617800 
 5869              	.LASF293:
 5870 0ec6 50656E64 		.ascii	"PendList\000"
 5870      4C697374 
 5870      00
 5871              	.LASF91:
 5872 0ecf 4F535F45 		.ascii	"OS_ERR_OBJ_TYPE\000"
 5872      52525F4F 
 5872      424A5F54 
 5872      59504500 
 5873              	.LASF229:
 5874 0edf 50656E64 		.ascii	"PendDataTblPtr\000"
 5874      44617461 
 5874      54626C50 
 5874      747200
 5875              	.LASF236:
 5876 0eee 53656D43 		.ascii	"SemCtr\000"
 5876      747200
 5877              	.LASF210:
 5878 0ef5 496E5074 		.ascii	"InPtr\000"
 5878      7200
 5879              	.LASF239:
 5880 0efb 5469636B 		.ascii	"TickRemain\000"
 5880      52656D61 
 5880      696E00
 5881              	.LASF289:
 5882 0f06 48656164 		.ascii	"HeadPtr\000"
 5882      50747200 
 5883              	.LASF301:
 5884 0f0e 73756363 		.ascii	"success\000"
 5884      65737300 
 5885              	.LASF98:
 5886 0f16 4F535F45 		.ascii	"OS_ERR_PEND_ABORT_NONE\000"
 5886      52525F50 
 5886      454E445F 
ARM GAS  C:\Users\daniel01\AppData\Local\Temp\ccxoNE0f.s 			page 137


 5886      41424F52 
 5886      545F4E4F 
 5887              	.LASF10:
 5888 0f2d 756E7369 		.ascii	"unsigned int\000"
 5888      676E6564 
 5888      20696E74 
 5888      00
 5889              	.LASF323:
 5890 0f3a 4F535F54 		.ascii	"OS_TmrUnlink\000"
 5890      6D72556E 
 5890      6C696E6B 
 5890      00
 5891              	.LASF205:
 5892 0f47 4D736753 		.ascii	"MsgSize\000"
 5892      697A6500 
 5893              	.LASF82:
 5894 0f4f 4F535F45 		.ascii	"OS_ERR_MUTEX_OWNER\000"
 5894      52525F4D 
 5894      55544558 
 5894      5F4F574E 
 5894      455200
 5895              	.LASF266:
 5896 0f62 46697273 		.ascii	"FirstPtr\000"
 5896      74507472 
 5896      00
 5897              	.LASF130:
 5898 0f6b 4F535F45 		.ascii	"OS_ERR_STAT_STK_SIZE_INVALID\000"
 5898      52525F53 
 5898      5441545F 
 5898      53544B5F 
 5898      53495A45 
 5899              	.LASF52:
 5900 0f88 4F535F45 		.ascii	"OS_ERR_FLAG_NOT_RDY\000"
 5900      52525F46 
 5900      4C41475F 
 5900      4E4F545F 
 5900      52445900 
 5901              	.LASF326:
 5902 0f9c 705F6172 		.ascii	"p_arg\000"
 5902      6700
 5903              	.LASF219:
 5904 0fa2 45787450 		.ascii	"ExtPtr\000"
 5904      747200
 5905              	.LASF270:
 5906 0fa9 54797065 		.ascii	"Type\000"
 5906      00
 5907              	.LASF97:
 5908 0fae 4F535F45 		.ascii	"OS_ERR_PEND_ABORT_ISR\000"
 5908      52525F50 
 5908      454E445F 
 5908      41424F52 
 5908      545F4953 
 5909              	.LASF15:
 5910 0fc4 4350555F 		.ascii	"CPU_ADDR\000"
 5910      41444452 
 5910      00
 5911              	.LASF105:
ARM GAS  C:\Users\daniel01\AppData\Local\Temp\ccxoNE0f.s 			page 138


 5912 0fcd 4F535F45 		.ascii	"OS_ERR_POST_ISR\000"
 5912      52525F50 
 5912      4F53545F 
 5912      49535200 
 5913              	.LASF170:
 5914 0fdd 4F535F45 		.ascii	"OS_ERR_TIME_DLY_ISR\000"
 5914      52525F54 
 5914      494D455F 
 5914      444C595F 
 5914      49535200 
 5915              	.LASF135:
 5916 0ff1 4F535F45 		.ascii	"OS_ERR_STK_LIMIT_INVALID\000"
 5916      52525F53 
 5916      544B5F4C 
 5916      494D4954 
 5916      5F494E56 
 5917              	.LASF313:
 5918 100a 4F535F54 		.ascii	"OS_TmrDbgListRemove\000"
 5918      6D724462 
 5918      674C6973 
 5918      7452656D 
 5918      6F766500 
 5919              	.LASF1:
 5920 101e 4350555F 		.ascii	"CPU_BOOLEAN\000"
 5920      424F4F4C 
 5920      45414E00 
 5921              	.LASF24:
 5922 102a 4F535F43 		.ascii	"OS_CYCLES\000"
 5922      59434C45 
 5922      5300
 5923              	.LASF216:
 5924 1034 4F535F54 		.ascii	"OS_TCB\000"
 5924      434200
 5925              	.LASF134:
 5926 103b 4F535F45 		.ascii	"OS_ERR_STK_SIZE_INVALID\000"
 5926      52525F53 
 5926      544B5F53 
 5926      495A455F 
 5926      494E5641 
 5927              	.LASF302:
 5928 1053 4F53546D 		.ascii	"OSTmrDel\000"
 5928      7244656C 
 5928      00
 5929              	.LASF340:
 5930 105c 4F534366 		.ascii	"OSCfg_TmrTaskPrio\000"
 5930      675F546D 
 5930      72546173 
 5930      6B507269 
 5930      6F00
 5931              	.LASF193:
 5932 106e 4F535F45 		.ascii	"OS_ERR_TMR_STOPPED\000"
 5932      52525F54 
 5932      4D525F53 
 5932      544F5050 
 5932      454400
 5933              	.LASF3:
 5934 1081 756E7369 		.ascii	"unsigned char\000"
ARM GAS  C:\Users\daniel01\AppData\Local\Temp\ccxoNE0f.s 			page 139


 5934      676E6564 
 5934      20636861 
 5934      7200
 5935              	.LASF148:
 5936 108f 4F535F45 		.ascii	"OS_ERR_TASK_OPT\000"
 5936      52525F54 
 5936      41534B5F 
 5936      4F505400 
 5937              	.LASF180:
 5938 109f 4F535F45 		.ascii	"OS_ERR_TIMEOUT\000"
 5938      52525F54 
 5938      494D454F 
 5938      555400
 5939              	.LASF334:
 5940 10ae 4F53546D 		.ascii	"OSTmrTaskTimeMax\000"
 5940      72546173 
 5940      6B54696D 
 5940      654D6178 
 5940      00
 5941              	.LASF36:
 5942 10bf 4F535F53 		.ascii	"OS_STATE\000"
 5942      54415445 
 5942      00
 5943              	.LASF31:
 5944 10c8 4F535F4F 		.ascii	"OS_OPT\000"
 5944      505400
 5945              	.LASF215:
 5946 10cf 4F535F54 		.ascii	"OS_TASK_PTR\000"
 5946      41534B5F 
 5946      50545200 
 5947              	.LASF332:
 5948 10db 4F53546D 		.ascii	"OSTmrQty\000"
 5948      72517479 
 5948      00
 5949              	.LASF69:
 5950 10e4 4F535F45 		.ascii	"OS_ERR_MEM_CREATE_ISR\000"
 5950      52525F4D 
 5950      454D5F43 
 5950      52454154 
 5950      455F4953 
 5951              	.LASF132:
 5952 10fa 4F535F45 		.ascii	"OS_ERR_STATUS_INVALID\000"
 5952      52525F53 
 5952      54415455 
 5952      535F494E 
 5952      56414C49 
 5953              	.LASF198:
 5954 1110 4F535F45 		.ascii	"OS_ERR_Y\000"
 5954      52525F59 
 5954      00
 5955              	.LASF101:
 5956 1119 4F535F45 		.ascii	"OS_ERR_PEND_ISR\000"
 5956      52525F50 
 5956      454E445F 
 5956      49535200 
 5957              	.LASF200:
 5958 1129 4F535F45 		.ascii	"OS_ERR_Z\000"
ARM GAS  C:\Users\daniel01\AppData\Local\Temp\ccxoNE0f.s 			page 140


 5958      52525F5A 
 5958      00
 5959              	.LASF224:
 5960 1132 5469636B 		.ascii	"TickSpokePtr\000"
 5960      53706F6B 
 5960      65507472 
 5960      00
 5961              	.LASF263:
 5962 113f 4462674E 		.ascii	"DbgNamePtr\000"
 5962      616D6550 
 5962      747200
 5963              	.LASF211:
 5964 114a 4F757450 		.ascii	"OutPtr\000"
 5964      747200
 5965              	.LASF228:
 5966 1151 5461736B 		.ascii	"TaskEntryArg\000"
 5966      456E7472 
 5966      79417267 
 5966      00
 5967              	.LASF111:
 5968 115e 4F535F45 		.ascii	"OS_ERR_Q_FULL\000"
 5968      52525F51 
 5968      5F46554C 
 5968      4C00
 5969              	.LASF307:
 5970 116c 73746174 		.ascii	"state\000"
 5970      6500
 5971              	.LASF336:
 5972 1172 4F53546D 		.ascii	"OSTmrUpdateCnt\000"
 5972      72557064 
 5972      61746543 
 5972      6E7400
 5973              	.LASF319:
 5974 1181 705F746D 		.ascii	"p_tmr0\000"
 5974      723000
 5975              	.LASF320:
 5976 1188 705F746D 		.ascii	"p_tmr1\000"
 5976      723100
 5977              	.LASF62:
 5978 118f 4F535F45 		.ascii	"OS_ERR_INT_Q_STK_INVALID\000"
 5978      52525F49 
 5978      4E545F51 
 5978      5F53544B 
 5978      5F494E56 
 5979              	.LASF175:
 5980 11a8 4F535F45 		.ascii	"OS_ERR_TIME_INVALID_SECONDS\000"
 5980      52525F54 
 5980      494D455F 
 5980      494E5641 
 5980      4C49445F 
 5981              	.LASF139:
 5982 11c4 4F535F45 		.ascii	"OS_ERR_TASK_DEL\000"
 5982      52525F54 
 5982      41534B5F 
 5982      44454C00 
 5983              	.LASF287:
 5984 11d4 4F535F50 		.ascii	"OS_PEND_LIST\000"
ARM GAS  C:\Users\daniel01\AppData\Local\Temp\ccxoNE0f.s 			page 141


 5984      454E445F 
 5984      4C495354 
 5984      00
 5985              	.LASF331:
 5986 11e1 4F53546D 		.ascii	"OSTmrDbgListPtr\000"
 5986      72446267 
 5986      4C697374 
 5986      50747200 
 5987              	.LASF5:
 5988 11f1 7369676E 		.ascii	"signed char\000"
 5988      65642063 
 5988      68617200 
 5989              	.LASF296:
 5990 11fd 70657269 		.ascii	"period\000"
 5990      6F6400
 5991              	.LASF206:
 5992 1204 4D736754 		.ascii	"MsgTS\000"
 5992      5300
 5993              	.LASF50:
 5994 120a 4F535F45 		.ascii	"OS_ERR_FATAL_RETURN\000"
 5994      52525F46 
 5994      4154414C 
 5994      5F524554 
 5994      55524E00 
 5995              	.LASF7:
 5996 121e 73686F72 		.ascii	"short unsigned int\000"
 5996      7420756E 
 5996      7369676E 
 5996      65642069 
 5996      6E7400
 5997              	.LASF25:
 5998 1231 4F535F46 		.ascii	"OS_FLAGS\000"
 5998      4C414753 
 5998      00
 5999              	.LASF204:
 6000 123a 4D736750 		.ascii	"MsgPtr\000"
 6000      747200
 6001              	.LASF163:
 6002 1241 4F535F45 		.ascii	"OS_ERR_TLS_NO_MORE_AVAIL\000"
 6002      52525F54 
 6002      4C535F4E 
 6002      4F5F4D4F 
 6002      52455F41 
 6003              	.LASF40:
 6004 125a 4F535F45 		.ascii	"OS_ERR_NONE\000"
 6004      52525F4E 
 6004      4F4E4500 
 6005              	.LASF306:
 6006 1266 4F53546D 		.ascii	"OSTmrStateGet\000"
 6006      72537461 
 6006      74654765 
 6006      7400
 6007              	.LASF280:
 6008 1274 6F735F70 		.ascii	"os_pend_data\000"
 6008      656E645F 
 6008      64617461 
 6008      00
ARM GAS  C:\Users\daniel01\AppData\Local\Temp\ccxoNE0f.s 			page 142


 6009              	.LASF122:
 6010 1281 4F535F45 		.ascii	"OS_ERR_SCHED_LOCKED\000"
 6010      52525F53 
 6010      43484544 
 6010      5F4C4F43 
 6010      4B454400 
 6011              	.LASF54:
 6012 1295 4F535F45 		.ascii	"OS_ERR_FLUSH_ISR\000"
 6012      52525F46 
 6012      4C555348 
 6012      5F495352 
 6012      00
 6013              	.LASF233:
 6014 12a6 5072696F 		.ascii	"Prio\000"
 6014      00
 6015              	.LASF329:
 6016 12ab 74735F65 		.ascii	"ts_end\000"
 6016      6E6400
 6017              	.LASF14:
 6018 12b2 646F7562 		.ascii	"double\000"
 6018      6C6500
 6019              	.LASF96:
 6020 12b9 4F535F45 		.ascii	"OS_ERR_PEND_ABORT\000"
 6020      52525F50 
 6020      454E445F 
 6020      41424F52 
 6020      5400
 6021              	.LASF250:
 6022 12cb 43505555 		.ascii	"CPUUsage\000"
 6022      73616765 
 6022      00
 6023              	.LASF123:
 6024 12d4 4F535F45 		.ascii	"OS_ERR_SCHED_NOT_LOCKED\000"
 6024      52525F53 
 6024      43484544 
 6024      5F4E4F54 
 6024      5F4C4F43 
 6025              	.LASF107:
 6026 12ec 4F535F45 		.ascii	"OS_ERR_PRIO\000"
 6026      52525F50 
 6026      52494F00 
 6027              	.LASF345:
 6028 12f8 4F534366 		.ascii	"OSCfg_TmrWheelSize\000"
 6028      675F546D 
 6028      72576865 
 6028      656C5369 
 6028      7A6500
 6029              	.LASF100:
 6030 130b 4F535F45 		.ascii	"OS_ERR_PEND_DEL\000"
 6030      52525F50 
 6030      454E445F 
 6030      44454C00 
 6031              	.LASF282:
 6032 131b 50656E64 		.ascii	"PendObjPtr\000"
 6032      4F626A50 
 6032      747200
 6033              	.LASF349:
ARM GAS  C:\Users\daniel01\AppData\Local\Temp\ccxoNE0f.s 			page 143


 6034 1326 433A5C55 		.ascii	"C:\\Users\\daniel01\\Desktop\\CY8CKIT-050_uCOS-III\\"
 6034      73657273 
 6034      5C64616E 
 6034      69656C30 
 6034      315C4465 
 6035 1355 43593843 		.ascii	"CY8CKIT-050_uCOS-III\\Micrium\\Software\\EvalBoards"
 6035      4B49542D 
 6035      3035305F 
 6035      75434F53 
 6035      2D494949 
 6036 1385 5C437970 		.ascii	"\\Cypress\\CY8CKIT-050\\PSoC\\uCOS-III-Probe\\uCOS-"
 6036      72657373 
 6036      5C435938 
 6036      434B4954 
 6036      2D303530 
 6037 13b3 4949492D 		.ascii	"III-Probe.cydsn\000"
 6037      50726F62 
 6037      652E6379 
 6037      64736E00 
 6038              	.LASF214:
 6039 13c3 4E627245 		.ascii	"NbrEntriesMax\000"
 6039      6E747269 
 6039      65734D61 
 6039      7800
 6040              	.LASF288:
 6041 13d1 6F735F70 		.ascii	"os_pend_list\000"
 6041      656E645F 
 6041      6C697374 
 6041      00
 6042              	.LASF77:
 6043 13de 4F535F45 		.ascii	"OS_ERR_MEM_INVALID_SIZE\000"
 6043      52525F4D 
 6043      454D5F49 
 6043      4E56414C 
 6043      49445F53 
 6044              	.LASF154:
 6045 13f6 4F535F45 		.ascii	"OS_ERR_TASK_SUSPENDED\000"
 6045      52525F54 
 6045      41534B5F 
 6045      53555350 
 6045      454E4445 
 6046              	.LASF126:
 6047 140c 4F535F45 		.ascii	"OS_ERR_SET_ISR\000"
 6047      52525F53 
 6047      45545F49 
 6047      535200
 6048              	.LASF245:
 6049 141b 52656754 		.ascii	"RegTbl\000"
 6049      626C00
 6050              	.LASF272:
 6051 1422 43616C6C 		.ascii	"CallbackPtrArg\000"
 6051      6261636B 
 6051      50747241 
 6051      726700
 6052              	.LASF125:
 6053 1431 4F535F45 		.ascii	"OS_ERR_SEM_OVF\000"
 6053      52525F53 
ARM GAS  C:\Users\daniel01\AppData\Local\Temp\ccxoNE0f.s 			page 144


 6053      454D5F4F 
 6053      564600
 6054              	.LASF140:
 6055 1440 4F535F45 		.ascii	"OS_ERR_TASK_DEL_IDLE\000"
 6055      52525F54 
 6055      41534B5F 
 6055      44454C5F 
 6055      49444C45 
 6056              	.LASF172:
 6057 1455 4F535F45 		.ascii	"OS_ERR_TIME_GET_ISR\000"
 6057      52525F54 
 6057      494D455F 
 6057      4745545F 
 6057      49535200 
 6058              	.LASF240:
 6059 1469 54696D65 		.ascii	"TimeQuanta\000"
 6059      5175616E 
 6059      746100
 6060              	.LASF171:
 6061 1474 4F535F45 		.ascii	"OS_ERR_TIME_DLY_RESUME_ISR\000"
 6061      52525F54 
 6061      494D455F 
 6061      444C595F 
 6061      52455355 
 6062              	.LASF166:
 6063 148f 4F535F45 		.ascii	"OS_ERR_TICK_PRIO_INVALID\000"
 6063      52525F54 
 6063      49434B5F 
 6063      5052494F 
 6063      5F494E56 
 6064              	.LASF106:
 6065 14a8 4F535F45 		.ascii	"OS_ERR_PRIO_EXIST\000"
 6065      52525F50 
 6065      52494F5F 
 6065      45584953 
 6065      5400
 6066              	.LASF209:
 6067 14ba 6F735F6D 		.ascii	"os_msg_q\000"
 6067      73675F71 
 6067      00
 6068              	.LASF339:
 6069 14c3 4F534366 		.ascii	"OSCfg_TickRate_Hz\000"
 6069      675F5469 
 6069      636B5261 
 6069      74655F48 
 6069      7A00
 6070              	.LASF78:
 6071 14d5 4F535F45 		.ascii	"OS_ERR_MEM_NO_FREE_BLKS\000"
 6071      52525F4D 
 6071      454D5F4E 
 6071      4F5F4652 
 6071      45455F42 
 6072              	.LASF303:
 6073 14ed 4F53546D 		.ascii	"OSTmrRemainGet\000"
 6073      7252656D 
 6073      61696E47 
 6073      657400
ARM GAS  C:\Users\daniel01\AppData\Local\Temp\ccxoNE0f.s 			page 145


 6074              	.LASF16:
 6075 14fc 4350555F 		.ascii	"CPU_STK\000"
 6075      53544B00 
 6076              	.LASF273:
 6077 1504 4D617463 		.ascii	"Match\000"
 6077      6800
 6078              	.LASF294:
 6079 150a 705F746D 		.ascii	"p_tmr\000"
 6079      7200
 6080              		.ident	"GCC: (Sourcery G++ Lite 2010q1-188) 4.4.1"
