ARM GAS  C:\Users\daniel01\AppData\Local\Temp\ccRUCUlV.s 			page 1


   1              		.syntax unified
   2              		.cpu cortex-m3
   3              		.fpu softvfp
   4              		.eabi_attribute 20, 1
   5              		.eabi_attribute 21, 1
   6              		.eabi_attribute 23, 3
   7              		.eabi_attribute 24, 1
   8              		.eabi_attribute 25, 1
   9              		.eabi_attribute 26, 1
  10              		.eabi_attribute 30, 6
  11              		.eabi_attribute 18, 4
  12              		.thumb
  13              		.file	"probe_rs232.c"
  20 0000 EF010000 		.text
  20      0200AF00 
  20      00000201 
  20      FB0E0D00 
  20      01010101 
  21              	.Ltext0:
  22              		.cfi_sections	.debug_frame
  23              		.comm	ProbeRS232_RxCtr,4,4
  24              		.comm	ProbeRS232_TxCtr,4,4
  25              		.bss
  26              	ProbeRS232_RxState:
  27 0000 00       		.space	1
  28 0001 000000   		.align	2
  29              	ProbeRS232_RxLenRem:
  30 0004 00000000 		.space	4
  31              		.align	2
  32              	ProbeRS232_RxPktCtr:
  33 0008 00000000 		.space	4
  34              		.align	2
  35              	ProbeRS232_RxLen:
  36 000c 00000000 		.space	4
  37              		.align	2
  38              	ProbeRS232_RxBuf:
  39 0010 00000000 		.space	512
  39      00000000 
  39      00000000 
  39      00000000 
  39      00000000 
  40              		.align	2
  41              	ProbeRS232_RxBufWrIx:
  42 0210 00000000 		.space	4
  43              	ProbeRS232_TxState:
  44 0214 00       		.space	1
  45              	ProbeRS232_TxActiveFlag:
  46 0215 00       		.space	1
  47 0216 0000     		.align	2
  48              	ProbeRS232_TxLen:
  49 0218 00000000 		.space	4
ARM GAS  C:\Users\daniel01\AppData\Local\Temp\ccRUCUlV.s 			page 2


  50              		.align	2
  51              	ProbeRS232_TxBuf:
  52 021c 00000000 		.space	512
  52      00000000 
  52      00000000 
  52      00000000 
  52      00000000 
  53              	ProbeRS232_TxBufInUse:
  54 041c 00       		.space	1
  55 041d 000000   		.align	2
  56              	ProbeRS232_TxBufRdIx:
  57 0420 00000000 		.space	4
  58              		.section	.text.ProbeRS232_Init,"ax",%progbits
  59              		.align	2
  60              		.global	ProbeRS232_Init
  61              		.thumb
  62              		.thumb_func
  63              		.type	ProbeRS232_Init, %function
  64              	ProbeRS232_Init:
  65              	.LFB0:
  66              		.file 1 "..\\..\\..\\..\\..\\..\\uC-Probe\\Target\\Communication\\Generic\\RS-232\\Source\\probe_r
   1:..\..\..\..\..\..\uC-Probe\Target\Communication\Generic\RS-232\Source/probe_rs232.c **** /*
   2:..\..\..\..\..\..\uC-Probe\Target\Communication\Generic\RS-232\Source/probe_rs232.c **** ***************************************************************************************************
   3:..\..\..\..\..\..\uC-Probe\Target\Communication\Generic\RS-232\Source/probe_rs232.c **** *                                       uC/Probe Communication
   4:..\..\..\..\..\..\uC-Probe\Target\Communication\Generic\RS-232\Source/probe_rs232.c **** *
   5:..\..\..\..\..\..\uC-Probe\Target\Communication\Generic\RS-232\Source/probe_rs232.c **** *                         (c) Copyright 2007-2008; Micrium, Inc.; Weston, FL
   6:..\..\..\..\..\..\uC-Probe\Target\Communication\Generic\RS-232\Source/probe_rs232.c **** *
   7:..\..\..\..\..\..\uC-Probe\Target\Communication\Generic\RS-232\Source/probe_rs232.c **** *               All rights reserved.  Protected by international copyright laws.
   8:..\..\..\..\..\..\uC-Probe\Target\Communication\Generic\RS-232\Source/probe_rs232.c **** *               Knowledge of the source code may NOT be used to develop a similar product.
   9:..\..\..\..\..\..\uC-Probe\Target\Communication\Generic\RS-232\Source/probe_rs232.c **** *               Please help us continue to provide the Embedded community with the finest
  10:..\..\..\..\..\..\uC-Probe\Target\Communication\Generic\RS-232\Source/probe_rs232.c **** *               software available.  Your honesty is greatly appreciated.
  11:..\..\..\..\..\..\uC-Probe\Target\Communication\Generic\RS-232\Source/probe_rs232.c **** ***************************************************************************************************
  12:..\..\..\..\..\..\uC-Probe\Target\Communication\Generic\RS-232\Source/probe_rs232.c **** */
  13:..\..\..\..\..\..\uC-Probe\Target\Communication\Generic\RS-232\Source/probe_rs232.c **** 
  14:..\..\..\..\..\..\uC-Probe\Target\Communication\Generic\RS-232\Source/probe_rs232.c **** /*
  15:..\..\..\..\..\..\uC-Probe\Target\Communication\Generic\RS-232\Source/probe_rs232.c **** ***************************************************************************************************
  16:..\..\..\..\..\..\uC-Probe\Target\Communication\Generic\RS-232\Source/probe_rs232.c **** *
  17:..\..\..\..\..\..\uC-Probe\Target\Communication\Generic\RS-232\Source/probe_rs232.c **** *                                        COMMUNICATION: RS-232
  18:..\..\..\..\..\..\uC-Probe\Target\Communication\Generic\RS-232\Source/probe_rs232.c **** *
  19:..\..\..\..\..\..\uC-Probe\Target\Communication\Generic\RS-232\Source/probe_rs232.c **** * Filename      : probe_rs232.c
  20:..\..\..\..\..\..\uC-Probe\Target\Communication\Generic\RS-232\Source/probe_rs232.c **** * Version       : V2.30
  21:..\..\..\..\..\..\uC-Probe\Target\Communication\Generic\RS-232\Source/probe_rs232.c **** * Programmer(s) : BAN
  22:..\..\..\..\..\..\uC-Probe\Target\Communication\Generic\RS-232\Source/probe_rs232.c **** ***************************************************************************************************
  23:..\..\..\..\..\..\uC-Probe\Target\Communication\Generic\RS-232\Source/probe_rs232.c **** * Note(s)       : (1) The abbreviations RX and TX refer to communication from the target's perspect
  24:..\..\..\..\..\..\uC-Probe\Target\Communication\Generic\RS-232\Source/probe_rs232.c **** *
  25:..\..\..\..\..\..\uC-Probe\Target\Communication\Generic\RS-232\Source/probe_rs232.c **** *                 (2) The abbreviations RD and WR refer to reading data from the target memory and
  26:..\..\..\..\..\..\uC-Probe\Target\Communication\Generic\RS-232\Source/probe_rs232.c **** *                     writing data to the target memory, respectively.
  27:..\..\..\..\..\..\uC-Probe\Target\Communication\Generic\RS-232\Source/probe_rs232.c **** ***************************************************************************************************
  28:..\..\..\..\..\..\uC-Probe\Target\Communication\Generic\RS-232\Source/probe_rs232.c **** */
  29:..\..\..\..\..\..\uC-Probe\Target\Communication\Generic\RS-232\Source/probe_rs232.c **** 
  30:..\..\..\..\..\..\uC-Probe\Target\Communication\Generic\RS-232\Source/probe_rs232.c **** 
  31:..\..\..\..\..\..\uC-Probe\Target\Communication\Generic\RS-232\Source/probe_rs232.c **** /*
  32:..\..\..\..\..\..\uC-Probe\Target\Communication\Generic\RS-232\Source/probe_rs232.c **** ***************************************************************************************************
  33:..\..\..\..\..\..\uC-Probe\Target\Communication\Generic\RS-232\Source/probe_rs232.c **** *                                            INCLUDE FILES
  34:..\..\..\..\..\..\uC-Probe\Target\Communication\Generic\RS-232\Source/probe_rs232.c **** ***************************************************************************************************
  35:..\..\..\..\..\..\uC-Probe\Target\Communication\Generic\RS-232\Source/probe_rs232.c **** */
  36:..\..\..\..\..\..\uC-Probe\Target\Communication\Generic\RS-232\Source/probe_rs232.c **** 
ARM GAS  C:\Users\daniel01\AppData\Local\Temp\ccRUCUlV.s 			page 3


  37:..\..\..\..\..\..\uC-Probe\Target\Communication\Generic\RS-232\Source/probe_rs232.c **** #define    PROBE_RS232_MODULE
  38:..\..\..\..\..\..\uC-Probe\Target\Communication\Generic\RS-232\Source/probe_rs232.c **** #include  <probe_com.h>
  39:..\..\..\..\..\..\uC-Probe\Target\Communication\Generic\RS-232\Source/probe_rs232.c **** #include  <probe_rs232.h>
  40:..\..\..\..\..\..\uC-Probe\Target\Communication\Generic\RS-232\Source/probe_rs232.c **** 
  41:..\..\..\..\..\..\uC-Probe\Target\Communication\Generic\RS-232\Source/probe_rs232.c **** 
  42:..\..\..\..\..\..\uC-Probe\Target\Communication\Generic\RS-232\Source/probe_rs232.c **** /*
  43:..\..\..\..\..\..\uC-Probe\Target\Communication\Generic\RS-232\Source/probe_rs232.c **** ***************************************************************************************************
  44:..\..\..\..\..\..\uC-Probe\Target\Communication\Generic\RS-232\Source/probe_rs232.c **** *                                               ENABLE
  45:..\..\..\..\..\..\uC-Probe\Target\Communication\Generic\RS-232\Source/probe_rs232.c **** *
  46:..\..\..\..\..\..\uC-Probe\Target\Communication\Generic\RS-232\Source/probe_rs232.c **** * Note(s) : (1) See 'probe_rs232.h  ENABLE'.
  47:..\..\..\..\..\..\uC-Probe\Target\Communication\Generic\RS-232\Source/probe_rs232.c **** ***************************************************************************************************
  48:..\..\..\..\..\..\uC-Probe\Target\Communication\Generic\RS-232\Source/probe_rs232.c **** */
  49:..\..\..\..\..\..\uC-Probe\Target\Communication\Generic\RS-232\Source/probe_rs232.c **** 
  50:..\..\..\..\..\..\uC-Probe\Target\Communication\Generic\RS-232\Source/probe_rs232.c **** #if (PROBE_COM_CFG_RS232_EN == DEF_ENABLED)                     /* See Note #1.                    
  51:..\..\..\..\..\..\uC-Probe\Target\Communication\Generic\RS-232\Source/probe_rs232.c **** 
  52:..\..\..\..\..\..\uC-Probe\Target\Communication\Generic\RS-232\Source/probe_rs232.c **** 
  53:..\..\..\..\..\..\uC-Probe\Target\Communication\Generic\RS-232\Source/probe_rs232.c **** /*
  54:..\..\..\..\..\..\uC-Probe\Target\Communication\Generic\RS-232\Source/probe_rs232.c **** ***************************************************************************************************
  55:..\..\..\..\..\..\uC-Probe\Target\Communication\Generic\RS-232\Source/probe_rs232.c **** *                                            LOCAL DEFINES
  56:..\..\..\..\..\..\uC-Probe\Target\Communication\Generic\RS-232\Source/probe_rs232.c **** ***************************************************************************************************
  57:..\..\..\..\..\..\uC-Probe\Target\Communication\Generic\RS-232\Source/probe_rs232.c **** */
  58:..\..\..\..\..\..\uC-Probe\Target\Communication\Generic\RS-232\Source/probe_rs232.c **** 
  59:..\..\..\..\..\..\uC-Probe\Target\Communication\Generic\RS-232\Source/probe_rs232.c **** /*
  60:..\..\..\..\..\..\uC-Probe\Target\Communication\Generic\RS-232\Source/probe_rs232.c **** ***************************************************************************************************
  61:..\..\..\..\..\..\uC-Probe\Target\Communication\Generic\RS-232\Source/probe_rs232.c **** *                                        RS-232 PACKET FORMAT
  62:..\..\..\..\..\..\uC-Probe\Target\Communication\Generic\RS-232\Source/probe_rs232.c **** *
  63:..\..\..\..\..\..\uC-Probe\Target\Communication\Generic\RS-232\Source/probe_rs232.c **** * Note(s):  (1) All packets include the following parts:
  64:..\..\..\..\..\..\uC-Probe\Target\Communication\Generic\RS-232\Source/probe_rs232.c **** *
  65:..\..\..\..\..\..\uC-Probe\Target\Communication\Generic\RS-232\Source/probe_rs232.c **** *                   (A)  4 1-byte start delimiters, forming the ASCII representation of "uCPr".  Th
  66:..\..\..\..\..\..\uC-Probe\Target\Communication\Generic\RS-232\Source/probe_rs232.c **** *                        are the constants PROBE_RS232_PROTOCOL_RX_SD0-PROBE_RS232_PROTOCOL_?X_SD4;
  67:..\..\..\..\..\..\uC-Probe\Target\Communication\Generic\RS-232\Source/probe_rs232.c **** *                   (B)  1 2-byte length, the length of the data segment;
  68:..\..\..\..\..\..\uC-Probe\Target\Communication\Generic\RS-232\Source/probe_rs232.c **** *                   (C)  1 1-byte packet counter.
  69:..\..\..\..\..\..\uC-Probe\Target\Communication\Generic\RS-232\Source/probe_rs232.c **** *                   (D)  1 1-byte padding, unused;
  70:..\..\..\..\..\..\uC-Probe\Target\Communication\Generic\RS-232\Source/probe_rs232.c **** *                   (E)  n   bytes of data; and
  71:..\..\..\..\..\..\uC-Probe\Target\Communication\Generic\RS-232\Source/probe_rs232.c **** *                   (F)  1 1-byte checksum; and
  72:..\..\..\..\..\..\uC-Probe\Target\Communication\Generic\RS-232\Source/probe_rs232.c **** *                   (G)  1 1-byte end delimiter, the character '/', which is the constant PROBE_RS2
  73:..\..\..\..\..\..\uC-Probe\Target\Communication\Generic\RS-232\Source/probe_rs232.c **** *
  74:..\..\..\..\..\..\uC-Probe\Target\Communication\Generic\RS-232\Source/probe_rs232.c **** *                                       +-------------------+-------------------+
  75:..\..\..\..\..\..\uC-Probe\Target\Communication\Generic\RS-232\Source/probe_rs232.c **** *                                       |   'u'   |   'C'   |   'P'   |   'r'   |
  76:..\..\..\..\..\..\uC-Probe\Target\Communication\Generic\RS-232\Source/probe_rs232.c **** *                                       +-------------------+-------------------+
  77:..\..\..\..\..\..\uC-Probe\Target\Communication\Generic\RS-232\Source/probe_rs232.c **** *                                       |       Length      | PktCtr  | Padding |
  78:..\..\..\..\..\..\uC-Probe\Target\Communication\Generic\RS-232\Source/probe_rs232.c **** *                                       +-------------------+-------------------+
  79:..\..\..\..\..\..\uC-Probe\Target\Communication\Generic\RS-232\Source/probe_rs232.c **** *                                       |                  Data                 |   The data segmen
  80:..\..\..\..\..\..\uC-Probe\Target\Communication\Generic\RS-232\Source/probe_rs232.c **** *                                       |                   .                   |   a four-byte bou
  81:..\..\..\..\..\..\uC-Probe\Target\Communication\Generic\RS-232\Source/probe_rs232.c **** *                                       |                   .                   |   from this diagr
  82:..\..\..\..\..\..\uC-Probe\Target\Communication\Generic\RS-232\Source/probe_rs232.c **** *                                       |                   .                   |
  83:..\..\..\..\..\..\uC-Probe\Target\Communication\Generic\RS-232\Source/probe_rs232.c **** *                                       +-------------------+-------------------+
  84:..\..\..\..\..\..\uC-Probe\Target\Communication\Generic\RS-232\Source/probe_rs232.c **** *                                       | Checksum|   '/'   |
  85:..\..\..\..\..\..\uC-Probe\Target\Communication\Generic\RS-232\Source/probe_rs232.c **** *                                       +-------------------+
  86:..\..\..\..\..\..\uC-Probe\Target\Communication\Generic\RS-232\Source/probe_rs232.c **** ***************************************************************************************************
  87:..\..\..\..\..\..\uC-Probe\Target\Communication\Generic\RS-232\Source/probe_rs232.c **** */
  88:..\..\..\..\..\..\uC-Probe\Target\Communication\Generic\RS-232\Source/probe_rs232.c **** 
  89:..\..\..\..\..\..\uC-Probe\Target\Communication\Generic\RS-232\Source/probe_rs232.c ****                                                                 /* ------------- INBOUND PACKET DEL
  90:..\..\..\..\..\..\uC-Probe\Target\Communication\Generic\RS-232\Source/probe_rs232.c **** #define  PROBE_RS232_PROTOCOL_RX_SD0                    0x75u   /* Start delimiters.               
  91:..\..\..\..\..\..\uC-Probe\Target\Communication\Generic\RS-232\Source/probe_rs232.c **** #define  PROBE_RS232_PROTOCOL_RX_SD1                    0x43u
  92:..\..\..\..\..\..\uC-Probe\Target\Communication\Generic\RS-232\Source/probe_rs232.c **** #define  PROBE_RS232_PROTOCOL_RX_SD2                    0x50u
  93:..\..\..\..\..\..\uC-Probe\Target\Communication\Generic\RS-232\Source/probe_rs232.c **** #define  PROBE_RS232_PROTOCOL_RX_SD3                    0x72u
ARM GAS  C:\Users\daniel01\AppData\Local\Temp\ccRUCUlV.s 			page 4


  94:..\..\..\..\..\..\uC-Probe\Target\Communication\Generic\RS-232\Source/probe_rs232.c **** #define  PROBE_RS232_PROTOCOL_RX_ED                     0x2Fu   /* End   delimiter.                
  95:..\..\..\..\..\..\uC-Probe\Target\Communication\Generic\RS-232\Source/probe_rs232.c **** 
  96:..\..\..\..\..\..\uC-Probe\Target\Communication\Generic\RS-232\Source/probe_rs232.c ****                                                                 /* ------------ OUTBOUND PACKET DEL
  97:..\..\..\..\..\..\uC-Probe\Target\Communication\Generic\RS-232\Source/probe_rs232.c **** #define  PROBE_RS232_PROTOCOL_TX_SD0                    0x75u   /* Start delimiters.               
  98:..\..\..\..\..\..\uC-Probe\Target\Communication\Generic\RS-232\Source/probe_rs232.c **** #define  PROBE_RS232_PROTOCOL_TX_SD1                    0x43u
  99:..\..\..\..\..\..\uC-Probe\Target\Communication\Generic\RS-232\Source/probe_rs232.c **** #define  PROBE_RS232_PROTOCOL_TX_SD2                    0x50u
 100:..\..\..\..\..\..\uC-Probe\Target\Communication\Generic\RS-232\Source/probe_rs232.c **** #define  PROBE_RS232_PROTOCOL_TX_SD3                    0x72u
 101:..\..\..\..\..\..\uC-Probe\Target\Communication\Generic\RS-232\Source/probe_rs232.c **** #define  PROBE_RS232_PROTOCOL_TX_ED                     0x2Fu   /* End   delimiter.                
 102:..\..\..\..\..\..\uC-Probe\Target\Communication\Generic\RS-232\Source/probe_rs232.c **** 
 103:..\..\..\..\..\..\uC-Probe\Target\Communication\Generic\RS-232\Source/probe_rs232.c ****                                                                 /* ----------- RECEIVE STATE MACHIN
 104:..\..\..\..\..\..\uC-Probe\Target\Communication\Generic\RS-232\Source/probe_rs232.c **** #define  PROBE_RS232_RX_STATE_SD0                          0u   /* Waiting for start first  start d
 105:..\..\..\..\..\..\uC-Probe\Target\Communication\Generic\RS-232\Source/probe_rs232.c **** #define  PROBE_RS232_RX_STATE_SD1                          1u   /* Waiting for start second start d
 106:..\..\..\..\..\..\uC-Probe\Target\Communication\Generic\RS-232\Source/probe_rs232.c **** #define  PROBE_RS232_RX_STATE_SD2                          2u   /* Waiting for start third  start d
 107:..\..\..\..\..\..\uC-Probe\Target\Communication\Generic\RS-232\Source/probe_rs232.c **** #define  PROBE_RS232_RX_STATE_SD3                          3u   /* Waiting for start fourth start d
 108:..\..\..\..\..\..\uC-Probe\Target\Communication\Generic\RS-232\Source/probe_rs232.c **** #define  PROBE_RS232_RX_STATE_LEN1                         4u   /* Waiting for length,  first  byte
 109:..\..\..\..\..\..\uC-Probe\Target\Communication\Generic\RS-232\Source/probe_rs232.c **** #define  PROBE_RS232_RX_STATE_LEN2                         5u   /* Waiting for length,  second byte
 110:..\..\..\..\..\..\uC-Probe\Target\Communication\Generic\RS-232\Source/probe_rs232.c **** #define  PROBE_RS232_RX_STATE_CTR                          6u   /* Waiting for packet counter.     
 111:..\..\..\..\..\..\uC-Probe\Target\Communication\Generic\RS-232\Source/probe_rs232.c **** #define  PROBE_RS232_RX_STATE_PAD                          7u   /* Waiting for padding.            
 112:..\..\..\..\..\..\uC-Probe\Target\Communication\Generic\RS-232\Source/probe_rs232.c **** #define  PROBE_RS232_RX_STATE_DATA                         8u   /* Waiting for data.               
 113:..\..\..\..\..\..\uC-Probe\Target\Communication\Generic\RS-232\Source/probe_rs232.c **** #define  PROBE_RS232_RX_STATE_CHKSUM                       9u   /* Waiting for checksum.           
 114:..\..\..\..\..\..\uC-Probe\Target\Communication\Generic\RS-232\Source/probe_rs232.c **** #define  PROBE_RS232_RX_STATE_ED                          10u   /* Waiting for end delimiter.      
 115:..\..\..\..\..\..\uC-Probe\Target\Communication\Generic\RS-232\Source/probe_rs232.c **** 
 116:..\..\..\..\..\..\uC-Probe\Target\Communication\Generic\RS-232\Source/probe_rs232.c ****                                                                 /* ---------- TRANSMIT STATE MACHIN
 117:..\..\..\..\..\..\uC-Probe\Target\Communication\Generic\RS-232\Source/probe_rs232.c **** #define  PROBE_RS232_TX_STATE_SD0                          0u   /* Waiting to send start first  sta
 118:..\..\..\..\..\..\uC-Probe\Target\Communication\Generic\RS-232\Source/probe_rs232.c **** #define  PROBE_RS232_TX_STATE_SD1                          1u   /* Waiting to send start second sta
 119:..\..\..\..\..\..\uC-Probe\Target\Communication\Generic\RS-232\Source/probe_rs232.c **** #define  PROBE_RS232_TX_STATE_SD2                          2u   /* Waiting to send start third  sta
 120:..\..\..\..\..\..\uC-Probe\Target\Communication\Generic\RS-232\Source/probe_rs232.c **** #define  PROBE_RS232_TX_STATE_SD3                          3u   /* Waiting to send start fourth sta
 121:..\..\..\..\..\..\uC-Probe\Target\Communication\Generic\RS-232\Source/probe_rs232.c **** #define  PROBE_RS232_TX_STATE_LEN1                         4u   /* Waiting to send length,  first  
 122:..\..\..\..\..\..\uC-Probe\Target\Communication\Generic\RS-232\Source/probe_rs232.c **** #define  PROBE_RS232_TX_STATE_LEN2                         5u   /* Waiting to send length,  second 
 123:..\..\..\..\..\..\uC-Probe\Target\Communication\Generic\RS-232\Source/probe_rs232.c **** #define  PROBE_RS232_TX_STATE_CTR                          6u   /* Waiting to send packet counter. 
 124:..\..\..\..\..\..\uC-Probe\Target\Communication\Generic\RS-232\Source/probe_rs232.c **** #define  PROBE_RS232_TX_STATE_PAD                          7u   /* Waiting to send padding.        
 125:..\..\..\..\..\..\uC-Probe\Target\Communication\Generic\RS-232\Source/probe_rs232.c **** #define  PROBE_RS232_TX_STATE_DATA                         8u   /* Waiting to send data.           
 126:..\..\..\..\..\..\uC-Probe\Target\Communication\Generic\RS-232\Source/probe_rs232.c **** #define  PROBE_RS232_TX_STATE_CHKSUM                       9u   /* Waiting to send checksum.       
 127:..\..\..\..\..\..\uC-Probe\Target\Communication\Generic\RS-232\Source/probe_rs232.c **** #define  PROBE_RS232_TX_STATE_ED                          10u   /* Waiting to send end delimiter.  
 128:..\..\..\..\..\..\uC-Probe\Target\Communication\Generic\RS-232\Source/probe_rs232.c **** 
 129:..\..\..\..\..\..\uC-Probe\Target\Communication\Generic\RS-232\Source/probe_rs232.c **** #define  PROBE_RS232_CHKSUM_EN                      DEF_FALSE    /* DO NOT CHANGE                  
 130:..\..\..\..\..\..\uC-Probe\Target\Communication\Generic\RS-232\Source/probe_rs232.c **** 
 131:..\..\..\..\..\..\uC-Probe\Target\Communication\Generic\RS-232\Source/probe_rs232.c **** 
 132:..\..\..\..\..\..\uC-Probe\Target\Communication\Generic\RS-232\Source/probe_rs232.c **** /*
 133:..\..\..\..\..\..\uC-Probe\Target\Communication\Generic\RS-232\Source/probe_rs232.c **** ***************************************************************************************************
 134:..\..\..\..\..\..\uC-Probe\Target\Communication\Generic\RS-232\Source/probe_rs232.c **** *                                           LOCAL CONSTANTS
 135:..\..\..\..\..\..\uC-Probe\Target\Communication\Generic\RS-232\Source/probe_rs232.c **** ***************************************************************************************************
 136:..\..\..\..\..\..\uC-Probe\Target\Communication\Generic\RS-232\Source/probe_rs232.c **** */
 137:..\..\..\..\..\..\uC-Probe\Target\Communication\Generic\RS-232\Source/probe_rs232.c **** 
 138:..\..\..\..\..\..\uC-Probe\Target\Communication\Generic\RS-232\Source/probe_rs232.c **** 
 139:..\..\..\..\..\..\uC-Probe\Target\Communication\Generic\RS-232\Source/probe_rs232.c **** /*
 140:..\..\..\..\..\..\uC-Probe\Target\Communication\Generic\RS-232\Source/probe_rs232.c **** ***************************************************************************************************
 141:..\..\..\..\..\..\uC-Probe\Target\Communication\Generic\RS-232\Source/probe_rs232.c **** *                                          LOCAL DATA TYPES
 142:..\..\..\..\..\..\uC-Probe\Target\Communication\Generic\RS-232\Source/probe_rs232.c **** ***************************************************************************************************
 143:..\..\..\..\..\..\uC-Probe\Target\Communication\Generic\RS-232\Source/probe_rs232.c **** */
 144:..\..\..\..\..\..\uC-Probe\Target\Communication\Generic\RS-232\Source/probe_rs232.c **** 
 145:..\..\..\..\..\..\uC-Probe\Target\Communication\Generic\RS-232\Source/probe_rs232.c **** 
 146:..\..\..\..\..\..\uC-Probe\Target\Communication\Generic\RS-232\Source/probe_rs232.c **** /*
 147:..\..\..\..\..\..\uC-Probe\Target\Communication\Generic\RS-232\Source/probe_rs232.c **** ***************************************************************************************************
 148:..\..\..\..\..\..\uC-Probe\Target\Communication\Generic\RS-232\Source/probe_rs232.c **** *                                            LOCAL TABLES
 149:..\..\..\..\..\..\uC-Probe\Target\Communication\Generic\RS-232\Source/probe_rs232.c **** ***************************************************************************************************
 150:..\..\..\..\..\..\uC-Probe\Target\Communication\Generic\RS-232\Source/probe_rs232.c **** */
ARM GAS  C:\Users\daniel01\AppData\Local\Temp\ccRUCUlV.s 			page 5


 151:..\..\..\..\..\..\uC-Probe\Target\Communication\Generic\RS-232\Source/probe_rs232.c **** 
 152:..\..\..\..\..\..\uC-Probe\Target\Communication\Generic\RS-232\Source/probe_rs232.c **** 
 153:..\..\..\..\..\..\uC-Probe\Target\Communication\Generic\RS-232\Source/probe_rs232.c **** /*
 154:..\..\..\..\..\..\uC-Probe\Target\Communication\Generic\RS-232\Source/probe_rs232.c **** ***************************************************************************************************
 155:..\..\..\..\..\..\uC-Probe\Target\Communication\Generic\RS-232\Source/probe_rs232.c **** *                                       LOCAL GLOBAL VARIABLES
 156:..\..\..\..\..\..\uC-Probe\Target\Communication\Generic\RS-232\Source/probe_rs232.c **** ***************************************************************************************************
 157:..\..\..\..\..\..\uC-Probe\Target\Communication\Generic\RS-232\Source/probe_rs232.c **** */
 158:..\..\..\..\..\..\uC-Probe\Target\Communication\Generic\RS-232\Source/probe_rs232.c **** 
 159:..\..\..\..\..\..\uC-Probe\Target\Communication\Generic\RS-232\Source/probe_rs232.c ****                                                                 /* ---------------- RX STATE VARIAB
 160:..\..\..\..\..\..\uC-Probe\Target\Communication\Generic\RS-232\Source/probe_rs232.c **** static  CPU_INT08U   ProbeRS232_RxState;                        /* Current state of rx state machin
 161:..\..\..\..\..\..\uC-Probe\Target\Communication\Generic\RS-232\Source/probe_rs232.c **** static  CPU_SIZE_T   ProbeRS232_RxLenRem;                       /* Rem bytes of data to rd.        
 162:..\..\..\..\..\..\uC-Probe\Target\Communication\Generic\RS-232\Source/probe_rs232.c **** 
 163:..\..\..\..\..\..\uC-Probe\Target\Communication\Generic\RS-232\Source/probe_rs232.c **** static  CPU_SIZE_T   ProbeRS232_RxPktCtr;                       /* Packet counter of  current pkt. 
 164:..\..\..\..\..\..\uC-Probe\Target\Communication\Generic\RS-232\Source/probe_rs232.c **** static  CPU_SIZE_T   ProbeRS232_RxLen;                          /* Length  of data in current pkt. 
 165:..\..\..\..\..\..\uC-Probe\Target\Communication\Generic\RS-232\Source/probe_rs232.c ****                                                                 /* Data    of current pkt.         
 166:..\..\..\..\..\..\uC-Probe\Target\Communication\Generic\RS-232\Source/probe_rs232.c **** static  CPU_INT08U   ProbeRS232_RxBuf[PROBE_RS232_CFG_RX_BUF_SIZE];
 167:..\..\..\..\..\..\uC-Probe\Target\Communication\Generic\RS-232\Source/probe_rs232.c **** #if (PROBE_RS232_CHKSUM_EN == DEF_TRUE)
 168:..\..\..\..\..\..\uC-Probe\Target\Communication\Generic\RS-232\Source/probe_rs232.c **** static  CPU_INT08U   ProbeRS232_RxChkSum;                       /* Checksum of current pkt.        
 169:..\..\..\..\..\..\uC-Probe\Target\Communication\Generic\RS-232\Source/probe_rs232.c **** #endif
 170:..\..\..\..\..\..\uC-Probe\Target\Communication\Generic\RS-232\Source/probe_rs232.c **** 
 171:..\..\..\..\..\..\uC-Probe\Target\Communication\Generic\RS-232\Source/probe_rs232.c **** static  CPU_SIZE_T   ProbeRS232_RxBufWrIx;                      /* Index of next write; also number
 172:..\..\..\..\..\..\uC-Probe\Target\Communication\Generic\RS-232\Source/probe_rs232.c **** 
 173:..\..\..\..\..\..\uC-Probe\Target\Communication\Generic\RS-232\Source/probe_rs232.c **** 
 174:..\..\..\..\..\..\uC-Probe\Target\Communication\Generic\RS-232\Source/probe_rs232.c ****                                                                 /* ---------------- TX STATE VARIAB
 175:..\..\..\..\..\..\uC-Probe\Target\Communication\Generic\RS-232\Source/probe_rs232.c **** static  CPU_INT08U   ProbeRS232_TxState;                        /* Current state of tx state machin
 176:..\..\..\..\..\..\uC-Probe\Target\Communication\Generic\RS-232\Source/probe_rs232.c **** static  CPU_BOOLEAN  ProbeRS232_TxActiveFlag;                   /* Indicates tx is currently active
 177:..\..\..\..\..\..\uC-Probe\Target\Communication\Generic\RS-232\Source/probe_rs232.c **** 
 178:..\..\..\..\..\..\uC-Probe\Target\Communication\Generic\RS-232\Source/probe_rs232.c **** static  CPU_SIZE_T   ProbeRS232_TxLen;                          /* Length  of data in current pkt. 
 179:..\..\..\..\..\..\uC-Probe\Target\Communication\Generic\RS-232\Source/probe_rs232.c ****                                                                 /* Data    of current pkt.         
 180:..\..\..\..\..\..\uC-Probe\Target\Communication\Generic\RS-232\Source/probe_rs232.c **** static  CPU_INT08U   ProbeRS232_TxBuf[PROBE_RS232_CFG_TX_BUF_SIZE];
 181:..\..\..\..\..\..\uC-Probe\Target\Communication\Generic\RS-232\Source/probe_rs232.c **** #if (PROBE_RS232_CHKSUM_EN == DEF_TRUE)
 182:..\..\..\..\..\..\uC-Probe\Target\Communication\Generic\RS-232\Source/probe_rs232.c **** static  CPU_INT08U   ProbeRS232_TxChkSum;                       /* Checksum of current pkt.        
 183:..\..\..\..\..\..\uC-Probe\Target\Communication\Generic\RS-232\Source/probe_rs232.c **** #endif
 184:..\..\..\..\..\..\uC-Probe\Target\Communication\Generic\RS-232\Source/probe_rs232.c **** 
 185:..\..\..\..\..\..\uC-Probe\Target\Communication\Generic\RS-232\Source/probe_rs232.c **** static  CPU_BOOLEAN  ProbeRS232_TxBufInUse;                     /* Indicates tx buf currently holds
 186:..\..\..\..\..\..\uC-Probe\Target\Communication\Generic\RS-232\Source/probe_rs232.c **** static  CPU_SIZE_T   ProbeRS232_TxBufRdIx;                      /* Index of next read.             
 187:..\..\..\..\..\..\uC-Probe\Target\Communication\Generic\RS-232\Source/probe_rs232.c **** 
 188:..\..\..\..\..\..\uC-Probe\Target\Communication\Generic\RS-232\Source/probe_rs232.c **** 
 189:..\..\..\..\..\..\uC-Probe\Target\Communication\Generic\RS-232\Source/probe_rs232.c **** 
 190:..\..\..\..\..\..\uC-Probe\Target\Communication\Generic\RS-232\Source/probe_rs232.c **** /*
 191:..\..\..\..\..\..\uC-Probe\Target\Communication\Generic\RS-232\Source/probe_rs232.c **** ***************************************************************************************************
 192:..\..\..\..\..\..\uC-Probe\Target\Communication\Generic\RS-232\Source/probe_rs232.c **** *                                      LOCAL FUNCTION PROTOTYPES
 193:..\..\..\..\..\..\uC-Probe\Target\Communication\Generic\RS-232\Source/probe_rs232.c **** ***************************************************************************************************
 194:..\..\..\..\..\..\uC-Probe\Target\Communication\Generic\RS-232\Source/probe_rs232.c **** */
 195:..\..\..\..\..\..\uC-Probe\Target\Communication\Generic\RS-232\Source/probe_rs232.c **** 
 196:..\..\..\..\..\..\uC-Probe\Target\Communication\Generic\RS-232\Source/probe_rs232.c **** static  CPU_SIZE_T  ProbeRS232_ParseRxPkt(void);
 197:..\..\..\..\..\..\uC-Probe\Target\Communication\Generic\RS-232\Source/probe_rs232.c **** 
 198:..\..\..\..\..\..\uC-Probe\Target\Communication\Generic\RS-232\Source/probe_rs232.c **** static  void        ProbeRS232_RxPkt     (void);
 199:..\..\..\..\..\..\uC-Probe\Target\Communication\Generic\RS-232\Source/probe_rs232.c **** 
 200:..\..\..\..\..\..\uC-Probe\Target\Communication\Generic\RS-232\Source/probe_rs232.c **** static  void        ProbeRS232_RxStoINT8U(CPU_INT08U  rx_data);
 201:..\..\..\..\..\..\uC-Probe\Target\Communication\Generic\RS-232\Source/probe_rs232.c **** 
 202:..\..\..\..\..\..\uC-Probe\Target\Communication\Generic\RS-232\Source/probe_rs232.c **** static  void        ProbeRS232_RxBufClr  (void);
 203:..\..\..\..\..\..\uC-Probe\Target\Communication\Generic\RS-232\Source/probe_rs232.c **** 
 204:..\..\..\..\..\..\uC-Probe\Target\Communication\Generic\RS-232\Source/probe_rs232.c **** static  void        ProbeRS232_TxStart   (void);
 205:..\..\..\..\..\..\uC-Probe\Target\Communication\Generic\RS-232\Source/probe_rs232.c **** 
 206:..\..\..\..\..\..\uC-Probe\Target\Communication\Generic\RS-232\Source/probe_rs232.c **** 
 207:..\..\..\..\..\..\uC-Probe\Target\Communication\Generic\RS-232\Source/probe_rs232.c **** /*
ARM GAS  C:\Users\daniel01\AppData\Local\Temp\ccRUCUlV.s 			page 6


 208:..\..\..\..\..\..\uC-Probe\Target\Communication\Generic\RS-232\Source/probe_rs232.c **** ***************************************************************************************************
 209:..\..\..\..\..\..\uC-Probe\Target\Communication\Generic\RS-232\Source/probe_rs232.c **** *                                     LOCAL CONFIGURATION ERRORS
 210:..\..\..\..\..\..\uC-Probe\Target\Communication\Generic\RS-232\Source/probe_rs232.c **** ***************************************************************************************************
 211:..\..\..\..\..\..\uC-Probe\Target\Communication\Generic\RS-232\Source/probe_rs232.c **** */
 212:..\..\..\..\..\..\uC-Probe\Target\Communication\Generic\RS-232\Source/probe_rs232.c **** 
 213:..\..\..\..\..\..\uC-Probe\Target\Communication\Generic\RS-232\Source/probe_rs232.c **** 
 214:..\..\..\..\..\..\uC-Probe\Target\Communication\Generic\RS-232\Source/probe_rs232.c **** /*
 215:..\..\..\..\..\..\uC-Probe\Target\Communication\Generic\RS-232\Source/probe_rs232.c **** ***************************************************************************************************
 216:..\..\..\..\..\..\uC-Probe\Target\Communication\Generic\RS-232\Source/probe_rs232.c **** *                                          ProbeRS232_Init()
 217:..\..\..\..\..\..\uC-Probe\Target\Communication\Generic\RS-232\Source/probe_rs232.c **** *
 218:..\..\..\..\..\..\uC-Probe\Target\Communication\Generic\RS-232\Source/probe_rs232.c **** * Description : Initialize the RS-232 communication module.
 219:..\..\..\..\..\..\uC-Probe\Target\Communication\Generic\RS-232\Source/probe_rs232.c **** *
 220:..\..\..\..\..\..\uC-Probe\Target\Communication\Generic\RS-232\Source/probe_rs232.c **** * Argument(s) : baud_rate       The RS-232 baud rate which will be passed to the hardware initializ
 221:..\..\..\..\..\..\uC-Probe\Target\Communication\Generic\RS-232\Source/probe_rs232.c **** *
 222:..\..\..\..\..\..\uC-Probe\Target\Communication\Generic\RS-232\Source/probe_rs232.c **** * Return(s)   : DEF_OK,   if initialization successful.
 223:..\..\..\..\..\..\uC-Probe\Target\Communication\Generic\RS-232\Source/probe_rs232.c **** *               DEF_FAIL, otherwise.
 224:..\..\..\..\..\..\uC-Probe\Target\Communication\Generic\RS-232\Source/probe_rs232.c **** *
 225:..\..\..\..\..\..\uC-Probe\Target\Communication\Generic\RS-232\Source/probe_rs232.c **** * Caller(s)   : Application.
 226:..\..\..\..\..\..\uC-Probe\Target\Communication\Generic\RS-232\Source/probe_rs232.c **** *
 227:..\..\..\..\..\..\uC-Probe\Target\Communication\Generic\RS-232\Source/probe_rs232.c **** * Note(s)     : none.
 228:..\..\..\..\..\..\uC-Probe\Target\Communication\Generic\RS-232\Source/probe_rs232.c **** ***************************************************************************************************
 229:..\..\..\..\..\..\uC-Probe\Target\Communication\Generic\RS-232\Source/probe_rs232.c **** */
 230:..\..\..\..\..\..\uC-Probe\Target\Communication\Generic\RS-232\Source/probe_rs232.c **** 
 231:..\..\..\..\..\..\uC-Probe\Target\Communication\Generic\RS-232\Source/probe_rs232.c **** CPU_BOOLEAN  ProbeRS232_Init (CPU_INT32U baud_rate)
 232:..\..\..\..\..\..\uC-Probe\Target\Communication\Generic\RS-232\Source/probe_rs232.c **** {
  67              		.loc 1 232 0
  68              		.cfi_startproc
  69              		@ args = 0, pretend = 0, frame = 16
  70              		@ frame_needed = 1, uses_anonymous_args = 0
  71 0000 80B5     		push	{r7, lr}
  72              	.LCFI0:
  73              		.cfi_def_cfa_offset 8
  74 0002 84B0     		sub	sp, sp, #16
  75              	.LCFI1:
  76              		.cfi_def_cfa_offset 24
  77 0004 00AF     		add	r7, sp, #0
  78              		.cfi_offset 14, -4
  79              		.cfi_offset 7, -8
  80              	.LCFI2:
  81              		.cfi_def_cfa_register 7
  82 0006 7860     		str	r0, [r7, #4]
 233:..\..\..\..\..\..\uC-Probe\Target\Communication\Generic\RS-232\Source/probe_rs232.c **** #if (PROBE_RS232_CFG_PARSE_TASK_EN == DEF_ENABLED)
 234:..\..\..\..\..\..\uC-Probe\Target\Communication\Generic\RS-232\Source/probe_rs232.c ****     CPU_BOOLEAN  ok;
 235:..\..\..\..\..\..\uC-Probe\Target\Communication\Generic\RS-232\Source/probe_rs232.c **** #endif
 236:..\..\..\..\..\..\uC-Probe\Target\Communication\Generic\RS-232\Source/probe_rs232.c **** 
 237:..\..\..\..\..\..\uC-Probe\Target\Communication\Generic\RS-232\Source/probe_rs232.c **** 
 238:..\..\..\..\..\..\uC-Probe\Target\Communication\Generic\RS-232\Source/probe_rs232.c ****     ProbeRS232_RxState             =  PROBE_RS232_RX_STATE_SD0; /* Setup rx & tx state machines.   
  83              		.loc 1 238 0
  84 0008 40F20003 		movw	r3, #:lower16:ProbeRS232_RxState
  85 000c C0F20003 		movt	r3, #:upper16:ProbeRS232_RxState
  86 0010 4FF00002 		mov	r2, #0
  87 0014 1A70     		strb	r2, [r3, #0]
 239:..\..\..\..\..\..\uC-Probe\Target\Communication\Generic\RS-232\Source/probe_rs232.c ****     ProbeRS232_TxState             =  PROBE_RS232_TX_STATE_SD0;
  88              		.loc 1 239 0
  89 0016 40F20003 		movw	r3, #:lower16:ProbeRS232_TxState
  90 001a C0F20003 		movt	r3, #:upper16:ProbeRS232_TxState
  91 001e 4FF00002 		mov	r2, #0
ARM GAS  C:\Users\daniel01\AppData\Local\Temp\ccRUCUlV.s 			page 7


  92 0022 1A70     		strb	r2, [r3, #0]
 240:..\..\..\..\..\..\uC-Probe\Target\Communication\Generic\RS-232\Source/probe_rs232.c **** 
 241:..\..\..\..\..\..\uC-Probe\Target\Communication\Generic\RS-232\Source/probe_rs232.c ****     ProbeRS232_TxLen               =  0u;
  93              		.loc 1 241 0
  94 0024 40F20003 		movw	r3, #:lower16:ProbeRS232_TxLen
  95 0028 C0F20003 		movt	r3, #:upper16:ProbeRS232_TxLen
  96 002c 4FF00002 		mov	r2, #0
  97 0030 1A60     		str	r2, [r3, #0]
 242:..\..\..\..\..\..\uC-Probe\Target\Communication\Generic\RS-232\Source/probe_rs232.c ****     ProbeRS232_TxActiveFlag        =  DEF_FALSE;
  98              		.loc 1 242 0
  99 0032 40F20003 		movw	r3, #:lower16:ProbeRS232_TxActiveFlag
 100 0036 C0F20003 		movt	r3, #:upper16:ProbeRS232_TxActiveFlag
 101 003a 4FF00002 		mov	r2, #0
 102 003e 1A70     		strb	r2, [r3, #0]
 243:..\..\..\..\..\..\uC-Probe\Target\Communication\Generic\RS-232\Source/probe_rs232.c ****     ProbeRS232_TxBufInUse          =  DEF_FALSE;
 103              		.loc 1 243 0
 104 0040 40F20003 		movw	r3, #:lower16:ProbeRS232_TxBufInUse
 105 0044 C0F20003 		movt	r3, #:upper16:ProbeRS232_TxBufInUse
 106 0048 4FF00002 		mov	r2, #0
 107 004c 1A70     		strb	r2, [r3, #0]
 244:..\..\..\..\..\..\uC-Probe\Target\Communication\Generic\RS-232\Source/probe_rs232.c **** 
 245:..\..\..\..\..\..\uC-Probe\Target\Communication\Generic\RS-232\Source/probe_rs232.c **** #if (PROBE_COM_CFG_STAT_EN         == DEF_ENABLED)
 246:..\..\..\..\..\..\uC-Probe\Target\Communication\Generic\RS-232\Source/probe_rs232.c ****     ProbeRS232_RxCtr               =  0u;
 108              		.loc 1 246 0
 109 004e 40F20003 		movw	r3, #:lower16:ProbeRS232_RxCtr
 110 0052 C0F20003 		movt	r3, #:upper16:ProbeRS232_RxCtr
 111 0056 4FF00002 		mov	r2, #0
 112 005a 1A60     		str	r2, [r3, #0]
 247:..\..\..\..\..\..\uC-Probe\Target\Communication\Generic\RS-232\Source/probe_rs232.c ****     ProbeRS232_TxCtr               =  0u;
 113              		.loc 1 247 0
 114 005c 40F20003 		movw	r3, #:lower16:ProbeRS232_TxCtr
 115 0060 C0F20003 		movt	r3, #:upper16:ProbeRS232_TxCtr
 116 0064 4FF00002 		mov	r2, #0
 117 0068 1A60     		str	r2, [r3, #0]
 248:..\..\..\..\..\..\uC-Probe\Target\Communication\Generic\RS-232\Source/probe_rs232.c **** #endif
 249:..\..\..\..\..\..\uC-Probe\Target\Communication\Generic\RS-232\Source/probe_rs232.c **** 
 250:..\..\..\..\..\..\uC-Probe\Target\Communication\Generic\RS-232\Source/probe_rs232.c **** #if (PROBE_RS232_CFG_PARSE_TASK_EN == DEF_ENABLED)
 251:..\..\..\..\..\..\uC-Probe\Target\Communication\Generic\RS-232\Source/probe_rs232.c ****     ok = ProbeRS232_OS_Init();
 118              		.loc 1 251 0
 119 006a FFF7FEFF 		bl	ProbeRS232_OS_Init
 120 006e 0346     		mov	r3, r0
 121 0070 FB73     		strb	r3, [r7, #15]
 252:..\..\..\..\..\..\uC-Probe\Target\Communication\Generic\RS-232\Source/probe_rs232.c ****     if (ok == DEF_FAIL) {
 122              		.loc 1 252 0
 123 0072 FB7B     		ldrb	r3, [r7, #15]	@ zero_extendqisi2
 124 0074 002B     		cmp	r3, #0
 125 0076 02D1     		bne	.L2
 253:..\..\..\..\..\..\uC-Probe\Target\Communication\Generic\RS-232\Source/probe_rs232.c ****         return (DEF_FAIL);
 126              		.loc 1 253 0
 127 0078 4FF00003 		mov	r3, #0
 128 007c 04E0     		b	.L3
 129              	.L2:
 254:..\..\..\..\..\..\uC-Probe\Target\Communication\Generic\RS-232\Source/probe_rs232.c ****     }
 255:..\..\..\..\..\..\uC-Probe\Target\Communication\Generic\RS-232\Source/probe_rs232.c **** #endif
 256:..\..\..\..\..\..\uC-Probe\Target\Communication\Generic\RS-232\Source/probe_rs232.c **** 
 257:..\..\..\..\..\..\uC-Probe\Target\Communication\Generic\RS-232\Source/probe_rs232.c ****     ProbeRS232_InitTarget(baud_rate);                           /* Init target-specific code.      
 130              		.loc 1 257 0
ARM GAS  C:\Users\daniel01\AppData\Local\Temp\ccRUCUlV.s 			page 8


 131 007e 7868     		ldr	r0, [r7, #4]
 132 0080 FFF7FEFF 		bl	ProbeRS232_InitTarget
 258:..\..\..\..\..\..\uC-Probe\Target\Communication\Generic\RS-232\Source/probe_rs232.c **** 
 259:..\..\..\..\..\..\uC-Probe\Target\Communication\Generic\RS-232\Source/probe_rs232.c ****     return (DEF_OK);
 133              		.loc 1 259 0
 134 0084 4FF00103 		mov	r3, #1
 135              	.L3:
 260:..\..\..\..\..\..\uC-Probe\Target\Communication\Generic\RS-232\Source/probe_rs232.c **** }
 136              		.loc 1 260 0
 137 0088 1846     		mov	r0, r3
 138 008a 07F11007 		add	r7, r7, #16
 139 008e BD46     		mov	sp, r7
 140 0090 80BD     		pop	{r7, pc}
 141              		.cfi_endproc
 142              	.LFE0:
 143              		.size	ProbeRS232_Init, .-ProbeRS232_Init
 144 0092 00BF     		.section	.text.ProbeRS232_Task,"ax",%progbits
 145              		.align	2
 146              		.global	ProbeRS232_Task
 147              		.thumb
 148              		.thumb_func
 149              		.type	ProbeRS232_Task, %function
 150              	ProbeRS232_Task:
 151              	.LFB1:
 261:..\..\..\..\..\..\uC-Probe\Target\Communication\Generic\RS-232\Source/probe_rs232.c **** 
 262:..\..\..\..\..\..\uC-Probe\Target\Communication\Generic\RS-232\Source/probe_rs232.c **** 
 263:..\..\..\..\..\..\uC-Probe\Target\Communication\Generic\RS-232\Source/probe_rs232.c **** /*
 264:..\..\..\..\..\..\uC-Probe\Target\Communication\Generic\RS-232\Source/probe_rs232.c **** ***************************************************************************************************
 265:..\..\..\..\..\..\uC-Probe\Target\Communication\Generic\RS-232\Source/probe_rs232.c **** ***************************************************************************************************
 266:..\..\..\..\..\..\uC-Probe\Target\Communication\Generic\RS-232\Source/probe_rs232.c **** *                                         INTERNAL FUNCTIONS
 267:..\..\..\..\..\..\uC-Probe\Target\Communication\Generic\RS-232\Source/probe_rs232.c **** ***************************************************************************************************
 268:..\..\..\..\..\..\uC-Probe\Target\Communication\Generic\RS-232\Source/probe_rs232.c **** ***************************************************************************************************
 269:..\..\..\..\..\..\uC-Probe\Target\Communication\Generic\RS-232\Source/probe_rs232.c **** */
 270:..\..\..\..\..\..\uC-Probe\Target\Communication\Generic\RS-232\Source/probe_rs232.c **** 
 271:..\..\..\..\..\..\uC-Probe\Target\Communication\Generic\RS-232\Source/probe_rs232.c **** /*
 272:..\..\..\..\..\..\uC-Probe\Target\Communication\Generic\RS-232\Source/probe_rs232.c **** ***************************************************************************************************
 273:..\..\..\..\..\..\uC-Probe\Target\Communication\Generic\RS-232\Source/probe_rs232.c **** *                                          ProbeRS232_Task()
 274:..\..\..\..\..\..\uC-Probe\Target\Communication\Generic\RS-232\Source/probe_rs232.c **** *
 275:..\..\..\..\..\..\uC-Probe\Target\Communication\Generic\RS-232\Source/probe_rs232.c **** * Description : The task which parses the received packet, forms a response, and begins transmissio
 276:..\..\..\..\..\..\uC-Probe\Target\Communication\Generic\RS-232\Source/probe_rs232.c **** *
 277:..\..\..\..\..\..\uC-Probe\Target\Communication\Generic\RS-232\Source/probe_rs232.c **** * Argument(s) : none.
 278:..\..\..\..\..\..\uC-Probe\Target\Communication\Generic\RS-232\Source/probe_rs232.c **** *
 279:..\..\..\..\..\..\uC-Probe\Target\Communication\Generic\RS-232\Source/probe_rs232.c **** * Return(s)   : none.
 280:..\..\..\..\..\..\uC-Probe\Target\Communication\Generic\RS-232\Source/probe_rs232.c **** *
 281:..\..\..\..\..\..\uC-Probe\Target\Communication\Generic\RS-232\Source/probe_rs232.c **** * Caller(s)   : ProbeRS232_OS_Task().
 282:..\..\..\..\..\..\uC-Probe\Target\Communication\Generic\RS-232\Source/probe_rs232.c **** *
 283:..\..\..\..\..\..\uC-Probe\Target\Communication\Generic\RS-232\Source/probe_rs232.c **** * Note(s)     : none.
 284:..\..\..\..\..\..\uC-Probe\Target\Communication\Generic\RS-232\Source/probe_rs232.c **** ***************************************************************************************************
 285:..\..\..\..\..\..\uC-Probe\Target\Communication\Generic\RS-232\Source/probe_rs232.c **** */
 286:..\..\..\..\..\..\uC-Probe\Target\Communication\Generic\RS-232\Source/probe_rs232.c **** 
 287:..\..\..\..\..\..\uC-Probe\Target\Communication\Generic\RS-232\Source/probe_rs232.c **** #if (PROBE_RS232_CFG_PARSE_TASK_EN == DEF_ENABLED)
 288:..\..\..\..\..\..\uC-Probe\Target\Communication\Generic\RS-232\Source/probe_rs232.c **** void  ProbeRS232_Task (void)
 289:..\..\..\..\..\..\uC-Probe\Target\Communication\Generic\RS-232\Source/probe_rs232.c **** {
 152              		.loc 1 289 0
 153              		.cfi_startproc
 154              		@ args = 0, pretend = 0, frame = 8
 155              		@ frame_needed = 1, uses_anonymous_args = 0
ARM GAS  C:\Users\daniel01\AppData\Local\Temp\ccRUCUlV.s 			page 9


 156 0000 80B5     		push	{r7, lr}
 157              	.LCFI3:
 158              		.cfi_def_cfa_offset 8
 159 0002 82B0     		sub	sp, sp, #8
 160              	.LCFI4:
 161              		.cfi_def_cfa_offset 16
 162 0004 00AF     		add	r7, sp, #0
 163              		.cfi_offset 14, -4
 164              		.cfi_offset 7, -8
 165              	.LCFI5:
 166              		.cfi_def_cfa_register 7
 167 0006 00E0     		b	.L7
 168              	.L9:
 290:..\..\..\..\..\..\uC-Probe\Target\Communication\Generic\RS-232\Source/probe_rs232.c ****     CPU_SIZE_T  len;
 291:..\..\..\..\..\..\uC-Probe\Target\Communication\Generic\RS-232\Source/probe_rs232.c **** 
 292:..\..\..\..\..\..\uC-Probe\Target\Communication\Generic\RS-232\Source/probe_rs232.c **** 
 293:..\..\..\..\..\..\uC-Probe\Target\Communication\Generic\RS-232\Source/probe_rs232.c ****     while (DEF_TRUE) {
 294:..\..\..\..\..\..\uC-Probe\Target\Communication\Generic\RS-232\Source/probe_rs232.c ****         ProbeRS232_OS_Pend();                                   /* Wait for a packet to be received
 295:..\..\..\..\..\..\uC-Probe\Target\Communication\Generic\RS-232\Source/probe_rs232.c **** 
 296:..\..\..\..\..\..\uC-Probe\Target\Communication\Generic\RS-232\Source/probe_rs232.c ****         len = ProbeRS232_ParseRxPkt();                          /* Parse packet and formulate a res
 297:..\..\..\..\..\..\uC-Probe\Target\Communication\Generic\RS-232\Source/probe_rs232.c **** 
 298:..\..\..\..\..\..\uC-Probe\Target\Communication\Generic\RS-232\Source/probe_rs232.c ****         if (len > 0u) {                                         /* If we have a response.          
 299:..\..\..\..\..\..\uC-Probe\Target\Communication\Generic\RS-232\Source/probe_rs232.c ****             ProbeRS232_TxLen = len;
 300:..\..\..\..\..\..\uC-Probe\Target\Communication\Generic\RS-232\Source/probe_rs232.c ****             ProbeRS232_TxStart();
 301:..\..\..\..\..\..\uC-Probe\Target\Communication\Generic\RS-232\Source/probe_rs232.c ****         }
 302:..\..\..\..\..\..\uC-Probe\Target\Communication\Generic\RS-232\Source/probe_rs232.c ****     }
 169              		.loc 1 302 0
 170 0008 00BF     		nop
 171              	.L7:
 172              		.loc 1 294 0
 173 000a FFF7FEFF 		bl	ProbeRS232_OS_Pend
 174              		.loc 1 296 0
 175 000e FFF7FEFF 		bl	ProbeRS232_ParseRxPkt
 176 0012 0346     		mov	r3, r0
 177 0014 7B60     		str	r3, [r7, #4]
 178              		.loc 1 298 0
 179 0016 7B68     		ldr	r3, [r7, #4]
 180 0018 002B     		cmp	r3, #0
 181 001a F5D0     		beq	.L9
 182              		.loc 1 299 0
 183 001c 40F20003 		movw	r3, #:lower16:ProbeRS232_TxLen
 184 0020 C0F20003 		movt	r3, #:upper16:ProbeRS232_TxLen
 185 0024 7A68     		ldr	r2, [r7, #4]
 186 0026 1A60     		str	r2, [r3, #0]
 187              		.loc 1 300 0
 188 0028 FFF7FEFF 		bl	ProbeRS232_TxStart
 189              		.loc 1 302 0
 190 002c EDE7     		b	.L7
 191              		.cfi_endproc
 192              	.LFE1:
 193              		.size	ProbeRS232_Task, .-ProbeRS232_Task
 194 002e 00BF     		.section	.text.ProbeRS232_RxHandler,"ax",%progbits
 195              		.align	2
 196              		.global	ProbeRS232_RxHandler
 197              		.thumb
 198              		.thumb_func
 199              		.type	ProbeRS232_RxHandler, %function
ARM GAS  C:\Users\daniel01\AppData\Local\Temp\ccRUCUlV.s 			page 10


 200              	ProbeRS232_RxHandler:
 201              	.LFB2:
 303:..\..\..\..\..\..\uC-Probe\Target\Communication\Generic\RS-232\Source/probe_rs232.c **** }
 304:..\..\..\..\..\..\uC-Probe\Target\Communication\Generic\RS-232\Source/probe_rs232.c **** #endif
 305:..\..\..\..\..\..\uC-Probe\Target\Communication\Generic\RS-232\Source/probe_rs232.c **** 
 306:..\..\..\..\..\..\uC-Probe\Target\Communication\Generic\RS-232\Source/probe_rs232.c **** 
 307:..\..\..\..\..\..\uC-Probe\Target\Communication\Generic\RS-232\Source/probe_rs232.c **** /*
 308:..\..\..\..\..\..\uC-Probe\Target\Communication\Generic\RS-232\Source/probe_rs232.c **** ***************************************************************************************************
 309:..\..\..\..\..\..\uC-Probe\Target\Communication\Generic\RS-232\Source/probe_rs232.c **** *                                        ProbeRS232_RxHandler()
 310:..\..\..\..\..\..\uC-Probe\Target\Communication\Generic\RS-232\Source/probe_rs232.c **** *
 311:..\..\..\..\..\..\uC-Probe\Target\Communication\Generic\RS-232\Source/probe_rs232.c **** * Description : Handle a received byte.
 312:..\..\..\..\..\..\uC-Probe\Target\Communication\Generic\RS-232\Source/probe_rs232.c **** *
 313:..\..\..\..\..\..\uC-Probe\Target\Communication\Generic\RS-232\Source/probe_rs232.c **** * Argument(s) : rx_data     Received data byte.
 314:..\..\..\..\..\..\uC-Probe\Target\Communication\Generic\RS-232\Source/probe_rs232.c **** *
 315:..\..\..\..\..\..\uC-Probe\Target\Communication\Generic\RS-232\Source/probe_rs232.c **** * Return(s)   : none.
 316:..\..\..\..\..\..\uC-Probe\Target\Communication\Generic\RS-232\Source/probe_rs232.c **** *
 317:..\..\..\..\..\..\uC-Probe\Target\Communication\Generic\RS-232\Source/probe_rs232.c **** * Caller(s)   : Rx ISR.
 318:..\..\..\..\..\..\uC-Probe\Target\Communication\Generic\RS-232\Source/probe_rs232.c **** *
 319:..\..\..\..\..\..\uC-Probe\Target\Communication\Generic\RS-232\Source/probe_rs232.c **** * Note(s)     : none.
 320:..\..\..\..\..\..\uC-Probe\Target\Communication\Generic\RS-232\Source/probe_rs232.c **** ***************************************************************************************************
 321:..\..\..\..\..\..\uC-Probe\Target\Communication\Generic\RS-232\Source/probe_rs232.c **** */
 322:..\..\..\..\..\..\uC-Probe\Target\Communication\Generic\RS-232\Source/probe_rs232.c **** 
 323:..\..\..\..\..\..\uC-Probe\Target\Communication\Generic\RS-232\Source/probe_rs232.c **** void  ProbeRS232_RxHandler (CPU_INT08U rx_data)
 324:..\..\..\..\..\..\uC-Probe\Target\Communication\Generic\RS-232\Source/probe_rs232.c **** {
 202              		.loc 1 324 0
 203              		.cfi_startproc
 204              		@ args = 0, pretend = 0, frame = 8
 205              		@ frame_needed = 1, uses_anonymous_args = 0
 206 0000 80B5     		push	{r7, lr}
 207              	.LCFI6:
 208              		.cfi_def_cfa_offset 8
 209 0002 82B0     		sub	sp, sp, #8
 210              	.LCFI7:
 211              		.cfi_def_cfa_offset 16
 212 0004 00AF     		add	r7, sp, #0
 213              		.cfi_offset 14, -4
 214              		.cfi_offset 7, -8
 215              	.LCFI8:
 216              		.cfi_def_cfa_register 7
 217 0006 0346     		mov	r3, r0
 218 0008 FB71     		strb	r3, [r7, #7]
 325:..\..\..\..\..\..\uC-Probe\Target\Communication\Generic\RS-232\Source/probe_rs232.c **** #if (PROBE_COM_CFG_STAT_EN == DEF_ENABLED)
 326:..\..\..\..\..\..\uC-Probe\Target\Communication\Generic\RS-232\Source/probe_rs232.c ****     ProbeRS232_RxCtr++;
 219              		.loc 1 326 0
 220 000a 40F20003 		movw	r3, #:lower16:ProbeRS232_RxCtr
 221 000e C0F20003 		movt	r3, #:upper16:ProbeRS232_RxCtr
 222 0012 1B68     		ldr	r3, [r3, #0]
 223 0014 03F10102 		add	r2, r3, #1
 224 0018 40F20003 		movw	r3, #:lower16:ProbeRS232_RxCtr
 225 001c C0F20003 		movt	r3, #:upper16:ProbeRS232_RxCtr
 226 0020 1A60     		str	r2, [r3, #0]
 327:..\..\..\..\..\..\uC-Probe\Target\Communication\Generic\RS-232\Source/probe_rs232.c **** #endif
 328:..\..\..\..\..\..\uC-Probe\Target\Communication\Generic\RS-232\Source/probe_rs232.c **** 
 329:..\..\..\..\..\..\uC-Probe\Target\Communication\Generic\RS-232\Source/probe_rs232.c ****     switch (ProbeRS232_RxState) {
 227              		.loc 1 329 0
 228 0022 40F20003 		movw	r3, #:lower16:ProbeRS232_RxState
 229 0026 C0F20003 		movt	r3, #:upper16:ProbeRS232_RxState
ARM GAS  C:\Users\daniel01\AppData\Local\Temp\ccRUCUlV.s 			page 11


 230 002a 1B78     		ldrb	r3, [r3, #0]	@ zero_extendqisi2
 231 002c 0A2B     		cmp	r3, #10
 232 002e 00F2F280 		bhi	.L11
 233 0032 01A2     		adr	r2, .L23
 234 0034 52F823F0 		ldr	pc, [r2, r3, lsl #2]
 235              		.align	2
 236              	.L23:
 237 0038 65000000 		.word	.L12+1
 238 003c 81000000 		.word	.L13+1
 239 0040 A7000000 		.word	.L14+1
 240 0044 CD000000 		.word	.L15+1
 241 0048 F3000000 		.word	.L16+1
 242 004c 0F010000 		.word	.L17+1
 243 0050 83010000 		.word	.L18+1
 244 0054 9F010000 		.word	.L19+1
 245 0058 AF010000 		.word	.L20+1
 246 005c ED010000 		.word	.L21+1
 247 0060 FD010000 		.word	.L22+1
 248              	.L12:
 330:..\..\..\..\..\..\uC-Probe\Target\Communication\Generic\RS-232\Source/probe_rs232.c ****         case PROBE_RS232_RX_STATE_SD0:                          /* Rx'd the start 1st start delimit
 331:..\..\..\..\..\..\uC-Probe\Target\Communication\Generic\RS-232\Source/probe_rs232.c ****              if (rx_data == PROBE_RS232_PROTOCOL_RX_SD0) {
 249              		.loc 1 331 0
 250 0064 FB79     		ldrb	r3, [r7, #7]	@ zero_extendqisi2
 251 0066 752B     		cmp	r3, #117
 252 0068 40F0DD80 		bne	.L38
 332:..\..\..\..\..\..\uC-Probe\Target\Communication\Generic\RS-232\Source/probe_rs232.c ****                  ProbeRS232_RxState = PROBE_RS232_RX_STATE_SD1;
 253              		.loc 1 332 0
 254 006c 40F20003 		movw	r3, #:lower16:ProbeRS232_RxState
 255 0070 C0F20003 		movt	r3, #:upper16:ProbeRS232_RxState
 256 0074 4FF00102 		mov	r2, #1
 257 0078 1A70     		strb	r2, [r3, #0]
 333:..\..\..\..\..\..\uC-Probe\Target\Communication\Generic\RS-232\Source/probe_rs232.c ****                  ProbeRS232_RxBufClr();
 258              		.loc 1 333 0
 259 007a FFF7FEFF 		bl	ProbeRS232_RxBufClr
 334:..\..\..\..\..\..\uC-Probe\Target\Communication\Generic\RS-232\Source/probe_rs232.c ****              }
 335:..\..\..\..\..\..\uC-Probe\Target\Communication\Generic\RS-232\Source/probe_rs232.c ****              break;
 260              		.loc 1 335 0
 261 007e D5E0     		b	.L37
 262              	.L13:
 336:..\..\..\..\..\..\uC-Probe\Target\Communication\Generic\RS-232\Source/probe_rs232.c **** 
 337:..\..\..\..\..\..\uC-Probe\Target\Communication\Generic\RS-232\Source/probe_rs232.c **** 
 338:..\..\..\..\..\..\uC-Probe\Target\Communication\Generic\RS-232\Source/probe_rs232.c ****         case PROBE_RS232_RX_STATE_SD1:                          /* Rx'd the start 2nd start delimit
 339:..\..\..\..\..\..\uC-Probe\Target\Communication\Generic\RS-232\Source/probe_rs232.c ****              if (rx_data == PROBE_RS232_PROTOCOL_RX_SD1) {
 263              		.loc 1 339 0
 264 0080 FB79     		ldrb	r3, [r7, #7]	@ zero_extendqisi2
 265 0082 432B     		cmp	r3, #67
 266 0084 07D1     		bne	.L26
 340:..\..\..\..\..\..\uC-Probe\Target\Communication\Generic\RS-232\Source/probe_rs232.c ****                  ProbeRS232_RxState = PROBE_RS232_RX_STATE_SD2;
 267              		.loc 1 340 0
 268 0086 40F20003 		movw	r3, #:lower16:ProbeRS232_RxState
 269 008a C0F20003 		movt	r3, #:upper16:ProbeRS232_RxState
 270 008e 4FF00202 		mov	r2, #2
 271 0092 1A70     		strb	r2, [r3, #0]
 341:..\..\..\..\..\..\uC-Probe\Target\Communication\Generic\RS-232\Source/probe_rs232.c ****              } else {
 342:..\..\..\..\..\..\uC-Probe\Target\Communication\Generic\RS-232\Source/probe_rs232.c ****                  ProbeRS232_RxState = PROBE_RS232_RX_STATE_SD0;
 343:..\..\..\..\..\..\uC-Probe\Target\Communication\Generic\RS-232\Source/probe_rs232.c ****              }
 344:..\..\..\..\..\..\uC-Probe\Target\Communication\Generic\RS-232\Source/probe_rs232.c ****              break;
ARM GAS  C:\Users\daniel01\AppData\Local\Temp\ccRUCUlV.s 			page 12


 272              		.loc 1 344 0
 273 0094 CAE0     		b	.L37
 274              	.L26:
 275              		.loc 1 342 0
 276 0096 40F20003 		movw	r3, #:lower16:ProbeRS232_RxState
 277 009a C0F20003 		movt	r3, #:upper16:ProbeRS232_RxState
 278 009e 4FF00002 		mov	r2, #0
 279 00a2 1A70     		strb	r2, [r3, #0]
 280              		.loc 1 344 0
 281 00a4 C2E0     		b	.L37
 282              	.L14:
 345:..\..\..\..\..\..\uC-Probe\Target\Communication\Generic\RS-232\Source/probe_rs232.c **** 
 346:..\..\..\..\..\..\uC-Probe\Target\Communication\Generic\RS-232\Source/probe_rs232.c **** 
 347:..\..\..\..\..\..\uC-Probe\Target\Communication\Generic\RS-232\Source/probe_rs232.c ****         case PROBE_RS232_RX_STATE_SD2:                          /* Rx'd the start 3rd start delimit
 348:..\..\..\..\..\..\uC-Probe\Target\Communication\Generic\RS-232\Source/probe_rs232.c ****              if (rx_data == PROBE_RS232_PROTOCOL_RX_SD2) {
 283              		.loc 1 348 0
 284 00a6 FB79     		ldrb	r3, [r7, #7]	@ zero_extendqisi2
 285 00a8 502B     		cmp	r3, #80
 286 00aa 07D1     		bne	.L28
 349:..\..\..\..\..\..\uC-Probe\Target\Communication\Generic\RS-232\Source/probe_rs232.c ****                  ProbeRS232_RxState = PROBE_RS232_RX_STATE_SD3;
 287              		.loc 1 349 0
 288 00ac 40F20003 		movw	r3, #:lower16:ProbeRS232_RxState
 289 00b0 C0F20003 		movt	r3, #:upper16:ProbeRS232_RxState
 290 00b4 4FF00302 		mov	r2, #3
 291 00b8 1A70     		strb	r2, [r3, #0]
 350:..\..\..\..\..\..\uC-Probe\Target\Communication\Generic\RS-232\Source/probe_rs232.c ****              } else {
 351:..\..\..\..\..\..\uC-Probe\Target\Communication\Generic\RS-232\Source/probe_rs232.c ****                  ProbeRS232_RxState = PROBE_RS232_RX_STATE_SD0;
 352:..\..\..\..\..\..\uC-Probe\Target\Communication\Generic\RS-232\Source/probe_rs232.c ****              }
 353:..\..\..\..\..\..\uC-Probe\Target\Communication\Generic\RS-232\Source/probe_rs232.c ****              break;
 292              		.loc 1 353 0
 293 00ba B7E0     		b	.L37
 294              	.L28:
 295              		.loc 1 351 0
 296 00bc 40F20003 		movw	r3, #:lower16:ProbeRS232_RxState
 297 00c0 C0F20003 		movt	r3, #:upper16:ProbeRS232_RxState
 298 00c4 4FF00002 		mov	r2, #0
 299 00c8 1A70     		strb	r2, [r3, #0]
 300              		.loc 1 353 0
 301 00ca AFE0     		b	.L37
 302              	.L15:
 354:..\..\..\..\..\..\uC-Probe\Target\Communication\Generic\RS-232\Source/probe_rs232.c **** 
 355:..\..\..\..\..\..\uC-Probe\Target\Communication\Generic\RS-232\Source/probe_rs232.c **** 
 356:..\..\..\..\..\..\uC-Probe\Target\Communication\Generic\RS-232\Source/probe_rs232.c ****         case PROBE_RS232_RX_STATE_SD3:                          /* Rx'd the start 4th start delimit
 357:..\..\..\..\..\..\uC-Probe\Target\Communication\Generic\RS-232\Source/probe_rs232.c ****              if (rx_data == PROBE_RS232_PROTOCOL_RX_SD3) {
 303              		.loc 1 357 0
 304 00cc FB79     		ldrb	r3, [r7, #7]	@ zero_extendqisi2
 305 00ce 722B     		cmp	r3, #114
 306 00d0 07D1     		bne	.L30
 358:..\..\..\..\..\..\uC-Probe\Target\Communication\Generic\RS-232\Source/probe_rs232.c ****                  ProbeRS232_RxState = PROBE_RS232_RX_STATE_LEN1;
 307              		.loc 1 358 0
 308 00d2 40F20003 		movw	r3, #:lower16:ProbeRS232_RxState
 309 00d6 C0F20003 		movt	r3, #:upper16:ProbeRS232_RxState
 310 00da 4FF00402 		mov	r2, #4
 311 00de 1A70     		strb	r2, [r3, #0]
 359:..\..\..\..\..\..\uC-Probe\Target\Communication\Generic\RS-232\Source/probe_rs232.c ****              } else {
 360:..\..\..\..\..\..\uC-Probe\Target\Communication\Generic\RS-232\Source/probe_rs232.c ****                  ProbeRS232_RxState = PROBE_RS232_RX_STATE_SD0;
 361:..\..\..\..\..\..\uC-Probe\Target\Communication\Generic\RS-232\Source/probe_rs232.c ****              }
ARM GAS  C:\Users\daniel01\AppData\Local\Temp\ccRUCUlV.s 			page 13


 362:..\..\..\..\..\..\uC-Probe\Target\Communication\Generic\RS-232\Source/probe_rs232.c ****              break;
 312              		.loc 1 362 0
 313 00e0 A4E0     		b	.L37
 314              	.L30:
 315              		.loc 1 360 0
 316 00e2 40F20003 		movw	r3, #:lower16:ProbeRS232_RxState
 317 00e6 C0F20003 		movt	r3, #:upper16:ProbeRS232_RxState
 318 00ea 4FF00002 		mov	r2, #0
 319 00ee 1A70     		strb	r2, [r3, #0]
 320              		.loc 1 362 0
 321 00f0 9CE0     		b	.L37
 322              	.L16:
 363:..\..\..\..\..\..\uC-Probe\Target\Communication\Generic\RS-232\Source/probe_rs232.c **** 
 364:..\..\..\..\..\..\uC-Probe\Target\Communication\Generic\RS-232\Source/probe_rs232.c **** 
 365:..\..\..\..\..\..\uC-Probe\Target\Communication\Generic\RS-232\Source/probe_rs232.c ****         case PROBE_RS232_RX_STATE_LEN1:                         /* Rx'd the 1st len byte.          
 366:..\..\..\..\..\..\uC-Probe\Target\Communication\Generic\RS-232\Source/probe_rs232.c **** #if (PROBE_RS232_CHKSUM_EN == DEF_TRUE)
 367:..\..\..\..\..\..\uC-Probe\Target\Communication\Generic\RS-232\Source/probe_rs232.c ****              ProbeRS232_RxChkSum = rx_data;
 368:..\..\..\..\..\..\uC-Probe\Target\Communication\Generic\RS-232\Source/probe_rs232.c **** #endif
 369:..\..\..\..\..\..\uC-Probe\Target\Communication\Generic\RS-232\Source/probe_rs232.c ****              ProbeRS232_RxLenRem = rx_data;
 323              		.loc 1 369 0
 324 00f2 FA79     		ldrb	r2, [r7, #7]	@ zero_extendqisi2
 325 00f4 40F20003 		movw	r3, #:lower16:ProbeRS232_RxLenRem
 326 00f8 C0F20003 		movt	r3, #:upper16:ProbeRS232_RxLenRem
 327 00fc 1A60     		str	r2, [r3, #0]
 370:..\..\..\..\..\..\uC-Probe\Target\Communication\Generic\RS-232\Source/probe_rs232.c ****              ProbeRS232_RxState  = PROBE_RS232_RX_STATE_LEN2;
 328              		.loc 1 370 0
 329 00fe 40F20003 		movw	r3, #:lower16:ProbeRS232_RxState
 330 0102 C0F20003 		movt	r3, #:upper16:ProbeRS232_RxState
 331 0106 4FF00502 		mov	r2, #5
 332 010a 1A70     		strb	r2, [r3, #0]
 371:..\..\..\..\..\..\uC-Probe\Target\Communication\Generic\RS-232\Source/probe_rs232.c ****              break;
 333              		.loc 1 371 0
 334 010c 8EE0     		b	.L37
 335              	.L17:
 372:..\..\..\..\..\..\uC-Probe\Target\Communication\Generic\RS-232\Source/probe_rs232.c **** 
 373:..\..\..\..\..\..\uC-Probe\Target\Communication\Generic\RS-232\Source/probe_rs232.c **** 
 374:..\..\..\..\..\..\uC-Probe\Target\Communication\Generic\RS-232\Source/probe_rs232.c ****         case PROBE_RS232_RX_STATE_LEN2:                         /* Rx'd the 2nd len byte.          
 375:..\..\..\..\..\..\uC-Probe\Target\Communication\Generic\RS-232\Source/probe_rs232.c **** #if (PROBE_RS232_CHKSUM_EN == DEF_TRUE)
 376:..\..\..\..\..\..\uC-Probe\Target\Communication\Generic\RS-232\Source/probe_rs232.c ****              ProbeRS232_RxChkSum += rx_data;
 377:..\..\..\..\..\..\uC-Probe\Target\Communication\Generic\RS-232\Source/probe_rs232.c **** #endif
 378:..\..\..\..\..\..\uC-Probe\Target\Communication\Generic\RS-232\Source/probe_rs232.c ****              ProbeRS232_RxLenRem |= rx_data << 8;
 336              		.loc 1 378 0
 337 010e FB79     		ldrb	r3, [r7, #7]	@ zero_extendqisi2
 338 0110 4FEA0323 		lsl	r3, r3, #8
 339 0114 1A46     		mov	r2, r3
 340 0116 40F20003 		movw	r3, #:lower16:ProbeRS232_RxLenRem
 341 011a C0F20003 		movt	r3, #:upper16:ProbeRS232_RxLenRem
 342 011e 1B68     		ldr	r3, [r3, #0]
 343 0120 42EA0302 		orr	r2, r2, r3
 344 0124 40F20003 		movw	r3, #:lower16:ProbeRS232_RxLenRem
 345 0128 C0F20003 		movt	r3, #:upper16:ProbeRS232_RxLenRem
 346 012c 1A60     		str	r2, [r3, #0]
 379:..\..\..\..\..\..\uC-Probe\Target\Communication\Generic\RS-232\Source/probe_rs232.c **** 
 380:..\..\..\..\..\..\uC-Probe\Target\Communication\Generic\RS-232\Source/probe_rs232.c ****                                                                 /* Chk len.                        
 381:..\..\..\..\..\..\uC-Probe\Target\Communication\Generic\RS-232\Source/probe_rs232.c ****              if ((ProbeRS232_RxLenRem == 0u) || (ProbeRS232_RxLenRem > PROBE_RS232_CFG_RX_BUF_SIZE)
 347              		.loc 1 381 0
 348 012e 40F20003 		movw	r3, #:lower16:ProbeRS232_RxLenRem
ARM GAS  C:\Users\daniel01\AppData\Local\Temp\ccRUCUlV.s 			page 14


 349 0132 C0F20003 		movt	r3, #:upper16:ProbeRS232_RxLenRem
 350 0136 1B68     		ldr	r3, [r3, #0]
 351 0138 002B     		cmp	r3, #0
 352 013a 07D0     		beq	.L32
 353 013c 40F20003 		movw	r3, #:lower16:ProbeRS232_RxLenRem
 354 0140 C0F20003 		movt	r3, #:upper16:ProbeRS232_RxLenRem
 355 0144 1B68     		ldr	r3, [r3, #0]
 356 0146 B3F5007F 		cmp	r3, #512
 357 014a 08D9     		bls	.L33
 358              	.L32:
 382:..\..\..\..\..\..\uC-Probe\Target\Communication\Generic\RS-232\Source/probe_rs232.c ****                  ProbeRS232_RxState = PROBE_RS232_RX_STATE_SD0;
 359              		.loc 1 382 0
 360 014c 40F20003 		movw	r3, #:lower16:ProbeRS232_RxState
 361 0150 C0F20003 		movt	r3, #:upper16:ProbeRS232_RxState
 362 0154 4FF00002 		mov	r2, #0
 363 0158 1A70     		strb	r2, [r3, #0]
 364              		.loc 1 381 0
 365 015a 00BF     		nop
 383:..\..\..\..\..\..\uC-Probe\Target\Communication\Generic\RS-232\Source/probe_rs232.c ****              } else {
 384:..\..\..\..\..\..\uC-Probe\Target\Communication\Generic\RS-232\Source/probe_rs232.c ****                  ProbeRS232_RxLen   = ProbeRS232_RxLenRem;
 385:..\..\..\..\..\..\uC-Probe\Target\Communication\Generic\RS-232\Source/probe_rs232.c ****                  ProbeRS232_RxState = PROBE_RS232_RX_STATE_CTR;
 386:..\..\..\..\..\..\uC-Probe\Target\Communication\Generic\RS-232\Source/probe_rs232.c ****              }
 387:..\..\..\..\..\..\uC-Probe\Target\Communication\Generic\RS-232\Source/probe_rs232.c ****              break;
 366              		.loc 1 387 0
 367 015c 66E0     		b	.L37
 368              	.L33:
 369              		.loc 1 384 0
 370 015e 40F20003 		movw	r3, #:lower16:ProbeRS232_RxLenRem
 371 0162 C0F20003 		movt	r3, #:upper16:ProbeRS232_RxLenRem
 372 0166 1A68     		ldr	r2, [r3, #0]
 373 0168 40F20003 		movw	r3, #:lower16:ProbeRS232_RxLen
 374 016c C0F20003 		movt	r3, #:upper16:ProbeRS232_RxLen
 375 0170 1A60     		str	r2, [r3, #0]
 376              		.loc 1 385 0
 377 0172 40F20003 		movw	r3, #:lower16:ProbeRS232_RxState
 378 0176 C0F20003 		movt	r3, #:upper16:ProbeRS232_RxState
 379 017a 4FF00602 		mov	r2, #6
 380 017e 1A70     		strb	r2, [r3, #0]
 381              		.loc 1 387 0
 382 0180 54E0     		b	.L37
 383              	.L18:
 388:..\..\..\..\..\..\uC-Probe\Target\Communication\Generic\RS-232\Source/probe_rs232.c **** 
 389:..\..\..\..\..\..\uC-Probe\Target\Communication\Generic\RS-232\Source/probe_rs232.c **** 
 390:..\..\..\..\..\..\uC-Probe\Target\Communication\Generic\RS-232\Source/probe_rs232.c ****         case PROBE_RS232_RX_STATE_CTR:                          /* Rx'd the packet counter.        
 391:..\..\..\..\..\..\uC-Probe\Target\Communication\Generic\RS-232\Source/probe_rs232.c ****              ProbeRS232_RxPktCtr = rx_data;
 384              		.loc 1 391 0
 385 0182 FA79     		ldrb	r2, [r7, #7]	@ zero_extendqisi2
 386 0184 40F20003 		movw	r3, #:lower16:ProbeRS232_RxPktCtr
 387 0188 C0F20003 		movt	r3, #:upper16:ProbeRS232_RxPktCtr
 388 018c 1A60     		str	r2, [r3, #0]
 392:..\..\..\..\..\..\uC-Probe\Target\Communication\Generic\RS-232\Source/probe_rs232.c ****              ProbeRS232_RxState  = PROBE_RS232_RX_STATE_PAD;
 389              		.loc 1 392 0
 390 018e 40F20003 		movw	r3, #:lower16:ProbeRS232_RxState
 391 0192 C0F20003 		movt	r3, #:upper16:ProbeRS232_RxState
 392 0196 4FF00702 		mov	r2, #7
 393 019a 1A70     		strb	r2, [r3, #0]
 393:..\..\..\..\..\..\uC-Probe\Target\Communication\Generic\RS-232\Source/probe_rs232.c ****              break;
ARM GAS  C:\Users\daniel01\AppData\Local\Temp\ccRUCUlV.s 			page 15


 394              		.loc 1 393 0
 395 019c 46E0     		b	.L37
 396              	.L19:
 394:..\..\..\..\..\..\uC-Probe\Target\Communication\Generic\RS-232\Source/probe_rs232.c **** 
 395:..\..\..\..\..\..\uC-Probe\Target\Communication\Generic\RS-232\Source/probe_rs232.c **** 
 396:..\..\..\..\..\..\uC-Probe\Target\Communication\Generic\RS-232\Source/probe_rs232.c ****         case PROBE_RS232_RX_STATE_PAD:                          /* Rx'd the padding byte.          
 397:..\..\..\..\..\..\uC-Probe\Target\Communication\Generic\RS-232\Source/probe_rs232.c ****              ProbeRS232_RxState = PROBE_RS232_RX_STATE_DATA;
 397              		.loc 1 397 0
 398 019e 40F20003 		movw	r3, #:lower16:ProbeRS232_RxState
 399 01a2 C0F20003 		movt	r3, #:upper16:ProbeRS232_RxState
 400 01a6 4FF00802 		mov	r2, #8
 401 01aa 1A70     		strb	r2, [r3, #0]
 398:..\..\..\..\..\..\uC-Probe\Target\Communication\Generic\RS-232\Source/probe_rs232.c ****              break;
 402              		.loc 1 398 0
 403 01ac 3EE0     		b	.L37
 404              	.L20:
 399:..\..\..\..\..\..\uC-Probe\Target\Communication\Generic\RS-232\Source/probe_rs232.c **** 
 400:..\..\..\..\..\..\uC-Probe\Target\Communication\Generic\RS-232\Source/probe_rs232.c **** 
 401:..\..\..\..\..\..\uC-Probe\Target\Communication\Generic\RS-232\Source/probe_rs232.c ****         case PROBE_RS232_RX_STATE_DATA:                         /* Rx'd data.                      
 402:..\..\..\..\..\..\uC-Probe\Target\Communication\Generic\RS-232\Source/probe_rs232.c ****              ProbeRS232_RxStoINT8U(rx_data);
 405              		.loc 1 402 0
 406 01ae FB79     		ldrb	r3, [r7, #7]	@ zero_extendqisi2
 407 01b0 1846     		mov	r0, r3
 408 01b2 FFF7FEFF 		bl	ProbeRS232_RxStoINT8U
 403:..\..\..\..\..\..\uC-Probe\Target\Communication\Generic\RS-232\Source/probe_rs232.c **** #if (PROBE_RS232_CHKSUM_EN == DEF_TRUE)
 404:..\..\..\..\..\..\uC-Probe\Target\Communication\Generic\RS-232\Source/probe_rs232.c ****              ProbeRS232_RxChkSum += rx_data;
 405:..\..\..\..\..\..\uC-Probe\Target\Communication\Generic\RS-232\Source/probe_rs232.c **** #endif
 406:..\..\..\..\..\..\uC-Probe\Target\Communication\Generic\RS-232\Source/probe_rs232.c ****              ProbeRS232_RxLenRem--;
 409              		.loc 1 406 0
 410 01b6 40F20003 		movw	r3, #:lower16:ProbeRS232_RxLenRem
 411 01ba C0F20003 		movt	r3, #:upper16:ProbeRS232_RxLenRem
 412 01be 1B68     		ldr	r3, [r3, #0]
 413 01c0 03F1FF32 		add	r2, r3, #-1
 414 01c4 40F20003 		movw	r3, #:lower16:ProbeRS232_RxLenRem
 415 01c8 C0F20003 		movt	r3, #:upper16:ProbeRS232_RxLenRem
 416 01cc 1A60     		str	r2, [r3, #0]
 407:..\..\..\..\..\..\uC-Probe\Target\Communication\Generic\RS-232\Source/probe_rs232.c ****              if (ProbeRS232_RxLenRem == 0) {
 417              		.loc 1 407 0
 418 01ce 40F20003 		movw	r3, #:lower16:ProbeRS232_RxLenRem
 419 01d2 C0F20003 		movt	r3, #:upper16:ProbeRS232_RxLenRem
 420 01d6 1B68     		ldr	r3, [r3, #0]
 421 01d8 002B     		cmp	r3, #0
 422 01da 26D1     		bne	.L39
 408:..\..\..\..\..\..\uC-Probe\Target\Communication\Generic\RS-232\Source/probe_rs232.c ****                  ProbeRS232_RxState = PROBE_RS232_RX_STATE_CHKSUM;
 423              		.loc 1 408 0
 424 01dc 40F20003 		movw	r3, #:lower16:ProbeRS232_RxState
 425 01e0 C0F20003 		movt	r3, #:upper16:ProbeRS232_RxState
 426 01e4 4FF00902 		mov	r2, #9
 427 01e8 1A70     		strb	r2, [r3, #0]
 409:..\..\..\..\..\..\uC-Probe\Target\Communication\Generic\RS-232\Source/probe_rs232.c ****              }
 410:..\..\..\..\..\..\uC-Probe\Target\Communication\Generic\RS-232\Source/probe_rs232.c ****              break;
 428              		.loc 1 410 0
 429 01ea 1FE0     		b	.L37
 430              	.L21:
 411:..\..\..\..\..\..\uC-Probe\Target\Communication\Generic\RS-232\Source/probe_rs232.c **** 
 412:..\..\..\..\..\..\uC-Probe\Target\Communication\Generic\RS-232\Source/probe_rs232.c **** 
 413:..\..\..\..\..\..\uC-Probe\Target\Communication\Generic\RS-232\Source/probe_rs232.c ****         case PROBE_RS232_RX_STATE_CHKSUM:                       /* Rx'd the checksum.              
ARM GAS  C:\Users\daniel01\AppData\Local\Temp\ccRUCUlV.s 			page 16


 414:..\..\..\..\..\..\uC-Probe\Target\Communication\Generic\RS-232\Source/probe_rs232.c **** #if (PROBE_RS232_CHKSUM_EN == DEF_TRUE)
 415:..\..\..\..\..\..\uC-Probe\Target\Communication\Generic\RS-232\Source/probe_rs232.c ****              ProbeRS232_RxChkSum += rx_data;
 416:..\..\..\..\..\..\uC-Probe\Target\Communication\Generic\RS-232\Source/probe_rs232.c ****              if ((ProbeRS232_RxChkSum & 0xFF) == 0x00) {
 417:..\..\..\..\..\..\uC-Probe\Target\Communication\Generic\RS-232\Source/probe_rs232.c ****                  ProbeRS232_RxState = PROBE_RS232_RX_STATE_ED;
 418:..\..\..\..\..\..\uC-Probe\Target\Communication\Generic\RS-232\Source/probe_rs232.c ****              } else {
 419:..\..\..\..\..\..\uC-Probe\Target\Communication\Generic\RS-232\Source/probe_rs232.c ****                  ProbeRS232_RxState = PROBE_RS232_RX_STATE_SD0;
 420:..\..\..\..\..\..\uC-Probe\Target\Communication\Generic\RS-232\Source/probe_rs232.c ****              }
 421:..\..\..\..\..\..\uC-Probe\Target\Communication\Generic\RS-232\Source/probe_rs232.c **** #else
 422:..\..\..\..\..\..\uC-Probe\Target\Communication\Generic\RS-232\Source/probe_rs232.c ****              ProbeRS232_RxState = PROBE_RS232_RX_STATE_ED;
 431              		.loc 1 422 0
 432 01ec 40F20003 		movw	r3, #:lower16:ProbeRS232_RxState
 433 01f0 C0F20003 		movt	r3, #:upper16:ProbeRS232_RxState
 434 01f4 4FF00A02 		mov	r2, #10
 435 01f8 1A70     		strb	r2, [r3, #0]
 423:..\..\..\..\..\..\uC-Probe\Target\Communication\Generic\RS-232\Source/probe_rs232.c **** #endif
 424:..\..\..\..\..\..\uC-Probe\Target\Communication\Generic\RS-232\Source/probe_rs232.c ****              break;
 436              		.loc 1 424 0
 437 01fa 17E0     		b	.L37
 438              	.L22:
 425:..\..\..\..\..\..\uC-Probe\Target\Communication\Generic\RS-232\Source/probe_rs232.c **** 
 426:..\..\..\..\..\..\uC-Probe\Target\Communication\Generic\RS-232\Source/probe_rs232.c **** 
 427:..\..\..\..\..\..\uC-Probe\Target\Communication\Generic\RS-232\Source/probe_rs232.c ****         case PROBE_RS232_RX_STATE_ED:                           /* Rx'd the end delimiter.         
 428:..\..\..\..\..\..\uC-Probe\Target\Communication\Generic\RS-232\Source/probe_rs232.c ****              if (rx_data == PROBE_RS232_PROTOCOL_RX_ED) {
 439              		.loc 1 428 0
 440 01fc FB79     		ldrb	r3, [r7, #7]	@ zero_extendqisi2
 441 01fe 2F2B     		cmp	r3, #47
 442 0200 01D1     		bne	.L36
 429:..\..\..\..\..\..\uC-Probe\Target\Communication\Generic\RS-232\Source/probe_rs232.c ****                  ProbeRS232_RxPkt();                            /* Parse rx'd pkt.                 
 443              		.loc 1 429 0
 444 0202 FFF7FEFF 		bl	ProbeRS232_RxPkt
 445              	.L36:
 430:..\..\..\..\..\..\uC-Probe\Target\Communication\Generic\RS-232\Source/probe_rs232.c ****              }
 431:..\..\..\..\..\..\uC-Probe\Target\Communication\Generic\RS-232\Source/probe_rs232.c ****              ProbeRS232_RxState = PROBE_RS232_RX_STATE_SD0;
 446              		.loc 1 431 0
 447 0206 40F20003 		movw	r3, #:lower16:ProbeRS232_RxState
 448 020a C0F20003 		movt	r3, #:upper16:ProbeRS232_RxState
 449 020e 4FF00002 		mov	r2, #0
 450 0212 1A70     		strb	r2, [r3, #0]
 432:..\..\..\..\..\..\uC-Probe\Target\Communication\Generic\RS-232\Source/probe_rs232.c ****              break;
 451              		.loc 1 432 0
 452 0214 0AE0     		b	.L37
 453              	.L11:
 433:..\..\..\..\..\..\uC-Probe\Target\Communication\Generic\RS-232\Source/probe_rs232.c **** 
 434:..\..\..\..\..\..\uC-Probe\Target\Communication\Generic\RS-232\Source/probe_rs232.c **** 
 435:..\..\..\..\..\..\uC-Probe\Target\Communication\Generic\RS-232\Source/probe_rs232.c ****         default:
 436:..\..\..\..\..\..\uC-Probe\Target\Communication\Generic\RS-232\Source/probe_rs232.c ****              ProbeRS232_RxState = PROBE_RS232_RX_STATE_SD0;
 454              		.loc 1 436 0
 455 0216 40F20003 		movw	r3, #:lower16:ProbeRS232_RxState
 456 021a C0F20003 		movt	r3, #:upper16:ProbeRS232_RxState
 457 021e 4FF00002 		mov	r2, #0
 458 0222 1A70     		strb	r2, [r3, #0]
 459 0224 02E0     		b	.L37
 460              	.L38:
 461              		.loc 1 335 0
 462 0226 00BF     		nop
 463 0228 00E0     		b	.L37
 464              	.L39:
ARM GAS  C:\Users\daniel01\AppData\Local\Temp\ccRUCUlV.s 			page 17


 465              		.loc 1 410 0
 466 022a 00BF     		nop
 467              	.L37:
 437:..\..\..\..\..\..\uC-Probe\Target\Communication\Generic\RS-232\Source/probe_rs232.c ****              break;
 438:..\..\..\..\..\..\uC-Probe\Target\Communication\Generic\RS-232\Source/probe_rs232.c ****     }
 439:..\..\..\..\..\..\uC-Probe\Target\Communication\Generic\RS-232\Source/probe_rs232.c **** }
 468              		.loc 1 439 0
 469 022c 07F10807 		add	r7, r7, #8
 470 0230 BD46     		mov	sp, r7
 471 0232 80BD     		pop	{r7, pc}
 472              		.cfi_endproc
 473              	.LFE2:
 474              		.size	ProbeRS232_RxHandler, .-ProbeRS232_RxHandler
 475              		.section	.text.ProbeRS232_TxHandler,"ax",%progbits
 476              		.align	2
 477              		.global	ProbeRS232_TxHandler
 478              		.thumb
 479              		.thumb_func
 480              		.type	ProbeRS232_TxHandler, %function
 481              	ProbeRS232_TxHandler:
 482              	.LFB3:
 440:..\..\..\..\..\..\uC-Probe\Target\Communication\Generic\RS-232\Source/probe_rs232.c **** 
 441:..\..\..\..\..\..\uC-Probe\Target\Communication\Generic\RS-232\Source/probe_rs232.c **** 
 442:..\..\..\..\..\..\uC-Probe\Target\Communication\Generic\RS-232\Source/probe_rs232.c **** /*
 443:..\..\..\..\..\..\uC-Probe\Target\Communication\Generic\RS-232\Source/probe_rs232.c **** ***************************************************************************************************
 444:..\..\..\..\..\..\uC-Probe\Target\Communication\Generic\RS-232\Source/probe_rs232.c **** *                                       ProbeRS232_TxHandler()
 445:..\..\..\..\..\..\uC-Probe\Target\Communication\Generic\RS-232\Source/probe_rs232.c **** *
 446:..\..\..\..\..\..\uC-Probe\Target\Communication\Generic\RS-232\Source/probe_rs232.c **** * Description : Handle a byte transmission.
 447:..\..\..\..\..\..\uC-Probe\Target\Communication\Generic\RS-232\Source/probe_rs232.c **** *
 448:..\..\..\..\..\..\uC-Probe\Target\Communication\Generic\RS-232\Source/probe_rs232.c **** * Argument(s) : none.
 449:..\..\..\..\..\..\uC-Probe\Target\Communication\Generic\RS-232\Source/probe_rs232.c **** *
 450:..\..\..\..\..\..\uC-Probe\Target\Communication\Generic\RS-232\Source/probe_rs232.c **** * Return(s)   : none.
 451:..\..\..\..\..\..\uC-Probe\Target\Communication\Generic\RS-232\Source/probe_rs232.c **** *
 452:..\..\..\..\..\..\uC-Probe\Target\Communication\Generic\RS-232\Source/probe_rs232.c **** * Caller(s)   : Tx ISR.
 453:..\..\..\..\..\..\uC-Probe\Target\Communication\Generic\RS-232\Source/probe_rs232.c **** *
 454:..\..\..\..\..\..\uC-Probe\Target\Communication\Generic\RS-232\Source/probe_rs232.c **** * Note(s)     : none.
 455:..\..\..\..\..\..\uC-Probe\Target\Communication\Generic\RS-232\Source/probe_rs232.c **** ***************************************************************************************************
 456:..\..\..\..\..\..\uC-Probe\Target\Communication\Generic\RS-232\Source/probe_rs232.c **** */
 457:..\..\..\..\..\..\uC-Probe\Target\Communication\Generic\RS-232\Source/probe_rs232.c **** 
 458:..\..\..\..\..\..\uC-Probe\Target\Communication\Generic\RS-232\Source/probe_rs232.c **** void  ProbeRS232_TxHandler (void)
 459:..\..\..\..\..\..\uC-Probe\Target\Communication\Generic\RS-232\Source/probe_rs232.c **** {
 483              		.loc 1 459 0
 484              		.cfi_startproc
 485              		@ args = 0, pretend = 0, frame = 8
 486              		@ frame_needed = 1, uses_anonymous_args = 0
 487 0000 80B5     		push	{r7, lr}
 488              	.LCFI9:
 489              		.cfi_def_cfa_offset 8
 490 0002 82B0     		sub	sp, sp, #8
 491              	.LCFI10:
 492              		.cfi_def_cfa_offset 16
 493 0004 00AF     		add	r7, sp, #0
 494              		.cfi_offset 14, -4
 495              		.cfi_offset 7, -8
 496              	.LCFI11:
 497              		.cfi_def_cfa_register 7
 460:..\..\..\..\..\..\uC-Probe\Target\Communication\Generic\RS-232\Source/probe_rs232.c ****     CPU_INT08U  tx_data;
ARM GAS  C:\Users\daniel01\AppData\Local\Temp\ccRUCUlV.s 			page 18


 461:..\..\..\..\..\..\uC-Probe\Target\Communication\Generic\RS-232\Source/probe_rs232.c **** 
 462:..\..\..\..\..\..\uC-Probe\Target\Communication\Generic\RS-232\Source/probe_rs232.c **** 
 463:..\..\..\..\..\..\uC-Probe\Target\Communication\Generic\RS-232\Source/probe_rs232.c **** #if (PROBE_COM_CFG_STAT_EN == DEF_ENABLED)
 464:..\..\..\..\..\..\uC-Probe\Target\Communication\Generic\RS-232\Source/probe_rs232.c ****     if ((ProbeRS232_TxState != PROBE_RS232_TX_STATE_SD0) ||
 498              		.loc 1 464 0
 499 0006 40F20003 		movw	r3, #:lower16:ProbeRS232_TxState
 500 000a C0F20003 		movt	r3, #:upper16:ProbeRS232_TxState
 501 000e 1B78     		ldrb	r3, [r3, #0]	@ zero_extendqisi2
 502 0010 002B     		cmp	r3, #0
 503 0012 06D1     		bne	.L41
 465:..\..\..\..\..\..\uC-Probe\Target\Communication\Generic\RS-232\Source/probe_rs232.c ****         (ProbeRS232_TxLen    > 0u                      )) {
 504              		.loc 1 465 0
 505 0014 40F20003 		movw	r3, #:lower16:ProbeRS232_TxLen
 506 0018 C0F20003 		movt	r3, #:upper16:ProbeRS232_TxLen
 507 001c 1B68     		ldr	r3, [r3, #0]
 508              		.loc 1 464 0
 509 001e 002B     		cmp	r3, #0
 510 0020 0BD0     		beq	.L42
 511              	.L41:
 466:..\..\..\..\..\..\uC-Probe\Target\Communication\Generic\RS-232\Source/probe_rs232.c ****         ProbeRS232_TxCtr++;
 512              		.loc 1 466 0
 513 0022 40F20003 		movw	r3, #:lower16:ProbeRS232_TxCtr
 514 0026 C0F20003 		movt	r3, #:upper16:ProbeRS232_TxCtr
 515 002a 1B68     		ldr	r3, [r3, #0]
 516 002c 03F10102 		add	r2, r3, #1
 517 0030 40F20003 		movw	r3, #:lower16:ProbeRS232_TxCtr
 518 0034 C0F20003 		movt	r3, #:upper16:ProbeRS232_TxCtr
 519 0038 1A60     		str	r2, [r3, #0]
 520              	.L42:
 467:..\..\..\..\..\..\uC-Probe\Target\Communication\Generic\RS-232\Source/probe_rs232.c ****     }
 468:..\..\..\..\..\..\uC-Probe\Target\Communication\Generic\RS-232\Source/probe_rs232.c **** #endif
 469:..\..\..\..\..\..\uC-Probe\Target\Communication\Generic\RS-232\Source/probe_rs232.c **** 
 470:..\..\..\..\..\..\uC-Probe\Target\Communication\Generic\RS-232\Source/probe_rs232.c ****     switch (ProbeRS232_TxState) {
 521              		.loc 1 470 0
 522 003a 40F20003 		movw	r3, #:lower16:ProbeRS232_TxState
 523 003e C0F20003 		movt	r3, #:upper16:ProbeRS232_TxState
 524 0042 1B78     		ldrb	r3, [r3, #0]	@ zero_extendqisi2
 525 0044 0A2B     		cmp	r3, #10
 526 0046 00F20181 		bhi	.L43
 527 004a 01A2     		adr	r2, .L55
 528 004c 52F823F0 		ldr	pc, [r2, r3, lsl #2]
 529              		.align	2
 530              	.L55:
 531 0050 7D000000 		.word	.L44+1
 532 0054 D3000000 		.word	.L45+1
 533 0058 EB000000 		.word	.L46+1
 534 005c 03010000 		.word	.L47+1
 535 0060 1B010000 		.word	.L48+1
 536 0064 3F010000 		.word	.L49+1
 537 0068 67010000 		.word	.L50+1
 538 006c 8B010000 		.word	.L51+1
 539 0070 A3010000 		.word	.L52+1
 540 0074 0F020000 		.word	.L53+1
 541 0078 27020000 		.word	.L54+1
 542              	.L44:
 471:..\..\..\..\..\..\uC-Probe\Target\Communication\Generic\RS-232\Source/probe_rs232.c ****         case PROBE_RS232_TX_STATE_SD0:
 472:..\..\..\..\..\..\uC-Probe\Target\Communication\Generic\RS-232\Source/probe_rs232.c ****              if (ProbeRS232_TxLen > 0u) {                       /* If pkt is waiting to be sent ...
ARM GAS  C:\Users\daniel01\AppData\Local\Temp\ccRUCUlV.s 			page 19


 543              		.loc 1 472 0
 544 007c 40F20003 		movw	r3, #:lower16:ProbeRS232_TxLen
 545 0080 C0F20003 		movt	r3, #:upper16:ProbeRS232_TxLen
 546 0084 1B68     		ldr	r3, [r3, #0]
 547 0086 002B     		cmp	r3, #0
 548 0088 19D0     		beq	.L56
 473:..\..\..\..\..\..\uC-Probe\Target\Communication\Generic\RS-232\Source/probe_rs232.c ****                  ProbeRS232_Tx1(PROBE_RS232_PROTOCOL_TX_SD0);   /*  ... tx start 1st start delimite
 549              		.loc 1 473 0
 550 008a 4FF07500 		mov	r0, #117
 551 008e FFF7FEFF 		bl	ProbeRS232_Tx1
 474:..\..\..\..\..\..\uC-Probe\Target\Communication\Generic\RS-232\Source/probe_rs232.c ****                  ProbeRS232_TxActiveFlag = DEF_TRUE;
 552              		.loc 1 474 0
 553 0092 40F20003 		movw	r3, #:lower16:ProbeRS232_TxActiveFlag
 554 0096 C0F20003 		movt	r3, #:upper16:ProbeRS232_TxActiveFlag
 555 009a 4FF00102 		mov	r2, #1
 556 009e 1A70     		strb	r2, [r3, #0]
 475:..\..\..\..\..\..\uC-Probe\Target\Communication\Generic\RS-232\Source/probe_rs232.c ****                  ProbeRS232_TxState      = PROBE_RS232_TX_STATE_SD1;
 557              		.loc 1 475 0
 558 00a0 40F20003 		movw	r3, #:lower16:ProbeRS232_TxState
 559 00a4 C0F20003 		movt	r3, #:upper16:ProbeRS232_TxState
 560 00a8 4FF00102 		mov	r2, #1
 561 00ac 1A70     		strb	r2, [r3, #0]
 476:..\..\..\..\..\..\uC-Probe\Target\Communication\Generic\RS-232\Source/probe_rs232.c ****                  ProbeRS232_TxBufRdIx    = 0u;
 562              		.loc 1 476 0
 563 00ae 40F20003 		movw	r3, #:lower16:ProbeRS232_TxBufRdIx
 564 00b2 C0F20003 		movt	r3, #:upper16:ProbeRS232_TxBufRdIx
 565 00b6 4FF00002 		mov	r2, #0
 566 00ba 1A60     		str	r2, [r3, #0]
 477:..\..\..\..\..\..\uC-Probe\Target\Communication\Generic\RS-232\Source/probe_rs232.c **** 
 478:..\..\..\..\..\..\uC-Probe\Target\Communication\Generic\RS-232\Source/probe_rs232.c ****              } else {                                           /* If no pkt is waiting to be sent 
 479:..\..\..\..\..\..\uC-Probe\Target\Communication\Generic\RS-232\Source/probe_rs232.c ****                  ProbeRS232_TxActiveFlag = DEF_FALSE;
 480:..\..\..\..\..\..\uC-Probe\Target\Communication\Generic\RS-232\Source/probe_rs232.c ****                  ProbeRS232_TxIntDis();                         /*  ... dis tx int's.              
 481:..\..\..\..\..\..\uC-Probe\Target\Communication\Generic\RS-232\Source/probe_rs232.c ****              }
 482:..\..\..\..\..\..\uC-Probe\Target\Communication\Generic\RS-232\Source/probe_rs232.c ****              break;
 567              		.loc 1 482 0
 568 00bc D8E0     		b	.L60
 569              	.L56:
 570              		.loc 1 479 0
 571 00be 40F20003 		movw	r3, #:lower16:ProbeRS232_TxActiveFlag
 572 00c2 C0F20003 		movt	r3, #:upper16:ProbeRS232_TxActiveFlag
 573 00c6 4FF00002 		mov	r2, #0
 574 00ca 1A70     		strb	r2, [r3, #0]
 575              		.loc 1 480 0
 576 00cc FFF7FEFF 		bl	ProbeRS232_TxIntDis
 577              		.loc 1 482 0
 578 00d0 CEE0     		b	.L60
 579              	.L45:
 483:..\..\..\..\..\..\uC-Probe\Target\Communication\Generic\RS-232\Source/probe_rs232.c **** 
 484:..\..\..\..\..\..\uC-Probe\Target\Communication\Generic\RS-232\Source/probe_rs232.c **** 
 485:..\..\..\..\..\..\uC-Probe\Target\Communication\Generic\RS-232\Source/probe_rs232.c ****         case PROBE_RS232_TX_STATE_SD1:                          /* Tx start 2nd start delimiter (SD
 486:..\..\..\..\..\..\uC-Probe\Target\Communication\Generic\RS-232\Source/probe_rs232.c ****              ProbeRS232_Tx1(PROBE_RS232_PROTOCOL_TX_SD1);
 580              		.loc 1 486 0
 581 00d2 4FF04300 		mov	r0, #67
 582 00d6 FFF7FEFF 		bl	ProbeRS232_Tx1
 487:..\..\..\..\..\..\uC-Probe\Target\Communication\Generic\RS-232\Source/probe_rs232.c ****              ProbeRS232_TxState = PROBE_RS232_TX_STATE_SD2;
 583              		.loc 1 487 0
 584 00da 40F20003 		movw	r3, #:lower16:ProbeRS232_TxState
ARM GAS  C:\Users\daniel01\AppData\Local\Temp\ccRUCUlV.s 			page 20


 585 00de C0F20003 		movt	r3, #:upper16:ProbeRS232_TxState
 586 00e2 4FF00202 		mov	r2, #2
 587 00e6 1A70     		strb	r2, [r3, #0]
 488:..\..\..\..\..\..\uC-Probe\Target\Communication\Generic\RS-232\Source/probe_rs232.c ****              break;
 588              		.loc 1 488 0
 589 00e8 C2E0     		b	.L60
 590              	.L46:
 489:..\..\..\..\..\..\uC-Probe\Target\Communication\Generic\RS-232\Source/probe_rs232.c **** 
 490:..\..\..\..\..\..\uC-Probe\Target\Communication\Generic\RS-232\Source/probe_rs232.c **** 
 491:..\..\..\..\..\..\uC-Probe\Target\Communication\Generic\RS-232\Source/probe_rs232.c ****         case PROBE_RS232_TX_STATE_SD2:                          /* Tx start 3rd start delimiter (SD
 492:..\..\..\..\..\..\uC-Probe\Target\Communication\Generic\RS-232\Source/probe_rs232.c ****              ProbeRS232_Tx1(PROBE_RS232_PROTOCOL_TX_SD2);
 591              		.loc 1 492 0
 592 00ea 4FF05000 		mov	r0, #80
 593 00ee FFF7FEFF 		bl	ProbeRS232_Tx1
 493:..\..\..\..\..\..\uC-Probe\Target\Communication\Generic\RS-232\Source/probe_rs232.c ****              ProbeRS232_TxState = PROBE_RS232_TX_STATE_SD3;
 594              		.loc 1 493 0
 595 00f2 40F20003 		movw	r3, #:lower16:ProbeRS232_TxState
 596 00f6 C0F20003 		movt	r3, #:upper16:ProbeRS232_TxState
 597 00fa 4FF00302 		mov	r2, #3
 598 00fe 1A70     		strb	r2, [r3, #0]
 494:..\..\..\..\..\..\uC-Probe\Target\Communication\Generic\RS-232\Source/probe_rs232.c ****              break;
 599              		.loc 1 494 0
 600 0100 B6E0     		b	.L60
 601              	.L47:
 495:..\..\..\..\..\..\uC-Probe\Target\Communication\Generic\RS-232\Source/probe_rs232.c **** 
 496:..\..\..\..\..\..\uC-Probe\Target\Communication\Generic\RS-232\Source/probe_rs232.c **** 
 497:..\..\..\..\..\..\uC-Probe\Target\Communication\Generic\RS-232\Source/probe_rs232.c ****         case PROBE_RS232_TX_STATE_SD3:                          /* Tx start 4th start delimiter (SD
 498:..\..\..\..\..\..\uC-Probe\Target\Communication\Generic\RS-232\Source/probe_rs232.c ****              ProbeRS232_Tx1(PROBE_RS232_PROTOCOL_TX_SD3);
 602              		.loc 1 498 0
 603 0102 4FF07200 		mov	r0, #114
 604 0106 FFF7FEFF 		bl	ProbeRS232_Tx1
 499:..\..\..\..\..\..\uC-Probe\Target\Communication\Generic\RS-232\Source/probe_rs232.c ****              ProbeRS232_TxState = PROBE_RS232_TX_STATE_LEN1;
 605              		.loc 1 499 0
 606 010a 40F20003 		movw	r3, #:lower16:ProbeRS232_TxState
 607 010e C0F20003 		movt	r3, #:upper16:ProbeRS232_TxState
 608 0112 4FF00402 		mov	r2, #4
 609 0116 1A70     		strb	r2, [r3, #0]
 500:..\..\..\..\..\..\uC-Probe\Target\Communication\Generic\RS-232\Source/probe_rs232.c ****              break;
 610              		.loc 1 500 0
 611 0118 AAE0     		b	.L60
 612              	.L48:
 501:..\..\..\..\..\..\uC-Probe\Target\Communication\Generic\RS-232\Source/probe_rs232.c **** 
 502:..\..\..\..\..\..\uC-Probe\Target\Communication\Generic\RS-232\Source/probe_rs232.c **** 
 503:..\..\..\..\..\..\uC-Probe\Target\Communication\Generic\RS-232\Source/probe_rs232.c ****         case PROBE_RS232_TX_STATE_LEN1:                         /* Tx 1st len byte.                
 504:..\..\..\..\..\..\uC-Probe\Target\Communication\Generic\RS-232\Source/probe_rs232.c ****              tx_data             = ProbeRS232_TxLen & 0xFF;
 613              		.loc 1 504 0
 614 011a 40F20003 		movw	r3, #:lower16:ProbeRS232_TxLen
 615 011e C0F20003 		movt	r3, #:upper16:ProbeRS232_TxLen
 616 0122 1B68     		ldr	r3, [r3, #0]
 617 0124 FB71     		strb	r3, [r7, #7]
 505:..\..\..\..\..\..\uC-Probe\Target\Communication\Generic\RS-232\Source/probe_rs232.c ****              ProbeRS232_Tx1(tx_data);
 618              		.loc 1 505 0
 619 0126 FB79     		ldrb	r3, [r7, #7]	@ zero_extendqisi2
 620 0128 1846     		mov	r0, r3
 621 012a FFF7FEFF 		bl	ProbeRS232_Tx1
 506:..\..\..\..\..\..\uC-Probe\Target\Communication\Generic\RS-232\Source/probe_rs232.c ****              ProbeRS232_TxState  = PROBE_RS232_TX_STATE_LEN2;
 622              		.loc 1 506 0
ARM GAS  C:\Users\daniel01\AppData\Local\Temp\ccRUCUlV.s 			page 21


 623 012e 40F20003 		movw	r3, #:lower16:ProbeRS232_TxState
 624 0132 C0F20003 		movt	r3, #:upper16:ProbeRS232_TxState
 625 0136 4FF00502 		mov	r2, #5
 626 013a 1A70     		strb	r2, [r3, #0]
 507:..\..\..\..\..\..\uC-Probe\Target\Communication\Generic\RS-232\Source/probe_rs232.c **** #if (PROBE_RS232_CHKSUM_EN == DEF_TRUE)
 508:..\..\..\..\..\..\uC-Probe\Target\Communication\Generic\RS-232\Source/probe_rs232.c ****              ProbeRS232_TxChkSum = tx_data;
 509:..\..\..\..\..\..\uC-Probe\Target\Communication\Generic\RS-232\Source/probe_rs232.c **** #endif
 510:..\..\..\..\..\..\uC-Probe\Target\Communication\Generic\RS-232\Source/probe_rs232.c ****              break;
 627              		.loc 1 510 0
 628 013c 98E0     		b	.L60
 629              	.L49:
 511:..\..\..\..\..\..\uC-Probe\Target\Communication\Generic\RS-232\Source/probe_rs232.c **** 
 512:..\..\..\..\..\..\uC-Probe\Target\Communication\Generic\RS-232\Source/probe_rs232.c **** 
 513:..\..\..\..\..\..\uC-Probe\Target\Communication\Generic\RS-232\Source/probe_rs232.c ****         case PROBE_RS232_TX_STATE_LEN2:                         /* Tx 2nd len byte.                
 514:..\..\..\..\..\..\uC-Probe\Target\Communication\Generic\RS-232\Source/probe_rs232.c ****              tx_data              = ProbeRS232_TxLen >> 8;
 630              		.loc 1 514 0
 631 013e 40F20003 		movw	r3, #:lower16:ProbeRS232_TxLen
 632 0142 C0F20003 		movt	r3, #:upper16:ProbeRS232_TxLen
 633 0146 1B68     		ldr	r3, [r3, #0]
 634 0148 4FEA1323 		lsr	r3, r3, #8
 635 014c FB71     		strb	r3, [r7, #7]
 515:..\..\..\..\..\..\uC-Probe\Target\Communication\Generic\RS-232\Source/probe_rs232.c ****              ProbeRS232_Tx1(tx_data);
 636              		.loc 1 515 0
 637 014e FB79     		ldrb	r3, [r7, #7]	@ zero_extendqisi2
 638 0150 1846     		mov	r0, r3
 639 0152 FFF7FEFF 		bl	ProbeRS232_Tx1
 516:..\..\..\..\..\..\uC-Probe\Target\Communication\Generic\RS-232\Source/probe_rs232.c ****              ProbeRS232_TxState   = PROBE_RS232_TX_STATE_CTR;
 640              		.loc 1 516 0
 641 0156 40F20003 		movw	r3, #:lower16:ProbeRS232_TxState
 642 015a C0F20003 		movt	r3, #:upper16:ProbeRS232_TxState
 643 015e 4FF00602 		mov	r2, #6
 644 0162 1A70     		strb	r2, [r3, #0]
 517:..\..\..\..\..\..\uC-Probe\Target\Communication\Generic\RS-232\Source/probe_rs232.c **** #if (PROBE_RS232_CHKSUM_EN == DEF_TRUE)
 518:..\..\..\..\..\..\uC-Probe\Target\Communication\Generic\RS-232\Source/probe_rs232.c ****              ProbeRS232_TxChkSum += tx_data;
 519:..\..\..\..\..\..\uC-Probe\Target\Communication\Generic\RS-232\Source/probe_rs232.c **** #endif
 520:..\..\..\..\..\..\uC-Probe\Target\Communication\Generic\RS-232\Source/probe_rs232.c ****              break;
 645              		.loc 1 520 0
 646 0164 84E0     		b	.L60
 647              	.L50:
 521:..\..\..\..\..\..\uC-Probe\Target\Communication\Generic\RS-232\Source/probe_rs232.c **** 
 522:..\..\..\..\..\..\uC-Probe\Target\Communication\Generic\RS-232\Source/probe_rs232.c **** 
 523:..\..\..\..\..\..\uC-Probe\Target\Communication\Generic\RS-232\Source/probe_rs232.c ****         case PROBE_RS232_TX_STATE_CTR:                          /* Tx packet counter.              
 524:..\..\..\..\..\..\uC-Probe\Target\Communication\Generic\RS-232\Source/probe_rs232.c ****              tx_data            = ProbeRS232_RxPktCtr;
 648              		.loc 1 524 0
 649 0166 40F20003 		movw	r3, #:lower16:ProbeRS232_RxPktCtr
 650 016a C0F20003 		movt	r3, #:upper16:ProbeRS232_RxPktCtr
 651 016e 1B68     		ldr	r3, [r3, #0]
 652 0170 FB71     		strb	r3, [r7, #7]
 525:..\..\..\..\..\..\uC-Probe\Target\Communication\Generic\RS-232\Source/probe_rs232.c ****              ProbeRS232_Tx1(tx_data);
 653              		.loc 1 525 0
 654 0172 FB79     		ldrb	r3, [r7, #7]	@ zero_extendqisi2
 655 0174 1846     		mov	r0, r3
 656 0176 FFF7FEFF 		bl	ProbeRS232_Tx1
 526:..\..\..\..\..\..\uC-Probe\Target\Communication\Generic\RS-232\Source/probe_rs232.c ****              ProbeRS232_TxState = PROBE_RS232_TX_STATE_PAD;
 657              		.loc 1 526 0
 658 017a 40F20003 		movw	r3, #:lower16:ProbeRS232_TxState
 659 017e C0F20003 		movt	r3, #:upper16:ProbeRS232_TxState
ARM GAS  C:\Users\daniel01\AppData\Local\Temp\ccRUCUlV.s 			page 22


 660 0182 4FF00702 		mov	r2, #7
 661 0186 1A70     		strb	r2, [r3, #0]
 527:..\..\..\..\..\..\uC-Probe\Target\Communication\Generic\RS-232\Source/probe_rs232.c ****              break;
 662              		.loc 1 527 0
 663 0188 72E0     		b	.L60
 664              	.L51:
 528:..\..\..\..\..\..\uC-Probe\Target\Communication\Generic\RS-232\Source/probe_rs232.c **** 
 529:..\..\..\..\..\..\uC-Probe\Target\Communication\Generic\RS-232\Source/probe_rs232.c **** 
 530:..\..\..\..\..\..\uC-Probe\Target\Communication\Generic\RS-232\Source/probe_rs232.c ****         case PROBE_RS232_TX_STATE_PAD:                          /* Tx padding byte.                
 531:..\..\..\..\..\..\uC-Probe\Target\Communication\Generic\RS-232\Source/probe_rs232.c ****              ProbeRS232_Tx1(0);
 665              		.loc 1 531 0
 666 018a 4FF00000 		mov	r0, #0
 667 018e FFF7FEFF 		bl	ProbeRS232_Tx1
 532:..\..\..\..\..\..\uC-Probe\Target\Communication\Generic\RS-232\Source/probe_rs232.c ****              ProbeRS232_TxState = PROBE_RS232_TX_STATE_DATA;
 668              		.loc 1 532 0
 669 0192 40F20003 		movw	r3, #:lower16:ProbeRS232_TxState
 670 0196 C0F20003 		movt	r3, #:upper16:ProbeRS232_TxState
 671 019a 4FF00802 		mov	r2, #8
 672 019e 1A70     		strb	r2, [r3, #0]
 533:..\..\..\..\..\..\uC-Probe\Target\Communication\Generic\RS-232\Source/probe_rs232.c ****              break;
 673              		.loc 1 533 0
 674 01a0 66E0     		b	.L60
 675              	.L52:
 534:..\..\..\..\..\..\uC-Probe\Target\Communication\Generic\RS-232\Source/probe_rs232.c **** 
 535:..\..\..\..\..\..\uC-Probe\Target\Communication\Generic\RS-232\Source/probe_rs232.c **** 
 536:..\..\..\..\..\..\uC-Probe\Target\Communication\Generic\RS-232\Source/probe_rs232.c ****         case PROBE_RS232_TX_STATE_DATA:                         /* Tx data.                        
 537:..\..\..\..\..\..\uC-Probe\Target\Communication\Generic\RS-232\Source/probe_rs232.c ****              tx_data = ProbeRS232_TxBuf[ProbeRS232_TxBufRdIx];
 676              		.loc 1 537 0
 677 01a2 40F20003 		movw	r3, #:lower16:ProbeRS232_TxBufRdIx
 678 01a6 C0F20003 		movt	r3, #:upper16:ProbeRS232_TxBufRdIx
 679 01aa 1A68     		ldr	r2, [r3, #0]
 680 01ac 40F20003 		movw	r3, #:lower16:ProbeRS232_TxBuf
 681 01b0 C0F20003 		movt	r3, #:upper16:ProbeRS232_TxBuf
 682 01b4 9B5C     		ldrb	r3, [r3, r2]
 683 01b6 FB71     		strb	r3, [r7, #7]
 538:..\..\..\..\..\..\uC-Probe\Target\Communication\Generic\RS-232\Source/probe_rs232.c ****              ProbeRS232_Tx1(tx_data);
 684              		.loc 1 538 0
 685 01b8 FB79     		ldrb	r3, [r7, #7]	@ zero_extendqisi2
 686 01ba 1846     		mov	r0, r3
 687 01bc FFF7FEFF 		bl	ProbeRS232_Tx1
 539:..\..\..\..\..\..\uC-Probe\Target\Communication\Generic\RS-232\Source/probe_rs232.c **** #if (PROBE_RS232_CHKSUM_EN == DEF_TRUE)
 540:..\..\..\..\..\..\uC-Probe\Target\Communication\Generic\RS-232\Source/probe_rs232.c ****              ProbeRS232_TxChkSum += tx_data;
 541:..\..\..\..\..\..\uC-Probe\Target\Communication\Generic\RS-232\Source/probe_rs232.c **** #endif
 542:..\..\..\..\..\..\uC-Probe\Target\Communication\Generic\RS-232\Source/probe_rs232.c ****              ProbeRS232_TxBufRdIx++;
 688              		.loc 1 542 0
 689 01c0 40F20003 		movw	r3, #:lower16:ProbeRS232_TxBufRdIx
 690 01c4 C0F20003 		movt	r3, #:upper16:ProbeRS232_TxBufRdIx
 691 01c8 1B68     		ldr	r3, [r3, #0]
 692 01ca 03F10102 		add	r2, r3, #1
 693 01ce 40F20003 		movw	r3, #:lower16:ProbeRS232_TxBufRdIx
 694 01d2 C0F20003 		movt	r3, #:upper16:ProbeRS232_TxBufRdIx
 695 01d6 1A60     		str	r2, [r3, #0]
 543:..\..\..\..\..\..\uC-Probe\Target\Communication\Generic\RS-232\Source/probe_rs232.c ****              if (ProbeRS232_TxBufRdIx >= ProbeRS232_TxLen) {
 696              		.loc 1 543 0
 697 01d8 40F20003 		movw	r3, #:lower16:ProbeRS232_TxBufRdIx
 698 01dc C0F20003 		movt	r3, #:upper16:ProbeRS232_TxBufRdIx
 699 01e0 1A68     		ldr	r2, [r3, #0]
ARM GAS  C:\Users\daniel01\AppData\Local\Temp\ccRUCUlV.s 			page 23


 700 01e2 40F20003 		movw	r3, #:lower16:ProbeRS232_TxLen
 701 01e6 C0F20003 		movt	r3, #:upper16:ProbeRS232_TxLen
 702 01ea 1B68     		ldr	r3, [r3, #0]
 703 01ec 9A42     		cmp	r2, r3
 704 01ee 3ED3     		bcc	.L61
 544:..\..\..\..\..\..\uC-Probe\Target\Communication\Generic\RS-232\Source/probe_rs232.c ****                  ProbeRS232_TxState = PROBE_RS232_TX_STATE_CHKSUM;
 705              		.loc 1 544 0
 706 01f0 40F20003 		movw	r3, #:lower16:ProbeRS232_TxState
 707 01f4 C0F20003 		movt	r3, #:upper16:ProbeRS232_TxState
 708 01f8 4FF00902 		mov	r2, #9
 709 01fc 1A70     		strb	r2, [r3, #0]
 545:..\..\..\..\..\..\uC-Probe\Target\Communication\Generic\RS-232\Source/probe_rs232.c ****                  ProbeRS232_TxLen   = 0u;
 710              		.loc 1 545 0
 711 01fe 40F20003 		movw	r3, #:lower16:ProbeRS232_TxLen
 712 0202 C0F20003 		movt	r3, #:upper16:ProbeRS232_TxLen
 713 0206 4FF00002 		mov	r2, #0
 714 020a 1A60     		str	r2, [r3, #0]
 546:..\..\..\..\..\..\uC-Probe\Target\Communication\Generic\RS-232\Source/probe_rs232.c ****              }
 547:..\..\..\..\..\..\uC-Probe\Target\Communication\Generic\RS-232\Source/probe_rs232.c ****              break;
 715              		.loc 1 547 0
 716 020c 30E0     		b	.L60
 717              	.L53:
 548:..\..\..\..\..\..\uC-Probe\Target\Communication\Generic\RS-232\Source/probe_rs232.c **** 
 549:..\..\..\..\..\..\uC-Probe\Target\Communication\Generic\RS-232\Source/probe_rs232.c **** 
 550:..\..\..\..\..\..\uC-Probe\Target\Communication\Generic\RS-232\Source/probe_rs232.c ****         case PROBE_RS232_TX_STATE_CHKSUM:                       /* Tx checksum.                    
 551:..\..\..\..\..\..\uC-Probe\Target\Communication\Generic\RS-232\Source/probe_rs232.c **** #if (PROBE_RS232_CHKSUM_EN == DEF_TRUE)
 552:..\..\..\..\..\..\uC-Probe\Target\Communication\Generic\RS-232\Source/probe_rs232.c ****              ProbeRS232_Tx1(ProbeRS232_TxChkSum);
 553:..\..\..\..\..\..\uC-Probe\Target\Communication\Generic\RS-232\Source/probe_rs232.c **** #else
 554:..\..\..\..\..\..\uC-Probe\Target\Communication\Generic\RS-232\Source/probe_rs232.c ****              ProbeRS232_Tx1(0);
 718              		.loc 1 554 0
 719 020e 4FF00000 		mov	r0, #0
 720 0212 FFF7FEFF 		bl	ProbeRS232_Tx1
 555:..\..\..\..\..\..\uC-Probe\Target\Communication\Generic\RS-232\Source/probe_rs232.c **** #endif
 556:..\..\..\..\..\..\uC-Probe\Target\Communication\Generic\RS-232\Source/probe_rs232.c ****              ProbeRS232_TxState = PROBE_RS232_TX_STATE_ED;
 721              		.loc 1 556 0
 722 0216 40F20003 		movw	r3, #:lower16:ProbeRS232_TxState
 723 021a C0F20003 		movt	r3, #:upper16:ProbeRS232_TxState
 724 021e 4FF00A02 		mov	r2, #10
 725 0222 1A70     		strb	r2, [r3, #0]
 557:..\..\..\..\..\..\uC-Probe\Target\Communication\Generic\RS-232\Source/probe_rs232.c ****              break;
 726              		.loc 1 557 0
 727 0224 24E0     		b	.L60
 728              	.L54:
 558:..\..\..\..\..\..\uC-Probe\Target\Communication\Generic\RS-232\Source/probe_rs232.c **** 
 559:..\..\..\..\..\..\uC-Probe\Target\Communication\Generic\RS-232\Source/probe_rs232.c **** 
 560:..\..\..\..\..\..\uC-Probe\Target\Communication\Generic\RS-232\Source/probe_rs232.c ****         case PROBE_RS232_TX_STATE_ED:                           /* Tx end delimiter.               
 561:..\..\..\..\..\..\uC-Probe\Target\Communication\Generic\RS-232\Source/probe_rs232.c ****              ProbeRS232_Tx1(PROBE_RS232_PROTOCOL_TX_ED);
 729              		.loc 1 561 0
 730 0226 4FF02F00 		mov	r0, #47
 731 022a FFF7FEFF 		bl	ProbeRS232_Tx1
 562:..\..\..\..\..\..\uC-Probe\Target\Communication\Generic\RS-232\Source/probe_rs232.c ****              ProbeRS232_TxState    = PROBE_RS232_TX_STATE_SD0;
 732              		.loc 1 562 0
 733 022e 40F20003 		movw	r3, #:lower16:ProbeRS232_TxState
 734 0232 C0F20003 		movt	r3, #:upper16:ProbeRS232_TxState
 735 0236 4FF00002 		mov	r2, #0
 736 023a 1A70     		strb	r2, [r3, #0]
 563:..\..\..\..\..\..\uC-Probe\Target\Communication\Generic\RS-232\Source/probe_rs232.c ****              ProbeRS232_TxBufInUse = DEF_FALSE;
ARM GAS  C:\Users\daniel01\AppData\Local\Temp\ccRUCUlV.s 			page 24


 737              		.loc 1 563 0
 738 023c 40F20003 		movw	r3, #:lower16:ProbeRS232_TxBufInUse
 739 0240 C0F20003 		movt	r3, #:upper16:ProbeRS232_TxBufInUse
 740 0244 4FF00002 		mov	r2, #0
 741 0248 1A70     		strb	r2, [r3, #0]
 564:..\..\..\..\..\..\uC-Probe\Target\Communication\Generic\RS-232\Source/probe_rs232.c ****              break;
 742              		.loc 1 564 0
 743 024a 11E0     		b	.L60
 744              	.L43:
 565:..\..\..\..\..\..\uC-Probe\Target\Communication\Generic\RS-232\Source/probe_rs232.c **** 
 566:..\..\..\..\..\..\uC-Probe\Target\Communication\Generic\RS-232\Source/probe_rs232.c **** 
 567:..\..\..\..\..\..\uC-Probe\Target\Communication\Generic\RS-232\Source/probe_rs232.c ****         default:
 568:..\..\..\..\..\..\uC-Probe\Target\Communication\Generic\RS-232\Source/probe_rs232.c ****              ProbeRS232_TxState      = PROBE_RS232_TX_STATE_SD0;
 745              		.loc 1 568 0
 746 024c 40F20003 		movw	r3, #:lower16:ProbeRS232_TxState
 747 0250 C0F20003 		movt	r3, #:upper16:ProbeRS232_TxState
 748 0254 4FF00002 		mov	r2, #0
 749 0258 1A70     		strb	r2, [r3, #0]
 569:..\..\..\..\..\..\uC-Probe\Target\Communication\Generic\RS-232\Source/probe_rs232.c ****              ProbeRS232_TxActiveFlag = DEF_FALSE;
 750              		.loc 1 569 0
 751 025a 40F20003 		movw	r3, #:lower16:ProbeRS232_TxActiveFlag
 752 025e C0F20003 		movt	r3, #:upper16:ProbeRS232_TxActiveFlag
 753 0262 4FF00002 		mov	r2, #0
 754 0266 1A70     		strb	r2, [r3, #0]
 570:..\..\..\..\..\..\uC-Probe\Target\Communication\Generic\RS-232\Source/probe_rs232.c ****              ProbeRS232_TxIntDis();                             /* No more data to send, dis tx int
 755              		.loc 1 570 0
 756 0268 FFF7FEFF 		bl	ProbeRS232_TxIntDis
 757 026c 00E0     		b	.L60
 758              	.L61:
 759              		.loc 1 547 0
 760 026e 00BF     		nop
 761              	.L60:
 571:..\..\..\..\..\..\uC-Probe\Target\Communication\Generic\RS-232\Source/probe_rs232.c ****              break;
 572:..\..\..\..\..\..\uC-Probe\Target\Communication\Generic\RS-232\Source/probe_rs232.c ****     }
 573:..\..\..\..\..\..\uC-Probe\Target\Communication\Generic\RS-232\Source/probe_rs232.c **** }
 762              		.loc 1 573 0
 763 0270 07F10807 		add	r7, r7, #8
 764 0274 BD46     		mov	sp, r7
 765 0276 80BD     		pop	{r7, pc}
 766              		.cfi_endproc
 767              	.LFE3:
 768              		.size	ProbeRS232_TxHandler, .-ProbeRS232_TxHandler
 769              		.section	.text.ProbeRS232_ParseRxPkt,"ax",%progbits
 770              		.align	2
 771              		.thumb
 772              		.thumb_func
 773              		.type	ProbeRS232_ParseRxPkt, %function
 774              	ProbeRS232_ParseRxPkt:
 775              	.LFB4:
 574:..\..\..\..\..\..\uC-Probe\Target\Communication\Generic\RS-232\Source/probe_rs232.c **** 
 575:..\..\..\..\..\..\uC-Probe\Target\Communication\Generic\RS-232\Source/probe_rs232.c **** 
 576:..\..\..\..\..\..\uC-Probe\Target\Communication\Generic\RS-232\Source/probe_rs232.c **** /*
 577:..\..\..\..\..\..\uC-Probe\Target\Communication\Generic\RS-232\Source/probe_rs232.c **** ***************************************************************************************************
 578:..\..\..\..\..\..\uC-Probe\Target\Communication\Generic\RS-232\Source/probe_rs232.c **** ***************************************************************************************************
 579:..\..\..\..\..\..\uC-Probe\Target\Communication\Generic\RS-232\Source/probe_rs232.c **** *                                           LOCAL FUNCTIONS
 580:..\..\..\..\..\..\uC-Probe\Target\Communication\Generic\RS-232\Source/probe_rs232.c **** ***************************************************************************************************
 581:..\..\..\..\..\..\uC-Probe\Target\Communication\Generic\RS-232\Source/probe_rs232.c **** ***************************************************************************************************
ARM GAS  C:\Users\daniel01\AppData\Local\Temp\ccRUCUlV.s 			page 25


 582:..\..\..\..\..\..\uC-Probe\Target\Communication\Generic\RS-232\Source/probe_rs232.c **** */
 583:..\..\..\..\..\..\uC-Probe\Target\Communication\Generic\RS-232\Source/probe_rs232.c **** 
 584:..\..\..\..\..\..\uC-Probe\Target\Communication\Generic\RS-232\Source/probe_rs232.c **** /*
 585:..\..\..\..\..\..\uC-Probe\Target\Communication\Generic\RS-232\Source/probe_rs232.c **** ***************************************************************************************************
 586:..\..\..\..\..\..\uC-Probe\Target\Communication\Generic\RS-232\Source/probe_rs232.c **** *                                       ProbeRS232_ParseRxPkt()
 587:..\..\..\..\..\..\uC-Probe\Target\Communication\Generic\RS-232\Source/probe_rs232.c **** *
 588:..\..\..\..\..\..\uC-Probe\Target\Communication\Generic\RS-232\Source/probe_rs232.c **** * Description : Parse a received packet & formulate a response.
 589:..\..\..\..\..\..\uC-Probe\Target\Communication\Generic\RS-232\Source/probe_rs232.c **** *
 590:..\..\..\..\..\..\uC-Probe\Target\Communication\Generic\RS-232\Source/probe_rs232.c **** * Argument(s) : none.
 591:..\..\..\..\..\..\uC-Probe\Target\Communication\Generic\RS-232\Source/probe_rs232.c **** *
 592:..\..\..\..\..\..\uC-Probe\Target\Communication\Generic\RS-232\Source/probe_rs232.c **** * Return(s)   : The number of bytes in the data segment of the packet to transmit in response.
 593:..\..\..\..\..\..\uC-Probe\Target\Communication\Generic\RS-232\Source/probe_rs232.c **** *
 594:..\..\..\..\..\..\uC-Probe\Target\Communication\Generic\RS-232\Source/probe_rs232.c **** * Caller(s)   : ProbeRS232_Task(),
 595:..\..\..\..\..\..\uC-Probe\Target\Communication\Generic\RS-232\Source/probe_rs232.c **** *               ProbeRS232_RxPkt().
 596:..\..\..\..\..\..\uC-Probe\Target\Communication\Generic\RS-232\Source/probe_rs232.c **** *
 597:..\..\..\..\..\..\uC-Probe\Target\Communication\Generic\RS-232\Source/probe_rs232.c **** * Note(s)     : none.
 598:..\..\..\..\..\..\uC-Probe\Target\Communication\Generic\RS-232\Source/probe_rs232.c **** ***************************************************************************************************
 599:..\..\..\..\..\..\uC-Probe\Target\Communication\Generic\RS-232\Source/probe_rs232.c **** */
 600:..\..\..\..\..\..\uC-Probe\Target\Communication\Generic\RS-232\Source/probe_rs232.c **** 
 601:..\..\..\..\..\..\uC-Probe\Target\Communication\Generic\RS-232\Source/probe_rs232.c **** static  CPU_SIZE_T  ProbeRS232_ParseRxPkt (void)
 602:..\..\..\..\..\..\uC-Probe\Target\Communication\Generic\RS-232\Source/probe_rs232.c **** {
 776              		.loc 1 602 0
 777              		.cfi_startproc
 778              		@ args = 0, pretend = 0, frame = 8
 779              		@ frame_needed = 1, uses_anonymous_args = 0
 780 0000 80B5     		push	{r7, lr}
 781              	.LCFI12:
 782              		.cfi_def_cfa_offset 8
 783 0002 82B0     		sub	sp, sp, #8
 784              	.LCFI13:
 785              		.cfi_def_cfa_offset 16
 786 0004 00AF     		add	r7, sp, #0
 787              		.cfi_offset 14, -4
 788              		.cfi_offset 7, -8
 789              	.LCFI14:
 790              		.cfi_def_cfa_register 7
 603:..\..\..\..\..\..\uC-Probe\Target\Communication\Generic\RS-232\Source/probe_rs232.c ****     CPU_SIZE_T  tx_len;
 604:..\..\..\..\..\..\uC-Probe\Target\Communication\Generic\RS-232\Source/probe_rs232.c **** 
 605:..\..\..\..\..\..\uC-Probe\Target\Communication\Generic\RS-232\Source/probe_rs232.c **** 
 606:..\..\..\..\..\..\uC-Probe\Target\Communication\Generic\RS-232\Source/probe_rs232.c ****     if (ProbeRS232_TxBufInUse == DEF_TRUE) {                    /* Do cmds only if tx buf is free. 
 791              		.loc 1 606 0
 792 0006 40F20003 		movw	r3, #:lower16:ProbeRS232_TxBufInUse
 793 000a C0F20003 		movt	r3, #:upper16:ProbeRS232_TxBufInUse
 794 000e 1B78     		ldrb	r3, [r3, #0]	@ zero_extendqisi2
 795 0010 012B     		cmp	r3, #1
 796 0012 02D1     		bne	.L63
 607:..\..\..\..\..\..\uC-Probe\Target\Communication\Generic\RS-232\Source/probe_rs232.c ****         return ((CPU_SIZE_T)0);
 797              		.loc 1 607 0
 798 0014 4FF00003 		mov	r3, #0
 799 0018 1BE0     		b	.L64
 800              	.L63:
 608:..\..\..\..\..\..\uC-Probe\Target\Communication\Generic\RS-232\Source/probe_rs232.c ****     }
 609:..\..\..\..\..\..\uC-Probe\Target\Communication\Generic\RS-232\Source/probe_rs232.c **** 
 610:..\..\..\..\..\..\uC-Probe\Target\Communication\Generic\RS-232\Source/probe_rs232.c ****     ProbeRS232_TxBufInUse = DEF_TRUE;
 801              		.loc 1 610 0
 802 001a 40F20003 		movw	r3, #:lower16:ProbeRS232_TxBufInUse
 803 001e C0F20003 		movt	r3, #:upper16:ProbeRS232_TxBufInUse
ARM GAS  C:\Users\daniel01\AppData\Local\Temp\ccRUCUlV.s 			page 26


 804 0022 4FF00102 		mov	r2, #1
 805 0026 1A70     		strb	r2, [r3, #0]
 611:..\..\..\..\..\..\uC-Probe\Target\Communication\Generic\RS-232\Source/probe_rs232.c ****     tx_len                = ProbeCom_ParseRxPkt((void       *)ProbeRS232_RxBuf,
 806              		.loc 1 611 0
 807 0028 40F20003 		movw	r3, #:lower16:ProbeRS232_RxLen
 808 002c C0F20003 		movt	r3, #:upper16:ProbeRS232_RxLen
 809 0030 1B68     		ldr	r3, [r3, #0]
 810 0032 40F20000 		movw	r0, #:lower16:ProbeRS232_RxBuf
 811 0036 C0F20000 		movt	r0, #:upper16:ProbeRS232_RxBuf
 812 003a 40F20001 		movw	r1, #:lower16:ProbeRS232_TxBuf
 813 003e C0F20001 		movt	r1, #:upper16:ProbeRS232_TxBuf
 814 0042 1A46     		mov	r2, r3
 815 0044 4FF40073 		mov	r3, #512
 816 0048 FFF7FEFF 		bl	ProbeCom_ParseRxPkt
 817 004c 0346     		mov	r3, r0
 818 004e 7B60     		str	r3, [r7, #4]
 612:..\..\..\..\..\..\uC-Probe\Target\Communication\Generic\RS-232\Source/probe_rs232.c ****                                                 (void       *)ProbeRS232_TxBuf,
 613:..\..\..\..\..\..\uC-Probe\Target\Communication\Generic\RS-232\Source/probe_rs232.c ****                                                 (CPU_SIZE_T  )ProbeRS232_RxLen,
 614:..\..\..\..\..\..\uC-Probe\Target\Communication\Generic\RS-232\Source/probe_rs232.c ****                                                 (CPU_SIZE_T  )PROBE_RS232_CFG_TX_BUF_SIZE);
 615:..\..\..\..\..\..\uC-Probe\Target\Communication\Generic\RS-232\Source/probe_rs232.c **** 
 616:..\..\..\..\..\..\uC-Probe\Target\Communication\Generic\RS-232\Source/probe_rs232.c ****     return (tx_len);
 819              		.loc 1 616 0
 820 0050 7B68     		ldr	r3, [r7, #4]
 821              	.L64:
 617:..\..\..\..\..\..\uC-Probe\Target\Communication\Generic\RS-232\Source/probe_rs232.c **** }
 822              		.loc 1 617 0
 823 0052 1846     		mov	r0, r3
 824 0054 07F10807 		add	r7, r7, #8
 825 0058 BD46     		mov	sp, r7
 826 005a 80BD     		pop	{r7, pc}
 827              		.cfi_endproc
 828              	.LFE4:
 829              		.size	ProbeRS232_ParseRxPkt, .-ProbeRS232_ParseRxPkt
 830              		.section	.text.ProbeRS232_RxPkt,"ax",%progbits
 831              		.align	2
 832              		.thumb
 833              		.thumb_func
 834              		.type	ProbeRS232_RxPkt, %function
 835              	ProbeRS232_RxPkt:
 836              	.LFB5:
 618:..\..\..\..\..\..\uC-Probe\Target\Communication\Generic\RS-232\Source/probe_rs232.c **** 
 619:..\..\..\..\..\..\uC-Probe\Target\Communication\Generic\RS-232\Source/probe_rs232.c **** 
 620:..\..\..\..\..\..\uC-Probe\Target\Communication\Generic\RS-232\Source/probe_rs232.c **** /*
 621:..\..\..\..\..\..\uC-Probe\Target\Communication\Generic\RS-232\Source/probe_rs232.c **** ***************************************************************************************************
 622:..\..\..\..\..\..\uC-Probe\Target\Communication\Generic\RS-232\Source/probe_rs232.c **** *                                         ProbeRS232_RxPkt()
 623:..\..\..\..\..\..\uC-Probe\Target\Communication\Generic\RS-232\Source/probe_rs232.c **** *
 624:..\..\..\..\..\..\uC-Probe\Target\Communication\Generic\RS-232\Source/probe_rs232.c **** * Description : Handle a received packet.
 625:..\..\..\..\..\..\uC-Probe\Target\Communication\Generic\RS-232\Source/probe_rs232.c **** *
 626:..\..\..\..\..\..\uC-Probe\Target\Communication\Generic\RS-232\Source/probe_rs232.c **** * Argument(s) : none.
 627:..\..\..\..\..\..\uC-Probe\Target\Communication\Generic\RS-232\Source/probe_rs232.c **** *
 628:..\..\..\..\..\..\uC-Probe\Target\Communication\Generic\RS-232\Source/probe_rs232.c **** * Return(s)   : none.
 629:..\..\..\..\..\..\uC-Probe\Target\Communication\Generic\RS-232\Source/probe_rs232.c **** *
 630:..\..\..\..\..\..\uC-Probe\Target\Communication\Generic\RS-232\Source/probe_rs232.c **** * Caller(s)   : ProbeRS232_RxHandler().
 631:..\..\..\..\..\..\uC-Probe\Target\Communication\Generic\RS-232\Source/probe_rs232.c **** *
 632:..\..\..\..\..\..\uC-Probe\Target\Communication\Generic\RS-232\Source/probe_rs232.c **** * Note(s)     : none.
 633:..\..\..\..\..\..\uC-Probe\Target\Communication\Generic\RS-232\Source/probe_rs232.c **** ***************************************************************************************************
 634:..\..\..\..\..\..\uC-Probe\Target\Communication\Generic\RS-232\Source/probe_rs232.c **** */
ARM GAS  C:\Users\daniel01\AppData\Local\Temp\ccRUCUlV.s 			page 27


 635:..\..\..\..\..\..\uC-Probe\Target\Communication\Generic\RS-232\Source/probe_rs232.c **** 
 636:..\..\..\..\..\..\uC-Probe\Target\Communication\Generic\RS-232\Source/probe_rs232.c **** static  void  ProbeRS232_RxPkt (void)
 637:..\..\..\..\..\..\uC-Probe\Target\Communication\Generic\RS-232\Source/probe_rs232.c **** {
 837              		.loc 1 637 0
 838              		.cfi_startproc
 839              		@ args = 0, pretend = 0, frame = 0
 840              		@ frame_needed = 1, uses_anonymous_args = 0
 841 0000 80B5     		push	{r7, lr}
 842              	.LCFI15:
 843              		.cfi_def_cfa_offset 8
 844 0002 00AF     		add	r7, sp, #0
 845              		.cfi_offset 14, -4
 846              		.cfi_offset 7, -8
 847              	.LCFI16:
 848              		.cfi_def_cfa_register 7
 638:..\..\..\..\..\..\uC-Probe\Target\Communication\Generic\RS-232\Source/probe_rs232.c **** #if (PROBE_RS232_CFG_PARSE_TASK_EN == DEF_ENABLED)
 639:..\..\..\..\..\..\uC-Probe\Target\Communication\Generic\RS-232\Source/probe_rs232.c ****     ProbeRS232_OS_Post();                                       /* We have a whole pkt, signal task
 849              		.loc 1 639 0
 850 0004 FFF7FEFF 		bl	ProbeRS232_OS_Post
 640:..\..\..\..\..\..\uC-Probe\Target\Communication\Generic\RS-232\Source/probe_rs232.c **** 
 641:..\..\..\..\..\..\uC-Probe\Target\Communication\Generic\RS-232\Source/probe_rs232.c **** 
 642:..\..\..\..\..\..\uC-Probe\Target\Communication\Generic\RS-232\Source/probe_rs232.c **** 
 643:..\..\..\..\..\..\uC-Probe\Target\Communication\Generic\RS-232\Source/probe_rs232.c **** #else
 644:..\..\..\..\..\..\uC-Probe\Target\Communication\Generic\RS-232\Source/probe_rs232.c **** 
 645:..\..\..\..\..\..\uC-Probe\Target\Communication\Generic\RS-232\Source/probe_rs232.c **** 
 646:..\..\..\..\..\..\uC-Probe\Target\Communication\Generic\RS-232\Source/probe_rs232.c **** 
 647:..\..\..\..\..\..\uC-Probe\Target\Communication\Generic\RS-232\Source/probe_rs232.c ****     CPU_SIZE_T  len;
 648:..\..\..\..\..\..\uC-Probe\Target\Communication\Generic\RS-232\Source/probe_rs232.c ****     CPU_SR_ALLOC();
 649:..\..\..\..\..\..\uC-Probe\Target\Communication\Generic\RS-232\Source/probe_rs232.c **** 
 650:..\..\..\..\..\..\uC-Probe\Target\Communication\Generic\RS-232\Source/probe_rs232.c **** 
 651:..\..\..\..\..\..\uC-Probe\Target\Communication\Generic\RS-232\Source/probe_rs232.c ****     len = ProbeRS232_ParseRxPkt();                              /* We have a whole pkt, parse it.  
 652:..\..\..\..\..\..\uC-Probe\Target\Communication\Generic\RS-232\Source/probe_rs232.c ****     if (len > 0u) {
 653:..\..\..\..\..\..\uC-Probe\Target\Communication\Generic\RS-232\Source/probe_rs232.c ****         CPU_CRITICAL_ENTER();
 654:..\..\..\..\..\..\uC-Probe\Target\Communication\Generic\RS-232\Source/probe_rs232.c ****         ProbeRS232_TxLen = len;
 655:..\..\..\..\..\..\uC-Probe\Target\Communication\Generic\RS-232\Source/probe_rs232.c ****         ProbeRS232_TxStart();
 656:..\..\..\..\..\..\uC-Probe\Target\Communication\Generic\RS-232\Source/probe_rs232.c ****         CPU_CRITICAL_EXIT();
 657:..\..\..\..\..\..\uC-Probe\Target\Communication\Generic\RS-232\Source/probe_rs232.c ****     }
 658:..\..\..\..\..\..\uC-Probe\Target\Communication\Generic\RS-232\Source/probe_rs232.c **** #endif
 659:..\..\..\..\..\..\uC-Probe\Target\Communication\Generic\RS-232\Source/probe_rs232.c **** }
 851              		.loc 1 659 0
 852 0008 80BD     		pop	{r7, pc}
 853              		.cfi_endproc
 854              	.LFE5:
 855              		.size	ProbeRS232_RxPkt, .-ProbeRS232_RxPkt
 856 000a 00BF     		.section	.text.ProbeRS232_RxStoINT8U,"ax",%progbits
 857              		.align	2
 858              		.thumb
 859              		.thumb_func
 860              		.type	ProbeRS232_RxStoINT8U, %function
 861              	ProbeRS232_RxStoINT8U:
 862              	.LFB6:
 660:..\..\..\..\..\..\uC-Probe\Target\Communication\Generic\RS-232\Source/probe_rs232.c **** 
 661:..\..\..\..\..\..\uC-Probe\Target\Communication\Generic\RS-232\Source/probe_rs232.c **** 
 662:..\..\..\..\..\..\uC-Probe\Target\Communication\Generic\RS-232\Source/probe_rs232.c **** /*
 663:..\..\..\..\..\..\uC-Probe\Target\Communication\Generic\RS-232\Source/probe_rs232.c **** ***************************************************************************************************
 664:..\..\..\..\..\..\uC-Probe\Target\Communication\Generic\RS-232\Source/probe_rs232.c **** *                                       ProbeRS232_RxStoINT8U()
 665:..\..\..\..\..\..\uC-Probe\Target\Communication\Generic\RS-232\Source/probe_rs232.c **** *
ARM GAS  C:\Users\daniel01\AppData\Local\Temp\ccRUCUlV.s 			page 28


 666:..\..\..\..\..\..\uC-Probe\Target\Communication\Generic\RS-232\Source/probe_rs232.c **** * Description : Store a byte in the receive buffer.
 667:..\..\..\..\..\..\uC-Probe\Target\Communication\Generic\RS-232\Source/probe_rs232.c **** *
 668:..\..\..\..\..\..\uC-Probe\Target\Communication\Generic\RS-232\Source/probe_rs232.c **** * Argument(s) : rx_data     Byte of data to store in the buffer.
 669:..\..\..\..\..\..\uC-Probe\Target\Communication\Generic\RS-232\Source/probe_rs232.c **** *
 670:..\..\..\..\..\..\uC-Probe\Target\Communication\Generic\RS-232\Source/probe_rs232.c **** * Return(s)   : none.
 671:..\..\..\..\..\..\uC-Probe\Target\Communication\Generic\RS-232\Source/probe_rs232.c **** *
 672:..\..\..\..\..\..\uC-Probe\Target\Communication\Generic\RS-232\Source/probe_rs232.c **** * Caller(s)   : ProbeRS232_RxHandler().
 673:..\..\..\..\..\..\uC-Probe\Target\Communication\Generic\RS-232\Source/probe_rs232.c **** *
 674:..\..\..\..\..\..\uC-Probe\Target\Communication\Generic\RS-232\Source/probe_rs232.c **** * Note(s)     : none.
 675:..\..\..\..\..\..\uC-Probe\Target\Communication\Generic\RS-232\Source/probe_rs232.c **** ***************************************************************************************************
 676:..\..\..\..\..\..\uC-Probe\Target\Communication\Generic\RS-232\Source/probe_rs232.c **** */
 677:..\..\..\..\..\..\uC-Probe\Target\Communication\Generic\RS-232\Source/probe_rs232.c **** 
 678:..\..\..\..\..\..\uC-Probe\Target\Communication\Generic\RS-232\Source/probe_rs232.c **** static  void  ProbeRS232_RxStoINT8U (CPU_INT08U rx_data)
 679:..\..\..\..\..\..\uC-Probe\Target\Communication\Generic\RS-232\Source/probe_rs232.c **** {
 863              		.loc 1 679 0
 864              		.cfi_startproc
 865              		@ args = 0, pretend = 0, frame = 8
 866              		@ frame_needed = 1, uses_anonymous_args = 0
 867              		@ link register save eliminated.
 868 0000 80B4     		push	{r7}
 869              	.LCFI17:
 870              		.cfi_def_cfa_offset 4
 871 0002 83B0     		sub	sp, sp, #12
 872              	.LCFI18:
 873              		.cfi_def_cfa_offset 16
 874 0004 00AF     		add	r7, sp, #0
 875              		.cfi_offset 7, -4
 876              	.LCFI19:
 877              		.cfi_def_cfa_register 7
 878 0006 0346     		mov	r3, r0
 879 0008 FB71     		strb	r3, [r7, #7]
 680:..\..\..\..\..\..\uC-Probe\Target\Communication\Generic\RS-232\Source/probe_rs232.c ****     if (ProbeRS232_RxBufWrIx < PROBE_RS232_CFG_RX_BUF_SIZE) {
 880              		.loc 1 680 0
 881 000a 40F20003 		movw	r3, #:lower16:ProbeRS232_RxBufWrIx
 882 000e C0F20003 		movt	r3, #:upper16:ProbeRS232_RxBufWrIx
 883 0012 1A68     		ldr	r2, [r3, #0]
 884 0014 40F2FF13 		movw	r3, #511
 885 0018 9A42     		cmp	r2, r3
 886 001a 11D8     		bhi	.L70
 681:..\..\..\..\..\..\uC-Probe\Target\Communication\Generic\RS-232\Source/probe_rs232.c ****         ProbeRS232_RxBuf[ProbeRS232_RxBufWrIx++] = rx_data;
 887              		.loc 1 681 0
 888 001c 40F20003 		movw	r3, #:lower16:ProbeRS232_RxBufWrIx
 889 0020 C0F20003 		movt	r3, #:upper16:ProbeRS232_RxBufWrIx
 890 0024 1A68     		ldr	r2, [r3, #0]
 891 0026 40F20003 		movw	r3, #:lower16:ProbeRS232_RxBuf
 892 002a C0F20003 		movt	r3, #:upper16:ProbeRS232_RxBuf
 893 002e F979     		ldrb	r1, [r7, #7]
 894 0030 9954     		strb	r1, [r3, r2]
 895 0032 02F10102 		add	r2, r2, #1
 896 0036 40F20003 		movw	r3, #:lower16:ProbeRS232_RxBufWrIx
 897 003a C0F20003 		movt	r3, #:upper16:ProbeRS232_RxBufWrIx
 898 003e 1A60     		str	r2, [r3, #0]
 899              	.L70:
 682:..\..\..\..\..\..\uC-Probe\Target\Communication\Generic\RS-232\Source/probe_rs232.c ****     }
 683:..\..\..\..\..\..\uC-Probe\Target\Communication\Generic\RS-232\Source/probe_rs232.c **** }
 900              		.loc 1 683 0
 901 0040 07F10C07 		add	r7, r7, #12
ARM GAS  C:\Users\daniel01\AppData\Local\Temp\ccRUCUlV.s 			page 29


 902 0044 BD46     		mov	sp, r7
 903 0046 80BC     		pop	{r7}
 904 0048 7047     		bx	lr
 905              		.cfi_endproc
 906              	.LFE6:
 907              		.size	ProbeRS232_RxStoINT8U, .-ProbeRS232_RxStoINT8U
 908 004a 00BF     		.section	.text.ProbeRS232_RxBufClr,"ax",%progbits
 909              		.align	2
 910              		.thumb
 911              		.thumb_func
 912              		.type	ProbeRS232_RxBufClr, %function
 913              	ProbeRS232_RxBufClr:
 914              	.LFB7:
 684:..\..\..\..\..\..\uC-Probe\Target\Communication\Generic\RS-232\Source/probe_rs232.c **** 
 685:..\..\..\..\..\..\uC-Probe\Target\Communication\Generic\RS-232\Source/probe_rs232.c **** 
 686:..\..\..\..\..\..\uC-Probe\Target\Communication\Generic\RS-232\Source/probe_rs232.c **** /*
 687:..\..\..\..\..\..\uC-Probe\Target\Communication\Generic\RS-232\Source/probe_rs232.c **** ***************************************************************************************************
 688:..\..\..\..\..\..\uC-Probe\Target\Communication\Generic\RS-232\Source/probe_rs232.c **** *                                        ProbeRS232_RxBufClr()
 689:..\..\..\..\..\..\uC-Probe\Target\Communication\Generic\RS-232\Source/probe_rs232.c **** *
 690:..\..\..\..\..\..\uC-Probe\Target\Communication\Generic\RS-232\Source/probe_rs232.c **** * Description : Clear the data segment buffer write index.
 691:..\..\..\..\..\..\uC-Probe\Target\Communication\Generic\RS-232\Source/probe_rs232.c **** *
 692:..\..\..\..\..\..\uC-Probe\Target\Communication\Generic\RS-232\Source/probe_rs232.c **** * Argument(s) : none.
 693:..\..\..\..\..\..\uC-Probe\Target\Communication\Generic\RS-232\Source/probe_rs232.c **** *
 694:..\..\..\..\..\..\uC-Probe\Target\Communication\Generic\RS-232\Source/probe_rs232.c **** * Return(s)   : none.
 695:..\..\..\..\..\..\uC-Probe\Target\Communication\Generic\RS-232\Source/probe_rs232.c **** *
 696:..\..\..\..\..\..\uC-Probe\Target\Communication\Generic\RS-232\Source/probe_rs232.c **** * Caller(s)   : ProbeRS232_RxHandler().
 697:..\..\..\..\..\..\uC-Probe\Target\Communication\Generic\RS-232\Source/probe_rs232.c **** *
 698:..\..\..\..\..\..\uC-Probe\Target\Communication\Generic\RS-232\Source/probe_rs232.c **** * Note(s)     : none.
 699:..\..\..\..\..\..\uC-Probe\Target\Communication\Generic\RS-232\Source/probe_rs232.c **** ***************************************************************************************************
 700:..\..\..\..\..\..\uC-Probe\Target\Communication\Generic\RS-232\Source/probe_rs232.c **** */
 701:..\..\..\..\..\..\uC-Probe\Target\Communication\Generic\RS-232\Source/probe_rs232.c **** 
 702:..\..\..\..\..\..\uC-Probe\Target\Communication\Generic\RS-232\Source/probe_rs232.c **** static  void  ProbeRS232_RxBufClr (void)
 703:..\..\..\..\..\..\uC-Probe\Target\Communication\Generic\RS-232\Source/probe_rs232.c **** {
 915              		.loc 1 703 0
 916              		.cfi_startproc
 917              		@ args = 0, pretend = 0, frame = 0
 918              		@ frame_needed = 1, uses_anonymous_args = 0
 919              		@ link register save eliminated.
 920 0000 80B4     		push	{r7}
 921              	.LCFI20:
 922              		.cfi_def_cfa_offset 4
 923 0002 00AF     		add	r7, sp, #0
 924              		.cfi_offset 7, -4
 925              	.LCFI21:
 926              		.cfi_def_cfa_register 7
 704:..\..\..\..\..\..\uC-Probe\Target\Communication\Generic\RS-232\Source/probe_rs232.c ****     ProbeRS232_RxBufWrIx = 0u;
 927              		.loc 1 704 0
 928 0004 40F20003 		movw	r3, #:lower16:ProbeRS232_RxBufWrIx
 929 0008 C0F20003 		movt	r3, #:upper16:ProbeRS232_RxBufWrIx
 930 000c 4FF00002 		mov	r2, #0
 931 0010 1A60     		str	r2, [r3, #0]
 705:..\..\..\..\..\..\uC-Probe\Target\Communication\Generic\RS-232\Source/probe_rs232.c **** }
 932              		.loc 1 705 0
 933 0012 BD46     		mov	sp, r7
 934 0014 80BC     		pop	{r7}
 935 0016 7047     		bx	lr
 936              		.cfi_endproc
ARM GAS  C:\Users\daniel01\AppData\Local\Temp\ccRUCUlV.s 			page 30


 937              	.LFE7:
 938              		.size	ProbeRS232_RxBufClr, .-ProbeRS232_RxBufClr
 939              		.section	.text.ProbeRS232_TxStart,"ax",%progbits
 940              		.align	2
 941              		.thumb
 942              		.thumb_func
 943              		.type	ProbeRS232_TxStart, %function
 944              	ProbeRS232_TxStart:
 945              	.LFB8:
 706:..\..\..\..\..\..\uC-Probe\Target\Communication\Generic\RS-232\Source/probe_rs232.c **** 
 707:..\..\..\..\..\..\uC-Probe\Target\Communication\Generic\RS-232\Source/probe_rs232.c **** 
 708:..\..\..\..\..\..\uC-Probe\Target\Communication\Generic\RS-232\Source/probe_rs232.c **** /*
 709:..\..\..\..\..\..\uC-Probe\Target\Communication\Generic\RS-232\Source/probe_rs232.c **** ***************************************************************************************************
 710:..\..\..\..\..\..\uC-Probe\Target\Communication\Generic\RS-232\Source/probe_rs232.c **** *                                        ProbeRS232_TxStart()
 711:..\..\..\..\..\..\uC-Probe\Target\Communication\Generic\RS-232\Source/probe_rs232.c **** *
 712:..\..\..\..\..\..\uC-Probe\Target\Communication\Generic\RS-232\Source/probe_rs232.c **** * Description : Cause transmission to begin.
 713:..\..\..\..\..\..\uC-Probe\Target\Communication\Generic\RS-232\Source/probe_rs232.c **** *
 714:..\..\..\..\..\..\uC-Probe\Target\Communication\Generic\RS-232\Source/probe_rs232.c **** * Argument(s) : none.
 715:..\..\..\..\..\..\uC-Probe\Target\Communication\Generic\RS-232\Source/probe_rs232.c **** *
 716:..\..\..\..\..\..\uC-Probe\Target\Communication\Generic\RS-232\Source/probe_rs232.c **** * Return(s)   : none.
 717:..\..\..\..\..\..\uC-Probe\Target\Communication\Generic\RS-232\Source/probe_rs232.c **** *
 718:..\..\..\..\..\..\uC-Probe\Target\Communication\Generic\RS-232\Source/probe_rs232.c **** * Caller(s)   : ProbeRS232_Task(),
 719:..\..\..\..\..\..\uC-Probe\Target\Communication\Generic\RS-232\Source/probe_rs232.c **** *               ProbeRS232_RxPkt().
 720:..\..\..\..\..\..\uC-Probe\Target\Communication\Generic\RS-232\Source/probe_rs232.c **** *
 721:..\..\..\..\..\..\uC-Probe\Target\Communication\Generic\RS-232\Source/probe_rs232.c **** * Note(s)     : none.
 722:..\..\..\..\..\..\uC-Probe\Target\Communication\Generic\RS-232\Source/probe_rs232.c **** ***************************************************************************************************
 723:..\..\..\..\..\..\uC-Probe\Target\Communication\Generic\RS-232\Source/probe_rs232.c **** */
 724:..\..\..\..\..\..\uC-Probe\Target\Communication\Generic\RS-232\Source/probe_rs232.c **** 
 725:..\..\..\..\..\..\uC-Probe\Target\Communication\Generic\RS-232\Source/probe_rs232.c **** static  void  ProbeRS232_TxStart (void)
 726:..\..\..\..\..\..\uC-Probe\Target\Communication\Generic\RS-232\Source/probe_rs232.c **** {
 946              		.loc 1 726 0
 947              		.cfi_startproc
 948              		@ args = 0, pretend = 0, frame = 0
 949              		@ frame_needed = 1, uses_anonymous_args = 0
 950 0000 80B5     		push	{r7, lr}
 951              	.LCFI22:
 952              		.cfi_def_cfa_offset 8
 953 0002 00AF     		add	r7, sp, #0
 954              		.cfi_offset 14, -4
 955              		.cfi_offset 7, -8
 956              	.LCFI23:
 957              		.cfi_def_cfa_register 7
 727:..\..\..\..\..\..\uC-Probe\Target\Communication\Generic\RS-232\Source/probe_rs232.c ****     if (ProbeRS232_TxActiveFlag == DEF_FALSE) {                 /* If no other tx is in progress ..
 958              		.loc 1 727 0
 959 0004 40F20003 		movw	r3, #:lower16:ProbeRS232_TxActiveFlag
 960 0008 C0F20003 		movt	r3, #:upper16:ProbeRS232_TxActiveFlag
 961 000c 1B78     		ldrb	r3, [r3, #0]	@ zero_extendqisi2
 962 000e 002B     		cmp	r3, #0
 963 0010 03D1     		bne	.L75
 728:..\..\..\..\..\..\uC-Probe\Target\Communication\Generic\RS-232\Source/probe_rs232.c ****         ProbeRS232_TxHandler();                                 /*  ... handle tx                ..
 964              		.loc 1 728 0
 965 0012 FFF7FEFF 		bl	ProbeRS232_TxHandler
 729:..\..\..\..\..\..\uC-Probe\Target\Communication\Generic\RS-232\Source/probe_rs232.c ****         ProbeRS232_TxIntEn();                                   /*  ... en     tx ints.            
 966              		.loc 1 729 0
 967 0016 FFF7FEFF 		bl	ProbeRS232_TxIntEn
 968              	.L75:
 730:..\..\..\..\..\..\uC-Probe\Target\Communication\Generic\RS-232\Source/probe_rs232.c ****     }
ARM GAS  C:\Users\daniel01\AppData\Local\Temp\ccRUCUlV.s 			page 31


 731:..\..\..\..\..\..\uC-Probe\Target\Communication\Generic\RS-232\Source/probe_rs232.c **** }
 969              		.loc 1 731 0
 970 001a 80BD     		pop	{r7, pc}
 971              		.cfi_endproc
 972              	.LFE8:
 973              		.size	ProbeRS232_TxStart, .-ProbeRS232_TxStart
 974              		.text
 975              	.Letext0: