ARM GAS  C:\Users\daniel01\AppData\Local\Temp\ccHLFCB6.s 			page 1


   1              		.syntax unified
   2              		.cpu cortex-m3
   3              		.fpu softvfp
   4              		.eabi_attribute 20, 1
   5              		.eabi_attribute 21, 1
   6              		.eabi_attribute 23, 3
   7              		.eabi_attribute 24, 1
   8              		.eabi_attribute 25, 1
   9              		.eabi_attribute 26, 1
  10              		.eabi_attribute 30, 6
  11              		.eabi_attribute 18, 4
  12              		.thumb
  13              		.file	"probe_com.c"
  14              		.section	.debug_abbrev,"",%progbits
  15              	.Ldebug_abbrev0:
  16              		.section	.debug_info,"",%progbits
  17              	.Ldebug_info0:
  18              		.section	.debug_line,"",%progbits
  19              	.Ldebug_line0:
  20 0000 7E020000 		.text
  20      0200A400 
  20      00000201 
  20      FB0E0D00 
  20      01010101 
  21              	.Ltext0:
  22              		.cfi_sections	.debug_frame
  23              		.comm	ProbeCom_RxPktCtr,4,4
  24              		.comm	ProbeCom_TxPktCtr,4,4
  25              		.comm	ProbeCom_TxSymCtr,4,4
  26              		.comm	ProbeCom_TxSymByteCtr,4,4
  27              		.comm	ProbeCom_ErrPktCtr,4,4
  28              		.comm	ProbeCom_RxSymCtr,4,4
  29              		.comm	ProbeCom_RxSymByteCtr,4,4
  30              		.bss
  31              		.align	2
  32              	ProbeCom_EndiannessTest:
  33 0000 00000000 		.space	4
  34              		.section	.text.ProbeCom_Init,"ax",%progbits
  35              		.align	2
  36              		.global	ProbeCom_Init
  37              		.thumb
  38              		.thumb_func
  39              		.type	ProbeCom_Init, %function
  40              	ProbeCom_Init:
  41              	.LFB0:
  42              		.file 1 "..\\..\\..\\..\\..\\..\\uC-Probe\\Target\\Communication\\Generic\\Source\\probe_com.c"
   1:..\..\..\..\..\..\uC-Probe\Target\Communication\Generic\Source/probe_com.c **** /*
   2:..\..\..\..\..\..\uC-Probe\Target\Communication\Generic\Source/probe_com.c **** ***************************************************************************************************
   3:..\..\..\..\..\..\uC-Probe\Target\Communication\Generic\Source/probe_com.c **** *                                       uC/Probe Communication
   4:..\..\..\..\..\..\uC-Probe\Target\Communication\Generic\Source/probe_com.c **** *
   5:..\..\..\..\..\..\uC-Probe\Target\Communication\Generic\Source/probe_com.c **** *                         (c) Copyright 2007-2008; Micrium, Inc.; Weston, FL
   6:..\..\..\..\..\..\uC-Probe\Target\Communication\Generic\Source/probe_com.c **** *
   7:..\..\..\..\..\..\uC-Probe\Target\Communication\Generic\Source/probe_com.c **** *               All rights reserved.  Protected by international copyright laws.
   8:..\..\..\..\..\..\uC-Probe\Target\Communication\Generic\Source/probe_com.c **** *               Knowledge of the source code may NOT be used to develop a similar product.
   9:..\..\..\..\..\..\uC-Probe\Target\Communication\Generic\Source/probe_com.c **** *               Please help us continue to provide the Embedded community with the finest
  10:..\..\..\..\..\..\uC-Probe\Target\Communication\Generic\Source/probe_com.c **** *               software available.  Your honesty is greatly appreciated.
  11:..\..\..\..\..\..\uC-Probe\Target\Communication\Generic\Source/probe_com.c **** ***************************************************************************************************
ARM GAS  C:\Users\daniel01\AppData\Local\Temp\ccHLFCB6.s 			page 2


  12:..\..\..\..\..\..\uC-Probe\Target\Communication\Generic\Source/probe_com.c **** */
  13:..\..\..\..\..\..\uC-Probe\Target\Communication\Generic\Source/probe_com.c **** 
  14:..\..\..\..\..\..\uC-Probe\Target\Communication\Generic\Source/probe_com.c **** /*
  15:..\..\..\..\..\..\uC-Probe\Target\Communication\Generic\Source/probe_com.c **** ***************************************************************************************************
  16:..\..\..\..\..\..\uC-Probe\Target\Communication\Generic\Source/probe_com.c **** *
  17:..\..\..\..\..\..\uC-Probe\Target\Communication\Generic\Source/probe_com.c **** *                                       COMMUNICATION: GENERIC
  18:..\..\..\..\..\..\uC-Probe\Target\Communication\Generic\Source/probe_com.c **** *
  19:..\..\..\..\..\..\uC-Probe\Target\Communication\Generic\Source/probe_com.c **** * Filename      : probe_com.c
  20:..\..\..\..\..\..\uC-Probe\Target\Communication\Generic\Source/probe_com.c **** * Version       : V2.30
  21:..\..\..\..\..\..\uC-Probe\Target\Communication\Generic\Source/probe_com.c **** * Programmer(s) : BAN
  22:..\..\..\..\..\..\uC-Probe\Target\Communication\Generic\Source/probe_com.c **** ***************************************************************************************************
  23:..\..\..\..\..\..\uC-Probe\Target\Communication\Generic\Source/probe_com.c **** * Note(s)       : (1) This file contains code to respond to generic (non protocol-dependent) comman
  24:..\..\..\..\..\..\uC-Probe\Target\Communication\Generic\Source/probe_com.c **** *                     received by the target.
  25:..\..\..\..\..\..\uC-Probe\Target\Communication\Generic\Source/probe_com.c **** ***************************************************************************************************
  26:..\..\..\..\..\..\uC-Probe\Target\Communication\Generic\Source/probe_com.c **** */
  27:..\..\..\..\..\..\uC-Probe\Target\Communication\Generic\Source/probe_com.c **** 
  28:..\..\..\..\..\..\uC-Probe\Target\Communication\Generic\Source/probe_com.c **** 
  29:..\..\..\..\..\..\uC-Probe\Target\Communication\Generic\Source/probe_com.c **** /*
  30:..\..\..\..\..\..\uC-Probe\Target\Communication\Generic\Source/probe_com.c **** ***************************************************************************************************
  31:..\..\..\..\..\..\uC-Probe\Target\Communication\Generic\Source/probe_com.c **** *                                            INCLUDE FILES
  32:..\..\..\..\..\..\uC-Probe\Target\Communication\Generic\Source/probe_com.c **** ***************************************************************************************************
  33:..\..\..\..\..\..\uC-Probe\Target\Communication\Generic\Source/probe_com.c **** */
  34:..\..\..\..\..\..\uC-Probe\Target\Communication\Generic\Source/probe_com.c **** 
  35:..\..\..\..\..\..\uC-Probe\Target\Communication\Generic\Source/probe_com.c **** #define   PROBE_COM_MODULE
  36:..\..\..\..\..\..\uC-Probe\Target\Communication\Generic\Source/probe_com.c **** #include  <probe_com.h>
  37:..\..\..\..\..\..\uC-Probe\Target\Communication\Generic\Source/probe_com.c **** 
  38:..\..\..\..\..\..\uC-Probe\Target\Communication\Generic\Source/probe_com.c **** 
  39:..\..\..\..\..\..\uC-Probe\Target\Communication\Generic\Source/probe_com.c **** /*
  40:..\..\..\..\..\..\uC-Probe\Target\Communication\Generic\Source/probe_com.c **** ***************************************************************************************************
  41:..\..\..\..\..\..\uC-Probe\Target\Communication\Generic\Source/probe_com.c **** *                                            LOCAL DEFINES
  42:..\..\..\..\..\..\uC-Probe\Target\Communication\Generic\Source/probe_com.c **** ***************************************************************************************************
  43:..\..\..\..\..\..\uC-Probe\Target\Communication\Generic\Source/probe_com.c **** */
  44:..\..\..\..\..\..\uC-Probe\Target\Communication\Generic\Source/probe_com.c **** 
  45:..\..\..\..\..\..\uC-Probe\Target\Communication\Generic\Source/probe_com.c **** /*
  46:..\..\..\..\..\..\uC-Probe\Target\Communication\Generic\Source/probe_com.c **** ***************************************************************************************************
  47:..\..\..\..\..\..\uC-Probe\Target\Communication\Generic\Source/probe_com.c **** *                                        DATA FORMATS DEFINES
  48:..\..\..\..\..\..\uC-Probe\Target\Communication\Generic\Source/probe_com.c **** ***************************************************************************************************
  49:..\..\..\..\..\..\uC-Probe\Target\Communication\Generic\Source/probe_com.c **** */
  50:..\..\..\..\..\..\uC-Probe\Target\Communication\Generic\Source/probe_com.c **** 
  51:..\..\..\..\..\..\uC-Probe\Target\Communication\Generic\Source/probe_com.c **** #define  PROBE_COM_FMT_TX_ERR                         0x8000u
  52:..\..\..\..\..\..\uC-Probe\Target\Communication\Generic\Source/probe_com.c **** 
  53:..\..\..\..\..\..\uC-Probe\Target\Communication\Generic\Source/probe_com.c **** #define  PROBE_COM_FMT_RX_QUERY                       0x0001u   /* Query setup parameter or capabil
  54:..\..\..\..\..\..\uC-Probe\Target\Communication\Generic\Source/probe_com.c **** #define  PROBE_COM_FMT_TX_QUERY                       0x8001u
  55:..\..\..\..\..\..\uC-Probe\Target\Communication\Generic\Source/probe_com.c **** 
  56:..\..\..\..\..\..\uC-Probe\Target\Communication\Generic\Source/probe_com.c **** #define  PROBE_COM_FMT_RX_RD                          0x0002u   /* Read data at memory address.    
  57:..\..\..\..\..\..\uC-Probe\Target\Communication\Generic\Source/probe_com.c **** #define  PROBE_COM_FMT_TX_RD                          0x8002u
  58:..\..\..\..\..\..\uC-Probe\Target\Communication\Generic\Source/probe_com.c **** 
  59:..\..\..\..\..\..\uC-Probe\Target\Communication\Generic\Source/probe_com.c **** #define  PROBE_COM_FMT_RX_WR                          0x0003u   /* Write data at memory address.   
  60:..\..\..\..\..\..\uC-Probe\Target\Communication\Generic\Source/probe_com.c **** #define  PROBE_COM_FMT_TX_WR                          0x8003u
  61:..\..\..\..\..\..\uC-Probe\Target\Communication\Generic\Source/probe_com.c **** 
  62:..\..\..\..\..\..\uC-Probe\Target\Communication\Generic\Source/probe_com.c **** #define  PROBE_COM_FMT_RX_RD_MULTI                    0x0007u   /* Read data at multiple memory add
  63:..\..\..\..\..\..\uC-Probe\Target\Communication\Generic\Source/probe_com.c **** #define  PROBE_COM_FMT_TX_RD_MULTI                    0x8007u
  64:..\..\..\..\..\..\uC-Probe\Target\Communication\Generic\Source/probe_com.c **** #define  PROBE_COM_FMT_TX_RD_MULTI_LO                   0x07u
  65:..\..\..\..\..\..\uC-Probe\Target\Communication\Generic\Source/probe_com.c **** #define  PROBE_COM_FMT_TX_RD_MULTI_HI                   0x80u
  66:..\..\..\..\..\..\uC-Probe\Target\Communication\Generic\Source/probe_com.c **** 
  67:..\..\..\..\..\..\uC-Probe\Target\Communication\Generic\Source/probe_com.c **** #define  PROBE_COM_FMT_RX_WR_MULTI                    0x0008u   /* Write data at multiple memory ad
  68:..\..\..\..\..\..\uC-Probe\Target\Communication\Generic\Source/probe_com.c **** #define  PROBE_COM_FMT_TX_WR_MULTI                    0x8008u
ARM GAS  C:\Users\daniel01\AppData\Local\Temp\ccHLFCB6.s 			page 3


  69:..\..\..\..\..\..\uC-Probe\Target\Communication\Generic\Source/probe_com.c **** 
  70:..\..\..\..\..\..\uC-Probe\Target\Communication\Generic\Source/probe_com.c **** #define  PROBE_COM_FMT_RX_STR_OUT                     0x0009u   /* Transmit output string to Probe.
  71:..\..\..\..\..\..\uC-Probe\Target\Communication\Generic\Source/probe_com.c **** #define  PROBE_COM_FMT_TX_STR_OUT                     0x8009u
  72:..\..\..\..\..\..\uC-Probe\Target\Communication\Generic\Source/probe_com.c **** 
  73:..\..\..\..\..\..\uC-Probe\Target\Communication\Generic\Source/probe_com.c **** #define  PROBE_COM_FMT_RX_STR_IN                      0x000Au   /* Receive input string from Probe.
  74:..\..\..\..\..\..\uC-Probe\Target\Communication\Generic\Source/probe_com.c **** #define  PROBE_COM_FMT_TX_STR_IN                      0x800Au
  75:..\..\..\..\..\..\uC-Probe\Target\Communication\Generic\Source/probe_com.c **** 
  76:..\..\..\..\..\..\uC-Probe\Target\Communication\Generic\Source/probe_com.c **** #define  PROBE_COM_FMT_RX_TERMINAL_EXEC               0x000Bu   /* Execute terminal command.       
  77:..\..\..\..\..\..\uC-Probe\Target\Communication\Generic\Source/probe_com.c **** #define  PROBE_COM_FMT_TX_TERMINAL_EXEC               0x800Bu
  78:..\..\..\..\..\..\uC-Probe\Target\Communication\Generic\Source/probe_com.c **** 
  79:..\..\..\..\..\..\uC-Probe\Target\Communication\Generic\Source/probe_com.c **** #define  PROBE_COM_FMT_RX_TERMINAL_OUT                0x000Cu   /* Transmit output data to Probe.  
  80:..\..\..\..\..\..\uC-Probe\Target\Communication\Generic\Source/probe_com.c **** #define  PROBE_COM_FMT_TX_TERMINAL_OUT                0x800Cu
  81:..\..\..\..\..\..\uC-Probe\Target\Communication\Generic\Source/probe_com.c **** 
  82:..\..\..\..\..\..\uC-Probe\Target\Communication\Generic\Source/probe_com.c **** #define  PROBE_COM_FMT_RX_TERMINAL_IN                 0x000Du   /* Receive input data from Probe.  
  83:..\..\..\..\..\..\uC-Probe\Target\Communication\Generic\Source/probe_com.c **** #define  PROBE_COM_FMT_TX_TERMINAL_IN                 0x800Du
  84:..\..\..\..\..\..\uC-Probe\Target\Communication\Generic\Source/probe_com.c **** 
  85:..\..\..\..\..\..\uC-Probe\Target\Communication\Generic\Source/probe_com.c **** /*
  86:..\..\..\..\..\..\uC-Probe\Target\Communication\Generic\Source/probe_com.c **** ***************************************************************************************************
  87:..\..\..\..\..\..\uC-Probe\Target\Communication\Generic\Source/probe_com.c **** *                                      STATUS CONSTANTS DEFINES
  88:..\..\..\..\..\..\uC-Probe\Target\Communication\Generic\Source/probe_com.c **** ***************************************************************************************************
  89:..\..\..\..\..\..\uC-Probe\Target\Communication\Generic\Source/probe_com.c **** */
  90:..\..\..\..\..\..\uC-Probe\Target\Communication\Generic\Source/probe_com.c **** 
  91:..\..\..\..\..\..\uC-Probe\Target\Communication\Generic\Source/probe_com.c **** #define  PROBE_COM_STATUS_OK                            0x01u
  92:..\..\..\..\..\..\uC-Probe\Target\Communication\Generic\Source/probe_com.c **** #define  PROBE_COM_STATUS_TERMINAL_EXEC_NOT_RDY         0xF4u   /* Terminal not rdy to exec new cmd
  93:..\..\..\..\..\..\uC-Probe\Target\Communication\Generic\Source/probe_com.c **** #define  PROBE_COM_STATUS_TERMINAL_IN_OVF               0xF5u   /* Terminal in buf ovf'd.          
  94:..\..\..\..\..\..\uC-Probe\Target\Communication\Generic\Source/probe_com.c **** #define  PROBE_COM_STATUS_TERMINAL_OUT_NONE             0xF6u   /* Terminal out buf empty.         
  95:..\..\..\..\..\..\uC-Probe\Target\Communication\Generic\Source/probe_com.c **** #define  PROBE_COM_STATUS_STR_IN_OVF                    0xF7u   /* String in buf ovf'd.            
  96:..\..\..\..\..\..\uC-Probe\Target\Communication\Generic\Source/probe_com.c **** #define  PROBE_COM_STATUS_STR_OUT_NONE                  0xF8u   /* String out buf empty.           
  97:..\..\..\..\..\..\uC-Probe\Target\Communication\Generic\Source/probe_com.c **** #define  PROBE_COM_STATUS_UNKNOWN_REQUEST               0xF9u   /* Unknown req.                    
  98:..\..\..\..\..\..\uC-Probe\Target\Communication\Generic\Source/probe_com.c **** #define  PROBE_COM_STATUS_QUERY_NOT_SUPPORTED           0xFCu   /* Query not supported.            
  99:..\..\..\..\..\..\uC-Probe\Target\Communication\Generic\Source/probe_com.c **** #define  PROBE_COM_STATUS_TX_PKT_TOO_LARGE              0xFDu   /* Reply pkt too large for buf.    
 100:..\..\..\..\..\..\uC-Probe\Target\Communication\Generic\Source/probe_com.c **** #define  PROBE_COM_STATUS_RX_PKT_WRONG_SIZE             0xFEu   /* Req pkt not correct size.       
 101:..\..\..\..\..\..\uC-Probe\Target\Communication\Generic\Source/probe_com.c **** #define  PROBE_COM_STATUS_FAIL                          0xFFu   /* Req exec failed (or unknown err)
 102:..\..\..\..\..\..\uC-Probe\Target\Communication\Generic\Source/probe_com.c **** 
 103:..\..\..\..\..\..\uC-Probe\Target\Communication\Generic\Source/probe_com.c **** /*
 104:..\..\..\..\..\..\uC-Probe\Target\Communication\Generic\Source/probe_com.c **** ***************************************************************************************************
 105:..\..\..\..\..\..\uC-Probe\Target\Communication\Generic\Source/probe_com.c **** *                                           QUERIES DEFINES
 106:..\..\..\..\..\..\uC-Probe\Target\Communication\Generic\Source/probe_com.c **** ***************************************************************************************************
 107:..\..\..\..\..\..\uC-Probe\Target\Communication\Generic\Source/probe_com.c **** */
 108:..\..\..\..\..\..\uC-Probe\Target\Communication\Generic\Source/probe_com.c **** 
 109:..\..\..\..\..\..\uC-Probe\Target\Communication\Generic\Source/probe_com.c ****                                                                 /* ------------------- CONFIGURATIO
 110:..\..\..\..\..\..\uC-Probe\Target\Communication\Generic\Source/probe_com.c **** #define  PROBE_COM_QUERY_MAX_RX_SIZE                  0x0101u   /* Get data size of largest pkt tar
 111:..\..\..\..\..\..\uC-Probe\Target\Communication\Generic\Source/probe_com.c **** #define  PROBE_COM_QUERY_MAX_TX_SIZE                  0x0102u   /* Get data size of largest pkt tar
 112:..\..\..\..\..\..\uC-Probe\Target\Communication\Generic\Source/probe_com.c **** 
 113:..\..\..\..\..\..\uC-Probe\Target\Communication\Generic\Source/probe_com.c ****                                                                 /* ----------------- TARGET PROPERT
 114:..\..\..\..\..\..\uC-Probe\Target\Communication\Generic\Source/probe_com.c **** #define  PROBE_COM_QUERY_ENDIANNESS_TEST              0x0201u   /* Test endianness of target.      
 115:..\..\..\..\..\..\uC-Probe\Target\Communication\Generic\Source/probe_com.c **** #define  PROBE_COM_QUERY_STATUS                       0x0202u   /* Target status.                  
 116:..\..\..\..\..\..\uC-Probe\Target\Communication\Generic\Source/probe_com.c **** 
 117:..\..\..\..\..\..\uC-Probe\Target\Communication\Generic\Source/probe_com.c ****                                                                 /* ------------- COMMUNICATION CAPA
 118:..\..\..\..\..\..\uC-Probe\Target\Communication\Generic\Source/probe_com.c **** #define  PROBE_COM_QUERY_FMT_SUPPORT                  0x1001u   /* Get list of supported req's.    
 119:..\..\..\..\..\..\uC-Probe\Target\Communication\Generic\Source/probe_com.c **** #define  PROBE_COM_QUERY_VERSION                      0x1002u   /* Get target code ver.            
 120:..\..\..\..\..\..\uC-Probe\Target\Communication\Generic\Source/probe_com.c **** 
 121:..\..\..\..\..\..\uC-Probe\Target\Communication\Generic\Source/probe_com.c **** /*
 122:..\..\..\..\..\..\uC-Probe\Target\Communication\Generic\Source/probe_com.c **** ***************************************************************************************************
 123:..\..\..\..\..\..\uC-Probe\Target\Communication\Generic\Source/probe_com.c **** *                                          MODIFIERS DEFINES
 124:..\..\..\..\..\..\uC-Probe\Target\Communication\Generic\Source/probe_com.c **** ***************************************************************************************************
 125:..\..\..\..\..\..\uC-Probe\Target\Communication\Generic\Source/probe_com.c **** */
ARM GAS  C:\Users\daniel01\AppData\Local\Temp\ccHLFCB6.s 			page 4


 126:..\..\..\..\..\..\uC-Probe\Target\Communication\Generic\Source/probe_com.c **** 
 127:..\..\..\..\..\..\uC-Probe\Target\Communication\Generic\Source/probe_com.c **** #define  PROBE_COM_MODIFIER_NONE                  DEF_BIT_NONE
 128:..\..\..\..\..\..\uC-Probe\Target\Communication\Generic\Source/probe_com.c **** #define  PROBE_COM_MODIFIER_STR_OUT_AVAIL         DEF_BIT_00    /* Str out is avail.               
 129:..\..\..\..\..\..\uC-Probe\Target\Communication\Generic\Source/probe_com.c **** #define  PROBE_COM_MODIFIER_TERMINAL_EXEC_DONE    DEF_BIT_01    /* Terminal cmd exec done.         
 130:..\..\..\..\..\..\uC-Probe\Target\Communication\Generic\Source/probe_com.c **** #define  PROBE_COM_MODIFIER_TERMINAL_OUT_AVAIL    DEF_BIT_02    /* Terminal out is avail.          
 131:..\..\..\..\..\..\uC-Probe\Target\Communication\Generic\Source/probe_com.c **** 
 132:..\..\..\..\..\..\uC-Probe\Target\Communication\Generic\Source/probe_com.c **** /*
 133:..\..\..\..\..\..\uC-Probe\Target\Communication\Generic\Source/probe_com.c **** ***************************************************************************************************
 134:..\..\..\..\..\..\uC-Probe\Target\Communication\Generic\Source/probe_com.c **** *                                        HEADER SIZES DEFINES
 135:..\..\..\..\..\..\uC-Probe\Target\Communication\Generic\Source/probe_com.c **** *
 136:..\..\..\..\..\..\uC-Probe\Target\Communication\Generic\Source/probe_com.c **** * Note(s):  (1) The first four bytes in all tx data segments is identical:
 137:..\..\..\..\..\..\uC-Probe\Target\Communication\Generic\Source/probe_com.c **** *
 138:..\..\..\..\..\..\uC-Probe\Target\Communication\Generic\Source/probe_com.c **** *               (a) A 2-byte format;
 139:..\..\..\..\..\..\uC-Probe\Target\Communication\Generic\Source/probe_com.c **** *               (b) A 1-byte status;
 140:..\..\..\..\..\..\uC-Probe\Target\Communication\Generic\Source/probe_com.c **** *               (c) A 1-byte modifier, currently unused.
 141:..\..\..\..\..\..\uC-Probe\Target\Communication\Generic\Source/probe_com.c **** *
 142:..\..\..\..\..\..\uC-Probe\Target\Communication\Generic\Source/probe_com.c **** *           (2) The first two bytes in all rx data segments is identical:
 143:..\..\..\..\..\..\uC-Probe\Target\Communication\Generic\Source/probe_com.c **** *
 144:..\..\..\..\..\..\uC-Probe\Target\Communication\Generic\Source/probe_com.c **** *               (a) A 2-byte format.
 145:..\..\..\..\..\..\uC-Probe\Target\Communication\Generic\Source/probe_com.c **** ***************************************************************************************************
 146:..\..\..\..\..\..\uC-Probe\Target\Communication\Generic\Source/probe_com.c **** */
 147:..\..\..\..\..\..\uC-Probe\Target\Communication\Generic\Source/probe_com.c **** 
 148:..\..\..\..\..\..\uC-Probe\Target\Communication\Generic\Source/probe_com.c **** #define  PROBE_COM_SIZE_RX_HDR                             2u
 149:..\..\..\..\..\..\uC-Probe\Target\Communication\Generic\Source/probe_com.c **** #define  PROBE_COM_SIZE_TX_HDR                             4u
 150:..\..\..\..\..\..\uC-Probe\Target\Communication\Generic\Source/probe_com.c **** 
 151:..\..\..\..\..\..\uC-Probe\Target\Communication\Generic\Source/probe_com.c **** /*
 152:..\..\..\..\..\..\uC-Probe\Target\Communication\Generic\Source/probe_com.c **** ***************************************************************************************************
 153:..\..\..\..\..\..\uC-Probe\Target\Communication\Generic\Source/probe_com.c **** *                                           LOCAL CONSTANTS
 154:..\..\..\..\..\..\uC-Probe\Target\Communication\Generic\Source/probe_com.c **** ***************************************************************************************************
 155:..\..\..\..\..\..\uC-Probe\Target\Communication\Generic\Source/probe_com.c **** */
 156:..\..\..\..\..\..\uC-Probe\Target\Communication\Generic\Source/probe_com.c **** 
 157:..\..\..\..\..\..\uC-Probe\Target\Communication\Generic\Source/probe_com.c **** 
 158:..\..\..\..\..\..\uC-Probe\Target\Communication\Generic\Source/probe_com.c **** /*
 159:..\..\..\..\..\..\uC-Probe\Target\Communication\Generic\Source/probe_com.c **** ***************************************************************************************************
 160:..\..\..\..\..\..\uC-Probe\Target\Communication\Generic\Source/probe_com.c **** *                                          LOCAL DATA TYPES
 161:..\..\..\..\..\..\uC-Probe\Target\Communication\Generic\Source/probe_com.c **** ***************************************************************************************************
 162:..\..\..\..\..\..\uC-Probe\Target\Communication\Generic\Source/probe_com.c **** */
 163:..\..\..\..\..\..\uC-Probe\Target\Communication\Generic\Source/probe_com.c **** 
 164:..\..\..\..\..\..\uC-Probe\Target\Communication\Generic\Source/probe_com.c **** typedef  struct  probe_com_buf {
 165:..\..\..\..\..\..\uC-Probe\Target\Communication\Generic\Source/probe_com.c ****     CPU_SIZE_T   Len;
 166:..\..\..\..\..\..\uC-Probe\Target\Communication\Generic\Source/probe_com.c ****     CPU_SIZE_T   IxRd;
 167:..\..\..\..\..\..\uC-Probe\Target\Communication\Generic\Source/probe_com.c ****     CPU_SIZE_T   IxWr;
 168:..\..\..\..\..\..\uC-Probe\Target\Communication\Generic\Source/probe_com.c ****     CPU_INT08U  *DataPtr;
 169:..\..\..\..\..\..\uC-Probe\Target\Communication\Generic\Source/probe_com.c **** } PROBE_COM_BUF;
 170:..\..\..\..\..\..\uC-Probe\Target\Communication\Generic\Source/probe_com.c **** 
 171:..\..\..\..\..\..\uC-Probe\Target\Communication\Generic\Source/probe_com.c **** 
 172:..\..\..\..\..\..\uC-Probe\Target\Communication\Generic\Source/probe_com.c **** /*
 173:..\..\..\..\..\..\uC-Probe\Target\Communication\Generic\Source/probe_com.c **** ***************************************************************************************************
 174:..\..\..\..\..\..\uC-Probe\Target\Communication\Generic\Source/probe_com.c **** *                                            LOCAL TABLES
 175:..\..\..\..\..\..\uC-Probe\Target\Communication\Generic\Source/probe_com.c **** ***************************************************************************************************
 176:..\..\..\..\..\..\uC-Probe\Target\Communication\Generic\Source/probe_com.c **** */
 177:..\..\..\..\..\..\uC-Probe\Target\Communication\Generic\Source/probe_com.c **** 
 178:..\..\..\..\..\..\uC-Probe\Target\Communication\Generic\Source/probe_com.c **** 
 179:..\..\..\..\..\..\uC-Probe\Target\Communication\Generic\Source/probe_com.c **** /*
 180:..\..\..\..\..\..\uC-Probe\Target\Communication\Generic\Source/probe_com.c **** ***************************************************************************************************
 181:..\..\..\..\..\..\uC-Probe\Target\Communication\Generic\Source/probe_com.c **** *                                       LOCAL GLOBAL VARIABLES
 182:..\..\..\..\..\..\uC-Probe\Target\Communication\Generic\Source/probe_com.c **** ***************************************************************************************************
ARM GAS  C:\Users\daniel01\AppData\Local\Temp\ccHLFCB6.s 			page 5


 183:..\..\..\..\..\..\uC-Probe\Target\Communication\Generic\Source/probe_com.c **** */
 184:..\..\..\..\..\..\uC-Probe\Target\Communication\Generic\Source/probe_com.c **** 
 185:..\..\..\..\..\..\uC-Probe\Target\Communication\Generic\Source/probe_com.c **** #if (PROBE_COM_CFG_STR_REQ_EN       == DEF_ENABLED)
 186:..\..\..\..\..\..\uC-Probe\Target\Communication\Generic\Source/probe_com.c **** static  CPU_CHAR                       ProbeCom_StrInBufData[PROBE_COM_CFG_STR_IN_BUF_SIZE];
 187:..\..\..\..\..\..\uC-Probe\Target\Communication\Generic\Source/probe_com.c **** static  PROBE_COM_BUF                  ProbeCom_StrInBuf;
 188:..\..\..\..\..\..\uC-Probe\Target\Communication\Generic\Source/probe_com.c **** 
 189:..\..\..\..\..\..\uC-Probe\Target\Communication\Generic\Source/probe_com.c **** static  CPU_CHAR                       ProbeCom_StrOutBufData[PROBE_COM_CFG_STR_OUT_BUF_SIZE];
 190:..\..\..\..\..\..\uC-Probe\Target\Communication\Generic\Source/probe_com.c **** static  PROBE_COM_BUF                  ProbeCom_StrOutBuf;
 191:..\..\..\..\..\..\uC-Probe\Target\Communication\Generic\Source/probe_com.c **** #endif
 192:..\..\..\..\..\..\uC-Probe\Target\Communication\Generic\Source/probe_com.c **** 
 193:..\..\..\..\..\..\uC-Probe\Target\Communication\Generic\Source/probe_com.c **** #if (PROBE_COM_CFG_TERMINAL_REQ_EN  == DEF_ENABLED)
 194:..\..\..\..\..\..\uC-Probe\Target\Communication\Generic\Source/probe_com.c **** static  PROBE_COM_TERMINAL_EXEC_FNCT   ProbeCom_TerminalExecHandler;
 195:..\..\..\..\..\..\uC-Probe\Target\Communication\Generic\Source/probe_com.c **** static  CPU_BOOLEAN                    ProbeCom_TerminalExecuting;
 196:..\..\..\..\..\..\uC-Probe\Target\Communication\Generic\Source/probe_com.c **** 
 197:..\..\..\..\..\..\uC-Probe\Target\Communication\Generic\Source/probe_com.c **** static  PROBE_COM_TERMINAL_IN_FNCT     ProbeCom_TerminalInHandler;
 198:..\..\..\..\..\..\uC-Probe\Target\Communication\Generic\Source/probe_com.c **** 
 199:..\..\..\..\..\..\uC-Probe\Target\Communication\Generic\Source/probe_com.c **** static  CPU_INT08U                    *ProbeCom_TerminalOutBufPtr;
 200:..\..\..\..\..\..\uC-Probe\Target\Communication\Generic\Source/probe_com.c **** static  CPU_SIZE_T                     ProbeCom_TerminalOutBufIx;
 201:..\..\..\..\..\..\uC-Probe\Target\Communication\Generic\Source/probe_com.c **** static  CPU_SIZE_T                     ProbeCom_TerminalOutBufLen;
 202:..\..\..\..\..\..\uC-Probe\Target\Communication\Generic\Source/probe_com.c **** #endif
 203:..\..\..\..\..\..\uC-Probe\Target\Communication\Generic\Source/probe_com.c **** 
 204:..\..\..\..\..\..\uC-Probe\Target\Communication\Generic\Source/probe_com.c **** static  CPU_INT32U                     ProbeCom_EndiannessTest;
 205:..\..\..\..\..\..\uC-Probe\Target\Communication\Generic\Source/probe_com.c **** 
 206:..\..\..\..\..\..\uC-Probe\Target\Communication\Generic\Source/probe_com.c **** 
 207:..\..\..\..\..\..\uC-Probe\Target\Communication\Generic\Source/probe_com.c **** /*
 208:..\..\..\..\..\..\uC-Probe\Target\Communication\Generic\Source/probe_com.c **** ***************************************************************************************************
 209:..\..\..\..\..\..\uC-Probe\Target\Communication\Generic\Source/probe_com.c **** *                                      LOCAL FUNCTION PROTOTYPES
 210:..\..\..\..\..\..\uC-Probe\Target\Communication\Generic\Source/probe_com.c **** ***************************************************************************************************
 211:..\..\..\..\..\..\uC-Probe\Target\Communication\Generic\Source/probe_com.c **** */
 212:..\..\..\..\..\..\uC-Probe\Target\Communication\Generic\Source/probe_com.c **** 
 213:..\..\..\..\..\..\uC-Probe\Target\Communication\Generic\Source/probe_com.c **** static  CPU_INT08U   ProbeCom_PktModifier     (void);
 214:..\..\..\..\..\..\uC-Probe\Target\Communication\Generic\Source/probe_com.c **** 
 215:..\..\..\..\..\..\uC-Probe\Target\Communication\Generic\Source/probe_com.c **** static  CPU_SIZE_T   ProbeCom_ReqErr          (CPU_INT08U      *ptx_buf,
 216:..\..\..\..\..\..\uC-Probe\Target\Communication\Generic\Source/probe_com.c ****                                                CPU_INT08U       pcomm_err);
 217:..\..\..\..\..\..\uC-Probe\Target\Communication\Generic\Source/probe_com.c **** 
 218:..\..\..\..\..\..\uC-Probe\Target\Communication\Generic\Source/probe_com.c **** 
 219:..\..\..\..\..\..\uC-Probe\Target\Communication\Generic\Source/probe_com.c ****                                                                 /* ------------------- HANDLE REQ'S
 220:..\..\..\..\..\..\uC-Probe\Target\Communication\Generic\Source/probe_com.c **** static  CPU_SIZE_T   ProbeCom_ReqQuery        (CPU_INT08U      *prx_buf,
 221:..\..\..\..\..\..\uC-Probe\Target\Communication\Generic\Source/probe_com.c ****                                                CPU_INT08U      *ptx_buf,
 222:..\..\..\..\..\..\uC-Probe\Target\Communication\Generic\Source/probe_com.c ****                                                CPU_SIZE_T       rx_pkt_size,
 223:..\..\..\..\..\..\uC-Probe\Target\Communication\Generic\Source/probe_com.c ****                                                CPU_SIZE_T       tx_buf_size);
 224:..\..\..\..\..\..\uC-Probe\Target\Communication\Generic\Source/probe_com.c **** 
 225:..\..\..\..\..\..\uC-Probe\Target\Communication\Generic\Source/probe_com.c **** static  CPU_SIZE_T   ProbeCom_ReqRd           (CPU_INT08U      *prx_buf,
 226:..\..\..\..\..\..\uC-Probe\Target\Communication\Generic\Source/probe_com.c ****                                                CPU_INT08U      *ptx_buf,
 227:..\..\..\..\..\..\uC-Probe\Target\Communication\Generic\Source/probe_com.c ****                                                CPU_SIZE_T       rx_pkt_size,
 228:..\..\..\..\..\..\uC-Probe\Target\Communication\Generic\Source/probe_com.c ****                                                CPU_SIZE_T       tx_buf_size);
 229:..\..\..\..\..\..\uC-Probe\Target\Communication\Generic\Source/probe_com.c **** 
 230:..\..\..\..\..\..\uC-Probe\Target\Communication\Generic\Source/probe_com.c **** static  CPU_SIZE_T   ProbeCom_ReqRdMulti      (CPU_INT08U      *prx_buf,
 231:..\..\..\..\..\..\uC-Probe\Target\Communication\Generic\Source/probe_com.c ****                                                CPU_INT08U      *ptx_buf,
 232:..\..\..\..\..\..\uC-Probe\Target\Communication\Generic\Source/probe_com.c ****                                                CPU_SIZE_T       rx_pkt_size,
 233:..\..\..\..\..\..\uC-Probe\Target\Communication\Generic\Source/probe_com.c ****                                                CPU_SIZE_T       tx_buf_size);
 234:..\..\..\..\..\..\uC-Probe\Target\Communication\Generic\Source/probe_com.c **** 
 235:..\..\..\..\..\..\uC-Probe\Target\Communication\Generic\Source/probe_com.c **** #if (PROBE_COM_CFG_WR_REQ_EN == DEF_ENABLED)
 236:..\..\..\..\..\..\uC-Probe\Target\Communication\Generic\Source/probe_com.c **** static  CPU_SIZE_T   ProbeCom_ReqWr           (CPU_INT08U      *prx_buf,
 237:..\..\..\..\..\..\uC-Probe\Target\Communication\Generic\Source/probe_com.c ****                                                CPU_INT08U      *ptx_buf,
 238:..\..\..\..\..\..\uC-Probe\Target\Communication\Generic\Source/probe_com.c ****                                                CPU_SIZE_T       rx_pkt_size,
 239:..\..\..\..\..\..\uC-Probe\Target\Communication\Generic\Source/probe_com.c ****                                                CPU_SIZE_T       tx_buf_size);
ARM GAS  C:\Users\daniel01\AppData\Local\Temp\ccHLFCB6.s 			page 6


 240:..\..\..\..\..\..\uC-Probe\Target\Communication\Generic\Source/probe_com.c **** 
 241:..\..\..\..\..\..\uC-Probe\Target\Communication\Generic\Source/probe_com.c **** static  CPU_SIZE_T   ProbeCom_ReqWrMulti      (CPU_INT08U      *prx_buf,
 242:..\..\..\..\..\..\uC-Probe\Target\Communication\Generic\Source/probe_com.c ****                                                CPU_INT08U      *ptx_buf,
 243:..\..\..\..\..\..\uC-Probe\Target\Communication\Generic\Source/probe_com.c ****                                                CPU_SIZE_T       rx_pkt_size,
 244:..\..\..\..\..\..\uC-Probe\Target\Communication\Generic\Source/probe_com.c ****                                                CPU_SIZE_T       tx_buf_size);
 245:..\..\..\..\..\..\uC-Probe\Target\Communication\Generic\Source/probe_com.c **** #endif
 246:..\..\..\..\..\..\uC-Probe\Target\Communication\Generic\Source/probe_com.c **** 
 247:..\..\..\..\..\..\uC-Probe\Target\Communication\Generic\Source/probe_com.c **** #if (PROBE_COM_CFG_STR_REQ_EN == DEF_ENABLED)
 248:..\..\..\..\..\..\uC-Probe\Target\Communication\Generic\Source/probe_com.c **** static  CPU_SIZE_T   ProbeCom_ReqStrIn        (CPU_INT08U      *prx_buf,
 249:..\..\..\..\..\..\uC-Probe\Target\Communication\Generic\Source/probe_com.c ****                                                CPU_INT08U      *ptx_buf,
 250:..\..\..\..\..\..\uC-Probe\Target\Communication\Generic\Source/probe_com.c ****                                                CPU_SIZE_T       rx_pkt_size,
 251:..\..\..\..\..\..\uC-Probe\Target\Communication\Generic\Source/probe_com.c ****                                                CPU_SIZE_T       tx_buf_size);
 252:..\..\..\..\..\..\uC-Probe\Target\Communication\Generic\Source/probe_com.c **** 
 253:..\..\..\..\..\..\uC-Probe\Target\Communication\Generic\Source/probe_com.c **** static  CPU_SIZE_T   ProbeCom_ReqStrOut       (CPU_INT08U      *prx_buf,
 254:..\..\..\..\..\..\uC-Probe\Target\Communication\Generic\Source/probe_com.c ****                                                CPU_INT08U      *ptx_buf,
 255:..\..\..\..\..\..\uC-Probe\Target\Communication\Generic\Source/probe_com.c ****                                                CPU_SIZE_T       rx_pkt_size,
 256:..\..\..\..\..\..\uC-Probe\Target\Communication\Generic\Source/probe_com.c ****                                                CPU_SIZE_T       tx_buf_size);
 257:..\..\..\..\..\..\uC-Probe\Target\Communication\Generic\Source/probe_com.c **** #endif
 258:..\..\..\..\..\..\uC-Probe\Target\Communication\Generic\Source/probe_com.c **** 
 259:..\..\..\..\..\..\uC-Probe\Target\Communication\Generic\Source/probe_com.c **** #if (PROBE_COM_CFG_TERMINAL_REQ_EN == DEF_ENABLED)
 260:..\..\..\..\..\..\uC-Probe\Target\Communication\Generic\Source/probe_com.c **** static  CPU_SIZE_T   ProbeCom_ReqTerminalExec (CPU_INT08U      *prx_buf,
 261:..\..\..\..\..\..\uC-Probe\Target\Communication\Generic\Source/probe_com.c ****                                                CPU_INT08U      *ptx_buf,
 262:..\..\..\..\..\..\uC-Probe\Target\Communication\Generic\Source/probe_com.c ****                                                CPU_SIZE_T       rx_pkt_size,
 263:..\..\..\..\..\..\uC-Probe\Target\Communication\Generic\Source/probe_com.c ****                                                CPU_SIZE_T       tx_buf_size);
 264:..\..\..\..\..\..\uC-Probe\Target\Communication\Generic\Source/probe_com.c **** 
 265:..\..\..\..\..\..\uC-Probe\Target\Communication\Generic\Source/probe_com.c **** static  CPU_SIZE_T   ProbeCom_ReqTerminalIn   (CPU_INT08U      *prx_buf,
 266:..\..\..\..\..\..\uC-Probe\Target\Communication\Generic\Source/probe_com.c ****                                                CPU_INT08U      *ptx_buf,
 267:..\..\..\..\..\..\uC-Probe\Target\Communication\Generic\Source/probe_com.c ****                                                CPU_SIZE_T       rx_pkt_size,
 268:..\..\..\..\..\..\uC-Probe\Target\Communication\Generic\Source/probe_com.c ****                                                CPU_SIZE_T       tx_buf_size);
 269:..\..\..\..\..\..\uC-Probe\Target\Communication\Generic\Source/probe_com.c **** 
 270:..\..\..\..\..\..\uC-Probe\Target\Communication\Generic\Source/probe_com.c **** static  CPU_SIZE_T   ProbeCom_ReqTerminalOut  (CPU_INT08U      *prx_buf,
 271:..\..\..\..\..\..\uC-Probe\Target\Communication\Generic\Source/probe_com.c ****                                                CPU_INT08U      *ptx_buf,
 272:..\..\..\..\..\..\uC-Probe\Target\Communication\Generic\Source/probe_com.c ****                                                CPU_SIZE_T       rx_pkt_size,
 273:..\..\..\..\..\..\uC-Probe\Target\Communication\Generic\Source/probe_com.c ****                                                CPU_SIZE_T       tx_buf_size);
 274:..\..\..\..\..\..\uC-Probe\Target\Communication\Generic\Source/probe_com.c **** #endif
 275:..\..\..\..\..\..\uC-Probe\Target\Communication\Generic\Source/probe_com.c **** 
 276:..\..\..\..\..\..\uC-Probe\Target\Communication\Generic\Source/probe_com.c ****                                                                 /* ------------------- DYNAMIC BUFF
 277:..\..\..\..\..\..\uC-Probe\Target\Communication\Generic\Source/probe_com.c **** #if (PROBE_COM_CFG_STR_REQ_EN == DEF_TRUE)
 278:..\..\..\..\..\..\uC-Probe\Target\Communication\Generic\Source/probe_com.c **** static  void         ProbeCom_BufInit         (PROBE_COM_BUF   *pbuf,
 279:..\..\..\..\..\..\uC-Probe\Target\Communication\Generic\Source/probe_com.c ****                                                CPU_INT08U      *pdata,
 280:..\..\..\..\..\..\uC-Probe\Target\Communication\Generic\Source/probe_com.c ****                                                CPU_SIZE_T       len);
 281:..\..\..\..\..\..\uC-Probe\Target\Communication\Generic\Source/probe_com.c **** 
 282:..\..\..\..\..\..\uC-Probe\Target\Communication\Generic\Source/probe_com.c **** static  CPU_SIZE_T   ProbeCom_BufRd           (PROBE_COM_BUF   *pbuf,
 283:..\..\..\..\..\..\uC-Probe\Target\Communication\Generic\Source/probe_com.c ****                                                CPU_INT08U      *pdest,
 284:..\..\..\..\..\..\uC-Probe\Target\Communication\Generic\Source/probe_com.c ****                                                CPU_SIZE_T       len)
 285:..\..\..\..\..\..\uC-Probe\Target\Communication\Generic\Source/probe_com.c **** ;
 286:..\..\..\..\..\..\uC-Probe\Target\Communication\Generic\Source/probe_com.c **** static  CPU_SIZE_T   ProbeCom_BufWr           (PROBE_COM_BUF   *pbuf,
 287:..\..\..\..\..\..\uC-Probe\Target\Communication\Generic\Source/probe_com.c ****                                                CPU_INT08U      *psrc,
 288:..\..\..\..\..\..\uC-Probe\Target\Communication\Generic\Source/probe_com.c ****                                                CPU_SIZE_T       len);
 289:..\..\..\..\..\..\uC-Probe\Target\Communication\Generic\Source/probe_com.c **** 
 290:..\..\..\..\..\..\uC-Probe\Target\Communication\Generic\Source/probe_com.c **** static  CPU_BOOLEAN  ProbeCom_BufIsEmpty      (PROBE_COM_BUF   *pbuf);
 291:..\..\..\..\..\..\uC-Probe\Target\Communication\Generic\Source/probe_com.c **** #endif
 292:..\..\..\..\..\..\uC-Probe\Target\Communication\Generic\Source/probe_com.c **** 
 293:..\..\..\..\..\..\uC-Probe\Target\Communication\Generic\Source/probe_com.c **** #if 0
 294:..\..\..\..\..\..\uC-Probe\Target\Communication\Generic\Source/probe_com.c **** static  CPU_BOOLEAN  ProbeCom_BufIsFull       (PROBE_COM_BUF   *pbuf);
 295:..\..\..\..\..\..\uC-Probe\Target\Communication\Generic\Source/probe_com.c **** #endif
 296:..\..\..\..\..\..\uC-Probe\Target\Communication\Generic\Source/probe_com.c **** 
ARM GAS  C:\Users\daniel01\AppData\Local\Temp\ccHLFCB6.s 			page 7


 297:..\..\..\..\..\..\uC-Probe\Target\Communication\Generic\Source/probe_com.c ****                                                                 /* ------------------- STATIC BUFFE
 298:..\..\..\..\..\..\uC-Probe\Target\Communication\Generic\Source/probe_com.c **** static  CPU_INT08U   ProbeCom_GetINT08U       (CPU_INT08U     **pbuf);
 299:..\..\..\..\..\..\uC-Probe\Target\Communication\Generic\Source/probe_com.c **** 
 300:..\..\..\..\..\..\uC-Probe\Target\Communication\Generic\Source/probe_com.c **** static  CPU_INT16U   ProbeCom_GetINT16U       (CPU_INT08U     **pbuf);
 301:..\..\..\..\..\..\uC-Probe\Target\Communication\Generic\Source/probe_com.c **** 
 302:..\..\..\..\..\..\uC-Probe\Target\Communication\Generic\Source/probe_com.c **** static  CPU_INT32U   ProbeCom_GetINT32U       (CPU_INT08U     **pbuf);
 303:..\..\..\..\..\..\uC-Probe\Target\Communication\Generic\Source/probe_com.c **** 
 304:..\..\..\..\..\..\uC-Probe\Target\Communication\Generic\Source/probe_com.c **** static  void         ProbeCom_StoINT08U       (CPU_INT08U     **pbuf,
 305:..\..\..\..\..\..\uC-Probe\Target\Communication\Generic\Source/probe_com.c ****                                                CPU_INT08U       data);
 306:..\..\..\..\..\..\uC-Probe\Target\Communication\Generic\Source/probe_com.c **** 
 307:..\..\..\..\..\..\uC-Probe\Target\Communication\Generic\Source/probe_com.c **** static  void         ProbeCom_StoINT16U       (CPU_INT08U     **pbuf,
 308:..\..\..\..\..\..\uC-Probe\Target\Communication\Generic\Source/probe_com.c ****                                                CPU_INT16U       data);
 309:..\..\..\..\..\..\uC-Probe\Target\Communication\Generic\Source/probe_com.c **** 
 310:..\..\..\..\..\..\uC-Probe\Target\Communication\Generic\Source/probe_com.c **** #if 0
 311:..\..\..\..\..\..\uC-Probe\Target\Communication\Generic\Source/probe_com.c **** static  void         ProbeCom_StoINT32U       (CPU_INT08U     **pbuf,
 312:..\..\..\..\..\..\uC-Probe\Target\Communication\Generic\Source/probe_com.c ****                                                CPU_INT32U       data);
 313:..\..\..\..\..\..\uC-Probe\Target\Communication\Generic\Source/probe_com.c **** #endif
 314:..\..\..\..\..\..\uC-Probe\Target\Communication\Generic\Source/probe_com.c **** 
 315:..\..\..\..\..\..\uC-Probe\Target\Communication\Generic\Source/probe_com.c ****                                                                 /* -------------- DETERMINE PKT MOD
 316:..\..\..\..\..\..\uC-Probe\Target\Communication\Generic\Source/probe_com.c **** #if (PROBE_COM_CFG_STR_REQ_EN == DEF_ENABLED)
 317:..\..\..\..\..\..\uC-Probe\Target\Communication\Generic\Source/probe_com.c **** static  CPU_BOOLEAN  ProbeCom_StrOutAvail     (void);
 318:..\..\..\..\..\..\uC-Probe\Target\Communication\Generic\Source/probe_com.c **** #endif
 319:..\..\..\..\..\..\uC-Probe\Target\Communication\Generic\Source/probe_com.c **** 
 320:..\..\..\..\..\..\uC-Probe\Target\Communication\Generic\Source/probe_com.c **** 
 321:..\..\..\..\..\..\uC-Probe\Target\Communication\Generic\Source/probe_com.c **** #if (PROBE_COM_CFG_TERMINAL_REQ_EN == DEF_ENABLED)
 322:..\..\..\..\..\..\uC-Probe\Target\Communication\Generic\Source/probe_com.c **** static  CPU_BOOLEAN  ProbeCom_TerminalOutAvail(void);
 323:..\..\..\..\..\..\uC-Probe\Target\Communication\Generic\Source/probe_com.c **** 
 324:..\..\..\..\..\..\uC-Probe\Target\Communication\Generic\Source/probe_com.c **** static  CPU_BOOLEAN  ProbeCom_TerminalExecDone(void);
 325:..\..\..\..\..\..\uC-Probe\Target\Communication\Generic\Source/probe_com.c **** #endif
 326:..\..\..\..\..\..\uC-Probe\Target\Communication\Generic\Source/probe_com.c **** 
 327:..\..\..\..\..\..\uC-Probe\Target\Communication\Generic\Source/probe_com.c **** 
 328:..\..\..\..\..\..\uC-Probe\Target\Communication\Generic\Source/probe_com.c **** /*
 329:..\..\..\..\..\..\uC-Probe\Target\Communication\Generic\Source/probe_com.c **** ***************************************************************************************************
 330:..\..\..\..\..\..\uC-Probe\Target\Communication\Generic\Source/probe_com.c **** *                                     LOCAL CONFIGURATION ERRORS
 331:..\..\..\..\..\..\uC-Probe\Target\Communication\Generic\Source/probe_com.c **** ***************************************************************************************************
 332:..\..\..\..\..\..\uC-Probe\Target\Communication\Generic\Source/probe_com.c **** */
 333:..\..\..\..\..\..\uC-Probe\Target\Communication\Generic\Source/probe_com.c **** 
 334:..\..\..\..\..\..\uC-Probe\Target\Communication\Generic\Source/probe_com.c **** 
 335:..\..\..\..\..\..\uC-Probe\Target\Communication\Generic\Source/probe_com.c **** /*
 336:..\..\..\..\..\..\uC-Probe\Target\Communication\Generic\Source/probe_com.c **** ***************************************************************************************************
 337:..\..\..\..\..\..\uC-Probe\Target\Communication\Generic\Source/probe_com.c **** *                                           ProbeCom_Init()
 338:..\..\..\..\..\..\uC-Probe\Target\Communication\Generic\Source/probe_com.c **** *
 339:..\..\..\..\..\..\uC-Probe\Target\Communication\Generic\Source/probe_com.c **** * Description : Initialize the module.
 340:..\..\..\..\..\..\uC-Probe\Target\Communication\Generic\Source/probe_com.c **** *
 341:..\..\..\..\..\..\uC-Probe\Target\Communication\Generic\Source/probe_com.c **** * Argument(s) : none.
 342:..\..\..\..\..\..\uC-Probe\Target\Communication\Generic\Source/probe_com.c **** *
 343:..\..\..\..\..\..\uC-Probe\Target\Communication\Generic\Source/probe_com.c **** * Return(s)   : DEF_OK,   if initialization successful.
 344:..\..\..\..\..\..\uC-Probe\Target\Communication\Generic\Source/probe_com.c **** *               DEF_FAIL, otherwise.
 345:..\..\..\..\..\..\uC-Probe\Target\Communication\Generic\Source/probe_com.c **** *
 346:..\..\..\..\..\..\uC-Probe\Target\Communication\Generic\Source/probe_com.c **** * Caller(s)   : Application.
 347:..\..\..\..\..\..\uC-Probe\Target\Communication\Generic\Source/probe_com.c **** *
 348:..\..\..\..\..\..\uC-Probe\Target\Communication\Generic\Source/probe_com.c **** * Note(s)     : none.
 349:..\..\..\..\..\..\uC-Probe\Target\Communication\Generic\Source/probe_com.c **** ***************************************************************************************************
 350:..\..\..\..\..\..\uC-Probe\Target\Communication\Generic\Source/probe_com.c **** */
 351:..\..\..\..\..\..\uC-Probe\Target\Communication\Generic\Source/probe_com.c **** 
 352:..\..\..\..\..\..\uC-Probe\Target\Communication\Generic\Source/probe_com.c **** CPU_BOOLEAN  ProbeCom_Init (void)
 353:..\..\..\..\..\..\uC-Probe\Target\Communication\Generic\Source/probe_com.c **** {
ARM GAS  C:\Users\daniel01\AppData\Local\Temp\ccHLFCB6.s 			page 8


  43              		.loc 1 353 0
  44              		.cfi_startproc
  45              		@ args = 0, pretend = 0, frame = 0
  46              		@ frame_needed = 1, uses_anonymous_args = 0
  47              		@ link register save eliminated.
  48 0000 80B4     		push	{r7}
  49              	.LCFI0:
  50              		.cfi_def_cfa_offset 4
  51 0002 00AF     		add	r7, sp, #0
  52              		.cfi_offset 7, -4
  53              	.LCFI1:
  54              		.cfi_def_cfa_register 7
 354:..\..\..\..\..\..\uC-Probe\Target\Communication\Generic\Source/probe_com.c **** #if (PROBE_COM_CFG_TERMINAL_REQ_EN == DEF_ENABLED)
 355:..\..\..\..\..\..\uC-Probe\Target\Communication\Generic\Source/probe_com.c ****     CPU_BOOLEAN  ok;
 356:..\..\..\..\..\..\uC-Probe\Target\Communication\Generic\Source/probe_com.c **** #endif
 357:..\..\..\..\..\..\uC-Probe\Target\Communication\Generic\Source/probe_com.c **** 
 358:..\..\..\..\..\..\uC-Probe\Target\Communication\Generic\Source/probe_com.c **** 
 359:..\..\..\..\..\..\uC-Probe\Target\Communication\Generic\Source/probe_com.c **** #if (PROBE_COM_CFG_STR_REQ_EN      == DEF_ENABLED)
 360:..\..\..\..\..\..\uC-Probe\Target\Communication\Generic\Source/probe_com.c ****     Mem_Clr((void     *)&ProbeCom_StrInBufData[0],
 361:..\..\..\..\..\..\uC-Probe\Target\Communication\Generic\Source/probe_com.c ****             (CPU_SIZE_T) PROBE_COM_CFG_STR_IN_BUF_SIZE);
 362:..\..\..\..\..\..\uC-Probe\Target\Communication\Generic\Source/probe_com.c **** 
 363:..\..\..\..\..\..\uC-Probe\Target\Communication\Generic\Source/probe_com.c ****     ProbeCom_BufInit((PROBE_COM_BUF *)&ProbeCom_StrInBuf,
 364:..\..\..\..\..\..\uC-Probe\Target\Communication\Generic\Source/probe_com.c ****                      (CPU_INT08U    *)&ProbeCom_StrInBufData[0],
 365:..\..\..\..\..\..\uC-Probe\Target\Communication\Generic\Source/probe_com.c ****                      (CPU_SIZE_T     ) PROBE_COM_CFG_STR_IN_BUF_SIZE);
 366:..\..\..\..\..\..\uC-Probe\Target\Communication\Generic\Source/probe_com.c **** 
 367:..\..\..\..\..\..\uC-Probe\Target\Communication\Generic\Source/probe_com.c ****     Mem_Clr((void     *)&ProbeCom_StrOutBufData[0],
 368:..\..\..\..\..\..\uC-Probe\Target\Communication\Generic\Source/probe_com.c ****             (CPU_SIZE_T) PROBE_COM_CFG_STR_OUT_BUF_SIZE);
 369:..\..\..\..\..\..\uC-Probe\Target\Communication\Generic\Source/probe_com.c **** 
 370:..\..\..\..\..\..\uC-Probe\Target\Communication\Generic\Source/probe_com.c ****     ProbeCom_BufInit((PROBE_COM_BUF *)&ProbeCom_StrOutBuf,
 371:..\..\..\..\..\..\uC-Probe\Target\Communication\Generic\Source/probe_com.c ****                      (CPU_INT08U    *)&ProbeCom_StrOutBufData[0],
 372:..\..\..\..\..\..\uC-Probe\Target\Communication\Generic\Source/probe_com.c ****                      (CPU_SIZE_T     ) PROBE_COM_CFG_STR_OUT_BUF_SIZE);
 373:..\..\..\..\..\..\uC-Probe\Target\Communication\Generic\Source/probe_com.c **** #endif
 374:..\..\..\..\..\..\uC-Probe\Target\Communication\Generic\Source/probe_com.c **** 
 375:..\..\..\..\..\..\uC-Probe\Target\Communication\Generic\Source/probe_com.c **** 
 376:..\..\..\..\..\..\uC-Probe\Target\Communication\Generic\Source/probe_com.c **** #if (PROBE_COM_CFG_TERMINAL_REQ_EN == DEF_ENABLED)
 377:..\..\..\..\..\..\uC-Probe\Target\Communication\Generic\Source/probe_com.c ****     ProbeCom_TerminalExecHandler   = (void        *)0;
 378:..\..\..\..\..\..\uC-Probe\Target\Communication\Generic\Source/probe_com.c ****     ProbeCom_TerminalExecuting     = (CPU_BOOLEAN  )DEF_NO;
 379:..\..\..\..\..\..\uC-Probe\Target\Communication\Generic\Source/probe_com.c **** 
 380:..\..\..\..\..\..\uC-Probe\Target\Communication\Generic\Source/probe_com.c ****     ProbeCom_TerminalInHandler     = (void        *)0;
 381:..\..\..\..\..\..\uC-Probe\Target\Communication\Generic\Source/probe_com.c **** 
 382:..\..\..\..\..\..\uC-Probe\Target\Communication\Generic\Source/probe_com.c ****     ProbeCom_TerminalOutBufPtr     = (CPU_INT08U  *)0;
 383:..\..\..\..\..\..\uC-Probe\Target\Communication\Generic\Source/probe_com.c ****     ProbeCom_TerminalOutBufIx      = (CPU_SIZE_T   )0;
 384:..\..\..\..\..\..\uC-Probe\Target\Communication\Generic\Source/probe_com.c ****     ProbeCom_TerminalOutBufLen     = (CPU_SIZE_T   )0;
 385:..\..\..\..\..\..\uC-Probe\Target\Communication\Generic\Source/probe_com.c **** 
 386:..\..\..\..\..\..\uC-Probe\Target\Communication\Generic\Source/probe_com.c ****     ok = ProbeCom_OS_Init();
 387:..\..\..\..\..\..\uC-Probe\Target\Communication\Generic\Source/probe_com.c **** 
 388:..\..\..\..\..\..\uC-Probe\Target\Communication\Generic\Source/probe_com.c ****     if (ok == DEF_FAIL) {
 389:..\..\..\..\..\..\uC-Probe\Target\Communication\Generic\Source/probe_com.c ****         return (DEF_FAIL);
 390:..\..\..\..\..\..\uC-Probe\Target\Communication\Generic\Source/probe_com.c ****     }
 391:..\..\..\..\..\..\uC-Probe\Target\Communication\Generic\Source/probe_com.c **** #endif
 392:..\..\..\..\..\..\uC-Probe\Target\Communication\Generic\Source/probe_com.c **** 
 393:..\..\..\..\..\..\uC-Probe\Target\Communication\Generic\Source/probe_com.c **** 
 394:..\..\..\..\..\..\uC-Probe\Target\Communication\Generic\Source/probe_com.c **** #if (PROBE_COM_CFG_STAT_EN         == DEF_ENABLED)
 395:..\..\..\..\..\..\uC-Probe\Target\Communication\Generic\Source/probe_com.c ****     ProbeCom_RxPktCtr              =  0u;
  55              		.loc 1 395 0
  56 0004 40F20003 		movw	r3, #:lower16:ProbeCom_RxPktCtr
  57 0008 C0F20003 		movt	r3, #:upper16:ProbeCom_RxPktCtr
ARM GAS  C:\Users\daniel01\AppData\Local\Temp\ccHLFCB6.s 			page 9


  58 000c 4FF00002 		mov	r2, #0
  59 0010 1A60     		str	r2, [r3, #0]
 396:..\..\..\..\..\..\uC-Probe\Target\Communication\Generic\Source/probe_com.c ****     ProbeCom_TxPktCtr              =  0u;
  60              		.loc 1 396 0
  61 0012 40F20003 		movw	r3, #:lower16:ProbeCom_TxPktCtr
  62 0016 C0F20003 		movt	r3, #:upper16:ProbeCom_TxPktCtr
  63 001a 4FF00002 		mov	r2, #0
  64 001e 1A60     		str	r2, [r3, #0]
 397:..\..\..\..\..\..\uC-Probe\Target\Communication\Generic\Source/probe_com.c **** 
 398:..\..\..\..\..\..\uC-Probe\Target\Communication\Generic\Source/probe_com.c ****     ProbeCom_TxSymCtr              =  0u;
  65              		.loc 1 398 0
  66 0020 40F20003 		movw	r3, #:lower16:ProbeCom_TxSymCtr
  67 0024 C0F20003 		movt	r3, #:upper16:ProbeCom_TxSymCtr
  68 0028 4FF00002 		mov	r2, #0
  69 002c 1A60     		str	r2, [r3, #0]
 399:..\..\..\..\..\..\uC-Probe\Target\Communication\Generic\Source/probe_com.c ****     ProbeCom_TxSymByteCtr          =  0u;
  70              		.loc 1 399 0
  71 002e 40F20003 		movw	r3, #:lower16:ProbeCom_TxSymByteCtr
  72 0032 C0F20003 		movt	r3, #:upper16:ProbeCom_TxSymByteCtr
  73 0036 4FF00002 		mov	r2, #0
  74 003a 1A60     		str	r2, [r3, #0]
 400:..\..\..\..\..\..\uC-Probe\Target\Communication\Generic\Source/probe_com.c ****     ProbeCom_ErrPktCtr             =  0u;
  75              		.loc 1 400 0
  76 003c 40F20003 		movw	r3, #:lower16:ProbeCom_ErrPktCtr
  77 0040 C0F20003 		movt	r3, #:upper16:ProbeCom_ErrPktCtr
  78 0044 4FF00002 		mov	r2, #0
  79 0048 1A60     		str	r2, [r3, #0]
 401:..\..\..\..\..\..\uC-Probe\Target\Communication\Generic\Source/probe_com.c **** 
 402:..\..\..\..\..\..\uC-Probe\Target\Communication\Generic\Source/probe_com.c **** #if (PROBE_COM_CFG_STR_REQ_EN      == DEF_ENABLED)
 403:..\..\..\..\..\..\uC-Probe\Target\Communication\Generic\Source/probe_com.c ****     ProbeCom_StrRxCtr              =  0u;
 404:..\..\..\..\..\..\uC-Probe\Target\Communication\Generic\Source/probe_com.c ****     ProbeCom_StrRxOvfErrCtr        =  0u;
 405:..\..\..\..\..\..\uC-Probe\Target\Communication\Generic\Source/probe_com.c **** 
 406:..\..\..\..\..\..\uC-Probe\Target\Communication\Generic\Source/probe_com.c ****     ProbeCom_StrTxCtr              =  0u;
 407:..\..\..\..\..\..\uC-Probe\Target\Communication\Generic\Source/probe_com.c ****     ProbeCom_StrTxOvfErrCtr        =  0u;
 408:..\..\..\..\..\..\uC-Probe\Target\Communication\Generic\Source/probe_com.c **** #endif
 409:..\..\..\..\..\..\uC-Probe\Target\Communication\Generic\Source/probe_com.c **** 
 410:..\..\..\..\..\..\uC-Probe\Target\Communication\Generic\Source/probe_com.c **** #if (PROBE_COM_CFG_WR_REQ_EN       == DEF_ENABLED)
 411:..\..\..\..\..\..\uC-Probe\Target\Communication\Generic\Source/probe_com.c ****     ProbeCom_RxSymCtr              =  0u;
  80              		.loc 1 411 0
  81 004a 40F20003 		movw	r3, #:lower16:ProbeCom_RxSymCtr
  82 004e C0F20003 		movt	r3, #:upper16:ProbeCom_RxSymCtr
  83 0052 4FF00002 		mov	r2, #0
  84 0056 1A60     		str	r2, [r3, #0]
 412:..\..\..\..\..\..\uC-Probe\Target\Communication\Generic\Source/probe_com.c ****     ProbeCom_RxSymByteCtr          =  0u;
  85              		.loc 1 412 0
  86 0058 40F20003 		movw	r3, #:lower16:ProbeCom_RxSymByteCtr
  87 005c C0F20003 		movt	r3, #:upper16:ProbeCom_RxSymByteCtr
  88 0060 4FF00002 		mov	r2, #0
  89 0064 1A60     		str	r2, [r3, #0]
 413:..\..\..\..\..\..\uC-Probe\Target\Communication\Generic\Source/probe_com.c **** #endif
 414:..\..\..\..\..\..\uC-Probe\Target\Communication\Generic\Source/probe_com.c **** #endif
 415:..\..\..\..\..\..\uC-Probe\Target\Communication\Generic\Source/probe_com.c **** 
 416:..\..\..\..\..\..\uC-Probe\Target\Communication\Generic\Source/probe_com.c ****     ProbeCom_EndiannessTest        =  0x12345678uL;
  90              		.loc 1 416 0
  91 0066 40F20003 		movw	r3, #:lower16:ProbeCom_EndiannessTest
  92 006a C0F20003 		movt	r3, #:upper16:ProbeCom_EndiannessTest
  93 006e 45F27862 		movw	r2, #:lower16:305419896
ARM GAS  C:\Users\daniel01\AppData\Local\Temp\ccHLFCB6.s 			page 10


  94 0072 C1F23422 		movt	r2, #:upper16:305419896
  95 0076 1A60     		str	r2, [r3, #0]
 417:..\..\..\..\..\..\uC-Probe\Target\Communication\Generic\Source/probe_com.c **** 
 418:..\..\..\..\..\..\uC-Probe\Target\Communication\Generic\Source/probe_com.c ****     return (DEF_OK);
  96              		.loc 1 418 0
  97 0078 4FF00103 		mov	r3, #1
 419:..\..\..\..\..\..\uC-Probe\Target\Communication\Generic\Source/probe_com.c **** }
  98              		.loc 1 419 0
  99 007c 1846     		mov	r0, r3
 100 007e BD46     		mov	sp, r7
 101 0080 80BC     		pop	{r7}
 102 0082 7047     		bx	lr
 103              		.cfi_endproc
 104              	.LFE0:
 105              		.size	ProbeCom_Init, .-ProbeCom_Init
 106              		.section	.text.ProbeCom_ParseRxPkt,"ax",%progbits
 107              		.align	2
 108              		.global	ProbeCom_ParseRxPkt
 109              		.thumb
 110              		.thumb_func
 111              		.type	ProbeCom_ParseRxPkt, %function
 112              	ProbeCom_ParseRxPkt:
 113              	.LFB1:
 420:..\..\..\..\..\..\uC-Probe\Target\Communication\Generic\Source/probe_com.c **** 
 421:..\..\..\..\..\..\uC-Probe\Target\Communication\Generic\Source/probe_com.c **** 
 422:..\..\..\..\..\..\uC-Probe\Target\Communication\Generic\Source/probe_com.c **** /*
 423:..\..\..\..\..\..\uC-Probe\Target\Communication\Generic\Source/probe_com.c **** ***************************************************************************************************
 424:..\..\..\..\..\..\uC-Probe\Target\Communication\Generic\Source/probe_com.c **** *                                          ProbeCom_StrRd()
 425:..\..\..\..\..\..\uC-Probe\Target\Communication\Generic\Source/probe_com.c **** *
 426:..\..\..\..\..\..\uC-Probe\Target\Communication\Generic\Source/probe_com.c **** * Description : Read input data.
 427:..\..\..\..\..\..\uC-Probe\Target\Communication\Generic\Source/probe_com.c **** *
 428:..\..\..\..\..\..\uC-Probe\Target\Communication\Generic\Source/probe_com.c **** * Argument(s) : pdest       Pointer to the destination buffer.
 429:..\..\..\..\..\..\uC-Probe\Target\Communication\Generic\Source/probe_com.c **** *
 430:..\..\..\..\..\..\uC-Probe\Target\Communication\Generic\Source/probe_com.c **** *               len         Length of the destination buffer, in octets/characters.
 431:..\..\..\..\..\..\uC-Probe\Target\Communication\Generic\Source/probe_com.c **** *
 432:..\..\..\..\..\..\uC-Probe\Target\Communication\Generic\Source/probe_com.c **** * Return(s)   : Number of octets/characters read.
 433:..\..\..\..\..\..\uC-Probe\Target\Communication\Generic\Source/probe_com.c **** *
 434:..\..\..\..\..\..\uC-Probe\Target\Communication\Generic\Source/probe_com.c **** * Caller(s)   : Application.
 435:..\..\..\..\..\..\uC-Probe\Target\Communication\Generic\Source/probe_com.c **** *
 436:..\..\..\..\..\..\uC-Probe\Target\Communication\Generic\Source/probe_com.c **** * Note(s)     : (1) This function implements a non-blocking read.  It will read as much data as fit
 437:..\..\..\..\..\..\uC-Probe\Target\Communication\Generic\Source/probe_com.c **** *                   into the buffer, up to 'len' bytes/characters.  The calling application should
 438:..\..\..\..\..\..\uC-Probe\Target\Communication\Generic\Source/probe_com.c **** *                   monitor the return value to see if more data needs to be read.
 439:..\..\..\..\..\..\uC-Probe\Target\Communication\Generic\Source/probe_com.c **** *
 440:..\..\..\..\..\..\uC-Probe\Target\Communication\Generic\Source/probe_com.c **** *               (2) Since this function never blocks, it should not be called in a tight loop witho
 441:..\..\..\..\..\..\uC-Probe\Target\Communication\Generic\Source/probe_com.c **** *                   delay.
 442:..\..\..\..\..\..\uC-Probe\Target\Communication\Generic\Source/probe_com.c **** *
 443:..\..\..\..\..\..\uC-Probe\Target\Communication\Generic\Source/probe_com.c **** *               (3) This function MAY be called from an ISR.
 444:..\..\..\..\..\..\uC-Probe\Target\Communication\Generic\Source/probe_com.c **** ***************************************************************************************************
 445:..\..\..\..\..\..\uC-Probe\Target\Communication\Generic\Source/probe_com.c **** */
 446:..\..\..\..\..\..\uC-Probe\Target\Communication\Generic\Source/probe_com.c **** 
 447:..\..\..\..\..\..\uC-Probe\Target\Communication\Generic\Source/probe_com.c **** #if (PROBE_COM_CFG_STR_REQ_EN == DEF_ENABLED)
 448:..\..\..\..\..\..\uC-Probe\Target\Communication\Generic\Source/probe_com.c **** CPU_SIZE_T  ProbeCom_StrRd (CPU_CHAR    *pdest,
 449:..\..\..\..\..\..\uC-Probe\Target\Communication\Generic\Source/probe_com.c ****                             CPU_SIZE_T   len)
 450:..\..\..\..\..\..\uC-Probe\Target\Communication\Generic\Source/probe_com.c **** {
 451:..\..\..\..\..\..\uC-Probe\Target\Communication\Generic\Source/probe_com.c ****     CPU_SIZE_T  len_rd;
 452:..\..\..\..\..\..\uC-Probe\Target\Communication\Generic\Source/probe_com.c **** 
 453:..\..\..\..\..\..\uC-Probe\Target\Communication\Generic\Source/probe_com.c **** 
ARM GAS  C:\Users\daniel01\AppData\Local\Temp\ccHLFCB6.s 			page 11


 454:..\..\..\..\..\..\uC-Probe\Target\Communication\Generic\Source/probe_com.c ****     len_rd = ProbeCom_BufRd((PROBE_COM_BUF *)&ProbeCom_StrInBuf,
 455:..\..\..\..\..\..\uC-Probe\Target\Communication\Generic\Source/probe_com.c ****                             (CPU_INT08U    *) pdest,
 456:..\..\..\..\..\..\uC-Probe\Target\Communication\Generic\Source/probe_com.c ****                             (CPU_SIZE_T     ) len);
 457:..\..\..\..\..\..\uC-Probe\Target\Communication\Generic\Source/probe_com.c **** 
 458:..\..\..\..\..\..\uC-Probe\Target\Communication\Generic\Source/probe_com.c ****     return (len_rd);
 459:..\..\..\..\..\..\uC-Probe\Target\Communication\Generic\Source/probe_com.c **** }
 460:..\..\..\..\..\..\uC-Probe\Target\Communication\Generic\Source/probe_com.c **** #endif
 461:..\..\..\..\..\..\uC-Probe\Target\Communication\Generic\Source/probe_com.c **** 
 462:..\..\..\..\..\..\uC-Probe\Target\Communication\Generic\Source/probe_com.c **** 
 463:..\..\..\..\..\..\uC-Probe\Target\Communication\Generic\Source/probe_com.c **** /*
 464:..\..\..\..\..\..\uC-Probe\Target\Communication\Generic\Source/probe_com.c **** ***************************************************************************************************
 465:..\..\..\..\..\..\uC-Probe\Target\Communication\Generic\Source/probe_com.c **** *                                          ProbeCom_StrWr()
 466:..\..\..\..\..\..\uC-Probe\Target\Communication\Generic\Source/probe_com.c **** *
 467:..\..\..\..\..\..\uC-Probe\Target\Communication\Generic\Source/probe_com.c **** * Description : Write or buffer data for output.
 468:..\..\..\..\..\..\uC-Probe\Target\Communication\Generic\Source/probe_com.c **** *
 469:..\..\..\..\..\..\uC-Probe\Target\Communication\Generic\Source/probe_com.c **** * Argument(s) : psrc        Pointer to the source buffer.
 470:..\..\..\..\..\..\uC-Probe\Target\Communication\Generic\Source/probe_com.c **** *
 471:..\..\..\..\..\..\uC-Probe\Target\Communication\Generic\Source/probe_com.c **** *               len         Length of the source buffer, in octets/characters.
 472:..\..\..\..\..\..\uC-Probe\Target\Communication\Generic\Source/probe_com.c **** *
 473:..\..\..\..\..\..\uC-Probe\Target\Communication\Generic\Source/probe_com.c **** * Return(s)   : Number of octets/characters written or buffered.
 474:..\..\..\..\..\..\uC-Probe\Target\Communication\Generic\Source/probe_com.c **** *
 475:..\..\..\..\..\..\uC-Probe\Target\Communication\Generic\Source/probe_com.c **** * Caller(s)   : Application.
 476:..\..\..\..\..\..\uC-Probe\Target\Communication\Generic\Source/probe_com.c **** *
 477:..\..\..\..\..\..\uC-Probe\Target\Communication\Generic\Source/probe_com.c **** * Note(s)     : (1) This function implements a non-blocking write.  It will write as much data as f
 478:..\..\..\..\..\..\uC-Probe\Target\Communication\Generic\Source/probe_com.c **** *                   into the buffer, up to 'len' bytes/characters.  The calling application should
 479:..\..\..\..\..\..\uC-Probe\Target\Communication\Generic\Source/probe_com.c **** *                   monitor the return value to see if more data from the buffer needs to be writte
 480:..\..\..\..\..\..\uC-Probe\Target\Communication\Generic\Source/probe_com.c **** *
 481:..\..\..\..\..\..\uC-Probe\Target\Communication\Generic\Source/probe_com.c **** *               (2) Since this function never blocks, it should not be called in a tight loop witho
 482:..\..\..\..\..\..\uC-Probe\Target\Communication\Generic\Source/probe_com.c **** *                   delay.
 483:..\..\..\..\..\..\uC-Probe\Target\Communication\Generic\Source/probe_com.c **** *
 484:..\..\..\..\..\..\uC-Probe\Target\Communication\Generic\Source/probe_com.c **** *               (3) This function MAY be called from an ISR.
 485:..\..\..\..\..\..\uC-Probe\Target\Communication\Generic\Source/probe_com.c **** ***************************************************************************************************
 486:..\..\..\..\..\..\uC-Probe\Target\Communication\Generic\Source/probe_com.c **** */
 487:..\..\..\..\..\..\uC-Probe\Target\Communication\Generic\Source/probe_com.c **** 
 488:..\..\..\..\..\..\uC-Probe\Target\Communication\Generic\Source/probe_com.c **** #if (PROBE_COM_CFG_STR_REQ_EN == DEF_ENABLED)
 489:..\..\..\..\..\..\uC-Probe\Target\Communication\Generic\Source/probe_com.c **** CPU_SIZE_T  ProbeCom_StrWr (CPU_CHAR    *psrc,
 490:..\..\..\..\..\..\uC-Probe\Target\Communication\Generic\Source/probe_com.c ****                             CPU_SIZE_T   len)
 491:..\..\..\..\..\..\uC-Probe\Target\Communication\Generic\Source/probe_com.c **** {
 492:..\..\..\..\..\..\uC-Probe\Target\Communication\Generic\Source/probe_com.c ****     CPU_SIZE_T  len_wr;
 493:..\..\..\..\..\..\uC-Probe\Target\Communication\Generic\Source/probe_com.c **** 
 494:..\..\..\..\..\..\uC-Probe\Target\Communication\Generic\Source/probe_com.c **** 
 495:..\..\..\..\..\..\uC-Probe\Target\Communication\Generic\Source/probe_com.c ****     len_wr = ProbeCom_BufWr((PROBE_COM_BUF *)&ProbeCom_StrOutBuf,
 496:..\..\..\..\..\..\uC-Probe\Target\Communication\Generic\Source/probe_com.c ****                             (CPU_INT08U    *) psrc,
 497:..\..\..\..\..\..\uC-Probe\Target\Communication\Generic\Source/probe_com.c ****                             (CPU_SIZE_T     ) len);
 498:..\..\..\..\..\..\uC-Probe\Target\Communication\Generic\Source/probe_com.c **** 
 499:..\..\..\..\..\..\uC-Probe\Target\Communication\Generic\Source/probe_com.c **** #if (PROBE_COM_CFG_STAT_EN == DEF_ENABLED)
 500:..\..\..\..\..\..\uC-Probe\Target\Communication\Generic\Source/probe_com.c ****     if (len_wr < len) {
 501:..\..\..\..\..\..\uC-Probe\Target\Communication\Generic\Source/probe_com.c ****         ProbeCom_StrTxOvfErrCtr++;
 502:..\..\..\..\..\..\uC-Probe\Target\Communication\Generic\Source/probe_com.c ****     }
 503:..\..\..\..\..\..\uC-Probe\Target\Communication\Generic\Source/probe_com.c **** #endif
 504:..\..\..\..\..\..\uC-Probe\Target\Communication\Generic\Source/probe_com.c **** 
 505:..\..\..\..\..\..\uC-Probe\Target\Communication\Generic\Source/probe_com.c ****     return (len_wr);
 506:..\..\..\..\..\..\uC-Probe\Target\Communication\Generic\Source/probe_com.c **** }
 507:..\..\..\..\..\..\uC-Probe\Target\Communication\Generic\Source/probe_com.c **** #endif
 508:..\..\..\..\..\..\uC-Probe\Target\Communication\Generic\Source/probe_com.c **** 
 509:..\..\..\..\..\..\uC-Probe\Target\Communication\Generic\Source/probe_com.c **** 
 510:..\..\..\..\..\..\uC-Probe\Target\Communication\Generic\Source/probe_com.c **** /*
ARM GAS  C:\Users\daniel01\AppData\Local\Temp\ccHLFCB6.s 			page 12


 511:..\..\..\..\..\..\uC-Probe\Target\Communication\Generic\Source/probe_com.c **** ***************************************************************************************************
 512:..\..\..\..\..\..\uC-Probe\Target\Communication\Generic\Source/probe_com.c **** *                                       ProbeCom_TerminalOut()
 513:..\..\..\..\..\..\uC-Probe\Target\Communication\Generic\Source/probe_com.c **** *
 514:..\..\..\..\..\..\uC-Probe\Target\Communication\Generic\Source/probe_com.c **** * Description : Output data over terminal.
 515:..\..\..\..\..\..\uC-Probe\Target\Communication\Generic\Source/probe_com.c **** *
 516:..\..\..\..\..\..\uC-Probe\Target\Communication\Generic\Source/probe_com.c **** * Argument(s) : psrc        Pointer to the source buffer.
 517:..\..\..\..\..\..\uC-Probe\Target\Communication\Generic\Source/probe_com.c **** *
 518:..\..\..\..\..\..\uC-Probe\Target\Communication\Generic\Source/probe_com.c **** *               len         Length of source buffer, in octets/characters.
 519:..\..\..\..\..\..\uC-Probe\Target\Communication\Generic\Source/probe_com.c **** *
 520:..\..\..\..\..\..\uC-Probe\Target\Communication\Generic\Source/probe_com.c **** * Return(s)   : Number of octets/characters output.
 521:..\..\..\..\..\..\uC-Probe\Target\Communication\Generic\Source/probe_com.c **** *
 522:..\..\..\..\..\..\uC-Probe\Target\Communication\Generic\Source/probe_com.c **** * Caller(s)   : Application.
 523:..\..\..\..\..\..\uC-Probe\Target\Communication\Generic\Source/probe_com.c **** *
 524:..\..\..\..\..\..\uC-Probe\Target\Communication\Generic\Source/probe_com.c **** * Note(s)     : (1) This function implements a blocking write.  It will queue the request and wait 
 525:..\..\..\..\..\..\uC-Probe\Target\Communication\Generic\Source/probe_com.c **** *                   all of the data has been buffered or transmitted before returning.
 526:..\..\..\..\..\..\uC-Probe\Target\Communication\Generic\Source/probe_com.c **** *
 527:..\..\..\..\..\..\uC-Probe\Target\Communication\Generic\Source/probe_com.c **** *               (2) Terminal data may ONLY be output while a command is being executed.
 528:..\..\..\..\..\..\uC-Probe\Target\Communication\Generic\Source/probe_com.c **** *
 529:..\..\..\..\..\..\uC-Probe\Target\Communication\Generic\Source/probe_com.c **** *                   (a) Generic read/write functionality is provided by the string read/write funct
 530:..\..\..\..\..\..\uC-Probe\Target\Communication\Generic\Source/probe_com.c **** *                       (see 'ProbeCom_StrRd()', 'ProbeCom_StrWr()').
 531:..\..\..\..\..\..\uC-Probe\Target\Communication\Generic\Source/probe_com.c **** *
 532:..\..\..\..\..\..\uC-Probe\Target\Communication\Generic\Source/probe_com.c **** *               (3) This function MUST NOT be called from an ISR.
 533:..\..\..\..\..\..\uC-Probe\Target\Communication\Generic\Source/probe_com.c **** ***************************************************************************************************
 534:..\..\..\..\..\..\uC-Probe\Target\Communication\Generic\Source/probe_com.c **** */
 535:..\..\..\..\..\..\uC-Probe\Target\Communication\Generic\Source/probe_com.c **** 
 536:..\..\..\..\..\..\uC-Probe\Target\Communication\Generic\Source/probe_com.c **** #if (PROBE_COM_CFG_TERMINAL_REQ_EN == DEF_ENABLED)
 537:..\..\..\..\..\..\uC-Probe\Target\Communication\Generic\Source/probe_com.c **** CPU_SIZE_T  ProbeCom_TerminalOut (CPU_CHAR    *psrc,
 538:..\..\..\..\..\..\uC-Probe\Target\Communication\Generic\Source/probe_com.c ****                                   CPU_SIZE_T   len)
 539:..\..\..\..\..\..\uC-Probe\Target\Communication\Generic\Source/probe_com.c **** {
 540:..\..\..\..\..\..\uC-Probe\Target\Communication\Generic\Source/probe_com.c ****     CPU_SR_ALLOC();
 541:..\..\..\..\..\..\uC-Probe\Target\Communication\Generic\Source/probe_com.c **** 
 542:..\..\..\..\..\..\uC-Probe\Target\Communication\Generic\Source/probe_com.c **** 
 543:..\..\..\..\..\..\uC-Probe\Target\Communication\Generic\Source/probe_com.c ****                                                                 /* ------------------- VALIDATE ARG
 544:..\..\..\..\..\..\uC-Probe\Target\Communication\Generic\Source/probe_com.c ****     if (psrc == (CPU_CHAR *)0) {                                /* Validate NULL ptr.              
 545:..\..\..\..\..\..\uC-Probe\Target\Communication\Generic\Source/probe_com.c ****         return ((CPU_SIZE_T)0);
 546:..\..\..\..\..\..\uC-Probe\Target\Communication\Generic\Source/probe_com.c ****     }
 547:..\..\..\..\..\..\uC-Probe\Target\Communication\Generic\Source/probe_com.c **** 
 548:..\..\..\..\..\..\uC-Probe\Target\Communication\Generic\Source/probe_com.c ****     if (len == 0u) {                                            /* Validate NULL len.              
 549:..\..\..\..\..\..\uC-Probe\Target\Communication\Generic\Source/probe_com.c ****         return ((CPU_SIZE_T)0);
 550:..\..\..\..\..\..\uC-Probe\Target\Communication\Generic\Source/probe_com.c ****     }
 551:..\..\..\..\..\..\uC-Probe\Target\Communication\Generic\Source/probe_com.c **** 
 552:..\..\..\..\..\..\uC-Probe\Target\Communication\Generic\Source/probe_com.c **** 
 553:..\..\..\..\..\..\uC-Probe\Target\Communication\Generic\Source/probe_com.c **** 
 554:..\..\..\..\..\..\uC-Probe\Target\Communication\Generic\Source/probe_com.c ****                                                                 /* ------------------- START OUTPUT
 555:..\..\..\..\..\..\uC-Probe\Target\Communication\Generic\Source/probe_com.c ****     CPU_CRITICAL_ENTER();
 556:..\..\..\..\..\..\uC-Probe\Target\Communication\Generic\Source/probe_com.c ****     if (ProbeCom_TerminalExecuting == DEF_NO) {                 /* Chk if cmd exec'ing.            
 557:..\..\..\..\..\..\uC-Probe\Target\Communication\Generic\Source/probe_com.c ****         CPU_CRITICAL_EXIT();
 558:..\..\..\..\..\..\uC-Probe\Target\Communication\Generic\Source/probe_com.c ****         return ((CPU_SIZE_T)0);
 559:..\..\..\..\..\..\uC-Probe\Target\Communication\Generic\Source/probe_com.c ****     }
 560:..\..\..\..\..\..\uC-Probe\Target\Communication\Generic\Source/probe_com.c **** 
 561:..\..\..\..\..\..\uC-Probe\Target\Communication\Generic\Source/probe_com.c ****     if (ProbeCom_TerminalOutBufPtr != (CPU_INT08U *)0) {        /* Chk if out in progress.         
 562:..\..\..\..\..\..\uC-Probe\Target\Communication\Generic\Source/probe_com.c ****         CPU_CRITICAL_EXIT();
 563:..\..\..\..\..\..\uC-Probe\Target\Communication\Generic\Source/probe_com.c ****         return ((CPU_SIZE_T)0);
 564:..\..\..\..\..\..\uC-Probe\Target\Communication\Generic\Source/probe_com.c ****     }
 565:..\..\..\..\..\..\uC-Probe\Target\Communication\Generic\Source/probe_com.c **** 
 566:..\..\..\..\..\..\uC-Probe\Target\Communication\Generic\Source/probe_com.c ****     ProbeCom_TerminalOutBufPtr = (CPU_INT08U *)psrc;            /* Schedule output.                
 567:..\..\..\..\..\..\uC-Probe\Target\Communication\Generic\Source/probe_com.c ****     ProbeCom_TerminalOutBufIx  = (CPU_SIZE_T  )0;
ARM GAS  C:\Users\daniel01\AppData\Local\Temp\ccHLFCB6.s 			page 13


 568:..\..\..\..\..\..\uC-Probe\Target\Communication\Generic\Source/probe_com.c ****     ProbeCom_TerminalOutBufLen = (CPU_SIZE_T  )len;
 569:..\..\..\..\..\..\uC-Probe\Target\Communication\Generic\Source/probe_com.c **** 
 570:..\..\..\..\..\..\uC-Probe\Target\Communication\Generic\Source/probe_com.c ****     ProbeCom_OS_TerminalOutWait();                              /* Wait for output completion.     
 571:..\..\..\..\..\..\uC-Probe\Target\Communication\Generic\Source/probe_com.c **** 
 572:..\..\..\..\..\..\uC-Probe\Target\Communication\Generic\Source/probe_com.c ****     ProbeCom_TerminalOutBufPtr = (CPU_INT08U *)0;
 573:..\..\..\..\..\..\uC-Probe\Target\Communication\Generic\Source/probe_com.c ****     ProbeCom_TerminalOutBufIx  = (CPU_SIZE_T  )0;
 574:..\..\..\..\..\..\uC-Probe\Target\Communication\Generic\Source/probe_com.c ****     ProbeCom_TerminalOutBufLen = (CPU_SIZE_T  )0;
 575:..\..\..\..\..\..\uC-Probe\Target\Communication\Generic\Source/probe_com.c ****     CPU_CRITICAL_EXIT();
 576:..\..\..\..\..\..\uC-Probe\Target\Communication\Generic\Source/probe_com.c **** 
 577:..\..\..\..\..\..\uC-Probe\Target\Communication\Generic\Source/probe_com.c **** 
 578:..\..\..\..\..\..\uC-Probe\Target\Communication\Generic\Source/probe_com.c **** 
 579:..\..\..\..\..\..\uC-Probe\Target\Communication\Generic\Source/probe_com.c ****                                                                 /* ----------------------- RTN ----
 580:..\..\..\..\..\..\uC-Probe\Target\Communication\Generic\Source/probe_com.c ****     return (len);
 581:..\..\..\..\..\..\uC-Probe\Target\Communication\Generic\Source/probe_com.c **** }
 582:..\..\..\..\..\..\uC-Probe\Target\Communication\Generic\Source/probe_com.c **** #endif
 583:..\..\..\..\..\..\uC-Probe\Target\Communication\Generic\Source/probe_com.c **** 
 584:..\..\..\..\..\..\uC-Probe\Target\Communication\Generic\Source/probe_com.c **** 
 585:..\..\..\..\..\..\uC-Probe\Target\Communication\Generic\Source/probe_com.c **** /*
 586:..\..\..\..\..\..\uC-Probe\Target\Communication\Generic\Source/probe_com.c **** ***************************************************************************************************
 587:..\..\..\..\..\..\uC-Probe\Target\Communication\Generic\Source/probe_com.c **** *                                   ProbeCom_TerminalExecComplete()
 588:..\..\..\..\..\..\uC-Probe\Target\Communication\Generic\Source/probe_com.c **** *
 589:..\..\..\..\..\..\uC-Probe\Target\Communication\Generic\Source/probe_com.c **** * Description : Signal completion of command execution.
 590:..\..\..\..\..\..\uC-Probe\Target\Communication\Generic\Source/probe_com.c **** *
 591:..\..\..\..\..\..\uC-Probe\Target\Communication\Generic\Source/probe_com.c **** * Argument(s) : none.
 592:..\..\..\..\..\..\uC-Probe\Target\Communication\Generic\Source/probe_com.c **** *
 593:..\..\..\..\..\..\uC-Probe\Target\Communication\Generic\Source/probe_com.c **** * Return(s)   : The number of bytes in the data segment of the packet to transmit in response.
 594:..\..\..\..\..\..\uC-Probe\Target\Communication\Generic\Source/probe_com.c **** *
 595:..\..\..\..\..\..\uC-Probe\Target\Communication\Generic\Source/probe_com.c **** * Caller(s)   : Application.
 596:..\..\..\..\..\..\uC-Probe\Target\Communication\Generic\Source/probe_com.c **** *
 597:..\..\..\..\..\..\uC-Probe\Target\Communication\Generic\Source/probe_com.c **** * Note(s)     : none.
 598:..\..\..\..\..\..\uC-Probe\Target\Communication\Generic\Source/probe_com.c **** ***************************************************************************************************
 599:..\..\..\..\..\..\uC-Probe\Target\Communication\Generic\Source/probe_com.c **** */
 600:..\..\..\..\..\..\uC-Probe\Target\Communication\Generic\Source/probe_com.c **** 
 601:..\..\..\..\..\..\uC-Probe\Target\Communication\Generic\Source/probe_com.c **** #if (PROBE_COM_CFG_TERMINAL_REQ_EN == DEF_ENABLED)
 602:..\..\..\..\..\..\uC-Probe\Target\Communication\Generic\Source/probe_com.c **** void  ProbeCom_TerminalExecComplete (void)
 603:..\..\..\..\..\..\uC-Probe\Target\Communication\Generic\Source/probe_com.c **** {
 604:..\..\..\..\..\..\uC-Probe\Target\Communication\Generic\Source/probe_com.c ****     CPU_BOOLEAN  executing;
 605:..\..\..\..\..\..\uC-Probe\Target\Communication\Generic\Source/probe_com.c ****     CPU_SR_ALLOC();
 606:..\..\..\..\..\..\uC-Probe\Target\Communication\Generic\Source/probe_com.c **** 
 607:..\..\..\..\..\..\uC-Probe\Target\Communication\Generic\Source/probe_com.c **** 
 608:..\..\..\..\..\..\uC-Probe\Target\Communication\Generic\Source/probe_com.c ****     CPU_CRITICAL_ENTER();
 609:..\..\..\..\..\..\uC-Probe\Target\Communication\Generic\Source/probe_com.c ****     executing = ProbeCom_TerminalExecuting;
 610:..\..\..\..\..\..\uC-Probe\Target\Communication\Generic\Source/probe_com.c ****     if (executing == DEF_YES) {
 611:..\..\..\..\..\..\uC-Probe\Target\Communication\Generic\Source/probe_com.c ****         ProbeCom_TerminalExecuting = DEF_NO;
 612:..\..\..\..\..\..\uC-Probe\Target\Communication\Generic\Source/probe_com.c ****     }
 613:..\..\..\..\..\..\uC-Probe\Target\Communication\Generic\Source/probe_com.c ****     CPU_CRITICAL_EXIT();
 614:..\..\..\..\..\..\uC-Probe\Target\Communication\Generic\Source/probe_com.c **** }
 615:..\..\..\..\..\..\uC-Probe\Target\Communication\Generic\Source/probe_com.c **** #endif
 616:..\..\..\..\..\..\uC-Probe\Target\Communication\Generic\Source/probe_com.c **** 
 617:..\..\..\..\..\..\uC-Probe\Target\Communication\Generic\Source/probe_com.c **** 
 618:..\..\..\..\..\..\uC-Probe\Target\Communication\Generic\Source/probe_com.c **** /*
 619:..\..\..\..\..\..\uC-Probe\Target\Communication\Generic\Source/probe_com.c **** ***************************************************************************************************
 620:..\..\..\..\..\..\uC-Probe\Target\Communication\Generic\Source/probe_com.c **** *                                     ProbeCom_TerminalExecSet()
 621:..\..\..\..\..\..\uC-Probe\Target\Communication\Generic\Source/probe_com.c **** *
 622:..\..\..\..\..\..\uC-Probe\Target\Communication\Generic\Source/probe_com.c **** * Description : Set the handler that will be invoked to process a terminal command.
 623:..\..\..\..\..\..\uC-Probe\Target\Communication\Generic\Source/probe_com.c **** *
 624:..\..\..\..\..\..\uC-Probe\Target\Communication\Generic\Source/probe_com.c **** * Argument(s) : handler         The handler that will be invoked.
ARM GAS  C:\Users\daniel01\AppData\Local\Temp\ccHLFCB6.s 			page 14


 625:..\..\..\..\..\..\uC-Probe\Target\Communication\Generic\Source/probe_com.c **** *
 626:..\..\..\..\..\..\uC-Probe\Target\Communication\Generic\Source/probe_com.c **** * Return(s)   : none.
 627:..\..\..\..\..\..\uC-Probe\Target\Communication\Generic\Source/probe_com.c **** *
 628:..\..\..\..\..\..\uC-Probe\Target\Communication\Generic\Source/probe_com.c **** * Caller(s)   : Application.
 629:..\..\..\..\..\..\uC-Probe\Target\Communication\Generic\Source/probe_com.c **** *
 630:..\..\..\..\..\..\uC-Probe\Target\Communication\Generic\Source/probe_com.c **** * Note(s)     : (1) The handler should be a function with the following prototype:
 631:..\..\..\..\..\..\uC-Probe\Target\Communication\Generic\Source/probe_com.c **** *
 632:..\..\..\..\..\..\uC-Probe\Target\Communication\Generic\Source/probe_com.c **** *                       void  App_TerminalExecFnct (CPU_CHAR    *pstr,
 633:..\..\..\..\..\..\uC-Probe\Target\Communication\Generic\Source/probe_com.c **** *                                                   CPU_SIZE_T   len);
 634:..\..\..\..\..\..\uC-Probe\Target\Communication\Generic\Source/probe_com.c **** *
 635:..\..\..\..\..\..\uC-Probe\Target\Communication\Generic\Source/probe_com.c **** *                   where 'pstr' is a pointer to the command string, and 'len' is the length of the
 636:..\..\..\..\..\..\uC-Probe\Target\Communication\Generic\Source/probe_com.c **** *                   command string (in characters) excluding the final NULL byte.  The command stri
 637:..\..\..\..\..\..\uC-Probe\Target\Communication\Generic\Source/probe_com.c **** *                   will NOT include a terminating new line or line feed.
 638:..\..\..\..\..\..\uC-Probe\Target\Communication\Generic\Source/probe_com.c **** ***************************************************************************************************
 639:..\..\..\..\..\..\uC-Probe\Target\Communication\Generic\Source/probe_com.c **** */
 640:..\..\..\..\..\..\uC-Probe\Target\Communication\Generic\Source/probe_com.c **** 
 641:..\..\..\..\..\..\uC-Probe\Target\Communication\Generic\Source/probe_com.c **** #if (PROBE_COM_CFG_TERMINAL_REQ_EN == DEF_ENABLED)
 642:..\..\..\..\..\..\uC-Probe\Target\Communication\Generic\Source/probe_com.c **** void  ProbeCom_TerminalExecSet (PROBE_COM_TERMINAL_EXEC_FNCT  handler)
 643:..\..\..\..\..\..\uC-Probe\Target\Communication\Generic\Source/probe_com.c **** {
 644:..\..\..\..\..\..\uC-Probe\Target\Communication\Generic\Source/probe_com.c ****     CPU_SR_ALLOC();
 645:..\..\..\..\..\..\uC-Probe\Target\Communication\Generic\Source/probe_com.c **** 
 646:..\..\..\..\..\..\uC-Probe\Target\Communication\Generic\Source/probe_com.c **** 
 647:..\..\..\..\..\..\uC-Probe\Target\Communication\Generic\Source/probe_com.c ****     CPU_CRITICAL_ENTER();
 648:..\..\..\..\..\..\uC-Probe\Target\Communication\Generic\Source/probe_com.c ****     ProbeCom_TerminalExecHandler = handler;
 649:..\..\..\..\..\..\uC-Probe\Target\Communication\Generic\Source/probe_com.c ****     CPU_CRITICAL_EXIT();
 650:..\..\..\..\..\..\uC-Probe\Target\Communication\Generic\Source/probe_com.c **** }
 651:..\..\..\..\..\..\uC-Probe\Target\Communication\Generic\Source/probe_com.c **** #endif
 652:..\..\..\..\..\..\uC-Probe\Target\Communication\Generic\Source/probe_com.c **** 
 653:..\..\..\..\..\..\uC-Probe\Target\Communication\Generic\Source/probe_com.c **** 
 654:..\..\..\..\..\..\uC-Probe\Target\Communication\Generic\Source/probe_com.c **** /*
 655:..\..\..\..\..\..\uC-Probe\Target\Communication\Generic\Source/probe_com.c **** ***************************************************************************************************
 656:..\..\..\..\..\..\uC-Probe\Target\Communication\Generic\Source/probe_com.c **** *                                      ProbeCom_TerminalInSet()
 657:..\..\..\..\..\..\uC-Probe\Target\Communication\Generic\Source/probe_com.c **** *
 658:..\..\..\..\..\..\uC-Probe\Target\Communication\Generic\Source/probe_com.c **** * Description : Set the handler that will be invoked to process terminal input.
 659:..\..\..\..\..\..\uC-Probe\Target\Communication\Generic\Source/probe_com.c **** *
 660:..\..\..\..\..\..\uC-Probe\Target\Communication\Generic\Source/probe_com.c **** * Argument(s) : handler         The handler that will be invoked.
 661:..\..\..\..\..\..\uC-Probe\Target\Communication\Generic\Source/probe_com.c **** *
 662:..\..\..\..\..\..\uC-Probe\Target\Communication\Generic\Source/probe_com.c **** * Return(s)   : none.
 663:..\..\..\..\..\..\uC-Probe\Target\Communication\Generic\Source/probe_com.c **** *
 664:..\..\..\..\..\..\uC-Probe\Target\Communication\Generic\Source/probe_com.c **** * Caller(s)   : Application.
 665:..\..\..\..\..\..\uC-Probe\Target\Communication\Generic\Source/probe_com.c **** *
 666:..\..\..\..\..\..\uC-Probe\Target\Communication\Generic\Source/probe_com.c **** * Note(s)     : (1) The handler should be a function with the following prototype:
 667:..\..\..\..\..\..\uC-Probe\Target\Communication\Generic\Source/probe_com.c **** *
 668:..\..\..\..\..\..\uC-Probe\Target\Communication\Generic\Source/probe_com.c **** *                       void  App_TerminalInFnct (CPU_CHAR    *pstr,
 669:..\..\..\..\..\..\uC-Probe\Target\Communication\Generic\Source/probe_com.c **** *                                                 CPU_SIZE_T   len);
 670:..\..\..\..\..\..\uC-Probe\Target\Communication\Generic\Source/probe_com.c **** *
 671:..\..\..\..\..\..\uC-Probe\Target\Communication\Generic\Source/probe_com.c **** *                   where 'pstr' is a pointer to the input string, and 'len' is the length of the i
 672:..\..\..\..\..\..\uC-Probe\Target\Communication\Generic\Source/probe_com.c **** *                   string (in characters) excluding the final NULL byte.  The input string will NO
 673:..\..\..\..\..\..\uC-Probe\Target\Communication\Generic\Source/probe_com.c **** *                   include a terminating new line or line feed.
 674:..\..\..\..\..\..\uC-Probe\Target\Communication\Generic\Source/probe_com.c **** ***************************************************************************************************
 675:..\..\..\..\..\..\uC-Probe\Target\Communication\Generic\Source/probe_com.c **** */
 676:..\..\..\..\..\..\uC-Probe\Target\Communication\Generic\Source/probe_com.c **** 
 677:..\..\..\..\..\..\uC-Probe\Target\Communication\Generic\Source/probe_com.c **** #if (PROBE_COM_CFG_TERMINAL_REQ_EN == DEF_ENABLED)
 678:..\..\..\..\..\..\uC-Probe\Target\Communication\Generic\Source/probe_com.c **** void  ProbeCom_TerminalInSet (PROBE_COM_TERMINAL_IN_FNCT  handler)
 679:..\..\..\..\..\..\uC-Probe\Target\Communication\Generic\Source/probe_com.c **** {
 680:..\..\..\..\..\..\uC-Probe\Target\Communication\Generic\Source/probe_com.c **** #if (CPU_CFG_CRITICAL_METHOD == CPU_CRITICAL_METHOD_STATUS_LOCAL)
 681:..\..\..\..\..\..\uC-Probe\Target\Communication\Generic\Source/probe_com.c ****     CPU_SR  cpu_sr;
ARM GAS  C:\Users\daniel01\AppData\Local\Temp\ccHLFCB6.s 			page 15


 682:..\..\..\..\..\..\uC-Probe\Target\Communication\Generic\Source/probe_com.c **** #endif
 683:..\..\..\..\..\..\uC-Probe\Target\Communication\Generic\Source/probe_com.c **** 
 684:..\..\..\..\..\..\uC-Probe\Target\Communication\Generic\Source/probe_com.c **** 
 685:..\..\..\..\..\..\uC-Probe\Target\Communication\Generic\Source/probe_com.c ****     CPU_CRITICAL_ENTER();
 686:..\..\..\..\..\..\uC-Probe\Target\Communication\Generic\Source/probe_com.c ****     ProbeCom_TerminalInHandler = handler;
 687:..\..\..\..\..\..\uC-Probe\Target\Communication\Generic\Source/probe_com.c ****     CPU_CRITICAL_EXIT();
 688:..\..\..\..\..\..\uC-Probe\Target\Communication\Generic\Source/probe_com.c **** }
 689:..\..\..\..\..\..\uC-Probe\Target\Communication\Generic\Source/probe_com.c **** #endif
 690:..\..\..\..\..\..\uC-Probe\Target\Communication\Generic\Source/probe_com.c **** 
 691:..\..\..\..\..\..\uC-Probe\Target\Communication\Generic\Source/probe_com.c **** 
 692:..\..\..\..\..\..\uC-Probe\Target\Communication\Generic\Source/probe_com.c **** /*
 693:..\..\..\..\..\..\uC-Probe\Target\Communication\Generic\Source/probe_com.c **** ***************************************************************************************************
 694:..\..\..\..\..\..\uC-Probe\Target\Communication\Generic\Source/probe_com.c **** *                                        ProbeCom_ParseRxPkt()
 695:..\..\..\..\..\..\uC-Probe\Target\Communication\Generic\Source/probe_com.c **** *
 696:..\..\..\..\..\..\uC-Probe\Target\Communication\Generic\Source/probe_com.c **** * Description : Parse a packet & formulate a response.
 697:..\..\..\..\..\..\uC-Probe\Target\Communication\Generic\Source/probe_com.c **** *
 698:..\..\..\..\..\..\uC-Probe\Target\Communication\Generic\Source/probe_com.c **** * Argument(s) : prx_pkt         Pointer to the receive  packet buffer
 699:..\..\..\..\..\..\uC-Probe\Target\Communication\Generic\Source/probe_com.c **** *
 700:..\..\..\..\..\..\uC-Probe\Target\Communication\Generic\Source/probe_com.c **** *               ptx_pkt         Pointer to the transmit packet buffer
 701:..\..\..\..\..\..\uC-Probe\Target\Communication\Generic\Source/probe_com.c **** *
 702:..\..\..\..\..\..\uC-Probe\Target\Communication\Generic\Source/probe_com.c **** *               rx_pkt_size     Size of the received packet
 703:..\..\..\..\..\..\uC-Probe\Target\Communication\Generic\Source/probe_com.c **** *
 704:..\..\..\..\..\..\uC-Probe\Target\Communication\Generic\Source/probe_com.c **** *               tx_pkt_size     Size of the transmit packet buffer
 705:..\..\..\..\..\..\uC-Probe\Target\Communication\Generic\Source/probe_com.c **** *
 706:..\..\..\..\..\..\uC-Probe\Target\Communication\Generic\Source/probe_com.c **** * Return(s)   : The number of bytes in the data segment of the packet to transmit in response.
 707:..\..\..\..\..\..\uC-Probe\Target\Communication\Generic\Source/probe_com.c **** *
 708:..\..\..\..\..\..\uC-Probe\Target\Communication\Generic\Source/probe_com.c **** * Caller(s)   : Tasks/receive handlers in communications-specific drivers, (e.g., probe_rs232,
 709:..\..\..\..\..\..\uC-Probe\Target\Communication\Generic\Source/probe_com.c **** *               probe_usb, probe_tcpip, etc.).
 710:..\..\..\..\..\..\uC-Probe\Target\Communication\Generic\Source/probe_com.c **** *
 711:..\..\..\..\..\..\uC-Probe\Target\Communication\Generic\Source/probe_com.c **** * Note(s)     : none.
 712:..\..\..\..\..\..\uC-Probe\Target\Communication\Generic\Source/probe_com.c **** ***************************************************************************************************
 713:..\..\..\..\..\..\uC-Probe\Target\Communication\Generic\Source/probe_com.c **** */
 714:..\..\..\..\..\..\uC-Probe\Target\Communication\Generic\Source/probe_com.c **** 
 715:..\..\..\..\..\..\uC-Probe\Target\Communication\Generic\Source/probe_com.c **** CPU_SIZE_T  ProbeCom_ParseRxPkt (void        *prx_pkt,
 716:..\..\..\..\..\..\uC-Probe\Target\Communication\Generic\Source/probe_com.c ****                                  void        *ptx_pkt,
 717:..\..\..\..\..\..\uC-Probe\Target\Communication\Generic\Source/probe_com.c ****                                  CPU_SIZE_T   rx_pkt_size,
 718:..\..\..\..\..\..\uC-Probe\Target\Communication\Generic\Source/probe_com.c ****                                  CPU_SIZE_T   tx_buf_size)
 719:..\..\..\..\..\..\uC-Probe\Target\Communication\Generic\Source/probe_com.c **** {
 114              		.loc 1 719 0
 115              		.cfi_startproc
 116              		@ args = 0, pretend = 0, frame = 32
 117              		@ frame_needed = 1, uses_anonymous_args = 0
 118 0000 80B5     		push	{r7, lr}
 119              	.LCFI2:
 120              		.cfi_def_cfa_offset 8
 121 0002 88B0     		sub	sp, sp, #32
 122              	.LCFI3:
 123              		.cfi_def_cfa_offset 40
 124 0004 00AF     		add	r7, sp, #0
 125              		.cfi_offset 14, -4
 126              		.cfi_offset 7, -8
 127              	.LCFI4:
 128              		.cfi_def_cfa_register 7
 129 0006 F860     		str	r0, [r7, #12]
 130 0008 B960     		str	r1, [r7, #8]
 131 000a 7A60     		str	r2, [r7, #4]
 132 000c 3B60     		str	r3, [r7, #0]
ARM GAS  C:\Users\daniel01\AppData\Local\Temp\ccHLFCB6.s 			page 16


 720:..\..\..\..\..\..\uC-Probe\Target\Communication\Generic\Source/probe_com.c ****     CPU_SIZE_T   tx_buf_wr;
 721:..\..\..\..\..\..\uC-Probe\Target\Communication\Generic\Source/probe_com.c ****     CPU_INT16U   format;
 722:..\..\..\..\..\..\uC-Probe\Target\Communication\Generic\Source/probe_com.c ****     CPU_INT08U  *prx_pkt_08;
 723:..\..\..\..\..\..\uC-Probe\Target\Communication\Generic\Source/probe_com.c ****     CPU_INT08U  *ptx_pkt_08;
 724:..\..\..\..\..\..\uC-Probe\Target\Communication\Generic\Source/probe_com.c **** 
 725:..\..\..\..\..\..\uC-Probe\Target\Communication\Generic\Source/probe_com.c **** 
 726:..\..\..\..\..\..\uC-Probe\Target\Communication\Generic\Source/probe_com.c ****     if (rx_pkt_size < 2u) {
 133              		.loc 1 726 0
 134 000e 7B68     		ldr	r3, [r7, #4]
 135 0010 012B     		cmp	r3, #1
 136 0012 02D8     		bhi	.L4
 727:..\..\..\..\..\..\uC-Probe\Target\Communication\Generic\Source/probe_com.c ****         return (0);
 137              		.loc 1 727 0
 138 0014 4FF00003 		mov	r3, #0
 139 0018 77E0     		b	.L5
 140              	.L4:
 728:..\..\..\..\..\..\uC-Probe\Target\Communication\Generic\Source/probe_com.c ****     }
 729:..\..\..\..\..\..\uC-Probe\Target\Communication\Generic\Source/probe_com.c **** 
 730:..\..\..\..\..\..\uC-Probe\Target\Communication\Generic\Source/probe_com.c ****     prx_pkt_08  = (CPU_INT08U *)prx_pkt;
 141              		.loc 1 730 0
 142 001a FB68     		ldr	r3, [r7, #12]
 143 001c BB61     		str	r3, [r7, #24]
 731:..\..\..\..\..\..\uC-Probe\Target\Communication\Generic\Source/probe_com.c ****     ptx_pkt_08  = (CPU_INT08U *)ptx_pkt;
 144              		.loc 1 731 0
 145 001e BB68     		ldr	r3, [r7, #8]
 146 0020 FB61     		str	r3, [r7, #28]
 732:..\..\..\..\..\..\uC-Probe\Target\Communication\Generic\Source/probe_com.c ****     format      = (prx_pkt_08[1] << 8) + prx_pkt_08[0];
 147              		.loc 1 732 0
 148 0022 BB69     		ldr	r3, [r7, #24]
 149 0024 03F10103 		add	r3, r3, #1
 150 0028 1B78     		ldrb	r3, [r3, #0]	@ zero_extendqisi2
 151 002a 4FEA0323 		lsl	r3, r3, #8
 152 002e 9AB2     		uxth	r2, r3
 153 0030 BB69     		ldr	r3, [r7, #24]
 154 0032 1B78     		ldrb	r3, [r3, #0]	@ zero_extendqisi2
 155 0034 1344     		add	r3, r2, r3
 156 0036 FB82     		strh	r3, [r7, #22]	@ movhi
 733:..\..\..\..\..\..\uC-Probe\Target\Communication\Generic\Source/probe_com.c ****     prx_pkt_08 += 2u;
 157              		.loc 1 733 0
 158 0038 BB69     		ldr	r3, [r7, #24]
 159 003a 03F10203 		add	r3, r3, #2
 160 003e BB61     		str	r3, [r7, #24]
 734:..\..\..\..\..\..\uC-Probe\Target\Communication\Generic\Source/probe_com.c **** 
 735:..\..\..\..\..\..\uC-Probe\Target\Communication\Generic\Source/probe_com.c **** #if (PROBE_COM_CFG_STAT_EN == DEF_ENABLED)
 736:..\..\..\..\..\..\uC-Probe\Target\Communication\Generic\Source/probe_com.c ****     ProbeCom_RxPktCtr++;
 161              		.loc 1 736 0
 162 0040 40F20003 		movw	r3, #:lower16:ProbeCom_RxPktCtr
 163 0044 C0F20003 		movt	r3, #:upper16:ProbeCom_RxPktCtr
 164 0048 1B68     		ldr	r3, [r3, #0]
 165 004a 03F10102 		add	r2, r3, #1
 166 004e 40F20003 		movw	r3, #:lower16:ProbeCom_RxPktCtr
 167 0052 C0F20003 		movt	r3, #:upper16:ProbeCom_RxPktCtr
 168 0056 1A60     		str	r2, [r3, #0]
 737:..\..\..\..\..\..\uC-Probe\Target\Communication\Generic\Source/probe_com.c ****     ProbeCom_TxPktCtr++;
 169              		.loc 1 737 0
 170 0058 40F20003 		movw	r3, #:lower16:ProbeCom_TxPktCtr
 171 005c C0F20003 		movt	r3, #:upper16:ProbeCom_TxPktCtr
ARM GAS  C:\Users\daniel01\AppData\Local\Temp\ccHLFCB6.s 			page 17


 172 0060 1B68     		ldr	r3, [r3, #0]
 173 0062 03F10102 		add	r2, r3, #1
 174 0066 40F20003 		movw	r3, #:lower16:ProbeCom_TxPktCtr
 175 006a C0F20003 		movt	r3, #:upper16:ProbeCom_TxPktCtr
 176 006e 1A60     		str	r2, [r3, #0]
 738:..\..\..\..\..\..\uC-Probe\Target\Communication\Generic\Source/probe_com.c **** #endif
 739:..\..\..\..\..\..\uC-Probe\Target\Communication\Generic\Source/probe_com.c **** 
 740:..\..\..\..\..\..\uC-Probe\Target\Communication\Generic\Source/probe_com.c ****     switch (format) {
 177              		.loc 1 740 0
 178 0070 FB8A     		ldrh	r3, [r7, #22]
 179 0072 03F1FF33 		add	r3, r3, #-1
 180 0076 072B     		cmp	r3, #7
 181 0078 3FD8     		bhi	.L6
 182 007a 01A2     		adr	r2, .L12
 183 007c 52F823F0 		ldr	pc, [r2, r3, lsl #2]
 184              		.align	2
 185              	.L12:
 186 0080 A1000000 		.word	.L7+1
 187 0084 B3000000 		.word	.L8+1
 188 0088 D7000000 		.word	.L9+1
 189 008c FB000000 		.word	.L6+1
 190 0090 FB000000 		.word	.L6+1
 191 0094 FB000000 		.word	.L6+1
 192 0098 C5000000 		.word	.L10+1
 193 009c E9000000 		.word	.L11+1
 194              	.L7:
 741:..\..\..\..\..\..\uC-Probe\Target\Communication\Generic\Source/probe_com.c ****         case PROBE_COM_FMT_RX_QUERY:
 742:..\..\..\..\..\..\uC-Probe\Target\Communication\Generic\Source/probe_com.c ****              tx_buf_wr = ProbeCom_ReqQuery(       prx_pkt_08, ptx_pkt_08, rx_pkt_size, tx_buf_size)
 195              		.loc 1 742 0
 196 00a0 B869     		ldr	r0, [r7, #24]
 197 00a2 F969     		ldr	r1, [r7, #28]
 198 00a4 7A68     		ldr	r2, [r7, #4]
 199 00a6 3B68     		ldr	r3, [r7, #0]
 200 00a8 FFF7FEFF 		bl	ProbeCom_ReqQuery
 201 00ac 0346     		mov	r3, r0
 202 00ae 3B61     		str	r3, [r7, #16]
 743:..\..\..\..\..\..\uC-Probe\Target\Communication\Generic\Source/probe_com.c ****              break;
 203              		.loc 1 743 0
 204 00b0 2AE0     		b	.L13
 205              	.L8:
 744:..\..\..\..\..\..\uC-Probe\Target\Communication\Generic\Source/probe_com.c **** 
 745:..\..\..\..\..\..\uC-Probe\Target\Communication\Generic\Source/probe_com.c ****         case PROBE_COM_FMT_RX_RD:
 746:..\..\..\..\..\..\uC-Probe\Target\Communication\Generic\Source/probe_com.c ****              tx_buf_wr = ProbeCom_ReqRd(          prx_pkt_08, ptx_pkt_08, rx_pkt_size, tx_buf_size)
 206              		.loc 1 746 0
 207 00b2 B869     		ldr	r0, [r7, #24]
 208 00b4 F969     		ldr	r1, [r7, #28]
 209 00b6 7A68     		ldr	r2, [r7, #4]
 210 00b8 3B68     		ldr	r3, [r7, #0]
 211 00ba FFF7FEFF 		bl	ProbeCom_ReqRd
 212 00be 0346     		mov	r3, r0
 213 00c0 3B61     		str	r3, [r7, #16]
 747:..\..\..\..\..\..\uC-Probe\Target\Communication\Generic\Source/probe_com.c ****              break;
 214              		.loc 1 747 0
 215 00c2 21E0     		b	.L13
 216              	.L10:
 748:..\..\..\..\..\..\uC-Probe\Target\Communication\Generic\Source/probe_com.c **** 
 749:..\..\..\..\..\..\uC-Probe\Target\Communication\Generic\Source/probe_com.c ****         case PROBE_COM_FMT_RX_RD_MULTI:
ARM GAS  C:\Users\daniel01\AppData\Local\Temp\ccHLFCB6.s 			page 18


 750:..\..\..\..\..\..\uC-Probe\Target\Communication\Generic\Source/probe_com.c ****              tx_buf_wr = ProbeCom_ReqRdMulti(     prx_pkt_08, ptx_pkt_08, rx_pkt_size, tx_buf_size)
 217              		.loc 1 750 0
 218 00c4 B869     		ldr	r0, [r7, #24]
 219 00c6 F969     		ldr	r1, [r7, #28]
 220 00c8 7A68     		ldr	r2, [r7, #4]
 221 00ca 3B68     		ldr	r3, [r7, #0]
 222 00cc FFF7FEFF 		bl	ProbeCom_ReqRdMulti
 223 00d0 0346     		mov	r3, r0
 224 00d2 3B61     		str	r3, [r7, #16]
 751:..\..\..\..\..\..\uC-Probe\Target\Communication\Generic\Source/probe_com.c ****              break;
 225              		.loc 1 751 0
 226 00d4 18E0     		b	.L13
 227              	.L9:
 752:..\..\..\..\..\..\uC-Probe\Target\Communication\Generic\Source/probe_com.c **** 
 753:..\..\..\..\..\..\uC-Probe\Target\Communication\Generic\Source/probe_com.c **** #if (PROBE_COM_CFG_WR_REQ_EN == DEF_ENABLED)
 754:..\..\..\..\..\..\uC-Probe\Target\Communication\Generic\Source/probe_com.c ****         case PROBE_COM_FMT_RX_WR:
 755:..\..\..\..\..\..\uC-Probe\Target\Communication\Generic\Source/probe_com.c ****              tx_buf_wr = ProbeCom_ReqWr(          prx_pkt_08, ptx_pkt_08, rx_pkt_size, tx_buf_size)
 228              		.loc 1 755 0
 229 00d6 B869     		ldr	r0, [r7, #24]
 230 00d8 F969     		ldr	r1, [r7, #28]
 231 00da 7A68     		ldr	r2, [r7, #4]
 232 00dc 3B68     		ldr	r3, [r7, #0]
 233 00de FFF7FEFF 		bl	ProbeCom_ReqWr
 234 00e2 0346     		mov	r3, r0
 235 00e4 3B61     		str	r3, [r7, #16]
 756:..\..\..\..\..\..\uC-Probe\Target\Communication\Generic\Source/probe_com.c ****              break;
 236              		.loc 1 756 0
 237 00e6 0FE0     		b	.L13
 238              	.L11:
 757:..\..\..\..\..\..\uC-Probe\Target\Communication\Generic\Source/probe_com.c **** 
 758:..\..\..\..\..\..\uC-Probe\Target\Communication\Generic\Source/probe_com.c ****         case PROBE_COM_FMT_RX_WR_MULTI:
 759:..\..\..\..\..\..\uC-Probe\Target\Communication\Generic\Source/probe_com.c ****              tx_buf_wr = ProbeCom_ReqWrMulti(     prx_pkt_08, ptx_pkt_08, rx_pkt_size, tx_buf_size)
 239              		.loc 1 759 0
 240 00e8 B869     		ldr	r0, [r7, #24]
 241 00ea F969     		ldr	r1, [r7, #28]
 242 00ec 7A68     		ldr	r2, [r7, #4]
 243 00ee 3B68     		ldr	r3, [r7, #0]
 244 00f0 FFF7FEFF 		bl	ProbeCom_ReqWrMulti
 245 00f4 0346     		mov	r3, r0
 246 00f6 3B61     		str	r3, [r7, #16]
 760:..\..\..\..\..\..\uC-Probe\Target\Communication\Generic\Source/probe_com.c ****              break;
 247              		.loc 1 760 0
 248 00f8 06E0     		b	.L13
 249              	.L6:
 761:..\..\..\..\..\..\uC-Probe\Target\Communication\Generic\Source/probe_com.c **** #endif
 762:..\..\..\..\..\..\uC-Probe\Target\Communication\Generic\Source/probe_com.c **** 
 763:..\..\..\..\..\..\uC-Probe\Target\Communication\Generic\Source/probe_com.c **** #if (PROBE_COM_CFG_STR_REQ_EN == DEF_ENABLED)
 764:..\..\..\..\..\..\uC-Probe\Target\Communication\Generic\Source/probe_com.c ****         case PROBE_COM_FMT_RX_STR_IN:
 765:..\..\..\..\..\..\uC-Probe\Target\Communication\Generic\Source/probe_com.c ****              tx_buf_wr = ProbeCom_ReqStrIn(       prx_pkt_08, ptx_pkt_08, rx_pkt_size, tx_buf_size)
 766:..\..\..\..\..\..\uC-Probe\Target\Communication\Generic\Source/probe_com.c ****              break;
 767:..\..\..\..\..\..\uC-Probe\Target\Communication\Generic\Source/probe_com.c **** 
 768:..\..\..\..\..\..\uC-Probe\Target\Communication\Generic\Source/probe_com.c ****         case PROBE_COM_FMT_RX_STR_OUT:
 769:..\..\..\..\..\..\uC-Probe\Target\Communication\Generic\Source/probe_com.c ****              tx_buf_wr = ProbeCom_ReqStrOut(      prx_pkt_08, ptx_pkt_08, rx_pkt_size, tx_buf_size)
 770:..\..\..\..\..\..\uC-Probe\Target\Communication\Generic\Source/probe_com.c ****              break;
 771:..\..\..\..\..\..\uC-Probe\Target\Communication\Generic\Source/probe_com.c **** #endif
 772:..\..\..\..\..\..\uC-Probe\Target\Communication\Generic\Source/probe_com.c **** 
 773:..\..\..\..\..\..\uC-Probe\Target\Communication\Generic\Source/probe_com.c **** #if (PROBE_COM_CFG_TERMINAL_REQ_EN == DEF_ENABLED)
ARM GAS  C:\Users\daniel01\AppData\Local\Temp\ccHLFCB6.s 			page 19


 774:..\..\..\..\..\..\uC-Probe\Target\Communication\Generic\Source/probe_com.c ****         case PROBE_COM_FMT_RX_TERMINAL_EXEC:
 775:..\..\..\..\..\..\uC-Probe\Target\Communication\Generic\Source/probe_com.c ****              tx_buf_wr = ProbeCom_ReqTerminalExec(prx_pkt_08, ptx_pkt_08, rx_pkt_size, tx_buf_size)
 776:..\..\..\..\..\..\uC-Probe\Target\Communication\Generic\Source/probe_com.c ****              break;
 777:..\..\..\..\..\..\uC-Probe\Target\Communication\Generic\Source/probe_com.c **** 
 778:..\..\..\..\..\..\uC-Probe\Target\Communication\Generic\Source/probe_com.c ****         case PROBE_COM_FMT_RX_TERMINAL_IN:
 779:..\..\..\..\..\..\uC-Probe\Target\Communication\Generic\Source/probe_com.c ****              tx_buf_wr = ProbeCom_ReqTerminalIn(  prx_pkt_08, ptx_pkt_08, rx_pkt_size, tx_buf_size)
 780:..\..\..\..\..\..\uC-Probe\Target\Communication\Generic\Source/probe_com.c ****              break;
 781:..\..\..\..\..\..\uC-Probe\Target\Communication\Generic\Source/probe_com.c **** 
 782:..\..\..\..\..\..\uC-Probe\Target\Communication\Generic\Source/probe_com.c ****         case PROBE_COM_FMT_RX_TERMINAL_OUT:
 783:..\..\..\..\..\..\uC-Probe\Target\Communication\Generic\Source/probe_com.c ****              tx_buf_wr = ProbeCom_ReqTerminalOut( prx_pkt_08, ptx_pkt_08, rx_pkt_size, tx_buf_size)
 784:..\..\..\..\..\..\uC-Probe\Target\Communication\Generic\Source/probe_com.c ****              break;
 785:..\..\..\..\..\..\uC-Probe\Target\Communication\Generic\Source/probe_com.c **** #endif
 786:..\..\..\..\..\..\uC-Probe\Target\Communication\Generic\Source/probe_com.c **** 
 787:..\..\..\..\..\..\uC-Probe\Target\Communication\Generic\Source/probe_com.c ****         default:
 788:..\..\..\..\..\..\uC-Probe\Target\Communication\Generic\Source/probe_com.c ****              tx_buf_wr = ProbeCom_ReqErr(                     ptx_pkt_08, PROBE_COM_STATUS_UNKNOWN_
 250              		.loc 1 788 0
 251 00fa F869     		ldr	r0, [r7, #28]
 252 00fc 4FF0F901 		mov	r1, #249
 253 0100 FFF7FEFF 		bl	ProbeCom_ReqErr
 254 0104 0346     		mov	r3, r0
 255 0106 3B61     		str	r3, [r7, #16]
 256              	.L13:
 789:..\..\..\..\..\..\uC-Probe\Target\Communication\Generic\Source/probe_com.c ****              break;
 790:..\..\..\..\..\..\uC-Probe\Target\Communication\Generic\Source/probe_com.c ****     }
 791:..\..\..\..\..\..\uC-Probe\Target\Communication\Generic\Source/probe_com.c **** 
 792:..\..\..\..\..\..\uC-Probe\Target\Communication\Generic\Source/probe_com.c ****     return (tx_buf_wr);
 257              		.loc 1 792 0
 258 0108 3B69     		ldr	r3, [r7, #16]
 259              	.L5:
 793:..\..\..\..\..\..\uC-Probe\Target\Communication\Generic\Source/probe_com.c **** }
 260              		.loc 1 793 0
 261 010a 1846     		mov	r0, r3
 262 010c 07F12007 		add	r7, r7, #32
 263 0110 BD46     		mov	sp, r7
 264 0112 80BD     		pop	{r7, pc}
 265              		.cfi_endproc
 266              	.LFE1:
 267              		.size	ProbeCom_ParseRxPkt, .-ProbeCom_ParseRxPkt
 268              		.section	.text.ProbeCom_PktModifier,"ax",%progbits
 269              		.align	2
 270              		.thumb
 271              		.thumb_func
 272              		.type	ProbeCom_PktModifier, %function
 273              	ProbeCom_PktModifier:
 274              	.LFB2:
 794:..\..\..\..\..\..\uC-Probe\Target\Communication\Generic\Source/probe_com.c **** 
 795:..\..\..\..\..\..\uC-Probe\Target\Communication\Generic\Source/probe_com.c **** 
 796:..\..\..\..\..\..\uC-Probe\Target\Communication\Generic\Source/probe_com.c **** /*
 797:..\..\..\..\..\..\uC-Probe\Target\Communication\Generic\Source/probe_com.c **** ***************************************************************************************************
 798:..\..\..\..\..\..\uC-Probe\Target\Communication\Generic\Source/probe_com.c **** ***************************************************************************************************
 799:..\..\..\..\..\..\uC-Probe\Target\Communication\Generic\Source/probe_com.c **** *                                           LOCAL FUNCTIONS
 800:..\..\..\..\..\..\uC-Probe\Target\Communication\Generic\Source/probe_com.c **** ***************************************************************************************************
 801:..\..\..\..\..\..\uC-Probe\Target\Communication\Generic\Source/probe_com.c **** ***************************************************************************************************
 802:..\..\..\..\..\..\uC-Probe\Target\Communication\Generic\Source/probe_com.c **** */
 803:..\..\..\..\..\..\uC-Probe\Target\Communication\Generic\Source/probe_com.c **** 
 804:..\..\..\..\..\..\uC-Probe\Target\Communication\Generic\Source/probe_com.c **** /*
 805:..\..\..\..\..\..\uC-Probe\Target\Communication\Generic\Source/probe_com.c **** ***************************************************************************************************
ARM GAS  C:\Users\daniel01\AppData\Local\Temp\ccHLFCB6.s 			page 20


 806:..\..\..\..\..\..\uC-Probe\Target\Communication\Generic\Source/probe_com.c **** *                                       ProbeCom_StrOutAvail()
 807:..\..\..\..\..\..\uC-Probe\Target\Communication\Generic\Source/probe_com.c **** *
 808:..\..\..\..\..\..\uC-Probe\Target\Communication\Generic\Source/probe_com.c **** * Description : Check if string output is waiting for transmission.
 809:..\..\..\..\..\..\uC-Probe\Target\Communication\Generic\Source/probe_com.c **** *
 810:..\..\..\..\..\..\uC-Probe\Target\Communication\Generic\Source/probe_com.c **** * Argument(s) : none.
 811:..\..\..\..\..\..\uC-Probe\Target\Communication\Generic\Source/probe_com.c **** *
 812:..\..\..\..\..\..\uC-Probe\Target\Communication\Generic\Source/probe_com.c **** * Return(s)   : DEF_TRUE   if a  string output is waiting for transmission.
 813:..\..\..\..\..\..\uC-Probe\Target\Communication\Generic\Source/probe_com.c **** *               DEF_FALSE  if no string output is waiting for transmission.
 814:..\..\..\..\..\..\uC-Probe\Target\Communication\Generic\Source/probe_com.c **** *
 815:..\..\..\..\..\..\uC-Probe\Target\Communication\Generic\Source/probe_com.c **** * Caller(s)   : ProbeCom_PktModifier().
 816:..\..\..\..\..\..\uC-Probe\Target\Communication\Generic\Source/probe_com.c **** *
 817:..\..\..\..\..\..\uC-Probe\Target\Communication\Generic\Source/probe_com.c **** * Note(s)     : (1) See Notes for 'ProbeCom_StrWr()'.
 818:..\..\..\..\..\..\uC-Probe\Target\Communication\Generic\Source/probe_com.c **** ***************************************************************************************************
 819:..\..\..\..\..\..\uC-Probe\Target\Communication\Generic\Source/probe_com.c **** */
 820:..\..\..\..\..\..\uC-Probe\Target\Communication\Generic\Source/probe_com.c **** 
 821:..\..\..\..\..\..\uC-Probe\Target\Communication\Generic\Source/probe_com.c **** #if (PROBE_COM_CFG_STR_REQ_EN == DEF_ENABLED)
 822:..\..\..\..\..\..\uC-Probe\Target\Communication\Generic\Source/probe_com.c **** static  CPU_BOOLEAN  ProbeCom_StrOutAvail (void)
 823:..\..\..\..\..\..\uC-Probe\Target\Communication\Generic\Source/probe_com.c **** {
 824:..\..\..\..\..\..\uC-Probe\Target\Communication\Generic\Source/probe_com.c ****     CPU_BOOLEAN  avail;
 825:..\..\..\..\..\..\uC-Probe\Target\Communication\Generic\Source/probe_com.c ****     CPU_BOOLEAN  empty;
 826:..\..\..\..\..\..\uC-Probe\Target\Communication\Generic\Source/probe_com.c **** 
 827:..\..\..\..\..\..\uC-Probe\Target\Communication\Generic\Source/probe_com.c **** 
 828:..\..\..\..\..\..\uC-Probe\Target\Communication\Generic\Source/probe_com.c ****     empty = ProbeCom_BufIsEmpty(&ProbeCom_StrOutBuf);
 829:..\..\..\..\..\..\uC-Probe\Target\Communication\Generic\Source/probe_com.c ****     avail = (empty == DEF_YES) ? (DEF_FALSE) : (DEF_TRUE);
 830:..\..\..\..\..\..\uC-Probe\Target\Communication\Generic\Source/probe_com.c **** 
 831:..\..\..\..\..\..\uC-Probe\Target\Communication\Generic\Source/probe_com.c ****     return (avail);
 832:..\..\..\..\..\..\uC-Probe\Target\Communication\Generic\Source/probe_com.c **** }
 833:..\..\..\..\..\..\uC-Probe\Target\Communication\Generic\Source/probe_com.c **** #endif
 834:..\..\..\..\..\..\uC-Probe\Target\Communication\Generic\Source/probe_com.c **** 
 835:..\..\..\..\..\..\uC-Probe\Target\Communication\Generic\Source/probe_com.c **** 
 836:..\..\..\..\..\..\uC-Probe\Target\Communication\Generic\Source/probe_com.c **** 
 837:..\..\..\..\..\..\uC-Probe\Target\Communication\Generic\Source/probe_com.c **** /*
 838:..\..\..\..\..\..\uC-Probe\Target\Communication\Generic\Source/probe_com.c **** ***************************************************************************************************
 839:..\..\..\..\..\..\uC-Probe\Target\Communication\Generic\Source/probe_com.c **** *                                     ProbeCom_TerminalOutAvail()
 840:..\..\..\..\..\..\uC-Probe\Target\Communication\Generic\Source/probe_com.c **** *
 841:..\..\..\..\..\..\uC-Probe\Target\Communication\Generic\Source/probe_com.c **** * Description : Check if terminal output is waiting for transmission.
 842:..\..\..\..\..\..\uC-Probe\Target\Communication\Generic\Source/probe_com.c **** *
 843:..\..\..\..\..\..\uC-Probe\Target\Communication\Generic\Source/probe_com.c **** * Argument(s) : none.
 844:..\..\..\..\..\..\uC-Probe\Target\Communication\Generic\Source/probe_com.c **** *
 845:..\..\..\..\..\..\uC-Probe\Target\Communication\Generic\Source/probe_com.c **** * Return(s)   : DEF_TRUE   if a  terminal output is waiting for transmission.
 846:..\..\..\..\..\..\uC-Probe\Target\Communication\Generic\Source/probe_com.c **** *               DEF_FALSE  if no terminal output is waiting for transmission.
 847:..\..\..\..\..\..\uC-Probe\Target\Communication\Generic\Source/probe_com.c **** *
 848:..\..\..\..\..\..\uC-Probe\Target\Communication\Generic\Source/probe_com.c **** * Caller(s)   : ProbeCom_PktModifier().
 849:..\..\..\..\..\..\uC-Probe\Target\Communication\Generic\Source/probe_com.c **** *
 850:..\..\..\..\..\..\uC-Probe\Target\Communication\Generic\Source/probe_com.c **** * Note(s)     : (1) See Notes for 'ProbeCom_TerminalOut()'.
 851:..\..\..\..\..\..\uC-Probe\Target\Communication\Generic\Source/probe_com.c **** ***************************************************************************************************
 852:..\..\..\..\..\..\uC-Probe\Target\Communication\Generic\Source/probe_com.c **** */
 853:..\..\..\..\..\..\uC-Probe\Target\Communication\Generic\Source/probe_com.c **** 
 854:..\..\..\..\..\..\uC-Probe\Target\Communication\Generic\Source/probe_com.c **** #if (PROBE_COM_CFG_TERMINAL_REQ_EN == DEF_ENABLED)
 855:..\..\..\..\..\..\uC-Probe\Target\Communication\Generic\Source/probe_com.c **** static  CPU_BOOLEAN  ProbeCom_TerminalOutAvail (void)
 856:..\..\..\..\..\..\uC-Probe\Target\Communication\Generic\Source/probe_com.c **** {
 857:..\..\..\..\..\..\uC-Probe\Target\Communication\Generic\Source/probe_com.c ****     CPU_SIZE_T   buf_len;
 858:..\..\..\..\..\..\uC-Probe\Target\Communication\Generic\Source/probe_com.c ****     CPU_BOOLEAN  avail;
 859:..\..\..\..\..\..\uC-Probe\Target\Communication\Generic\Source/probe_com.c ****     CPU_SR_ALLOC();
 860:..\..\..\..\..\..\uC-Probe\Target\Communication\Generic\Source/probe_com.c **** 
 861:..\..\..\..\..\..\uC-Probe\Target\Communication\Generic\Source/probe_com.c **** 
 862:..\..\..\..\..\..\uC-Probe\Target\Communication\Generic\Source/probe_com.c ****     CPU_CRITICAL_ENTER();
ARM GAS  C:\Users\daniel01\AppData\Local\Temp\ccHLFCB6.s 			page 21


 863:..\..\..\..\..\..\uC-Probe\Target\Communication\Generic\Source/probe_com.c ****     buf_len = ProbeCom_TerminalOutBufLen;
 864:..\..\..\..\..\..\uC-Probe\Target\Communication\Generic\Source/probe_com.c ****     CPU_CRITICAL_EXIT();
 865:..\..\..\..\..\..\uC-Probe\Target\Communication\Generic\Source/probe_com.c **** 
 866:..\..\..\..\..\..\uC-Probe\Target\Communication\Generic\Source/probe_com.c ****     avail   = (buf_len == 0u) ? (DEF_FALSE) : (DEF_TRUE);
 867:..\..\..\..\..\..\uC-Probe\Target\Communication\Generic\Source/probe_com.c **** 
 868:..\..\..\..\..\..\uC-Probe\Target\Communication\Generic\Source/probe_com.c ****     return (avail);
 869:..\..\..\..\..\..\uC-Probe\Target\Communication\Generic\Source/probe_com.c **** }
 870:..\..\..\..\..\..\uC-Probe\Target\Communication\Generic\Source/probe_com.c **** #endif
 871:..\..\..\..\..\..\uC-Probe\Target\Communication\Generic\Source/probe_com.c **** 
 872:..\..\..\..\..\..\uC-Probe\Target\Communication\Generic\Source/probe_com.c **** 
 873:..\..\..\..\..\..\uC-Probe\Target\Communication\Generic\Source/probe_com.c **** 
 874:..\..\..\..\..\..\uC-Probe\Target\Communication\Generic\Source/probe_com.c **** /*
 875:..\..\..\..\..\..\uC-Probe\Target\Communication\Generic\Source/probe_com.c **** ***************************************************************************************************
 876:..\..\..\..\..\..\uC-Probe\Target\Communication\Generic\Source/probe_com.c **** *                                     ProbeCom_TerminalExecDone()
 877:..\..\..\..\..\..\uC-Probe\Target\Communication\Generic\Source/probe_com.c **** *
 878:..\..\..\..\..\..\uC-Probe\Target\Communication\Generic\Source/probe_com.c **** * Description : Check if terminal execution is done.
 879:..\..\..\..\..\..\uC-Probe\Target\Communication\Generic\Source/probe_com.c **** *
 880:..\..\..\..\..\..\uC-Probe\Target\Communication\Generic\Source/probe_com.c **** * Argument(s) : none.
 881:..\..\..\..\..\..\uC-Probe\Target\Communication\Generic\Source/probe_com.c **** *
 882:..\..\..\..\..\..\uC-Probe\Target\Communication\Generic\Source/probe_com.c **** * Return(s)   : DEF_TRUE   if terminal command execution is     done.
 883:..\..\..\..\..\..\uC-Probe\Target\Communication\Generic\Source/probe_com.c **** *               DEF_FALSE  if terminal command execution is NOT done.
 884:..\..\..\..\..\..\uC-Probe\Target\Communication\Generic\Source/probe_com.c **** *
 885:..\..\..\..\..\..\uC-Probe\Target\Communication\Generic\Source/probe_com.c **** * Caller(s)   : ProbeCom_PktModifier().
 886:..\..\..\..\..\..\uC-Probe\Target\Communication\Generic\Source/probe_com.c **** *
 887:..\..\..\..\..\..\uC-Probe\Target\Communication\Generic\Source/probe_com.c **** * Note(s)     : (1) See Notes for 'ProbeCom_TerminalOut()'.
 888:..\..\..\..\..\..\uC-Probe\Target\Communication\Generic\Source/probe_com.c **** ***************************************************************************************************
 889:..\..\..\..\..\..\uC-Probe\Target\Communication\Generic\Source/probe_com.c **** */
 890:..\..\..\..\..\..\uC-Probe\Target\Communication\Generic\Source/probe_com.c **** 
 891:..\..\..\..\..\..\uC-Probe\Target\Communication\Generic\Source/probe_com.c **** #if (PROBE_COM_CFG_TERMINAL_REQ_EN == DEF_ENABLED)
 892:..\..\..\..\..\..\uC-Probe\Target\Communication\Generic\Source/probe_com.c **** static  CPU_BOOLEAN  ProbeCom_TerminalExecDone (void)
 893:..\..\..\..\..\..\uC-Probe\Target\Communication\Generic\Source/probe_com.c **** {
 894:..\..\..\..\..\..\uC-Probe\Target\Communication\Generic\Source/probe_com.c **** #if (CPU_CFG_CRITICAL_METHOD == CPU_CRITICAL_METHOD_STATUS_LOCAL)
 895:..\..\..\..\..\..\uC-Probe\Target\Communication\Generic\Source/probe_com.c ****     CPU_SR       cpu_sr;
 896:..\..\..\..\..\..\uC-Probe\Target\Communication\Generic\Source/probe_com.c **** #endif
 897:..\..\..\..\..\..\uC-Probe\Target\Communication\Generic\Source/probe_com.c ****     CPU_BOOLEAN  executing;
 898:..\..\..\..\..\..\uC-Probe\Target\Communication\Generic\Source/probe_com.c ****     CPU_BOOLEAN  done;
 899:..\..\..\..\..\..\uC-Probe\Target\Communication\Generic\Source/probe_com.c **** 
 900:..\..\..\..\..\..\uC-Probe\Target\Communication\Generic\Source/probe_com.c **** 
 901:..\..\..\..\..\..\uC-Probe\Target\Communication\Generic\Source/probe_com.c ****     CPU_CRITICAL_ENTER();
 902:..\..\..\..\..\..\uC-Probe\Target\Communication\Generic\Source/probe_com.c ****     executing = ProbeCom_TerminalExecuting;
 903:..\..\..\..\..\..\uC-Probe\Target\Communication\Generic\Source/probe_com.c ****     CPU_CRITICAL_EXIT();
 904:..\..\..\..\..\..\uC-Probe\Target\Communication\Generic\Source/probe_com.c **** 
 905:..\..\..\..\..\..\uC-Probe\Target\Communication\Generic\Source/probe_com.c ****     done = (executing == DEF_YES) ? (DEF_FALSE) : (DEF_TRUE);
 906:..\..\..\..\..\..\uC-Probe\Target\Communication\Generic\Source/probe_com.c **** 
 907:..\..\..\..\..\..\uC-Probe\Target\Communication\Generic\Source/probe_com.c ****     return (done);
 908:..\..\..\..\..\..\uC-Probe\Target\Communication\Generic\Source/probe_com.c **** }
 909:..\..\..\..\..\..\uC-Probe\Target\Communication\Generic\Source/probe_com.c **** #endif
 910:..\..\..\..\..\..\uC-Probe\Target\Communication\Generic\Source/probe_com.c **** 
 911:..\..\..\..\..\..\uC-Probe\Target\Communication\Generic\Source/probe_com.c **** 
 912:..\..\..\..\..\..\uC-Probe\Target\Communication\Generic\Source/probe_com.c **** /*
 913:..\..\..\..\..\..\uC-Probe\Target\Communication\Generic\Source/probe_com.c **** ***************************************************************************************************
 914:..\..\..\..\..\..\uC-Probe\Target\Communication\Generic\Source/probe_com.c **** *                                       ProbeCom_PktModifier()
 915:..\..\..\..\..\..\uC-Probe\Target\Communication\Generic\Source/probe_com.c **** *
 916:..\..\..\..\..\..\uC-Probe\Target\Communication\Generic\Source/probe_com.c **** * Description : Get packet modfier byte.
 917:..\..\..\..\..\..\uC-Probe\Target\Communication\Generic\Source/probe_com.c **** *
 918:..\..\..\..\..\..\uC-Probe\Target\Communication\Generic\Source/probe_com.c **** * Argument(s) : none.
 919:..\..\..\..\..\..\uC-Probe\Target\Communication\Generic\Source/probe_com.c **** *
ARM GAS  C:\Users\daniel01\AppData\Local\Temp\ccHLFCB6.s 			page 22


 920:..\..\..\..\..\..\uC-Probe\Target\Communication\Generic\Source/probe_com.c **** * Return(s)   : The modifier byte.
 921:..\..\..\..\..\..\uC-Probe\Target\Communication\Generic\Source/probe_com.c **** *
 922:..\..\..\..\..\..\uC-Probe\Target\Communication\Generic\Source/probe_com.c **** * Caller(s)   : Various command handlers (ProbeCom_Req????()).
 923:..\..\..\..\..\..\uC-Probe\Target\Communication\Generic\Source/probe_com.c **** *
 924:..\..\..\..\..\..\uC-Probe\Target\Communication\Generic\Source/probe_com.c **** * Note(s)     : none.
 925:..\..\..\..\..\..\uC-Probe\Target\Communication\Generic\Source/probe_com.c **** ***************************************************************************************************
 926:..\..\..\..\..\..\uC-Probe\Target\Communication\Generic\Source/probe_com.c **** */
 927:..\..\..\..\..\..\uC-Probe\Target\Communication\Generic\Source/probe_com.c **** 
 928:..\..\..\..\..\..\uC-Probe\Target\Communication\Generic\Source/probe_com.c **** static  CPU_INT08U  ProbeCom_PktModifier (void)
 929:..\..\..\..\..\..\uC-Probe\Target\Communication\Generic\Source/probe_com.c **** {
 275              		.loc 1 929 0
 276              		.cfi_startproc
 277              		@ args = 0, pretend = 0, frame = 8
 278              		@ frame_needed = 1, uses_anonymous_args = 0
 279              		@ link register save eliminated.
 280 0000 80B4     		push	{r7}
 281              	.LCFI5:
 282              		.cfi_def_cfa_offset 4
 283 0002 83B0     		sub	sp, sp, #12
 284              	.LCFI6:
 285              		.cfi_def_cfa_offset 16
 286 0004 00AF     		add	r7, sp, #0
 287              		.cfi_offset 7, -4
 288              	.LCFI7:
 289              		.cfi_def_cfa_register 7
 930:..\..\..\..\..\..\uC-Probe\Target\Communication\Generic\Source/probe_com.c **** #if ((PROBE_COM_CFG_STR_REQ_EN      == DEF_ENABLED) || \
 931:..\..\..\..\..\..\uC-Probe\Target\Communication\Generic\Source/probe_com.c ****      (PROBE_COM_CFG_TERMINAL_REQ_EN == DEF_ENABLED))
 932:..\..\..\..\..\..\uC-Probe\Target\Communication\Generic\Source/probe_com.c ****     CPU_BOOLEAN  avail;
 933:..\..\..\..\..\..\uC-Probe\Target\Communication\Generic\Source/probe_com.c **** #endif
 934:..\..\..\..\..\..\uC-Probe\Target\Communication\Generic\Source/probe_com.c **** #if  (PROBE_COM_CFG_TERMINAL_REQ_EN == DEF_ENABLED)
 935:..\..\..\..\..\..\uC-Probe\Target\Communication\Generic\Source/probe_com.c ****     CPU_BOOLEAN  done;
 936:..\..\..\..\..\..\uC-Probe\Target\Communication\Generic\Source/probe_com.c **** #endif
 937:..\..\..\..\..\..\uC-Probe\Target\Communication\Generic\Source/probe_com.c ****     CPU_INT08U   mod;
 938:..\..\..\..\..\..\uC-Probe\Target\Communication\Generic\Source/probe_com.c **** 
 939:..\..\..\..\..\..\uC-Probe\Target\Communication\Generic\Source/probe_com.c **** 
 940:..\..\..\..\..\..\uC-Probe\Target\Communication\Generic\Source/probe_com.c ****     mod = PROBE_COM_MODIFIER_NONE;
 290              		.loc 1 940 0
 291 0006 4FF00003 		mov	r3, #0
 292 000a FB71     		strb	r3, [r7, #7]
 941:..\..\..\..\..\..\uC-Probe\Target\Communication\Generic\Source/probe_com.c **** 
 942:..\..\..\..\..\..\uC-Probe\Target\Communication\Generic\Source/probe_com.c **** #if (PROBE_COM_CFG_STR_REQ_EN == DEF_ENABLED)
 943:..\..\..\..\..\..\uC-Probe\Target\Communication\Generic\Source/probe_com.c ****     avail = ProbeCom_StrOutAvail();
 944:..\..\..\..\..\..\uC-Probe\Target\Communication\Generic\Source/probe_com.c ****     if (avail == DEF_TRUE) {
 945:..\..\..\..\..\..\uC-Probe\Target\Communication\Generic\Source/probe_com.c ****         DEF_BIT_SET(mod, PROBE_COM_MODIFIER_STR_OUT_AVAIL);
 946:..\..\..\..\..\..\uC-Probe\Target\Communication\Generic\Source/probe_com.c ****     }
 947:..\..\..\..\..\..\uC-Probe\Target\Communication\Generic\Source/probe_com.c **** #endif
 948:..\..\..\..\..\..\uC-Probe\Target\Communication\Generic\Source/probe_com.c **** 
 949:..\..\..\..\..\..\uC-Probe\Target\Communication\Generic\Source/probe_com.c **** #if (PROBE_COM_CFG_TERMINAL_REQ_EN == DEF_ENABLED)
 950:..\..\..\..\..\..\uC-Probe\Target\Communication\Generic\Source/probe_com.c ****     avail = ProbeCom_TerminalOutAvail();
 951:..\..\..\..\..\..\uC-Probe\Target\Communication\Generic\Source/probe_com.c ****     if (avail == DEF_TRUE) {
 952:..\..\..\..\..\..\uC-Probe\Target\Communication\Generic\Source/probe_com.c ****         DEF_BIT_SET(mod, PROBE_COM_MODIFIER_TERMINAL_OUT_AVAIL);
 953:..\..\..\..\..\..\uC-Probe\Target\Communication\Generic\Source/probe_com.c ****     }
 954:..\..\..\..\..\..\uC-Probe\Target\Communication\Generic\Source/probe_com.c **** 
 955:..\..\..\..\..\..\uC-Probe\Target\Communication\Generic\Source/probe_com.c ****     done = ProbeCom_TerminalExecDone();
 956:..\..\..\..\..\..\uC-Probe\Target\Communication\Generic\Source/probe_com.c ****     if (done == DEF_TRUE) {
 957:..\..\..\..\..\..\uC-Probe\Target\Communication\Generic\Source/probe_com.c ****         DEF_BIT_SET(mod, PROBE_COM_MODIFIER_TERMINAL_EXEC_DONE);
 958:..\..\..\..\..\..\uC-Probe\Target\Communication\Generic\Source/probe_com.c ****     }
ARM GAS  C:\Users\daniel01\AppData\Local\Temp\ccHLFCB6.s 			page 23


 959:..\..\..\..\..\..\uC-Probe\Target\Communication\Generic\Source/probe_com.c **** #endif
 960:..\..\..\..\..\..\uC-Probe\Target\Communication\Generic\Source/probe_com.c **** 
 961:..\..\..\..\..\..\uC-Probe\Target\Communication\Generic\Source/probe_com.c ****     return (mod);
 293              		.loc 1 961 0
 294 000c FB79     		ldrb	r3, [r7, #7]	@ zero_extendqisi2
 962:..\..\..\..\..\..\uC-Probe\Target\Communication\Generic\Source/probe_com.c **** }
 295              		.loc 1 962 0
 296 000e 1846     		mov	r0, r3
 297 0010 07F10C07 		add	r7, r7, #12
 298 0014 BD46     		mov	sp, r7
 299 0016 80BC     		pop	{r7}
 300 0018 7047     		bx	lr
 301              		.cfi_endproc
 302              	.LFE2:
 303              		.size	ProbeCom_PktModifier, .-ProbeCom_PktModifier
 304 001a 00BF     		.section	.text.ProbeCom_ReqErr,"ax",%progbits
 305              		.align	2
 306              		.thumb
 307              		.thumb_func
 308              		.type	ProbeCom_ReqErr, %function
 309              	ProbeCom_ReqErr:
 310              	.LFB3:
 963:..\..\..\..\..\..\uC-Probe\Target\Communication\Generic\Source/probe_com.c **** 
 964:..\..\..\..\..\..\uC-Probe\Target\Communication\Generic\Source/probe_com.c **** 
 965:..\..\..\..\..\..\uC-Probe\Target\Communication\Generic\Source/probe_com.c **** /*
 966:..\..\..\..\..\..\uC-Probe\Target\Communication\Generic\Source/probe_com.c **** ***************************************************************************************************
 967:..\..\..\..\..\..\uC-Probe\Target\Communication\Generic\Source/probe_com.c **** *                                          ProbeCom_ReqErr()
 968:..\..\..\..\..\..\uC-Probe\Target\Communication\Generic\Source/probe_com.c **** *
 969:..\..\..\..\..\..\uC-Probe\Target\Communication\Generic\Source/probe_com.c **** * Description : Formulate error response when the target receives a request it cannot handle.
 970:..\..\..\..\..\..\uC-Probe\Target\Communication\Generic\Source/probe_com.c **** *
 971:..\..\..\..\..\..\uC-Probe\Target\Communication\Generic\Source/probe_com.c **** * Argument(s) : ptx_buf      Pointer to the transmit buffer
 972:..\..\..\..\..\..\uC-Probe\Target\Communication\Generic\Source/probe_com.c **** *
 973:..\..\..\..\..\..\uC-Probe\Target\Communication\Generic\Source/probe_com.c **** *               comm_err     Error that occurred
 974:..\..\..\..\..\..\uC-Probe\Target\Communication\Generic\Source/probe_com.c **** *
 975:..\..\..\..\..\..\uC-Probe\Target\Communication\Generic\Source/probe_com.c **** * Return(s)   : The number of bytes written to the tx buffer.
 976:..\..\..\..\..\..\uC-Probe\Target\Communication\Generic\Source/probe_com.c **** *
 977:..\..\..\..\..\..\uC-Probe\Target\Communication\Generic\Source/probe_com.c **** * Caller(s)   : Various command handlers (ProbeCom_Req????()).
 978:..\..\..\..\..\..\uC-Probe\Target\Communication\Generic\Source/probe_com.c **** *
 979:..\..\..\..\..\..\uC-Probe\Target\Communication\Generic\Source/probe_com.c **** * Note(s)     : (1) The TX format:
 980:..\..\..\..\..\..\uC-Probe\Target\Communication\Generic\Source/probe_com.c **** *
 981:..\..\..\..\..\..\uC-Probe\Target\Communication\Generic\Source/probe_com.c **** *                   (A) A 2-byte format  , indicating the data segment format;
 982:..\..\..\..\..\..\uC-Probe\Target\Communication\Generic\Source/probe_com.c **** *                   (B) A 1-byte constant, PROBE_RS232_OK,   if the location can    be read;
 983:..\..\..\..\..\..\uC-Probe\Target\Communication\Generic\Source/probe_com.c **** *                       A 1-byte constant, PROBE_RS232_FAIL, if the location cannot be read.
 984:..\..\..\..\..\..\uC-Probe\Target\Communication\Generic\Source/probe_com.c **** *                   (C) A 1-byte modifier.
 985:..\..\..\..\..\..\uC-Probe\Target\Communication\Generic\Source/probe_com.c **** *
 986:..\..\..\..\..\..\uC-Probe\Target\Communication\Generic\Source/probe_com.c **** *                         +-------------------------+------------+------------+
 987:..\..\..\..\..\..\uC-Probe\Target\Communication\Generic\Source/probe_com.c **** *                         |          Format         |   Status   |  Modifier  |
 988:..\..\..\..\..\..\uC-Probe\Target\Communication\Generic\Source/probe_com.c **** *                         +-------------------------+------------+------------+
 989:..\..\..\..\..\..\uC-Probe\Target\Communication\Generic\Source/probe_com.c **** ***************************************************************************************************
 990:..\..\..\..\..\..\uC-Probe\Target\Communication\Generic\Source/probe_com.c **** */
 991:..\..\..\..\..\..\uC-Probe\Target\Communication\Generic\Source/probe_com.c **** 
 992:..\..\..\..\..\..\uC-Probe\Target\Communication\Generic\Source/probe_com.c **** static  CPU_SIZE_T  ProbeCom_ReqErr (CPU_INT08U  *ptx_buf,
 993:..\..\..\..\..\..\uC-Probe\Target\Communication\Generic\Source/probe_com.c ****                                      CPU_INT08U   comm_err)
 994:..\..\..\..\..\..\uC-Probe\Target\Communication\Generic\Source/probe_com.c **** {
 311              		.loc 1 994 0
 312              		.cfi_startproc
 313              		@ args = 0, pretend = 0, frame = 16
ARM GAS  C:\Users\daniel01\AppData\Local\Temp\ccHLFCB6.s 			page 24


 314              		@ frame_needed = 1, uses_anonymous_args = 0
 315 0000 80B5     		push	{r7, lr}
 316              	.LCFI8:
 317              		.cfi_def_cfa_offset 8
 318 0002 84B0     		sub	sp, sp, #16
 319              	.LCFI9:
 320              		.cfi_def_cfa_offset 24
 321 0004 00AF     		add	r7, sp, #0
 322              		.cfi_offset 14, -4
 323              		.cfi_offset 7, -8
 324              	.LCFI10:
 325              		.cfi_def_cfa_register 7
 326 0006 7860     		str	r0, [r7, #4]
 327 0008 0B46     		mov	r3, r1
 328 000a FB70     		strb	r3, [r7, #3]
 995:..\..\..\..\..\..\uC-Probe\Target\Communication\Generic\Source/probe_com.c ****     CPU_SIZE_T  tx_len;
 996:..\..\..\..\..\..\uC-Probe\Target\Communication\Generic\Source/probe_com.c **** 
 997:..\..\..\..\..\..\uC-Probe\Target\Communication\Generic\Source/probe_com.c **** 
 998:..\..\..\..\..\..\uC-Probe\Target\Communication\Generic\Source/probe_com.c **** #if (PROBE_COM_CFG_STAT_EN == DEF_ENABLED)
 999:..\..\..\..\..\..\uC-Probe\Target\Communication\Generic\Source/probe_com.c ****     ProbeCom_ErrPktCtr++;
 329              		.loc 1 999 0
 330 000c 40F20003 		movw	r3, #:lower16:ProbeCom_ErrPktCtr
 331 0010 C0F20003 		movt	r3, #:upper16:ProbeCom_ErrPktCtr
 332 0014 1B68     		ldr	r3, [r3, #0]
 333 0016 03F10102 		add	r2, r3, #1
 334 001a 40F20003 		movw	r3, #:lower16:ProbeCom_ErrPktCtr
 335 001e C0F20003 		movt	r3, #:upper16:ProbeCom_ErrPktCtr
 336 0022 1A60     		str	r2, [r3, #0]
1000:..\..\..\..\..\..\uC-Probe\Target\Communication\Generic\Source/probe_com.c **** #endif
1001:..\..\..\..\..\..\uC-Probe\Target\Communication\Generic\Source/probe_com.c **** 
1002:..\..\..\..\..\..\uC-Probe\Target\Communication\Generic\Source/probe_com.c ****     ProbeCom_StoINT16U(&ptx_buf, PROBE_COM_FMT_TX_ERR);         /* Tx pkt fmt.                     
 337              		.loc 1 1002 0
 338 0024 07F10403 		add	r3, r7, #4
 339 0028 1846     		mov	r0, r3
 340 002a 4FF40041 		mov	r1, #32768
 341 002e FFF7FEFF 		bl	ProbeCom_StoINT16U
1003:..\..\..\..\..\..\uC-Probe\Target\Communication\Generic\Source/probe_com.c ****     ProbeCom_StoINT08U(&ptx_buf, comm_err);                     /* Target status.                  
 342              		.loc 1 1003 0
 343 0032 07F10402 		add	r2, r7, #4
 344 0036 FB78     		ldrb	r3, [r7, #3]	@ zero_extendqisi2
 345 0038 1046     		mov	r0, r2
 346 003a 1946     		mov	r1, r3
 347 003c FFF7FEFF 		bl	ProbeCom_StoINT08U
1004:..\..\..\..\..\..\uC-Probe\Target\Communication\Generic\Source/probe_com.c ****     ProbeCom_StoINT08U(&ptx_buf, ProbeCom_PktModifier());       /* Modifier.                       
 348              		.loc 1 1004 0
 349 0040 FFF7FEFF 		bl	ProbeCom_PktModifier
 350 0044 0346     		mov	r3, r0
 351 0046 07F10402 		add	r2, r7, #4
 352 004a 1046     		mov	r0, r2
 353 004c 1946     		mov	r1, r3
 354 004e FFF7FEFF 		bl	ProbeCom_StoINT08U
1005:..\..\..\..\..\..\uC-Probe\Target\Communication\Generic\Source/probe_com.c **** 
1006:..\..\..\..\..\..\uC-Probe\Target\Communication\Generic\Source/probe_com.c ****     tx_len = (CPU_SIZE_T)PROBE_COM_SIZE_TX_HDR;
 355              		.loc 1 1006 0
 356 0052 4FF00403 		mov	r3, #4
 357 0056 FB60     		str	r3, [r7, #12]
1007:..\..\..\..\..\..\uC-Probe\Target\Communication\Generic\Source/probe_com.c ****     return (tx_len);                                            /* Rtn TX data segment size =  4 (=
ARM GAS  C:\Users\daniel01\AppData\Local\Temp\ccHLFCB6.s 			page 25


 358              		.loc 1 1007 0
 359 0058 FB68     		ldr	r3, [r7, #12]
1008:..\..\..\..\..\..\uC-Probe\Target\Communication\Generic\Source/probe_com.c **** }
 360              		.loc 1 1008 0
 361 005a 1846     		mov	r0, r3
 362 005c 07F11007 		add	r7, r7, #16
 363 0060 BD46     		mov	sp, r7
 364 0062 80BD     		pop	{r7, pc}
 365              		.cfi_endproc
 366              	.LFE3:
 367              		.size	ProbeCom_ReqErr, .-ProbeCom_ReqErr
 368              		.section	.text.ProbeCom_ReqQuery,"ax",%progbits
 369              		.align	2
 370              		.thumb
 371              		.thumb_func
 372              		.type	ProbeCom_ReqQuery, %function
 373              	ProbeCom_ReqQuery:
 374              	.LFB4:
1009:..\..\..\..\..\..\uC-Probe\Target\Communication\Generic\Source/probe_com.c **** 
1010:..\..\..\..\..\..\uC-Probe\Target\Communication\Generic\Source/probe_com.c **** 
1011:..\..\..\..\..\..\uC-Probe\Target\Communication\Generic\Source/probe_com.c **** /*
1012:..\..\..\..\..\..\uC-Probe\Target\Communication\Generic\Source/probe_com.c **** ***************************************************************************************************
1013:..\..\..\..\..\..\uC-Probe\Target\Communication\Generic\Source/probe_com.c **** *                                         ProbeCom_ReqQuery()
1014:..\..\..\..\..\..\uC-Probe\Target\Communication\Generic\Source/probe_com.c **** *
1015:..\..\..\..\..\..\uC-Probe\Target\Communication\Generic\Source/probe_com.c **** * Description : Parse the FMT_QUERY command & formulate response.  This command asks the target
1016:..\..\..\..\..\..\uC-Probe\Target\Communication\Generic\Source/probe_com.c **** *               about its capabilities, which are returned in response.
1017:..\..\..\..\..\..\uC-Probe\Target\Communication\Generic\Source/probe_com.c **** *
1018:..\..\..\..\..\..\uC-Probe\Target\Communication\Generic\Source/probe_com.c **** * Argument(s) : prx_buf         Pointer to the receive  buffer
1019:..\..\..\..\..\..\uC-Probe\Target\Communication\Generic\Source/probe_com.c **** *
1020:..\..\..\..\..\..\uC-Probe\Target\Communication\Generic\Source/probe_com.c **** *               ptx_buf         Pointer to the transmit buffer
1021:..\..\..\..\..\..\uC-Probe\Target\Communication\Generic\Source/probe_com.c **** *
1022:..\..\..\..\..\..\uC-Probe\Target\Communication\Generic\Source/probe_com.c **** *               rx_pkt_size     Size of the receive  packet
1023:..\..\..\..\..\..\uC-Probe\Target\Communication\Generic\Source/probe_com.c **** *
1024:..\..\..\..\..\..\uC-Probe\Target\Communication\Generic\Source/probe_com.c **** *               tx_buf_size     Size of the transmit buffer
1025:..\..\..\..\..\..\uC-Probe\Target\Communication\Generic\Source/probe_com.c **** *
1026:..\..\..\..\..\..\uC-Probe\Target\Communication\Generic\Source/probe_com.c **** * Return(s)   : The number of bytes written to the tx buffer.
1027:..\..\..\..\..\..\uC-Probe\Target\Communication\Generic\Source/probe_com.c **** *
1028:..\..\..\..\..\..\uC-Probe\Target\Communication\Generic\Source/probe_com.c **** * Caller(s)   : ProbeCom_ParseRxPkt().
1029:..\..\..\..\..\..\uC-Probe\Target\Communication\Generic\Source/probe_com.c **** *
1030:..\..\..\..\..\..\uC-Probe\Target\Communication\Generic\Source/probe_com.c **** * Note(s)     : (1) The RX format:
1031:..\..\..\..\..\..\uC-Probe\Target\Communication\Generic\Source/probe_com.c **** *
1032:..\..\..\..\..\..\uC-Probe\Target\Communication\Generic\Source/probe_com.c **** *                   (A) A 2-byte format, indicating the data segment format;
1033:..\..\..\..\..\..\uC-Probe\Target\Communication\Generic\Source/probe_com.c **** *                   (B) A 2-byte query , indicating the query type.
1034:..\..\..\..\..\..\uC-Probe\Target\Communication\Generic\Source/probe_com.c **** *
1035:..\..\..\..\..\..\uC-Probe\Target\Communication\Generic\Source/probe_com.c **** *                         +-------------------------+-------------------------+
1036:..\..\..\..\..\..\uC-Probe\Target\Communication\Generic\Source/probe_com.c **** *                         |          Format         |          Query          |
1037:..\..\..\..\..\..\uC-Probe\Target\Communication\Generic\Source/probe_com.c **** *                         +-------------------------+-------------------------+
1038:..\..\..\..\..\..\uC-Probe\Target\Communication\Generic\Source/probe_com.c **** *
1039:..\..\..\..\..\..\uC-Probe\Target\Communication\Generic\Source/probe_com.c **** *              (2) The TX format:
1040:..\..\..\..\..\..\uC-Probe\Target\Communication\Generic\Source/probe_com.c **** *
1041:..\..\..\..\..\..\uC-Probe\Target\Communication\Generic\Source/probe_com.c **** *                   (A) A 2-byte format, indicating the data segment format;
1042:..\..\..\..\..\..\uC-Probe\Target\Communication\Generic\Source/probe_com.c **** *                   (B) A 1-byte status, indicating the status after the request;
1043:..\..\..\..\..\..\uC-Probe\Target\Communication\Generic\Source/probe_com.c **** *                   (C) A 1-byte modifier;
1044:..\..\..\..\..\..\uC-Probe\Target\Communication\Generic\Source/probe_com.c **** *                   (E) A n-byte answer, the answer to the query.
1045:..\..\..\..\..\..\uC-Probe\Target\Communication\Generic\Source/probe_com.c **** *
1046:..\..\..\..\..\..\uC-Probe\Target\Communication\Generic\Source/probe_com.c **** *                         +-------------------------+------------+------------+
1047:..\..\..\..\..\..\uC-Probe\Target\Communication\Generic\Source/probe_com.c **** *                         |          Format         |   Status   |  Modifier  |
ARM GAS  C:\Users\daniel01\AppData\Local\Temp\ccHLFCB6.s 			page 26


1048:..\..\..\..\..\..\uC-Probe\Target\Communication\Generic\Source/probe_com.c **** *                         +-------------------------+------------+------------+
1049:..\..\..\..\..\..\uC-Probe\Target\Communication\Generic\Source/probe_com.c **** *                         |                       Answer                      |
1050:..\..\..\..\..\..\uC-Probe\Target\Communication\Generic\Source/probe_com.c **** *                         |                         .                         |
1051:..\..\..\..\..\..\uC-Probe\Target\Communication\Generic\Source/probe_com.c **** *                         |                         .                         |
1052:..\..\..\..\..\..\uC-Probe\Target\Communication\Generic\Source/probe_com.c **** *                         |                         .                         |
1053:..\..\..\..\..\..\uC-Probe\Target\Communication\Generic\Source/probe_com.c **** *                         +---------------------------------------------------+
1054:..\..\..\..\..\..\uC-Probe\Target\Communication\Generic\Source/probe_com.c **** *
1055:..\..\..\..\..\..\uC-Probe\Target\Communication\Generic\Source/probe_com.c **** ***************************************************************************************************
1056:..\..\..\..\..\..\uC-Probe\Target\Communication\Generic\Source/probe_com.c **** */
1057:..\..\..\..\..\..\uC-Probe\Target\Communication\Generic\Source/probe_com.c **** 
1058:..\..\..\..\..\..\uC-Probe\Target\Communication\Generic\Source/probe_com.c **** static  CPU_SIZE_T  ProbeCom_ReqQuery (CPU_INT08U  *prx_buf,
1059:..\..\..\..\..\..\uC-Probe\Target\Communication\Generic\Source/probe_com.c ****                                        CPU_INT08U  *ptx_buf,
1060:..\..\..\..\..\..\uC-Probe\Target\Communication\Generic\Source/probe_com.c ****                                        CPU_SIZE_T   rx_pkt_size,
1061:..\..\..\..\..\..\uC-Probe\Target\Communication\Generic\Source/probe_com.c ****                                        CPU_SIZE_T   tx_buf_size)
1062:..\..\..\..\..\..\uC-Probe\Target\Communication\Generic\Source/probe_com.c **** {
 375              		.loc 1 1062 0
 376              		.cfi_startproc
 377              		@ args = 0, pretend = 0, frame = 32
 378              		@ frame_needed = 1, uses_anonymous_args = 0
 379 0000 80B5     		push	{r7, lr}
 380              	.LCFI11:
 381              		.cfi_def_cfa_offset 8
 382 0002 88B0     		sub	sp, sp, #32
 383              	.LCFI12:
 384              		.cfi_def_cfa_offset 40
 385 0004 00AF     		add	r7, sp, #0
 386              		.cfi_offset 14, -4
 387              		.cfi_offset 7, -8
 388              	.LCFI13:
 389              		.cfi_def_cfa_register 7
 390 0006 F860     		str	r0, [r7, #12]
 391 0008 B960     		str	r1, [r7, #8]
 392 000a 7A60     		str	r2, [r7, #4]
 393 000c 3B60     		str	r3, [r7, #0]
1063:..\..\..\..\..\..\uC-Probe\Target\Communication\Generic\Source/probe_com.c ****     CPU_INT16U  query;
1064:..\..\..\..\..\..\uC-Probe\Target\Communication\Generic\Source/probe_com.c ****     CPU_INT32U  status;
1065:..\..\..\..\..\..\uC-Probe\Target\Communication\Generic\Source/probe_com.c ****     CPU_SIZE_T  tx_len;
1066:..\..\..\..\..\..\uC-Probe\Target\Communication\Generic\Source/probe_com.c ****     CPU_INT32U  version;
1067:..\..\..\..\..\..\uC-Probe\Target\Communication\Generic\Source/probe_com.c **** 
1068:..\..\..\..\..\..\uC-Probe\Target\Communication\Generic\Source/probe_com.c **** 
1069:..\..\..\..\..\..\uC-Probe\Target\Communication\Generic\Source/probe_com.c ****    (void)&tx_buf_size;                                          /* Prevent compiler warning.       
1070:..\..\..\..\..\..\uC-Probe\Target\Communication\Generic\Source/probe_com.c **** 
1071:..\..\..\..\..\..\uC-Probe\Target\Communication\Generic\Source/probe_com.c ****                                                                 /* ------------------- CHK PKT SIZE
1072:..\..\..\..\..\..\uC-Probe\Target\Communication\Generic\Source/probe_com.c ****                                                                 /* Expected size =  2 (= Rx hdr siz
1073:..\..\..\..\..\..\uC-Probe\Target\Communication\Generic\Source/probe_com.c ****                                                                 /*               +  2 (= Query     
1074:..\..\..\..\..\..\uC-Probe\Target\Communication\Generic\Source/probe_com.c ****     if (rx_pkt_size != 4u) {
 394              		.loc 1 1074 0
 395 000e 7B68     		ldr	r3, [r7, #4]
 396 0010 042B     		cmp	r3, #4
 397 0012 09D0     		beq	.L20
1075:..\..\..\..\..\..\uC-Probe\Target\Communication\Generic\Source/probe_com.c ****         tx_len = ProbeCom_ReqErr(ptx_buf, PROBE_COM_STATUS_RX_PKT_WRONG_SIZE);
 398              		.loc 1 1075 0
 399 0014 BB68     		ldr	r3, [r7, #8]
 400 0016 1846     		mov	r0, r3
 401 0018 4FF0FE01 		mov	r1, #254
 402 001c FFF7FEFF 		bl	ProbeCom_ReqErr
 403 0020 0346     		mov	r3, r0
ARM GAS  C:\Users\daniel01\AppData\Local\Temp\ccHLFCB6.s 			page 27


 404 0022 FB61     		str	r3, [r7, #28]
1076:..\..\..\..\..\..\uC-Probe\Target\Communication\Generic\Source/probe_com.c ****         return (tx_len);
 405              		.loc 1 1076 0
 406 0024 FB69     		ldr	r3, [r7, #28]
 407 0026 EBE0     		b	.L21
 408              	.L20:
1077:..\..\..\..\..\..\uC-Probe\Target\Communication\Generic\Source/probe_com.c ****     }
1078:..\..\..\..\..\..\uC-Probe\Target\Communication\Generic\Source/probe_com.c **** 
1079:..\..\..\..\..\..\uC-Probe\Target\Communication\Generic\Source/probe_com.c ****                                                                 /* ------------------- HANDLE QUERY
1080:..\..\..\..\..\..\uC-Probe\Target\Communication\Generic\Source/probe_com.c ****     query = ProbeCom_GetINT16U(&prx_buf);                       /* Rd the query.                   
 409              		.loc 1 1080 0
 410 0028 07F10C03 		add	r3, r7, #12
 411 002c 1846     		mov	r0, r3
 412 002e FFF7FEFF 		bl	ProbeCom_GetINT16U
 413 0032 0346     		mov	r3, r0
 414 0034 7B83     		strh	r3, [r7, #26]	@ movhi
1081:..\..\..\..\..\..\uC-Probe\Target\Communication\Generic\Source/probe_com.c **** 
1082:..\..\..\..\..\..\uC-Probe\Target\Communication\Generic\Source/probe_com.c ****     switch (query) {                                            /* Determine if query is supported.
 415              		.loc 1 1082 0
 416 0036 7B8B     		ldrh	r3, [r7, #26]
 417 0038 40F20222 		movw	r2, #514
 418 003c 9342     		cmp	r3, r2
 419 003e 0ADC     		bgt	.L24
 420 0040 40F20122 		movw	r2, #513
 421 0044 9342     		cmp	r3, r2
 422 0046 0CDA     		bge	.L23
 423 0048 A3F58073 		sub	r3, r3, #256
 424 004c 03F1FF33 		add	r3, r3, #-1
 425 0050 012B     		cmp	r3, #1
 426 0052 3CD8     		bhi	.L22
 427 0054 05E0     		b	.L23
 428              	.L24:
 429 0056 A3F58053 		sub	r3, r3, #4096
 430 005a 03F1FF33 		add	r3, r3, #-1
 431 005e 012B     		cmp	r3, #1
 432 0060 35D8     		bhi	.L22
 433              	.L23:
1083:..\..\..\..\..\..\uC-Probe\Target\Communication\Generic\Source/probe_com.c ****         case PROBE_COM_QUERY_MAX_RX_SIZE:
1084:..\..\..\..\..\..\uC-Probe\Target\Communication\Generic\Source/probe_com.c ****         case PROBE_COM_QUERY_MAX_TX_SIZE:
1085:..\..\..\..\..\..\uC-Probe\Target\Communication\Generic\Source/probe_com.c ****         case PROBE_COM_QUERY_FMT_SUPPORT:
1086:..\..\..\..\..\..\uC-Probe\Target\Communication\Generic\Source/probe_com.c ****         case PROBE_COM_QUERY_ENDIANNESS_TEST:
1087:..\..\..\..\..\..\uC-Probe\Target\Communication\Generic\Source/probe_com.c ****         case PROBE_COM_QUERY_STATUS:
1088:..\..\..\..\..\..\uC-Probe\Target\Communication\Generic\Source/probe_com.c ****         case PROBE_COM_QUERY_VERSION:
1089:..\..\..\..\..\..\uC-Probe\Target\Communication\Generic\Source/probe_com.c ****              break;
1090:..\..\..\..\..\..\uC-Probe\Target\Communication\Generic\Source/probe_com.c **** 
1091:..\..\..\..\..\..\uC-Probe\Target\Communication\Generic\Source/probe_com.c ****         default:
1092:..\..\..\..\..\..\uC-Probe\Target\Communication\Generic\Source/probe_com.c ****              tx_len = ProbeCom_ReqErr(ptx_buf, PROBE_COM_STATUS_QUERY_NOT_SUPPORTED);
1093:..\..\..\..\..\..\uC-Probe\Target\Communication\Generic\Source/probe_com.c ****              return (tx_len);
1094:..\..\..\..\..\..\uC-Probe\Target\Communication\Generic\Source/probe_com.c ****     }
1095:..\..\..\..\..\..\uC-Probe\Target\Communication\Generic\Source/probe_com.c **** 
1096:..\..\..\..\..\..\uC-Probe\Target\Communication\Generic\Source/probe_com.c ****                                                                 /* Sto tx pkt hdr :                
1097:..\..\..\..\..\..\uC-Probe\Target\Communication\Generic\Source/probe_com.c ****     ProbeCom_StoINT16U(&ptx_buf, PROBE_COM_FMT_TX_QUERY);       /*  (a) TX pkt fmt.                
 434              		.loc 1 1097 0
 435 0062 07F10803 		add	r3, r7, #8
 436 0066 1846     		mov	r0, r3
 437 0068 48F20101 		movw	r1, #32769
 438 006c FFF7FEFF 		bl	ProbeCom_StoINT16U
ARM GAS  C:\Users\daniel01\AppData\Local\Temp\ccHLFCB6.s 			page 28


1098:..\..\..\..\..\..\uC-Probe\Target\Communication\Generic\Source/probe_com.c ****     ProbeCom_StoINT08U(&ptx_buf, PROBE_COM_STATUS_OK);          /*  (b) Target status.             
 439              		.loc 1 1098 0
 440 0070 07F10803 		add	r3, r7, #8
 441 0074 1846     		mov	r0, r3
 442 0076 4FF00101 		mov	r1, #1
 443 007a FFF7FEFF 		bl	ProbeCom_StoINT08U
1099:..\..\..\..\..\..\uC-Probe\Target\Communication\Generic\Source/probe_com.c ****     ProbeCom_StoINT08U(&ptx_buf, ProbeCom_PktModifier());       /*  (c) Modifier.                  
 444              		.loc 1 1099 0
 445 007e FFF7FEFF 		bl	ProbeCom_PktModifier
 446 0082 0346     		mov	r3, r0
 447 0084 07F10802 		add	r2, r7, #8
 448 0088 1046     		mov	r0, r2
 449 008a 1946     		mov	r1, r3
 450 008c FFF7FEFF 		bl	ProbeCom_StoINT08U
1100:..\..\..\..\..\..\uC-Probe\Target\Communication\Generic\Source/probe_com.c **** 
1101:..\..\..\..\..\..\uC-Probe\Target\Communication\Generic\Source/probe_com.c ****                                                                 /* Sto tx data segment data.       
1102:..\..\..\..\..\..\uC-Probe\Target\Communication\Generic\Source/probe_com.c ****     switch (query) {
 451              		.loc 1 1102 0
 452 0090 7B8B     		ldrh	r3, [r7, #26]
 453 0092 40F20122 		movw	r2, #513
 454 0096 9342     		cmp	r3, r2
 455 0098 72D0     		beq	.L28
 456 009a 40F20122 		movw	r2, #513
 457 009e 9342     		cmp	r3, r2
 458 00a0 07DC     		bgt	.L32
 459 00a2 40F20112 		movw	r2, #257
 460 00a6 9342     		cmp	r3, r2
 461 00a8 1BD0     		beq	.L26
 462 00aa B3F5817F 		cmp	r3, #258
 463 00ae 2AD0     		beq	.L27
 464 00b0 9EE0     		b	.L25
 465              	.L32:
 466 00b2 41F20102 		movw	r2, #4097
 467 00b6 9342     		cmp	r3, r2
 468 00b8 37D0     		beq	.L30
 469 00ba 41F20202 		movw	r2, #4098
 470 00be 9342     		cmp	r3, r2
 471 00c0 00F08680 		beq	.L31
 472 00c4 40F20222 		movw	r2, #514
 473 00c8 9342     		cmp	r3, r2
 474 00ca 70D0     		beq	.L29
 475 00cc 90E0     		b	.L25
 476              	.L22:
 477              		.loc 1 1092 0
 478 00ce BB68     		ldr	r3, [r7, #8]
 479 00d0 1846     		mov	r0, r3
 480 00d2 4FF0FC01 		mov	r1, #252
 481 00d6 FFF7FEFF 		bl	ProbeCom_ReqErr
 482 00da 0346     		mov	r3, r0
 483 00dc FB61     		str	r3, [r7, #28]
 484              		.loc 1 1093 0
 485 00de FB69     		ldr	r3, [r7, #28]
 486 00e0 8EE0     		b	.L21
 487              	.L26:
1103:..\..\..\..\..\..\uC-Probe\Target\Communication\Generic\Source/probe_com.c ****         case PROBE_COM_QUERY_MAX_RX_SIZE:
1104:..\..\..\..\..\..\uC-Probe\Target\Communication\Generic\Source/probe_com.c ****              ProbeCom_StoINT16U(&ptx_buf, PROBE_COM_CFG_RX_MAX_SIZE);
 488              		.loc 1 1104 0
ARM GAS  C:\Users\daniel01\AppData\Local\Temp\ccHLFCB6.s 			page 29


 489 00e2 07F10803 		add	r3, r7, #8
 490 00e6 1846     		mov	r0, r3
 491 00e8 4FF40071 		mov	r1, #512
 492 00ec FFF7FEFF 		bl	ProbeCom_StoINT16U
1105:..\..\..\..\..\..\uC-Probe\Target\Communication\Generic\Source/probe_com.c ****              ProbeCom_StoINT16U(&ptx_buf, 0);
 493              		.loc 1 1105 0
 494 00f0 07F10803 		add	r3, r7, #8
 495 00f4 1846     		mov	r0, r3
 496 00f6 4FF00001 		mov	r1, #0
 497 00fa FFF7FEFF 		bl	ProbeCom_StoINT16U
1106:..\..\..\..\..\..\uC-Probe\Target\Communication\Generic\Source/probe_com.c ****              tx_len  = 4u;
 498              		.loc 1 1106 0
 499 00fe 4FF00403 		mov	r3, #4
 500 0102 FB61     		str	r3, [r7, #28]
1107:..\..\..\..\..\..\uC-Probe\Target\Communication\Generic\Source/probe_com.c ****              break;
 501              		.loc 1 1107 0
 502 0104 77E0     		b	.L33
 503              	.L27:
1108:..\..\..\..\..\..\uC-Probe\Target\Communication\Generic\Source/probe_com.c **** 
1109:..\..\..\..\..\..\uC-Probe\Target\Communication\Generic\Source/probe_com.c **** 
1110:..\..\..\..\..\..\uC-Probe\Target\Communication\Generic\Source/probe_com.c ****         case PROBE_COM_QUERY_MAX_TX_SIZE:
1111:..\..\..\..\..\..\uC-Probe\Target\Communication\Generic\Source/probe_com.c ****              ProbeCom_StoINT16U(&ptx_buf, PROBE_COM_CFG_TX_MAX_SIZE);
 504              		.loc 1 1111 0
 505 0106 07F10803 		add	r3, r7, #8
 506 010a 1846     		mov	r0, r3
 507 010c 4FF40071 		mov	r1, #512
 508 0110 FFF7FEFF 		bl	ProbeCom_StoINT16U
1112:..\..\..\..\..\..\uC-Probe\Target\Communication\Generic\Source/probe_com.c ****              ProbeCom_StoINT16U(&ptx_buf, 0);
 509              		.loc 1 1112 0
 510 0114 07F10803 		add	r3, r7, #8
 511 0118 1846     		mov	r0, r3
 512 011a 4FF00001 		mov	r1, #0
 513 011e FFF7FEFF 		bl	ProbeCom_StoINT16U
1113:..\..\..\..\..\..\uC-Probe\Target\Communication\Generic\Source/probe_com.c ****              tx_len  = 4u;
 514              		.loc 1 1113 0
 515 0122 4FF00403 		mov	r3, #4
 516 0126 FB61     		str	r3, [r7, #28]
1114:..\..\..\..\..\..\uC-Probe\Target\Communication\Generic\Source/probe_com.c ****              break;
 517              		.loc 1 1114 0
 518 0128 65E0     		b	.L33
 519              	.L30:
1115:..\..\..\..\..\..\uC-Probe\Target\Communication\Generic\Source/probe_com.c **** 
1116:..\..\..\..\..\..\uC-Probe\Target\Communication\Generic\Source/probe_com.c **** 
1117:..\..\..\..\..\..\uC-Probe\Target\Communication\Generic\Source/probe_com.c ****         case PROBE_COM_QUERY_FMT_SUPPORT:
1118:..\..\..\..\..\..\uC-Probe\Target\Communication\Generic\Source/probe_com.c ****              ProbeCom_StoINT16U(&ptx_buf, PROBE_COM_FMT_RX_QUERY);
 520              		.loc 1 1118 0
 521 012a 07F10803 		add	r3, r7, #8
 522 012e 1846     		mov	r0, r3
 523 0130 4FF00101 		mov	r1, #1
 524 0134 FFF7FEFF 		bl	ProbeCom_StoINT16U
1119:..\..\..\..\..\..\uC-Probe\Target\Communication\Generic\Source/probe_com.c ****              ProbeCom_StoINT16U(&ptx_buf, PROBE_COM_FMT_RX_RD);
 525              		.loc 1 1119 0
 526 0138 07F10803 		add	r3, r7, #8
 527 013c 1846     		mov	r0, r3
 528 013e 4FF00201 		mov	r1, #2
 529 0142 FFF7FEFF 		bl	ProbeCom_StoINT16U
1120:..\..\..\..\..\..\uC-Probe\Target\Communication\Generic\Source/probe_com.c ****              ProbeCom_StoINT16U(&ptx_buf, PROBE_COM_FMT_RX_RD_MULTI);
ARM GAS  C:\Users\daniel01\AppData\Local\Temp\ccHLFCB6.s 			page 30


 530              		.loc 1 1120 0
 531 0146 07F10803 		add	r3, r7, #8
 532 014a 1846     		mov	r0, r3
 533 014c 4FF00701 		mov	r1, #7
 534 0150 FFF7FEFF 		bl	ProbeCom_StoINT16U
1121:..\..\..\..\..\..\uC-Probe\Target\Communication\Generic\Source/probe_com.c ****              tx_len  = 8u;
 535              		.loc 1 1121 0
 536 0154 4FF00803 		mov	r3, #8
 537 0158 FB61     		str	r3, [r7, #28]
1122:..\..\..\..\..\..\uC-Probe\Target\Communication\Generic\Source/probe_com.c **** #if (PROBE_COM_CFG_WR_REQ_EN == DEF_ENABLED)
1123:..\..\..\..\..\..\uC-Probe\Target\Communication\Generic\Source/probe_com.c ****              ProbeCom_StoINT16U(&ptx_buf, PROBE_COM_FMT_RX_WR);
 538              		.loc 1 1123 0
 539 015a 07F10803 		add	r3, r7, #8
 540 015e 1846     		mov	r0, r3
 541 0160 4FF00301 		mov	r1, #3
 542 0164 FFF7FEFF 		bl	ProbeCom_StoINT16U
1124:..\..\..\..\..\..\uC-Probe\Target\Communication\Generic\Source/probe_com.c ****              ProbeCom_StoINT16U(&ptx_buf, PROBE_COM_FMT_RX_WR_MULTI);
 543              		.loc 1 1124 0
 544 0168 07F10803 		add	r3, r7, #8
 545 016c 1846     		mov	r0, r3
 546 016e 4FF00801 		mov	r1, #8
 547 0172 FFF7FEFF 		bl	ProbeCom_StoINT16U
1125:..\..\..\..\..\..\uC-Probe\Target\Communication\Generic\Source/probe_com.c ****              tx_len += 4u;
 548              		.loc 1 1125 0
 549 0176 FB69     		ldr	r3, [r7, #28]
 550 0178 03F10403 		add	r3, r3, #4
 551 017c FB61     		str	r3, [r7, #28]
1126:..\..\..\..\..\..\uC-Probe\Target\Communication\Generic\Source/probe_com.c **** #endif
1127:..\..\..\..\..\..\uC-Probe\Target\Communication\Generic\Source/probe_com.c **** #if (PROBE_COM_CFG_STR_REQ_EN == DEF_ENABLED)
1128:..\..\..\..\..\..\uC-Probe\Target\Communication\Generic\Source/probe_com.c ****              ProbeCom_StoINT16U(&ptx_buf, PROBE_COM_FMT_RX_STR_IN);
1129:..\..\..\..\..\..\uC-Probe\Target\Communication\Generic\Source/probe_com.c ****              ProbeCom_StoINT16U(&ptx_buf, PROBE_COM_FMT_RX_STR_OUT);
1130:..\..\..\..\..\..\uC-Probe\Target\Communication\Generic\Source/probe_com.c ****              tx_len += 4u;
1131:..\..\..\..\..\..\uC-Probe\Target\Communication\Generic\Source/probe_com.c **** #endif
1132:..\..\..\..\..\..\uC-Probe\Target\Communication\Generic\Source/probe_com.c **** #if (PROBE_COM_CFG_TERMINAL_REQ_EN == DEF_ENABLED)
1133:..\..\..\..\..\..\uC-Probe\Target\Communication\Generic\Source/probe_com.c ****              ProbeCom_StoINT16U(&ptx_buf, PROBE_COM_FMT_RX_TERMINAL_EXEC);
1134:..\..\..\..\..\..\uC-Probe\Target\Communication\Generic\Source/probe_com.c ****              ProbeCom_StoINT16U(&ptx_buf, PROBE_COM_FMT_RX_TERMINAL_IN);
1135:..\..\..\..\..\..\uC-Probe\Target\Communication\Generic\Source/probe_com.c ****              ProbeCom_StoINT16U(&ptx_buf, PROBE_COM_FMT_RX_TERMINAL_OUT);
1136:..\..\..\..\..\..\uC-Probe\Target\Communication\Generic\Source/probe_com.c ****              tx_len += 6u;
1137:..\..\..\..\..\..\uC-Probe\Target\Communication\Generic\Source/probe_com.c **** #endif
1138:..\..\..\..\..\..\uC-Probe\Target\Communication\Generic\Source/probe_com.c ****              break;
 552              		.loc 1 1138 0
 553 017e 3AE0     		b	.L33
 554              	.L28:
1139:..\..\..\..\..\..\uC-Probe\Target\Communication\Generic\Source/probe_com.c **** 
1140:..\..\..\..\..\..\uC-Probe\Target\Communication\Generic\Source/probe_com.c **** 
1141:..\..\..\..\..\..\uC-Probe\Target\Communication\Generic\Source/probe_com.c ****         case PROBE_COM_QUERY_ENDIANNESS_TEST:
1142:..\..\..\..\..\..\uC-Probe\Target\Communication\Generic\Source/probe_com.c ****              ProbeCom_EndiannessTest = 0x12345678;
 555              		.loc 1 1142 0
 556 0180 40F20003 		movw	r3, #:lower16:ProbeCom_EndiannessTest
 557 0184 C0F20003 		movt	r3, #:upper16:ProbeCom_EndiannessTest
 558 0188 45F27862 		movw	r2, #:lower16:305419896
 559 018c C1F23422 		movt	r2, #:upper16:305419896
 560 0190 1A60     		str	r2, [r3, #0]
1143:..\..\..\..\..\..\uC-Probe\Target\Communication\Generic\Source/probe_com.c ****              Mem_Copy((void     *) ptx_buf,
 561              		.loc 1 1143 0
 562 0192 BB68     		ldr	r3, [r7, #8]
 563 0194 1846     		mov	r0, r3
ARM GAS  C:\Users\daniel01\AppData\Local\Temp\ccHLFCB6.s 			page 31


 564 0196 40F20001 		movw	r1, #:lower16:ProbeCom_EndiannessTest
 565 019a C0F20001 		movt	r1, #:upper16:ProbeCom_EndiannessTest
 566 019e 4FF00402 		mov	r2, #4
 567 01a2 FFF7FEFF 		bl	Mem_Copy
1144:..\..\..\..\..\..\uC-Probe\Target\Communication\Generic\Source/probe_com.c ****                       (void     *)&ProbeCom_EndiannessTest,
1145:..\..\..\..\..\..\uC-Probe\Target\Communication\Generic\Source/probe_com.c ****                       (CPU_SIZE_T) 4);
1146:..\..\..\..\..\..\uC-Probe\Target\Communication\Generic\Source/probe_com.c ****              tx_len  = 4u;
 568              		.loc 1 1146 0
 569 01a6 4FF00403 		mov	r3, #4
 570 01aa FB61     		str	r3, [r7, #28]
1147:..\..\..\..\..\..\uC-Probe\Target\Communication\Generic\Source/probe_com.c ****              break;
 571              		.loc 1 1147 0
 572 01ac 23E0     		b	.L33
 573              	.L29:
1148:..\..\..\..\..\..\uC-Probe\Target\Communication\Generic\Source/probe_com.c **** 
1149:..\..\..\..\..\..\uC-Probe\Target\Communication\Generic\Source/probe_com.c **** 
1150:..\..\..\..\..\..\uC-Probe\Target\Communication\Generic\Source/probe_com.c ****         case PROBE_COM_QUERY_STATUS:
1151:..\..\..\..\..\..\uC-Probe\Target\Communication\Generic\Source/probe_com.c ****              status = (CPU_INT32U)ProbeCom_PktModifier();
 574              		.loc 1 1151 0
 575 01ae FFF7FEFF 		bl	ProbeCom_PktModifier
 576 01b2 0346     		mov	r3, r0
 577 01b4 7B61     		str	r3, [r7, #20]
1152:..\..\..\..\..\..\uC-Probe\Target\Communication\Generic\Source/probe_com.c ****              Mem_Copy((void     *) ptx_buf,
 578              		.loc 1 1152 0
 579 01b6 BA68     		ldr	r2, [r7, #8]
 580 01b8 07F11403 		add	r3, r7, #20
 581 01bc 1046     		mov	r0, r2
 582 01be 1946     		mov	r1, r3
 583 01c0 4FF00402 		mov	r2, #4
 584 01c4 FFF7FEFF 		bl	Mem_Copy
1153:..\..\..\..\..\..\uC-Probe\Target\Communication\Generic\Source/probe_com.c ****                       (void     *)&status,
1154:..\..\..\..\..\..\uC-Probe\Target\Communication\Generic\Source/probe_com.c ****                       (CPU_SIZE_T) 4);
1155:..\..\..\..\..\..\uC-Probe\Target\Communication\Generic\Source/probe_com.c ****              tx_len = 4u;
 585              		.loc 1 1155 0
 586 01c8 4FF00403 		mov	r3, #4
 587 01cc FB61     		str	r3, [r7, #28]
1156:..\..\..\..\..\..\uC-Probe\Target\Communication\Generic\Source/probe_com.c ****              break;
 588              		.loc 1 1156 0
 589 01ce 12E0     		b	.L33
 590              	.L31:
1157:..\..\..\..\..\..\uC-Probe\Target\Communication\Generic\Source/probe_com.c **** 
1158:..\..\..\..\..\..\uC-Probe\Target\Communication\Generic\Source/probe_com.c **** 
1159:..\..\..\..\..\..\uC-Probe\Target\Communication\Generic\Source/probe_com.c ****         case PROBE_COM_QUERY_VERSION:
1160:..\..\..\..\..\..\uC-Probe\Target\Communication\Generic\Source/probe_com.c ****              version = PROBE_COM_VERSION;
 591              		.loc 1 1160 0
 592 01d0 4FF0DC03 		mov	r3, #220
 593 01d4 3B61     		str	r3, [r7, #16]
1161:..\..\..\..\..\..\uC-Probe\Target\Communication\Generic\Source/probe_com.c ****              Mem_Copy((void     *) ptx_buf,
 594              		.loc 1 1161 0
 595 01d6 BA68     		ldr	r2, [r7, #8]
 596 01d8 07F11003 		add	r3, r7, #16
 597 01dc 1046     		mov	r0, r2
 598 01de 1946     		mov	r1, r3
 599 01e0 4FF00402 		mov	r2, #4
 600 01e4 FFF7FEFF 		bl	Mem_Copy
1162:..\..\..\..\..\..\uC-Probe\Target\Communication\Generic\Source/probe_com.c ****                       (void     *)&version,
1163:..\..\..\..\..\..\uC-Probe\Target\Communication\Generic\Source/probe_com.c ****                       (CPU_SIZE_T) 4);
ARM GAS  C:\Users\daniel01\AppData\Local\Temp\ccHLFCB6.s 			page 32


1164:..\..\..\..\..\..\uC-Probe\Target\Communication\Generic\Source/probe_com.c ****              tx_len  = 4u;
 601              		.loc 1 1164 0
 602 01e8 4FF00403 		mov	r3, #4
 603 01ec FB61     		str	r3, [r7, #28]
1165:..\..\..\..\..\..\uC-Probe\Target\Communication\Generic\Source/probe_com.c ****              break;
 604              		.loc 1 1165 0
 605 01ee 02E0     		b	.L33
 606              	.L25:
1166:..\..\..\..\..\..\uC-Probe\Target\Communication\Generic\Source/probe_com.c **** 
1167:..\..\..\..\..\..\uC-Probe\Target\Communication\Generic\Source/probe_com.c **** 
1168:..\..\..\..\..\..\uC-Probe\Target\Communication\Generic\Source/probe_com.c ****         default:
1169:..\..\..\..\..\..\uC-Probe\Target\Communication\Generic\Source/probe_com.c ****              tx_len  = 0u;
 607              		.loc 1 1169 0
 608 01f0 4FF00003 		mov	r3, #0
 609 01f4 FB61     		str	r3, [r7, #28]
 610              	.L33:
1170:..\..\..\..\..\..\uC-Probe\Target\Communication\Generic\Source/probe_com.c ****              break;
1171:..\..\..\..\..\..\uC-Probe\Target\Communication\Generic\Source/probe_com.c ****     }
1172:..\..\..\..\..\..\uC-Probe\Target\Communication\Generic\Source/probe_com.c **** 
1173:..\..\..\..\..\..\uC-Probe\Target\Communication\Generic\Source/probe_com.c ****                                                                 /* ------------------ RTN TX PKT SI
1174:..\..\..\..\..\..\uC-Probe\Target\Communication\Generic\Source/probe_com.c ****     tx_len += PROBE_COM_SIZE_TX_HDR;
 611              		.loc 1 1174 0
 612 01f6 FB69     		ldr	r3, [r7, #28]
 613 01f8 03F10403 		add	r3, r3, #4
 614 01fc FB61     		str	r3, [r7, #28]
1175:..\..\..\..\..\..\uC-Probe\Target\Communication\Generic\Source/probe_com.c ****     return (tx_len);                                            /* TX pkt size = nbytes (= Tx data 
 615              		.loc 1 1175 0
 616 01fe FB69     		ldr	r3, [r7, #28]
 617              	.L21:
1176:..\..\..\..\..\..\uC-Probe\Target\Communication\Generic\Source/probe_com.c ****                                                                 /*             + 4      (= Tx hdr  
1177:..\..\..\..\..\..\uC-Probe\Target\Communication\Generic\Source/probe_com.c **** }
 618              		.loc 1 1177 0
 619 0200 1846     		mov	r0, r3
 620 0202 07F12007 		add	r7, r7, #32
 621 0206 BD46     		mov	sp, r7
 622 0208 80BD     		pop	{r7, pc}
 623              		.cfi_endproc
 624              	.LFE4:
 625              		.size	ProbeCom_ReqQuery, .-ProbeCom_ReqQuery
 626 020a 00BF     		.section	.text.ProbeCom_ReqRd,"ax",%progbits
 627              		.align	2
 628              		.thumb
 629              		.thumb_func
 630              		.type	ProbeCom_ReqRd, %function
 631              	ProbeCom_ReqRd:
 632              	.LFB5:
1178:..\..\..\..\..\..\uC-Probe\Target\Communication\Generic\Source/probe_com.c **** 
1179:..\..\..\..\..\..\uC-Probe\Target\Communication\Generic\Source/probe_com.c **** 
1180:..\..\..\..\..\..\uC-Probe\Target\Communication\Generic\Source/probe_com.c **** /*
1181:..\..\..\..\..\..\uC-Probe\Target\Communication\Generic\Source/probe_com.c **** ***************************************************************************************************
1182:..\..\..\..\..\..\uC-Probe\Target\Communication\Generic\Source/probe_com.c **** *                                          ProbeCom_ReqRd()
1183:..\..\..\..\..\..\uC-Probe\Target\Communication\Generic\Source/probe_com.c **** *
1184:..\..\..\..\..\..\uC-Probe\Target\Communication\Generic\Source/probe_com.c **** * Description : Parse the FMT_RD request & formulate response.  This command causes the target to s
1185:..\..\..\..\..\..\uC-Probe\Target\Communication\Generic\Source/probe_com.c **** *               data read from its memory for a certain {memory address, data length} pair (which i
1186:..\..\..\..\..\..\uC-Probe\Target\Communication\Generic\Source/probe_com.c **** *               given in the request).
1187:..\..\..\..\..\..\uC-Probe\Target\Communication\Generic\Source/probe_com.c **** *
1188:..\..\..\..\..\..\uC-Probe\Target\Communication\Generic\Source/probe_com.c **** * Argument(s) : prx_buf         Pointer to the receive  buffer
ARM GAS  C:\Users\daniel01\AppData\Local\Temp\ccHLFCB6.s 			page 33


1189:..\..\..\..\..\..\uC-Probe\Target\Communication\Generic\Source/probe_com.c **** *
1190:..\..\..\..\..\..\uC-Probe\Target\Communication\Generic\Source/probe_com.c **** *               ptx_buf         Pointer to the transmit buffer
1191:..\..\..\..\..\..\uC-Probe\Target\Communication\Generic\Source/probe_com.c **** *
1192:..\..\..\..\..\..\uC-Probe\Target\Communication\Generic\Source/probe_com.c **** *               rx_pkt_size     Size of the receive  packet
1193:..\..\..\..\..\..\uC-Probe\Target\Communication\Generic\Source/probe_com.c **** *
1194:..\..\..\..\..\..\uC-Probe\Target\Communication\Generic\Source/probe_com.c **** *               tx_buf_size     Size of the transmit buffer
1195:..\..\..\..\..\..\uC-Probe\Target\Communication\Generic\Source/probe_com.c **** *
1196:..\..\..\..\..\..\uC-Probe\Target\Communication\Generic\Source/probe_com.c **** * Return(s)   : The number of bytes written to the tx buffer.
1197:..\..\..\..\..\..\uC-Probe\Target\Communication\Generic\Source/probe_com.c **** *
1198:..\..\..\..\..\..\uC-Probe\Target\Communication\Generic\Source/probe_com.c **** * Caller(s)   : ProbeCom_ParseRxPkt().
1199:..\..\..\..\..\..\uC-Probe\Target\Communication\Generic\Source/probe_com.c **** *
1200:..\..\..\..\..\..\uC-Probe\Target\Communication\Generic\Source/probe_com.c **** * Note(s)     : (1) The RX format:
1201:..\..\..\..\..\..\uC-Probe\Target\Communication\Generic\Source/probe_com.c **** *
1202:..\..\..\..\..\..\uC-Probe\Target\Communication\Generic\Source/probe_com.c **** *                   (A) A 2-byte format , indicating the data segment format;
1203:..\..\..\..\..\..\uC-Probe\Target\Communication\Generic\Source/probe_com.c **** *                   (B) A 2-byte length , indicating the number of bytes to read;
1204:..\..\..\..\..\..\uC-Probe\Target\Communication\Generic\Source/probe_com.c **** *                   (C) A 4-byte address, the starting address of the data to read.
1205:..\..\..\..\..\..\uC-Probe\Target\Communication\Generic\Source/probe_com.c **** *
1206:..\..\..\..\..\..\uC-Probe\Target\Communication\Generic\Source/probe_com.c **** *                         +-------------------------+-------------------------+
1207:..\..\..\..\..\..\uC-Probe\Target\Communication\Generic\Source/probe_com.c **** *                         |          Format         |     Number of bytes     |
1208:..\..\..\..\..\..\uC-Probe\Target\Communication\Generic\Source/probe_com.c **** *                         +-------------------------+-------------------------+
1209:..\..\..\..\..\..\uC-Probe\Target\Communication\Generic\Source/probe_com.c **** *                         |                      Address                      |
1210:..\..\..\..\..\..\uC-Probe\Target\Communication\Generic\Source/probe_com.c **** *                         +-------------------------+-------------------------+
1211:..\..\..\..\..\..\uC-Probe\Target\Communication\Generic\Source/probe_com.c **** *
1212:..\..\..\..\..\..\uC-Probe\Target\Communication\Generic\Source/probe_com.c **** *               (2) The TX format:
1213:..\..\..\..\..\..\uC-Probe\Target\Communication\Generic\Source/probe_com.c **** *
1214:..\..\..\..\..\..\uC-Probe\Target\Communication\Generic\Source/probe_com.c **** *                   (A) A 2-byte format, indicating the data segment format;
1215:..\..\..\..\..\..\uC-Probe\Target\Communication\Generic\Source/probe_com.c **** *                   (B) A 1-byte status, indicating the status after the request;
1216:..\..\..\..\..\..\uC-Probe\Target\Communication\Generic\Source/probe_com.c **** *                   (C) A 1-byte modifier;
1217:..\..\..\..\..\..\uC-Probe\Target\Communication\Generic\Source/probe_com.c **** *                   (D) The memory data.
1218:..\..\..\..\..\..\uC-Probe\Target\Communication\Generic\Source/probe_com.c **** *
1219:..\..\..\..\..\..\uC-Probe\Target\Communication\Generic\Source/probe_com.c **** *                         +-------------------------+------------+------------+
1220:..\..\..\..\..\..\uC-Probe\Target\Communication\Generic\Source/probe_com.c **** *                         |          Format         |   Status   |  Modifier  |
1221:..\..\..\..\..\..\uC-Probe\Target\Communication\Generic\Source/probe_com.c **** *                         +-------------------------+------------+------------+
1222:..\..\..\..\..\..\uC-Probe\Target\Communication\Generic\Source/probe_com.c **** *                         |                        Data                       |
1223:..\..\..\..\..\..\uC-Probe\Target\Communication\Generic\Source/probe_com.c **** *                         |                         .                         |
1224:..\..\..\..\..\..\uC-Probe\Target\Communication\Generic\Source/probe_com.c **** *                         |                         .                         |
1225:..\..\..\..\..\..\uC-Probe\Target\Communication\Generic\Source/probe_com.c **** *                         |                         .                         |
1226:..\..\..\..\..\..\uC-Probe\Target\Communication\Generic\Source/probe_com.c **** *                         +---------------------------------------------------+
1227:..\..\..\..\..\..\uC-Probe\Target\Communication\Generic\Source/probe_com.c **** *
1228:..\..\..\..\..\..\uC-Probe\Target\Communication\Generic\Source/probe_com.c **** ***************************************************************************************************
1229:..\..\..\..\..\..\uC-Probe\Target\Communication\Generic\Source/probe_com.c **** */
1230:..\..\..\..\..\..\uC-Probe\Target\Communication\Generic\Source/probe_com.c **** 
1231:..\..\..\..\..\..\uC-Probe\Target\Communication\Generic\Source/probe_com.c **** static  CPU_SIZE_T  ProbeCom_ReqRd (CPU_INT08U  *prx_buf,
1232:..\..\..\..\..\..\uC-Probe\Target\Communication\Generic\Source/probe_com.c ****                                     CPU_INT08U  *ptx_buf,
1233:..\..\..\..\..\..\uC-Probe\Target\Communication\Generic\Source/probe_com.c ****                                     CPU_SIZE_T   rx_pkt_size,
1234:..\..\..\..\..\..\uC-Probe\Target\Communication\Generic\Source/probe_com.c ****                                     CPU_SIZE_T   tx_buf_size)
1235:..\..\..\..\..\..\uC-Probe\Target\Communication\Generic\Source/probe_com.c **** {
 633              		.loc 1 1235 0
 634              		.cfi_startproc
 635              		@ args = 0, pretend = 0, frame = 32
 636              		@ frame_needed = 1, uses_anonymous_args = 0
 637 0000 80B5     		push	{r7, lr}
 638              	.LCFI14:
 639              		.cfi_def_cfa_offset 8
 640 0002 88B0     		sub	sp, sp, #32
 641              	.LCFI15:
 642              		.cfi_def_cfa_offset 40
ARM GAS  C:\Users\daniel01\AppData\Local\Temp\ccHLFCB6.s 			page 34


 643 0004 00AF     		add	r7, sp, #0
 644              		.cfi_offset 14, -4
 645              		.cfi_offset 7, -8
 646              	.LCFI16:
 647              		.cfi_def_cfa_register 7
 648 0006 F860     		str	r0, [r7, #12]
 649 0008 B960     		str	r1, [r7, #8]
 650 000a 7A60     		str	r2, [r7, #4]
 651 000c 3B60     		str	r3, [r7, #0]
1236:..\..\..\..\..\..\uC-Probe\Target\Communication\Generic\Source/probe_com.c ****     CPU_ADDR    sym_addr;
1237:..\..\..\..\..\..\uC-Probe\Target\Communication\Generic\Source/probe_com.c ****     CPU_SIZE_T  sym_size;
1238:..\..\..\..\..\..\uC-Probe\Target\Communication\Generic\Source/probe_com.c ****     CPU_SIZE_T  tx_len;
1239:..\..\..\..\..\..\uC-Probe\Target\Communication\Generic\Source/probe_com.c **** 
1240:..\..\..\..\..\..\uC-Probe\Target\Communication\Generic\Source/probe_com.c **** 
1241:..\..\..\..\..\..\uC-Probe\Target\Communication\Generic\Source/probe_com.c ****                                                                 /* ------------------- CHK PKT SIZE
1242:..\..\..\..\..\..\uC-Probe\Target\Communication\Generic\Source/probe_com.c ****                                                                 /* Expected size = 2 (= Rx hdr size
1243:..\..\..\..\..\..\uC-Probe\Target\Communication\Generic\Source/probe_com.c ****                                                                 /*               + 2 (= Sym size   
1244:..\..\..\..\..\..\uC-Probe\Target\Communication\Generic\Source/probe_com.c ****                                                                 /*               + 4 (= Sym addr   
1245:..\..\..\..\..\..\uC-Probe\Target\Communication\Generic\Source/probe_com.c ****     if (rx_pkt_size != 8u) {
 652              		.loc 1 1245 0
 653 000e 7B68     		ldr	r3, [r7, #4]
 654 0010 082B     		cmp	r3, #8
 655 0012 09D0     		beq	.L36
1246:..\..\..\..\..\..\uC-Probe\Target\Communication\Generic\Source/probe_com.c ****         tx_len = ProbeCom_ReqErr(ptx_buf, PROBE_COM_STATUS_RX_PKT_WRONG_SIZE);
 656              		.loc 1 1246 0
 657 0014 BB68     		ldr	r3, [r7, #8]
 658 0016 1846     		mov	r0, r3
 659 0018 4FF0FE01 		mov	r1, #254
 660 001c FFF7FEFF 		bl	ProbeCom_ReqErr
 661 0020 0346     		mov	r3, r0
 662 0022 FB61     		str	r3, [r7, #28]
1247:..\..\..\..\..\..\uC-Probe\Target\Communication\Generic\Source/probe_com.c ****         return (tx_len);
 663              		.loc 1 1247 0
 664 0024 FB69     		ldr	r3, [r7, #28]
 665 0026 58E0     		b	.L37
 666              	.L36:
1248:..\..\..\..\..\..\uC-Probe\Target\Communication\Generic\Source/probe_com.c ****     }
1249:..\..\..\..\..\..\uC-Probe\Target\Communication\Generic\Source/probe_com.c **** 
1250:..\..\..\..\..\..\uC-Probe\Target\Communication\Generic\Source/probe_com.c **** 
1251:..\..\..\..\..\..\uC-Probe\Target\Communication\Generic\Source/probe_com.c ****                                                                 /* -------------------- HANDLE RD -
1252:..\..\..\..\..\..\uC-Probe\Target\Communication\Generic\Source/probe_com.c ****     sym_size = ProbeCom_GetINT16U(&prx_buf);                    /* Get nbr of bytes to rd.         
 667              		.loc 1 1252 0
 668 0028 07F10C03 		add	r3, r7, #12
 669 002c 1846     		mov	r0, r3
 670 002e FFF7FEFF 		bl	ProbeCom_GetINT16U
 671 0032 0346     		mov	r3, r0
 672 0034 BB61     		str	r3, [r7, #24]
1253:..\..\..\..\..\..\uC-Probe\Target\Communication\Generic\Source/probe_com.c **** 
1254:..\..\..\..\..\..\uC-Probe\Target\Communication\Generic\Source/probe_com.c ****                                                                 /* Get rd addr.                    
1255:..\..\..\..\..\..\uC-Probe\Target\Communication\Generic\Source/probe_com.c **** #if ((!defined(CPU_CFG_ADDR_SIZE)) || \
1256:..\..\..\..\..\..\uC-Probe\Target\Communication\Generic\Source/probe_com.c ****      ((defined(CPU_CFG_ADDR_SIZE)) && \
1257:..\..\..\..\..\..\uC-Probe\Target\Communication\Generic\Source/probe_com.c ****               (CPU_CFG_ADDR_SIZE   != CPU_WORD_SIZE_16)))
1258:..\..\..\..\..\..\uC-Probe\Target\Communication\Generic\Source/probe_com.c ****     sym_addr = (CPU_ADDR)ProbeCom_GetINT32U(&prx_buf);
 673              		.loc 1 1258 0
 674 0036 07F10C03 		add	r3, r7, #12
 675 003a 1846     		mov	r0, r3
 676 003c FFF7FEFF 		bl	ProbeCom_GetINT32U
ARM GAS  C:\Users\daniel01\AppData\Local\Temp\ccHLFCB6.s 			page 35


 677 0040 0346     		mov	r3, r0
 678 0042 7B61     		str	r3, [r7, #20]
1259:..\..\..\..\..\..\uC-Probe\Target\Communication\Generic\Source/probe_com.c **** #else
1260:..\..\..\..\..\..\uC-Probe\Target\Communication\Generic\Source/probe_com.c ****     sym_addr = (CPU_ADDR)ProbeCom_GetINT16U(&prx_buf);
1261:..\..\..\..\..\..\uC-Probe\Target\Communication\Generic\Source/probe_com.c **** #endif
1262:..\..\..\..\..\..\uC-Probe\Target\Communication\Generic\Source/probe_com.c **** 
1263:..\..\..\..\..\..\uC-Probe\Target\Communication\Generic\Source/probe_com.c ****     if (sym_size + PROBE_COM_SIZE_TX_HDR > tx_buf_size) {       /* If tx pkt will NOT fit in buf, r
 679              		.loc 1 1263 0
 680 0044 BB69     		ldr	r3, [r7, #24]
 681 0046 03F10402 		add	r2, r3, #4
 682 004a 3B68     		ldr	r3, [r7, #0]
 683 004c 9A42     		cmp	r2, r3
 684 004e 09D9     		bls	.L38
1264:..\..\..\..\..\..\uC-Probe\Target\Communication\Generic\Source/probe_com.c ****         tx_len = ProbeCom_ReqErr(ptx_buf, PROBE_COM_STATUS_TX_PKT_TOO_LARGE);
 685              		.loc 1 1264 0
 686 0050 BB68     		ldr	r3, [r7, #8]
 687 0052 1846     		mov	r0, r3
 688 0054 4FF0FD01 		mov	r1, #253
 689 0058 FFF7FEFF 		bl	ProbeCom_ReqErr
 690 005c 0346     		mov	r3, r0
 691 005e FB61     		str	r3, [r7, #28]
1265:..\..\..\..\..\..\uC-Probe\Target\Communication\Generic\Source/probe_com.c ****         return (tx_len);
 692              		.loc 1 1265 0
 693 0060 FB69     		ldr	r3, [r7, #28]
 694 0062 3AE0     		b	.L37
 695              	.L38:
1266:..\..\..\..\..\..\uC-Probe\Target\Communication\Generic\Source/probe_com.c ****     }
1267:..\..\..\..\..\..\uC-Probe\Target\Communication\Generic\Source/probe_com.c **** 
1268:..\..\..\..\..\..\uC-Probe\Target\Communication\Generic\Source/probe_com.c **** #if (PROBE_COM_CFG_STAT_EN == DEF_ENABLED)
1269:..\..\..\..\..\..\uC-Probe\Target\Communication\Generic\Source/probe_com.c ****     ProbeCom_TxSymCtr++;                                        /* Inc tx sym ctr.                 
 696              		.loc 1 1269 0
 697 0064 40F20003 		movw	r3, #:lower16:ProbeCom_TxSymCtr
 698 0068 C0F20003 		movt	r3, #:upper16:ProbeCom_TxSymCtr
 699 006c 1B68     		ldr	r3, [r3, #0]
 700 006e 03F10102 		add	r2, r3, #1
 701 0072 40F20003 		movw	r3, #:lower16:ProbeCom_TxSymCtr
 702 0076 C0F20003 		movt	r3, #:upper16:ProbeCom_TxSymCtr
 703 007a 1A60     		str	r2, [r3, #0]
1270:..\..\..\..\..\..\uC-Probe\Target\Communication\Generic\Source/probe_com.c ****     ProbeCom_TxSymByteCtr += sym_size;
 704              		.loc 1 1270 0
 705 007c 40F20003 		movw	r3, #:lower16:ProbeCom_TxSymByteCtr
 706 0080 C0F20003 		movt	r3, #:upper16:ProbeCom_TxSymByteCtr
 707 0084 1A68     		ldr	r2, [r3, #0]
 708 0086 BB69     		ldr	r3, [r7, #24]
 709 0088 1A44     		add	r2, r2, r3
 710 008a 40F20003 		movw	r3, #:lower16:ProbeCom_TxSymByteCtr
 711 008e C0F20003 		movt	r3, #:upper16:ProbeCom_TxSymByteCtr
 712 0092 1A60     		str	r2, [r3, #0]
1271:..\..\..\..\..\..\uC-Probe\Target\Communication\Generic\Source/probe_com.c **** #endif
1272:..\..\..\..\..\..\uC-Probe\Target\Communication\Generic\Source/probe_com.c **** 
1273:..\..\..\..\..\..\uC-Probe\Target\Communication\Generic\Source/probe_com.c ****                                                                 /* Store tx pkt hdr :              
1274:..\..\..\..\..\..\uC-Probe\Target\Communication\Generic\Source/probe_com.c ****     ProbeCom_StoINT16U(&ptx_buf, PROBE_COM_FMT_TX_RD);          /*  (a) Tx pkt fmt.                
 713              		.loc 1 1274 0
 714 0094 07F10803 		add	r3, r7, #8
 715 0098 1846     		mov	r0, r3
 716 009a 48F20201 		movw	r1, #32770
 717 009e FFF7FEFF 		bl	ProbeCom_StoINT16U
ARM GAS  C:\Users\daniel01\AppData\Local\Temp\ccHLFCB6.s 			page 36


1275:..\..\..\..\..\..\uC-Probe\Target\Communication\Generic\Source/probe_com.c ****     ProbeCom_StoINT08U(&ptx_buf, PROBE_COM_STATUS_OK);          /*  (b) Target status.             
 718              		.loc 1 1275 0
 719 00a2 07F10803 		add	r3, r7, #8
 720 00a6 1846     		mov	r0, r3
 721 00a8 4FF00101 		mov	r1, #1
 722 00ac FFF7FEFF 		bl	ProbeCom_StoINT08U
1276:..\..\..\..\..\..\uC-Probe\Target\Communication\Generic\Source/probe_com.c ****     ProbeCom_StoINT08U(&ptx_buf, ProbeCom_PktModifier());       /*  (c) Modifier.                  
 723              		.loc 1 1276 0
 724 00b0 FFF7FEFF 		bl	ProbeCom_PktModifier
 725 00b4 0346     		mov	r3, r0
 726 00b6 07F10802 		add	r2, r7, #8
 727 00ba 1046     		mov	r0, r2
 728 00bc 1946     		mov	r1, r3
 729 00be FFF7FEFF 		bl	ProbeCom_StoINT08U
1277:..\..\..\..\..\..\uC-Probe\Target\Communication\Generic\Source/probe_com.c **** 
1278:..\..\..\..\..\..\uC-Probe\Target\Communication\Generic\Source/probe_com.c ****     Mem_Copy((void     *)ptx_buf,                               /* Save tx data segment data.      
 730              		.loc 1 1278 0
 731 00c2 BA68     		ldr	r2, [r7, #8]
 732 00c4 7B69     		ldr	r3, [r7, #20]
 733 00c6 1046     		mov	r0, r2
 734 00c8 1946     		mov	r1, r3
 735 00ca BA69     		ldr	r2, [r7, #24]
 736 00cc FFF7FEFF 		bl	Mem_Copy
1279:..\..\..\..\..\..\uC-Probe\Target\Communication\Generic\Source/probe_com.c ****              (void     *)sym_addr,
1280:..\..\..\..\..\..\uC-Probe\Target\Communication\Generic\Source/probe_com.c ****              (CPU_SIZE_T)sym_size);
1281:..\..\..\..\..\..\uC-Probe\Target\Communication\Generic\Source/probe_com.c **** 
1282:..\..\..\..\..\..\uC-Probe\Target\Communication\Generic\Source/probe_com.c ****                                                                 /* ------------------ RTN TX PKT SI
1283:..\..\..\..\..\..\uC-Probe\Target\Communication\Generic\Source/probe_com.c ****     tx_len = sym_size + PROBE_COM_SIZE_TX_HDR;
 737              		.loc 1 1283 0
 738 00d0 BB69     		ldr	r3, [r7, #24]
 739 00d2 03F10403 		add	r3, r3, #4
 740 00d6 FB61     		str	r3, [r7, #28]
1284:..\..\..\..\..\..\uC-Probe\Target\Communication\Generic\Source/probe_com.c ****     return (tx_len);                                            /* Tx pkt size = nbytes (= Tx data 
 741              		.loc 1 1284 0
 742 00d8 FB69     		ldr	r3, [r7, #28]
 743              	.L37:
1285:..\..\..\..\..\..\uC-Probe\Target\Communication\Generic\Source/probe_com.c ****                                                                 /*             + 4      (= Tx heade
1286:..\..\..\..\..\..\uC-Probe\Target\Communication\Generic\Source/probe_com.c **** }
 744              		.loc 1 1286 0
 745 00da 1846     		mov	r0, r3
 746 00dc 07F12007 		add	r7, r7, #32
 747 00e0 BD46     		mov	sp, r7
 748 00e2 80BD     		pop	{r7, pc}
 749              		.cfi_endproc
 750              	.LFE5:
 751              		.size	ProbeCom_ReqRd, .-ProbeCom_ReqRd
 752              		.section	.text.ProbeCom_ReqRdMulti,"ax",%progbits
 753              		.align	2
 754              		.thumb
 755              		.thumb_func
 756              		.type	ProbeCom_ReqRdMulti, %function
 757              	ProbeCom_ReqRdMulti:
 758              	.LFB6:
1287:..\..\..\..\..\..\uC-Probe\Target\Communication\Generic\Source/probe_com.c **** 
1288:..\..\..\..\..\..\uC-Probe\Target\Communication\Generic\Source/probe_com.c **** 
1289:..\..\..\..\..\..\uC-Probe\Target\Communication\Generic\Source/probe_com.c **** /*
1290:..\..\..\..\..\..\uC-Probe\Target\Communication\Generic\Source/probe_com.c **** ***************************************************************************************************
ARM GAS  C:\Users\daniel01\AppData\Local\Temp\ccHLFCB6.s 			page 37


1291:..\..\..\..\..\..\uC-Probe\Target\Communication\Generic\Source/probe_com.c **** *                                        ProbeCom_ReqRdMulti()
1292:..\..\..\..\..\..\uC-Probe\Target\Communication\Generic\Source/probe_com.c **** *
1293:..\..\..\..\..\..\uC-Probe\Target\Communication\Generic\Source/probe_com.c **** * Description : Parse the FMT_RD_MULTI request & formulate respnse.  This command causes the target
1294:..\..\..\..\..\..\uC-Probe\Target\Communication\Generic\Source/probe_com.c **** *               send data read from its memory for a certain set of {memory address, data length} p
1295:..\..\..\..\..\..\uC-Probe\Target\Communication\Generic\Source/probe_com.c **** *               (which are given in the request).
1296:..\..\..\..\..\..\uC-Probe\Target\Communication\Generic\Source/probe_com.c **** *
1297:..\..\..\..\..\..\uC-Probe\Target\Communication\Generic\Source/probe_com.c **** * Argument(s) : prx_buf         Pointer to the receive  buffer
1298:..\..\..\..\..\..\uC-Probe\Target\Communication\Generic\Source/probe_com.c **** *
1299:..\..\..\..\..\..\uC-Probe\Target\Communication\Generic\Source/probe_com.c **** *               ptx_buf         Pointer to the transmit buffer
1300:..\..\..\..\..\..\uC-Probe\Target\Communication\Generic\Source/probe_com.c **** *
1301:..\..\..\..\..\..\uC-Probe\Target\Communication\Generic\Source/probe_com.c **** *               rx_pkt_size     Size of the receive  packet
1302:..\..\..\..\..\..\uC-Probe\Target\Communication\Generic\Source/probe_com.c **** *
1303:..\..\..\..\..\..\uC-Probe\Target\Communication\Generic\Source/probe_com.c **** *               tx_buf_size     Size of the transmit buffer
1304:..\..\..\..\..\..\uC-Probe\Target\Communication\Generic\Source/probe_com.c **** *
1305:..\..\..\..\..\..\uC-Probe\Target\Communication\Generic\Source/probe_com.c **** * Return(s)   : The number of bytes written to the tx buffer.
1306:..\..\..\..\..\..\uC-Probe\Target\Communication\Generic\Source/probe_com.c **** *
1307:..\..\..\..\..\..\uC-Probe\Target\Communication\Generic\Source/probe_com.c **** * Caller(s)   : ProbeCom_ParseRxPkt().
1308:..\..\..\..\..\..\uC-Probe\Target\Communication\Generic\Source/probe_com.c **** *
1309:..\..\..\..\..\..\uC-Probe\Target\Communication\Generic\Source/probe_com.c **** * Note(s)     : (1) The RX format:
1310:..\..\..\..\..\..\uC-Probe\Target\Communication\Generic\Source/probe_com.c **** *
1311:..\..\..\..\..\..\uC-Probe\Target\Communication\Generic\Source/probe_com.c **** *                   (A) A 2-byte format,          indicating the data segment format;
1312:..\..\..\..\..\..\uC-Probe\Target\Communication\Generic\Source/probe_com.c **** *                   (B) A 5-byte item descriptor, for each item in the list, consisting of:
1313:..\..\..\..\..\..\uC-Probe\Target\Communication\Generic\Source/probe_com.c **** *
1314:..\..\..\..\..\..\uC-Probe\Target\Communication\Generic\Source/probe_com.c **** *                       (1) A 4-byte address, the starting address of the data to read;
1315:..\..\..\..\..\..\uC-Probe\Target\Communication\Generic\Source/probe_com.c **** *                       (2) A 1-byte length,  indicating the number of bytes to read.
1316:..\..\..\..\..\..\uC-Probe\Target\Communication\Generic\Source/probe_com.c **** *
1317:..\..\..\..\..\..\uC-Probe\Target\Communication\Generic\Source/probe_com.c **** *                         +-------------------------+------------+------------+
1318:..\..\..\..\..\..\uC-Probe\Target\Communication\Generic\Source/probe_com.c **** *                         |          Format         | Num. bytes |         Addr       ---
1319:..\..\..\..\..\..\uC-Probe\Target\Communication\Generic\Source/probe_com.c **** *                         +-------------------------+------------+------------+        |    Item 1
1320:..\..\..\..\..\..\uC-Probe\Target\Communication\Generic\Source/probe_com.c **** *                         ress                                   | Num. bytes |       ---
1321:..\..\..\..\..\..\uC-Probe\Target\Communication\Generic\Source/probe_com.c **** *                         +--------------------------------------+------------+        |
1322:..\..\..\..\..\..\uC-Probe\Target\Communication\Generic\Source/probe_com.c **** *                         |                      Address                      |        |    Item 2
1323:..\..\..\..\..\..\uC-Probe\Target\Communication\Generic\Source/probe_com.c **** *                         +------------+--------------------------------------+       ---
1324:..\..\..\..\..\..\uC-Probe\Target\Communication\Generic\Source/probe_com.c **** *                         | Num. bytes |                                   Addr        |    Item 3
1325:..\..\..\..\..\..\uC-Probe\Target\Communication\Generic\Source/probe_com.c **** *                         +------------+--------------------------------------+        .
1326:..\..\..\..\..\..\uC-Probe\Target\Communication\Generic\Source/probe_com.c **** *                         |                         .                         |        .
1327:..\..\..\..\..\..\uC-Probe\Target\Communication\Generic\Source/probe_com.c **** *                         |                         .                         |        .
1328:..\..\..\..\..\..\uC-Probe\Target\Communication\Generic\Source/probe_com.c **** *                         |                         .                         |        .
1329:..\..\..\..\..\..\uC-Probe\Target\Communication\Generic\Source/probe_com.c **** *                         |                         .                         |        .
1330:..\..\..\..\..\..\uC-Probe\Target\Communication\Generic\Source/probe_com.c **** *                         +--------------------------------------+------------+        .
1331:..\..\..\..\..\..\uC-Probe\Target\Communication\Generic\Source/probe_com.c **** *                         ress                                   | Num. bytes |       ---
1332:..\..\..\..\..\..\uC-Probe\Target\Communication\Generic\Source/probe_com.c **** *                         ---------------------------------------+------------+        |   Item n
1333:..\..\..\..\..\..\uC-Probe\Target\Communication\Generic\Source/probe_com.c **** *                         |                      Address                      |        |
1334:..\..\..\..\..\..\uC-Probe\Target\Communication\Generic\Source/probe_com.c **** *                         +---------------------------------------------------+       ---
1335:..\..\..\..\..\..\uC-Probe\Target\Communication\Generic\Source/probe_com.c **** *
1336:..\..\..\..\..\..\uC-Probe\Target\Communication\Generic\Source/probe_com.c **** *               (2) The TX format:
1337:..\..\..\..\..\..\uC-Probe\Target\Communication\Generic\Source/probe_com.c **** *
1338:..\..\..\..\..\..\uC-Probe\Target\Communication\Generic\Source/probe_com.c **** *                   (A) A 2-byte format, indicating the data segment format;
1339:..\..\..\..\..\..\uC-Probe\Target\Communication\Generic\Source/probe_com.c **** *                   (B) A 1-byte status, indicating the status after the request;
1340:..\..\..\..\..\..\uC-Probe\Target\Communication\Generic\Source/probe_com.c **** *                   (C) A 1-byte modifier;
1341:..\..\..\..\..\..\uC-Probe\Target\Communication\Generic\Source/probe_com.c **** *                   (D) For each item, the following is sent:
1342:..\..\..\..\..\..\uC-Probe\Target\Communication\Generic\Source/probe_com.c **** *
1343:..\..\..\..\..\..\uC-Probe\Target\Communication\Generic\Source/probe_com.c **** *                       (1) The memory data.
1344:..\..\..\..\..\..\uC-Probe\Target\Communication\Generic\Source/probe_com.c **** *
1345:..\..\..\..\..\..\uC-Probe\Target\Communication\Generic\Source/probe_com.c **** *                         +-------------------------+------------+------------+
1346:..\..\..\..\..\..\uC-Probe\Target\Communication\Generic\Source/probe_com.c **** *                         |          Format         |   Status   |  Modifier  |
1347:..\..\..\..\..\..\uC-Probe\Target\Communication\Generic\Source/probe_com.c **** *                         +-------------------------+------------+------------+       ---
ARM GAS  C:\Users\daniel01\AppData\Local\Temp\ccHLFCB6.s 			page 38


1348:..\..\..\..\..\..\uC-Probe\Target\Communication\Generic\Source/probe_com.c **** *                         |                        Data                       |        |    Item 1
1349:..\..\..\..\..\..\uC-Probe\Target\Communication\Generic\Source/probe_com.c **** *                         |                         .                         |        |
1350:..\..\..\..\..\..\uC-Probe\Target\Communication\Generic\Source/probe_com.c **** *                         |                         .                         |        |
1351:..\..\..\..\..\..\uC-Probe\Target\Communication\Generic\Source/probe_com.c **** *                         |                         .                         |        |
1352:..\..\..\..\..\..\uC-Probe\Target\Communication\Generic\Source/probe_com.c **** *                         +---------------------------------------------------+       ---
1353:..\..\..\..\..\..\uC-Probe\Target\Communication\Generic\Source/probe_com.c **** *                         |                         .                         |        .
1354:..\..\..\..\..\..\uC-Probe\Target\Communication\Generic\Source/probe_com.c **** *                         |                         .                         |        .
1355:..\..\..\..\..\..\uC-Probe\Target\Communication\Generic\Source/probe_com.c **** *                         |                         .                         |        .
1356:..\..\..\..\..\..\uC-Probe\Target\Communication\Generic\Source/probe_com.c **** *                         |                         .                         |        .
1357:..\..\..\..\..\..\uC-Probe\Target\Communication\Generic\Source/probe_com.c **** *                         |                         .                         |        .
1358:..\..\..\..\..\..\uC-Probe\Target\Communication\Generic\Source/probe_com.c **** *                         +---------------------------------------------------+       ---
1359:..\..\..\..\..\..\uC-Probe\Target\Communication\Generic\Source/probe_com.c **** *                         |                        Data                       |        |    Item n
1360:..\..\..\..\..\..\uC-Probe\Target\Communication\Generic\Source/probe_com.c **** *                         |                         .                         |        |
1361:..\..\..\..\..\..\uC-Probe\Target\Communication\Generic\Source/probe_com.c **** *                         |                         .                         |        |
1362:..\..\..\..\..\..\uC-Probe\Target\Communication\Generic\Source/probe_com.c **** *                         |                         .                         |        |
1363:..\..\..\..\..\..\uC-Probe\Target\Communication\Generic\Source/probe_com.c **** *                         +---------------------------------------------------+       ---
1364:..\..\..\..\..\..\uC-Probe\Target\Communication\Generic\Source/probe_com.c **** *
1365:..\..\..\..\..\..\uC-Probe\Target\Communication\Generic\Source/probe_com.c **** ***************************************************************************************************
1366:..\..\..\..\..\..\uC-Probe\Target\Communication\Generic\Source/probe_com.c **** */
1367:..\..\..\..\..\..\uC-Probe\Target\Communication\Generic\Source/probe_com.c **** 
1368:..\..\..\..\..\..\uC-Probe\Target\Communication\Generic\Source/probe_com.c **** static  CPU_SIZE_T  ProbeCom_ReqRdMulti (CPU_INT08U  *prx_buf,
1369:..\..\..\..\..\..\uC-Probe\Target\Communication\Generic\Source/probe_com.c ****                                          CPU_INT08U  *ptx_buf,
1370:..\..\..\..\..\..\uC-Probe\Target\Communication\Generic\Source/probe_com.c ****                                          CPU_SIZE_T   rx_pkt_size,
1371:..\..\..\..\..\..\uC-Probe\Target\Communication\Generic\Source/probe_com.c ****                                          CPU_SIZE_T   tx_buf_size)
1372:..\..\..\..\..\..\uC-Probe\Target\Communication\Generic\Source/probe_com.c **** {
 759              		.loc 1 1372 0
 760              		.cfi_startproc
 761              		@ args = 0, pretend = 0, frame = 48
 762              		@ frame_needed = 1, uses_anonymous_args = 0
 763 0000 90B5     		push	{r4, r7, lr}
 764              	.LCFI17:
 765              		.cfi_def_cfa_offset 12
 766 0002 8DB0     		sub	sp, sp, #52
 767              	.LCFI18:
 768              		.cfi_def_cfa_offset 64
 769 0004 00AF     		add	r7, sp, #0
 770              		.cfi_offset 14, -4
 771              		.cfi_offset 7, -8
 772              		.cfi_offset 4, -12
 773              	.LCFI19:
 774              		.cfi_def_cfa_register 7
 775 0006 F860     		str	r0, [r7, #12]
 776 0008 B960     		str	r1, [r7, #8]
 777 000a 7A60     		str	r2, [r7, #4]
 778 000c 3B60     		str	r3, [r7, #0]
1373:..\..\..\..\..\..\uC-Probe\Target\Communication\Generic\Source/probe_com.c ****     CPU_SIZE_T   rx_pkt_ix;
1374:..\..\..\..\..\..\uC-Probe\Target\Communication\Generic\Source/probe_com.c **** #if (PROBE_COM_CFG_STAT_EN == DEF_ENABLED)
1375:..\..\..\..\..\..\uC-Probe\Target\Communication\Generic\Source/probe_com.c ****     CPU_INT32U   sym_byte_ctr;
1376:..\..\..\..\..\..\uC-Probe\Target\Communication\Generic\Source/probe_com.c ****     CPU_INT32U   sym_ctr;
1377:..\..\..\..\..\..\uC-Probe\Target\Communication\Generic\Source/probe_com.c **** #endif
1378:..\..\..\..\..\..\uC-Probe\Target\Communication\Generic\Source/probe_com.c ****     CPU_ADDR     sym_addr;
1379:..\..\..\..\..\..\uC-Probe\Target\Communication\Generic\Source/probe_com.c ****     CPU_SIZE_T   sym_size;
1380:..\..\..\..\..\..\uC-Probe\Target\Communication\Generic\Source/probe_com.c ****     CPU_SIZE_T   tx_len;
1381:..\..\..\..\..\..\uC-Probe\Target\Communication\Generic\Source/probe_com.c ****     CPU_INT08U  *ptx_buf_start;
1382:..\..\..\..\..\..\uC-Probe\Target\Communication\Generic\Source/probe_com.c **** 
1383:..\..\..\..\..\..\uC-Probe\Target\Communication\Generic\Source/probe_com.c **** 
1384:..\..\..\..\..\..\uC-Probe\Target\Communication\Generic\Source/probe_com.c ****                                                                 /* ------------------- CHK PKT SIZE
ARM GAS  C:\Users\daniel01\AppData\Local\Temp\ccHLFCB6.s 			page 39


1385:..\..\..\..\..\..\uC-Probe\Target\Communication\Generic\Source/probe_com.c ****                                                                 /* Expected size >= 2 (= Rx hdr siz
1386:..\..\..\..\..\..\uC-Probe\Target\Communication\Generic\Source/probe_com.c ****                                                                 /*                + 5 (= 1 item des
1387:..\..\..\..\..\..\uC-Probe\Target\Communication\Generic\Source/probe_com.c ****     if (rx_pkt_size  < 7u) {
 779              		.loc 1 1387 0
 780 000e 7B68     		ldr	r3, [r7, #4]
 781 0010 062B     		cmp	r3, #6
 782 0012 08D8     		bhi	.L41
1388:..\..\..\..\..\..\uC-Probe\Target\Communication\Generic\Source/probe_com.c ****         tx_len = ProbeCom_ReqErr(ptx_buf, PROBE_COM_STATUS_RX_PKT_WRONG_SIZE);
 783              		.loc 1 1388 0
 784 0014 B868     		ldr	r0, [r7, #8]
 785 0016 4FF0FE01 		mov	r1, #254
 786 001a FFF7FEFF 		bl	ProbeCom_ReqErr
 787 001e 0346     		mov	r3, r0
 788 0020 BB62     		str	r3, [r7, #40]
1389:..\..\..\..\..\..\uC-Probe\Target\Communication\Generic\Source/probe_com.c ****         return (tx_len);
 789              		.loc 1 1389 0
 790 0022 BB6A     		ldr	r3, [r7, #40]
 791 0024 94E0     		b	.L42
 792              	.L41:
1390:..\..\..\..\..\..\uC-Probe\Target\Communication\Generic\Source/probe_com.c ****     }
1391:..\..\..\..\..\..\uC-Probe\Target\Communication\Generic\Source/probe_com.c **** 
1392:..\..\..\..\..\..\uC-Probe\Target\Communication\Generic\Source/probe_com.c ****                                                                 /* -------------------- HANDLE RD -
1393:..\..\..\..\..\..\uC-Probe\Target\Communication\Generic\Source/probe_com.c ****     ptx_buf_start = ptx_buf;                                    /* Save ptr to tx buf in case pkt i
 793              		.loc 1 1393 0
 794 0026 BB68     		ldr	r3, [r7, #8]
 795 0028 FB62     		str	r3, [r7, #44]
1394:..\..\..\..\..\..\uC-Probe\Target\Communication\Generic\Source/probe_com.c ****     tx_len        = PROBE_COM_SIZE_TX_HDR;                      /* Init tx pkt len = 4 = size of hd
 796              		.loc 1 1394 0
 797 002a 4FF00403 		mov	r3, #4
 798 002e BB62     		str	r3, [r7, #40]
1395:..\..\..\..\..\..\uC-Probe\Target\Communication\Generic\Source/probe_com.c **** 
1396:..\..\..\..\..\..\uC-Probe\Target\Communication\Generic\Source/probe_com.c ****                                                                 /* Store TX pkt hdr :              
1397:..\..\..\..\..\..\uC-Probe\Target\Communication\Generic\Source/probe_com.c ****     ptx_buf[0]    = PROBE_COM_FMT_TX_RD_MULTI_LO;               /* (a) TX pkt fmt.                 
 799              		.loc 1 1397 0
 800 0030 BB68     		ldr	r3, [r7, #8]
 801 0032 4FF00702 		mov	r2, #7
 802 0036 1A70     		strb	r2, [r3, #0]
1398:..\..\..\..\..\..\uC-Probe\Target\Communication\Generic\Source/probe_com.c ****     ptx_buf[1]    = PROBE_COM_FMT_TX_RD_MULTI_HI;
 803              		.loc 1 1398 0
 804 0038 BB68     		ldr	r3, [r7, #8]
 805 003a 03F10103 		add	r3, r3, #1
 806 003e 6FF07F02 		mvn	r2, #127
 807 0042 1A70     		strb	r2, [r3, #0]
1399:..\..\..\..\..\..\uC-Probe\Target\Communication\Generic\Source/probe_com.c ****     ptx_buf[2]    = PROBE_COM_STATUS_OK;                        /* (b) Target status.              
 808              		.loc 1 1399 0
 809 0044 BB68     		ldr	r3, [r7, #8]
 810 0046 03F10203 		add	r3, r3, #2
 811 004a 4FF00102 		mov	r2, #1
 812 004e 1A70     		strb	r2, [r3, #0]
1400:..\..\..\..\..\..\uC-Probe\Target\Communication\Generic\Source/probe_com.c ****     ptx_buf[3]    = ProbeCom_PktModifier();                     /* (c) Modifier.                   
 813              		.loc 1 1400 0
 814 0050 BB68     		ldr	r3, [r7, #8]
 815 0052 03F10304 		add	r4, r3, #3
 816 0056 FFF7FEFF 		bl	ProbeCom_PktModifier
 817 005a 0346     		mov	r3, r0
 818 005c 2370     		strb	r3, [r4, #0]
1401:..\..\..\..\..\..\uC-Probe\Target\Communication\Generic\Source/probe_com.c ****     ptx_buf      += PROBE_COM_SIZE_TX_HDR;
ARM GAS  C:\Users\daniel01\AppData\Local\Temp\ccHLFCB6.s 			page 40


 819              		.loc 1 1401 0
 820 005e BB68     		ldr	r3, [r7, #8]
 821 0060 03F10403 		add	r3, r3, #4
 822 0064 BB60     		str	r3, [r7, #8]
1402:..\..\..\..\..\..\uC-Probe\Target\Communication\Generic\Source/probe_com.c **** 
1403:..\..\..\..\..\..\uC-Probe\Target\Communication\Generic\Source/probe_com.c ****     rx_pkt_ix     = 7u;                                         /* Tx pkt ix after 1st item = 2 (= 
 823              		.loc 1 1403 0
 824 0066 4FF00703 		mov	r3, #7
 825 006a 7B61     		str	r3, [r7, #20]
1404:..\..\..\..\..\..\uC-Probe\Target\Communication\Generic\Source/probe_com.c ****                                                                 /*                          + 5 (= 
1405:..\..\..\..\..\..\uC-Probe\Target\Communication\Generic\Source/probe_com.c **** 
1406:..\..\..\..\..\..\uC-Probe\Target\Communication\Generic\Source/probe_com.c **** #if (PROBE_COM_CFG_STAT_EN == DEF_ENABLED)
1407:..\..\..\..\..\..\uC-Probe\Target\Communication\Generic\Source/probe_com.c ****     sym_ctr      = 0;
 826              		.loc 1 1407 0
 827 006c 4FF00003 		mov	r3, #0
 828 0070 FB61     		str	r3, [r7, #28]
1408:..\..\..\..\..\..\uC-Probe\Target\Communication\Generic\Source/probe_com.c ****     sym_byte_ctr = 0;
 829              		.loc 1 1408 0
 830 0072 4FF00003 		mov	r3, #0
 831 0076 BB61     		str	r3, [r7, #24]
1409:..\..\..\..\..\..\uC-Probe\Target\Communication\Generic\Source/probe_com.c **** #endif
1410:..\..\..\..\..\..\uC-Probe\Target\Communication\Generic\Source/probe_com.c ****                                                                 /* Sto data for each item.         
1411:..\..\..\..\..\..\uC-Probe\Target\Communication\Generic\Source/probe_com.c ****     while (rx_pkt_ix <= rx_pkt_size) {
 832              		.loc 1 1411 0
 833 0078 4DE0     		b	.L43
 834              	.L45:
1412:..\..\..\..\..\..\uC-Probe\Target\Communication\Generic\Source/probe_com.c ****         sym_size   =  prx_buf[0];                               /* (a) Get nbr of bytes to rd.     
 835              		.loc 1 1412 0
 836 007a FB68     		ldr	r3, [r7, #12]
 837 007c 1B78     		ldrb	r3, [r3, #0]	@ zero_extendqisi2
 838 007e 7B62     		str	r3, [r7, #36]
1413:..\..\..\..\..\..\uC-Probe\Target\Communication\Generic\Source/probe_com.c **** 
1414:..\..\..\..\..\..\uC-Probe\Target\Communication\Generic\Source/probe_com.c ****                                                                 /* (b) Get rd addr.                
1415:..\..\..\..\..\..\uC-Probe\Target\Communication\Generic\Source/probe_com.c **** #if ((!defined(CPU_CFG_ADDR_SIZE)) || \
1416:..\..\..\..\..\..\uC-Probe\Target\Communication\Generic\Source/probe_com.c ****      ((defined(CPU_CFG_ADDR_SIZE)) && \
1417:..\..\..\..\..\..\uC-Probe\Target\Communication\Generic\Source/probe_com.c ****               (CPU_CFG_ADDR_SIZE   != CPU_WORD_SIZE_16)))
1418:..\..\..\..\..\..\uC-Probe\Target\Communication\Generic\Source/probe_com.c ****         sym_addr   = ((CPU_ADDR)prx_buf[4] << 8) + prx_buf[3];
 839              		.loc 1 1418 0
 840 0080 FB68     		ldr	r3, [r7, #12]
 841 0082 03F10403 		add	r3, r3, #4
 842 0086 1B78     		ldrb	r3, [r3, #0]	@ zero_extendqisi2
 843 0088 4FEA0322 		lsl	r2, r3, #8
 844 008c FB68     		ldr	r3, [r7, #12]
 845 008e 03F10303 		add	r3, r3, #3
 846 0092 1B78     		ldrb	r3, [r3, #0]	@ zero_extendqisi2
 847 0094 1344     		add	r3, r2, r3
 848 0096 3B62     		str	r3, [r7, #32]
1419:..\..\..\..\..\..\uC-Probe\Target\Communication\Generic\Source/probe_com.c ****         sym_addr   = ((CPU_ADDR)sym_addr   << 8) + prx_buf[2];
 849              		.loc 1 1419 0
 850 0098 3B6A     		ldr	r3, [r7, #32]
 851 009a 4FEA0322 		lsl	r2, r3, #8
 852 009e FB68     		ldr	r3, [r7, #12]
 853 00a0 03F10203 		add	r3, r3, #2
 854 00a4 1B78     		ldrb	r3, [r3, #0]	@ zero_extendqisi2
 855 00a6 1344     		add	r3, r2, r3
 856 00a8 3B62     		str	r3, [r7, #32]
1420:..\..\..\..\..\..\uC-Probe\Target\Communication\Generic\Source/probe_com.c ****         sym_addr   = ((CPU_ADDR)sym_addr   << 8) + prx_buf[1];
ARM GAS  C:\Users\daniel01\AppData\Local\Temp\ccHLFCB6.s 			page 41


 857              		.loc 1 1420 0
 858 00aa 3B6A     		ldr	r3, [r7, #32]
 859 00ac 4FEA0322 		lsl	r2, r3, #8
 860 00b0 FB68     		ldr	r3, [r7, #12]
 861 00b2 03F10103 		add	r3, r3, #1
 862 00b6 1B78     		ldrb	r3, [r3, #0]	@ zero_extendqisi2
 863 00b8 1344     		add	r3, r2, r3
 864 00ba 3B62     		str	r3, [r7, #32]
1421:..\..\..\..\..\..\uC-Probe\Target\Communication\Generic\Source/probe_com.c **** #else
1422:..\..\..\..\..\..\uC-Probe\Target\Communication\Generic\Source/probe_com.c ****         sym_addr   = ((CPU_ADDR)prx_buf[2] << 8) + prx_buf[1];
1423:..\..\..\..\..\..\uC-Probe\Target\Communication\Generic\Source/probe_com.c **** #endif
1424:..\..\..\..\..\..\uC-Probe\Target\Communication\Generic\Source/probe_com.c **** 
1425:..\..\..\..\..\..\uC-Probe\Target\Communication\Generic\Source/probe_com.c ****         prx_buf   += 5u;
 865              		.loc 1 1425 0
 866 00bc FB68     		ldr	r3, [r7, #12]
 867 00be 03F10503 		add	r3, r3, #5
 868 00c2 FB60     		str	r3, [r7, #12]
1426:..\..\..\..\..\..\uC-Probe\Target\Communication\Generic\Source/probe_com.c ****         rx_pkt_ix += 5u;
 869              		.loc 1 1426 0
 870 00c4 7B69     		ldr	r3, [r7, #20]
 871 00c6 03F10503 		add	r3, r3, #5
 872 00ca 7B61     		str	r3, [r7, #20]
1427:..\..\..\..\..\..\uC-Probe\Target\Communication\Generic\Source/probe_com.c **** 
1428:..\..\..\..\..\..\uC-Probe\Target\Communication\Generic\Source/probe_com.c ****         tx_len    += sym_size;                                  /* (c) Add nbr of bytes to pkt len.
 873              		.loc 1 1428 0
 874 00cc BA6A     		ldr	r2, [r7, #40]
 875 00ce 7B6A     		ldr	r3, [r7, #36]
 876 00d0 1344     		add	r3, r2, r3
 877 00d2 BB62     		str	r3, [r7, #40]
1429:..\..\..\..\..\..\uC-Probe\Target\Communication\Generic\Source/probe_com.c **** 
1430:..\..\..\..\..\..\uC-Probe\Target\Communication\Generic\Source/probe_com.c ****         if (tx_len > tx_buf_size) {                             /* (d) Will pkt be too long for TX 
 878              		.loc 1 1430 0
 879 00d4 BA6A     		ldr	r2, [r7, #40]
 880 00d6 3B68     		ldr	r3, [r7, #0]
 881 00d8 9A42     		cmp	r2, r3
 882 00da 0AD9     		bls	.L44
1431:..\..\..\..\..\..\uC-Probe\Target\Communication\Generic\Source/probe_com.c ****             ptx_buf = ptx_buf_start;                            /*     ... rtn err.                
 883              		.loc 1 1431 0
 884 00dc FB6A     		ldr	r3, [r7, #44]
 885 00de BB60     		str	r3, [r7, #8]
1432:..\..\..\..\..\..\uC-Probe\Target\Communication\Generic\Source/probe_com.c ****             tx_len  = ProbeCom_ReqErr(ptx_buf, PROBE_COM_STATUS_TX_PKT_TOO_LARGE);
 886              		.loc 1 1432 0
 887 00e0 B868     		ldr	r0, [r7, #8]
 888 00e2 4FF0FD01 		mov	r1, #253
 889 00e6 FFF7FEFF 		bl	ProbeCom_ReqErr
 890 00ea 0346     		mov	r3, r0
 891 00ec BB62     		str	r3, [r7, #40]
1433:..\..\..\..\..\..\uC-Probe\Target\Communication\Generic\Source/probe_com.c ****             return (tx_len);
 892              		.loc 1 1433 0
 893 00ee BB6A     		ldr	r3, [r7, #40]
 894 00f0 2EE0     		b	.L42
 895              	.L44:
1434:..\..\..\..\..\..\uC-Probe\Target\Communication\Generic\Source/probe_com.c ****         }
1435:..\..\..\..\..\..\uC-Probe\Target\Communication\Generic\Source/probe_com.c **** 
1436:..\..\..\..\..\..\uC-Probe\Target\Communication\Generic\Source/probe_com.c **** #if (PROBE_COM_CFG_STAT_EN == DEF_ENABLED)
1437:..\..\..\..\..\..\uC-Probe\Target\Communication\Generic\Source/probe_com.c ****         sym_ctr++;                                              /* (e) Inc local sym ctr.          
 896              		.loc 1 1437 0
ARM GAS  C:\Users\daniel01\AppData\Local\Temp\ccHLFCB6.s 			page 42


 897 00f2 FB69     		ldr	r3, [r7, #28]
 898 00f4 03F10103 		add	r3, r3, #1
 899 00f8 FB61     		str	r3, [r7, #28]
1438:..\..\..\..\..\..\uC-Probe\Target\Communication\Generic\Source/probe_com.c ****         sym_byte_ctr += sym_size;
 900              		.loc 1 1438 0
 901 00fa BA69     		ldr	r2, [r7, #24]
 902 00fc 7B6A     		ldr	r3, [r7, #36]
 903 00fe 1344     		add	r3, r2, r3
 904 0100 BB61     		str	r3, [r7, #24]
1439:..\..\..\..\..\..\uC-Probe\Target\Communication\Generic\Source/probe_com.c **** #endif
1440:..\..\..\..\..\..\uC-Probe\Target\Communication\Generic\Source/probe_com.c ****                                                                 /* (f) Otherwise, save TX data.    
1441:..\..\..\..\..\..\uC-Probe\Target\Communication\Generic\Source/probe_com.c ****         Mem_Copy((void     *)ptx_buf,
 905              		.loc 1 1441 0
 906 0102 3B6A     		ldr	r3, [r7, #32]
 907 0104 B868     		ldr	r0, [r7, #8]
 908 0106 1946     		mov	r1, r3
 909 0108 7A6A     		ldr	r2, [r7, #36]
 910 010a FFF7FEFF 		bl	Mem_Copy
1442:..\..\..\..\..\..\uC-Probe\Target\Communication\Generic\Source/probe_com.c ****                  (void     *)sym_addr,
1443:..\..\..\..\..\..\uC-Probe\Target\Communication\Generic\Source/probe_com.c ****                  (CPU_SIZE_T)sym_size);
1444:..\..\..\..\..\..\uC-Probe\Target\Communication\Generic\Source/probe_com.c **** 
1445:..\..\..\..\..\..\uC-Probe\Target\Communication\Generic\Source/probe_com.c ****         ptx_buf += sym_size;
 911              		.loc 1 1445 0
 912 010e BA68     		ldr	r2, [r7, #8]
 913 0110 7B6A     		ldr	r3, [r7, #36]
 914 0112 1344     		add	r3, r2, r3
 915 0114 BB60     		str	r3, [r7, #8]
 916              	.L43:
 917              		.loc 1 1411 0
 918 0116 7A69     		ldr	r2, [r7, #20]
 919 0118 7B68     		ldr	r3, [r7, #4]
 920 011a 9A42     		cmp	r2, r3
 921 011c ADD9     		bls	.L45
1446:..\..\..\..\..\..\uC-Probe\Target\Communication\Generic\Source/probe_com.c ****     }
1447:..\..\..\..\..\..\uC-Probe\Target\Communication\Generic\Source/probe_com.c **** 
1448:..\..\..\..\..\..\uC-Probe\Target\Communication\Generic\Source/probe_com.c **** #if (PROBE_COM_CFG_STAT_EN == DEF_ENABLED)
1449:..\..\..\..\..\..\uC-Probe\Target\Communication\Generic\Source/probe_com.c ****     ProbeCom_TxSymCtr     += sym_ctr;                           /* Inc global sym ctr.             
 922              		.loc 1 1449 0
 923 011e 40F20003 		movw	r3, #:lower16:ProbeCom_TxSymCtr
 924 0122 C0F20003 		movt	r3, #:upper16:ProbeCom_TxSymCtr
 925 0126 1A68     		ldr	r2, [r3, #0]
 926 0128 FB69     		ldr	r3, [r7, #28]
 927 012a 1A44     		add	r2, r2, r3
 928 012c 40F20003 		movw	r3, #:lower16:ProbeCom_TxSymCtr
 929 0130 C0F20003 		movt	r3, #:upper16:ProbeCom_TxSymCtr
 930 0134 1A60     		str	r2, [r3, #0]
1450:..\..\..\..\..\..\uC-Probe\Target\Communication\Generic\Source/probe_com.c ****     ProbeCom_TxSymByteCtr += sym_byte_ctr;
 931              		.loc 1 1450 0
 932 0136 40F20003 		movw	r3, #:lower16:ProbeCom_TxSymByteCtr
 933 013a C0F20003 		movt	r3, #:upper16:ProbeCom_TxSymByteCtr
 934 013e 1A68     		ldr	r2, [r3, #0]
 935 0140 BB69     		ldr	r3, [r7, #24]
 936 0142 1A44     		add	r2, r2, r3
 937 0144 40F20003 		movw	r3, #:lower16:ProbeCom_TxSymByteCtr
 938 0148 C0F20003 		movt	r3, #:upper16:ProbeCom_TxSymByteCtr
 939 014c 1A60     		str	r2, [r3, #0]
1451:..\..\..\..\..\..\uC-Probe\Target\Communication\Generic\Source/probe_com.c **** #endif
ARM GAS  C:\Users\daniel01\AppData\Local\Temp\ccHLFCB6.s 			page 43


1452:..\..\..\..\..\..\uC-Probe\Target\Communication\Generic\Source/probe_com.c **** 
1453:..\..\..\..\..\..\uC-Probe\Target\Communication\Generic\Source/probe_com.c ****                                                                 /* ------------------ RTN TX PKT SI
1454:..\..\..\..\..\..\uC-Probe\Target\Communication\Generic\Source/probe_com.c ****     return (tx_len);
 940              		.loc 1 1454 0
 941 014e BB6A     		ldr	r3, [r7, #40]
 942              	.L42:
1455:..\..\..\..\..\..\uC-Probe\Target\Communication\Generic\Source/probe_com.c **** }
 943              		.loc 1 1455 0
 944 0150 1846     		mov	r0, r3
 945 0152 07F13407 		add	r7, r7, #52
 946 0156 BD46     		mov	sp, r7
 947 0158 90BD     		pop	{r4, r7, pc}
 948              		.cfi_endproc
 949              	.LFE6:
 950              		.size	ProbeCom_ReqRdMulti, .-ProbeCom_ReqRdMulti
 951 015a 00BF     		.section	.text.ProbeCom_ReqWr,"ax",%progbits
 952              		.align	2
 953              		.thumb
 954              		.thumb_func
 955              		.type	ProbeCom_ReqWr, %function
 956              	ProbeCom_ReqWr:
 957              	.LFB7:
1456:..\..\..\..\..\..\uC-Probe\Target\Communication\Generic\Source/probe_com.c **** 
1457:..\..\..\..\..\..\uC-Probe\Target\Communication\Generic\Source/probe_com.c **** 
1458:..\..\..\..\..\..\uC-Probe\Target\Communication\Generic\Source/probe_com.c **** /*
1459:..\..\..\..\..\..\uC-Probe\Target\Communication\Generic\Source/probe_com.c **** ***************************************************************************************************
1460:..\..\..\..\..\..\uC-Probe\Target\Communication\Generic\Source/probe_com.c **** *                                          ProbeCom_ReqWr()
1461:..\..\..\..\..\..\uC-Probe\Target\Communication\Generic\Source/probe_com.c **** *
1462:..\..\..\..\..\..\uC-Probe\Target\Communication\Generic\Source/probe_com.c **** * Description : Parse the FMT_WR request & formulate response.  This command causes the target to w
1463:..\..\..\..\..\..\uC-Probe\Target\Communication\Generic\Source/probe_com.c **** *               into its memory data from a certain {memory address, data length, data} triplet whi
1464:..\..\..\..\..\..\uC-Probe\Target\Communication\Generic\Source/probe_com.c **** *               given in the request.
1465:..\..\..\..\..\..\uC-Probe\Target\Communication\Generic\Source/probe_com.c **** *
1466:..\..\..\..\..\..\uC-Probe\Target\Communication\Generic\Source/probe_com.c **** * Argument(s) : prx_buf         Pointer to the receive  buffer
1467:..\..\..\..\..\..\uC-Probe\Target\Communication\Generic\Source/probe_com.c **** *
1468:..\..\..\..\..\..\uC-Probe\Target\Communication\Generic\Source/probe_com.c **** *               ptx_buf         Pointer to the transmit buffer
1469:..\..\..\..\..\..\uC-Probe\Target\Communication\Generic\Source/probe_com.c **** *
1470:..\..\..\..\..\..\uC-Probe\Target\Communication\Generic\Source/probe_com.c **** *               rx_pkt_size     Size of the receive  packet
1471:..\..\..\..\..\..\uC-Probe\Target\Communication\Generic\Source/probe_com.c **** *
1472:..\..\..\..\..\..\uC-Probe\Target\Communication\Generic\Source/probe_com.c **** *               tx_buf_size     Size of the transmit buffer
1473:..\..\..\..\..\..\uC-Probe\Target\Communication\Generic\Source/probe_com.c **** *
1474:..\..\..\..\..\..\uC-Probe\Target\Communication\Generic\Source/probe_com.c **** * Return(s)   : The number of bytes written to the tx buffer.
1475:..\..\..\..\..\..\uC-Probe\Target\Communication\Generic\Source/probe_com.c **** *
1476:..\..\..\..\..\..\uC-Probe\Target\Communication\Generic\Source/probe_com.c **** * Caller(s)   : ProbeCom_ParseRxPkt().
1477:..\..\..\..\..\..\uC-Probe\Target\Communication\Generic\Source/probe_com.c **** *
1478:..\..\..\..\..\..\uC-Probe\Target\Communication\Generic\Source/probe_com.c **** * Note(s)     : (1) The RX format:
1479:..\..\..\..\..\..\uC-Probe\Target\Communication\Generic\Source/probe_com.c **** *
1480:..\..\..\..\..\..\uC-Probe\Target\Communication\Generic\Source/probe_com.c **** *                   (A) A 2-byte format,  indicating the data segment format;
1481:..\..\..\..\..\..\uC-Probe\Target\Communication\Generic\Source/probe_com.c **** *                   (B) A 2-byte length,  indicating the number of bytes to write;
1482:..\..\..\..\..\..\uC-Probe\Target\Communication\Generic\Source/probe_com.c **** *                   (C) A 4-byte address, the starting address at which the data should be written;
1483:..\..\..\..\..\..\uC-Probe\Target\Communication\Generic\Source/probe_com.c **** *                   (D) The memory data.
1484:..\..\..\..\..\..\uC-Probe\Target\Communication\Generic\Source/probe_com.c **** *
1485:..\..\..\..\..\..\uC-Probe\Target\Communication\Generic\Source/probe_com.c **** *                         +-------------------------+-------------------------+
1486:..\..\..\..\..\..\uC-Probe\Target\Communication\Generic\Source/probe_com.c **** *                         |          Format         |      Number of bytes    |
1487:..\..\..\..\..\..\uC-Probe\Target\Communication\Generic\Source/probe_com.c **** *                         +-------------------------+-------------------------+
1488:..\..\..\..\..\..\uC-Probe\Target\Communication\Generic\Source/probe_com.c **** *                         |                      Address                      |
1489:..\..\..\..\..\..\uC-Probe\Target\Communication\Generic\Source/probe_com.c **** *                         +---------------------------------------------------+
1490:..\..\..\..\..\..\uC-Probe\Target\Communication\Generic\Source/probe_com.c **** *                         |                        Data                       |
ARM GAS  C:\Users\daniel01\AppData\Local\Temp\ccHLFCB6.s 			page 44


1491:..\..\..\..\..\..\uC-Probe\Target\Communication\Generic\Source/probe_com.c **** *                         |                         .                         |
1492:..\..\..\..\..\..\uC-Probe\Target\Communication\Generic\Source/probe_com.c **** *                         |                         .                         |
1493:..\..\..\..\..\..\uC-Probe\Target\Communication\Generic\Source/probe_com.c **** *                         |                         .                         |
1494:..\..\..\..\..\..\uC-Probe\Target\Communication\Generic\Source/probe_com.c **** *                         +---------------------------------------------------+
1495:..\..\..\..\..\..\uC-Probe\Target\Communication\Generic\Source/probe_com.c **** *
1496:..\..\..\..\..\..\uC-Probe\Target\Communication\Generic\Source/probe_com.c **** *               (2) The TX format:
1497:..\..\..\..\..\..\uC-Probe\Target\Communication\Generic\Source/probe_com.c **** *
1498:..\..\..\..\..\..\uC-Probe\Target\Communication\Generic\Source/probe_com.c **** *                   (A) A 2-byte format, indicating the data segment format;
1499:..\..\..\..\..\..\uC-Probe\Target\Communication\Generic\Source/probe_com.c **** *                   (B) A 1-byte status, indicating the status after the request;
1500:..\..\..\..\..\..\uC-Probe\Target\Communication\Generic\Source/probe_com.c **** *                   (C) A 1-byte modifier.
1501:..\..\..\..\..\..\uC-Probe\Target\Communication\Generic\Source/probe_com.c **** *
1502:..\..\..\..\..\..\uC-Probe\Target\Communication\Generic\Source/probe_com.c **** *                         +-------------------------+------------+------------+
1503:..\..\..\..\..\..\uC-Probe\Target\Communication\Generic\Source/probe_com.c **** *                         |          Format         |   Status   |  Modifier  |
1504:..\..\..\..\..\..\uC-Probe\Target\Communication\Generic\Source/probe_com.c **** *                         +-------------------------+------------+------------+
1505:..\..\..\..\..\..\uC-Probe\Target\Communication\Generic\Source/probe_com.c **** *
1506:..\..\..\..\..\..\uC-Probe\Target\Communication\Generic\Source/probe_com.c **** ***************************************************************************************************
1507:..\..\..\..\..\..\uC-Probe\Target\Communication\Generic\Source/probe_com.c **** */
1508:..\..\..\..\..\..\uC-Probe\Target\Communication\Generic\Source/probe_com.c **** 
1509:..\..\..\..\..\..\uC-Probe\Target\Communication\Generic\Source/probe_com.c **** #if (PROBE_COM_CFG_WR_REQ_EN == DEF_ENABLED)
1510:..\..\..\..\..\..\uC-Probe\Target\Communication\Generic\Source/probe_com.c **** static  CPU_SIZE_T  ProbeCom_ReqWr (CPU_INT08U  *prx_buf,
1511:..\..\..\..\..\..\uC-Probe\Target\Communication\Generic\Source/probe_com.c ****                                     CPU_INT08U  *ptx_buf,
1512:..\..\..\..\..\..\uC-Probe\Target\Communication\Generic\Source/probe_com.c ****                                     CPU_SIZE_T   rx_pkt_size,
1513:..\..\..\..\..\..\uC-Probe\Target\Communication\Generic\Source/probe_com.c ****                                     CPU_SIZE_T   tx_buf_size)
1514:..\..\..\..\..\..\uC-Probe\Target\Communication\Generic\Source/probe_com.c **** {
 958              		.loc 1 1514 0
 959              		.cfi_startproc
 960              		@ args = 0, pretend = 0, frame = 32
 961              		@ frame_needed = 1, uses_anonymous_args = 0
 962 0000 80B5     		push	{r7, lr}
 963              	.LCFI20:
 964              		.cfi_def_cfa_offset 8
 965 0002 88B0     		sub	sp, sp, #32
 966              	.LCFI21:
 967              		.cfi_def_cfa_offset 40
 968 0004 00AF     		add	r7, sp, #0
 969              		.cfi_offset 14, -4
 970              		.cfi_offset 7, -8
 971              	.LCFI22:
 972              		.cfi_def_cfa_register 7
 973 0006 F860     		str	r0, [r7, #12]
 974 0008 B960     		str	r1, [r7, #8]
 975 000a 7A60     		str	r2, [r7, #4]
 976 000c 3B60     		str	r3, [r7, #0]
1515:..\..\..\..\..\..\uC-Probe\Target\Communication\Generic\Source/probe_com.c ****     CPU_SIZE_T  sym_size;
1516:..\..\..\..\..\..\uC-Probe\Target\Communication\Generic\Source/probe_com.c ****     CPU_ADDR    sym_addr;
1517:..\..\..\..\..\..\uC-Probe\Target\Communication\Generic\Source/probe_com.c ****     CPU_SIZE_T  tx_len;
1518:..\..\..\..\..\..\uC-Probe\Target\Communication\Generic\Source/probe_com.c ****     CPU_SR_ALLOC();
 977              		.loc 1 1518 0
 978 000e 4FF00003 		mov	r3, #0
 979 0012 FB61     		str	r3, [r7, #28]
1519:..\..\..\..\..\..\uC-Probe\Target\Communication\Generic\Source/probe_com.c **** 
1520:..\..\..\..\..\..\uC-Probe\Target\Communication\Generic\Source/probe_com.c **** 
1521:..\..\..\..\..\..\uC-Probe\Target\Communication\Generic\Source/probe_com.c ****    (void)&tx_buf_size;                                          /* Prevent compiler warning.       
1522:..\..\..\..\..\..\uC-Probe\Target\Communication\Generic\Source/probe_com.c **** 
1523:..\..\..\..\..\..\uC-Probe\Target\Communication\Generic\Source/probe_com.c **** 
1524:..\..\..\..\..\..\uC-Probe\Target\Communication\Generic\Source/probe_com.c ****                                                                 /* ------------------- CHK PKT SIZE
1525:..\..\..\..\..\..\uC-Probe\Target\Communication\Generic\Source/probe_com.c ****                                                                 /* Expected size >= 2      (= Rx hd
ARM GAS  C:\Users\daniel01\AppData\Local\Temp\ccHLFCB6.s 			page 45


1526:..\..\..\..\..\..\uC-Probe\Target\Communication\Generic\Source/probe_com.c ****                                                                 /*                + 2      (= Sym s
1527:..\..\..\..\..\..\uC-Probe\Target\Communication\Generic\Source/probe_com.c ****                                                                 /*                + 4      (= Sym a
1528:..\..\..\..\..\..\uC-Probe\Target\Communication\Generic\Source/probe_com.c ****                                                                 /*                + nbytes (= Data 
1529:..\..\..\..\..\..\uC-Probe\Target\Communication\Generic\Source/probe_com.c ****     if (rx_pkt_size < 8u) {
 980              		.loc 1 1529 0
 981 0014 7B68     		ldr	r3, [r7, #4]
 982 0016 072B     		cmp	r3, #7
 983 0018 09D8     		bhi	.L48
1530:..\..\..\..\..\..\uC-Probe\Target\Communication\Generic\Source/probe_com.c ****         tx_len = ProbeCom_ReqErr(ptx_buf, PROBE_COM_STATUS_RX_PKT_WRONG_SIZE);
 984              		.loc 1 1530 0
 985 001a BB68     		ldr	r3, [r7, #8]
 986 001c 1846     		mov	r0, r3
 987 001e 4FF0FE01 		mov	r1, #254
 988 0022 FFF7FEFF 		bl	ProbeCom_ReqErr
 989 0026 0346     		mov	r3, r0
 990 0028 BB61     		str	r3, [r7, #24]
1531:..\..\..\..\..\..\uC-Probe\Target\Communication\Generic\Source/probe_com.c ****         return (tx_len);
 991              		.loc 1 1531 0
 992 002a BB69     		ldr	r3, [r7, #24]
 993 002c 5EE0     		b	.L49
 994              	.L48:
1532:..\..\..\..\..\..\uC-Probe\Target\Communication\Generic\Source/probe_com.c ****     }
1533:..\..\..\..\..\..\uC-Probe\Target\Communication\Generic\Source/probe_com.c **** 
1534:..\..\..\..\..\..\uC-Probe\Target\Communication\Generic\Source/probe_com.c **** 
1535:..\..\..\..\..\..\uC-Probe\Target\Communication\Generic\Source/probe_com.c **** 
1536:..\..\..\..\..\..\uC-Probe\Target\Communication\Generic\Source/probe_com.c ****                                                                 /* -------------------- HANDLE WR -
1537:..\..\..\..\..\..\uC-Probe\Target\Communication\Generic\Source/probe_com.c ****     sym_size = ProbeCom_GetINT16U(&prx_buf);                    /* Get nbr of bytes to wr.         
 995              		.loc 1 1537 0
 996 002e 07F10C03 		add	r3, r7, #12
 997 0032 1846     		mov	r0, r3
 998 0034 FFF7FEFF 		bl	ProbeCom_GetINT16U
 999 0038 0346     		mov	r3, r0
 1000 003a 3B61     		str	r3, [r7, #16]
1538:..\..\..\..\..\..\uC-Probe\Target\Communication\Generic\Source/probe_com.c **** 
1539:..\..\..\..\..\..\uC-Probe\Target\Communication\Generic\Source/probe_com.c ****                                                                 /* Get wr addr.                    
1540:..\..\..\..\..\..\uC-Probe\Target\Communication\Generic\Source/probe_com.c **** #if ((!defined(CPU_CFG_ADDR_SIZE)) || \
1541:..\..\..\..\..\..\uC-Probe\Target\Communication\Generic\Source/probe_com.c ****      ((defined(CPU_CFG_ADDR_SIZE)) && \
1542:..\..\..\..\..\..\uC-Probe\Target\Communication\Generic\Source/probe_com.c ****               (CPU_CFG_ADDR_SIZE   != CPU_WORD_SIZE_16)))
1543:..\..\..\..\..\..\uC-Probe\Target\Communication\Generic\Source/probe_com.c ****     sym_addr = (CPU_ADDR)ProbeCom_GetINT32U(&prx_buf);
 1001              		.loc 1 1543 0
 1002 003c 07F10C03 		add	r3, r7, #12
 1003 0040 1846     		mov	r0, r3
 1004 0042 FFF7FEFF 		bl	ProbeCom_GetINT32U
 1005 0046 0346     		mov	r3, r0
 1006 0048 7B61     		str	r3, [r7, #20]
1544:..\..\..\..\..\..\uC-Probe\Target\Communication\Generic\Source/probe_com.c **** #else
1545:..\..\..\..\..\..\uC-Probe\Target\Communication\Generic\Source/probe_com.c ****     sym_addr = (CPU_ADDR)ProbeCom_GetINT16U(&prx_buf);
1546:..\..\..\..\..\..\uC-Probe\Target\Communication\Generic\Source/probe_com.c ****     prx_buf += 2;
1547:..\..\..\..\..\..\uC-Probe\Target\Communication\Generic\Source/probe_com.c **** #endif
1548:..\..\..\..\..\..\uC-Probe\Target\Communication\Generic\Source/probe_com.c **** 
1549:..\..\..\..\..\..\uC-Probe\Target\Communication\Generic\Source/probe_com.c ****     if (rx_pkt_size != (8 + sym_size)) {                        /* If rx data segment is NOT expect
 1007              		.loc 1 1549 0
 1008 004a 3B69     		ldr	r3, [r7, #16]
 1009 004c 03F10802 		add	r2, r3, #8
 1010 0050 7B68     		ldr	r3, [r7, #4]
 1011 0052 9A42     		cmp	r2, r3
 1012 0054 09D0     		beq	.L50
ARM GAS  C:\Users\daniel01\AppData\Local\Temp\ccHLFCB6.s 			page 46


1550:..\..\..\..\..\..\uC-Probe\Target\Communication\Generic\Source/probe_com.c ****         tx_len = ProbeCom_ReqErr(ptx_buf, PROBE_COM_STATUS_RX_PKT_WRONG_SIZE);
 1013              		.loc 1 1550 0
 1014 0056 BB68     		ldr	r3, [r7, #8]
 1015 0058 1846     		mov	r0, r3
 1016 005a 4FF0FE01 		mov	r1, #254
 1017 005e FFF7FEFF 		bl	ProbeCom_ReqErr
 1018 0062 0346     		mov	r3, r0
 1019 0064 BB61     		str	r3, [r7, #24]
1551:..\..\..\..\..\..\uC-Probe\Target\Communication\Generic\Source/probe_com.c ****         return (tx_len);
 1020              		.loc 1 1551 0
 1021 0066 BB69     		ldr	r3, [r7, #24]
 1022 0068 40E0     		b	.L49
 1023              	.L50:
1552:..\..\..\..\..\..\uC-Probe\Target\Communication\Generic\Source/probe_com.c ****     }
1553:..\..\..\..\..\..\uC-Probe\Target\Communication\Generic\Source/probe_com.c **** 
1554:..\..\..\..\..\..\uC-Probe\Target\Communication\Generic\Source/probe_com.c ****                                                                 /* Copy data into mem.             
1555:..\..\..\..\..\..\uC-Probe\Target\Communication\Generic\Source/probe_com.c ****     CPU_CRITICAL_ENTER();
 1024              		.loc 1 1555 0
 1025 006a FFF7FEFF 		bl	CPU_SR_Save
 1026 006e 0346     		mov	r3, r0
 1027 0070 FB61     		str	r3, [r7, #28]
1556:..\..\..\..\..\..\uC-Probe\Target\Communication\Generic\Source/probe_com.c ****     Mem_Copy((void     *)sym_addr,
 1028              		.loc 1 1556 0
 1029 0072 7A69     		ldr	r2, [r7, #20]
 1030 0074 FB68     		ldr	r3, [r7, #12]
 1031 0076 1046     		mov	r0, r2
 1032 0078 1946     		mov	r1, r3
 1033 007a 3A69     		ldr	r2, [r7, #16]
 1034 007c FFF7FEFF 		bl	Mem_Copy
1557:..\..\..\..\..\..\uC-Probe\Target\Communication\Generic\Source/probe_com.c ****              (void     *)prx_buf,
1558:..\..\..\..\..\..\uC-Probe\Target\Communication\Generic\Source/probe_com.c ****              (CPU_SIZE_T)sym_size);
1559:..\..\..\..\..\..\uC-Probe\Target\Communication\Generic\Source/probe_com.c ****     CPU_CRITICAL_EXIT();
 1035              		.loc 1 1559 0
 1036 0080 F869     		ldr	r0, [r7, #28]
 1037 0082 FFF7FEFF 		bl	CPU_SR_Restore
1560:..\..\..\..\..\..\uC-Probe\Target\Communication\Generic\Source/probe_com.c **** 
1561:..\..\..\..\..\..\uC-Probe\Target\Communication\Generic\Source/probe_com.c **** #if (PROBE_COM_CFG_STAT_EN == DEF_ENABLED)
1562:..\..\..\..\..\..\uC-Probe\Target\Communication\Generic\Source/probe_com.c ****     ProbeCom_RxSymCtr++;                                        /* Inc global sym ctr.             
 1038              		.loc 1 1562 0
 1039 0086 40F20003 		movw	r3, #:lower16:ProbeCom_RxSymCtr
 1040 008a C0F20003 		movt	r3, #:upper16:ProbeCom_RxSymCtr
 1041 008e 1B68     		ldr	r3, [r3, #0]
 1042 0090 03F10102 		add	r2, r3, #1
 1043 0094 40F20003 		movw	r3, #:lower16:ProbeCom_RxSymCtr
 1044 0098 C0F20003 		movt	r3, #:upper16:ProbeCom_RxSymCtr
 1045 009c 1A60     		str	r2, [r3, #0]
1563:..\..\..\..\..\..\uC-Probe\Target\Communication\Generic\Source/probe_com.c ****     ProbeCom_RxSymByteCtr += sym_size;
 1046              		.loc 1 1563 0
 1047 009e 40F20003 		movw	r3, #:lower16:ProbeCom_RxSymByteCtr
 1048 00a2 C0F20003 		movt	r3, #:upper16:ProbeCom_RxSymByteCtr
 1049 00a6 1A68     		ldr	r2, [r3, #0]
 1050 00a8 3B69     		ldr	r3, [r7, #16]
 1051 00aa 1A44     		add	r2, r2, r3
 1052 00ac 40F20003 		movw	r3, #:lower16:ProbeCom_RxSymByteCtr
 1053 00b0 C0F20003 		movt	r3, #:upper16:ProbeCom_RxSymByteCtr
 1054 00b4 1A60     		str	r2, [r3, #0]
1564:..\..\..\..\..\..\uC-Probe\Target\Communication\Generic\Source/probe_com.c **** #endif
ARM GAS  C:\Users\daniel01\AppData\Local\Temp\ccHLFCB6.s 			page 47


1565:..\..\..\..\..\..\uC-Probe\Target\Communication\Generic\Source/probe_com.c **** 
1566:..\..\..\..\..\..\uC-Probe\Target\Communication\Generic\Source/probe_com.c ****                                                                 /* Store TX pkt hdr :              
1567:..\..\..\..\..\..\uC-Probe\Target\Communication\Generic\Source/probe_com.c ****     ProbeCom_StoINT16U(&ptx_buf, PROBE_COM_FMT_TX_WR);          /* (a) TX pkt fmt.                 
 1055              		.loc 1 1567 0
 1056 00b6 07F10803 		add	r3, r7, #8
 1057 00ba 1846     		mov	r0, r3
 1058 00bc 48F20301 		movw	r1, #32771
 1059 00c0 FFF7FEFF 		bl	ProbeCom_StoINT16U
1568:..\..\..\..\..\..\uC-Probe\Target\Communication\Generic\Source/probe_com.c ****     ProbeCom_StoINT08U(&ptx_buf, PROBE_COM_STATUS_OK);          /* (b) Target status.              
 1060              		.loc 1 1568 0
 1061 00c4 07F10803 		add	r3, r7, #8
 1062 00c8 1846     		mov	r0, r3
 1063 00ca 4FF00101 		mov	r1, #1
 1064 00ce FFF7FEFF 		bl	ProbeCom_StoINT08U
1569:..\..\..\..\..\..\uC-Probe\Target\Communication\Generic\Source/probe_com.c ****     ProbeCom_StoINT08U(&ptx_buf, ProbeCom_PktModifier());       /* (c) Modifier.                   
 1065              		.loc 1 1569 0
 1066 00d2 FFF7FEFF 		bl	ProbeCom_PktModifier
 1067 00d6 0346     		mov	r3, r0
 1068 00d8 07F10802 		add	r2, r7, #8
 1069 00dc 1046     		mov	r0, r2
 1070 00de 1946     		mov	r1, r3
 1071 00e0 FFF7FEFF 		bl	ProbeCom_StoINT08U
1570:..\..\..\..\..\..\uC-Probe\Target\Communication\Generic\Source/probe_com.c **** 
1571:..\..\..\..\..\..\uC-Probe\Target\Communication\Generic\Source/probe_com.c **** 
1572:..\..\..\..\..\..\uC-Probe\Target\Communication\Generic\Source/probe_com.c **** 
1573:..\..\..\..\..\..\uC-Probe\Target\Communication\Generic\Source/probe_com.c ****                                                                 /* ------------------ RTN TX PKT SI
1574:..\..\..\..\..\..\uC-Probe\Target\Communication\Generic\Source/probe_com.c ****     tx_len = (CPU_SIZE_T)PROBE_COM_SIZE_TX_HDR;                 /* Tx pkt size = 4 (= Tx hdr size).
 1072              		.loc 1 1574 0
 1073 00e4 4FF00403 		mov	r3, #4
 1074 00e8 BB61     		str	r3, [r7, #24]
1575:..\..\..\..\..\..\uC-Probe\Target\Communication\Generic\Source/probe_com.c ****     return (tx_len);
 1075              		.loc 1 1575 0
 1076 00ea BB69     		ldr	r3, [r7, #24]
 1077              	.L49:
1576:..\..\..\..\..\..\uC-Probe\Target\Communication\Generic\Source/probe_com.c **** }
 1078              		.loc 1 1576 0
 1079 00ec 1846     		mov	r0, r3
 1080 00ee 07F12007 		add	r7, r7, #32
 1081 00f2 BD46     		mov	sp, r7
 1082 00f4 80BD     		pop	{r7, pc}
 1083              		.cfi_endproc
 1084              	.LFE7:
 1085              		.size	ProbeCom_ReqWr, .-ProbeCom_ReqWr
 1086 00f6 00BF     		.section	.text.ProbeCom_ReqWrMulti,"ax",%progbits
 1087              		.align	2
 1088              		.thumb
 1089              		.thumb_func
 1090              		.type	ProbeCom_ReqWrMulti, %function
 1091              	ProbeCom_ReqWrMulti:
 1092              	.LFB8:
1577:..\..\..\..\..\..\uC-Probe\Target\Communication\Generic\Source/probe_com.c **** #endif
1578:..\..\..\..\..\..\uC-Probe\Target\Communication\Generic\Source/probe_com.c **** 
1579:..\..\..\..\..\..\uC-Probe\Target\Communication\Generic\Source/probe_com.c **** 
1580:..\..\..\..\..\..\uC-Probe\Target\Communication\Generic\Source/probe_com.c **** /*
1581:..\..\..\..\..\..\uC-Probe\Target\Communication\Generic\Source/probe_com.c **** ***************************************************************************************************
1582:..\..\..\..\..\..\uC-Probe\Target\Communication\Generic\Source/probe_com.c **** *                                        ProbeCom_ReqWrMulti()
1583:..\..\..\..\..\..\uC-Probe\Target\Communication\Generic\Source/probe_com.c **** *
ARM GAS  C:\Users\daniel01\AppData\Local\Temp\ccHLFCB6.s 			page 48


1584:..\..\..\..\..\..\uC-Probe\Target\Communication\Generic\Source/probe_com.c **** * Description : Parse the FMT_WR_MULTI request & formulate response.  This command causes the targe
1585:..\..\..\..\..\..\uC-Probe\Target\Communication\Generic\Source/probe_com.c **** *               write certain data into its memroy, for a certain number of {memory address, data l
1586:..\..\..\..\..\..\uC-Probe\Target\Communication\Generic\Source/probe_com.c **** *               data} triplets (which are given in the request).
1587:..\..\..\..\..\..\uC-Probe\Target\Communication\Generic\Source/probe_com.c **** *
1588:..\..\..\..\..\..\uC-Probe\Target\Communication\Generic\Source/probe_com.c **** * Argument(s) : prx_buf         Pointer to the receive  buffer
1589:..\..\..\..\..\..\uC-Probe\Target\Communication\Generic\Source/probe_com.c **** *
1590:..\..\..\..\..\..\uC-Probe\Target\Communication\Generic\Source/probe_com.c **** *               ptx_buf         Pointer to the transmit buffer
1591:..\..\..\..\..\..\uC-Probe\Target\Communication\Generic\Source/probe_com.c **** *
1592:..\..\..\..\..\..\uC-Probe\Target\Communication\Generic\Source/probe_com.c **** *               rx_pkt_size     Size of the receive  packet
1593:..\..\..\..\..\..\uC-Probe\Target\Communication\Generic\Source/probe_com.c **** *
1594:..\..\..\..\..\..\uC-Probe\Target\Communication\Generic\Source/probe_com.c **** *               tx_buf_size     Size of the transmit buffer
1595:..\..\..\..\..\..\uC-Probe\Target\Communication\Generic\Source/probe_com.c **** *
1596:..\..\..\..\..\..\uC-Probe\Target\Communication\Generic\Source/probe_com.c **** * Return(s)   : The number of bytes written to the tx buffer.
1597:..\..\..\..\..\..\uC-Probe\Target\Communication\Generic\Source/probe_com.c **** *
1598:..\..\..\..\..\..\uC-Probe\Target\Communication\Generic\Source/probe_com.c **** * Caller(s)   : ProbeCom_ParseRxPkt().
1599:..\..\..\..\..\..\uC-Probe\Target\Communication\Generic\Source/probe_com.c **** *
1600:..\..\..\..\..\..\uC-Probe\Target\Communication\Generic\Source/probe_com.c **** * Note(s)     : (1) The RX format:
1601:..\..\..\..\..\..\uC-Probe\Target\Communication\Generic\Source/probe_com.c **** *
1602:..\..\..\..\..\..\uC-Probe\Target\Communication\Generic\Source/probe_com.c **** *                   (A) A 2-byte format,  indicating the data segment format;
1603:..\..\..\..\..\..\uC-Probe\Target\Communication\Generic\Source/probe_com.c **** *                   (B) A n-byte item descriptor, for each item in the list, consiting of the follo
1604:..\..\..\..\..\..\uC-Probe\Target\Communication\Generic\Source/probe_com.c **** *
1605:..\..\..\..\..\..\uC-Probe\Target\Communication\Generic\Source/probe_com.c **** *                       (1) A 1-byte length,  indicating the number of bytes to write;
1606:..\..\..\..\..\..\uC-Probe\Target\Communication\Generic\Source/probe_com.c **** *                       (2) A 4-byte address, the starting address at which the data should be writ
1607:..\..\..\..\..\..\uC-Probe\Target\Communication\Generic\Source/probe_com.c **** *                       (3) The memory data.
1608:..\..\..\..\..\..\uC-Probe\Target\Communication\Generic\Source/probe_com.c **** *
1609:..\..\..\..\..\..\uC-Probe\Target\Communication\Generic\Source/probe_com.c **** *                         +-------------------------+------------+------------+
1610:..\..\..\..\..\..\uC-Probe\Target\Communication\Generic\Source/probe_com.c **** *                         |          Format         | Num. bytes |         Addr       ---
1611:..\..\..\..\..\..\uC-Probe\Target\Communication\Generic\Source/probe_com.c **** *                         +-------------------------+------------+------------+        |
1612:..\..\..\..\..\..\uC-Probe\Target\Communication\Generic\Source/probe_com.c **** *                         ress                                   |            |        |
1613:..\..\..\..\..\..\uC-Probe\Target\Communication\Generic\Source/probe_com.c **** *                         +--------------------------------------+            |        |    Item 1
1614:..\..\..\..\..\..\uC-Probe\Target\Communication\Generic\Source/probe_com.c **** *                         |                       Data                        |        |
1615:..\..\..\..\..\..\uC-Probe\Target\Communication\Generic\Source/probe_com.c **** *                         |                         .                         |        |
1616:..\..\..\..\..\..\uC-Probe\Target\Communication\Generic\Source/probe_com.c **** *                         |                         .                         |        |
1617:..\..\..\..\..\..\uC-Probe\Target\Communication\Generic\Source/probe_com.c **** *                         +------------+--------------------------------------+       ---
1618:..\..\..\..\..\..\uC-Probe\Target\Communication\Generic\Source/probe_com.c **** *                         | Num. bytes |                                   Addr        |    Item 2
1619:..\..\..\..\..\..\uC-Probe\Target\Communication\Generic\Source/probe_com.c **** *                         +------------+--------------------------------------+        .
1620:..\..\..\..\..\..\uC-Probe\Target\Communication\Generic\Source/probe_com.c **** *                         |                         .                         |        .
1621:..\..\..\..\..\..\uC-Probe\Target\Communication\Generic\Source/probe_com.c **** *                         |                         .                         |        .
1622:..\..\..\..\..\..\uC-Probe\Target\Communication\Generic\Source/probe_com.c **** *                         |                         .            +------------+        .
1623:..\..\..\..\..\..\uC-Probe\Target\Communication\Generic\Source/probe_com.c **** *                         |                         .            | Num. bytes |       ---
1624:..\..\..\..\..\..\uC-Probe\Target\Communication\Generic\Source/probe_com.c **** *                         ---------------------------------------+------------+        |
1625:..\..\..\..\..\..\uC-Probe\Target\Communication\Generic\Source/probe_com.c **** *                         |                      Address                      |        |
1626:..\..\..\..\..\..\uC-Probe\Target\Communication\Generic\Source/probe_com.c **** *                         +---------------------------------------------------+        |    Item n
1627:..\..\..\..\..\..\uC-Probe\Target\Communication\Generic\Source/probe_com.c **** *                         |                       Data                        |        |
1628:..\..\..\..\..\..\uC-Probe\Target\Communication\Generic\Source/probe_com.c **** *                         |                         .                         |        |
1629:..\..\..\..\..\..\uC-Probe\Target\Communication\Generic\Source/probe_com.c **** *                         |                         .                         |        |
1630:..\..\..\..\..\..\uC-Probe\Target\Communication\Generic\Source/probe_com.c **** *                         +------------+--------------------------------------+       ---
1631:..\..\..\..\..\..\uC-Probe\Target\Communication\Generic\Source/probe_com.c **** *
1632:..\..\..\..\..\..\uC-Probe\Target\Communication\Generic\Source/probe_com.c **** *               (2) The TX format:
1633:..\..\..\..\..\..\uC-Probe\Target\Communication\Generic\Source/probe_com.c **** *
1634:..\..\..\..\..\..\uC-Probe\Target\Communication\Generic\Source/probe_com.c **** *                   (A) A 2-byte format, indicating the data segment format;
1635:..\..\..\..\..\..\uC-Probe\Target\Communication\Generic\Source/probe_com.c **** *                   (B) A 1-byte status, indicating the status after the request;
1636:..\..\..\..\..\..\uC-Probe\Target\Communication\Generic\Source/probe_com.c **** *                   (C) A 1-byte modifier.
1637:..\..\..\..\..\..\uC-Probe\Target\Communication\Generic\Source/probe_com.c **** *
1638:..\..\..\..\..\..\uC-Probe\Target\Communication\Generic\Source/probe_com.c **** *                         +-------------------------+------------+------------+
1639:..\..\..\..\..\..\uC-Probe\Target\Communication\Generic\Source/probe_com.c **** *                         |          Format         |   Status   |  Modifier  |
1640:..\..\..\..\..\..\uC-Probe\Target\Communication\Generic\Source/probe_com.c **** *                         +-------------------------+------------+------------+
ARM GAS  C:\Users\daniel01\AppData\Local\Temp\ccHLFCB6.s 			page 49


1641:..\..\..\..\..\..\uC-Probe\Target\Communication\Generic\Source/probe_com.c **** *
1642:..\..\..\..\..\..\uC-Probe\Target\Communication\Generic\Source/probe_com.c **** ***************************************************************************************************
1643:..\..\..\..\..\..\uC-Probe\Target\Communication\Generic\Source/probe_com.c **** */
1644:..\..\..\..\..\..\uC-Probe\Target\Communication\Generic\Source/probe_com.c **** 
1645:..\..\..\..\..\..\uC-Probe\Target\Communication\Generic\Source/probe_com.c **** #if (PROBE_COM_CFG_WR_REQ_EN == DEF_ENABLED)
1646:..\..\..\..\..\..\uC-Probe\Target\Communication\Generic\Source/probe_com.c **** static  CPU_SIZE_T  ProbeCom_ReqWrMulti (CPU_INT08U  *prx_buf,
1647:..\..\..\..\..\..\uC-Probe\Target\Communication\Generic\Source/probe_com.c ****                                          CPU_INT08U  *ptx_buf,
1648:..\..\..\..\..\..\uC-Probe\Target\Communication\Generic\Source/probe_com.c ****                                          CPU_SIZE_T   rx_pkt_size,
1649:..\..\..\..\..\..\uC-Probe\Target\Communication\Generic\Source/probe_com.c ****                                          CPU_SIZE_T   tx_buf_size)
1650:..\..\..\..\..\..\uC-Probe\Target\Communication\Generic\Source/probe_com.c **** {
 1093              		.loc 1 1650 0
 1094              		.cfi_startproc
 1095              		@ args = 0, pretend = 0, frame = 48
 1096              		@ frame_needed = 1, uses_anonymous_args = 0
 1097 0000 80B5     		push	{r7, lr}
 1098              	.LCFI23:
 1099              		.cfi_def_cfa_offset 8
 1100 0002 8CB0     		sub	sp, sp, #48
 1101              	.LCFI24:
 1102              		.cfi_def_cfa_offset 56
 1103 0004 00AF     		add	r7, sp, #0
 1104              		.cfi_offset 14, -4
 1105              		.cfi_offset 7, -8
 1106              	.LCFI25:
 1107              		.cfi_def_cfa_register 7
 1108 0006 F860     		str	r0, [r7, #12]
 1109 0008 B960     		str	r1, [r7, #8]
 1110 000a 7A60     		str	r2, [r7, #4]
 1111 000c 3B60     		str	r3, [r7, #0]
1651:..\..\..\..\..\..\uC-Probe\Target\Communication\Generic\Source/probe_com.c ****     CPU_SIZE_T  rx_pkt_ix;
1652:..\..\..\..\..\..\uC-Probe\Target\Communication\Generic\Source/probe_com.c **** #if (PROBE_COM_CFG_STAT_EN == DEF_ENABLED)
1653:..\..\..\..\..\..\uC-Probe\Target\Communication\Generic\Source/probe_com.c ****     CPU_INT32U  sym_ctr;
1654:..\..\..\..\..\..\uC-Probe\Target\Communication\Generic\Source/probe_com.c ****     CPU_INT32U  sym_byte_ctr;
1655:..\..\..\..\..\..\uC-Probe\Target\Communication\Generic\Source/probe_com.c **** #endif
1656:..\..\..\..\..\..\uC-Probe\Target\Communication\Generic\Source/probe_com.c ****     CPU_ADDR    sym_addr;
1657:..\..\..\..\..\..\uC-Probe\Target\Communication\Generic\Source/probe_com.c ****     CPU_SIZE_T  sym_size;
1658:..\..\..\..\..\..\uC-Probe\Target\Communication\Generic\Source/probe_com.c ****     CPU_SIZE_T  tx_len;
1659:..\..\..\..\..\..\uC-Probe\Target\Communication\Generic\Source/probe_com.c ****     CPU_SR_ALLOC();
 1112              		.loc 1 1659 0
 1113 000e 4FF00003 		mov	r3, #0
 1114 0012 FB62     		str	r3, [r7, #44]
1660:..\..\..\..\..\..\uC-Probe\Target\Communication\Generic\Source/probe_com.c **** 
1661:..\..\..\..\..\..\uC-Probe\Target\Communication\Generic\Source/probe_com.c **** 
1662:..\..\..\..\..\..\uC-Probe\Target\Communication\Generic\Source/probe_com.c ****    (void)&tx_buf_size;                                          /* Prevent compiler warning.       
1663:..\..\..\..\..\..\uC-Probe\Target\Communication\Generic\Source/probe_com.c **** 
1664:..\..\..\..\..\..\uC-Probe\Target\Communication\Generic\Source/probe_com.c **** 
1665:..\..\..\..\..\..\uC-Probe\Target\Communication\Generic\Source/probe_com.c ****                                                                 /* ------------------- CHK PKT SIZE
1666:..\..\..\..\..\..\uC-Probe\Target\Communication\Generic\Source/probe_com.c ****                                                                 /* Expected size >= 2      (= Rx hd
1667:..\..\..\..\..\..\uC-Probe\Target\Communication\Generic\Source/probe_com.c ****                                                                 /*                + 1      (= Nbr o
1668:..\..\..\..\..\..\uC-Probe\Target\Communication\Generic\Source/probe_com.c ****                                                                 /*                + 4      (= Addr 
1669:..\..\..\..\..\..\uC-Probe\Target\Communication\Generic\Source/probe_com.c ****                                                                 /*                + nbytes (= Data 
1670:..\..\..\..\..\..\uC-Probe\Target\Communication\Generic\Source/probe_com.c ****     if (rx_pkt_size < 7) {
 1115              		.loc 1 1670 0
 1116 0014 7B68     		ldr	r3, [r7, #4]
 1117 0016 062B     		cmp	r3, #6
 1118 0018 09D8     		bhi	.L53
1671:..\..\..\..\..\..\uC-Probe\Target\Communication\Generic\Source/probe_com.c ****         tx_len = ProbeCom_ReqErr(ptx_buf, PROBE_COM_STATUS_RX_PKT_WRONG_SIZE);
ARM GAS  C:\Users\daniel01\AppData\Local\Temp\ccHLFCB6.s 			page 50


 1119              		.loc 1 1671 0
 1120 001a BB68     		ldr	r3, [r7, #8]
 1121 001c 1846     		mov	r0, r3
 1122 001e 4FF0FE01 		mov	r1, #254
 1123 0022 FFF7FEFF 		bl	ProbeCom_ReqErr
 1124 0026 0346     		mov	r3, r0
 1125 0028 BB62     		str	r3, [r7, #40]
1672:..\..\..\..\..\..\uC-Probe\Target\Communication\Generic\Source/probe_com.c ****         return (tx_len);
 1126              		.loc 1 1672 0
 1127 002a BB6A     		ldr	r3, [r7, #40]
 1128 002c 94E0     		b	.L54
 1129              	.L53:
1673:..\..\..\..\..\..\uC-Probe\Target\Communication\Generic\Source/probe_com.c ****     }
1674:..\..\..\..\..\..\uC-Probe\Target\Communication\Generic\Source/probe_com.c **** 
1675:..\..\..\..\..\..\uC-Probe\Target\Communication\Generic\Source/probe_com.c ****                                                                 /* -------------------- HANDLE WR -
1676:..\..\..\..\..\..\uC-Probe\Target\Communication\Generic\Source/probe_com.c ****     rx_pkt_ix  = 7;                                             /* Rx pkt ix after 1st item = 2 (= 
 1130              		.loc 1 1676 0
 1131 002e 4FF00703 		mov	r3, #7
 1132 0032 7B61     		str	r3, [r7, #20]
1677:..\..\..\..\..\..\uC-Probe\Target\Communication\Generic\Source/probe_com.c ****                                                                 /*                          + 5 (= 
1678:..\..\..\..\..\..\uC-Probe\Target\Communication\Generic\Source/probe_com.c **** 
1679:..\..\..\..\..\..\uC-Probe\Target\Communication\Generic\Source/probe_com.c **** #if (PROBE_COM_CFG_STAT_EN == DEF_ENABLED)
1680:..\..\..\..\..\..\uC-Probe\Target\Communication\Generic\Source/probe_com.c ****     sym_ctr      = 0;
 1133              		.loc 1 1680 0
 1134 0034 4FF00003 		mov	r3, #0
 1135 0038 BB61     		str	r3, [r7, #24]
1681:..\..\..\..\..\..\uC-Probe\Target\Communication\Generic\Source/probe_com.c ****     sym_byte_ctr = 0;
 1136              		.loc 1 1681 0
 1137 003a 4FF00003 		mov	r3, #0
 1138 003e FB61     		str	r3, [r7, #28]
1682:..\..\..\..\..\..\uC-Probe\Target\Communication\Generic\Source/probe_com.c **** #endif
1683:..\..\..\..\..\..\uC-Probe\Target\Communication\Generic\Source/probe_com.c ****                                                                 /* Sto data for each item.         
1684:..\..\..\..\..\..\uC-Probe\Target\Communication\Generic\Source/probe_com.c ****     while (rx_pkt_ix <= rx_pkt_size) {
 1139              		.loc 1 1684 0
 1140 0040 53E0     		b	.L55
 1141              	.L57:
1685:..\..\..\..\..\..\uC-Probe\Target\Communication\Generic\Source/probe_com.c ****         sym_size = prx_buf[0];                                  /* (a) Get nbr of bytes to wr.     
 1142              		.loc 1 1685 0
 1143 0042 FB68     		ldr	r3, [r7, #12]
 1144 0044 1B78     		ldrb	r3, [r3, #0]	@ zero_extendqisi2
 1145 0046 7B62     		str	r3, [r7, #36]
1686:..\..\..\..\..\..\uC-Probe\Target\Communication\Generic\Source/probe_com.c **** 
1687:..\..\..\..\..\..\uC-Probe\Target\Communication\Generic\Source/probe_com.c ****                                                                 /* (b) Get wr addr.                
1688:..\..\..\..\..\..\uC-Probe\Target\Communication\Generic\Source/probe_com.c **** #if ((!defined(CPU_CFG_ADDR_SIZE)) || \
1689:..\..\..\..\..\..\uC-Probe\Target\Communication\Generic\Source/probe_com.c ****      ((defined(CPU_CFG_ADDR_SIZE)) && \
1690:..\..\..\..\..\..\uC-Probe\Target\Communication\Generic\Source/probe_com.c ****               (CPU_CFG_ADDR_SIZE   != CPU_WORD_SIZE_16)))
1691:..\..\..\..\..\..\uC-Probe\Target\Communication\Generic\Source/probe_com.c ****         sym_addr = ((CPU_ADDR)prx_buf[4] << 8) + prx_buf[3];
 1146              		.loc 1 1691 0
 1147 0048 FB68     		ldr	r3, [r7, #12]
 1148 004a 03F10403 		add	r3, r3, #4
 1149 004e 1B78     		ldrb	r3, [r3, #0]	@ zero_extendqisi2
 1150 0050 4FEA0322 		lsl	r2, r3, #8
 1151 0054 FB68     		ldr	r3, [r7, #12]
 1152 0056 03F10303 		add	r3, r3, #3
 1153 005a 1B78     		ldrb	r3, [r3, #0]	@ zero_extendqisi2
 1154 005c 1344     		add	r3, r2, r3
 1155 005e 3B62     		str	r3, [r7, #32]
ARM GAS  C:\Users\daniel01\AppData\Local\Temp\ccHLFCB6.s 			page 51


1692:..\..\..\..\..\..\uC-Probe\Target\Communication\Generic\Source/probe_com.c ****         sym_addr = ((CPU_ADDR)sym_addr   << 8) + prx_buf[2];
 1156              		.loc 1 1692 0
 1157 0060 3B6A     		ldr	r3, [r7, #32]
 1158 0062 4FEA0322 		lsl	r2, r3, #8
 1159 0066 FB68     		ldr	r3, [r7, #12]
 1160 0068 03F10203 		add	r3, r3, #2
 1161 006c 1B78     		ldrb	r3, [r3, #0]	@ zero_extendqisi2
 1162 006e 1344     		add	r3, r2, r3
 1163 0070 3B62     		str	r3, [r7, #32]
1693:..\..\..\..\..\..\uC-Probe\Target\Communication\Generic\Source/probe_com.c ****         sym_addr = ((CPU_ADDR)sym_addr   << 8) + prx_buf[1];
 1164              		.loc 1 1693 0
 1165 0072 3B6A     		ldr	r3, [r7, #32]
 1166 0074 4FEA0322 		lsl	r2, r3, #8
 1167 0078 FB68     		ldr	r3, [r7, #12]
 1168 007a 03F10103 		add	r3, r3, #1
 1169 007e 1B78     		ldrb	r3, [r3, #0]	@ zero_extendqisi2
 1170 0080 1344     		add	r3, r2, r3
 1171 0082 3B62     		str	r3, [r7, #32]
1694:..\..\..\..\..\..\uC-Probe\Target\Communication\Generic\Source/probe_com.c **** #else
1695:..\..\..\..\..\..\uC-Probe\Target\Communication\Generic\Source/probe_com.c ****         sym_addr = ((CPU_ADDR)prx_buf[2] << 8) + prx_buf[1];
1696:..\..\..\..\..\..\uC-Probe\Target\Communication\Generic\Source/probe_com.c **** #endif
1697:..\..\..\..\..\..\uC-Probe\Target\Communication\Generic\Source/probe_com.c **** 
1698:..\..\..\..\..\..\uC-Probe\Target\Communication\Generic\Source/probe_com.c ****         prx_buf += 5u;
 1172              		.loc 1 1698 0
 1173 0084 FB68     		ldr	r3, [r7, #12]
 1174 0086 03F10503 		add	r3, r3, #5
 1175 008a FB60     		str	r3, [r7, #12]
1699:..\..\..\..\..\..\uC-Probe\Target\Communication\Generic\Source/probe_com.c **** 
1700:..\..\..\..\..\..\uC-Probe\Target\Communication\Generic\Source/probe_com.c ****         if (rx_pkt_ix + sym_size > rx_pkt_size) {
 1176              		.loc 1 1700 0
 1177 008c 7A69     		ldr	r2, [r7, #20]
 1178 008e 7B6A     		ldr	r3, [r7, #36]
 1179 0090 1A44     		add	r2, r2, r3
 1180 0092 7B68     		ldr	r3, [r7, #4]
 1181 0094 9A42     		cmp	r2, r3
 1182 0096 09D9     		bls	.L56
1701:..\..\..\..\..\..\uC-Probe\Target\Communication\Generic\Source/probe_com.c ****             tx_len = ProbeCom_ReqErr(ptx_buf, PROBE_COM_STATUS_RX_PKT_WRONG_SIZE);
 1183              		.loc 1 1701 0
 1184 0098 BB68     		ldr	r3, [r7, #8]
 1185 009a 1846     		mov	r0, r3
 1186 009c 4FF0FE01 		mov	r1, #254
 1187 00a0 FFF7FEFF 		bl	ProbeCom_ReqErr
 1188 00a4 0346     		mov	r3, r0
 1189 00a6 BB62     		str	r3, [r7, #40]
1702:..\..\..\..\..\..\uC-Probe\Target\Communication\Generic\Source/probe_com.c ****             return (tx_len);
 1190              		.loc 1 1702 0
 1191 00a8 BB6A     		ldr	r3, [r7, #40]
 1192 00aa 55E0     		b	.L54
 1193              	.L56:
1703:..\..\..\..\..\..\uC-Probe\Target\Communication\Generic\Source/probe_com.c ****         }
1704:..\..\..\..\..\..\uC-Probe\Target\Communication\Generic\Source/probe_com.c **** 
1705:..\..\..\..\..\..\uC-Probe\Target\Communication\Generic\Source/probe_com.c **** #if (PROBE_COM_CFG_STAT_EN == DEF_ENABLED)
1706:..\..\..\..\..\..\uC-Probe\Target\Communication\Generic\Source/probe_com.c ****         sym_ctr++;                                              /* (c) Inc local sym ctr.          
 1194              		.loc 1 1706 0
 1195 00ac BB69     		ldr	r3, [r7, #24]
 1196 00ae 03F10103 		add	r3, r3, #1
 1197 00b2 BB61     		str	r3, [r7, #24]
ARM GAS  C:\Users\daniel01\AppData\Local\Temp\ccHLFCB6.s 			page 52


1707:..\..\..\..\..\..\uC-Probe\Target\Communication\Generic\Source/probe_com.c ****         sym_byte_ctr += sym_size;
 1198              		.loc 1 1707 0
 1199 00b4 FA69     		ldr	r2, [r7, #28]
 1200 00b6 7B6A     		ldr	r3, [r7, #36]
 1201 00b8 1344     		add	r3, r2, r3
 1202 00ba FB61     		str	r3, [r7, #28]
1708:..\..\..\..\..\..\uC-Probe\Target\Communication\Generic\Source/probe_com.c **** #endif
1709:..\..\..\..\..\..\uC-Probe\Target\Communication\Generic\Source/probe_com.c ****                                                                 /* (d) Sto data into pkt.          
1710:..\..\..\..\..\..\uC-Probe\Target\Communication\Generic\Source/probe_com.c ****         CPU_CRITICAL_ENTER();
 1203              		.loc 1 1710 0
 1204 00bc FFF7FEFF 		bl	CPU_SR_Save
 1205 00c0 0346     		mov	r3, r0
 1206 00c2 FB62     		str	r3, [r7, #44]
1711:..\..\..\..\..\..\uC-Probe\Target\Communication\Generic\Source/probe_com.c ****         Mem_Copy((void     *)sym_addr,
 1207              		.loc 1 1711 0
 1208 00c4 3B6A     		ldr	r3, [r7, #32]
 1209 00c6 1846     		mov	r0, r3
 1210 00c8 F968     		ldr	r1, [r7, #12]
 1211 00ca 7A6A     		ldr	r2, [r7, #36]
 1212 00cc FFF7FEFF 		bl	Mem_Copy
1712:..\..\..\..\..\..\uC-Probe\Target\Communication\Generic\Source/probe_com.c ****                  (void     *)prx_buf,
1713:..\..\..\..\..\..\uC-Probe\Target\Communication\Generic\Source/probe_com.c ****                  (CPU_SIZE_T)sym_size);
1714:..\..\..\..\..\..\uC-Probe\Target\Communication\Generic\Source/probe_com.c ****         CPU_CRITICAL_EXIT();
 1213              		.loc 1 1714 0
 1214 00d0 F86A     		ldr	r0, [r7, #44]
 1215 00d2 FFF7FEFF 		bl	CPU_SR_Restore
1715:..\..\..\..\..\..\uC-Probe\Target\Communication\Generic\Source/probe_com.c **** 
1716:..\..\..\..\..\..\uC-Probe\Target\Communication\Generic\Source/probe_com.c ****         prx_buf   += sym_size;
 1216              		.loc 1 1716 0
 1217 00d6 FA68     		ldr	r2, [r7, #12]
 1218 00d8 7B6A     		ldr	r3, [r7, #36]
 1219 00da 1344     		add	r3, r2, r3
 1220 00dc FB60     		str	r3, [r7, #12]
1717:..\..\..\..\..\..\uC-Probe\Target\Communication\Generic\Source/probe_com.c ****         rx_pkt_ix += 5u + sym_size;
 1221              		.loc 1 1717 0
 1222 00de 7A6A     		ldr	r2, [r7, #36]
 1223 00e0 7B69     		ldr	r3, [r7, #20]
 1224 00e2 1344     		add	r3, r2, r3
 1225 00e4 03F10503 		add	r3, r3, #5
 1226 00e8 7B61     		str	r3, [r7, #20]
 1227              	.L55:
 1228              		.loc 1 1684 0
 1229 00ea 7A69     		ldr	r2, [r7, #20]
 1230 00ec 7B68     		ldr	r3, [r7, #4]
 1231 00ee 9A42     		cmp	r2, r3
 1232 00f0 A7D9     		bls	.L57
1718:..\..\..\..\..\..\uC-Probe\Target\Communication\Generic\Source/probe_com.c ****     }
1719:..\..\..\..\..\..\uC-Probe\Target\Communication\Generic\Source/probe_com.c **** 
1720:..\..\..\..\..\..\uC-Probe\Target\Communication\Generic\Source/probe_com.c **** #if (PROBE_COM_CFG_STAT_EN == DEF_ENABLED)
1721:..\..\..\..\..\..\uC-Probe\Target\Communication\Generic\Source/probe_com.c ****     ProbeCom_RxSymCtr     += sym_ctr;                           /* Inc global sym ctr.             
 1233              		.loc 1 1721 0
 1234 00f2 40F20003 		movw	r3, #:lower16:ProbeCom_RxSymCtr
 1235 00f6 C0F20003 		movt	r3, #:upper16:ProbeCom_RxSymCtr
 1236 00fa 1A68     		ldr	r2, [r3, #0]
 1237 00fc BB69     		ldr	r3, [r7, #24]
 1238 00fe 1A44     		add	r2, r2, r3
 1239 0100 40F20003 		movw	r3, #:lower16:ProbeCom_RxSymCtr
ARM GAS  C:\Users\daniel01\AppData\Local\Temp\ccHLFCB6.s 			page 53


 1240 0104 C0F20003 		movt	r3, #:upper16:ProbeCom_RxSymCtr
 1241 0108 1A60     		str	r2, [r3, #0]
1722:..\..\..\..\..\..\uC-Probe\Target\Communication\Generic\Source/probe_com.c ****     ProbeCom_RxSymByteCtr += sym_byte_ctr;
 1242              		.loc 1 1722 0
 1243 010a 40F20003 		movw	r3, #:lower16:ProbeCom_RxSymByteCtr
 1244 010e C0F20003 		movt	r3, #:upper16:ProbeCom_RxSymByteCtr
 1245 0112 1A68     		ldr	r2, [r3, #0]
 1246 0114 FB69     		ldr	r3, [r7, #28]
 1247 0116 1A44     		add	r2, r2, r3
 1248 0118 40F20003 		movw	r3, #:lower16:ProbeCom_RxSymByteCtr
 1249 011c C0F20003 		movt	r3, #:upper16:ProbeCom_RxSymByteCtr
 1250 0120 1A60     		str	r2, [r3, #0]
1723:..\..\..\..\..\..\uC-Probe\Target\Communication\Generic\Source/probe_com.c **** #endif
1724:..\..\..\..\..\..\uC-Probe\Target\Communication\Generic\Source/probe_com.c **** 
1725:..\..\..\..\..\..\uC-Probe\Target\Communication\Generic\Source/probe_com.c ****                                                                 /* Sto tx pkt hdr :                
1726:..\..\..\..\..\..\uC-Probe\Target\Communication\Generic\Source/probe_com.c ****     ProbeCom_StoINT16U(&ptx_buf, PROBE_COM_FMT_TX_WR_MULTI);    /* (a) tx pkt fmt.                 
 1251              		.loc 1 1726 0
 1252 0122 07F10803 		add	r3, r7, #8
 1253 0126 1846     		mov	r0, r3
 1254 0128 48F20801 		movw	r1, #32776
 1255 012c FFF7FEFF 		bl	ProbeCom_StoINT16U
1727:..\..\..\..\..\..\uC-Probe\Target\Communication\Generic\Source/probe_com.c ****     ProbeCom_StoINT08U(&ptx_buf, PROBE_COM_STATUS_OK);          /* (b) Target status.              
 1256              		.loc 1 1727 0
 1257 0130 07F10803 		add	r3, r7, #8
 1258 0134 1846     		mov	r0, r3
 1259 0136 4FF00101 		mov	r1, #1
 1260 013a FFF7FEFF 		bl	ProbeCom_StoINT08U
1728:..\..\..\..\..\..\uC-Probe\Target\Communication\Generic\Source/probe_com.c ****     ProbeCom_StoINT08U(&ptx_buf, ProbeCom_PktModifier());       /* (c) Modifier.                   
 1261              		.loc 1 1728 0
 1262 013e FFF7FEFF 		bl	ProbeCom_PktModifier
 1263 0142 0346     		mov	r3, r0
 1264 0144 07F10802 		add	r2, r7, #8
 1265 0148 1046     		mov	r0, r2
 1266 014a 1946     		mov	r1, r3
 1267 014c FFF7FEFF 		bl	ProbeCom_StoINT08U
1729:..\..\..\..\..\..\uC-Probe\Target\Communication\Generic\Source/probe_com.c **** 
1730:..\..\..\..\..\..\uC-Probe\Target\Communication\Generic\Source/probe_com.c ****                                                                 /* ------------------ RTN TX PKT SI
1731:..\..\..\..\..\..\uC-Probe\Target\Communication\Generic\Source/probe_com.c ****     tx_len = (CPU_SIZE_T)PROBE_COM_SIZE_TX_HDR;                 /* Tx pkt size = 4 (= Tx hdr size).
 1268              		.loc 1 1731 0
 1269 0150 4FF00403 		mov	r3, #4
 1270 0154 BB62     		str	r3, [r7, #40]
1732:..\..\..\..\..\..\uC-Probe\Target\Communication\Generic\Source/probe_com.c ****     return (tx_len);
 1271              		.loc 1 1732 0
 1272 0156 BB6A     		ldr	r3, [r7, #40]
 1273              	.L54:
1733:..\..\..\..\..\..\uC-Probe\Target\Communication\Generic\Source/probe_com.c **** }
 1274              		.loc 1 1733 0
 1275 0158 1846     		mov	r0, r3
 1276 015a 07F13007 		add	r7, r7, #48
 1277 015e BD46     		mov	sp, r7
 1278 0160 80BD     		pop	{r7, pc}
 1279              		.cfi_endproc
 1280              	.LFE8:
 1281              		.size	ProbeCom_ReqWrMulti, .-ProbeCom_ReqWrMulti
 1282 0162 00BF     		.section	.text.ProbeCom_GetINT08U,"ax",%progbits
 1283              		.align	2
 1284              		.thumb
ARM GAS  C:\Users\daniel01\AppData\Local\Temp\ccHLFCB6.s 			page 54


 1285              		.thumb_func
 1286              		.type	ProbeCom_GetINT08U, %function
 1287              	ProbeCom_GetINT08U:
 1288              	.LFB9:
1734:..\..\..\..\..\..\uC-Probe\Target\Communication\Generic\Source/probe_com.c **** #endif
1735:..\..\..\..\..\..\uC-Probe\Target\Communication\Generic\Source/probe_com.c **** 
1736:..\..\..\..\..\..\uC-Probe\Target\Communication\Generic\Source/probe_com.c **** 
1737:..\..\..\..\..\..\uC-Probe\Target\Communication\Generic\Source/probe_com.c **** /*
1738:..\..\..\..\..\..\uC-Probe\Target\Communication\Generic\Source/probe_com.c **** ***************************************************************************************************
1739:..\..\..\..\..\..\uC-Probe\Target\Communication\Generic\Source/probe_com.c **** *                                         ProbeCom_ReqStrIn()
1740:..\..\..\..\..\..\uC-Probe\Target\Communication\Generic\Source/probe_com.c **** *
1741:..\..\..\..\..\..\uC-Probe\Target\Communication\Generic\Source/probe_com.c **** * Description : Parse the FMT_STR_IN command & formulate response.  This command sends a string to 
1742:..\..\..\..\..\..\uC-Probe\Target\Communication\Generic\Source/probe_com.c **** *               target.
1743:..\..\..\..\..\..\uC-Probe\Target\Communication\Generic\Source/probe_com.c **** *
1744:..\..\..\..\..\..\uC-Probe\Target\Communication\Generic\Source/probe_com.c **** * Argument(s) : prx_buf         Pointer to the receive  buffer
1745:..\..\..\..\..\..\uC-Probe\Target\Communication\Generic\Source/probe_com.c **** *
1746:..\..\..\..\..\..\uC-Probe\Target\Communication\Generic\Source/probe_com.c **** *               ptx_buf         Pointer to the transmit buffer
1747:..\..\..\..\..\..\uC-Probe\Target\Communication\Generic\Source/probe_com.c **** *
1748:..\..\..\..\..\..\uC-Probe\Target\Communication\Generic\Source/probe_com.c **** *               rx_pkt_size     Size of the receive  packet
1749:..\..\..\..\..\..\uC-Probe\Target\Communication\Generic\Source/probe_com.c **** *
1750:..\..\..\..\..\..\uC-Probe\Target\Communication\Generic\Source/probe_com.c **** *               tx_buf_size     Size of the transmit buffer
1751:..\..\..\..\..\..\uC-Probe\Target\Communication\Generic\Source/probe_com.c **** *
1752:..\..\..\..\..\..\uC-Probe\Target\Communication\Generic\Source/probe_com.c **** * Return(s)   : The number of bytes written to the tx buffer.
1753:..\..\..\..\..\..\uC-Probe\Target\Communication\Generic\Source/probe_com.c **** *
1754:..\..\..\..\..\..\uC-Probe\Target\Communication\Generic\Source/probe_com.c **** * Caller(s)   : ProbeCom_ParseRxPkt().
1755:..\..\..\..\..\..\uC-Probe\Target\Communication\Generic\Source/probe_com.c **** *
1756:..\..\..\..\..\..\uC-Probe\Target\Communication\Generic\Source/probe_com.c **** * Note(s)     : (1) The RX format:
1757:..\..\..\..\..\..\uC-Probe\Target\Communication\Generic\Source/probe_com.c **** *
1758:..\..\..\..\..\..\uC-Probe\Target\Communication\Generic\Source/probe_com.c **** *                   (A) A 2-byte format, indicating the data segment format;
1759:..\..\..\..\..\..\uC-Probe\Target\Communication\Generic\Source/probe_com.c **** *                   (B) A 2-byte padding;
1760:..\..\..\..\..\..\uC-Probe\Target\Communication\Generic\Source/probe_com.c **** *                   (C) A n-byte string.
1761:..\..\..\..\..\..\uC-Probe\Target\Communication\Generic\Source/probe_com.c **** *
1762:..\..\..\..\..\..\uC-Probe\Target\Communication\Generic\Source/probe_com.c **** *                         +-------------------------+-------------------------+
1763:..\..\..\..\..\..\uC-Probe\Target\Communication\Generic\Source/probe_com.c **** *                         |          Format         |         Padding         |
1764:..\..\..\..\..\..\uC-Probe\Target\Communication\Generic\Source/probe_com.c **** *                         +-------------------------+-------------------------+
1765:..\..\..\..\..\..\uC-Probe\Target\Communication\Generic\Source/probe_com.c **** *                         |                       String                      |
1766:..\..\..\..\..\..\uC-Probe\Target\Communication\Generic\Source/probe_com.c **** *                         |                         .                         |
1767:..\..\..\..\..\..\uC-Probe\Target\Communication\Generic\Source/probe_com.c **** *                         |                         .                         |
1768:..\..\..\..\..\..\uC-Probe\Target\Communication\Generic\Source/probe_com.c **** *                         |                         .                         |
1769:..\..\..\..\..\..\uC-Probe\Target\Communication\Generic\Source/probe_com.c **** *                         +---------------------------------------------------+
1770:..\..\..\..\..\..\uC-Probe\Target\Communication\Generic\Source/probe_com.c **** *
1771:..\..\..\..\..\..\uC-Probe\Target\Communication\Generic\Source/probe_com.c **** *               (2) The TX format:
1772:..\..\..\..\..\..\uC-Probe\Target\Communication\Generic\Source/probe_com.c **** *
1773:..\..\..\..\..\..\uC-Probe\Target\Communication\Generic\Source/probe_com.c **** *                   (A) A 2-byte format, indicating the data segment format;
1774:..\..\..\..\..\..\uC-Probe\Target\Communication\Generic\Source/probe_com.c **** *                   (B) A 1-byte status, indicating the status after the request;
1775:..\..\..\..\..\..\uC-Probe\Target\Communication\Generic\Source/probe_com.c **** *                   (C) A 1-byte modifier.
1776:..\..\..\..\..\..\uC-Probe\Target\Communication\Generic\Source/probe_com.c **** *
1777:..\..\..\..\..\..\uC-Probe\Target\Communication\Generic\Source/probe_com.c **** *                         +-------------------------+------------+------------+
1778:..\..\..\..\..\..\uC-Probe\Target\Communication\Generic\Source/probe_com.c **** *                         |          Format         |   Status   |  Modifier  |
1779:..\..\..\..\..\..\uC-Probe\Target\Communication\Generic\Source/probe_com.c **** *                         +-------------------------+------------+------------+
1780:..\..\..\..\..\..\uC-Probe\Target\Communication\Generic\Source/probe_com.c **** *
1781:..\..\..\..\..\..\uC-Probe\Target\Communication\Generic\Source/probe_com.c **** ***************************************************************************************************
1782:..\..\..\..\..\..\uC-Probe\Target\Communication\Generic\Source/probe_com.c **** */
1783:..\..\..\..\..\..\uC-Probe\Target\Communication\Generic\Source/probe_com.c **** 
1784:..\..\..\..\..\..\uC-Probe\Target\Communication\Generic\Source/probe_com.c **** #if (PROBE_COM_CFG_STR_REQ_EN == DEF_ENABLED)
1785:..\..\..\..\..\..\uC-Probe\Target\Communication\Generic\Source/probe_com.c **** static  CPU_SIZE_T  ProbeCom_ReqStrIn (CPU_INT08U  *prx_buf,
1786:..\..\..\..\..\..\uC-Probe\Target\Communication\Generic\Source/probe_com.c ****                                        CPU_INT08U  *ptx_buf,
ARM GAS  C:\Users\daniel01\AppData\Local\Temp\ccHLFCB6.s 			page 55


1787:..\..\..\..\..\..\uC-Probe\Target\Communication\Generic\Source/probe_com.c ****                                        CPU_SIZE_T   rx_pkt_size,
1788:..\..\..\..\..\..\uC-Probe\Target\Communication\Generic\Source/probe_com.c ****                                        CPU_SIZE_T   tx_buf_size)
1789:..\..\..\..\..\..\uC-Probe\Target\Communication\Generic\Source/probe_com.c **** {
1790:..\..\..\..\..\..\uC-Probe\Target\Communication\Generic\Source/probe_com.c ****     CPU_SIZE_T   len;
1791:..\..\..\..\..\..\uC-Probe\Target\Communication\Generic\Source/probe_com.c ****     CPU_SIZE_T   len_wr;
1792:..\..\..\..\..\..\uC-Probe\Target\Communication\Generic\Source/probe_com.c ****     CPU_SIZE_T   tx_len;
1793:..\..\..\..\..\..\uC-Probe\Target\Communication\Generic\Source/probe_com.c ****     CPU_INT08U  *pstr;
1794:..\..\..\..\..\..\uC-Probe\Target\Communication\Generic\Source/probe_com.c **** 
1795:..\..\..\..\..\..\uC-Probe\Target\Communication\Generic\Source/probe_com.c **** 
1796:..\..\..\..\..\..\uC-Probe\Target\Communication\Generic\Source/probe_com.c ****    (void)&tx_buf_size;                                          /* Prevent compiler warning.       
1797:..\..\..\..\..\..\uC-Probe\Target\Communication\Generic\Source/probe_com.c **** 
1798:..\..\..\..\..\..\uC-Probe\Target\Communication\Generic\Source/probe_com.c **** 
1799:..\..\..\..\..\..\uC-Probe\Target\Communication\Generic\Source/probe_com.c ****                                                                 /* ------------------- CHK PKT SIZE
1800:..\..\..\..\..\..\uC-Probe\Target\Communication\Generic\Source/probe_com.c ****                                                                 /* Expected size = 2 (= Rx hdr size
1801:..\..\..\..\..\..\uC-Probe\Target\Communication\Generic\Source/probe_com.c ****                                                                 /*               + 2 (= Padding    
1802:..\..\..\..\..\..\uC-Probe\Target\Communication\Generic\Source/probe_com.c ****     if (rx_pkt_size <= 4u) {
1803:..\..\..\..\..\..\uC-Probe\Target\Communication\Generic\Source/probe_com.c ****         tx_len = ProbeCom_ReqErr(ptx_buf, PROBE_COM_STATUS_RX_PKT_WRONG_SIZE);
1804:..\..\..\..\..\..\uC-Probe\Target\Communication\Generic\Source/probe_com.c ****         return (tx_len);
1805:..\..\..\..\..\..\uC-Probe\Target\Communication\Generic\Source/probe_com.c ****     }
1806:..\..\..\..\..\..\uC-Probe\Target\Communication\Generic\Source/probe_com.c **** 
1807:..\..\..\..\..\..\uC-Probe\Target\Communication\Generic\Source/probe_com.c **** 
1808:..\..\..\..\..\..\uC-Probe\Target\Communication\Generic\Source/probe_com.c **** 
1809:..\..\..\..\..\..\uC-Probe\Target\Communication\Generic\Source/probe_com.c ****                                                                 /* ------------------- HANDLE STR -
1810:..\..\..\..\..\..\uC-Probe\Target\Communication\Generic\Source/probe_com.c ****     pstr   = prx_buf     + 2u;                                   /* Ignore padding.                
1811:..\..\..\..\..\..\uC-Probe\Target\Communication\Generic\Source/probe_com.c ****     len    = rx_pkt_size - 4u;
1812:..\..\..\..\..\..\uC-Probe\Target\Communication\Generic\Source/probe_com.c **** 
1813:..\..\..\..\..\..\uC-Probe\Target\Communication\Generic\Source/probe_com.c ****     len_wr = ProbeCom_BufWr(&ProbeCom_StrInBuf,                 /* Rd str from buf.                
1814:..\..\..\..\..\..\uC-Probe\Target\Communication\Generic\Source/probe_com.c ****                              pstr,
1815:..\..\..\..\..\..\uC-Probe\Target\Communication\Generic\Source/probe_com.c ****                              len);
1816:..\..\..\..\..\..\uC-Probe\Target\Communication\Generic\Source/probe_com.c **** 
1817:..\..\..\..\..\..\uC-Probe\Target\Communication\Generic\Source/probe_com.c **** #if (PROBE_COM_CFG_STAT_EN == DEF_ENABLED)
1818:..\..\..\..\..\..\uC-Probe\Target\Communication\Generic\Source/probe_com.c ****     if (len_wr < len) {
1819:..\..\..\..\..\..\uC-Probe\Target\Communication\Generic\Source/probe_com.c ****         ProbeCom_StrRxOvfErrCtr++;
1820:..\..\..\..\..\..\uC-Probe\Target\Communication\Generic\Source/probe_com.c ****     }
1821:..\..\..\..\..\..\uC-Probe\Target\Communication\Generic\Source/probe_com.c **** 
1822:..\..\..\..\..\..\uC-Probe\Target\Communication\Generic\Source/probe_com.c ****     ProbeCom_StrRxCtr += len_wr;
1823:..\..\..\..\..\..\uC-Probe\Target\Communication\Generic\Source/probe_com.c **** #endif
1824:..\..\..\..\..\..\uC-Probe\Target\Communication\Generic\Source/probe_com.c **** 
1825:..\..\..\..\..\..\uC-Probe\Target\Communication\Generic\Source/probe_com.c **** 
1826:..\..\..\..\..\..\uC-Probe\Target\Communication\Generic\Source/probe_com.c ****                                                                 /* ------------------ STORE RESPONS
1827:..\..\..\..\..\..\uC-Probe\Target\Communication\Generic\Source/probe_com.c ****                                                                 /* Sto tx pkt hdr :                
1828:..\..\..\..\..\..\uC-Probe\Target\Communication\Generic\Source/probe_com.c ****     ProbeCom_StoINT16U(&ptx_buf, PROBE_COM_FMT_TX_STR_IN);      /* (a) Tx pkt fmt.                 
1829:..\..\..\..\..\..\uC-Probe\Target\Communication\Generic\Source/probe_com.c ****     ProbeCom_StoINT08U(&ptx_buf, PROBE_COM_STATUS_OK);          /* (b) Target status.              
1830:..\..\..\..\..\..\uC-Probe\Target\Communication\Generic\Source/probe_com.c ****     ProbeCom_StoINT08U(&ptx_buf, ProbeCom_PktModifier());       /* (c) Modifier.                   
1831:..\..\..\..\..\..\uC-Probe\Target\Communication\Generic\Source/probe_com.c **** 
1832:..\..\..\..\..\..\uC-Probe\Target\Communication\Generic\Source/probe_com.c **** 
1833:..\..\..\..\..\..\uC-Probe\Target\Communication\Generic\Source/probe_com.c **** 
1834:..\..\..\..\..\..\uC-Probe\Target\Communication\Generic\Source/probe_com.c ****                                                                 /* ------------------ RTN TX PKT SI
1835:..\..\..\..\..\..\uC-Probe\Target\Communication\Generic\Source/probe_com.c ****     tx_len = (CPU_SIZE_T)PROBE_COM_SIZE_TX_HDR;                 /* Tx pkt size = 4 (= Tx hdr size).
1836:..\..\..\..\..\..\uC-Probe\Target\Communication\Generic\Source/probe_com.c ****     return (tx_len);
1837:..\..\..\..\..\..\uC-Probe\Target\Communication\Generic\Source/probe_com.c **** }
1838:..\..\..\..\..\..\uC-Probe\Target\Communication\Generic\Source/probe_com.c **** #endif
1839:..\..\..\..\..\..\uC-Probe\Target\Communication\Generic\Source/probe_com.c **** 
1840:..\..\..\..\..\..\uC-Probe\Target\Communication\Generic\Source/probe_com.c **** 
1841:..\..\..\..\..\..\uC-Probe\Target\Communication\Generic\Source/probe_com.c **** /*
1842:..\..\..\..\..\..\uC-Probe\Target\Communication\Generic\Source/probe_com.c **** ***************************************************************************************************
1843:..\..\..\..\..\..\uC-Probe\Target\Communication\Generic\Source/probe_com.c **** *                                        ProbeCom_ReqStrOut()
ARM GAS  C:\Users\daniel01\AppData\Local\Temp\ccHLFCB6.s 			page 56


1844:..\..\..\..\..\..\uC-Probe\Target\Communication\Generic\Source/probe_com.c **** *
1845:..\..\..\..\..\..\uC-Probe\Target\Communication\Generic\Source/probe_com.c **** * Description : Parse the FMT_STR_OUT command & formulate response.  This command asks the target t
1846:..\..\..\..\..\..\uC-Probe\Target\Communication\Generic\Source/probe_com.c **** *               a string that it is currently storing.
1847:..\..\..\..\..\..\uC-Probe\Target\Communication\Generic\Source/probe_com.c **** *
1848:..\..\..\..\..\..\uC-Probe\Target\Communication\Generic\Source/probe_com.c **** * Argument(s) : prx_buf         Pointer to the receive  buffer
1849:..\..\..\..\..\..\uC-Probe\Target\Communication\Generic\Source/probe_com.c **** *
1850:..\..\..\..\..\..\uC-Probe\Target\Communication\Generic\Source/probe_com.c **** *               ptx_buf         Pointer to the transmit buffer
1851:..\..\..\..\..\..\uC-Probe\Target\Communication\Generic\Source/probe_com.c **** *
1852:..\..\..\..\..\..\uC-Probe\Target\Communication\Generic\Source/probe_com.c **** *               rx_pkt_size     Size of the receive  packet
1853:..\..\..\..\..\..\uC-Probe\Target\Communication\Generic\Source/probe_com.c **** *
1854:..\..\..\..\..\..\uC-Probe\Target\Communication\Generic\Source/probe_com.c **** *               tx_buf_size     Size of the transmit buffer
1855:..\..\..\..\..\..\uC-Probe\Target\Communication\Generic\Source/probe_com.c **** *
1856:..\..\..\..\..\..\uC-Probe\Target\Communication\Generic\Source/probe_com.c **** * Return(s)   : The number of bytes written to the tx buffer.
1857:..\..\..\..\..\..\uC-Probe\Target\Communication\Generic\Source/probe_com.c **** *
1858:..\..\..\..\..\..\uC-Probe\Target\Communication\Generic\Source/probe_com.c **** * Caller(s)   : ProbeCom_ParseRxPkt().
1859:..\..\..\..\..\..\uC-Probe\Target\Communication\Generic\Source/probe_com.c **** *
1860:..\..\..\..\..\..\uC-Probe\Target\Communication\Generic\Source/probe_com.c **** * Note(s)     : (1) The RX format:
1861:..\..\..\..\..\..\uC-Probe\Target\Communication\Generic\Source/probe_com.c **** *
1862:..\..\..\..\..\..\uC-Probe\Target\Communication\Generic\Source/probe_com.c **** *                   (A) A 2-byte format, indicating the data segment format;
1863:..\..\..\..\..\..\uC-Probe\Target\Communication\Generic\Source/probe_com.c **** *                   (B) A 2-byte padding.
1864:..\..\..\..\..\..\uC-Probe\Target\Communication\Generic\Source/probe_com.c **** *
1865:..\..\..\..\..\..\uC-Probe\Target\Communication\Generic\Source/probe_com.c **** *                         +-------------------------+-------------------------+
1866:..\..\..\..\..\..\uC-Probe\Target\Communication\Generic\Source/probe_com.c **** *                         |          Format         |         Padding         |
1867:..\..\..\..\..\..\uC-Probe\Target\Communication\Generic\Source/probe_com.c **** *                         +-------------------------+-------------------------+
1868:..\..\..\..\..\..\uC-Probe\Target\Communication\Generic\Source/probe_com.c **** *
1869:..\..\..\..\..\..\uC-Probe\Target\Communication\Generic\Source/probe_com.c **** *               (2) The TX format:
1870:..\..\..\..\..\..\uC-Probe\Target\Communication\Generic\Source/probe_com.c **** *
1871:..\..\..\..\..\..\uC-Probe\Target\Communication\Generic\Source/probe_com.c **** *                   (A) A 2-byte format, indicating the data segment format;
1872:..\..\..\..\..\..\uC-Probe\Target\Communication\Generic\Source/probe_com.c **** *                   (B) A 1-byte status, indicating the status after the request;
1873:..\..\..\..\..\..\uC-Probe\Target\Communication\Generic\Source/probe_com.c **** *                   (C) A 1-byte modifier;
1874:..\..\..\..\..\..\uC-Probe\Target\Communication\Generic\Source/probe_com.c **** *                   (D) A n-byte string, the string which is stored in the target's buffer.
1875:..\..\..\..\..\..\uC-Probe\Target\Communication\Generic\Source/probe_com.c **** *
1876:..\..\..\..\..\..\uC-Probe\Target\Communication\Generic\Source/probe_com.c **** *                         +-------------------------+------------+------------+
1877:..\..\..\..\..\..\uC-Probe\Target\Communication\Generic\Source/probe_com.c **** *                         |          Format         |   Status   |  Modifier  |
1878:..\..\..\..\..\..\uC-Probe\Target\Communication\Generic\Source/probe_com.c **** *                         +-------------------------+------------+------------+
1879:..\..\..\..\..\..\uC-Probe\Target\Communication\Generic\Source/probe_com.c **** *                         |                       String                      |
1880:..\..\..\..\..\..\uC-Probe\Target\Communication\Generic\Source/probe_com.c **** *                         |                         .                         |
1881:..\..\..\..\..\..\uC-Probe\Target\Communication\Generic\Source/probe_com.c **** *                         |                         .                         |
1882:..\..\..\..\..\..\uC-Probe\Target\Communication\Generic\Source/probe_com.c **** *                         |                         .                         |
1883:..\..\..\..\..\..\uC-Probe\Target\Communication\Generic\Source/probe_com.c **** *                         +---------------------------------------------------+
1884:..\..\..\..\..\..\uC-Probe\Target\Communication\Generic\Source/probe_com.c **** *
1885:..\..\..\..\..\..\uC-Probe\Target\Communication\Generic\Source/probe_com.c **** *               (3) See Notes for 'ProbeCom_StrWr()'.
1886:..\..\..\..\..\..\uC-Probe\Target\Communication\Generic\Source/probe_com.c **** *
1887:..\..\..\..\..\..\uC-Probe\Target\Communication\Generic\Source/probe_com.c **** *               (4) Probe requires that a NULL byte ends the string.  Consequently, if the data
1888:..\..\..\..\..\..\uC-Probe\Target\Communication\Generic\Source/probe_com.c **** *                   section of the TX packet is n bytes long, then only (n - 1) bytes have been rea
1889:..\..\..\..\..\..\uC-Probe\Target\Communication\Generic\Source/probe_com.c **** *                   the string buffer.
1890:..\..\..\..\..\..\uC-Probe\Target\Communication\Generic\Source/probe_com.c **** ***************************************************************************************************
1891:..\..\..\..\..\..\uC-Probe\Target\Communication\Generic\Source/probe_com.c **** */
1892:..\..\..\..\..\..\uC-Probe\Target\Communication\Generic\Source/probe_com.c **** 
1893:..\..\..\..\..\..\uC-Probe\Target\Communication\Generic\Source/probe_com.c **** #if (PROBE_COM_CFG_STR_REQ_EN == DEF_TRUE)
1894:..\..\..\..\..\..\uC-Probe\Target\Communication\Generic\Source/probe_com.c **** static  CPU_SIZE_T  ProbeCom_ReqStrOut (CPU_INT08U  *prx_buf,
1895:..\..\..\..\..\..\uC-Probe\Target\Communication\Generic\Source/probe_com.c ****                                         CPU_INT08U  *ptx_buf,
1896:..\..\..\..\..\..\uC-Probe\Target\Communication\Generic\Source/probe_com.c ****                                         CPU_SIZE_T   rx_pkt_size,
1897:..\..\..\..\..\..\uC-Probe\Target\Communication\Generic\Source/probe_com.c ****                                         CPU_SIZE_T   tx_buf_size)
1898:..\..\..\..\..\..\uC-Probe\Target\Communication\Generic\Source/probe_com.c **** {
1899:..\..\..\..\..\..\uC-Probe\Target\Communication\Generic\Source/probe_com.c ****     CPU_SIZE_T  len_rd;
1900:..\..\..\..\..\..\uC-Probe\Target\Communication\Generic\Source/probe_com.c ****     CPU_SIZE_T  tx_len;
ARM GAS  C:\Users\daniel01\AppData\Local\Temp\ccHLFCB6.s 			page 57


1901:..\..\..\..\..\..\uC-Probe\Target\Communication\Generic\Source/probe_com.c ****     CPU_SIZE_T  tx_max;
1902:..\..\..\..\..\..\uC-Probe\Target\Communication\Generic\Source/probe_com.c **** 
1903:..\..\..\..\..\..\uC-Probe\Target\Communication\Generic\Source/probe_com.c **** 
1904:..\..\..\..\..\..\uC-Probe\Target\Communication\Generic\Source/probe_com.c ****    (void)&prx_buf;                                              /* Prevent compiler warning.       
1905:..\..\..\..\..\..\uC-Probe\Target\Communication\Generic\Source/probe_com.c **** 
1906:..\..\..\..\..\..\uC-Probe\Target\Communication\Generic\Source/probe_com.c **** 
1907:..\..\..\..\..\..\uC-Probe\Target\Communication\Generic\Source/probe_com.c ****                                                                 /* ------------------- CHK PKT SIZE
1908:..\..\..\..\..\..\uC-Probe\Target\Communication\Generic\Source/probe_com.c ****                                                                 /* Expected size = 2 (= Rx hdr size
1909:..\..\..\..\..\..\uC-Probe\Target\Communication\Generic\Source/probe_com.c ****                                                                 /*               + 2 (= Padding    
1910:..\..\..\..\..\..\uC-Probe\Target\Communication\Generic\Source/probe_com.c ****     if (rx_pkt_size != 4u) {
1911:..\..\..\..\..\..\uC-Probe\Target\Communication\Generic\Source/probe_com.c ****         tx_len = ProbeCom_ReqErr(ptx_buf, PROBE_COM_STATUS_RX_PKT_WRONG_SIZE);
1912:..\..\..\..\..\..\uC-Probe\Target\Communication\Generic\Source/probe_com.c ****         return (tx_len);
1913:..\..\..\..\..\..\uC-Probe\Target\Communication\Generic\Source/probe_com.c ****     }
1914:..\..\..\..\..\..\uC-Probe\Target\Communication\Generic\Source/probe_com.c **** 
1915:..\..\..\..\..\..\uC-Probe\Target\Communication\Generic\Source/probe_com.c ****                                                                 /* --------------------- STORE STR 
1916:..\..\..\..\..\..\uC-Probe\Target\Communication\Generic\Source/probe_com.c ****                                                                 /* Sto TX pkt hdr :                
1917:..\..\..\..\..\..\uC-Probe\Target\Communication\Generic\Source/probe_com.c ****     ProbeCom_StoINT16U(&ptx_buf, PROBE_COM_FMT_TX_STR_OUT);     /* (a) TX pkt fmt.                 
1918:..\..\..\..\..\..\uC-Probe\Target\Communication\Generic\Source/probe_com.c ****     ProbeCom_StoINT08U(&ptx_buf, PROBE_COM_STATUS_OK);          /* (b) Target status.              
1919:..\..\..\..\..\..\uC-Probe\Target\Communication\Generic\Source/probe_com.c ****     ProbeCom_StoINT08U(&ptx_buf, ProbeCom_PktModifier());       /* (c) Modifier.                   
1920:..\..\..\..\..\..\uC-Probe\Target\Communication\Generic\Source/probe_com.c **** 
1921:..\..\..\..\..\..\uC-Probe\Target\Communication\Generic\Source/probe_com.c ****     tx_max = (tx_buf_size - PROBE_COM_SIZE_TX_HDR) - 1;         /* Calc size of largest tx str.    
1922:..\..\..\..\..\..\uC-Probe\Target\Communication\Generic\Source/probe_com.c **** 
1923:..\..\..\..\..\..\uC-Probe\Target\Communication\Generic\Source/probe_com.c ****     len_rd = ProbeCom_BufRd(&ProbeCom_StrOutBuf,                /* Rd str from buf.                
1924:..\..\..\..\..\..\uC-Probe\Target\Communication\Generic\Source/probe_com.c ****                              ptx_buf,
1925:..\..\..\..\..\..\uC-Probe\Target\Communication\Generic\Source/probe_com.c ****                              tx_max);
1926:..\..\..\..\..\..\uC-Probe\Target\Communication\Generic\Source/probe_com.c **** 
1927:..\..\..\..\..\..\uC-Probe\Target\Communication\Generic\Source/probe_com.c ****     if (len_rd == 0u) {                                         /* If there is NO str ... rtn err. 
1928:..\..\..\..\..\..\uC-Probe\Target\Communication\Generic\Source/probe_com.c ****         tx_len = ProbeCom_ReqErr(ptx_buf, PROBE_COM_STATUS_STR_OUT_NONE);
1929:..\..\..\..\..\..\uC-Probe\Target\Communication\Generic\Source/probe_com.c ****         return (tx_len);
1930:..\..\..\..\..\..\uC-Probe\Target\Communication\Generic\Source/probe_com.c ****     }
1931:..\..\..\..\..\..\uC-Probe\Target\Communication\Generic\Source/probe_com.c **** 
1932:..\..\..\..\..\..\uC-Probe\Target\Communication\Generic\Source/probe_com.c ****    *(ptx_buf + len_rd) = (CPU_INT08U)0;                         /* Wr NULL byte.                   
1933:..\..\..\..\..\..\uC-Probe\Target\Communication\Generic\Source/probe_com.c **** 
1934:..\..\..\..\..\..\uC-Probe\Target\Communication\Generic\Source/probe_com.c **** #if (PROBE_COM_CFG_STAT_EN == DEF_ENABLED)
1935:..\..\..\..\..\..\uC-Probe\Target\Communication\Generic\Source/probe_com.c ****     ProbeCom_StrTxCtr += len_rd;
1936:..\..\..\..\..\..\uC-Probe\Target\Communication\Generic\Source/probe_com.c **** #endif
1937:..\..\..\..\..\..\uC-Probe\Target\Communication\Generic\Source/probe_com.c **** 
1938:..\..\..\..\..\..\uC-Probe\Target\Communication\Generic\Source/probe_com.c **** 
1939:..\..\..\..\..\..\uC-Probe\Target\Communication\Generic\Source/probe_com.c ****                                                                 /* ------------------ RTN TX PKT SI
1940:..\..\..\..\..\..\uC-Probe\Target\Communication\Generic\Source/probe_com.c ****     tx_len = PROBE_COM_SIZE_TX_HDR + len_rd + 1u;
1941:..\..\..\..\..\..\uC-Probe\Target\Communication\Generic\Source/probe_com.c ****     return (tx_len);                                            /* Tx pkt size = 4      (= Tx hdr s
1942:..\..\..\..\..\..\uC-Probe\Target\Communication\Generic\Source/probe_com.c ****                                                                 /*             + nbytes (= Str    s
1943:..\..\..\..\..\..\uC-Probe\Target\Communication\Generic\Source/probe_com.c ****                                                                 /*             + 1      (= NULL byt
1944:..\..\..\..\..\..\uC-Probe\Target\Communication\Generic\Source/probe_com.c **** }
1945:..\..\..\..\..\..\uC-Probe\Target\Communication\Generic\Source/probe_com.c **** #endif
1946:..\..\..\..\..\..\uC-Probe\Target\Communication\Generic\Source/probe_com.c **** 
1947:..\..\..\..\..\..\uC-Probe\Target\Communication\Generic\Source/probe_com.c **** 
1948:..\..\..\..\..\..\uC-Probe\Target\Communication\Generic\Source/probe_com.c **** /*
1949:..\..\..\..\..\..\uC-Probe\Target\Communication\Generic\Source/probe_com.c **** ***************************************************************************************************
1950:..\..\..\..\..\..\uC-Probe\Target\Communication\Generic\Source/probe_com.c **** *                                     ProbeCom_ReqTerminalExec()
1951:..\..\..\..\..\..\uC-Probe\Target\Communication\Generic\Source/probe_com.c **** *
1952:..\..\..\..\..\..\uC-Probe\Target\Communication\Generic\Source/probe_com.c **** * Description : Parse the FMT_TERMINAL_EXEC command & formulate response.  This command sends a ter
1953:..\..\..\..\..\..\uC-Probe\Target\Communication\Generic\Source/probe_com.c **** *               command to the target for execution.
1954:..\..\..\..\..\..\uC-Probe\Target\Communication\Generic\Source/probe_com.c **** *
1955:..\..\..\..\..\..\uC-Probe\Target\Communication\Generic\Source/probe_com.c **** * Argument(s) : prx_buf         Pointer to the receive  buffer
1956:..\..\..\..\..\..\uC-Probe\Target\Communication\Generic\Source/probe_com.c **** *
1957:..\..\..\..\..\..\uC-Probe\Target\Communication\Generic\Source/probe_com.c **** *               ptx_buf         Pointer to the transmit buffer
ARM GAS  C:\Users\daniel01\AppData\Local\Temp\ccHLFCB6.s 			page 58


1958:..\..\..\..\..\..\uC-Probe\Target\Communication\Generic\Source/probe_com.c **** *
1959:..\..\..\..\..\..\uC-Probe\Target\Communication\Generic\Source/probe_com.c **** *               rx_pkt_size     Size of the receive  packet
1960:..\..\..\..\..\..\uC-Probe\Target\Communication\Generic\Source/probe_com.c **** *
1961:..\..\..\..\..\..\uC-Probe\Target\Communication\Generic\Source/probe_com.c **** *               tx_buf_size     Size of the transmit buffer
1962:..\..\..\..\..\..\uC-Probe\Target\Communication\Generic\Source/probe_com.c **** *
1963:..\..\..\..\..\..\uC-Probe\Target\Communication\Generic\Source/probe_com.c **** * Return(s)   : The number of bytes written to the tx buffer.
1964:..\..\..\..\..\..\uC-Probe\Target\Communication\Generic\Source/probe_com.c **** *
1965:..\..\..\..\..\..\uC-Probe\Target\Communication\Generic\Source/probe_com.c **** * Caller(s)   : ProbeCom_ParseRxPkt().
1966:..\..\..\..\..\..\uC-Probe\Target\Communication\Generic\Source/probe_com.c **** *
1967:..\..\..\..\..\..\uC-Probe\Target\Communication\Generic\Source/probe_com.c **** * Note(s)     : (1) The RX format:
1968:..\..\..\..\..\..\uC-Probe\Target\Communication\Generic\Source/probe_com.c **** *
1969:..\..\..\..\..\..\uC-Probe\Target\Communication\Generic\Source/probe_com.c **** *                   (A) A 2-byte format, indicating the data segment format;
1970:..\..\..\..\..\..\uC-Probe\Target\Communication\Generic\Source/probe_com.c **** *                   (B) A 2-byte padding;
1971:..\..\..\..\..\..\uC-Probe\Target\Communication\Generic\Source/probe_com.c **** *                   (C) A n-byte string.
1972:..\..\..\..\..\..\uC-Probe\Target\Communication\Generic\Source/probe_com.c **** *
1973:..\..\..\..\..\..\uC-Probe\Target\Communication\Generic\Source/probe_com.c **** *                         +-------------------------+-------------------------+
1974:..\..\..\..\..\..\uC-Probe\Target\Communication\Generic\Source/probe_com.c **** *                         |          Format         |         Padding         |
1975:..\..\..\..\..\..\uC-Probe\Target\Communication\Generic\Source/probe_com.c **** *                         +-------------------------+-------------------------+
1976:..\..\..\..\..\..\uC-Probe\Target\Communication\Generic\Source/probe_com.c **** *                         |                  Terminal Command                 |
1977:..\..\..\..\..\..\uC-Probe\Target\Communication\Generic\Source/probe_com.c **** *                         |                         .                         |
1978:..\..\..\..\..\..\uC-Probe\Target\Communication\Generic\Source/probe_com.c **** *                         |                         .                         |
1979:..\..\..\..\..\..\uC-Probe\Target\Communication\Generic\Source/probe_com.c **** *                         |                         .                         |
1980:..\..\..\..\..\..\uC-Probe\Target\Communication\Generic\Source/probe_com.c **** *                         +---------------------------------------------------+
1981:..\..\..\..\..\..\uC-Probe\Target\Communication\Generic\Source/probe_com.c **** *
1982:..\..\..\..\..\..\uC-Probe\Target\Communication\Generic\Source/probe_com.c **** *               (2) The TX format:
1983:..\..\..\..\..\..\uC-Probe\Target\Communication\Generic\Source/probe_com.c **** *
1984:..\..\..\..\..\..\uC-Probe\Target\Communication\Generic\Source/probe_com.c **** *                   (A) A 2-byte format, indicating the data segment format;
1985:..\..\..\..\..\..\uC-Probe\Target\Communication\Generic\Source/probe_com.c **** *                   (B) A 1-byte status, indicating the status after the request;
1986:..\..\..\..\..\..\uC-Probe\Target\Communication\Generic\Source/probe_com.c **** *                   (C) A 1-byte modifier.
1987:..\..\..\..\..\..\uC-Probe\Target\Communication\Generic\Source/probe_com.c **** *
1988:..\..\..\..\..\..\uC-Probe\Target\Communication\Generic\Source/probe_com.c **** *                         +-------------------------+------------+------------+
1989:..\..\..\..\..\..\uC-Probe\Target\Communication\Generic\Source/probe_com.c **** *                         |          Format         |   Status   |  Modifier  |
1990:..\..\..\..\..\..\uC-Probe\Target\Communication\Generic\Source/probe_com.c **** *                         +-------------------------+------------+------------+
1991:..\..\..\..\..\..\uC-Probe\Target\Communication\Generic\Source/probe_com.c **** *
1992:..\..\..\..\..\..\uC-Probe\Target\Communication\Generic\Source/probe_com.c **** ***************************************************************************************************
1993:..\..\..\..\..\..\uC-Probe\Target\Communication\Generic\Source/probe_com.c **** */
1994:..\..\..\..\..\..\uC-Probe\Target\Communication\Generic\Source/probe_com.c **** 
1995:..\..\..\..\..\..\uC-Probe\Target\Communication\Generic\Source/probe_com.c **** #if (PROBE_COM_CFG_TERMINAL_REQ_EN == DEF_ENABLED)
1996:..\..\..\..\..\..\uC-Probe\Target\Communication\Generic\Source/probe_com.c **** static  CPU_SIZE_T  ProbeCom_ReqTerminalExec (CPU_INT08U  *prx_buf,
1997:..\..\..\..\..\..\uC-Probe\Target\Communication\Generic\Source/probe_com.c ****                                               CPU_INT08U  *ptx_buf,
1998:..\..\..\..\..\..\uC-Probe\Target\Communication\Generic\Source/probe_com.c ****                                               CPU_SIZE_T   rx_pkt_size,
1999:..\..\..\..\..\..\uC-Probe\Target\Communication\Generic\Source/probe_com.c ****                                               CPU_SIZE_T   tx_buf_size)
2000:..\..\..\..\..\..\uC-Probe\Target\Communication\Generic\Source/probe_com.c **** {
2001:..\..\..\..\..\..\uC-Probe\Target\Communication\Generic\Source/probe_com.c ****     PROBE_COM_TERMINAL_EXEC_FNCT   handler;
2002:..\..\..\..\..\..\uC-Probe\Target\Communication\Generic\Source/probe_com.c ****     CPU_SIZE_T                     len;
2003:..\..\..\..\..\..\uC-Probe\Target\Communication\Generic\Source/probe_com.c ****     CPU_SIZE_T                     tx_len;
2004:..\..\..\..\..\..\uC-Probe\Target\Communication\Generic\Source/probe_com.c ****     CPU_INT08U                    *pstr;
2005:..\..\..\..\..\..\uC-Probe\Target\Communication\Generic\Source/probe_com.c ****     CPU_SR_ALLOC();
2006:..\..\..\..\..\..\uC-Probe\Target\Communication\Generic\Source/probe_com.c **** 
2007:..\..\..\..\..\..\uC-Probe\Target\Communication\Generic\Source/probe_com.c **** 
2008:..\..\..\..\..\..\uC-Probe\Target\Communication\Generic\Source/probe_com.c ****    (void)&tx_buf_size;                                          /* Prevent compiler warning.       
2009:..\..\..\..\..\..\uC-Probe\Target\Communication\Generic\Source/probe_com.c **** 
2010:..\..\..\..\..\..\uC-Probe\Target\Communication\Generic\Source/probe_com.c **** 
2011:..\..\..\..\..\..\uC-Probe\Target\Communication\Generic\Source/probe_com.c ****                                                                 /* ------------------- CHK PKT SIZE
2012:..\..\..\..\..\..\uC-Probe\Target\Communication\Generic\Source/probe_com.c ****                                                                 /* Expected size = 2 (= Rx hdr size
2013:..\..\..\..\..\..\uC-Probe\Target\Communication\Generic\Source/probe_com.c ****                                                                 /*               + 2 (= Padding    
2014:..\..\..\..\..\..\uC-Probe\Target\Communication\Generic\Source/probe_com.c ****     if (rx_pkt_size <= 4u) {
ARM GAS  C:\Users\daniel01\AppData\Local\Temp\ccHLFCB6.s 			page 59


2015:..\..\..\..\..\..\uC-Probe\Target\Communication\Generic\Source/probe_com.c ****         tx_len = ProbeCom_ReqErr(ptx_buf, PROBE_COM_STATUS_RX_PKT_WRONG_SIZE);
2016:..\..\..\..\..\..\uC-Probe\Target\Communication\Generic\Source/probe_com.c ****         return (tx_len);
2017:..\..\..\..\..\..\uC-Probe\Target\Communication\Generic\Source/probe_com.c ****     }
2018:..\..\..\..\..\..\uC-Probe\Target\Communication\Generic\Source/probe_com.c **** 
2019:..\..\..\..\..\..\uC-Probe\Target\Communication\Generic\Source/probe_com.c **** 
2020:..\..\..\..\..\..\uC-Probe\Target\Communication\Generic\Source/probe_com.c **** 
2021:..\..\..\..\..\..\uC-Probe\Target\Communication\Generic\Source/probe_com.c ****                                                                 /* -------------------- HANDLE STR 
2022:..\..\..\..\..\..\uC-Probe\Target\Communication\Generic\Source/probe_com.c ****     CPU_CRITICAL_ENTER();
2023:..\..\..\..\..\..\uC-Probe\Target\Communication\Generic\Source/probe_com.c ****     handler = ProbeCom_TerminalExecHandler;
2024:..\..\..\..\..\..\uC-Probe\Target\Communication\Generic\Source/probe_com.c ****     CPU_CRITICAL_EXIT();
2025:..\..\..\..\..\..\uC-Probe\Target\Communication\Generic\Source/probe_com.c **** 
2026:..\..\..\..\..\..\uC-Probe\Target\Communication\Generic\Source/probe_com.c ****     if (handler != (PROBE_COM_TERMINAL_EXEC_FNCT)0) {           /* If handler assigned ...         
2027:..\..\..\..\..\..\uC-Probe\Target\Communication\Generic\Source/probe_com.c ****         pstr = prx_buf     + 2u;                                /* ... ignore padding  ...         
2028:..\..\..\..\..\..\uC-Probe\Target\Communication\Generic\Source/probe_com.c ****         len  = rx_pkt_size - 2u;
2029:..\..\..\..\..\..\uC-Probe\Target\Communication\Generic\Source/probe_com.c **** 
2030:..\..\..\..\..\..\uC-Probe\Target\Communication\Generic\Source/probe_com.c ****         ProbeCom_TerminalExecuting = DEF_YES;
2031:..\..\..\..\..\..\uC-Probe\Target\Communication\Generic\Source/probe_com.c **** 
2032:..\..\..\..\..\..\uC-Probe\Target\Communication\Generic\Source/probe_com.c ****         handler((CPU_CHAR *)pstr,                               /* ... exec handler.               
2033:..\..\..\..\..\..\uC-Probe\Target\Communication\Generic\Source/probe_com.c ****                 (CPU_SIZE_T)len);
2034:..\..\..\..\..\..\uC-Probe\Target\Communication\Generic\Source/probe_com.c ****     }
2035:..\..\..\..\..\..\uC-Probe\Target\Communication\Generic\Source/probe_com.c **** 
2036:..\..\..\..\..\..\uC-Probe\Target\Communication\Generic\Source/probe_com.c **** 
2037:..\..\..\..\..\..\uC-Probe\Target\Communication\Generic\Source/probe_com.c **** 
2038:..\..\..\..\..\..\uC-Probe\Target\Communication\Generic\Source/probe_com.c ****                                                                 /* ------------------ STORE RESPONS
2039:..\..\..\..\..\..\uC-Probe\Target\Communication\Generic\Source/probe_com.c ****                                                                 /* Sto tx pkt hdr :                
2040:..\..\..\..\..\..\uC-Probe\Target\Communication\Generic\Source/probe_com.c ****                                                                 /* (a) Tx pkt fmt.                 
2041:..\..\..\..\..\..\uC-Probe\Target\Communication\Generic\Source/probe_com.c ****     ProbeCom_StoINT16U(&ptx_buf, PROBE_COM_FMT_TX_TERMINAL_EXEC);
2042:..\..\..\..\..\..\uC-Probe\Target\Communication\Generic\Source/probe_com.c ****     ProbeCom_StoINT08U(&ptx_buf, PROBE_COM_STATUS_OK);          /* (b) Target status.              
2043:..\..\..\..\..\..\uC-Probe\Target\Communication\Generic\Source/probe_com.c ****     ProbeCom_StoINT08U(&ptx_buf, ProbeCom_PktModifier());       /* (c) Modifier.                   
2044:..\..\..\..\..\..\uC-Probe\Target\Communication\Generic\Source/probe_com.c **** 
2045:..\..\..\..\..\..\uC-Probe\Target\Communication\Generic\Source/probe_com.c **** 
2046:..\..\..\..\..\..\uC-Probe\Target\Communication\Generic\Source/probe_com.c **** 
2047:..\..\..\..\..\..\uC-Probe\Target\Communication\Generic\Source/probe_com.c ****                                                                 /* ------------------ RTN TX PKT SI
2048:..\..\..\..\..\..\uC-Probe\Target\Communication\Generic\Source/probe_com.c ****     tx_len = (CPU_SIZE_T)PROBE_COM_SIZE_TX_HDR;                 /* Tx pkt size = 4 (= Tx hdr size).
2049:..\..\..\..\..\..\uC-Probe\Target\Communication\Generic\Source/probe_com.c ****     return (tx_len);
2050:..\..\..\..\..\..\uC-Probe\Target\Communication\Generic\Source/probe_com.c **** }
2051:..\..\..\..\..\..\uC-Probe\Target\Communication\Generic\Source/probe_com.c **** #endif
2052:..\..\..\..\..\..\uC-Probe\Target\Communication\Generic\Source/probe_com.c **** 
2053:..\..\..\..\..\..\uC-Probe\Target\Communication\Generic\Source/probe_com.c **** 
2054:..\..\..\..\..\..\uC-Probe\Target\Communication\Generic\Source/probe_com.c **** /*
2055:..\..\..\..\..\..\uC-Probe\Target\Communication\Generic\Source/probe_com.c **** ***************************************************************************************************
2056:..\..\..\..\..\..\uC-Probe\Target\Communication\Generic\Source/probe_com.c **** *                                      ProbeCom_ReqTerminalIn()
2057:..\..\..\..\..\..\uC-Probe\Target\Communication\Generic\Source/probe_com.c **** *
2058:..\..\..\..\..\..\uC-Probe\Target\Communication\Generic\Source/probe_com.c **** * Description : Parse the FMT_TERMINAL_IN command & formulate response.  This command sends a termi
2059:..\..\..\..\..\..\uC-Probe\Target\Communication\Generic\Source/probe_com.c **** *               input to the target.
2060:..\..\..\..\..\..\uC-Probe\Target\Communication\Generic\Source/probe_com.c **** *
2061:..\..\..\..\..\..\uC-Probe\Target\Communication\Generic\Source/probe_com.c **** * Argument(s) : prx_buf         Pointer to the receive  buffer
2062:..\..\..\..\..\..\uC-Probe\Target\Communication\Generic\Source/probe_com.c **** *
2063:..\..\..\..\..\..\uC-Probe\Target\Communication\Generic\Source/probe_com.c **** *               ptx_buf         Pointer to the transmit buffer
2064:..\..\..\..\..\..\uC-Probe\Target\Communication\Generic\Source/probe_com.c **** *
2065:..\..\..\..\..\..\uC-Probe\Target\Communication\Generic\Source/probe_com.c **** *               rx_pkt_size     Size of the receive  packet
2066:..\..\..\..\..\..\uC-Probe\Target\Communication\Generic\Source/probe_com.c **** *
2067:..\..\..\..\..\..\uC-Probe\Target\Communication\Generic\Source/probe_com.c **** *               tx_buf_size     Size of the transmit buffer
2068:..\..\..\..\..\..\uC-Probe\Target\Communication\Generic\Source/probe_com.c **** *
2069:..\..\..\..\..\..\uC-Probe\Target\Communication\Generic\Source/probe_com.c **** * Return(s)   : The number of bytes written to the tx buffer.
2070:..\..\..\..\..\..\uC-Probe\Target\Communication\Generic\Source/probe_com.c **** *
2071:..\..\..\..\..\..\uC-Probe\Target\Communication\Generic\Source/probe_com.c **** * Caller(s)   : ProbeCom_ParseRxPkt().
ARM GAS  C:\Users\daniel01\AppData\Local\Temp\ccHLFCB6.s 			page 60


2072:..\..\..\..\..\..\uC-Probe\Target\Communication\Generic\Source/probe_com.c **** *
2073:..\..\..\..\..\..\uC-Probe\Target\Communication\Generic\Source/probe_com.c **** * Note(s)     : (1) The RX format:
2074:..\..\..\..\..\..\uC-Probe\Target\Communication\Generic\Source/probe_com.c **** *
2075:..\..\..\..\..\..\uC-Probe\Target\Communication\Generic\Source/probe_com.c **** *                   (A) A 2-byte format, indicating the data segment format;
2076:..\..\..\..\..\..\uC-Probe\Target\Communication\Generic\Source/probe_com.c **** *                   (B) A 2-byte padding;
2077:..\..\..\..\..\..\uC-Probe\Target\Communication\Generic\Source/probe_com.c **** *                   (C) A n-byte string.
2078:..\..\..\..\..\..\uC-Probe\Target\Communication\Generic\Source/probe_com.c **** *
2079:..\..\..\..\..\..\uC-Probe\Target\Communication\Generic\Source/probe_com.c **** *                         +-------------------------+-------------------------+
2080:..\..\..\..\..\..\uC-Probe\Target\Communication\Generic\Source/probe_com.c **** *                         |          Format         |         Padding         |
2081:..\..\..\..\..\..\uC-Probe\Target\Communication\Generic\Source/probe_com.c **** *                         +-------------------------+-------------------------+
2082:..\..\..\..\..\..\uC-Probe\Target\Communication\Generic\Source/probe_com.c **** *                         |                   Terminal Input                  |
2083:..\..\..\..\..\..\uC-Probe\Target\Communication\Generic\Source/probe_com.c **** *                         |                         .                         |
2084:..\..\..\..\..\..\uC-Probe\Target\Communication\Generic\Source/probe_com.c **** *                         |                         .                         |
2085:..\..\..\..\..\..\uC-Probe\Target\Communication\Generic\Source/probe_com.c **** *                         |                         .                         |
2086:..\..\..\..\..\..\uC-Probe\Target\Communication\Generic\Source/probe_com.c **** *                         +---------------------------------------------------+
2087:..\..\..\..\..\..\uC-Probe\Target\Communication\Generic\Source/probe_com.c **** *
2088:..\..\..\..\..\..\uC-Probe\Target\Communication\Generic\Source/probe_com.c **** *               (2) The TX format:
2089:..\..\..\..\..\..\uC-Probe\Target\Communication\Generic\Source/probe_com.c **** *
2090:..\..\..\..\..\..\uC-Probe\Target\Communication\Generic\Source/probe_com.c **** *                   (A) A 2-byte format, indicating the data segment format;
2091:..\..\..\..\..\..\uC-Probe\Target\Communication\Generic\Source/probe_com.c **** *                   (B) A 1-byte status, indicating the status after the request;
2092:..\..\..\..\..\..\uC-Probe\Target\Communication\Generic\Source/probe_com.c **** *                   (C) A 1-byte modifier.
2093:..\..\..\..\..\..\uC-Probe\Target\Communication\Generic\Source/probe_com.c **** *
2094:..\..\..\..\..\..\uC-Probe\Target\Communication\Generic\Source/probe_com.c **** *                         +-------------------------+------------+------------+
2095:..\..\..\..\..\..\uC-Probe\Target\Communication\Generic\Source/probe_com.c **** *                         |          Format         |   Status   |  Modifier  |
2096:..\..\..\..\..\..\uC-Probe\Target\Communication\Generic\Source/probe_com.c **** *                         +-------------------------+------------+------------+
2097:..\..\..\..\..\..\uC-Probe\Target\Communication\Generic\Source/probe_com.c **** *
2098:..\..\..\..\..\..\uC-Probe\Target\Communication\Generic\Source/probe_com.c **** ***************************************************************************************************
2099:..\..\..\..\..\..\uC-Probe\Target\Communication\Generic\Source/probe_com.c **** */
2100:..\..\..\..\..\..\uC-Probe\Target\Communication\Generic\Source/probe_com.c **** 
2101:..\..\..\..\..\..\uC-Probe\Target\Communication\Generic\Source/probe_com.c **** #if (PROBE_COM_CFG_TERMINAL_REQ_EN == DEF_ENABLED)
2102:..\..\..\..\..\..\uC-Probe\Target\Communication\Generic\Source/probe_com.c **** static  CPU_SIZE_T  ProbeCom_ReqTerminalIn (CPU_INT08U  *prx_buf,
2103:..\..\..\..\..\..\uC-Probe\Target\Communication\Generic\Source/probe_com.c ****                                             CPU_INT08U  *ptx_buf,
2104:..\..\..\..\..\..\uC-Probe\Target\Communication\Generic\Source/probe_com.c ****                                             CPU_SIZE_T   rx_pkt_size,
2105:..\..\..\..\..\..\uC-Probe\Target\Communication\Generic\Source/probe_com.c ****                                             CPU_SIZE_T   tx_buf_size)
2106:..\..\..\..\..\..\uC-Probe\Target\Communication\Generic\Source/probe_com.c **** {
2107:..\..\..\..\..\..\uC-Probe\Target\Communication\Generic\Source/probe_com.c ****     PROBE_COM_TERMINAL_IN_FNCT   handler;
2108:..\..\..\..\..\..\uC-Probe\Target\Communication\Generic\Source/probe_com.c ****     CPU_SIZE_T                   len;
2109:..\..\..\..\..\..\uC-Probe\Target\Communication\Generic\Source/probe_com.c ****     CPU_SIZE_T                   tx_len;
2110:..\..\..\..\..\..\uC-Probe\Target\Communication\Generic\Source/probe_com.c ****     CPU_INT08U                  *pstr;
2111:..\..\..\..\..\..\uC-Probe\Target\Communication\Generic\Source/probe_com.c ****     CPU_SR_ALLOC();
2112:..\..\..\..\..\..\uC-Probe\Target\Communication\Generic\Source/probe_com.c **** 
2113:..\..\..\..\..\..\uC-Probe\Target\Communication\Generic\Source/probe_com.c **** 
2114:..\..\..\..\..\..\uC-Probe\Target\Communication\Generic\Source/probe_com.c ****    (void)&tx_buf_size;                                          /* Prevent compiler warning.       
2115:..\..\..\..\..\..\uC-Probe\Target\Communication\Generic\Source/probe_com.c **** 
2116:..\..\..\..\..\..\uC-Probe\Target\Communication\Generic\Source/probe_com.c **** 
2117:..\..\..\..\..\..\uC-Probe\Target\Communication\Generic\Source/probe_com.c ****                                                                 /* ------------------- CHK PKT SIZE
2118:..\..\..\..\..\..\uC-Probe\Target\Communication\Generic\Source/probe_com.c ****                                                                 /* Expected size = 2 (= Rx hdr size
2119:..\..\..\..\..\..\uC-Probe\Target\Communication\Generic\Source/probe_com.c ****                                                                 /*               + 2 (= Padding    
2120:..\..\..\..\..\..\uC-Probe\Target\Communication\Generic\Source/probe_com.c ****     if (rx_pkt_size <= 4u) {
2121:..\..\..\..\..\..\uC-Probe\Target\Communication\Generic\Source/probe_com.c ****         tx_len = ProbeCom_ReqErr(ptx_buf, PROBE_COM_STATUS_RX_PKT_WRONG_SIZE);
2122:..\..\..\..\..\..\uC-Probe\Target\Communication\Generic\Source/probe_com.c ****         return (tx_len);
2123:..\..\..\..\..\..\uC-Probe\Target\Communication\Generic\Source/probe_com.c ****     }
2124:..\..\..\..\..\..\uC-Probe\Target\Communication\Generic\Source/probe_com.c **** 
2125:..\..\..\..\..\..\uC-Probe\Target\Communication\Generic\Source/probe_com.c **** 
2126:..\..\..\..\..\..\uC-Probe\Target\Communication\Generic\Source/probe_com.c **** 
2127:..\..\..\..\..\..\uC-Probe\Target\Communication\Generic\Source/probe_com.c ****                                                                 /* -------------------- HANDLE STR 
2128:..\..\..\..\..\..\uC-Probe\Target\Communication\Generic\Source/probe_com.c ****     CPU_CRITICAL_ENTER();
ARM GAS  C:\Users\daniel01\AppData\Local\Temp\ccHLFCB6.s 			page 61


2129:..\..\..\..\..\..\uC-Probe\Target\Communication\Generic\Source/probe_com.c ****     handler = ProbeCom_TerminalInHandler;
2130:..\..\..\..\..\..\uC-Probe\Target\Communication\Generic\Source/probe_com.c ****     CPU_CRITICAL_EXIT();
2131:..\..\..\..\..\..\uC-Probe\Target\Communication\Generic\Source/probe_com.c **** 
2132:..\..\..\..\..\..\uC-Probe\Target\Communication\Generic\Source/probe_com.c ****     if (handler != (PROBE_COM_TERMINAL_IN_FNCT)0) {             /* If handler assigned.            
2133:..\..\..\..\..\..\uC-Probe\Target\Communication\Generic\Source/probe_com.c ****         pstr = prx_buf     + 4u;
2134:..\..\..\..\..\..\uC-Probe\Target\Communication\Generic\Source/probe_com.c ****         len  = rx_pkt_size - 4u;
2135:..\..\..\..\..\..\uC-Probe\Target\Communication\Generic\Source/probe_com.c **** 
2136:..\..\..\..\..\..\uC-Probe\Target\Communication\Generic\Source/probe_com.c ****         handler((CPU_CHAR *)pstr,
2137:..\..\..\..\..\..\uC-Probe\Target\Communication\Generic\Source/probe_com.c ****                 (CPU_SIZE_T)len);
2138:..\..\..\..\..\..\uC-Probe\Target\Communication\Generic\Source/probe_com.c ****     }
2139:..\..\..\..\..\..\uC-Probe\Target\Communication\Generic\Source/probe_com.c **** 
2140:..\..\..\..\..\..\uC-Probe\Target\Communication\Generic\Source/probe_com.c **** 
2141:..\..\..\..\..\..\uC-Probe\Target\Communication\Generic\Source/probe_com.c **** 
2142:..\..\..\..\..\..\uC-Probe\Target\Communication\Generic\Source/probe_com.c ****                                                                 /* ------------------ STORE RESPONS
2143:..\..\..\..\..\..\uC-Probe\Target\Communication\Generic\Source/probe_com.c ****                                                                 /* Sto tx pkt hdr :                
2144:..\..\..\..\..\..\uC-Probe\Target\Communication\Generic\Source/probe_com.c ****     ProbeCom_StoINT16U(&ptx_buf, PROBE_COM_FMT_TX_TERMINAL_IN); /* (a) Tx pkt fmt.                 
2145:..\..\..\..\..\..\uC-Probe\Target\Communication\Generic\Source/probe_com.c ****     ProbeCom_StoINT08U(&ptx_buf, PROBE_COM_STATUS_OK);          /* (b) Target status.              
2146:..\..\..\..\..\..\uC-Probe\Target\Communication\Generic\Source/probe_com.c ****     ProbeCom_StoINT08U(&ptx_buf, ProbeCom_PktModifier());       /* (c) Modifier.                   
2147:..\..\..\..\..\..\uC-Probe\Target\Communication\Generic\Source/probe_com.c **** 
2148:..\..\..\..\..\..\uC-Probe\Target\Communication\Generic\Source/probe_com.c **** 
2149:..\..\..\..\..\..\uC-Probe\Target\Communication\Generic\Source/probe_com.c **** 
2150:..\..\..\..\..\..\uC-Probe\Target\Communication\Generic\Source/probe_com.c ****                                                                 /* ------------------ RTN TX PKT SI
2151:..\..\..\..\..\..\uC-Probe\Target\Communication\Generic\Source/probe_com.c ****     tx_len = (CPU_SIZE_T)PROBE_COM_SIZE_TX_HDR;                 /* Tx pkt size = 4 (= Tx hdr size).
2152:..\..\..\..\..\..\uC-Probe\Target\Communication\Generic\Source/probe_com.c ****     return (tx_len);
2153:..\..\..\..\..\..\uC-Probe\Target\Communication\Generic\Source/probe_com.c **** }
2154:..\..\..\..\..\..\uC-Probe\Target\Communication\Generic\Source/probe_com.c **** #endif
2155:..\..\..\..\..\..\uC-Probe\Target\Communication\Generic\Source/probe_com.c **** 
2156:..\..\..\..\..\..\uC-Probe\Target\Communication\Generic\Source/probe_com.c **** 
2157:..\..\..\..\..\..\uC-Probe\Target\Communication\Generic\Source/probe_com.c **** /*
2158:..\..\..\..\..\..\uC-Probe\Target\Communication\Generic\Source/probe_com.c **** ***************************************************************************************************
2159:..\..\..\..\..\..\uC-Probe\Target\Communication\Generic\Source/probe_com.c **** *                                      ProbeCom_ReqTerminalOut()
2160:..\..\..\..\..\..\uC-Probe\Target\Communication\Generic\Source/probe_com.c **** *
2161:..\..\..\..\..\..\uC-Probe\Target\Communication\Generic\Source/probe_com.c **** * Description : Parse the FMT_TERMINAL_OUT command & formulate response.  This command asks the tar
2162:..\..\..\..\..\..\uC-Probe\Target\Communication\Generic\Source/probe_com.c **** *               send terminal output that it is currently storing.
2163:..\..\..\..\..\..\uC-Probe\Target\Communication\Generic\Source/probe_com.c **** *
2164:..\..\..\..\..\..\uC-Probe\Target\Communication\Generic\Source/probe_com.c **** * Argument(s) : prx_buf         Pointer to the receive  buffer
2165:..\..\..\..\..\..\uC-Probe\Target\Communication\Generic\Source/probe_com.c **** *
2166:..\..\..\..\..\..\uC-Probe\Target\Communication\Generic\Source/probe_com.c **** *               ptx_buf         Pointer to the transmit buffer
2167:..\..\..\..\..\..\uC-Probe\Target\Communication\Generic\Source/probe_com.c **** *
2168:..\..\..\..\..\..\uC-Probe\Target\Communication\Generic\Source/probe_com.c **** *               rx_pkt_size     Size of the receive  packet
2169:..\..\..\..\..\..\uC-Probe\Target\Communication\Generic\Source/probe_com.c **** *
2170:..\..\..\..\..\..\uC-Probe\Target\Communication\Generic\Source/probe_com.c **** *               tx_buf_size     Size of the transmit buffer
2171:..\..\..\..\..\..\uC-Probe\Target\Communication\Generic\Source/probe_com.c **** *
2172:..\..\..\..\..\..\uC-Probe\Target\Communication\Generic\Source/probe_com.c **** * Return(s)   : The number of bytes written to the tx buffer.
2173:..\..\..\..\..\..\uC-Probe\Target\Communication\Generic\Source/probe_com.c **** *
2174:..\..\..\..\..\..\uC-Probe\Target\Communication\Generic\Source/probe_com.c **** * Caller(s)   : ProbeCom_ParseRxPkt().
2175:..\..\..\..\..\..\uC-Probe\Target\Communication\Generic\Source/probe_com.c **** *
2176:..\..\..\..\..\..\uC-Probe\Target\Communication\Generic\Source/probe_com.c **** * Note(s)     : (1) The RX format:
2177:..\..\..\..\..\..\uC-Probe\Target\Communication\Generic\Source/probe_com.c **** *
2178:..\..\..\..\..\..\uC-Probe\Target\Communication\Generic\Source/probe_com.c **** *                   (A) A 2-byte format, indicating the data segment format;
2179:..\..\..\..\..\..\uC-Probe\Target\Communication\Generic\Source/probe_com.c **** *                   (B) A 2-byte padding.
2180:..\..\..\..\..\..\uC-Probe\Target\Communication\Generic\Source/probe_com.c **** *
2181:..\..\..\..\..\..\uC-Probe\Target\Communication\Generic\Source/probe_com.c **** *                         +-------------------------+-------------------------+
2182:..\..\..\..\..\..\uC-Probe\Target\Communication\Generic\Source/probe_com.c **** *                         |          Format         |         Padding         |
2183:..\..\..\..\..\..\uC-Probe\Target\Communication\Generic\Source/probe_com.c **** *                         +-------------------------+-------------------------+
2184:..\..\..\..\..\..\uC-Probe\Target\Communication\Generic\Source/probe_com.c **** *
2185:..\..\..\..\..\..\uC-Probe\Target\Communication\Generic\Source/probe_com.c **** *               (2) The TX format:
ARM GAS  C:\Users\daniel01\AppData\Local\Temp\ccHLFCB6.s 			page 62


2186:..\..\..\..\..\..\uC-Probe\Target\Communication\Generic\Source/probe_com.c **** *
2187:..\..\..\..\..\..\uC-Probe\Target\Communication\Generic\Source/probe_com.c **** *                   (A) A 2-byte format, indicating the data segment format;
2188:..\..\..\..\..\..\uC-Probe\Target\Communication\Generic\Source/probe_com.c **** *                   (B) A 1-byte status, indicating the status after the request;
2189:..\..\..\..\..\..\uC-Probe\Target\Communication\Generic\Source/probe_com.c **** *                   (C) A 1-byte modifier;
2190:..\..\..\..\..\..\uC-Probe\Target\Communication\Generic\Source/probe_com.c **** *                   (D) A n-byte string, the string which is stored in the target's buffer.
2191:..\..\..\..\..\..\uC-Probe\Target\Communication\Generic\Source/probe_com.c **** *
2192:..\..\..\..\..\..\uC-Probe\Target\Communication\Generic\Source/probe_com.c **** *                         +-------------------------+------------+------------+
2193:..\..\..\..\..\..\uC-Probe\Target\Communication\Generic\Source/probe_com.c **** *                         |          Format         |   Status   |  Modifier  |
2194:..\..\..\..\..\..\uC-Probe\Target\Communication\Generic\Source/probe_com.c **** *                         +-------------------------+------------+------------+
2195:..\..\..\..\..\..\uC-Probe\Target\Communication\Generic\Source/probe_com.c **** *                         |                  Terminal Output                  |
2196:..\..\..\..\..\..\uC-Probe\Target\Communication\Generic\Source/probe_com.c **** *                         |                         .                         |
2197:..\..\..\..\..\..\uC-Probe\Target\Communication\Generic\Source/probe_com.c **** *                         |                         .                         |
2198:..\..\..\..\..\..\uC-Probe\Target\Communication\Generic\Source/probe_com.c **** *                         |                         .                         |
2199:..\..\..\..\..\..\uC-Probe\Target\Communication\Generic\Source/probe_com.c **** *                         +---------------------------------------------------+
2200:..\..\..\..\..\..\uC-Probe\Target\Communication\Generic\Source/probe_com.c **** *
2201:..\..\..\..\..\..\uC-Probe\Target\Communication\Generic\Source/probe_com.c **** *               (3) See Notes for 'ProbeCom_StrWr()'.
2202:..\..\..\..\..\..\uC-Probe\Target\Communication\Generic\Source/probe_com.c **** *
2203:..\..\..\..\..\..\uC-Probe\Target\Communication\Generic\Source/probe_com.c **** *               (4) Probe requires that a NULL byte ends the string.  Consequently, if the data
2204:..\..\..\..\..\..\uC-Probe\Target\Communication\Generic\Source/probe_com.c **** *                   section of the TX packet is n bytes long, then only (n - 1) bytes have been rea
2205:..\..\..\..\..\..\uC-Probe\Target\Communication\Generic\Source/probe_com.c **** *                   the string buffer.
2206:..\..\..\..\..\..\uC-Probe\Target\Communication\Generic\Source/probe_com.c **** *
2207:..\..\..\..\..\..\uC-Probe\Target\Communication\Generic\Source/probe_com.c **** *               (5) A NULL modifier is returned so that string transmission will not monopolize the
2208:..\..\..\..\..\..\uC-Probe\Target\Communication\Generic\Source/probe_com.c **** *                   transmission channel.  If more string is queued in the string buffer, additiona
2209:..\..\..\..\..\..\uC-Probe\Target\Communication\Generic\Source/probe_com.c **** *                   string bytes will be sent following the response to the next received packet.
2210:..\..\..\..\..\..\uC-Probe\Target\Communication\Generic\Source/probe_com.c **** ***************************************************************************************************
2211:..\..\..\..\..\..\uC-Probe\Target\Communication\Generic\Source/probe_com.c **** */
2212:..\..\..\..\..\..\uC-Probe\Target\Communication\Generic\Source/probe_com.c **** 
2213:..\..\..\..\..\..\uC-Probe\Target\Communication\Generic\Source/probe_com.c **** #if (PROBE_COM_CFG_TERMINAL_REQ_EN == DEF_TRUE)
2214:..\..\..\..\..\..\uC-Probe\Target\Communication\Generic\Source/probe_com.c **** static  CPU_SIZE_T  ProbeCom_ReqTerminalOut (CPU_INT08U  *prx_buf,
2215:..\..\..\..\..\..\uC-Probe\Target\Communication\Generic\Source/probe_com.c ****                                              CPU_INT08U  *ptx_buf,
2216:..\..\..\..\..\..\uC-Probe\Target\Communication\Generic\Source/probe_com.c ****                                              CPU_SIZE_T   rx_pkt_size,
2217:..\..\..\..\..\..\uC-Probe\Target\Communication\Generic\Source/probe_com.c ****                                              CPU_SIZE_T   tx_buf_size)
2218:..\..\..\..\..\..\uC-Probe\Target\Communication\Generic\Source/probe_com.c **** {
2219:..\..\..\..\..\..\uC-Probe\Target\Communication\Generic\Source/probe_com.c ****     CPU_SIZE_T   buf_ix;
2220:..\..\..\..\..\..\uC-Probe\Target\Communication\Generic\Source/probe_com.c ****     CPU_SIZE_T   buf_len;
2221:..\..\..\..\..\..\uC-Probe\Target\Communication\Generic\Source/probe_com.c ****     CPU_SIZE_T   tx_len;
2222:..\..\..\..\..\..\uC-Probe\Target\Communication\Generic\Source/probe_com.c ****     CPU_SIZE_T   tx_max;
2223:..\..\..\..\..\..\uC-Probe\Target\Communication\Generic\Source/probe_com.c ****     CPU_INT08U  *pbuf;
2224:..\..\..\..\..\..\uC-Probe\Target\Communication\Generic\Source/probe_com.c ****     CPU_SR_ALLOC();
2225:..\..\..\..\..\..\uC-Probe\Target\Communication\Generic\Source/probe_com.c **** 
2226:..\..\..\..\..\..\uC-Probe\Target\Communication\Generic\Source/probe_com.c **** 
2227:..\..\..\..\..\..\uC-Probe\Target\Communication\Generic\Source/probe_com.c ****    (void)&prx_buf;                                              /* Prevent compiler warning.       
2228:..\..\..\..\..\..\uC-Probe\Target\Communication\Generic\Source/probe_com.c **** 
2229:..\..\..\..\..\..\uC-Probe\Target\Communication\Generic\Source/probe_com.c **** 
2230:..\..\..\..\..\..\uC-Probe\Target\Communication\Generic\Source/probe_com.c ****                                                                 /* ------------------- CHK PKT SIZE
2231:..\..\..\..\..\..\uC-Probe\Target\Communication\Generic\Source/probe_com.c ****                                                                 /* Expected size = 2 (= Rx hdr size
2232:..\..\..\..\..\..\uC-Probe\Target\Communication\Generic\Source/probe_com.c ****                                                                 /*               + 2 (= Padding    
2233:..\..\..\..\..\..\uC-Probe\Target\Communication\Generic\Source/probe_com.c ****     if (rx_pkt_size != 4u) {
2234:..\..\..\..\..\..\uC-Probe\Target\Communication\Generic\Source/probe_com.c ****         tx_len = ProbeCom_ReqErr(ptx_buf, PROBE_COM_STATUS_RX_PKT_WRONG_SIZE);
2235:..\..\..\..\..\..\uC-Probe\Target\Communication\Generic\Source/probe_com.c ****         return (tx_len);
2236:..\..\..\..\..\..\uC-Probe\Target\Communication\Generic\Source/probe_com.c ****     }
2237:..\..\..\..\..\..\uC-Probe\Target\Communication\Generic\Source/probe_com.c **** 
2238:..\..\..\..\..\..\uC-Probe\Target\Communication\Generic\Source/probe_com.c ****     CPU_CRITICAL_ENTER();
2239:..\..\..\..\..\..\uC-Probe\Target\Communication\Generic\Source/probe_com.c ****     pbuf    = ProbeCom_TerminalOutBufPtr;
2240:..\..\..\..\..\..\uC-Probe\Target\Communication\Generic\Source/probe_com.c ****     buf_ix  = ProbeCom_TerminalOutBufIx;
2241:..\..\..\..\..\..\uC-Probe\Target\Communication\Generic\Source/probe_com.c ****     buf_len = ProbeCom_TerminalOutBufLen;
2242:..\..\..\..\..\..\uC-Probe\Target\Communication\Generic\Source/probe_com.c ****     CPU_CRITICAL_EXIT();
ARM GAS  C:\Users\daniel01\AppData\Local\Temp\ccHLFCB6.s 			page 63


2243:..\..\..\..\..\..\uC-Probe\Target\Communication\Generic\Source/probe_com.c **** 
2244:..\..\..\..\..\..\uC-Probe\Target\Communication\Generic\Source/probe_com.c ****     if (pbuf == (CPU_INT08U *)0) {
2245:..\..\..\..\..\..\uC-Probe\Target\Communication\Generic\Source/probe_com.c ****         tx_len = ProbeCom_ReqErr(ptx_buf, PROBE_COM_STATUS_TERMINAL_OUT_NONE);
2246:..\..\..\..\..\..\uC-Probe\Target\Communication\Generic\Source/probe_com.c ****         return (tx_len);
2247:..\..\..\..\..\..\uC-Probe\Target\Communication\Generic\Source/probe_com.c ****     }
2248:..\..\..\..\..\..\uC-Probe\Target\Communication\Generic\Source/probe_com.c **** 
2249:..\..\..\..\..\..\uC-Probe\Target\Communication\Generic\Source/probe_com.c ****     if (buf_ix == buf_len) {
2250:..\..\..\..\..\..\uC-Probe\Target\Communication\Generic\Source/probe_com.c ****         tx_len = ProbeCom_ReqErr(ptx_buf, PROBE_COM_STATUS_TERMINAL_OUT_NONE);
2251:..\..\..\..\..\..\uC-Probe\Target\Communication\Generic\Source/probe_com.c ****         return (tx_len);
2252:..\..\..\..\..\..\uC-Probe\Target\Communication\Generic\Source/probe_com.c ****     }
2253:..\..\..\..\..\..\uC-Probe\Target\Communication\Generic\Source/probe_com.c **** 
2254:..\..\..\..\..\..\uC-Probe\Target\Communication\Generic\Source/probe_com.c ****     tx_max = buf_len - buf_ix;
2255:..\..\..\..\..\..\uC-Probe\Target\Communication\Generic\Source/probe_com.c ****     if (tx_max > (tx_buf_size - PROBE_COM_SIZE_TX_HDR) - 1) {
2256:..\..\..\..\..\..\uC-Probe\Target\Communication\Generic\Source/probe_com.c ****         tx_max = (tx_buf_size - PROBE_COM_SIZE_TX_HDR) - 1;
2257:..\..\..\..\..\..\uC-Probe\Target\Communication\Generic\Source/probe_com.c ****     }
2258:..\..\..\..\..\..\uC-Probe\Target\Communication\Generic\Source/probe_com.c **** 
2259:..\..\..\..\..\..\uC-Probe\Target\Communication\Generic\Source/probe_com.c **** 
2260:..\..\..\..\..\..\uC-Probe\Target\Communication\Generic\Source/probe_com.c ****                                                                 /* --------------------- STORE OUT 
2261:..\..\..\..\..\..\uC-Probe\Target\Communication\Generic\Source/probe_com.c ****                                                                 /* Sto TX pkt hdr :                
2262:..\..\..\..\..\..\uC-Probe\Target\Communication\Generic\Source/probe_com.c ****     ProbeCom_StoINT16U(&ptx_buf, PROBE_COM_FMT_TX_TERMINAL_OUT);/* (a) TX pkt fmt.                 
2263:..\..\..\..\..\..\uC-Probe\Target\Communication\Generic\Source/probe_com.c ****     ProbeCom_StoINT08U(&ptx_buf, PROBE_COM_STATUS_OK);          /* (b) Target status.              
2264:..\..\..\..\..\..\uC-Probe\Target\Communication\Generic\Source/probe_com.c ****     ProbeCom_StoINT08U(&ptx_buf, 0);                            /* (c) Modifier (see Notes #5).    
2265:..\..\..\..\..\..\uC-Probe\Target\Communication\Generic\Source/probe_com.c **** 
2266:..\..\..\..\..\..\uC-Probe\Target\Communication\Generic\Source/probe_com.c ****     Mem_Copy((void       *) ptx_buf,                            /* Copy str from buf.              
2267:..\..\..\..\..\..\uC-Probe\Target\Communication\Generic\Source/probe_com.c ****              (void       *)&pbuf[buf_ix],
2268:..\..\..\..\..\..\uC-Probe\Target\Communication\Generic\Source/probe_com.c ****              (CPU_SIZE_T  ) tx_max);
2269:..\..\..\..\..\..\uC-Probe\Target\Communication\Generic\Source/probe_com.c **** 
2270:..\..\..\..\..\..\uC-Probe\Target\Communication\Generic\Source/probe_com.c ****    *(ptx_buf + tx_max)        = (CPU_INT08U)0;                  /* Wr NULL byte.                   
2271:..\..\..\..\..\..\uC-Probe\Target\Communication\Generic\Source/probe_com.c **** 
2272:..\..\..\..\..\..\uC-Probe\Target\Communication\Generic\Source/probe_com.c ****     CPU_CRITICAL_ENTER();
2273:..\..\..\..\..\..\uC-Probe\Target\Communication\Generic\Source/probe_com.c ****     ProbeCom_TerminalOutBufIx = buf_ix + tx_max;                /* Update buf ix.                  
2274:..\..\..\..\..\..\uC-Probe\Target\Communication\Generic\Source/probe_com.c ****     CPU_CRITICAL_EXIT();
2275:..\..\..\..\..\..\uC-Probe\Target\Communication\Generic\Source/probe_com.c **** 
2276:..\..\..\..\..\..\uC-Probe\Target\Communication\Generic\Source/probe_com.c ****     if (buf_ix + tx_max >= buf_len) {
2277:..\..\..\..\..\..\uC-Probe\Target\Communication\Generic\Source/probe_com.c ****         ProbeCom_OS_TerminalOutSignal();
2278:..\..\..\..\..\..\uC-Probe\Target\Communication\Generic\Source/probe_com.c ****     }
2279:..\..\..\..\..\..\uC-Probe\Target\Communication\Generic\Source/probe_com.c **** 
2280:..\..\..\..\..\..\uC-Probe\Target\Communication\Generic\Source/probe_com.c **** 
2281:..\..\..\..\..\..\uC-Probe\Target\Communication\Generic\Source/probe_com.c ****                                                                 /* ------------------ RTN TX PKT SI
2282:..\..\..\..\..\..\uC-Probe\Target\Communication\Generic\Source/probe_com.c ****     tx_len = PROBE_COM_SIZE_TX_HDR + tx_max + 1u;
2283:..\..\..\..\..\..\uC-Probe\Target\Communication\Generic\Source/probe_com.c ****     return (tx_len);                                            /* Tx pkt size = 4      (= Tx hdr s
2284:..\..\..\..\..\..\uC-Probe\Target\Communication\Generic\Source/probe_com.c ****                                                                 /*             + nbytes (= Str    s
2285:..\..\..\..\..\..\uC-Probe\Target\Communication\Generic\Source/probe_com.c ****                                                                 /*             + 1      (= NULL byt
2286:..\..\..\..\..\..\uC-Probe\Target\Communication\Generic\Source/probe_com.c **** }
2287:..\..\..\..\..\..\uC-Probe\Target\Communication\Generic\Source/probe_com.c **** #endif
2288:..\..\..\..\..\..\uC-Probe\Target\Communication\Generic\Source/probe_com.c **** 
2289:..\..\..\..\..\..\uC-Probe\Target\Communication\Generic\Source/probe_com.c **** 
2290:..\..\..\..\..\..\uC-Probe\Target\Communication\Generic\Source/probe_com.c **** /*
2291:..\..\..\..\..\..\uC-Probe\Target\Communication\Generic\Source/probe_com.c **** ***************************************************************************************************
2292:..\..\..\..\..\..\uC-Probe\Target\Communication\Generic\Source/probe_com.c **** *                                         ProbeCom_BufInit()
2293:..\..\..\..\..\..\uC-Probe\Target\Communication\Generic\Source/probe_com.c **** *
2294:..\..\..\..\..\..\uC-Probe\Target\Communication\Generic\Source/probe_com.c **** * Description : Initialize buffer.
2295:..\..\..\..\..\..\uC-Probe\Target\Communication\Generic\Source/probe_com.c **** *
2296:..\..\..\..\..\..\uC-Probe\Target\Communication\Generic\Source/probe_com.c **** * Argument(s) : pbuf            Pointer to buffer.
2297:..\..\..\..\..\..\uC-Probe\Target\Communication\Generic\Source/probe_com.c **** *
2298:..\..\..\..\..\..\uC-Probe\Target\Communication\Generic\Source/probe_com.c **** *               pdata           Pointer to buffer data.
2299:..\..\..\..\..\..\uC-Probe\Target\Communication\Generic\Source/probe_com.c **** *
ARM GAS  C:\Users\daniel01\AppData\Local\Temp\ccHLFCB6.s 			page 64


2300:..\..\..\..\..\..\uC-Probe\Target\Communication\Generic\Source/probe_com.c **** *               len             Buffer length.
2301:..\..\..\..\..\..\uC-Probe\Target\Communication\Generic\Source/probe_com.c **** *
2302:..\..\..\..\..\..\uC-Probe\Target\Communication\Generic\Source/probe_com.c **** * Return(s)   : none.
2303:..\..\..\..\..\..\uC-Probe\Target\Communication\Generic\Source/probe_com.c **** *
2304:..\..\..\..\..\..\uC-Probe\Target\Communication\Generic\Source/probe_com.c **** * Caller(s)   : Application.
2305:..\..\..\..\..\..\uC-Probe\Target\Communication\Generic\Source/probe_com.c **** *
2306:..\..\..\..\..\..\uC-Probe\Target\Communication\Generic\Source/probe_com.c **** * Note(s)     : (1) The string buffer is implemented as a circular buffer.  This function is one of
2307:..\..\..\..\..\..\uC-Probe\Target\Communication\Generic\Source/probe_com.c **** *                   points of access for this buffer, the other being in the task or ISR which form
2308:..\..\..\..\..\..\uC-Probe\Target\Communication\Generic\Source/probe_com.c **** *                   tx packets.  Only this function should modify the global current write index
2309:..\..\..\..\..\..\uC-Probe\Target\Communication\Generic\Source/probe_com.c **** *                   (pbuf->IxWr); only the task or ISR which forms the packets should modify the gl
2310:..\..\..\..\..\..\uC-Probe\Target\Communication\Generic\Source/probe_com.c **** *                   current read index (pbuf->IxRd).
2311:..\..\..\..\..\..\uC-Probe\Target\Communication\Generic\Source/probe_com.c **** *
2312:..\..\..\..\..\..\uC-Probe\Target\Communication\Generic\Source/probe_com.c **** *               (2) The global current write index (pbuf->IxWr) is the index of the next location i
2313:..\..\..\..\..\..\uC-Probe\Target\Communication\Generic\Source/probe_com.c **** *                   buffer to write.  The global current read index (pbuf->IxRd) is the index of th
2314:..\..\..\..\..\..\uC-Probe\Target\Communication\Generic\Source/probe_com.c **** *                   location in the buffer to read.
2315:..\..\..\..\..\..\uC-Probe\Target\Communication\Generic\Source/probe_com.c **** *
2316:..\..\..\..\..\..\uC-Probe\Target\Communication\Generic\Source/probe_com.c **** *               (3) The string buffer, an array of pbuf->Len bytes, can only hold (pbuf->Len - 1) b
2317:..\..\..\..\..\..\uC-Probe\Target\Communication\Generic\Source/probe_com.c **** *                   so that the condition
2318:..\..\..\..\..\..\uC-Probe\Target\Communication\Generic\Source/probe_com.c **** *
2319:..\..\..\..\..\..\uC-Probe\Target\Communication\Generic\Source/probe_com.c **** *                                        pbuf->IxWr == pbuf->IxRd
2320:..\..\..\..\..\..\uC-Probe\Target\Communication\Generic\Source/probe_com.c **** *
2321:..\..\..\..\..\..\uC-Probe\Target\Communication\Generic\Source/probe_com.c **** *                   will be true if and only if the buffer is empty.  Consequently, this function
2322:..\..\..\..\..\..\uC-Probe\Target\Communication\Generic\Source/probe_com.c **** *                   always leaves an empty space in the buffer.
2323:..\..\..\..\..\..\uC-Probe\Target\Communication\Generic\Source/probe_com.c **** ***************************************************************************************************
2324:..\..\..\..\..\..\uC-Probe\Target\Communication\Generic\Source/probe_com.c **** */
2325:..\..\..\..\..\..\uC-Probe\Target\Communication\Generic\Source/probe_com.c **** 
2326:..\..\..\..\..\..\uC-Probe\Target\Communication\Generic\Source/probe_com.c **** #if (PROBE_COM_CFG_STR_REQ_EN == DEF_TRUE)
2327:..\..\..\..\..\..\uC-Probe\Target\Communication\Generic\Source/probe_com.c **** static  void  ProbeCom_BufInit (PROBE_COM_BUF  *pbuf,
2328:..\..\..\..\..\..\uC-Probe\Target\Communication\Generic\Source/probe_com.c ****                                 CPU_INT08U     *pdata,
2329:..\..\..\..\..\..\uC-Probe\Target\Communication\Generic\Source/probe_com.c ****                                 CPU_SIZE_T      len)
2330:..\..\..\..\..\..\uC-Probe\Target\Communication\Generic\Source/probe_com.c **** {
2331:..\..\..\..\..\..\uC-Probe\Target\Communication\Generic\Source/probe_com.c ****     pbuf->Len      = len;
2332:..\..\..\..\..\..\uC-Probe\Target\Communication\Generic\Source/probe_com.c ****     pbuf->IxRd     = 0;
2333:..\..\..\..\..\..\uC-Probe\Target\Communication\Generic\Source/probe_com.c ****     pbuf->IxWr     = 0;
2334:..\..\..\..\..\..\uC-Probe\Target\Communication\Generic\Source/probe_com.c ****     pbuf->DataPtr  = pdata;
2335:..\..\..\..\..\..\uC-Probe\Target\Communication\Generic\Source/probe_com.c **** }
2336:..\..\..\..\..\..\uC-Probe\Target\Communication\Generic\Source/probe_com.c **** #endif
2337:..\..\..\..\..\..\uC-Probe\Target\Communication\Generic\Source/probe_com.c **** 
2338:..\..\..\..\..\..\uC-Probe\Target\Communication\Generic\Source/probe_com.c **** 
2339:..\..\..\..\..\..\uC-Probe\Target\Communication\Generic\Source/probe_com.c **** /*
2340:..\..\..\..\..\..\uC-Probe\Target\Communication\Generic\Source/probe_com.c **** ***************************************************************************************************
2341:..\..\..\..\..\..\uC-Probe\Target\Communication\Generic\Source/probe_com.c **** *                                          ProbeCom_BufRd()
2342:..\..\..\..\..\..\uC-Probe\Target\Communication\Generic\Source/probe_com.c **** *
2343:..\..\..\..\..\..\uC-Probe\Target\Communication\Generic\Source/probe_com.c **** * Description : Read from buffer.
2344:..\..\..\..\..\..\uC-Probe\Target\Communication\Generic\Source/probe_com.c **** *
2345:..\..\..\..\..\..\uC-Probe\Target\Communication\Generic\Source/probe_com.c **** * Argument(s) : pbuf            Pointer to buffer.
2346:..\..\..\..\..\..\uC-Probe\Target\Communication\Generic\Source/probe_com.c **** *
2347:..\..\..\..\..\..\uC-Probe\Target\Communication\Generic\Source/probe_com.c **** *               pdest           Pointer to destination buffer.
2348:..\..\..\..\..\..\uC-Probe\Target\Communication\Generic\Source/probe_com.c **** *
2349:..\..\..\..\..\..\uC-Probe\Target\Communication\Generic\Source/probe_com.c **** *               len             Number of octets to read.
2350:..\..\..\..\..\..\uC-Probe\Target\Communication\Generic\Source/probe_com.c **** *
2351:..\..\..\..\..\..\uC-Probe\Target\Communication\Generic\Source/probe_com.c **** * Return(s)   : The number of octets read from buffer.
2352:..\..\..\..\..\..\uC-Probe\Target\Communication\Generic\Source/probe_com.c **** *
2353:..\..\..\..\..\..\uC-Probe\Target\Communication\Generic\Source/probe_com.c **** * Caller(s)   : Application.
2354:..\..\..\..\..\..\uC-Probe\Target\Communication\Generic\Source/probe_com.c **** *
2355:..\..\..\..\..\..\uC-Probe\Target\Communication\Generic\Source/probe_com.c **** * Note(s)     : none.
2356:..\..\..\..\..\..\uC-Probe\Target\Communication\Generic\Source/probe_com.c **** ***************************************************************************************************
ARM GAS  C:\Users\daniel01\AppData\Local\Temp\ccHLFCB6.s 			page 65


2357:..\..\..\..\..\..\uC-Probe\Target\Communication\Generic\Source/probe_com.c **** */
2358:..\..\..\..\..\..\uC-Probe\Target\Communication\Generic\Source/probe_com.c **** 
2359:..\..\..\..\..\..\uC-Probe\Target\Communication\Generic\Source/probe_com.c **** #if (PROBE_COM_CFG_STR_REQ_EN == DEF_TRUE)
2360:..\..\..\..\..\..\uC-Probe\Target\Communication\Generic\Source/probe_com.c **** static  CPU_SIZE_T  ProbeCom_BufRd (PROBE_COM_BUF  *pbuf,
2361:..\..\..\..\..\..\uC-Probe\Target\Communication\Generic\Source/probe_com.c ****                                     CPU_INT08U     *pdest,
2362:..\..\..\..\..\..\uC-Probe\Target\Communication\Generic\Source/probe_com.c ****                                     CPU_SIZE_T      len)
2363:..\..\..\..\..\..\uC-Probe\Target\Communication\Generic\Source/probe_com.c **** {
2364:..\..\..\..\..\..\uC-Probe\Target\Communication\Generic\Source/probe_com.c ****     CPU_SIZE_T  cnt_copy;
2365:..\..\..\..\..\..\uC-Probe\Target\Communication\Generic\Source/probe_com.c ****     CPU_SIZE_T  cnt_full;
2366:..\..\..\..\..\..\uC-Probe\Target\Communication\Generic\Source/probe_com.c ****     CPU_SIZE_T  cnt_rem;
2367:..\..\..\..\..\..\uC-Probe\Target\Communication\Generic\Source/probe_com.c ****     CPU_SIZE_T  ix_rd;
2368:..\..\..\..\..\..\uC-Probe\Target\Communication\Generic\Source/probe_com.c ****     CPU_SIZE_T  ix_wr;
2369:..\..\..\..\..\..\uC-Probe\Target\Communication\Generic\Source/probe_com.c ****     CPU_SIZE_T  len_buf;
2370:..\..\..\..\..\..\uC-Probe\Target\Communication\Generic\Source/probe_com.c ****     CPU_SR_ALLOC();
2371:..\..\..\..\..\..\uC-Probe\Target\Communication\Generic\Source/probe_com.c **** 
2372:..\..\..\..\..\..\uC-Probe\Target\Communication\Generic\Source/probe_com.c **** 
2373:..\..\..\..\..\..\uC-Probe\Target\Communication\Generic\Source/probe_com.c ****     CPU_CRITICAL_ENTER();
2374:..\..\..\..\..\..\uC-Probe\Target\Communication\Generic\Source/probe_com.c ****     ix_rd   = pbuf->IxRd;
2375:..\..\..\..\..\..\uC-Probe\Target\Communication\Generic\Source/probe_com.c ****     ix_wr   = pbuf->IxWr;
2376:..\..\..\..\..\..\uC-Probe\Target\Communication\Generic\Source/probe_com.c ****     len_buf = pbuf->Len;
2377:..\..\..\..\..\..\uC-Probe\Target\Communication\Generic\Source/probe_com.c **** 
2378:..\..\..\..\..\..\uC-Probe\Target\Communication\Generic\Source/probe_com.c ****     if (ix_wr == ix_rd) {                                       /* Buf is empty.                   
2379:..\..\..\..\..\..\uC-Probe\Target\Communication\Generic\Source/probe_com.c ****         CPU_CRITICAL_EXIT();
2380:..\..\..\..\..\..\uC-Probe\Target\Communication\Generic\Source/probe_com.c ****         return ((CPU_SIZE_T)0);
2381:..\..\..\..\..\..\uC-Probe\Target\Communication\Generic\Source/probe_com.c ****     }
2382:..\..\..\..\..\..\uC-Probe\Target\Communication\Generic\Source/probe_com.c **** 
2383:..\..\..\..\..\..\uC-Probe\Target\Communication\Generic\Source/probe_com.c **** 
2384:..\..\..\..\..\..\uC-Probe\Target\Communication\Generic\Source/probe_com.c **** 
2385:..\..\..\..\..\..\uC-Probe\Target\Communication\Generic\Source/probe_com.c ****                                                                 /* -------------- COPY DATA FROM BU
2386:..\..\..\..\..\..\uC-Probe\Target\Communication\Generic\Source/probe_com.c ****     if (ix_wr > ix_rd) {                                        /* Get str at buf interval [rd_ix, 
2387:..\..\..\..\..\..\uC-Probe\Target\Communication\Generic\Source/probe_com.c ****         cnt_full = ix_wr - ix_rd;
2388:..\..\..\..\..\..\uC-Probe\Target\Communication\Generic\Source/probe_com.c ****     } else {                                                    /* Get str at buf interval [rd_ix, 
2389:..\..\..\..\..\..\uC-Probe\Target\Communication\Generic\Source/probe_com.c ****         cnt_full = len_buf - ix_rd;
2390:..\..\..\..\..\..\uC-Probe\Target\Communication\Generic\Source/probe_com.c ****     }
2391:..\..\..\..\..\..\uC-Probe\Target\Communication\Generic\Source/probe_com.c **** 
2392:..\..\..\..\..\..\uC-Probe\Target\Communication\Generic\Source/probe_com.c ****     cnt_copy  = DEF_MIN(cnt_full, len);                         /* Copy data.                      
2393:..\..\..\..\..\..\uC-Probe\Target\Communication\Generic\Source/probe_com.c ****     Mem_Copy((void *)pdest, (void *)&pbuf->DataPtr[ix_rd], cnt_copy);
2394:..\..\..\..\..\..\uC-Probe\Target\Communication\Generic\Source/probe_com.c **** 
2395:..\..\..\..\..\..\uC-Probe\Target\Communication\Generic\Source/probe_com.c **** 
2396:..\..\..\..\..\..\uC-Probe\Target\Communication\Generic\Source/probe_com.c ****     if ((ix_wr > ix_rd) || (ix_wr == 0u)) {
2397:..\..\..\..\..\..\uC-Probe\Target\Communication\Generic\Source/probe_com.c ****         ix_rd += cnt_copy;
2398:..\..\..\..\..\..\uC-Probe\Target\Communication\Generic\Source/probe_com.c ****         if (ix_rd == len_buf) {
2399:..\..\..\..\..\..\uC-Probe\Target\Communication\Generic\Source/probe_com.c ****             pbuf->IxRd = 0u;
2400:..\..\..\..\..\..\uC-Probe\Target\Communication\Generic\Source/probe_com.c ****         } else {
2401:..\..\..\..\..\..\uC-Probe\Target\Communication\Generic\Source/probe_com.c ****             pbuf->IxRd = ix_rd;
2402:..\..\..\..\..\..\uC-Probe\Target\Communication\Generic\Source/probe_com.c ****         }
2403:..\..\..\..\..\..\uC-Probe\Target\Communication\Generic\Source/probe_com.c ****         CPU_CRITICAL_EXIT();
2404:..\..\..\..\..\..\uC-Probe\Target\Communication\Generic\Source/probe_com.c **** 
2405:..\..\..\..\..\..\uC-Probe\Target\Communication\Generic\Source/probe_com.c ****         return (cnt_copy);
2406:..\..\..\..\..\..\uC-Probe\Target\Communication\Generic\Source/probe_com.c ****     }
2407:..\..\..\..\..\..\uC-Probe\Target\Communication\Generic\Source/probe_com.c **** 
2408:..\..\..\..\..\..\uC-Probe\Target\Communication\Generic\Source/probe_com.c **** 
2409:..\..\..\..\..\..\uC-Probe\Target\Communication\Generic\Source/probe_com.c **** 
2410:..\..\..\..\..\..\uC-Probe\Target\Communication\Generic\Source/probe_com.c ****                                                                 /* -------------- COPY DATA AT BUF 
2411:..\..\..\..\..\..\uC-Probe\Target\Communication\Generic\Source/probe_com.c ****     ix_rd    += cnt_copy;
2412:..\..\..\..\..\..\uC-Probe\Target\Communication\Generic\Source/probe_com.c ****     pdest    += cnt_copy;                                       /* Adj buf ptr.                    
2413:..\..\..\..\..\..\uC-Probe\Target\Communication\Generic\Source/probe_com.c ****     cnt_rem   = len - cnt_copy;                                 /* Calc nbr data octets to copy fro
ARM GAS  C:\Users\daniel01\AppData\Local\Temp\ccHLFCB6.s 			page 66


2414:..\..\..\..\..\..\uC-Probe\Target\Communication\Generic\Source/probe_com.c ****     cnt_copy  = DEF_MIN(ix_wr, cnt_rem);
2415:..\..\..\..\..\..\uC-Probe\Target\Communication\Generic\Source/probe_com.c **** 
2416:..\..\..\..\..\..\uC-Probe\Target\Communication\Generic\Source/probe_com.c ****     if (cnt_copy > 0u) {
2417:..\..\..\..\..\..\uC-Probe\Target\Communication\Generic\Source/probe_com.c ****                                                                 /* Copy data.                      
2418:..\..\..\..\..\..\uC-Probe\Target\Communication\Generic\Source/probe_com.c ****         Mem_Copy((void *)pdest, (void *)&pbuf->DataPtr[0], cnt_copy);
2419:..\..\..\..\..\..\uC-Probe\Target\Communication\Generic\Source/probe_com.c ****         pbuf->IxRd = cnt_copy;
2420:..\..\..\..\..\..\uC-Probe\Target\Communication\Generic\Source/probe_com.c ****     } else {
2421:..\..\..\..\..\..\uC-Probe\Target\Communication\Generic\Source/probe_com.c ****         if (ix_rd == len_buf) {
2422:..\..\..\..\..\..\uC-Probe\Target\Communication\Generic\Source/probe_com.c ****             pbuf->IxRd = 0u;
2423:..\..\..\..\..\..\uC-Probe\Target\Communication\Generic\Source/probe_com.c ****         } else {
2424:..\..\..\..\..\..\uC-Probe\Target\Communication\Generic\Source/probe_com.c ****             pbuf->IxRd = ix_rd;
2425:..\..\..\..\..\..\uC-Probe\Target\Communication\Generic\Source/probe_com.c ****         }
2426:..\..\..\..\..\..\uC-Probe\Target\Communication\Generic\Source/probe_com.c ****     }
2427:..\..\..\..\..\..\uC-Probe\Target\Communication\Generic\Source/probe_com.c ****     CPU_CRITICAL_EXIT();
2428:..\..\..\..\..\..\uC-Probe\Target\Communication\Generic\Source/probe_com.c **** 
2429:..\..\..\..\..\..\uC-Probe\Target\Communication\Generic\Source/probe_com.c ****     return ((len - cnt_rem) + cnt_copy);
2430:..\..\..\..\..\..\uC-Probe\Target\Communication\Generic\Source/probe_com.c **** }
2431:..\..\..\..\..\..\uC-Probe\Target\Communication\Generic\Source/probe_com.c **** #endif
2432:..\..\..\..\..\..\uC-Probe\Target\Communication\Generic\Source/probe_com.c **** 
2433:..\..\..\..\..\..\uC-Probe\Target\Communication\Generic\Source/probe_com.c **** 
2434:..\..\..\..\..\..\uC-Probe\Target\Communication\Generic\Source/probe_com.c **** /*
2435:..\..\..\..\..\..\uC-Probe\Target\Communication\Generic\Source/probe_com.c **** ***************************************************************************************************
2436:..\..\..\..\..\..\uC-Probe\Target\Communication\Generic\Source/probe_com.c **** *                                          ProbeCom_BufWr()
2437:..\..\..\..\..\..\uC-Probe\Target\Communication\Generic\Source/probe_com.c **** *
2438:..\..\..\..\..\..\uC-Probe\Target\Communication\Generic\Source/probe_com.c **** * Description : Write to buffer.
2439:..\..\..\..\..\..\uC-Probe\Target\Communication\Generic\Source/probe_com.c **** *
2440:..\..\..\..\..\..\uC-Probe\Target\Communication\Generic\Source/probe_com.c **** * Argument(s) : pbuf            Pointer to buffer.
2441:..\..\..\..\..\..\uC-Probe\Target\Communication\Generic\Source/probe_com.c **** *
2442:..\..\..\..\..\..\uC-Probe\Target\Communication\Generic\Source/probe_com.c **** *               psrc            Pointer to source buffer.
2443:..\..\..\..\..\..\uC-Probe\Target\Communication\Generic\Source/probe_com.c **** *
2444:..\..\..\..\..\..\uC-Probe\Target\Communication\Generic\Source/probe_com.c **** *               len             Number of octets to write.
2445:..\..\..\..\..\..\uC-Probe\Target\Communication\Generic\Source/probe_com.c **** *
2446:..\..\..\..\..\..\uC-Probe\Target\Communication\Generic\Source/probe_com.c **** *
2447:..\..\..\..\..\..\uC-Probe\Target\Communication\Generic\Source/probe_com.c **** * Return(s)   : Number of octets stored in buffer.
2448:..\..\..\..\..\..\uC-Probe\Target\Communication\Generic\Source/probe_com.c **** *
2449:..\..\..\..\..\..\uC-Probe\Target\Communication\Generic\Source/probe_com.c **** * Caller(s)   : Hardware Port's ISR.
2450:..\..\..\..\..\..\uC-Probe\Target\Communication\Generic\Source/probe_com.c **** *
2451:..\..\..\..\..\..\uC-Probe\Target\Communication\Generic\Source/probe_com.c **** * Note(s)     : none.
2452:..\..\..\..\..\..\uC-Probe\Target\Communication\Generic\Source/probe_com.c **** ***************************************************************************************************
2453:..\..\..\..\..\..\uC-Probe\Target\Communication\Generic\Source/probe_com.c **** */
2454:..\..\..\..\..\..\uC-Probe\Target\Communication\Generic\Source/probe_com.c **** 
2455:..\..\..\..\..\..\uC-Probe\Target\Communication\Generic\Source/probe_com.c **** #if (PROBE_COM_CFG_STR_REQ_EN == DEF_TRUE)
2456:..\..\..\..\..\..\uC-Probe\Target\Communication\Generic\Source/probe_com.c **** static  CPU_SIZE_T  ProbeCom_BufWr (PROBE_COM_BUF  *pbuf,
2457:..\..\..\..\..\..\uC-Probe\Target\Communication\Generic\Source/probe_com.c ****                                     CPU_INT08U     *psrc,
2458:..\..\..\..\..\..\uC-Probe\Target\Communication\Generic\Source/probe_com.c ****                                     CPU_SIZE_T      len)
2459:..\..\..\..\..\..\uC-Probe\Target\Communication\Generic\Source/probe_com.c **** {
2460:..\..\..\..\..\..\uC-Probe\Target\Communication\Generic\Source/probe_com.c ****     CPU_SIZE_T  cnt_copy;
2461:..\..\..\..\..\..\uC-Probe\Target\Communication\Generic\Source/probe_com.c ****     CPU_SIZE_T  cnt_empty;
2462:..\..\..\..\..\..\uC-Probe\Target\Communication\Generic\Source/probe_com.c ****     CPU_SIZE_T  cnt_rem;
2463:..\..\..\..\..\..\uC-Probe\Target\Communication\Generic\Source/probe_com.c ****     CPU_SIZE_T  ix_rd;
2464:..\..\..\..\..\..\uC-Probe\Target\Communication\Generic\Source/probe_com.c ****     CPU_SIZE_T  ix_wr;
2465:..\..\..\..\..\..\uC-Probe\Target\Communication\Generic\Source/probe_com.c ****     CPU_SIZE_T  len_buf;
2466:..\..\..\..\..\..\uC-Probe\Target\Communication\Generic\Source/probe_com.c ****     CPU_SR_ALLOC();
2467:..\..\..\..\..\..\uC-Probe\Target\Communication\Generic\Source/probe_com.c **** 
2468:..\..\..\..\..\..\uC-Probe\Target\Communication\Generic\Source/probe_com.c **** 
2469:..\..\..\..\..\..\uC-Probe\Target\Communication\Generic\Source/probe_com.c ****     CPU_CRITICAL_ENTER();
2470:..\..\..\..\..\..\uC-Probe\Target\Communication\Generic\Source/probe_com.c ****     ix_rd   = pbuf->IxRd;
ARM GAS  C:\Users\daniel01\AppData\Local\Temp\ccHLFCB6.s 			page 67


2471:..\..\..\..\..\..\uC-Probe\Target\Communication\Generic\Source/probe_com.c ****     ix_wr   = pbuf->IxWr;
2472:..\..\..\..\..\..\uC-Probe\Target\Communication\Generic\Source/probe_com.c ****     len_buf = pbuf->Len;
2473:..\..\..\..\..\..\uC-Probe\Target\Communication\Generic\Source/probe_com.c **** 
2474:..\..\..\..\..\..\uC-Probe\Target\Communication\Generic\Source/probe_com.c ****                                                                 /* --------------- COPY DATA AT BUF
2475:..\..\..\..\..\..\uC-Probe\Target\Communication\Generic\Source/probe_com.c ****     if (ix_rd > ix_wr) {                                        /* Sto str at buf interval [wr_ix, 
2476:..\..\..\..\..\..\uC-Probe\Target\Communication\Generic\Source/probe_com.c ****         cnt_empty = (ix_rd   - ix_wr) - 1u;
2477:..\..\..\..\..\..\uC-Probe\Target\Communication\Generic\Source/probe_com.c ****     } else if (ix_rd == 0u) {                                   /* Sto str at buf interval [wr_ix, 
2478:..\..\..\..\..\..\uC-Probe\Target\Communication\Generic\Source/probe_com.c ****         cnt_empty = (len_buf - ix_wr) - 1u;
2479:..\..\..\..\..\..\uC-Probe\Target\Communication\Generic\Source/probe_com.c ****     } else {                                                    /* Sto str at buf interval [wr_ix, 
2480:..\..\..\..\..\..\uC-Probe\Target\Communication\Generic\Source/probe_com.c ****         cnt_empty =  len_buf - ix_wr;
2481:..\..\..\..\..\..\uC-Probe\Target\Communication\Generic\Source/probe_com.c ****     }
2482:..\..\..\..\..\..\uC-Probe\Target\Communication\Generic\Source/probe_com.c **** 
2483:..\..\..\..\..\..\uC-Probe\Target\Communication\Generic\Source/probe_com.c ****     cnt_copy  = DEF_MIN(cnt_empty, len);                        /* Copy data.                      
2484:..\..\..\..\..\..\uC-Probe\Target\Communication\Generic\Source/probe_com.c ****     Mem_Copy((void *)&pbuf->DataPtr[ix_wr], (void *)psrc, cnt_copy);
2485:..\..\..\..\..\..\uC-Probe\Target\Communication\Generic\Source/probe_com.c **** 
2486:..\..\..\..\..\..\uC-Probe\Target\Communication\Generic\Source/probe_com.c **** 
2487:..\..\..\..\..\..\uC-Probe\Target\Communication\Generic\Source/probe_com.c ****     if ((ix_rd > ix_wr) || (ix_rd == 0u)) {
2488:..\..\..\..\..\..\uC-Probe\Target\Communication\Generic\Source/probe_com.c ****         pbuf->IxWr = ix_wr + cnt_copy;
2489:..\..\..\..\..\..\uC-Probe\Target\Communication\Generic\Source/probe_com.c ****         CPU_CRITICAL_EXIT();
2490:..\..\..\..\..\..\uC-Probe\Target\Communication\Generic\Source/probe_com.c **** 
2491:..\..\..\..\..\..\uC-Probe\Target\Communication\Generic\Source/probe_com.c ****         return (cnt_copy);
2492:..\..\..\..\..\..\uC-Probe\Target\Communication\Generic\Source/probe_com.c ****     }
2493:..\..\..\..\..\..\uC-Probe\Target\Communication\Generic\Source/probe_com.c **** 
2494:..\..\..\..\..\..\uC-Probe\Target\Communication\Generic\Source/probe_com.c **** 
2495:..\..\..\..\..\..\uC-Probe\Target\Communication\Generic\Source/probe_com.c **** 
2496:..\..\..\..\..\..\uC-Probe\Target\Communication\Generic\Source/probe_com.c ****                                                                 /* -------------- COPY DATA AT BUF 
2497:..\..\..\..\..\..\uC-Probe\Target\Communication\Generic\Source/probe_com.c ****     ix_wr    += cnt_copy;
2498:..\..\..\..\..\..\uC-Probe\Target\Communication\Generic\Source/probe_com.c ****     psrc     += cnt_copy;                                       /* Adj buf ptr.                    
2499:..\..\..\..\..\..\uC-Probe\Target\Communication\Generic\Source/probe_com.c ****     cnt_rem   = len - cnt_copy;                                 /* Calc nbr data octets to copy fro
2500:..\..\..\..\..\..\uC-Probe\Target\Communication\Generic\Source/probe_com.c ****     cnt_copy  = DEF_MIN(ix_rd - 1u, cnt_rem);
2501:..\..\..\..\..\..\uC-Probe\Target\Communication\Generic\Source/probe_com.c **** 
2502:..\..\..\..\..\..\uC-Probe\Target\Communication\Generic\Source/probe_com.c ****     if (cnt_copy > 0u) {
2503:..\..\..\..\..\..\uC-Probe\Target\Communication\Generic\Source/probe_com.c ****                                                                 /* Copy data.                      
2504:..\..\..\..\..\..\uC-Probe\Target\Communication\Generic\Source/probe_com.c ****         Mem_Copy((void *)&pbuf->DataPtr[0], (void *)psrc, cnt_copy);
2505:..\..\..\..\..\..\uC-Probe\Target\Communication\Generic\Source/probe_com.c ****         pbuf->IxWr = cnt_copy;
2506:..\..\..\..\..\..\uC-Probe\Target\Communication\Generic\Source/probe_com.c ****     } else {
2507:..\..\..\..\..\..\uC-Probe\Target\Communication\Generic\Source/probe_com.c ****         if (ix_wr == len_buf) {
2508:..\..\..\..\..\..\uC-Probe\Target\Communication\Generic\Source/probe_com.c ****             pbuf->IxWr = 0u;
2509:..\..\..\..\..\..\uC-Probe\Target\Communication\Generic\Source/probe_com.c ****         } else {
2510:..\..\..\..\..\..\uC-Probe\Target\Communication\Generic\Source/probe_com.c ****             pbuf->IxWr = ix_wr;
2511:..\..\..\..\..\..\uC-Probe\Target\Communication\Generic\Source/probe_com.c ****         }
2512:..\..\..\..\..\..\uC-Probe\Target\Communication\Generic\Source/probe_com.c ****     }
2513:..\..\..\..\..\..\uC-Probe\Target\Communication\Generic\Source/probe_com.c ****     CPU_CRITICAL_EXIT();
2514:..\..\..\..\..\..\uC-Probe\Target\Communication\Generic\Source/probe_com.c **** 
2515:..\..\..\..\..\..\uC-Probe\Target\Communication\Generic\Source/probe_com.c ****     return ((len - cnt_rem) + cnt_copy);
2516:..\..\..\..\..\..\uC-Probe\Target\Communication\Generic\Source/probe_com.c **** }
2517:..\..\..\..\..\..\uC-Probe\Target\Communication\Generic\Source/probe_com.c **** #endif
2518:..\..\..\..\..\..\uC-Probe\Target\Communication\Generic\Source/probe_com.c **** 
2519:..\..\..\..\..\..\uC-Probe\Target\Communication\Generic\Source/probe_com.c **** 
2520:..\..\..\..\..\..\uC-Probe\Target\Communication\Generic\Source/probe_com.c **** /*
2521:..\..\..\..\..\..\uC-Probe\Target\Communication\Generic\Source/probe_com.c **** ***************************************************************************************************
2522:..\..\..\..\..\..\uC-Probe\Target\Communication\Generic\Source/probe_com.c **** *                                        ProbeCom_BufIsEmpty()
2523:..\..\..\..\..\..\uC-Probe\Target\Communication\Generic\Source/probe_com.c **** *
2524:..\..\..\..\..\..\uC-Probe\Target\Communication\Generic\Source/probe_com.c **** * Description : Determine whether buffer is empty.
2525:..\..\..\..\..\..\uC-Probe\Target\Communication\Generic\Source/probe_com.c **** *
2526:..\..\..\..\..\..\uC-Probe\Target\Communication\Generic\Source/probe_com.c **** * Argument(s) : pbuf            Pointer to buffer.
2527:..\..\..\..\..\..\uC-Probe\Target\Communication\Generic\Source/probe_com.c **** *
ARM GAS  C:\Users\daniel01\AppData\Local\Temp\ccHLFCB6.s 			page 68


2528:..\..\..\..\..\..\uC-Probe\Target\Communication\Generic\Source/probe_com.c **** * Return(s)   : DEF_YES, if buffer is empty.
2529:..\..\..\..\..\..\uC-Probe\Target\Communication\Generic\Source/probe_com.c **** *               DEF_NO,  if buffer contains any data.
2530:..\..\..\..\..\..\uC-Probe\Target\Communication\Generic\Source/probe_com.c **** *
2531:..\..\..\..\..\..\uC-Probe\Target\Communication\Generic\Source/probe_com.c **** * Caller(s)   : Application.
2532:..\..\..\..\..\..\uC-Probe\Target\Communication\Generic\Source/probe_com.c **** *
2533:..\..\..\..\..\..\uC-Probe\Target\Communication\Generic\Source/probe_com.c **** * Note(s)     : none.
2534:..\..\..\..\..\..\uC-Probe\Target\Communication\Generic\Source/probe_com.c **** ***************************************************************************************************
2535:..\..\..\..\..\..\uC-Probe\Target\Communication\Generic\Source/probe_com.c **** */
2536:..\..\..\..\..\..\uC-Probe\Target\Communication\Generic\Source/probe_com.c **** 
2537:..\..\..\..\..\..\uC-Probe\Target\Communication\Generic\Source/probe_com.c **** #if (PROBE_COM_CFG_STR_REQ_EN == DEF_TRUE)
2538:..\..\..\..\..\..\uC-Probe\Target\Communication\Generic\Source/probe_com.c **** static  CPU_BOOLEAN  ProbeCom_BufIsEmpty  (PROBE_COM_BUF  *pbuf)
2539:..\..\..\..\..\..\uC-Probe\Target\Communication\Generic\Source/probe_com.c **** {
2540:..\..\..\..\..\..\uC-Probe\Target\Communication\Generic\Source/probe_com.c ****     CPU_BOOLEAN  empty;
2541:..\..\..\..\..\..\uC-Probe\Target\Communication\Generic\Source/probe_com.c ****     CPU_SR_ALLOC();
2542:..\..\..\..\..\..\uC-Probe\Target\Communication\Generic\Source/probe_com.c **** 
2543:..\..\..\..\..\..\uC-Probe\Target\Communication\Generic\Source/probe_com.c **** 
2544:..\..\..\..\..\..\uC-Probe\Target\Communication\Generic\Source/probe_com.c ****     CPU_CRITICAL_ENTER();
2545:..\..\..\..\..\..\uC-Probe\Target\Communication\Generic\Source/probe_com.c ****     empty = ((pbuf->IxRd == pbuf->IxWr) ? (DEF_YES) : (DEF_NO));
2546:..\..\..\..\..\..\uC-Probe\Target\Communication\Generic\Source/probe_com.c ****     CPU_CRITICAL_EXIT();
2547:..\..\..\..\..\..\uC-Probe\Target\Communication\Generic\Source/probe_com.c **** 
2548:..\..\..\..\..\..\uC-Probe\Target\Communication\Generic\Source/probe_com.c ****     return (empty);
2549:..\..\..\..\..\..\uC-Probe\Target\Communication\Generic\Source/probe_com.c **** }
2550:..\..\..\..\..\..\uC-Probe\Target\Communication\Generic\Source/probe_com.c **** #endif
2551:..\..\..\..\..\..\uC-Probe\Target\Communication\Generic\Source/probe_com.c **** 
2552:..\..\..\..\..\..\uC-Probe\Target\Communication\Generic\Source/probe_com.c **** 
2553:..\..\..\..\..\..\uC-Probe\Target\Communication\Generic\Source/probe_com.c **** /*
2554:..\..\..\..\..\..\uC-Probe\Target\Communication\Generic\Source/probe_com.c **** ***************************************************************************************************
2555:..\..\..\..\..\..\uC-Probe\Target\Communication\Generic\Source/probe_com.c **** *                                        ProbeCom_BufIsFull()
2556:..\..\..\..\..\..\uC-Probe\Target\Communication\Generic\Source/probe_com.c **** *
2557:..\..\..\..\..\..\uC-Probe\Target\Communication\Generic\Source/probe_com.c **** * Description : Determine whether buffer is full.
2558:..\..\..\..\..\..\uC-Probe\Target\Communication\Generic\Source/probe_com.c **** *
2559:..\..\..\..\..\..\uC-Probe\Target\Communication\Generic\Source/probe_com.c **** * Argument(s) : pbuf            Pointer to buffer.
2560:..\..\..\..\..\..\uC-Probe\Target\Communication\Generic\Source/probe_com.c **** *
2561:..\..\..\..\..\..\uC-Probe\Target\Communication\Generic\Source/probe_com.c **** * Return(s)   : DEF_YES, if buffer is full.
2562:..\..\..\..\..\..\uC-Probe\Target\Communication\Generic\Source/probe_com.c **** *               DEF_NO,  otherwise.
2563:..\..\..\..\..\..\uC-Probe\Target\Communication\Generic\Source/probe_com.c **** *
2564:..\..\..\..\..\..\uC-Probe\Target\Communication\Generic\Source/probe_com.c **** * Caller(s)   : Application.
2565:..\..\..\..\..\..\uC-Probe\Target\Communication\Generic\Source/probe_com.c **** *
2566:..\..\..\..\..\..\uC-Probe\Target\Communication\Generic\Source/probe_com.c **** * Note(s)     : none.
2567:..\..\..\..\..\..\uC-Probe\Target\Communication\Generic\Source/probe_com.c **** ***************************************************************************************************
2568:..\..\..\..\..\..\uC-Probe\Target\Communication\Generic\Source/probe_com.c **** */
2569:..\..\..\..\..\..\uC-Probe\Target\Communication\Generic\Source/probe_com.c **** 
2570:..\..\..\..\..\..\uC-Probe\Target\Communication\Generic\Source/probe_com.c **** #if 0
2571:..\..\..\..\..\..\uC-Probe\Target\Communication\Generic\Source/probe_com.c **** static  CPU_BOOLEAN  ProbeCom_BufIsFull  (PROBE_COM_BUF  *pbuf)
2572:..\..\..\..\..\..\uC-Probe\Target\Communication\Generic\Source/probe_com.c **** {
2573:..\..\..\..\..\..\uC-Probe\Target\Communication\Generic\Source/probe_com.c ****     CPU_BOOLEAN  full;
2574:..\..\..\..\..\..\uC-Probe\Target\Communication\Generic\Source/probe_com.c ****     CPU_SR_ALLOC();
2575:..\..\..\..\..\..\uC-Probe\Target\Communication\Generic\Source/probe_com.c **** 
2576:..\..\..\..\..\..\uC-Probe\Target\Communication\Generic\Source/probe_com.c **** 
2577:..\..\..\..\..\..\uC-Probe\Target\Communication\Generic\Source/probe_com.c ****     CPU_CRITICAL_ENTER();
2578:..\..\..\..\..\..\uC-Probe\Target\Communication\Generic\Source/probe_com.c ****     if (pbuf->IxWr == 0) {
2579:..\..\..\..\..\..\uC-Probe\Target\Communication\Generic\Source/probe_com.c ****         full = ((pbuf->IxRd == pbuf->Len  - 1) ? (DEF_YES) : (DEF_NO));
2580:..\..\..\..\..\..\uC-Probe\Target\Communication\Generic\Source/probe_com.c ****     } else {
2581:..\..\..\..\..\..\uC-Probe\Target\Communication\Generic\Source/probe_com.c ****         full = ((pbuf->IxRd == pbuf->IxWr - 1) ? (DEF_YES) : (DEF_NO));
2582:..\..\..\..\..\..\uC-Probe\Target\Communication\Generic\Source/probe_com.c ****     }
2583:..\..\..\..\..\..\uC-Probe\Target\Communication\Generic\Source/probe_com.c ****     CPU_CRITICAL_EXIT();
2584:..\..\..\..\..\..\uC-Probe\Target\Communication\Generic\Source/probe_com.c **** 
ARM GAS  C:\Users\daniel01\AppData\Local\Temp\ccHLFCB6.s 			page 69


2585:..\..\..\..\..\..\uC-Probe\Target\Communication\Generic\Source/probe_com.c ****     return (full);
2586:..\..\..\..\..\..\uC-Probe\Target\Communication\Generic\Source/probe_com.c **** }
2587:..\..\..\..\..\..\uC-Probe\Target\Communication\Generic\Source/probe_com.c **** #endif
2588:..\..\..\..\..\..\uC-Probe\Target\Communication\Generic\Source/probe_com.c **** 
2589:..\..\..\..\..\..\uC-Probe\Target\Communication\Generic\Source/probe_com.c **** 
2590:..\..\..\..\..\..\uC-Probe\Target\Communication\Generic\Source/probe_com.c **** /*
2591:..\..\..\..\..\..\uC-Probe\Target\Communication\Generic\Source/probe_com.c **** ***************************************************************************************************
2592:..\..\..\..\..\..\uC-Probe\Target\Communication\Generic\Source/probe_com.c **** *                                        ProbeCom_GetINT08U()
2593:..\..\..\..\..\..\uC-Probe\Target\Communication\Generic\Source/probe_com.c **** *                                        ProbeCom_GetINT16U()
2594:..\..\..\..\..\..\uC-Probe\Target\Communication\Generic\Source/probe_com.c **** *                                        ProbeCom_GetINT32U()
2595:..\..\..\..\..\..\uC-Probe\Target\Communication\Generic\Source/probe_com.c **** *
2596:..\..\..\..\..\..\uC-Probe\Target\Communication\Generic\Source/probe_com.c **** * Description : Retrieve data from a buffer and increment buffer pointer.
2597:..\..\..\..\..\..\uC-Probe\Target\Communication\Generic\Source/probe_com.c **** *
2598:..\..\..\..\..\..\uC-Probe\Target\Communication\Generic\Source/probe_com.c **** * Argument(s) : pbuf            The pointer to the buffer pointer.
2599:..\..\..\..\..\..\uC-Probe\Target\Communication\Generic\Source/probe_com.c **** *
2600:..\..\..\..\..\..\uC-Probe\Target\Communication\Generic\Source/probe_com.c **** * Return(s)   : A 8-, 16-, or 32-bit datum, respectively.
2601:..\..\..\..\..\..\uC-Probe\Target\Communication\Generic\Source/probe_com.c **** *
2602:..\..\..\..\..\..\uC-Probe\Target\Communication\Generic\Source/probe_com.c **** * Caller(s)   : various.
2603:..\..\..\..\..\..\uC-Probe\Target\Communication\Generic\Source/probe_com.c **** *
2604:..\..\..\..\..\..\uC-Probe\Target\Communication\Generic\Source/probe_com.c **** * Note(s)     : none.
2605:..\..\..\..\..\..\uC-Probe\Target\Communication\Generic\Source/probe_com.c **** ***************************************************************************************************
2606:..\..\..\..\..\..\uC-Probe\Target\Communication\Generic\Source/probe_com.c **** */
2607:..\..\..\..\..\..\uC-Probe\Target\Communication\Generic\Source/probe_com.c **** 
2608:..\..\..\..\..\..\uC-Probe\Target\Communication\Generic\Source/probe_com.c **** static  CPU_INT08U  ProbeCom_GetINT08U (CPU_INT08U **pbuf)
2609:..\..\..\..\..\..\uC-Probe\Target\Communication\Generic\Source/probe_com.c **** {
 1289              		.loc 1 2609 0
 1290              		.cfi_startproc
 1291              		@ args = 0, pretend = 0, frame = 8
 1292              		@ frame_needed = 1, uses_anonymous_args = 0
 1293              		@ link register save eliminated.
 1294 0000 80B4     		push	{r7}
 1295              	.LCFI26:
 1296              		.cfi_def_cfa_offset 4
 1297 0002 83B0     		sub	sp, sp, #12
 1298              	.LCFI27:
 1299              		.cfi_def_cfa_offset 16
 1300 0004 00AF     		add	r7, sp, #0
 1301              		.cfi_offset 7, -4
 1302              	.LCFI28:
 1303              		.cfi_def_cfa_register 7
 1304 0006 7860     		str	r0, [r7, #4]
2610:..\..\..\..\..\..\uC-Probe\Target\Communication\Generic\Source/probe_com.c ****     return (*((*pbuf)++));
 1305              		.loc 1 2610 0
 1306 0008 7B68     		ldr	r3, [r7, #4]
 1307 000a 1B68     		ldr	r3, [r3, #0]
 1308 000c 1A78     		ldrb	r2, [r3, #0]	@ zero_extendqisi2
 1309 000e 03F10101 		add	r1, r3, #1
 1310 0012 7B68     		ldr	r3, [r7, #4]
 1311 0014 1960     		str	r1, [r3, #0]
 1312 0016 1346     		mov	r3, r2
2611:..\..\..\..\..\..\uC-Probe\Target\Communication\Generic\Source/probe_com.c **** }
 1313              		.loc 1 2611 0
 1314 0018 1846     		mov	r0, r3
 1315 001a 07F10C07 		add	r7, r7, #12
 1316 001e BD46     		mov	sp, r7
 1317 0020 80BC     		pop	{r7}
 1318 0022 7047     		bx	lr
ARM GAS  C:\Users\daniel01\AppData\Local\Temp\ccHLFCB6.s 			page 70


 1319              		.cfi_endproc
 1320              	.LFE9:
 1321              		.size	ProbeCom_GetINT08U, .-ProbeCom_GetINT08U
 1322              		.section	.text.ProbeCom_GetINT16U,"ax",%progbits
 1323              		.align	2
 1324              		.thumb
 1325              		.thumb_func
 1326              		.type	ProbeCom_GetINT16U, %function
 1327              	ProbeCom_GetINT16U:
 1328              	.LFB10:
2612:..\..\..\..\..\..\uC-Probe\Target\Communication\Generic\Source/probe_com.c **** 
2613:..\..\..\..\..\..\uC-Probe\Target\Communication\Generic\Source/probe_com.c **** 
2614:..\..\..\..\..\..\uC-Probe\Target\Communication\Generic\Source/probe_com.c **** static  CPU_INT16U  ProbeCom_GetINT16U (CPU_INT08U **pbuf)
2615:..\..\..\..\..\..\uC-Probe\Target\Communication\Generic\Source/probe_com.c **** {
 1329              		.loc 1 2615 0
 1330              		.cfi_startproc
 1331              		@ args = 0, pretend = 0, frame = 16
 1332              		@ frame_needed = 1, uses_anonymous_args = 0
 1333 0000 80B5     		push	{r7, lr}
 1334              	.LCFI29:
 1335              		.cfi_def_cfa_offset 8
 1336 0002 84B0     		sub	sp, sp, #16
 1337              	.LCFI30:
 1338              		.cfi_def_cfa_offset 24
 1339 0004 00AF     		add	r7, sp, #0
 1340              		.cfi_offset 14, -4
 1341              		.cfi_offset 7, -8
 1342              	.LCFI31:
 1343              		.cfi_def_cfa_register 7
 1344 0006 7860     		str	r0, [r7, #4]
2616:..\..\..\..\..\..\uC-Probe\Target\Communication\Generic\Source/probe_com.c ****     CPU_INT16U  lowbyte;
2617:..\..\..\..\..\..\uC-Probe\Target\Communication\Generic\Source/probe_com.c ****     CPU_INT16U  highbyte;
2618:..\..\..\..\..\..\uC-Probe\Target\Communication\Generic\Source/probe_com.c **** 
2619:..\..\..\..\..\..\uC-Probe\Target\Communication\Generic\Source/probe_com.c **** 
2620:..\..\..\..\..\..\uC-Probe\Target\Communication\Generic\Source/probe_com.c ****     lowbyte  = ProbeCom_GetINT08U(pbuf);
 1345              		.loc 1 2620 0
 1346 0008 7868     		ldr	r0, [r7, #4]
 1347 000a FFF7FEFF 		bl	ProbeCom_GetINT08U
 1348 000e 0346     		mov	r3, r0
 1349 0010 BB81     		strh	r3, [r7, #12]	@ movhi
2621:..\..\..\..\..\..\uC-Probe\Target\Communication\Generic\Source/probe_com.c ****     highbyte = ProbeCom_GetINT08U(pbuf);
 1350              		.loc 1 2621 0
 1351 0012 7868     		ldr	r0, [r7, #4]
 1352 0014 FFF7FEFF 		bl	ProbeCom_GetINT08U
 1353 0018 0346     		mov	r3, r0
 1354 001a FB81     		strh	r3, [r7, #14]	@ movhi
2622:..\..\..\..\..\..\uC-Probe\Target\Communication\Generic\Source/probe_com.c ****     return ((CPU_INT16U)((CPU_INT16U)(highbyte << 8) | (CPU_INT16U)lowbyte));
 1355              		.loc 1 2622 0
 1356 001c FB89     		ldrh	r3, [r7, #14]	@ movhi
 1357 001e 4FEA0323 		lsl	r3, r3, #8
 1358 0022 9AB2     		uxth	r2, r3
 1359 0024 BB89     		ldrh	r3, [r7, #12]	@ movhi
 1360 0026 42EA0303 		orr	r3, r2, r3
 1361 002a 9BB2     		uxth	r3, r3
2623:..\..\..\..\..\..\uC-Probe\Target\Communication\Generic\Source/probe_com.c **** }
 1362              		.loc 1 2623 0
 1363 002c 1846     		mov	r0, r3
ARM GAS  C:\Users\daniel01\AppData\Local\Temp\ccHLFCB6.s 			page 71


 1364 002e 07F11007 		add	r7, r7, #16
 1365 0032 BD46     		mov	sp, r7
 1366 0034 80BD     		pop	{r7, pc}
 1367              		.cfi_endproc
 1368              	.LFE10:
 1369              		.size	ProbeCom_GetINT16U, .-ProbeCom_GetINT16U
 1370 0036 00BF     		.section	.text.ProbeCom_GetINT32U,"ax",%progbits
 1371              		.align	2
 1372              		.thumb
 1373              		.thumb_func
 1374              		.type	ProbeCom_GetINT32U, %function
 1375              	ProbeCom_GetINT32U:
 1376              	.LFB11:
2624:..\..\..\..\..\..\uC-Probe\Target\Communication\Generic\Source/probe_com.c **** 
2625:..\..\..\..\..\..\uC-Probe\Target\Communication\Generic\Source/probe_com.c **** static  CPU_INT32U  ProbeCom_GetINT32U (CPU_INT08U **pbuf)
2626:..\..\..\..\..\..\uC-Probe\Target\Communication\Generic\Source/probe_com.c **** {
 1377              		.loc 1 2626 0
 1378              		.cfi_startproc
 1379              		@ args = 0, pretend = 0, frame = 16
 1380              		@ frame_needed = 1, uses_anonymous_args = 0
 1381 0000 80B5     		push	{r7, lr}
 1382              	.LCFI32:
 1383              		.cfi_def_cfa_offset 8
 1384 0002 84B0     		sub	sp, sp, #16
 1385              	.LCFI33:
 1386              		.cfi_def_cfa_offset 24
 1387 0004 00AF     		add	r7, sp, #0
 1388              		.cfi_offset 14, -4
 1389              		.cfi_offset 7, -8
 1390              	.LCFI34:
 1391              		.cfi_def_cfa_register 7
 1392 0006 7860     		str	r0, [r7, #4]
2627:..\..\..\..\..\..\uC-Probe\Target\Communication\Generic\Source/probe_com.c ****     CPU_INT32U  highword;
2628:..\..\..\..\..\..\uC-Probe\Target\Communication\Generic\Source/probe_com.c ****     CPU_INT32U  lowword;
2629:..\..\..\..\..\..\uC-Probe\Target\Communication\Generic\Source/probe_com.c **** 
2630:..\..\..\..\..\..\uC-Probe\Target\Communication\Generic\Source/probe_com.c **** 
2631:..\..\..\..\..\..\uC-Probe\Target\Communication\Generic\Source/probe_com.c ****     lowword  = ProbeCom_GetINT16U(pbuf);
 1393              		.loc 1 2631 0
 1394 0008 7868     		ldr	r0, [r7, #4]
 1395 000a FFF7FEFF 		bl	ProbeCom_GetINT16U
 1396 000e 0346     		mov	r3, r0
 1397 0010 FB60     		str	r3, [r7, #12]
2632:..\..\..\..\..\..\uC-Probe\Target\Communication\Generic\Source/probe_com.c ****     highword = ProbeCom_GetINT16U(pbuf);
 1398              		.loc 1 2632 0
 1399 0012 7868     		ldr	r0, [r7, #4]
 1400 0014 FFF7FEFF 		bl	ProbeCom_GetINT16U
 1401 0018 0346     		mov	r3, r0
 1402 001a BB60     		str	r3, [r7, #8]
2633:..\..\..\..\..\..\uC-Probe\Target\Communication\Generic\Source/probe_com.c ****     return ((CPU_INT32U)((highword << 16) | lowword));
 1403              		.loc 1 2633 0
 1404 001c BB68     		ldr	r3, [r7, #8]
 1405 001e 4FEA0342 		lsl	r2, r3, #16
 1406 0022 FB68     		ldr	r3, [r7, #12]
 1407 0024 42EA0303 		orr	r3, r2, r3
2634:..\..\..\..\..\..\uC-Probe\Target\Communication\Generic\Source/probe_com.c **** }
 1408              		.loc 1 2634 0
 1409 0028 1846     		mov	r0, r3
ARM GAS  C:\Users\daniel01\AppData\Local\Temp\ccHLFCB6.s 			page 72


 1410 002a 07F11007 		add	r7, r7, #16
 1411 002e BD46     		mov	sp, r7
 1412 0030 80BD     		pop	{r7, pc}
 1413              		.cfi_endproc
 1414              	.LFE11:
 1415              		.size	ProbeCom_GetINT32U, .-ProbeCom_GetINT32U
 1416 0032 00BF     		.section	.text.ProbeCom_StoINT08U,"ax",%progbits
 1417              		.align	2
 1418              		.thumb
 1419              		.thumb_func
 1420              		.type	ProbeCom_StoINT08U, %function
 1421              	ProbeCom_StoINT08U:
 1422              	.LFB12:
2635:..\..\..\..\..\..\uC-Probe\Target\Communication\Generic\Source/probe_com.c **** 
2636:..\..\..\..\..\..\uC-Probe\Target\Communication\Generic\Source/probe_com.c **** 
2637:..\..\..\..\..\..\uC-Probe\Target\Communication\Generic\Source/probe_com.c **** /*
2638:..\..\..\..\..\..\uC-Probe\Target\Communication\Generic\Source/probe_com.c **** ***************************************************************************************************
2639:..\..\..\..\..\..\uC-Probe\Target\Communication\Generic\Source/probe_com.c **** *                                        ProbeCom_StoINT08U()
2640:..\..\..\..\..\..\uC-Probe\Target\Communication\Generic\Source/probe_com.c **** *                                        ProbeCom_StoINT16U()
2641:..\..\..\..\..\..\uC-Probe\Target\Communication\Generic\Source/probe_com.c **** *                                        ProbeCom_StoINT32U()
2642:..\..\..\..\..\..\uC-Probe\Target\Communication\Generic\Source/probe_com.c **** *
2643:..\..\..\..\..\..\uC-Probe\Target\Communication\Generic\Source/probe_com.c **** * Description : Store data into a buffer and increment the buffer pointer.
2644:..\..\..\..\..\..\uC-Probe\Target\Communication\Generic\Source/probe_com.c **** *
2645:..\..\..\..\..\..\uC-Probe\Target\Communication\Generic\Source/probe_com.c **** * Argument(s) : pbuf            The pointer to the buffer pointer.
2646:..\..\..\..\..\..\uC-Probe\Target\Communication\Generic\Source/probe_com.c **** *
2647:..\..\..\..\..\..\uC-Probe\Target\Communication\Generic\Source/probe_com.c **** *               data            A 8-, 16-, or 32-bit datum, respectively.
2648:..\..\..\..\..\..\uC-Probe\Target\Communication\Generic\Source/probe_com.c **** *
2649:..\..\..\..\..\..\uC-Probe\Target\Communication\Generic\Source/probe_com.c **** * Return(s)   : none.
2650:..\..\..\..\..\..\uC-Probe\Target\Communication\Generic\Source/probe_com.c **** *
2651:..\..\..\..\..\..\uC-Probe\Target\Communication\Generic\Source/probe_com.c **** * Caller(s)   : various.
2652:..\..\..\..\..\..\uC-Probe\Target\Communication\Generic\Source/probe_com.c **** *
2653:..\..\..\..\..\..\uC-Probe\Target\Communication\Generic\Source/probe_com.c **** * Note(s)     : none.
2654:..\..\..\..\..\..\uC-Probe\Target\Communication\Generic\Source/probe_com.c **** ***************************************************************************************************
2655:..\..\..\..\..\..\uC-Probe\Target\Communication\Generic\Source/probe_com.c **** */
2656:..\..\..\..\..\..\uC-Probe\Target\Communication\Generic\Source/probe_com.c **** 
2657:..\..\..\..\..\..\uC-Probe\Target\Communication\Generic\Source/probe_com.c **** static  void  ProbeCom_StoINT08U (CPU_INT08U **pbuf, CPU_INT08U data)
2658:..\..\..\..\..\..\uC-Probe\Target\Communication\Generic\Source/probe_com.c **** {
 1423              		.loc 1 2658 0
 1424              		.cfi_startproc
 1425              		@ args = 0, pretend = 0, frame = 8
 1426              		@ frame_needed = 1, uses_anonymous_args = 0
 1427              		@ link register save eliminated.
 1428 0000 80B4     		push	{r7}
 1429              	.LCFI35:
 1430              		.cfi_def_cfa_offset 4
 1431 0002 83B0     		sub	sp, sp, #12
 1432              	.LCFI36:
 1433              		.cfi_def_cfa_offset 16
 1434 0004 00AF     		add	r7, sp, #0
 1435              		.cfi_offset 7, -4
 1436              	.LCFI37:
 1437              		.cfi_def_cfa_register 7
 1438 0006 7860     		str	r0, [r7, #4]
 1439 0008 0B46     		mov	r3, r1
 1440 000a FB70     		strb	r3, [r7, #3]
2659:..\..\..\..\..\..\uC-Probe\Target\Communication\Generic\Source/probe_com.c ****     *((*pbuf)++) = data;
 1441              		.loc 1 2659 0
ARM GAS  C:\Users\daniel01\AppData\Local\Temp\ccHLFCB6.s 			page 73


 1442 000c 7B68     		ldr	r3, [r7, #4]
 1443 000e 1B68     		ldr	r3, [r3, #0]
 1444 0010 FA78     		ldrb	r2, [r7, #3]
 1445 0012 1A70     		strb	r2, [r3, #0]
 1446 0014 03F10102 		add	r2, r3, #1
 1447 0018 7B68     		ldr	r3, [r7, #4]
 1448 001a 1A60     		str	r2, [r3, #0]
2660:..\..\..\..\..\..\uC-Probe\Target\Communication\Generic\Source/probe_com.c **** }
 1449              		.loc 1 2660 0
 1450 001c 07F10C07 		add	r7, r7, #12
 1451 0020 BD46     		mov	sp, r7
 1452 0022 80BC     		pop	{r7}
 1453 0024 7047     		bx	lr
 1454              		.cfi_endproc
 1455              	.LFE12:
 1456              		.size	ProbeCom_StoINT08U, .-ProbeCom_StoINT08U
 1457 0026 00BF     		.section	.text.ProbeCom_StoINT16U,"ax",%progbits
 1458              		.align	2
 1459              		.thumb
 1460              		.thumb_func
 1461              		.type	ProbeCom_StoINT16U, %function
 1462              	ProbeCom_StoINT16U:
 1463              	.LFB13:
2661:..\..\..\..\..\..\uC-Probe\Target\Communication\Generic\Source/probe_com.c **** 
2662:..\..\..\..\..\..\uC-Probe\Target\Communication\Generic\Source/probe_com.c **** 
2663:..\..\..\..\..\..\uC-Probe\Target\Communication\Generic\Source/probe_com.c **** static  void  ProbeCom_StoINT16U (CPU_INT08U **pbuf, CPU_INT16U data)
2664:..\..\..\..\..\..\uC-Probe\Target\Communication\Generic\Source/probe_com.c **** {
 1464              		.loc 1 2664 0
 1465              		.cfi_startproc
 1466              		@ args = 0, pretend = 0, frame = 8
 1467              		@ frame_needed = 1, uses_anonymous_args = 0
 1468 0000 80B5     		push	{r7, lr}
 1469              	.LCFI38:
 1470              		.cfi_def_cfa_offset 8
 1471 0002 82B0     		sub	sp, sp, #8
 1472              	.LCFI39:
 1473              		.cfi_def_cfa_offset 16
 1474 0004 00AF     		add	r7, sp, #0
 1475              		.cfi_offset 14, -4
 1476              		.cfi_offset 7, -8
 1477              	.LCFI40:
 1478              		.cfi_def_cfa_register 7
 1479 0006 7860     		str	r0, [r7, #4]
 1480 0008 0B46     		mov	r3, r1
 1481 000a 7B80     		strh	r3, [r7, #2]	@ movhi
2665:..\..\..\..\..\..\uC-Probe\Target\Communication\Generic\Source/probe_com.c ****     ProbeCom_StoINT08U(pbuf, (CPU_INT08U)(data & 0x00FF));
 1482              		.loc 1 2665 0
 1483 000c 7B88     		ldrh	r3, [r7, #2]	@ movhi
 1484 000e DBB2     		uxtb	r3, r3
 1485 0010 7868     		ldr	r0, [r7, #4]
 1486 0012 1946     		mov	r1, r3
 1487 0014 FFF7FEFF 		bl	ProbeCom_StoINT08U
2666:..\..\..\..\..\..\uC-Probe\Target\Communication\Generic\Source/probe_com.c ****     ProbeCom_StoINT08U(pbuf, (CPU_INT08U)(data >> 8));
 1488              		.loc 1 2666 0
 1489 0018 7B88     		ldrh	r3, [r7, #2]
 1490 001a 4FEA1323 		lsr	r3, r3, #8
 1491 001e 9BB2     		uxth	r3, r3
ARM GAS  C:\Users\daniel01\AppData\Local\Temp\ccHLFCB6.s 			page 74


 1492 0020 DBB2     		uxtb	r3, r3
 1493 0022 7868     		ldr	r0, [r7, #4]
 1494 0024 1946     		mov	r1, r3
 1495 0026 FFF7FEFF 		bl	ProbeCom_StoINT08U
2667:..\..\..\..\..\..\uC-Probe\Target\Communication\Generic\Source/probe_com.c **** }
 1496              		.loc 1 2667 0
 1497 002a 07F10807 		add	r7, r7, #8
 1498 002e BD46     		mov	sp, r7
 1499 0030 80BD     		pop	{r7, pc}
 1500              		.cfi_endproc
 1501              	.LFE13:
 1502              		.size	ProbeCom_StoINT16U, .-ProbeCom_StoINT16U
 1503 0032 00BF     		.text
 1504              	.Letext0:
 1505              		.section	.debug_loc,"",%progbits
 1506              	.Ldebug_loc0:
 1507              	.LLST0:
 1508 0000 00000000 		.4byte	.LFB0
 1509 0004 02000000 		.4byte	.LCFI0
 1510 0008 0100     		.2byte	0x1
 1511 000a 5D       		.byte	0x5d
 1512 000b 02000000 		.4byte	.LCFI0
 1513 000f 04000000 		.4byte	.LCFI1
 1514 0013 0200     		.2byte	0x2
 1515 0015 7D       		.byte	0x7d
 1516 0016 04       		.sleb128 4
 1517 0017 04000000 		.4byte	.LCFI1
 1518 001b 84000000 		.4byte	.LFE0
 1519 001f 0200     		.2byte	0x2
 1520 0021 77       		.byte	0x77
 1521 0022 04       		.sleb128 4
 1522 0023 00000000 		.4byte	0x0
 1523 0027 00000000 		.4byte	0x0
 1524              	.LLST1:
 1525 002b 00000000 		.4byte	.LFB1
 1526 002f 02000000 		.4byte	.LCFI2
 1527 0033 0100     		.2byte	0x1
 1528 0035 5D       		.byte	0x5d
 1529 0036 02000000 		.4byte	.LCFI2
 1530 003a 04000000 		.4byte	.LCFI3
 1531 003e 0200     		.2byte	0x2
 1532 0040 7D       		.byte	0x7d
 1533 0041 08       		.sleb128 8
 1534 0042 04000000 		.4byte	.LCFI3
 1535 0046 06000000 		.4byte	.LCFI4
 1536 004a 0200     		.2byte	0x2
 1537 004c 7D       		.byte	0x7d
 1538 004d 28       		.sleb128 40
 1539 004e 06000000 		.4byte	.LCFI4
 1540 0052 14010000 		.4byte	.LFE1
 1541 0056 0200     		.2byte	0x2
 1542 0058 77       		.byte	0x77
 1543 0059 28       		.sleb128 40
 1544 005a 00000000 		.4byte	0x0
 1545 005e 00000000 		.4byte	0x0
 1546              	.LLST2:
 1547 0062 00000000 		.4byte	.LFB2
ARM GAS  C:\Users\daniel01\AppData\Local\Temp\ccHLFCB6.s 			page 75


 1548 0066 02000000 		.4byte	.LCFI5
 1549 006a 0100     		.2byte	0x1
 1550 006c 5D       		.byte	0x5d
 1551 006d 02000000 		.4byte	.LCFI5
 1552 0071 04000000 		.4byte	.LCFI6
 1553 0075 0200     		.2byte	0x2
 1554 0077 7D       		.byte	0x7d
 1555 0078 04       		.sleb128 4
 1556 0079 04000000 		.4byte	.LCFI6
 1557 007d 06000000 		.4byte	.LCFI7
 1558 0081 0200     		.2byte	0x2
 1559 0083 7D       		.byte	0x7d
 1560 0084 10       		.sleb128 16
 1561 0085 06000000 		.4byte	.LCFI7
 1562 0089 1A000000 		.4byte	.LFE2
 1563 008d 0200     		.2byte	0x2
 1564 008f 77       		.byte	0x77
 1565 0090 10       		.sleb128 16
 1566 0091 00000000 		.4byte	0x0
 1567 0095 00000000 		.4byte	0x0
 1568              	.LLST3:
 1569 0099 00000000 		.4byte	.LFB3
 1570 009d 02000000 		.4byte	.LCFI8
 1571 00a1 0100     		.2byte	0x1
 1572 00a3 5D       		.byte	0x5d
 1573 00a4 02000000 		.4byte	.LCFI8
 1574 00a8 04000000 		.4byte	.LCFI9
 1575 00ac 0200     		.2byte	0x2
 1576 00ae 7D       		.byte	0x7d
 1577 00af 08       		.sleb128 8
 1578 00b0 04000000 		.4byte	.LCFI9
 1579 00b4 06000000 		.4byte	.LCFI10
 1580 00b8 0200     		.2byte	0x2
 1581 00ba 7D       		.byte	0x7d
 1582 00bb 18       		.sleb128 24
 1583 00bc 06000000 		.4byte	.LCFI10
 1584 00c0 64000000 		.4byte	.LFE3
 1585 00c4 0200     		.2byte	0x2
 1586 00c6 77       		.byte	0x77
 1587 00c7 18       		.sleb128 24
 1588 00c8 00000000 		.4byte	0x0
 1589 00cc 00000000 		.4byte	0x0
 1590              	.LLST4:
 1591 00d0 00000000 		.4byte	.LFB4
 1592 00d4 02000000 		.4byte	.LCFI11
 1593 00d8 0100     		.2byte	0x1
 1594 00da 5D       		.byte	0x5d
 1595 00db 02000000 		.4byte	.LCFI11
 1596 00df 04000000 		.4byte	.LCFI12
 1597 00e3 0200     		.2byte	0x2
 1598 00e5 7D       		.byte	0x7d
 1599 00e6 08       		.sleb128 8
 1600 00e7 04000000 		.4byte	.LCFI12
 1601 00eb 06000000 		.4byte	.LCFI13
 1602 00ef 0200     		.2byte	0x2
 1603 00f1 7D       		.byte	0x7d
 1604 00f2 28       		.sleb128 40
ARM GAS  C:\Users\daniel01\AppData\Local\Temp\ccHLFCB6.s 			page 76


 1605 00f3 06000000 		.4byte	.LCFI13
 1606 00f7 0A020000 		.4byte	.LFE4
 1607 00fb 0200     		.2byte	0x2
 1608 00fd 77       		.byte	0x77
 1609 00fe 28       		.sleb128 40
 1610 00ff 00000000 		.4byte	0x0
 1611 0103 00000000 		.4byte	0x0
 1612              	.LLST5:
 1613 0107 00000000 		.4byte	.LFB5
 1614 010b 02000000 		.4byte	.LCFI14
 1615 010f 0100     		.2byte	0x1
 1616 0111 5D       		.byte	0x5d
 1617 0112 02000000 		.4byte	.LCFI14
 1618 0116 04000000 		.4byte	.LCFI15
 1619 011a 0200     		.2byte	0x2
 1620 011c 7D       		.byte	0x7d
 1621 011d 08       		.sleb128 8
 1622 011e 04000000 		.4byte	.LCFI15
 1623 0122 06000000 		.4byte	.LCFI16
 1624 0126 0200     		.2byte	0x2
 1625 0128 7D       		.byte	0x7d
 1626 0129 28       		.sleb128 40
 1627 012a 06000000 		.4byte	.LCFI16
 1628 012e E4000000 		.4byte	.LFE5
 1629 0132 0200     		.2byte	0x2
 1630 0134 77       		.byte	0x77
 1631 0135 28       		.sleb128 40
 1632 0136 00000000 		.4byte	0x0
 1633 013a 00000000 		.4byte	0x0
 1634              	.LLST6:
 1635 013e 00000000 		.4byte	.LFB6
 1636 0142 02000000 		.4byte	.LCFI17
 1637 0146 0100     		.2byte	0x1
 1638 0148 5D       		.byte	0x5d
 1639 0149 02000000 		.4byte	.LCFI17
 1640 014d 04000000 		.4byte	.LCFI18
 1641 0151 0200     		.2byte	0x2
 1642 0153 7D       		.byte	0x7d
 1643 0154 0C       		.sleb128 12
 1644 0155 04000000 		.4byte	.LCFI18
 1645 0159 06000000 		.4byte	.LCFI19
 1646 015d 0300     		.2byte	0x3
 1647 015f 7D       		.byte	0x7d
 1648 0160 C000     		.sleb128 64
 1649 0162 06000000 		.4byte	.LCFI19
 1650 0166 5A010000 		.4byte	.LFE6
 1651 016a 0300     		.2byte	0x3
 1652 016c 77       		.byte	0x77
 1653 016d C000     		.sleb128 64
 1654 016f 00000000 		.4byte	0x0
 1655 0173 00000000 		.4byte	0x0
 1656              	.LLST7:
 1657 0177 00000000 		.4byte	.LFB7
 1658 017b 02000000 		.4byte	.LCFI20
 1659 017f 0100     		.2byte	0x1
 1660 0181 5D       		.byte	0x5d
 1661 0182 02000000 		.4byte	.LCFI20
ARM GAS  C:\Users\daniel01\AppData\Local\Temp\ccHLFCB6.s 			page 77


 1662 0186 04000000 		.4byte	.LCFI21
 1663 018a 0200     		.2byte	0x2
 1664 018c 7D       		.byte	0x7d
 1665 018d 08       		.sleb128 8
 1666 018e 04000000 		.4byte	.LCFI21
 1667 0192 06000000 		.4byte	.LCFI22
 1668 0196 0200     		.2byte	0x2
 1669 0198 7D       		.byte	0x7d
 1670 0199 28       		.sleb128 40
 1671 019a 06000000 		.4byte	.LCFI22
 1672 019e F6000000 		.4byte	.LFE7
 1673 01a2 0200     		.2byte	0x2
 1674 01a4 77       		.byte	0x77
 1675 01a5 28       		.sleb128 40
 1676 01a6 00000000 		.4byte	0x0
 1677 01aa 00000000 		.4byte	0x0
 1678              	.LLST8:
 1679 01ae 00000000 		.4byte	.LFB8
 1680 01b2 02000000 		.4byte	.LCFI23
 1681 01b6 0100     		.2byte	0x1
 1682 01b8 5D       		.byte	0x5d
 1683 01b9 02000000 		.4byte	.LCFI23
 1684 01bd 04000000 		.4byte	.LCFI24
 1685 01c1 0200     		.2byte	0x2
 1686 01c3 7D       		.byte	0x7d
 1687 01c4 08       		.sleb128 8
 1688 01c5 04000000 		.4byte	.LCFI24
 1689 01c9 06000000 		.4byte	.LCFI25
 1690 01cd 0200     		.2byte	0x2
 1691 01cf 7D       		.byte	0x7d
 1692 01d0 38       		.sleb128 56
 1693 01d1 06000000 		.4byte	.LCFI25
 1694 01d5 62010000 		.4byte	.LFE8
 1695 01d9 0200     		.2byte	0x2
 1696 01db 77       		.byte	0x77
 1697 01dc 38       		.sleb128 56
 1698 01dd 00000000 		.4byte	0x0
 1699 01e1 00000000 		.4byte	0x0
 1700              	.LLST9:
 1701 01e5 00000000 		.4byte	.LFB9
 1702 01e9 02000000 		.4byte	.LCFI26
 1703 01ed 0100     		.2byte	0x1
 1704 01ef 5D       		.byte	0x5d
 1705 01f0 02000000 		.4byte	.LCFI26
 1706 01f4 04000000 		.4byte	.LCFI27
 1707 01f8 0200     		.2byte	0x2
 1708 01fa 7D       		.byte	0x7d
 1709 01fb 04       		.sleb128 4
 1710 01fc 04000000 		.4byte	.LCFI27
 1711 0200 06000000 		.4byte	.LCFI28
 1712 0204 0200     		.2byte	0x2
 1713 0206 7D       		.byte	0x7d
 1714 0207 10       		.sleb128 16
 1715 0208 06000000 		.4byte	.LCFI28
 1716 020c 24000000 		.4byte	.LFE9
 1717 0210 0200     		.2byte	0x2
 1718 0212 77       		.byte	0x77
ARM GAS  C:\Users\daniel01\AppData\Local\Temp\ccHLFCB6.s 			page 78


 1719 0213 10       		.sleb128 16
 1720 0214 00000000 		.4byte	0x0
 1721 0218 00000000 		.4byte	0x0
 1722              	.LLST10:
 1723 021c 00000000 		.4byte	.LFB10
 1724 0220 02000000 		.4byte	.LCFI29
 1725 0224 0100     		.2byte	0x1
 1726 0226 5D       		.byte	0x5d
 1727 0227 02000000 		.4byte	.LCFI29
 1728 022b 04000000 		.4byte	.LCFI30
 1729 022f 0200     		.2byte	0x2
 1730 0231 7D       		.byte	0x7d
 1731 0232 08       		.sleb128 8
 1732 0233 04000000 		.4byte	.LCFI30
 1733 0237 06000000 		.4byte	.LCFI31
 1734 023b 0200     		.2byte	0x2
 1735 023d 7D       		.byte	0x7d
 1736 023e 18       		.sleb128 24
 1737 023f 06000000 		.4byte	.LCFI31
 1738 0243 36000000 		.4byte	.LFE10
 1739 0247 0200     		.2byte	0x2
 1740 0249 77       		.byte	0x77
 1741 024a 18       		.sleb128 24
 1742 024b 00000000 		.4byte	0x0
 1743 024f 00000000 		.4byte	0x0
 1744              	.LLST11:
 1745 0253 00000000 		.4byte	.LFB11
 1746 0257 02000000 		.4byte	.LCFI32
 1747 025b 0100     		.2byte	0x1
 1748 025d 5D       		.byte	0x5d
 1749 025e 02000000 		.4byte	.LCFI32
 1750 0262 04000000 		.4byte	.LCFI33
 1751 0266 0200     		.2byte	0x2
 1752 0268 7D       		.byte	0x7d
 1753 0269 08       		.sleb128 8
 1754 026a 04000000 		.4byte	.LCFI33
 1755 026e 06000000 		.4byte	.LCFI34
 1756 0272 0200     		.2byte	0x2
 1757 0274 7D       		.byte	0x7d
 1758 0275 18       		.sleb128 24
 1759 0276 06000000 		.4byte	.LCFI34
 1760 027a 32000000 		.4byte	.LFE11
 1761 027e 0200     		.2byte	0x2
 1762 0280 77       		.byte	0x77
 1763 0281 18       		.sleb128 24
 1764 0282 00000000 		.4byte	0x0
 1765 0286 00000000 		.4byte	0x0
 1766              	.LLST12:
 1767 028a 00000000 		.4byte	.LFB12
 1768 028e 02000000 		.4byte	.LCFI35
 1769 0292 0100     		.2byte	0x1
 1770 0294 5D       		.byte	0x5d
 1771 0295 02000000 		.4byte	.LCFI35
 1772 0299 04000000 		.4byte	.LCFI36
 1773 029d 0200     		.2byte	0x2
 1774 029f 7D       		.byte	0x7d
 1775 02a0 04       		.sleb128 4
ARM GAS  C:\Users\daniel01\AppData\Local\Temp\ccHLFCB6.s 			page 79


 1776 02a1 04000000 		.4byte	.LCFI36
 1777 02a5 06000000 		.4byte	.LCFI37
 1778 02a9 0200     		.2byte	0x2
 1779 02ab 7D       		.byte	0x7d
 1780 02ac 10       		.sleb128 16
 1781 02ad 06000000 		.4byte	.LCFI37
 1782 02b1 26000000 		.4byte	.LFE12
 1783 02b5 0200     		.2byte	0x2
 1784 02b7 77       		.byte	0x77
 1785 02b8 10       		.sleb128 16
 1786 02b9 00000000 		.4byte	0x0
 1787 02bd 00000000 		.4byte	0x0
 1788              	.LLST13:
 1789 02c1 00000000 		.4byte	.LFB13
 1790 02c5 02000000 		.4byte	.LCFI38
 1791 02c9 0100     		.2byte	0x1
 1792 02cb 5D       		.byte	0x5d
 1793 02cc 02000000 		.4byte	.LCFI38
 1794 02d0 04000000 		.4byte	.LCFI39
 1795 02d4 0200     		.2byte	0x2
 1796 02d6 7D       		.byte	0x7d
 1797 02d7 08       		.sleb128 8
 1798 02d8 04000000 		.4byte	.LCFI39
 1799 02dc 06000000 		.4byte	.LCFI40
 1800 02e0 0200     		.2byte	0x2
 1801 02e2 7D       		.byte	0x7d
 1802 02e3 10       		.sleb128 16
 1803 02e4 06000000 		.4byte	.LCFI40
 1804 02e8 32000000 		.4byte	.LFE13
 1805 02ec 0200     		.2byte	0x2
 1806 02ee 77       		.byte	0x77
 1807 02ef 10       		.sleb128 16
 1808 02f0 00000000 		.4byte	0x0
 1809 02f4 00000000 		.4byte	0x0
 1810              		.file 2 "..\\..\\..\\..\\..\\..\\uC-CPU\\ARM-Cortex-M3\\GNU/cpu.h"
 1811              		.file 3 "..\\..\\..\\..\\..\\..\\uC-Probe\\Target\\Communication\\Generic\\Source/probe_com.h"
 1812              		.section	.debug_info
 1813 0000 F3060000 		.4byte	0x6f3
 1814 0004 0200     		.2byte	0x2
 1815 0006 00000000 		.4byte	.Ldebug_abbrev0
 1816 000a 04       		.byte	0x4
 1817 000b 01       		.uleb128 0x1
 1818 000c 0E040000 		.4byte	.LASF65
 1819 0010 01       		.byte	0x1
 1820 0011 1B000000 		.4byte	.LASF66
 1821 0015 BB020000 		.4byte	.LASF67
 1822 0019 00000000 		.4byte	0x0
 1823 001d 00000000 		.4byte	0x0
 1824 0021 00000000 		.4byte	.Ldebug_ranges0+0x0
 1825 0025 00000000 		.4byte	.Ldebug_line0
 1826 0029 02       		.uleb128 0x2
 1827 002a 01       		.byte	0x1
 1828 002b 08       		.byte	0x8
 1829 002c A4020000 		.4byte	.LASF0
 1830 0030 03       		.uleb128 0x3
 1831 0031 74010000 		.4byte	.LASF2
 1832 0035 02       		.byte	0x2
ARM GAS  C:\Users\daniel01\AppData\Local\Temp\ccHLFCB6.s 			page 80


 1833 0036 77       		.byte	0x77
 1834 0037 3B000000 		.4byte	0x3b
 1835 003b 02       		.uleb128 0x2
 1836 003c 01       		.byte	0x1
 1837 003d 08       		.byte	0x8
 1838 003e E8010000 		.4byte	.LASF1
 1839 0042 03       		.uleb128 0x3
 1840 0043 90020000 		.4byte	.LASF3
 1841 0047 02       		.byte	0x2
 1842 0048 78       		.byte	0x78
 1843 0049 3B000000 		.4byte	0x3b
 1844 004d 02       		.uleb128 0x2
 1845 004e 01       		.byte	0x1
 1846 004f 06       		.byte	0x6
 1847 0050 12020000 		.4byte	.LASF4
 1848 0054 03       		.uleb128 0x3
 1849 0055 31040000 		.4byte	.LASF5
 1850 0059 02       		.byte	0x2
 1851 005a 7A       		.byte	0x7a
 1852 005b 5F000000 		.4byte	0x5f
 1853 005f 02       		.uleb128 0x2
 1854 0060 02       		.byte	0x2
 1855 0061 07       		.byte	0x7
 1856 0062 76020000 		.4byte	.LASF6
 1857 0066 02       		.uleb128 0x2
 1858 0067 02       		.byte	0x2
 1859 0068 05       		.byte	0x5
 1860 0069 70000000 		.4byte	.LASF7
 1861 006d 03       		.uleb128 0x3
 1862 006e 58030000 		.4byte	.LASF8
 1863 0072 02       		.byte	0x2
 1864 0073 7C       		.byte	0x7c
 1865 0074 78000000 		.4byte	0x78
 1866 0078 02       		.uleb128 0x2
 1867 0079 04       		.byte	0x4
 1868 007a 07       		.byte	0x7
 1869 007b 40020000 		.4byte	.LASF9
 1870 007f 04       		.uleb128 0x4
 1871 0080 04       		.byte	0x4
 1872 0081 05       		.byte	0x5
 1873 0082 696E7400 		.ascii	"int\000"
 1874 0086 02       		.uleb128 0x2
 1875 0087 08       		.byte	0x8
 1876 0088 07       		.byte	0x7
 1877 0089 29020000 		.4byte	.LASF10
 1878 008d 02       		.uleb128 0x2
 1879 008e 08       		.byte	0x8
 1880 008f 05       		.byte	0x5
 1881 0090 54010000 		.4byte	.LASF11
 1882 0094 02       		.uleb128 0x2
 1883 0095 04       		.byte	0x4
 1884 0096 04       		.byte	0x4
 1885 0097 31010000 		.4byte	.LASF12
 1886 009b 02       		.uleb128 0x2
 1887 009c 08       		.byte	0x8
 1888 009d 04       		.byte	0x4
 1889 009e BF030000 		.4byte	.LASF13
ARM GAS  C:\Users\daniel01\AppData\Local\Temp\ccHLFCB6.s 			page 81


 1890 00a2 05       		.uleb128 0x5
 1891 00a3 04       		.byte	0x4
 1892 00a4 03       		.uleb128 0x3
 1893 00a5 15010000 		.4byte	.LASF14
 1894 00a9 02       		.byte	0x2
 1895 00aa B5       		.byte	0xb5
 1896 00ab 6D000000 		.4byte	0x6d
 1897 00af 03       		.uleb128 0x3
 1898 00b0 D8030000 		.4byte	.LASF15
 1899 00b4 02       		.byte	0x2
 1900 00b5 C7       		.byte	0xc7
 1901 00b6 A4000000 		.4byte	0xa4
 1902 00ba 06       		.uleb128 0x6
 1903 00bb 23040000 		.4byte	.LASF16
 1904 00bf 02       		.byte	0x2
 1905 00c0 2901     		.2byte	0x129
 1906 00c2 6D000000 		.4byte	0x6d
 1907 00c6 07       		.uleb128 0x7
 1908 00c7 04       		.byte	0x4
 1909 00c8 42000000 		.4byte	0x42
 1910 00cc 08       		.uleb128 0x8
 1911 00cd 01       		.byte	0x1
 1912 00ce 92000000 		.4byte	.LASF68
 1913 00d2 01       		.byte	0x1
 1914 00d3 6001     		.2byte	0x160
 1915 00d5 01       		.byte	0x1
 1916 00d6 30000000 		.4byte	0x30
 1917 00da 00000000 		.4byte	.LFB0
 1918 00de 84000000 		.4byte	.LFE0
 1919 00e2 00000000 		.4byte	.LLST0
 1920 00e6 09       		.uleb128 0x9
 1921 00e7 01       		.byte	0x1
 1922 00e8 EB030000 		.4byte	.LASF69
 1923 00ec 01       		.byte	0x1
 1924 00ed CB02     		.2byte	0x2cb
 1925 00ef 01       		.byte	0x1
 1926 00f0 AF000000 		.4byte	0xaf
 1927 00f4 00000000 		.4byte	.LFB1
 1928 00f8 14010000 		.4byte	.LFE1
 1929 00fc 2B000000 		.4byte	.LLST1
 1930 0100 7D010000 		.4byte	0x17d
 1931 0104 0A       		.uleb128 0xa
 1932 0105 06010000 		.4byte	.LASF17
 1933 0109 01       		.byte	0x1
 1934 010a CB02     		.2byte	0x2cb
 1935 010c A2000000 		.4byte	0xa2
 1936 0110 02       		.byte	0x2
 1937 0111 91       		.byte	0x91
 1938 0112 64       		.sleb128 -28
 1939 0113 0A       		.uleb128 0xa
 1940 0114 F1000000 		.4byte	.LASF18
 1941 0118 01       		.byte	0x1
 1942 0119 CC02     		.2byte	0x2cc
 1943 011b A2000000 		.4byte	0xa2
 1944 011f 02       		.byte	0x2
 1945 0120 91       		.byte	0x91
 1946 0121 60       		.sleb128 -32
ARM GAS  C:\Users\daniel01\AppData\Local\Temp\ccHLFCB6.s 			page 82


 1947 0122 0A       		.uleb128 0xa
 1948 0123 BD010000 		.4byte	.LASF19
 1949 0127 01       		.byte	0x1
 1950 0128 CD02     		.2byte	0x2cd
 1951 012a AF000000 		.4byte	0xaf
 1952 012e 02       		.byte	0x2
 1953 012f 91       		.byte	0x91
 1954 0130 5C       		.sleb128 -36
 1955 0131 0A       		.uleb128 0xa
 1956 0132 C9010000 		.4byte	.LASF20
 1957 0136 01       		.byte	0x1
 1958 0137 CE02     		.2byte	0x2ce
 1959 0139 AF000000 		.4byte	0xaf
 1960 013d 02       		.byte	0x2
 1961 013e 91       		.byte	0x91
 1962 013f 58       		.sleb128 -40
 1963 0140 0B       		.uleb128 0xb
 1964 0141 66000000 		.4byte	.LASF21
 1965 0145 01       		.byte	0x1
 1966 0146 D002     		.2byte	0x2d0
 1967 0148 AF000000 		.4byte	0xaf
 1968 014c 02       		.byte	0x2
 1969 014d 91       		.byte	0x91
 1970 014e 68       		.sleb128 -24
 1971 014f 0B       		.uleb128 0xb
 1972 0150 2A040000 		.4byte	.LASF22
 1973 0154 01       		.byte	0x1
 1974 0155 D102     		.2byte	0x2d1
 1975 0157 54000000 		.4byte	0x54
 1976 015b 02       		.byte	0x2
 1977 015c 91       		.byte	0x91
 1978 015d 6E       		.sleb128 -18
 1979 015e 0B       		.uleb128 0xb
 1980 015f D5010000 		.4byte	.LASF23
 1981 0163 01       		.byte	0x1
 1982 0164 D202     		.2byte	0x2d2
 1983 0166 C6000000 		.4byte	0xc6
 1984 016a 02       		.byte	0x2
 1985 016b 91       		.byte	0x91
 1986 016c 70       		.sleb128 -16
 1987 016d 0B       		.uleb128 0xb
 1988 016e 1E020000 		.4byte	.LASF24
 1989 0172 01       		.byte	0x1
 1990 0173 D302     		.2byte	0x2d3
 1991 0175 C6000000 		.4byte	0xc6
 1992 0179 02       		.byte	0x2
 1993 017a 91       		.byte	0x91
 1994 017b 74       		.sleb128 -12
 1995 017c 00       		.byte	0x0
 1996 017d 0C       		.uleb128 0xc
 1997 017e A8010000 		.4byte	.LASF25
 1998 0182 01       		.byte	0x1
 1999 0183 A003     		.2byte	0x3a0
 2000 0185 01       		.byte	0x1
 2001 0186 42000000 		.4byte	0x42
 2002 018a 00000000 		.4byte	.LFB2
 2003 018e 1A000000 		.4byte	.LFE2
ARM GAS  C:\Users\daniel01\AppData\Local\Temp\ccHLFCB6.s 			page 83


 2004 0192 62000000 		.4byte	.LLST2
 2005 0196 AA010000 		.4byte	0x1aa
 2006 019a 0D       		.uleb128 0xd
 2007 019b 6D6F6400 		.ascii	"mod\000"
 2008 019f 01       		.byte	0x1
 2009 01a0 A903     		.2byte	0x3a9
 2010 01a2 42000000 		.4byte	0x42
 2011 01a6 02       		.byte	0x2
 2012 01a7 91       		.byte	0x91
 2013 01a8 77       		.sleb128 -9
 2014 01a9 00       		.byte	0x0
 2015 01aa 0C       		.uleb128 0xc
 2016 01ab E1000000 		.4byte	.LASF26
 2017 01af 01       		.byte	0x1
 2018 01b0 E003     		.2byte	0x3e0
 2019 01b2 01       		.byte	0x1
 2020 01b3 AF000000 		.4byte	0xaf
 2021 01b7 00000000 		.4byte	.LFB3
 2022 01bb 64000000 		.4byte	.LFE3
 2023 01bf 99000000 		.4byte	.LLST3
 2024 01c3 F5010000 		.4byte	0x1f5
 2025 01c7 0A       		.uleb128 0xa
 2026 01c8 E0010000 		.4byte	.LASF27
 2027 01cc 01       		.byte	0x1
 2028 01cd E003     		.2byte	0x3e0
 2029 01cf C6000000 		.4byte	0xc6
 2030 01d3 02       		.byte	0x2
 2031 01d4 91       		.byte	0x91
 2032 01d5 6C       		.sleb128 -20
 2033 01d6 0A       		.uleb128 0xa
 2034 01d7 8B030000 		.4byte	.LASF28
 2035 01db 01       		.byte	0x1
 2036 01dc E103     		.2byte	0x3e1
 2037 01de 42000000 		.4byte	0x42
 2038 01e2 02       		.byte	0x2
 2039 01e3 91       		.byte	0x91
 2040 01e4 6B       		.sleb128 -21
 2041 01e5 0B       		.uleb128 0xb
 2042 01e6 0E010000 		.4byte	.LASF29
 2043 01ea 01       		.byte	0x1
 2044 01eb E303     		.2byte	0x3e3
 2045 01ed AF000000 		.4byte	0xaf
 2046 01f1 02       		.byte	0x2
 2047 01f2 91       		.byte	0x91
 2048 01f3 74       		.sleb128 -12
 2049 01f4 00       		.byte	0x0
 2050 01f5 0C       		.uleb128 0xc
 2051 01f6 C6030000 		.4byte	.LASF30
 2052 01fa 01       		.byte	0x1
 2053 01fb 2204     		.2byte	0x422
 2054 01fd 01       		.byte	0x1
 2055 01fe AF000000 		.4byte	0xaf
 2056 0202 00000000 		.4byte	.LFB4
 2057 0206 0A020000 		.4byte	.LFE4
 2058 020a D0000000 		.4byte	.LLST4
 2059 020e 8B020000 		.4byte	0x28b
 2060 0212 0A       		.uleb128 0xa
ARM GAS  C:\Users\daniel01\AppData\Local\Temp\ccHLFCB6.s 			page 84


 2061 0213 0A020000 		.4byte	.LASF31
 2062 0217 01       		.byte	0x1
 2063 0218 2204     		.2byte	0x422
 2064 021a C6000000 		.4byte	0xc6
 2065 021e 02       		.byte	0x2
 2066 021f 91       		.byte	0x91
 2067 0220 64       		.sleb128 -28
 2068 0221 0A       		.uleb128 0xa
 2069 0222 E0010000 		.4byte	.LASF27
 2070 0226 01       		.byte	0x1
 2071 0227 2304     		.2byte	0x423
 2072 0229 C6000000 		.4byte	0xc6
 2073 022d 02       		.byte	0x2
 2074 022e 91       		.byte	0x91
 2075 022f 60       		.sleb128 -32
 2076 0230 0A       		.uleb128 0xa
 2077 0231 BD010000 		.4byte	.LASF19
 2078 0235 01       		.byte	0x1
 2079 0236 2404     		.2byte	0x424
 2080 0238 AF000000 		.4byte	0xaf
 2081 023c 02       		.byte	0x2
 2082 023d 91       		.byte	0x91
 2083 023e 5C       		.sleb128 -36
 2084 023f 0A       		.uleb128 0xa
 2085 0240 C9010000 		.4byte	.LASF20
 2086 0244 01       		.byte	0x1
 2087 0245 2504     		.2byte	0x425
 2088 0247 AF000000 		.4byte	0xaf
 2089 024b 02       		.byte	0x2
 2090 024c 91       		.byte	0x91
 2091 024d 58       		.sleb128 -40
 2092 024e 0B       		.uleb128 0xb
 2093 024f 94030000 		.4byte	.LASF32
 2094 0253 01       		.byte	0x1
 2095 0254 2704     		.2byte	0x427
 2096 0256 54000000 		.4byte	0x54
 2097 025a 02       		.byte	0x2
 2098 025b 91       		.byte	0x91
 2099 025c 72       		.sleb128 -14
 2100 025d 0B       		.uleb128 0xb
 2101 025e 89020000 		.4byte	.LASF33
 2102 0262 01       		.byte	0x1
 2103 0263 2804     		.2byte	0x428
 2104 0265 6D000000 		.4byte	0x6d
 2105 0269 02       		.byte	0x2
 2106 026a 91       		.byte	0x91
 2107 026b 6C       		.sleb128 -20
 2108 026c 0B       		.uleb128 0xb
 2109 026d 0E010000 		.4byte	.LASF29
 2110 0271 01       		.byte	0x1
 2111 0272 2904     		.2byte	0x429
 2112 0274 AF000000 		.4byte	0xaf
 2113 0278 02       		.byte	0x2
 2114 0279 91       		.byte	0x91
 2115 027a 74       		.sleb128 -12
 2116 027b 0B       		.uleb128 0xb
 2117 027c 13000000 		.4byte	.LASF34
ARM GAS  C:\Users\daniel01\AppData\Local\Temp\ccHLFCB6.s 			page 85


 2118 0280 01       		.byte	0x1
 2119 0281 2A04     		.2byte	0x42a
 2120 0283 6D000000 		.4byte	0x6d
 2121 0287 02       		.byte	0x2
 2122 0288 91       		.byte	0x91
 2123 0289 68       		.sleb128 -24
 2124 028a 00       		.byte	0x0
 2125 028b 0C       		.uleb128 0xc
 2126 028c 63030000 		.4byte	.LASF35
 2127 0290 01       		.byte	0x1
 2128 0291 CF04     		.2byte	0x4cf
 2129 0293 01       		.byte	0x1
 2130 0294 AF000000 		.4byte	0xaf
 2131 0298 00000000 		.4byte	.LFB5
 2132 029c E4000000 		.4byte	.LFE5
 2133 02a0 07010000 		.4byte	.LLST5
 2134 02a4 12030000 		.4byte	0x312
 2135 02a8 0A       		.uleb128 0xa
 2136 02a9 0A020000 		.4byte	.LASF31
 2137 02ad 01       		.byte	0x1
 2138 02ae CF04     		.2byte	0x4cf
 2139 02b0 C6000000 		.4byte	0xc6
 2140 02b4 02       		.byte	0x2
 2141 02b5 91       		.byte	0x91
 2142 02b6 64       		.sleb128 -28
 2143 02b7 0A       		.uleb128 0xa
 2144 02b8 E0010000 		.4byte	.LASF27
 2145 02bc 01       		.byte	0x1
 2146 02bd D004     		.2byte	0x4d0
 2147 02bf C6000000 		.4byte	0xc6
 2148 02c3 02       		.byte	0x2
 2149 02c4 91       		.byte	0x91
 2150 02c5 60       		.sleb128 -32
 2151 02c6 0A       		.uleb128 0xa
 2152 02c7 BD010000 		.4byte	.LASF19
 2153 02cb 01       		.byte	0x1
 2154 02cc D104     		.2byte	0x4d1
 2155 02ce AF000000 		.4byte	0xaf
 2156 02d2 02       		.byte	0x2
 2157 02d3 91       		.byte	0x91
 2158 02d4 5C       		.sleb128 -36
 2159 02d5 0A       		.uleb128 0xa
 2160 02d6 C9010000 		.4byte	.LASF20
 2161 02da 01       		.byte	0x1
 2162 02db D204     		.2byte	0x4d2
 2163 02dd AF000000 		.4byte	0xaf
 2164 02e1 02       		.byte	0x2
 2165 02e2 91       		.byte	0x91
 2166 02e3 58       		.sleb128 -40
 2167 02e4 0B       		.uleb128 0xb
 2168 02e5 7A000000 		.4byte	.LASF36
 2169 02e9 01       		.byte	0x1
 2170 02ea D404     		.2byte	0x4d4
 2171 02ec A4000000 		.4byte	0xa4
 2172 02f0 02       		.byte	0x2
 2173 02f1 91       		.byte	0x91
 2174 02f2 6C       		.sleb128 -20
ARM GAS  C:\Users\daniel01\AppData\Local\Temp\ccHLFCB6.s 			page 86


 2175 02f3 0B       		.uleb128 0xb
 2176 02f4 9B020000 		.4byte	.LASF37
 2177 02f8 01       		.byte	0x1
 2178 02f9 D504     		.2byte	0x4d5
 2179 02fb AF000000 		.4byte	0xaf
 2180 02ff 02       		.byte	0x2
 2181 0300 91       		.byte	0x91
 2182 0301 70       		.sleb128 -16
 2183 0302 0B       		.uleb128 0xb
 2184 0303 0E010000 		.4byte	.LASF29
 2185 0307 01       		.byte	0x1
 2186 0308 D604     		.2byte	0x4d6
 2187 030a AF000000 		.4byte	0xaf
 2188 030e 02       		.byte	0x2
 2189 030f 91       		.byte	0x91
 2190 0310 74       		.sleb128 -12
 2191 0311 00       		.byte	0x0
 2192 0312 0C       		.uleb128 0xc
 2193 0313 72030000 		.4byte	.LASF38
 2194 0317 01       		.byte	0x1
 2195 0318 5805     		.2byte	0x558
 2196 031a 01       		.byte	0x1
 2197 031b AF000000 		.4byte	0xaf
 2198 031f 00000000 		.4byte	.LFB6
 2199 0323 5A010000 		.4byte	.LFE6
 2200 0327 3E010000 		.4byte	.LLST6
 2201 032b D5030000 		.4byte	0x3d5
 2202 032f 0A       		.uleb128 0xa
 2203 0330 0A020000 		.4byte	.LASF31
 2204 0334 01       		.byte	0x1
 2205 0335 5805     		.2byte	0x558
 2206 0337 C6000000 		.4byte	0xc6
 2207 033b 02       		.byte	0x2
 2208 033c 91       		.byte	0x91
 2209 033d 4C       		.sleb128 -52
 2210 033e 0A       		.uleb128 0xa
 2211 033f E0010000 		.4byte	.LASF27
 2212 0343 01       		.byte	0x1
 2213 0344 5905     		.2byte	0x559
 2214 0346 C6000000 		.4byte	0xc6
 2215 034a 02       		.byte	0x2
 2216 034b 91       		.byte	0x91
 2217 034c 48       		.sleb128 -56
 2218 034d 0A       		.uleb128 0xa
 2219 034e BD010000 		.4byte	.LASF19
 2220 0352 01       		.byte	0x1
 2221 0353 5A05     		.2byte	0x55a
 2222 0355 AF000000 		.4byte	0xaf
 2223 0359 02       		.byte	0x2
 2224 035a 91       		.byte	0x91
 2225 035b 44       		.sleb128 -60
 2226 035c 0A       		.uleb128 0xa
 2227 035d C9010000 		.4byte	.LASF20
 2228 0361 01       		.byte	0x1
 2229 0362 5B05     		.2byte	0x55b
 2230 0364 AF000000 		.4byte	0xaf
 2231 0368 02       		.byte	0x2
ARM GAS  C:\Users\daniel01\AppData\Local\Temp\ccHLFCB6.s 			page 87


 2232 0369 91       		.byte	0x91
 2233 036a 40       		.sleb128 -64
 2234 036b 0B       		.uleb128 0xb
 2235 036c 4A010000 		.4byte	.LASF39
 2236 0370 01       		.byte	0x1
 2237 0371 5D05     		.2byte	0x55d
 2238 0373 AF000000 		.4byte	0xaf
 2239 0377 02       		.byte	0x2
 2240 0378 91       		.byte	0x91
 2241 0379 54       		.sleb128 -44
 2242 037a 0B       		.uleb128 0xb
 2243 037b F9000000 		.4byte	.LASF40
 2244 037f 01       		.byte	0x1
 2245 0380 5F05     		.2byte	0x55f
 2246 0382 6D000000 		.4byte	0x6d
 2247 0386 02       		.byte	0x2
 2248 0387 91       		.byte	0x91
 2249 0388 58       		.sleb128 -40
 2250 0389 0B       		.uleb128 0xb
 2251 038a 8E010000 		.4byte	.LASF41
 2252 038e 01       		.byte	0x1
 2253 038f 6005     		.2byte	0x560
 2254 0391 6D000000 		.4byte	0x6d
 2255 0395 02       		.byte	0x2
 2256 0396 91       		.byte	0x91
 2257 0397 5C       		.sleb128 -36
 2258 0398 0B       		.uleb128 0xb
 2259 0399 7A000000 		.4byte	.LASF36
 2260 039d 01       		.byte	0x1
 2261 039e 6205     		.2byte	0x562
 2262 03a0 A4000000 		.4byte	0xa4
 2263 03a4 02       		.byte	0x2
 2264 03a5 91       		.byte	0x91
 2265 03a6 60       		.sleb128 -32
 2266 03a7 0B       		.uleb128 0xb
 2267 03a8 9B020000 		.4byte	.LASF37
 2268 03ac 01       		.byte	0x1
 2269 03ad 6305     		.2byte	0x563
 2270 03af AF000000 		.4byte	0xaf
 2271 03b3 02       		.byte	0x2
 2272 03b4 91       		.byte	0x91
 2273 03b5 64       		.sleb128 -28
 2274 03b6 0B       		.uleb128 0xb
 2275 03b7 0E010000 		.4byte	.LASF29
 2276 03bb 01       		.byte	0x1
 2277 03bc 6405     		.2byte	0x564
 2278 03be AF000000 		.4byte	0xaf
 2279 03c2 02       		.byte	0x2
 2280 03c3 91       		.byte	0x91
 2281 03c4 68       		.sleb128 -24
 2282 03c5 0B       		.uleb128 0xb
 2283 03c6 80010000 		.4byte	.LASF42
 2284 03ca 01       		.byte	0x1
 2285 03cb 6505     		.2byte	0x565
 2286 03cd C6000000 		.4byte	0xc6
 2287 03d1 02       		.byte	0x2
 2288 03d2 91       		.byte	0x91
ARM GAS  C:\Users\daniel01\AppData\Local\Temp\ccHLFCB6.s 			page 88


 2289 03d3 6C       		.sleb128 -20
 2290 03d4 00       		.byte	0x0
 2291 03d5 0C       		.uleb128 0xc
 2292 03d6 83000000 		.4byte	.LASF43
 2293 03da 01       		.byte	0x1
 2294 03db E605     		.2byte	0x5e6
 2295 03dd 01       		.byte	0x1
 2296 03de AF000000 		.4byte	0xaf
 2297 03e2 00000000 		.4byte	.LFB7
 2298 03e6 F6000000 		.4byte	.LFE7
 2299 03ea 77010000 		.4byte	.LLST7
 2300 03ee 6B040000 		.4byte	0x46b
 2301 03f2 0A       		.uleb128 0xa
 2302 03f3 0A020000 		.4byte	.LASF31
 2303 03f7 01       		.byte	0x1
 2304 03f8 E605     		.2byte	0x5e6
 2305 03fa C6000000 		.4byte	0xc6
 2306 03fe 02       		.byte	0x2
 2307 03ff 91       		.byte	0x91
 2308 0400 64       		.sleb128 -28
 2309 0401 0A       		.uleb128 0xa
 2310 0402 E0010000 		.4byte	.LASF27
 2311 0406 01       		.byte	0x1
 2312 0407 E705     		.2byte	0x5e7
 2313 0409 C6000000 		.4byte	0xc6
 2314 040d 02       		.byte	0x2
 2315 040e 91       		.byte	0x91
 2316 040f 60       		.sleb128 -32
 2317 0410 0A       		.uleb128 0xa
 2318 0411 BD010000 		.4byte	.LASF19
 2319 0415 01       		.byte	0x1
 2320 0416 E805     		.2byte	0x5e8
 2321 0418 AF000000 		.4byte	0xaf
 2322 041c 02       		.byte	0x2
 2323 041d 91       		.byte	0x91
 2324 041e 5C       		.sleb128 -36
 2325 041f 0A       		.uleb128 0xa
 2326 0420 C9010000 		.4byte	.LASF20
 2327 0424 01       		.byte	0x1
 2328 0425 E905     		.2byte	0x5e9
 2329 0427 AF000000 		.4byte	0xaf
 2330 042b 02       		.byte	0x2
 2331 042c 91       		.byte	0x91
 2332 042d 58       		.sleb128 -40
 2333 042e 0B       		.uleb128 0xb
 2334 042f 9B020000 		.4byte	.LASF37
 2335 0433 01       		.byte	0x1
 2336 0434 EB05     		.2byte	0x5eb
 2337 0436 AF000000 		.4byte	0xaf
 2338 043a 02       		.byte	0x2
 2339 043b 91       		.byte	0x91
 2340 043c 68       		.sleb128 -24
 2341 043d 0B       		.uleb128 0xb
 2342 043e 7A000000 		.4byte	.LASF36
 2343 0442 01       		.byte	0x1
 2344 0443 EC05     		.2byte	0x5ec
 2345 0445 A4000000 		.4byte	0xa4
ARM GAS  C:\Users\daniel01\AppData\Local\Temp\ccHLFCB6.s 			page 89


 2346 0449 02       		.byte	0x2
 2347 044a 91       		.byte	0x91
 2348 044b 6C       		.sleb128 -20
 2349 044c 0B       		.uleb128 0xb
 2350 044d 0E010000 		.4byte	.LASF29
 2351 0451 01       		.byte	0x1
 2352 0452 ED05     		.2byte	0x5ed
 2353 0454 AF000000 		.4byte	0xaf
 2354 0458 02       		.byte	0x2
 2355 0459 91       		.byte	0x91
 2356 045a 70       		.sleb128 -16
 2357 045b 0B       		.uleb128 0xb
 2358 045c FF030000 		.4byte	.LASF44
 2359 0460 01       		.byte	0x1
 2360 0461 EE05     		.2byte	0x5ee
 2361 0463 BA000000 		.4byte	0xba
 2362 0467 02       		.byte	0x2
 2363 0468 91       		.byte	0x91
 2364 0469 74       		.sleb128 -12
 2365 046a 00       		.byte	0x0
 2366 046b 0C       		.uleb128 0xc
 2367 046c F6010000 		.4byte	.LASF45
 2368 0470 01       		.byte	0x1
 2369 0471 6E06     		.2byte	0x66e
 2370 0473 01       		.byte	0x1
 2371 0474 AF000000 		.4byte	0xaf
 2372 0478 00000000 		.4byte	.LFB8
 2373 047c 62010000 		.4byte	.LFE8
 2374 0480 AE010000 		.4byte	.LLST8
 2375 0484 2E050000 		.4byte	0x52e
 2376 0488 0A       		.uleb128 0xa
 2377 0489 0A020000 		.4byte	.LASF31
 2378 048d 01       		.byte	0x1
 2379 048e 6E06     		.2byte	0x66e
 2380 0490 C6000000 		.4byte	0xc6
 2381 0494 02       		.byte	0x2
 2382 0495 91       		.byte	0x91
 2383 0496 54       		.sleb128 -44
 2384 0497 0A       		.uleb128 0xa
 2385 0498 E0010000 		.4byte	.LASF27
 2386 049c 01       		.byte	0x1
 2387 049d 6F06     		.2byte	0x66f
 2388 049f C6000000 		.4byte	0xc6
 2389 04a3 02       		.byte	0x2
 2390 04a4 91       		.byte	0x91
 2391 04a5 50       		.sleb128 -48
 2392 04a6 0A       		.uleb128 0xa
 2393 04a7 BD010000 		.4byte	.LASF19
 2394 04ab 01       		.byte	0x1
 2395 04ac 7006     		.2byte	0x670
 2396 04ae AF000000 		.4byte	0xaf
 2397 04b2 02       		.byte	0x2
 2398 04b3 91       		.byte	0x91
 2399 04b4 4C       		.sleb128 -52
 2400 04b5 0A       		.uleb128 0xa
 2401 04b6 C9010000 		.4byte	.LASF20
 2402 04ba 01       		.byte	0x1
ARM GAS  C:\Users\daniel01\AppData\Local\Temp\ccHLFCB6.s 			page 90


 2403 04bb 7106     		.2byte	0x671
 2404 04bd AF000000 		.4byte	0xaf
 2405 04c1 02       		.byte	0x2
 2406 04c2 91       		.byte	0x91
 2407 04c3 48       		.sleb128 -56
 2408 04c4 0B       		.uleb128 0xb
 2409 04c5 4A010000 		.4byte	.LASF39
 2410 04c9 01       		.byte	0x1
 2411 04ca 7306     		.2byte	0x673
 2412 04cc AF000000 		.4byte	0xaf
 2413 04d0 02       		.byte	0x2
 2414 04d1 91       		.byte	0x91
 2415 04d2 5C       		.sleb128 -36
 2416 04d3 0B       		.uleb128 0xb
 2417 04d4 8E010000 		.4byte	.LASF41
 2418 04d8 01       		.byte	0x1
 2419 04d9 7506     		.2byte	0x675
 2420 04db 6D000000 		.4byte	0x6d
 2421 04df 02       		.byte	0x2
 2422 04e0 91       		.byte	0x91
 2423 04e1 60       		.sleb128 -32
 2424 04e2 0B       		.uleb128 0xb
 2425 04e3 F9000000 		.4byte	.LASF40
 2426 04e7 01       		.byte	0x1
 2427 04e8 7606     		.2byte	0x676
 2428 04ea 6D000000 		.4byte	0x6d
 2429 04ee 02       		.byte	0x2
 2430 04ef 91       		.byte	0x91
 2431 04f0 64       		.sleb128 -28
 2432 04f1 0B       		.uleb128 0xb
 2433 04f2 7A000000 		.4byte	.LASF36
 2434 04f6 01       		.byte	0x1
 2435 04f7 7806     		.2byte	0x678
 2436 04f9 A4000000 		.4byte	0xa4
 2437 04fd 02       		.byte	0x2
 2438 04fe 91       		.byte	0x91
 2439 04ff 68       		.sleb128 -24
 2440 0500 0B       		.uleb128 0xb
 2441 0501 9B020000 		.4byte	.LASF37
 2442 0505 01       		.byte	0x1
 2443 0506 7906     		.2byte	0x679
 2444 0508 AF000000 		.4byte	0xaf
 2445 050c 02       		.byte	0x2
 2446 050d 91       		.byte	0x91
 2447 050e 6C       		.sleb128 -20
 2448 050f 0B       		.uleb128 0xb
 2449 0510 0E010000 		.4byte	.LASF29
 2450 0514 01       		.byte	0x1
 2451 0515 7A06     		.2byte	0x67a
 2452 0517 AF000000 		.4byte	0xaf
 2453 051b 02       		.byte	0x2
 2454 051c 91       		.byte	0x91
 2455 051d 70       		.sleb128 -16
 2456 051e 0B       		.uleb128 0xb
 2457 051f FF030000 		.4byte	.LASF44
 2458 0523 01       		.byte	0x1
 2459 0524 7B06     		.2byte	0x67b
ARM GAS  C:\Users\daniel01\AppData\Local\Temp\ccHLFCB6.s 			page 91


 2460 0526 BA000000 		.4byte	0xba
 2461 052a 02       		.byte	0x2
 2462 052b 91       		.byte	0x91
 2463 052c 74       		.sleb128 -12
 2464 052d 00       		.byte	0x0
 2465 052e 0C       		.uleb128 0xc
 2466 052f A0000000 		.4byte	.LASF46
 2467 0533 01       		.byte	0x1
 2468 0534 300A     		.2byte	0xa30
 2469 0536 01       		.byte	0x1
 2470 0537 42000000 		.4byte	0x42
 2471 053b 00000000 		.4byte	.LFB9
 2472 053f 24000000 		.4byte	.LFE9
 2473 0543 E5010000 		.4byte	.LLST9
 2474 0547 5B050000 		.4byte	0x55b
 2475 054b 0A       		.uleb128 0xa
 2476 054c 45040000 		.4byte	.LASF47
 2477 0550 01       		.byte	0x1
 2478 0551 300A     		.2byte	0xa30
 2479 0553 5B050000 		.4byte	0x55b
 2480 0557 02       		.byte	0x2
 2481 0558 91       		.byte	0x91
 2482 0559 74       		.sleb128 -12
 2483 055a 00       		.byte	0x0
 2484 055b 07       		.uleb128 0x7
 2485 055c 04       		.byte	0x4
 2486 055d C6000000 		.4byte	0xc6
 2487 0561 0C       		.uleb128 0xc
 2488 0562 1E010000 		.4byte	.LASF48
 2489 0566 01       		.byte	0x1
 2490 0567 360A     		.2byte	0xa36
 2491 0569 01       		.byte	0x1
 2492 056a 54000000 		.4byte	0x54
 2493 056e 00000000 		.4byte	.LFB10
 2494 0572 36000000 		.4byte	.LFE10
 2495 0576 1C020000 		.4byte	.LLST10
 2496 057a AC050000 		.4byte	0x5ac
 2497 057e 0A       		.uleb128 0xa
 2498 057f 45040000 		.4byte	.LASF47
 2499 0583 01       		.byte	0x1
 2500 0584 360A     		.2byte	0xa36
 2501 0586 5B050000 		.4byte	0x55b
 2502 058a 02       		.byte	0x2
 2503 058b 91       		.byte	0x91
 2504 058c 6C       		.sleb128 -20
 2505 058d 0B       		.uleb128 0xb
 2506 058e E3030000 		.4byte	.LASF49
 2507 0592 01       		.byte	0x1
 2508 0593 380A     		.2byte	0xa38
 2509 0595 54000000 		.4byte	0x54
 2510 0599 02       		.byte	0x2
 2511 059a 91       		.byte	0x91
 2512 059b 74       		.sleb128 -12
 2513 059c 0B       		.uleb128 0xb
 2514 059d 1A040000 		.4byte	.LASF50
 2515 05a1 01       		.byte	0x1
 2516 05a2 390A     		.2byte	0xa39
ARM GAS  C:\Users\daniel01\AppData\Local\Temp\ccHLFCB6.s 			page 92


 2517 05a4 54000000 		.4byte	0x54
 2518 05a8 02       		.byte	0x2
 2519 05a9 91       		.byte	0x91
 2520 05aa 76       		.sleb128 -10
 2521 05ab 00       		.byte	0x0
 2522 05ac 0C       		.uleb128 0xc
 2523 05ad 00000000 		.4byte	.LASF51
 2524 05b1 01       		.byte	0x1
 2525 05b2 410A     		.2byte	0xa41
 2526 05b4 01       		.byte	0x1
 2527 05b5 6D000000 		.4byte	0x6d
 2528 05b9 00000000 		.4byte	.LFB11
 2529 05bd 32000000 		.4byte	.LFE11
 2530 05c1 53020000 		.4byte	.LLST11
 2531 05c5 F7050000 		.4byte	0x5f7
 2532 05c9 0A       		.uleb128 0xa
 2533 05ca 45040000 		.4byte	.LASF47
 2534 05ce 01       		.byte	0x1
 2535 05cf 410A     		.2byte	0xa41
 2536 05d1 5B050000 		.4byte	0x55b
 2537 05d5 02       		.byte	0x2
 2538 05d6 91       		.byte	0x91
 2539 05d7 6C       		.sleb128 -20
 2540 05d8 0B       		.uleb128 0xb
 2541 05d9 3C040000 		.4byte	.LASF52
 2542 05dd 01       		.byte	0x1
 2543 05de 430A     		.2byte	0xa43
 2544 05e0 6D000000 		.4byte	0x6d
 2545 05e4 02       		.byte	0x2
 2546 05e5 91       		.byte	0x91
 2547 05e6 70       		.sleb128 -16
 2548 05e7 0B       		.uleb128 0xb
 2549 05e8 06040000 		.4byte	.LASF53
 2550 05ec 01       		.byte	0x1
 2551 05ed 440A     		.2byte	0xa44
 2552 05ef 6D000000 		.4byte	0x6d
 2553 05f3 02       		.byte	0x2
 2554 05f4 91       		.byte	0x91
 2555 05f5 74       		.sleb128 -12
 2556 05f6 00       		.byte	0x0
 2557 05f7 0E       		.uleb128 0xe
 2558 05f8 37010000 		.4byte	.LASF55
 2559 05fc 01       		.byte	0x1
 2560 05fd 610A     		.2byte	0xa61
 2561 05ff 01       		.byte	0x1
 2562 0600 00000000 		.4byte	.LFB12
 2563 0604 26000000 		.4byte	.LFE12
 2564 0608 8A020000 		.4byte	.LLST12
 2565 060c 2F060000 		.4byte	0x62f
 2566 0610 0A       		.uleb128 0xa
 2567 0611 45040000 		.4byte	.LASF47
 2568 0615 01       		.byte	0x1
 2569 0616 610A     		.2byte	0xa61
 2570 0618 5B050000 		.4byte	0x55b
 2571 061c 02       		.byte	0x2
 2572 061d 91       		.byte	0x91
 2573 061e 74       		.sleb128 -12
ARM GAS  C:\Users\daniel01\AppData\Local\Temp\ccHLFCB6.s 			page 93


 2574 061f 0A       		.uleb128 0xa
 2575 0620 86030000 		.4byte	.LASF54
 2576 0624 01       		.byte	0x1
 2577 0625 610A     		.2byte	0xa61
 2578 0627 42000000 		.4byte	0x42
 2579 062b 02       		.byte	0x2
 2580 062c 91       		.byte	0x91
 2581 062d 73       		.sleb128 -13
 2582 062e 00       		.byte	0x0
 2583 062f 0E       		.uleb128 0xe
 2584 0630 AC030000 		.4byte	.LASF56
 2585 0634 01       		.byte	0x1
 2586 0635 670A     		.2byte	0xa67
 2587 0637 01       		.byte	0x1
 2588 0638 00000000 		.4byte	.LFB13
 2589 063c 32000000 		.4byte	.LFE13
 2590 0640 C1020000 		.4byte	.LLST13
 2591 0644 67060000 		.4byte	0x667
 2592 0648 0A       		.uleb128 0xa
 2593 0649 45040000 		.4byte	.LASF47
 2594 064d 01       		.byte	0x1
 2595 064e 670A     		.2byte	0xa67
 2596 0650 5B050000 		.4byte	0x55b
 2597 0654 02       		.byte	0x2
 2598 0655 91       		.byte	0x91
 2599 0656 74       		.sleb128 -12
 2600 0657 0A       		.uleb128 0xa
 2601 0658 86030000 		.4byte	.LASF54
 2602 065c 01       		.byte	0x1
 2603 065d 670A     		.2byte	0xa67
 2604 065f 54000000 		.4byte	0x54
 2605 0663 02       		.byte	0x2
 2606 0664 91       		.byte	0x91
 2607 0665 72       		.sleb128 -14
 2608 0666 00       		.byte	0x0
 2609 0667 0F       		.uleb128 0xf
 2610 0668 C9000000 		.4byte	.LASF57
 2611 066c 01       		.byte	0x1
 2612 066d CC       		.byte	0xcc
 2613 066e 6D000000 		.4byte	0x6d
 2614 0672 05       		.byte	0x5
 2615 0673 03       		.byte	0x3
 2616 0674 00000000 		.4byte	ProbeCom_EndiannessTest
 2617 0678 10       		.uleb128 0x10
 2618 0679 A9020000 		.4byte	.LASF58
 2619 067d 03       		.byte	0x3
 2620 067e 7D       		.byte	0x7d
 2621 067f 6D000000 		.4byte	0x6d
 2622 0683 01       		.byte	0x1
 2623 0684 05       		.byte	0x5
 2624 0685 03       		.byte	0x3
 2625 0686 00000000 		.4byte	ProbeCom_RxPktCtr
 2626 068a 10       		.uleb128 0x10
 2627 068b 62010000 		.4byte	.LASF59
 2628 068f 03       		.byte	0x3
 2629 0690 7E       		.byte	0x7e
 2630 0691 6D000000 		.4byte	0x6d
ARM GAS  C:\Users\daniel01\AppData\Local\Temp\ccHLFCB6.s 			page 94


 2631 0695 01       		.byte	0x1
 2632 0696 05       		.byte	0x5
 2633 0697 03       		.byte	0x3
 2634 0698 00000000 		.4byte	ProbeCom_TxPktCtr
 2635 069c 10       		.uleb128 0x10
 2636 069d 96010000 		.4byte	.LASF60
 2637 06a1 03       		.byte	0x3
 2638 06a2 7F       		.byte	0x7f
 2639 06a3 6D000000 		.4byte	0x6d
 2640 06a7 01       		.byte	0x1
 2641 06a8 05       		.byte	0x5
 2642 06a9 03       		.byte	0x3
 2643 06aa 00000000 		.4byte	ProbeCom_TxSymCtr
 2644 06ae 10       		.uleb128 0x10
 2645 06af 4D020000 		.4byte	.LASF61
 2646 06b3 03       		.byte	0x3
 2647 06b4 80       		.byte	0x80
 2648 06b5 6D000000 		.4byte	0x6d
 2649 06b9 01       		.byte	0x1
 2650 06ba 05       		.byte	0x5
 2651 06bb 03       		.byte	0x3
 2652 06bc 00000000 		.4byte	ProbeCom_TxSymByteCtr
 2653 06c0 10       		.uleb128 0x10
 2654 06c1 63020000 		.4byte	.LASF62
 2655 06c5 03       		.byte	0x3
 2656 06c6 81       		.byte	0x81
 2657 06c7 6D000000 		.4byte	0x6d
 2658 06cb 01       		.byte	0x1
 2659 06cc 05       		.byte	0x5
 2660 06cd 03       		.byte	0x3
 2661 06ce 00000000 		.4byte	ProbeCom_ErrPktCtr
 2662 06d2 10       		.uleb128 0x10
 2663 06d3 9A030000 		.4byte	.LASF63
 2664 06d7 03       		.byte	0x3
 2665 06d8 8C       		.byte	0x8c
 2666 06d9 6D000000 		.4byte	0x6d
 2667 06dd 01       		.byte	0x1
 2668 06de 05       		.byte	0x5
 2669 06df 03       		.byte	0x3
 2670 06e0 00000000 		.4byte	ProbeCom_RxSymCtr
 2671 06e4 10       		.uleb128 0x10
 2672 06e5 B3000000 		.4byte	.LASF64
 2673 06e9 03       		.byte	0x3
 2674 06ea 8D       		.byte	0x8d
 2675 06eb 6D000000 		.4byte	0x6d
 2676 06ef 01       		.byte	0x1
 2677 06f0 05       		.byte	0x5
 2678 06f1 03       		.byte	0x3
 2679 06f2 00000000 		.4byte	ProbeCom_RxSymByteCtr
 2680 06f6 00       		.byte	0x0
 2681              		.section	.debug_abbrev
 2682 0000 01       		.uleb128 0x1
 2683 0001 11       		.uleb128 0x11
 2684 0002 01       		.byte	0x1
 2685 0003 25       		.uleb128 0x25
 2686 0004 0E       		.uleb128 0xe
 2687 0005 13       		.uleb128 0x13
ARM GAS  C:\Users\daniel01\AppData\Local\Temp\ccHLFCB6.s 			page 95


 2688 0006 0B       		.uleb128 0xb
 2689 0007 03       		.uleb128 0x3
 2690 0008 0E       		.uleb128 0xe
 2691 0009 1B       		.uleb128 0x1b
 2692 000a 0E       		.uleb128 0xe
 2693 000b 11       		.uleb128 0x11
 2694 000c 01       		.uleb128 0x1
 2695 000d 52       		.uleb128 0x52
 2696 000e 01       		.uleb128 0x1
 2697 000f 55       		.uleb128 0x55
 2698 0010 06       		.uleb128 0x6
 2699 0011 10       		.uleb128 0x10
 2700 0012 06       		.uleb128 0x6
 2701 0013 00       		.byte	0x0
 2702 0014 00       		.byte	0x0
 2703 0015 02       		.uleb128 0x2
 2704 0016 24       		.uleb128 0x24
 2705 0017 00       		.byte	0x0
 2706 0018 0B       		.uleb128 0xb
 2707 0019 0B       		.uleb128 0xb
 2708 001a 3E       		.uleb128 0x3e
 2709 001b 0B       		.uleb128 0xb
 2710 001c 03       		.uleb128 0x3
 2711 001d 0E       		.uleb128 0xe
 2712 001e 00       		.byte	0x0
 2713 001f 00       		.byte	0x0
 2714 0020 03       		.uleb128 0x3
 2715 0021 16       		.uleb128 0x16
 2716 0022 00       		.byte	0x0
 2717 0023 03       		.uleb128 0x3
 2718 0024 0E       		.uleb128 0xe
 2719 0025 3A       		.uleb128 0x3a
 2720 0026 0B       		.uleb128 0xb
 2721 0027 3B       		.uleb128 0x3b
 2722 0028 0B       		.uleb128 0xb
 2723 0029 49       		.uleb128 0x49
 2724 002a 13       		.uleb128 0x13
 2725 002b 00       		.byte	0x0
 2726 002c 00       		.byte	0x0
 2727 002d 04       		.uleb128 0x4
 2728 002e 24       		.uleb128 0x24
 2729 002f 00       		.byte	0x0
 2730 0030 0B       		.uleb128 0xb
 2731 0031 0B       		.uleb128 0xb
 2732 0032 3E       		.uleb128 0x3e
 2733 0033 0B       		.uleb128 0xb
 2734 0034 03       		.uleb128 0x3
 2735 0035 08       		.uleb128 0x8
 2736 0036 00       		.byte	0x0
 2737 0037 00       		.byte	0x0
 2738 0038 05       		.uleb128 0x5
 2739 0039 0F       		.uleb128 0xf
 2740 003a 00       		.byte	0x0
 2741 003b 0B       		.uleb128 0xb
 2742 003c 0B       		.uleb128 0xb
 2743 003d 00       		.byte	0x0
 2744 003e 00       		.byte	0x0
ARM GAS  C:\Users\daniel01\AppData\Local\Temp\ccHLFCB6.s 			page 96


 2745 003f 06       		.uleb128 0x6
 2746 0040 16       		.uleb128 0x16
 2747 0041 00       		.byte	0x0
 2748 0042 03       		.uleb128 0x3
 2749 0043 0E       		.uleb128 0xe
 2750 0044 3A       		.uleb128 0x3a
 2751 0045 0B       		.uleb128 0xb
 2752 0046 3B       		.uleb128 0x3b
 2753 0047 05       		.uleb128 0x5
 2754 0048 49       		.uleb128 0x49
 2755 0049 13       		.uleb128 0x13
 2756 004a 00       		.byte	0x0
 2757 004b 00       		.byte	0x0
 2758 004c 07       		.uleb128 0x7
 2759 004d 0F       		.uleb128 0xf
 2760 004e 00       		.byte	0x0
 2761 004f 0B       		.uleb128 0xb
 2762 0050 0B       		.uleb128 0xb
 2763 0051 49       		.uleb128 0x49
 2764 0052 13       		.uleb128 0x13
 2765 0053 00       		.byte	0x0
 2766 0054 00       		.byte	0x0
 2767 0055 08       		.uleb128 0x8
 2768 0056 2E       		.uleb128 0x2e
 2769 0057 00       		.byte	0x0
 2770 0058 3F       		.uleb128 0x3f
 2771 0059 0C       		.uleb128 0xc
 2772 005a 03       		.uleb128 0x3
 2773 005b 0E       		.uleb128 0xe
 2774 005c 3A       		.uleb128 0x3a
 2775 005d 0B       		.uleb128 0xb
 2776 005e 3B       		.uleb128 0x3b
 2777 005f 05       		.uleb128 0x5
 2778 0060 27       		.uleb128 0x27
 2779 0061 0C       		.uleb128 0xc
 2780 0062 49       		.uleb128 0x49
 2781 0063 13       		.uleb128 0x13
 2782 0064 11       		.uleb128 0x11
 2783 0065 01       		.uleb128 0x1
 2784 0066 12       		.uleb128 0x12
 2785 0067 01       		.uleb128 0x1
 2786 0068 40       		.uleb128 0x40
 2787 0069 06       		.uleb128 0x6
 2788 006a 00       		.byte	0x0
 2789 006b 00       		.byte	0x0
 2790 006c 09       		.uleb128 0x9
 2791 006d 2E       		.uleb128 0x2e
 2792 006e 01       		.byte	0x1
 2793 006f 3F       		.uleb128 0x3f
 2794 0070 0C       		.uleb128 0xc
 2795 0071 03       		.uleb128 0x3
 2796 0072 0E       		.uleb128 0xe
 2797 0073 3A       		.uleb128 0x3a
 2798 0074 0B       		.uleb128 0xb
 2799 0075 3B       		.uleb128 0x3b
 2800 0076 05       		.uleb128 0x5
 2801 0077 27       		.uleb128 0x27
ARM GAS  C:\Users\daniel01\AppData\Local\Temp\ccHLFCB6.s 			page 97


 2802 0078 0C       		.uleb128 0xc
 2803 0079 49       		.uleb128 0x49
 2804 007a 13       		.uleb128 0x13
 2805 007b 11       		.uleb128 0x11
 2806 007c 01       		.uleb128 0x1
 2807 007d 12       		.uleb128 0x12
 2808 007e 01       		.uleb128 0x1
 2809 007f 40       		.uleb128 0x40
 2810 0080 06       		.uleb128 0x6
 2811 0081 01       		.uleb128 0x1
 2812 0082 13       		.uleb128 0x13
 2813 0083 00       		.byte	0x0
 2814 0084 00       		.byte	0x0
 2815 0085 0A       		.uleb128 0xa
 2816 0086 05       		.uleb128 0x5
 2817 0087 00       		.byte	0x0
 2818 0088 03       		.uleb128 0x3
 2819 0089 0E       		.uleb128 0xe
 2820 008a 3A       		.uleb128 0x3a
 2821 008b 0B       		.uleb128 0xb
 2822 008c 3B       		.uleb128 0x3b
 2823 008d 05       		.uleb128 0x5
 2824 008e 49       		.uleb128 0x49
 2825 008f 13       		.uleb128 0x13
 2826 0090 02       		.uleb128 0x2
 2827 0091 0A       		.uleb128 0xa
 2828 0092 00       		.byte	0x0
 2829 0093 00       		.byte	0x0
 2830 0094 0B       		.uleb128 0xb
 2831 0095 34       		.uleb128 0x34
 2832 0096 00       		.byte	0x0
 2833 0097 03       		.uleb128 0x3
 2834 0098 0E       		.uleb128 0xe
 2835 0099 3A       		.uleb128 0x3a
 2836 009a 0B       		.uleb128 0xb
 2837 009b 3B       		.uleb128 0x3b
 2838 009c 05       		.uleb128 0x5
 2839 009d 49       		.uleb128 0x49
 2840 009e 13       		.uleb128 0x13
 2841 009f 02       		.uleb128 0x2
 2842 00a0 0A       		.uleb128 0xa
 2843 00a1 00       		.byte	0x0
 2844 00a2 00       		.byte	0x0
 2845 00a3 0C       		.uleb128 0xc
 2846 00a4 2E       		.uleb128 0x2e
 2847 00a5 01       		.byte	0x1
 2848 00a6 03       		.uleb128 0x3
 2849 00a7 0E       		.uleb128 0xe
 2850 00a8 3A       		.uleb128 0x3a
 2851 00a9 0B       		.uleb128 0xb
 2852 00aa 3B       		.uleb128 0x3b
 2853 00ab 05       		.uleb128 0x5
 2854 00ac 27       		.uleb128 0x27
 2855 00ad 0C       		.uleb128 0xc
 2856 00ae 49       		.uleb128 0x49
 2857 00af 13       		.uleb128 0x13
 2858 00b0 11       		.uleb128 0x11
ARM GAS  C:\Users\daniel01\AppData\Local\Temp\ccHLFCB6.s 			page 98


 2859 00b1 01       		.uleb128 0x1
 2860 00b2 12       		.uleb128 0x12
 2861 00b3 01       		.uleb128 0x1
 2862 00b4 40       		.uleb128 0x40
 2863 00b5 06       		.uleb128 0x6
 2864 00b6 01       		.uleb128 0x1
 2865 00b7 13       		.uleb128 0x13
 2866 00b8 00       		.byte	0x0
 2867 00b9 00       		.byte	0x0
 2868 00ba 0D       		.uleb128 0xd
 2869 00bb 34       		.uleb128 0x34
 2870 00bc 00       		.byte	0x0
 2871 00bd 03       		.uleb128 0x3
 2872 00be 08       		.uleb128 0x8
 2873 00bf 3A       		.uleb128 0x3a
 2874 00c0 0B       		.uleb128 0xb
 2875 00c1 3B       		.uleb128 0x3b
 2876 00c2 05       		.uleb128 0x5
 2877 00c3 49       		.uleb128 0x49
 2878 00c4 13       		.uleb128 0x13
 2879 00c5 02       		.uleb128 0x2
 2880 00c6 0A       		.uleb128 0xa
 2881 00c7 00       		.byte	0x0
 2882 00c8 00       		.byte	0x0
 2883 00c9 0E       		.uleb128 0xe
 2884 00ca 2E       		.uleb128 0x2e
 2885 00cb 01       		.byte	0x1
 2886 00cc 03       		.uleb128 0x3
 2887 00cd 0E       		.uleb128 0xe
 2888 00ce 3A       		.uleb128 0x3a
 2889 00cf 0B       		.uleb128 0xb
 2890 00d0 3B       		.uleb128 0x3b
 2891 00d1 05       		.uleb128 0x5
 2892 00d2 27       		.uleb128 0x27
 2893 00d3 0C       		.uleb128 0xc
 2894 00d4 11       		.uleb128 0x11
 2895 00d5 01       		.uleb128 0x1
 2896 00d6 12       		.uleb128 0x12
 2897 00d7 01       		.uleb128 0x1
 2898 00d8 40       		.uleb128 0x40
 2899 00d9 06       		.uleb128 0x6
 2900 00da 01       		.uleb128 0x1
 2901 00db 13       		.uleb128 0x13
 2902 00dc 00       		.byte	0x0
 2903 00dd 00       		.byte	0x0
 2904 00de 0F       		.uleb128 0xf
 2905 00df 34       		.uleb128 0x34
 2906 00e0 00       		.byte	0x0
 2907 00e1 03       		.uleb128 0x3
 2908 00e2 0E       		.uleb128 0xe
 2909 00e3 3A       		.uleb128 0x3a
 2910 00e4 0B       		.uleb128 0xb
 2911 00e5 3B       		.uleb128 0x3b
 2912 00e6 0B       		.uleb128 0xb
 2913 00e7 49       		.uleb128 0x49
 2914 00e8 13       		.uleb128 0x13
 2915 00e9 02       		.uleb128 0x2
ARM GAS  C:\Users\daniel01\AppData\Local\Temp\ccHLFCB6.s 			page 99


 2916 00ea 0A       		.uleb128 0xa
 2917 00eb 00       		.byte	0x0
 2918 00ec 00       		.byte	0x0
 2919 00ed 10       		.uleb128 0x10
 2920 00ee 34       		.uleb128 0x34
 2921 00ef 00       		.byte	0x0
 2922 00f0 03       		.uleb128 0x3
 2923 00f1 0E       		.uleb128 0xe
 2924 00f2 3A       		.uleb128 0x3a
 2925 00f3 0B       		.uleb128 0xb
 2926 00f4 3B       		.uleb128 0x3b
 2927 00f5 0B       		.uleb128 0xb
 2928 00f6 49       		.uleb128 0x49
 2929 00f7 13       		.uleb128 0x13
 2930 00f8 3F       		.uleb128 0x3f
 2931 00f9 0C       		.uleb128 0xc
 2932 00fa 02       		.uleb128 0x2
 2933 00fb 0A       		.uleb128 0xa
 2934 00fc 00       		.byte	0x0
 2935 00fd 00       		.byte	0x0
 2936 00fe 00       		.byte	0x0
 2937              		.section	.debug_pubnames,"",%progbits
 2938 0000 DB000000 		.4byte	0xdb
 2939 0004 0200     		.2byte	0x2
 2940 0006 00000000 		.4byte	.Ldebug_info0
 2941 000a F7060000 		.4byte	0x6f7
 2942 000e CC000000 		.4byte	0xcc
 2943 0012 50726F62 		.ascii	"ProbeCom_Init\000"
 2943      65436F6D 
 2943      5F496E69 
 2943      7400
 2944 0020 E6000000 		.4byte	0xe6
 2945 0024 50726F62 		.ascii	"ProbeCom_ParseRxPkt\000"
 2945      65436F6D 
 2945      5F506172 
 2945      73655278 
 2945      506B7400 
 2946 0038 78060000 		.4byte	0x678
 2947 003c 50726F62 		.ascii	"ProbeCom_RxPktCtr\000"
 2947      65436F6D 
 2947      5F527850 
 2947      6B744374 
 2947      7200
 2948 004e 8A060000 		.4byte	0x68a
 2949 0052 50726F62 		.ascii	"ProbeCom_TxPktCtr\000"
 2949      65436F6D 
 2949      5F547850 
 2949      6B744374 
 2949      7200
 2950 0064 9C060000 		.4byte	0x69c
 2951 0068 50726F62 		.ascii	"ProbeCom_TxSymCtr\000"
 2951      65436F6D 
 2951      5F547853 
 2951      796D4374 
 2951      7200
 2952 007a AE060000 		.4byte	0x6ae
 2953 007e 50726F62 		.ascii	"ProbeCom_TxSymByteCtr\000"
ARM GAS  C:\Users\daniel01\AppData\Local\Temp\ccHLFCB6.s 			page 100


 2953      65436F6D 
 2953      5F547853 
 2953      796D4279 
 2953      74654374 
 2954 0094 C0060000 		.4byte	0x6c0
 2955 0098 50726F62 		.ascii	"ProbeCom_ErrPktCtr\000"
 2955      65436F6D 
 2955      5F457272 
 2955      506B7443 
 2955      747200
 2956 00ab D2060000 		.4byte	0x6d2
 2957 00af 50726F62 		.ascii	"ProbeCom_RxSymCtr\000"
 2957      65436F6D 
 2957      5F527853 
 2957      796D4374 
 2957      7200
 2958 00c1 E4060000 		.4byte	0x6e4
 2959 00c5 50726F62 		.ascii	"ProbeCom_RxSymByteCtr\000"
 2959      65436F6D 
 2959      5F527853 
 2959      796D4279 
 2959      74654374 
 2960 00db 00000000 		.4byte	0x0
 2961              		.section	.debug_aranges,"",%progbits
 2962 0000 84000000 		.4byte	0x84
 2963 0004 0200     		.2byte	0x2
 2964 0006 00000000 		.4byte	.Ldebug_info0
 2965 000a 04       		.byte	0x4
 2966 000b 00       		.byte	0x0
 2967 000c 0000     		.2byte	0x0
 2968 000e 0000     		.2byte	0x0
 2969 0010 00000000 		.4byte	.LFB0
 2970 0014 84000000 		.4byte	.LFE0-.LFB0
 2971 0018 00000000 		.4byte	.LFB1
 2972 001c 14010000 		.4byte	.LFE1-.LFB1
 2973 0020 00000000 		.4byte	.LFB2
 2974 0024 1A000000 		.4byte	.LFE2-.LFB2
 2975 0028 00000000 		.4byte	.LFB3
 2976 002c 64000000 		.4byte	.LFE3-.LFB3
 2977 0030 00000000 		.4byte	.LFB4
 2978 0034 0A020000 		.4byte	.LFE4-.LFB4
 2979 0038 00000000 		.4byte	.LFB5
 2980 003c E4000000 		.4byte	.LFE5-.LFB5
 2981 0040 00000000 		.4byte	.LFB6
 2982 0044 5A010000 		.4byte	.LFE6-.LFB6
 2983 0048 00000000 		.4byte	.LFB7
 2984 004c F6000000 		.4byte	.LFE7-.LFB7
 2985 0050 00000000 		.4byte	.LFB8
 2986 0054 62010000 		.4byte	.LFE8-.LFB8
 2987 0058 00000000 		.4byte	.LFB9
 2988 005c 24000000 		.4byte	.LFE9-.LFB9
 2989 0060 00000000 		.4byte	.LFB10
 2990 0064 36000000 		.4byte	.LFE10-.LFB10
 2991 0068 00000000 		.4byte	.LFB11
 2992 006c 32000000 		.4byte	.LFE11-.LFB11
 2993 0070 00000000 		.4byte	.LFB12
 2994 0074 26000000 		.4byte	.LFE12-.LFB12
ARM GAS  C:\Users\daniel01\AppData\Local\Temp\ccHLFCB6.s 			page 101


 2995 0078 00000000 		.4byte	.LFB13
 2996 007c 32000000 		.4byte	.LFE13-.LFB13
 2997 0080 00000000 		.4byte	0x0
 2998 0084 00000000 		.4byte	0x0
 2999              		.section	.debug_ranges,"",%progbits
 3000              	.Ldebug_ranges0:
 3001 0000 00000000 		.4byte	.Ltext0
 3002 0004 00000000 		.4byte	.Letext0
 3003 0008 00000000 		.4byte	.LFB0
 3004 000c 84000000 		.4byte	.LFE0
 3005 0010 00000000 		.4byte	.LFB1
 3006 0014 14010000 		.4byte	.LFE1
 3007 0018 00000000 		.4byte	.LFB2
 3008 001c 1A000000 		.4byte	.LFE2
 3009 0020 00000000 		.4byte	.LFB3
 3010 0024 64000000 		.4byte	.LFE3
 3011 0028 00000000 		.4byte	.LFB4
 3012 002c 0A020000 		.4byte	.LFE4
 3013 0030 00000000 		.4byte	.LFB5
 3014 0034 E4000000 		.4byte	.LFE5
 3015 0038 00000000 		.4byte	.LFB6
 3016 003c 5A010000 		.4byte	.LFE6
 3017 0040 00000000 		.4byte	.LFB7
 3018 0044 F6000000 		.4byte	.LFE7
 3019 0048 00000000 		.4byte	.LFB8
 3020 004c 62010000 		.4byte	.LFE8
 3021 0050 00000000 		.4byte	.LFB9
 3022 0054 24000000 		.4byte	.LFE9
 3023 0058 00000000 		.4byte	.LFB10
 3024 005c 36000000 		.4byte	.LFE10
 3025 0060 00000000 		.4byte	.LFB11
 3026 0064 32000000 		.4byte	.LFE11
 3027 0068 00000000 		.4byte	.LFB12
 3028 006c 26000000 		.4byte	.LFE12
 3029 0070 00000000 		.4byte	.LFB13
 3030 0074 32000000 		.4byte	.LFE13
 3031 0078 00000000 		.4byte	0x0
 3032 007c 00000000 		.4byte	0x0
 3033              		.section	.debug_str,"MS",%progbits,1
 3034              	.LASF51:
 3035 0000 50726F62 		.ascii	"ProbeCom_GetINT32U\000"
 3035      65436F6D 
 3035      5F476574 
 3035      494E5433 
 3035      325500
 3036              	.LASF34:
 3037 0013 76657273 		.ascii	"version\000"
 3037      696F6E00 
 3038              	.LASF66:
 3039 001b 2E2E5C2E 		.ascii	"..\\..\\..\\..\\..\\..\\uC-Probe\\Target\\Communica"
 3039      2E5C2E2E 
 3039      5C2E2E5C 
 3039      2E2E5C2E 
 3039      2E5C7543 
 3040 0046 74696F6E 		.ascii	"tion\\Generic\\Source\\probe_com.c\000"
 3040      5C47656E 
 3040      65726963 
ARM GAS  C:\Users\daniel01\AppData\Local\Temp\ccHLFCB6.s 			page 102


 3040      5C536F75 
 3040      7263655C 
 3041              	.LASF21:
 3042 0066 74785F62 		.ascii	"tx_buf_wr\000"
 3042      75665F77 
 3042      7200
 3043              	.LASF7:
 3044 0070 73686F72 		.ascii	"short int\000"
 3044      7420696E 
 3044      7400
 3045              	.LASF36:
 3046 007a 73796D5F 		.ascii	"sym_addr\000"
 3046      61646472 
 3046      00
 3047              	.LASF43:
 3048 0083 50726F62 		.ascii	"ProbeCom_ReqWr\000"
 3048      65436F6D 
 3048      5F526571 
 3048      577200
 3049              	.LASF68:
 3050 0092 50726F62 		.ascii	"ProbeCom_Init\000"
 3050      65436F6D 
 3050      5F496E69 
 3050      7400
 3051              	.LASF46:
 3052 00a0 50726F62 		.ascii	"ProbeCom_GetINT08U\000"
 3052      65436F6D 
 3052      5F476574 
 3052      494E5430 
 3052      385500
 3053              	.LASF64:
 3054 00b3 50726F62 		.ascii	"ProbeCom_RxSymByteCtr\000"
 3054      65436F6D 
 3054      5F527853 
 3054      796D4279 
 3054      74654374 
 3055              	.LASF57:
 3056 00c9 50726F62 		.ascii	"ProbeCom_EndiannessTest\000"
 3056      65436F6D 
 3056      5F456E64 
 3056      69616E6E 
 3056      65737354 
 3057              	.LASF26:
 3058 00e1 50726F62 		.ascii	"ProbeCom_ReqErr\000"
 3058      65436F6D 
 3058      5F526571 
 3058      45727200 
 3059              	.LASF18:
 3060 00f1 7074785F 		.ascii	"ptx_pkt\000"
 3060      706B7400 
 3061              	.LASF40:
 3062 00f9 73796D5F 		.ascii	"sym_byte_ctr\000"
 3062      62797465 
 3062      5F637472 
 3062      00
 3063              	.LASF17:
 3064 0106 7072785F 		.ascii	"prx_pkt\000"
ARM GAS  C:\Users\daniel01\AppData\Local\Temp\ccHLFCB6.s 			page 103


 3064      706B7400 
 3065              	.LASF29:
 3066 010e 74785F6C 		.ascii	"tx_len\000"
 3066      656E00
 3067              	.LASF14:
 3068 0115 4350555F 		.ascii	"CPU_ADDR\000"
 3068      41444452 
 3068      00
 3069              	.LASF48:
 3070 011e 50726F62 		.ascii	"ProbeCom_GetINT16U\000"
 3070      65436F6D 
 3070      5F476574 
 3070      494E5431 
 3070      365500
 3071              	.LASF12:
 3072 0131 666C6F61 		.ascii	"float\000"
 3072      7400
 3073              	.LASF55:
 3074 0137 50726F62 		.ascii	"ProbeCom_StoINT08U\000"
 3074      65436F6D 
 3074      5F53746F 
 3074      494E5430 
 3074      385500
 3075              	.LASF39:
 3076 014a 72785F70 		.ascii	"rx_pkt_ix\000"
 3076      6B745F69 
 3076      7800
 3077              	.LASF11:
 3078 0154 6C6F6E67 		.ascii	"long long int\000"
 3078      206C6F6E 
 3078      6720696E 
 3078      7400
 3079              	.LASF59:
 3080 0162 50726F62 		.ascii	"ProbeCom_TxPktCtr\000"
 3080      65436F6D 
 3080      5F547850 
 3080      6B744374 
 3080      7200
 3081              	.LASF2:
 3082 0174 4350555F 		.ascii	"CPU_BOOLEAN\000"
 3082      424F4F4C 
 3082      45414E00 
 3083              	.LASF42:
 3084 0180 7074785F 		.ascii	"ptx_buf_start\000"
 3084      6275665F 
 3084      73746172 
 3084      7400
 3085              	.LASF41:
 3086 018e 73796D5F 		.ascii	"sym_ctr\000"
 3086      63747200 
 3087              	.LASF60:
 3088 0196 50726F62 		.ascii	"ProbeCom_TxSymCtr\000"
 3088      65436F6D 
 3088      5F547853 
 3088      796D4374 
 3088      7200
 3089              	.LASF25:
ARM GAS  C:\Users\daniel01\AppData\Local\Temp\ccHLFCB6.s 			page 104


 3090 01a8 50726F62 		.ascii	"ProbeCom_PktModifier\000"
 3090      65436F6D 
 3090      5F506B74 
 3090      4D6F6469 
 3090      66696572 
 3091              	.LASF19:
 3092 01bd 72785F70 		.ascii	"rx_pkt_size\000"
 3092      6B745F73 
 3092      697A6500 
 3093              	.LASF20:
 3094 01c9 74785F62 		.ascii	"tx_buf_size\000"
 3094      75665F73 
 3094      697A6500 
 3095              	.LASF23:
 3096 01d5 7072785F 		.ascii	"prx_pkt_08\000"
 3096      706B745F 
 3096      303800
 3097              	.LASF27:
 3098 01e0 7074785F 		.ascii	"ptx_buf\000"
 3098      62756600 
 3099              	.LASF1:
 3100 01e8 756E7369 		.ascii	"unsigned char\000"
 3100      676E6564 
 3100      20636861 
 3100      7200
 3101              	.LASF45:
 3102 01f6 50726F62 		.ascii	"ProbeCom_ReqWrMulti\000"
 3102      65436F6D 
 3102      5F526571 
 3102      57724D75 
 3102      6C746900 
 3103              	.LASF31:
 3104 020a 7072785F 		.ascii	"prx_buf\000"
 3104      62756600 
 3105              	.LASF4:
 3106 0212 7369676E 		.ascii	"signed char\000"
 3106      65642063 
 3106      68617200 
 3107              	.LASF24:
 3108 021e 7074785F 		.ascii	"ptx_pkt_08\000"
 3108      706B745F 
 3108      303800
 3109              	.LASF10:
 3110 0229 6C6F6E67 		.ascii	"long long unsigned int\000"
 3110      206C6F6E 
 3110      6720756E 
 3110      7369676E 
 3110      65642069 
 3111              	.LASF9:
 3112 0240 756E7369 		.ascii	"unsigned int\000"
 3112      676E6564 
 3112      20696E74 
 3112      00
 3113              	.LASF61:
 3114 024d 50726F62 		.ascii	"ProbeCom_TxSymByteCtr\000"
 3114      65436F6D 
 3114      5F547853 
ARM GAS  C:\Users\daniel01\AppData\Local\Temp\ccHLFCB6.s 			page 105


 3114      796D4279 
 3114      74654374 
 3115              	.LASF62:
 3116 0263 50726F62 		.ascii	"ProbeCom_ErrPktCtr\000"
 3116      65436F6D 
 3116      5F457272 
 3116      506B7443 
 3116      747200
 3117              	.LASF6:
 3118 0276 73686F72 		.ascii	"short unsigned int\000"
 3118      7420756E 
 3118      7369676E 
 3118      65642069 
 3118      6E7400
 3119              	.LASF33:
 3120 0289 73746174 		.ascii	"status\000"
 3120      757300
 3121              	.LASF3:
 3122 0290 4350555F 		.ascii	"CPU_INT08U\000"
 3122      494E5430 
 3122      385500
 3123              	.LASF37:
 3124 029b 73796D5F 		.ascii	"sym_size\000"
 3124      73697A65 
 3124      00
 3125              	.LASF0:
 3126 02a4 63686172 		.ascii	"char\000"
 3126      00
 3127              	.LASF58:
 3128 02a9 50726F62 		.ascii	"ProbeCom_RxPktCtr\000"
 3128      65436F6D 
 3128      5F527850 
 3128      6B744374 
 3128      7200
 3129              	.LASF67:
 3130 02bb 433A5C55 		.ascii	"C:\\Users\\daniel01\\Desktop\\CY8CKIT-050_uCOS-III\\"
 3130      73657273 
 3130      5C64616E 
 3130      69656C30 
 3130      315C4465 
 3131 02ea 43593843 		.ascii	"CY8CKIT-050_uCOS-III\\Micrium\\Software\\EvalBoards"
 3131      4B49542D 
 3131      3035305F 
 3131      75434F53 
 3131      2D494949 
 3132 031a 5C437970 		.ascii	"\\Cypress\\CY8CKIT-050\\PSoC\\uCOS-III-Probe\\uCOS-"
 3132      72657373 
 3132      5C435938 
 3132      434B4954 
 3132      2D303530 
 3133 0348 4949492D 		.ascii	"III-Probe.cydsn\000"
 3133      50726F62 
 3133      652E6379 
 3133      64736E00 
 3134              	.LASF8:
 3135 0358 4350555F 		.ascii	"CPU_INT32U\000"
 3135      494E5433 
ARM GAS  C:\Users\daniel01\AppData\Local\Temp\ccHLFCB6.s 			page 106


 3135      325500
 3136              	.LASF35:
 3137 0363 50726F62 		.ascii	"ProbeCom_ReqRd\000"
 3137      65436F6D 
 3137      5F526571 
 3137      526400
 3138              	.LASF38:
 3139 0372 50726F62 		.ascii	"ProbeCom_ReqRdMulti\000"
 3139      65436F6D 
 3139      5F526571 
 3139      52644D75 
 3139      6C746900 
 3140              	.LASF54:
 3141 0386 64617461 		.ascii	"data\000"
 3141      00
 3142              	.LASF28:
 3143 038b 636F6D6D 		.ascii	"comm_err\000"
 3143      5F657272 
 3143      00
 3144              	.LASF32:
 3145 0394 71756572 		.ascii	"query\000"
 3145      7900
 3146              	.LASF63:
 3147 039a 50726F62 		.ascii	"ProbeCom_RxSymCtr\000"
 3147      65436F6D 
 3147      5F527853 
 3147      796D4374 
 3147      7200
 3148              	.LASF56:
 3149 03ac 50726F62 		.ascii	"ProbeCom_StoINT16U\000"
 3149      65436F6D 
 3149      5F53746F 
 3149      494E5431 
 3149      365500
 3150              	.LASF13:
 3151 03bf 646F7562 		.ascii	"double\000"
 3151      6C6500
 3152              	.LASF30:
 3153 03c6 50726F62 		.ascii	"ProbeCom_ReqQuery\000"
 3153      65436F6D 
 3153      5F526571 
 3153      51756572 
 3153      7900
 3154              	.LASF15:
 3155 03d8 4350555F 		.ascii	"CPU_SIZE_T\000"
 3155      53495A45 
 3155      5F5400
 3156              	.LASF49:
 3157 03e3 6C6F7762 		.ascii	"lowbyte\000"
 3157      79746500 
 3158              	.LASF69:
 3159 03eb 50726F62 		.ascii	"ProbeCom_ParseRxPkt\000"
 3159      65436F6D 
 3159      5F506172 
 3159      73655278 
 3159      506B7400 
 3160              	.LASF44:
ARM GAS  C:\Users\daniel01\AppData\Local\Temp\ccHLFCB6.s 			page 107


 3161 03ff 6370755F 		.ascii	"cpu_sr\000"
 3161      737200
 3162              	.LASF53:
 3163 0406 6C6F7777 		.ascii	"lowword\000"
 3163      6F726400 
 3164              	.LASF65:
 3165 040e 474E5520 		.ascii	"GNU C 4.4.1\000"
 3165      4320342E 
 3165      342E3100 
 3166              	.LASF50:
 3167 041a 68696768 		.ascii	"highbyte\000"
 3167      62797465 
 3167      00
 3168              	.LASF16:
 3169 0423 4350555F 		.ascii	"CPU_SR\000"
 3169      535200
 3170              	.LASF22:
 3171 042a 666F726D 		.ascii	"format\000"
 3171      617400
 3172              	.LASF5:
 3173 0431 4350555F 		.ascii	"CPU_INT16U\000"
 3173      494E5431 
 3173      365500
 3174              	.LASF52:
 3175 043c 68696768 		.ascii	"highword\000"
 3175      776F7264 
 3175      00
 3176              	.LASF47:
 3177 0445 70627566 		.ascii	"pbuf\000"
 3177      00
 3178              		.ident	"GCC: (Sourcery G++ Lite 2010q1-188) 4.4.1"
