ARM GAS  C:\Users\daniel01\AppData\Local\Temp\ccLTjjhP.s 			page 1


   1              		.syntax unified
   2              		.cpu cortex-m3
   3              		.fpu softvfp
   4              		.eabi_attribute 20, 1
   5              		.eabi_attribute 21, 1
   6              		.eabi_attribute 23, 3
   7              		.eabi_attribute 24, 1
   8              		.eabi_attribute 25, 1
   9              		.eabi_attribute 26, 1
  10              		.eabi_attribute 30, 6
  11              		.eabi_attribute 18, 4
  12              		.thumb
  13              		.file	"probe_rs232_os.c"
  20 0000 5C010000 		.text
  20      02000401 
  20      00000201 
  20      FB0E0D00 
  20      01010101 
  21              	.Ltext0:
  22              		.cfi_sections	.debug_frame
  23              		.bss
  24              		.align	2
  25              	ProbeRS232_OS_TaskStk:
  26 0000 00000000 		.space	512
  26      00000000 
  26      00000000 
  26      00000000 
  26      00000000 
  27              		.align	2
  28              	ProbeRS232_OS_TaskTCB:
  29 0200 00000000 		.space	192
  29      00000000 
  29      00000000 
  29      00000000 
  29      00000000 
  30              		.align	2
  31              	ProbeRS232_OS_Sem:
  32 02c0 00000000 		.space	40
  32      00000000 
  32      00000000 
  32      00000000 
  32      00000000 
  33              		.section	.rodata
  34              		.align	2
  35              	.LC0:
  36 0000 50726F62 		.ascii	"Probe RS-232\000"
  36      65205253 
  36      2D323332 
  36      00
  37 000d 000000   		.align	2
  38              	.LC1:
ARM GAS  C:\Users\daniel01\AppData\Local\Temp\ccLTjjhP.s 			page 2


  39 0010 50726F62 		.ascii	"Probe RS232\000"
  39      65205253 
  39      32333200 
  40              		.section	.text.ProbeRS232_OS_Init,"ax",%progbits
  41              		.align	2
  42              		.global	ProbeRS232_OS_Init
  43              		.thumb
  44              		.thumb_func
  45              		.type	ProbeRS232_OS_Init, %function
  46              	ProbeRS232_OS_Init:
  47              	.LFB0:
  48              		.file 1 "..\\..\\..\\..\\..\\..\\uC-Probe\\Target\\Communication\\Generic\\RS-232\\OS\\uCOS-III\\p
   1:..\..\..\..\..\..\uC-Probe\Target\Communication\Generic\RS-232\OS\uCOS-III/probe_rs232_os.c **** /*
   2:..\..\..\..\..\..\uC-Probe\Target\Communication\Generic\RS-232\OS\uCOS-III/probe_rs232_os.c **** ***************************************************************************************************
   3:..\..\..\..\..\..\uC-Probe\Target\Communication\Generic\RS-232\OS\uCOS-III/probe_rs232_os.c **** *                                       uC/Probe Communication
   4:..\..\..\..\..\..\uC-Probe\Target\Communication\Generic\RS-232\OS\uCOS-III/probe_rs232_os.c **** *
   5:..\..\..\..\..\..\uC-Probe\Target\Communication\Generic\RS-232\OS\uCOS-III/probe_rs232_os.c **** *                         (c) Copyright 2007-2008; Micrium, Inc.; Weston, FL
   6:..\..\..\..\..\..\uC-Probe\Target\Communication\Generic\RS-232\OS\uCOS-III/probe_rs232_os.c **** *
   7:..\..\..\..\..\..\uC-Probe\Target\Communication\Generic\RS-232\OS\uCOS-III/probe_rs232_os.c **** *               All rights reserved.  Protected by international copyright laws.
   8:..\..\..\..\..\..\uC-Probe\Target\Communication\Generic\RS-232\OS\uCOS-III/probe_rs232_os.c **** *               Knowledge of the source code may NOT be used to develop a similar product.
   9:..\..\..\..\..\..\uC-Probe\Target\Communication\Generic\RS-232\OS\uCOS-III/probe_rs232_os.c **** *               Please help us continue to provide the Embedded community with the finest
  10:..\..\..\..\..\..\uC-Probe\Target\Communication\Generic\RS-232\OS\uCOS-III/probe_rs232_os.c **** *               software available.  Your honesty is greatly appreciated.
  11:..\..\..\..\..\..\uC-Probe\Target\Communication\Generic\RS-232\OS\uCOS-III/probe_rs232_os.c **** ***************************************************************************************************
  12:..\..\..\..\..\..\uC-Probe\Target\Communication\Generic\RS-232\OS\uCOS-III/probe_rs232_os.c **** */
  13:..\..\..\..\..\..\uC-Probe\Target\Communication\Generic\RS-232\OS\uCOS-III/probe_rs232_os.c **** 
  14:..\..\..\..\..\..\uC-Probe\Target\Communication\Generic\RS-232\OS\uCOS-III/probe_rs232_os.c **** /*
  15:..\..\..\..\..\..\uC-Probe\Target\Communication\Generic\RS-232\OS\uCOS-III/probe_rs232_os.c **** ***************************************************************************************************
  16:..\..\..\..\..\..\uC-Probe\Target\Communication\Generic\RS-232\OS\uCOS-III/probe_rs232_os.c **** *
  17:..\..\..\..\..\..\uC-Probe\Target\Communication\Generic\RS-232\OS\uCOS-III/probe_rs232_os.c **** *                                        COMMUNICATION: RS-232
  18:..\..\..\..\..\..\uC-Probe\Target\Communication\Generic\RS-232\OS\uCOS-III/probe_rs232_os.c **** *                                        Micrium uC/OS-III PORT
  19:..\..\..\..\..\..\uC-Probe\Target\Communication\Generic\RS-232\OS\uCOS-III/probe_rs232_os.c **** *
  20:..\..\..\..\..\..\uC-Probe\Target\Communication\Generic\RS-232\OS\uCOS-III/probe_rs232_os.c **** * Filename      : probe_rs232_os.c
  21:..\..\..\..\..\..\uC-Probe\Target\Communication\Generic\RS-232\OS\uCOS-III/probe_rs232_os.c **** * Version       : V2.30
  22:..\..\..\..\..\..\uC-Probe\Target\Communication\Generic\RS-232\OS\uCOS-III/probe_rs232_os.c **** * Programmer(s) : BAN
  23:..\..\..\..\..\..\uC-Probe\Target\Communication\Generic\RS-232\OS\uCOS-III/probe_rs232_os.c **** *                 FT
  24:..\..\..\..\..\..\uC-Probe\Target\Communication\Generic\RS-232\OS\uCOS-III/probe_rs232_os.c **** ***************************************************************************************************
  25:..\..\..\..\..\..\uC-Probe\Target\Communication\Generic\RS-232\OS\uCOS-III/probe_rs232_os.c **** * Note(s)       : (1) This file is the uC/OS-III layer for the uC/Probe RS-232 Communication Module
  26:..\..\..\..\..\..\uC-Probe\Target\Communication\Generic\RS-232\OS\uCOS-III/probe_rs232_os.c **** *
  27:..\..\..\..\..\..\uC-Probe\Target\Communication\Generic\RS-232\OS\uCOS-III/probe_rs232_os.c **** *                 (2) Assumes uC/OS-II V3.00 is included in the project build.
  28:..\..\..\..\..\..\uC-Probe\Target\Communication\Generic\RS-232\OS\uCOS-III/probe_rs232_os.c **** ***************************************************************************************************
  29:..\..\..\..\..\..\uC-Probe\Target\Communication\Generic\RS-232\OS\uCOS-III/probe_rs232_os.c **** */
  30:..\..\..\..\..\..\uC-Probe\Target\Communication\Generic\RS-232\OS\uCOS-III/probe_rs232_os.c **** 
  31:..\..\..\..\..\..\uC-Probe\Target\Communication\Generic\RS-232\OS\uCOS-III/probe_rs232_os.c **** 
  32:..\..\..\..\..\..\uC-Probe\Target\Communication\Generic\RS-232\OS\uCOS-III/probe_rs232_os.c **** /*
  33:..\..\..\..\..\..\uC-Probe\Target\Communication\Generic\RS-232\OS\uCOS-III/probe_rs232_os.c **** ***************************************************************************************************
  34:..\..\..\..\..\..\uC-Probe\Target\Communication\Generic\RS-232\OS\uCOS-III/probe_rs232_os.c **** *                                            INCLUDE FILES
  35:..\..\..\..\..\..\uC-Probe\Target\Communication\Generic\RS-232\OS\uCOS-III/probe_rs232_os.c **** ***************************************************************************************************
  36:..\..\..\..\..\..\uC-Probe\Target\Communication\Generic\RS-232\OS\uCOS-III/probe_rs232_os.c **** */
  37:..\..\..\..\..\..\uC-Probe\Target\Communication\Generic\RS-232\OS\uCOS-III/probe_rs232_os.c **** 
  38:..\..\..\..\..\..\uC-Probe\Target\Communication\Generic\RS-232\OS\uCOS-III/probe_rs232_os.c **** #include  <probe_com.h>
  39:..\..\..\..\..\..\uC-Probe\Target\Communication\Generic\RS-232\OS\uCOS-III/probe_rs232_os.c **** #include  <probe_rs232.h>
  40:..\..\..\..\..\..\uC-Probe\Target\Communication\Generic\RS-232\OS\uCOS-III/probe_rs232_os.c **** #include  <os.h>
  41:..\..\..\..\..\..\uC-Probe\Target\Communication\Generic\RS-232\OS\uCOS-III/probe_rs232_os.c **** 
  42:..\..\..\..\..\..\uC-Probe\Target\Communication\Generic\RS-232\OS\uCOS-III/probe_rs232_os.c **** 
  43:..\..\..\..\..\..\uC-Probe\Target\Communication\Generic\RS-232\OS\uCOS-III/probe_rs232_os.c **** /*
  44:..\..\..\..\..\..\uC-Probe\Target\Communication\Generic\RS-232\OS\uCOS-III/probe_rs232_os.c **** ***************************************************************************************************
  45:..\..\..\..\..\..\uC-Probe\Target\Communication\Generic\RS-232\OS\uCOS-III/probe_rs232_os.c **** *                                               ENABLE
ARM GAS  C:\Users\daniel01\AppData\Local\Temp\ccLTjjhP.s 			page 3


  46:..\..\..\..\..\..\uC-Probe\Target\Communication\Generic\RS-232\OS\uCOS-III/probe_rs232_os.c **** *
  47:..\..\..\..\..\..\uC-Probe\Target\Communication\Generic\RS-232\OS\uCOS-III/probe_rs232_os.c **** * Note(s) : (1) See 'probe_rs232.h  ENABLE'.
  48:..\..\..\..\..\..\uC-Probe\Target\Communication\Generic\RS-232\OS\uCOS-III/probe_rs232_os.c **** ***************************************************************************************************
  49:..\..\..\..\..\..\uC-Probe\Target\Communication\Generic\RS-232\OS\uCOS-III/probe_rs232_os.c **** */
  50:..\..\..\..\..\..\uC-Probe\Target\Communication\Generic\RS-232\OS\uCOS-III/probe_rs232_os.c **** 
  51:..\..\..\..\..\..\uC-Probe\Target\Communication\Generic\RS-232\OS\uCOS-III/probe_rs232_os.c **** #if (PROBE_COM_CFG_RS232_EN == DEF_ENABLED)                     /* See Note #1.                    
  52:..\..\..\..\..\..\uC-Probe\Target\Communication\Generic\RS-232\OS\uCOS-III/probe_rs232_os.c **** 
  53:..\..\..\..\..\..\uC-Probe\Target\Communication\Generic\RS-232\OS\uCOS-III/probe_rs232_os.c **** 
  54:..\..\..\..\..\..\uC-Probe\Target\Communication\Generic\RS-232\OS\uCOS-III/probe_rs232_os.c **** /*
  55:..\..\..\..\..\..\uC-Probe\Target\Communication\Generic\RS-232\OS\uCOS-III/probe_rs232_os.c **** ***************************************************************************************************
  56:..\..\..\..\..\..\uC-Probe\Target\Communication\Generic\RS-232\OS\uCOS-III/probe_rs232_os.c **** *                                            LOCAL DEFINES
  57:..\..\..\..\..\..\uC-Probe\Target\Communication\Generic\RS-232\OS\uCOS-III/probe_rs232_os.c **** ***************************************************************************************************
  58:..\..\..\..\..\..\uC-Probe\Target\Communication\Generic\RS-232\OS\uCOS-III/probe_rs232_os.c **** */
  59:..\..\..\..\..\..\uC-Probe\Target\Communication\Generic\RS-232\OS\uCOS-III/probe_rs232_os.c **** 
  60:..\..\..\..\..\..\uC-Probe\Target\Communication\Generic\RS-232\OS\uCOS-III/probe_rs232_os.c **** #define  PROBE_RS232_TASK_STK_LIMIT_PCT_FULL             90u
  61:..\..\..\..\..\..\uC-Probe\Target\Communication\Generic\RS-232\OS\uCOS-III/probe_rs232_os.c **** #define  PROBE_RS232_TASK_STK_LIMIT             ((PROBE_RS232_CFG_TASK_STK_SIZE * (100u - PROBE_RS2
  62:..\..\..\..\..\..\uC-Probe\Target\Communication\Generic\RS-232\OS\uCOS-III/probe_rs232_os.c **** 
  63:..\..\..\..\..\..\uC-Probe\Target\Communication\Generic\RS-232\OS\uCOS-III/probe_rs232_os.c **** /*
  64:..\..\..\..\..\..\uC-Probe\Target\Communication\Generic\RS-232\OS\uCOS-III/probe_rs232_os.c **** ***************************************************************************************************
  65:..\..\..\..\..\..\uC-Probe\Target\Communication\Generic\RS-232\OS\uCOS-III/probe_rs232_os.c **** *                                           LOCAL CONSTANTS
  66:..\..\..\..\..\..\uC-Probe\Target\Communication\Generic\RS-232\OS\uCOS-III/probe_rs232_os.c **** ***************************************************************************************************
  67:..\..\..\..\..\..\uC-Probe\Target\Communication\Generic\RS-232\OS\uCOS-III/probe_rs232_os.c **** */
  68:..\..\..\..\..\..\uC-Probe\Target\Communication\Generic\RS-232\OS\uCOS-III/probe_rs232_os.c **** 
  69:..\..\..\..\..\..\uC-Probe\Target\Communication\Generic\RS-232\OS\uCOS-III/probe_rs232_os.c **** 
  70:..\..\..\..\..\..\uC-Probe\Target\Communication\Generic\RS-232\OS\uCOS-III/probe_rs232_os.c **** /*
  71:..\..\..\..\..\..\uC-Probe\Target\Communication\Generic\RS-232\OS\uCOS-III/probe_rs232_os.c **** ***************************************************************************************************
  72:..\..\..\..\..\..\uC-Probe\Target\Communication\Generic\RS-232\OS\uCOS-III/probe_rs232_os.c **** *                                          LOCAL DATA TYPES
  73:..\..\..\..\..\..\uC-Probe\Target\Communication\Generic\RS-232\OS\uCOS-III/probe_rs232_os.c **** ***************************************************************************************************
  74:..\..\..\..\..\..\uC-Probe\Target\Communication\Generic\RS-232\OS\uCOS-III/probe_rs232_os.c **** */
  75:..\..\..\..\..\..\uC-Probe\Target\Communication\Generic\RS-232\OS\uCOS-III/probe_rs232_os.c **** 
  76:..\..\..\..\..\..\uC-Probe\Target\Communication\Generic\RS-232\OS\uCOS-III/probe_rs232_os.c **** 
  77:..\..\..\..\..\..\uC-Probe\Target\Communication\Generic\RS-232\OS\uCOS-III/probe_rs232_os.c **** /*
  78:..\..\..\..\..\..\uC-Probe\Target\Communication\Generic\RS-232\OS\uCOS-III/probe_rs232_os.c **** ***************************************************************************************************
  79:..\..\..\..\..\..\uC-Probe\Target\Communication\Generic\RS-232\OS\uCOS-III/probe_rs232_os.c **** *                                            LOCAL TABLES
  80:..\..\..\..\..\..\uC-Probe\Target\Communication\Generic\RS-232\OS\uCOS-III/probe_rs232_os.c **** ***************************************************************************************************
  81:..\..\..\..\..\..\uC-Probe\Target\Communication\Generic\RS-232\OS\uCOS-III/probe_rs232_os.c **** */
  82:..\..\..\..\..\..\uC-Probe\Target\Communication\Generic\RS-232\OS\uCOS-III/probe_rs232_os.c **** 
  83:..\..\..\..\..\..\uC-Probe\Target\Communication\Generic\RS-232\OS\uCOS-III/probe_rs232_os.c **** 
  84:..\..\..\..\..\..\uC-Probe\Target\Communication\Generic\RS-232\OS\uCOS-III/probe_rs232_os.c **** /*
  85:..\..\..\..\..\..\uC-Probe\Target\Communication\Generic\RS-232\OS\uCOS-III/probe_rs232_os.c **** ***************************************************************************************************
  86:..\..\..\..\..\..\uC-Probe\Target\Communication\Generic\RS-232\OS\uCOS-III/probe_rs232_os.c **** *                                       LOCAL GLOBAL VARIABLES
  87:..\..\..\..\..\..\uC-Probe\Target\Communication\Generic\RS-232\OS\uCOS-III/probe_rs232_os.c **** ***************************************************************************************************
  88:..\..\..\..\..\..\uC-Probe\Target\Communication\Generic\RS-232\OS\uCOS-III/probe_rs232_os.c **** */
  89:..\..\..\..\..\..\uC-Probe\Target\Communication\Generic\RS-232\OS\uCOS-III/probe_rs232_os.c **** 
  90:..\..\..\..\..\..\uC-Probe\Target\Communication\Generic\RS-232\OS\uCOS-III/probe_rs232_os.c **** #if (PROBE_RS232_CFG_PARSE_TASK_EN == DEF_ENABLED)
  91:..\..\..\..\..\..\uC-Probe\Target\Communication\Generic\RS-232\OS\uCOS-III/probe_rs232_os.c **** static  CPU_STK  ProbeRS232_OS_TaskStk[PROBE_RS232_CFG_TASK_STK_SIZE];  /* Probe RS-232 task stack.
  92:..\..\..\..\..\..\uC-Probe\Target\Communication\Generic\RS-232\OS\uCOS-III/probe_rs232_os.c **** static  OS_TCB   ProbeRS232_OS_TaskTCB;
  93:..\..\..\..\..\..\uC-Probe\Target\Communication\Generic\RS-232\OS\uCOS-III/probe_rs232_os.c **** 
  94:..\..\..\..\..\..\uC-Probe\Target\Communication\Generic\RS-232\OS\uCOS-III/probe_rs232_os.c **** static  OS_SEM   ProbeRS232_OS_Sem;                                     /* Packet receive signal.  
  95:..\..\..\..\..\..\uC-Probe\Target\Communication\Generic\RS-232\OS\uCOS-III/probe_rs232_os.c **** #endif
  96:..\..\..\..\..\..\uC-Probe\Target\Communication\Generic\RS-232\OS\uCOS-III/probe_rs232_os.c **** 
  97:..\..\..\..\..\..\uC-Probe\Target\Communication\Generic\RS-232\OS\uCOS-III/probe_rs232_os.c **** 
  98:..\..\..\..\..\..\uC-Probe\Target\Communication\Generic\RS-232\OS\uCOS-III/probe_rs232_os.c **** /*
  99:..\..\..\..\..\..\uC-Probe\Target\Communication\Generic\RS-232\OS\uCOS-III/probe_rs232_os.c **** ***************************************************************************************************
 100:..\..\..\..\..\..\uC-Probe\Target\Communication\Generic\RS-232\OS\uCOS-III/probe_rs232_os.c **** *                                      LOCAL FUNCTION PROTOTYPES
 101:..\..\..\..\..\..\uC-Probe\Target\Communication\Generic\RS-232\OS\uCOS-III/probe_rs232_os.c **** ***************************************************************************************************
 102:..\..\..\..\..\..\uC-Probe\Target\Communication\Generic\RS-232\OS\uCOS-III/probe_rs232_os.c **** */
ARM GAS  C:\Users\daniel01\AppData\Local\Temp\ccLTjjhP.s 			page 4


 103:..\..\..\..\..\..\uC-Probe\Target\Communication\Generic\RS-232\OS\uCOS-III/probe_rs232_os.c **** 
 104:..\..\..\..\..\..\uC-Probe\Target\Communication\Generic\RS-232\OS\uCOS-III/probe_rs232_os.c **** #if (PROBE_RS232_CFG_PARSE_TASK_EN == DEF_ENABLED)
 105:..\..\..\..\..\..\uC-Probe\Target\Communication\Generic\RS-232\OS\uCOS-III/probe_rs232_os.c **** static  void  ProbeRS232_OS_Task(void *p_arg);                          /* Probe RS-232 task.      
 106:..\..\..\..\..\..\uC-Probe\Target\Communication\Generic\RS-232\OS\uCOS-III/probe_rs232_os.c **** #endif
 107:..\..\..\..\..\..\uC-Probe\Target\Communication\Generic\RS-232\OS\uCOS-III/probe_rs232_os.c **** 
 108:..\..\..\..\..\..\uC-Probe\Target\Communication\Generic\RS-232\OS\uCOS-III/probe_rs232_os.c **** 
 109:..\..\..\..\..\..\uC-Probe\Target\Communication\Generic\RS-232\OS\uCOS-III/probe_rs232_os.c **** /*
 110:..\..\..\..\..\..\uC-Probe\Target\Communication\Generic\RS-232\OS\uCOS-III/probe_rs232_os.c **** ***************************************************************************************************
 111:..\..\..\..\..\..\uC-Probe\Target\Communication\Generic\RS-232\OS\uCOS-III/probe_rs232_os.c **** *                                     LOCAL CONFIGURATION ERRORS
 112:..\..\..\..\..\..\uC-Probe\Target\Communication\Generic\RS-232\OS\uCOS-III/probe_rs232_os.c **** ***************************************************************************************************
 113:..\..\..\..\..\..\uC-Probe\Target\Communication\Generic\RS-232\OS\uCOS-III/probe_rs232_os.c **** */
 114:..\..\..\..\..\..\uC-Probe\Target\Communication\Generic\RS-232\OS\uCOS-III/probe_rs232_os.c **** 
 115:..\..\..\..\..\..\uC-Probe\Target\Communication\Generic\RS-232\OS\uCOS-III/probe_rs232_os.c **** #if     (PROBE_RS232_CFG_PARSE_TASK_EN == DEF_ENABLED)
 116:..\..\..\..\..\..\uC-Probe\Target\Communication\Generic\RS-232\OS\uCOS-III/probe_rs232_os.c **** #if     (OS_CFG_SEM_EN < 1)
 117:..\..\..\..\..\..\uC-Probe\Target\Communication\Generic\RS-232\OS\uCOS-III/probe_rs232_os.c **** #error  "OS_CFG_SEM_EN          illegally #define'd in 'os_cfg.h'   "
 118:..\..\..\..\..\..\uC-Probe\Target\Communication\Generic\RS-232\OS\uCOS-III/probe_rs232_os.c **** #error  "                       [MUST be  > 0]                      "
 119:..\..\..\..\..\..\uC-Probe\Target\Communication\Generic\RS-232\OS\uCOS-III/probe_rs232_os.c **** #endif
 120:..\..\..\..\..\..\uC-Probe\Target\Communication\Generic\RS-232\OS\uCOS-III/probe_rs232_os.c **** #endif
 121:..\..\..\..\..\..\uC-Probe\Target\Communication\Generic\RS-232\OS\uCOS-III/probe_rs232_os.c **** 
 122:..\..\..\..\..\..\uC-Probe\Target\Communication\Generic\RS-232\OS\uCOS-III/probe_rs232_os.c **** 
 123:..\..\..\..\..\..\uC-Probe\Target\Communication\Generic\RS-232\OS\uCOS-III/probe_rs232_os.c **** /*
 124:..\..\..\..\..\..\uC-Probe\Target\Communication\Generic\RS-232\OS\uCOS-III/probe_rs232_os.c **** ***************************************************************************************************
 125:..\..\..\..\..\..\uC-Probe\Target\Communication\Generic\RS-232\OS\uCOS-III/probe_rs232_os.c **** *                                         ProbeRS232_OS_Init()
 126:..\..\..\..\..\..\uC-Probe\Target\Communication\Generic\RS-232\OS\uCOS-III/probe_rs232_os.c **** *
 127:..\..\..\..\..\..\uC-Probe\Target\Communication\Generic\RS-232\OS\uCOS-III/probe_rs232_os.c **** * Description : Create RTOS objects for RS-232 communication.
 128:..\..\..\..\..\..\uC-Probe\Target\Communication\Generic\RS-232\OS\uCOS-III/probe_rs232_os.c **** *
 129:..\..\..\..\..\..\uC-Probe\Target\Communication\Generic\RS-232\OS\uCOS-III/probe_rs232_os.c **** * Argument(s) : none.
 130:..\..\..\..\..\..\uC-Probe\Target\Communication\Generic\RS-232\OS\uCOS-III/probe_rs232_os.c **** *
 131:..\..\..\..\..\..\uC-Probe\Target\Communication\Generic\RS-232\OS\uCOS-III/probe_rs232_os.c **** * Return(s)   : DEF_OK,   if OS initialization successful.
 132:..\..\..\..\..\..\uC-Probe\Target\Communication\Generic\RS-232\OS\uCOS-III/probe_rs232_os.c **** *               DEF_FAIL, otherwise.
 133:..\..\..\..\..\..\uC-Probe\Target\Communication\Generic\RS-232\OS\uCOS-III/probe_rs232_os.c **** *
 134:..\..\..\..\..\..\uC-Probe\Target\Communication\Generic\RS-232\OS\uCOS-III/probe_rs232_os.c **** * Caller(s)   : ProbeRS232_Init().
 135:..\..\..\..\..\..\uC-Probe\Target\Communication\Generic\RS-232\OS\uCOS-III/probe_rs232_os.c **** *
 136:..\..\..\..\..\..\uC-Probe\Target\Communication\Generic\RS-232\OS\uCOS-III/probe_rs232_os.c **** * Note(s)     : none.
 137:..\..\..\..\..\..\uC-Probe\Target\Communication\Generic\RS-232\OS\uCOS-III/probe_rs232_os.c **** ***************************************************************************************************
 138:..\..\..\..\..\..\uC-Probe\Target\Communication\Generic\RS-232\OS\uCOS-III/probe_rs232_os.c **** */
 139:..\..\..\..\..\..\uC-Probe\Target\Communication\Generic\RS-232\OS\uCOS-III/probe_rs232_os.c **** 
 140:..\..\..\..\..\..\uC-Probe\Target\Communication\Generic\RS-232\OS\uCOS-III/probe_rs232_os.c **** #if (PROBE_RS232_CFG_PARSE_TASK_EN == DEF_ENABLED)
 141:..\..\..\..\..\..\uC-Probe\Target\Communication\Generic\RS-232\OS\uCOS-III/probe_rs232_os.c **** CPU_BOOLEAN  ProbeRS232_OS_Init (void)
 142:..\..\..\..\..\..\uC-Probe\Target\Communication\Generic\RS-232\OS\uCOS-III/probe_rs232_os.c **** {
  49              		.loc 1 142 0
  50              		.cfi_startproc
  51              		@ args = 0, pretend = 0, frame = 8
  52              		@ frame_needed = 1, uses_anonymous_args = 0
  53 0000 80B5     		push	{r7, lr}
  54              	.LCFI0:
  55              		.cfi_def_cfa_offset 8
  56 0002 8CB0     		sub	sp, sp, #48
  57              	.LCFI1:
  58              		.cfi_def_cfa_offset 56
  59 0004 0AAF     		add	r7, sp, #40
  60              		.cfi_offset 14, -4
  61              		.cfi_offset 7, -8
  62              	.LCFI2:
  63              		.cfi_def_cfa 7, 16
 143:..\..\..\..\..\..\uC-Probe\Target\Communication\Generic\RS-232\OS\uCOS-III/probe_rs232_os.c ****     OS_ERR  os_err;
 144:..\..\..\..\..\..\uC-Probe\Target\Communication\Generic\RS-232\OS\uCOS-III/probe_rs232_os.c **** 
ARM GAS  C:\Users\daniel01\AppData\Local\Temp\ccLTjjhP.s 			page 5


 145:..\..\..\..\..\..\uC-Probe\Target\Communication\Generic\RS-232\OS\uCOS-III/probe_rs232_os.c **** 
 146:..\..\..\..\..\..\uC-Probe\Target\Communication\Generic\RS-232\OS\uCOS-III/probe_rs232_os.c ****     OSSemCreate((OS_SEM     *)&ProbeRS232_OS_Sem,
  64              		.loc 1 146 0
  65 0006 07F10603 		add	r3, r7, #6
  66 000a 40F20000 		movw	r0, #:lower16:ProbeRS232_OS_Sem
  67 000e C0F20000 		movt	r0, #:upper16:ProbeRS232_OS_Sem
  68 0012 40F20001 		movw	r1, #:lower16:.LC0
  69 0016 C0F20001 		movt	r1, #:upper16:.LC0
  70 001a 4FF00002 		mov	r2, #0
  71 001e FFF7FEFF 		bl	OSSemCreate
 147:..\..\..\..\..\..\uC-Probe\Target\Communication\Generic\RS-232\OS\uCOS-III/probe_rs232_os.c ****                 (CPU_CHAR   *)"Probe RS-232",
 148:..\..\..\..\..\..\uC-Probe\Target\Communication\Generic\RS-232\OS\uCOS-III/probe_rs232_os.c ****                 (OS_SEM_CTR  ) 0,
 149:..\..\..\..\..\..\uC-Probe\Target\Communication\Generic\RS-232\OS\uCOS-III/probe_rs232_os.c ****                 (OS_ERR     *)&os_err);
 150:..\..\..\..\..\..\uC-Probe\Target\Communication\Generic\RS-232\OS\uCOS-III/probe_rs232_os.c **** 
 151:..\..\..\..\..\..\uC-Probe\Target\Communication\Generic\RS-232\OS\uCOS-III/probe_rs232_os.c ****     if (os_err != OS_ERR_NONE) {
  72              		.loc 1 151 0
  73 0022 FB88     		ldrh	r3, [r7, #6]
  74 0024 002B     		cmp	r3, #0
  75 0026 02D0     		beq	.L2
 152:..\..\..\..\..\..\uC-Probe\Target\Communication\Generic\RS-232\OS\uCOS-III/probe_rs232_os.c ****         return (DEF_FAIL);
  76              		.loc 1 152 0
  77 0028 4FF00003 		mov	r3, #0
  78 002c 34E0     		b	.L3
  79              	.L2:
 153:..\..\..\..\..\..\uC-Probe\Target\Communication\Generic\RS-232\OS\uCOS-III/probe_rs232_os.c ****     }
 154:..\..\..\..\..\..\uC-Probe\Target\Communication\Generic\RS-232\OS\uCOS-III/probe_rs232_os.c **** 
 155:..\..\..\..\..\..\uC-Probe\Target\Communication\Generic\RS-232\OS\uCOS-III/probe_rs232_os.c **** 
 156:..\..\..\..\..\..\uC-Probe\Target\Communication\Generic\RS-232\OS\uCOS-III/probe_rs232_os.c ****     OSTaskCreate((OS_TCB     *)&ProbeRS232_OS_TaskTCB,
  80              		.loc 1 156 0
  81 002e 4FF00403 		mov	r3, #4
  82 0032 0093     		str	r3, [sp, #0]
  83 0034 40F20003 		movw	r3, #:lower16:ProbeRS232_OS_TaskStk
  84 0038 C0F20003 		movt	r3, #:upper16:ProbeRS232_OS_TaskStk
  85 003c 0193     		str	r3, [sp, #4]
  86 003e 4FF00C03 		mov	r3, #12
  87 0042 0293     		str	r3, [sp, #8]
  88 0044 4FF08003 		mov	r3, #128
  89 0048 0393     		str	r3, [sp, #12]
  90 004a 4FF00003 		mov	r3, #0
  91 004e 0493     		str	r3, [sp, #16]
  92 0050 4FF00003 		mov	r3, #0
  93 0054 0593     		str	r3, [sp, #20]
  94 0056 4FF00003 		mov	r3, #0
  95 005a 0693     		str	r3, [sp, #24]
  96 005c 4FF00303 		mov	r3, #3
  97 0060 0793     		str	r3, [sp, #28]
  98 0062 07F10603 		add	r3, r7, #6
  99 0066 0893     		str	r3, [sp, #32]
 100 0068 40F20000 		movw	r0, #:lower16:ProbeRS232_OS_TaskTCB
 101 006c C0F20000 		movt	r0, #:upper16:ProbeRS232_OS_TaskTCB
 102 0070 40F20001 		movw	r1, #:lower16:.LC1
 103 0074 C0F20001 		movt	r1, #:upper16:.LC1
 104 0078 40F20002 		movw	r2, #:lower16:ProbeRS232_OS_Task
 105 007c C0F20002 		movt	r2, #:upper16:ProbeRS232_OS_Task
 106 0080 4FF00003 		mov	r3, #0
 107 0084 FFF7FEFF 		bl	OSTaskCreate
 157:..\..\..\..\..\..\uC-Probe\Target\Communication\Generic\RS-232\OS\uCOS-III/probe_rs232_os.c ****                  (CPU_CHAR   *)"Probe RS232",
ARM GAS  C:\Users\daniel01\AppData\Local\Temp\ccLTjjhP.s 			page 6


 158:..\..\..\..\..\..\uC-Probe\Target\Communication\Generic\RS-232\OS\uCOS-III/probe_rs232_os.c ****                  (OS_TASK_PTR ) ProbeRS232_OS_Task,
 159:..\..\..\..\..\..\uC-Probe\Target\Communication\Generic\RS-232\OS\uCOS-III/probe_rs232_os.c ****                  (void       *) 0,
 160:..\..\..\..\..\..\uC-Probe\Target\Communication\Generic\RS-232\OS\uCOS-III/probe_rs232_os.c ****                  (OS_PRIO     ) PROBE_RS232_CFG_TASK_PRIO,
 161:..\..\..\..\..\..\uC-Probe\Target\Communication\Generic\RS-232\OS\uCOS-III/probe_rs232_os.c ****                  (CPU_STK    *)&ProbeRS232_OS_TaskStk[0],
 162:..\..\..\..\..\..\uC-Probe\Target\Communication\Generic\RS-232\OS\uCOS-III/probe_rs232_os.c ****                  (CPU_STK_SIZE) PROBE_RS232_TASK_STK_LIMIT,
 163:..\..\..\..\..\..\uC-Probe\Target\Communication\Generic\RS-232\OS\uCOS-III/probe_rs232_os.c ****                  (CPU_STK_SIZE) PROBE_RS232_CFG_TASK_STK_SIZE,
 164:..\..\..\..\..\..\uC-Probe\Target\Communication\Generic\RS-232\OS\uCOS-III/probe_rs232_os.c ****                  (OS_MSG_QTY  ) 0u,
 165:..\..\..\..\..\..\uC-Probe\Target\Communication\Generic\RS-232\OS\uCOS-III/probe_rs232_os.c ****                  (OS_TICK     ) 0u,
 166:..\..\..\..\..\..\uC-Probe\Target\Communication\Generic\RS-232\OS\uCOS-III/probe_rs232_os.c ****                  (void       *) 0,
 167:..\..\..\..\..\..\uC-Probe\Target\Communication\Generic\RS-232\OS\uCOS-III/probe_rs232_os.c ****                  (OS_OPT      )(OS_OPT_TASK_STK_CHK | OS_OPT_TASK_STK_CLR),
 168:..\..\..\..\..\..\uC-Probe\Target\Communication\Generic\RS-232\OS\uCOS-III/probe_rs232_os.c ****                  (OS_ERR     *)&os_err);
 169:..\..\..\..\..\..\uC-Probe\Target\Communication\Generic\RS-232\OS\uCOS-III/probe_rs232_os.c **** 
 170:..\..\..\..\..\..\uC-Probe\Target\Communication\Generic\RS-232\OS\uCOS-III/probe_rs232_os.c ****     if (os_err != OS_ERR_NONE) {
 108              		.loc 1 170 0
 109 0088 FB88     		ldrh	r3, [r7, #6]
 110 008a 002B     		cmp	r3, #0
 111 008c 02D0     		beq	.L4
 171:..\..\..\..\..\..\uC-Probe\Target\Communication\Generic\RS-232\OS\uCOS-III/probe_rs232_os.c ****         return (DEF_FAIL);
 112              		.loc 1 171 0
 113 008e 4FF00003 		mov	r3, #0
 114 0092 01E0     		b	.L3
 115              	.L4:
 172:..\..\..\..\..\..\uC-Probe\Target\Communication\Generic\RS-232\OS\uCOS-III/probe_rs232_os.c ****     }
 173:..\..\..\..\..\..\uC-Probe\Target\Communication\Generic\RS-232\OS\uCOS-III/probe_rs232_os.c **** 
 174:..\..\..\..\..\..\uC-Probe\Target\Communication\Generic\RS-232\OS\uCOS-III/probe_rs232_os.c ****     return (DEF_OK);
 116              		.loc 1 174 0
 117 0094 4FF00103 		mov	r3, #1
 118              	.L3:
 175:..\..\..\..\..\..\uC-Probe\Target\Communication\Generic\RS-232\OS\uCOS-III/probe_rs232_os.c **** }
 119              		.loc 1 175 0
 120 0098 1846     		mov	r0, r3
 121 009a 07F10807 		add	r7, r7, #8
 122 009e BD46     		mov	sp, r7
 123 00a0 80BD     		pop	{r7, pc}
 124              		.cfi_endproc
 125              	.LFE0:
 126              		.size	ProbeRS232_OS_Init, .-ProbeRS232_OS_Init
 127 00a2 00BF     		.section	.text.ProbeRS232_OS_Pend,"ax",%progbits
 128              		.align	2
 129              		.global	ProbeRS232_OS_Pend
 130              		.thumb
 131              		.thumb_func
 132              		.type	ProbeRS232_OS_Pend, %function
 133              	ProbeRS232_OS_Pend:
 134              	.LFB1:
 176:..\..\..\..\..\..\uC-Probe\Target\Communication\Generic\RS-232\OS\uCOS-III/probe_rs232_os.c **** #endif
 177:..\..\..\..\..\..\uC-Probe\Target\Communication\Generic\RS-232\OS\uCOS-III/probe_rs232_os.c **** 
 178:..\..\..\..\..\..\uC-Probe\Target\Communication\Generic\RS-232\OS\uCOS-III/probe_rs232_os.c **** 
 179:..\..\..\..\..\..\uC-Probe\Target\Communication\Generic\RS-232\OS\uCOS-III/probe_rs232_os.c **** /*
 180:..\..\..\..\..\..\uC-Probe\Target\Communication\Generic\RS-232\OS\uCOS-III/probe_rs232_os.c **** ***************************************************************************************************
 181:..\..\..\..\..\..\uC-Probe\Target\Communication\Generic\RS-232\OS\uCOS-III/probe_rs232_os.c **** *                                       ProbeRS232_OS_Pend()
 182:..\..\..\..\..\..\uC-Probe\Target\Communication\Generic\RS-232\OS\uCOS-III/probe_rs232_os.c **** *
 183:..\..\..\..\..\..\uC-Probe\Target\Communication\Generic\RS-232\OS\uCOS-III/probe_rs232_os.c **** * Description : Wait for a packet to be received.
 184:..\..\..\..\..\..\uC-Probe\Target\Communication\Generic\RS-232\OS\uCOS-III/probe_rs232_os.c **** *
 185:..\..\..\..\..\..\uC-Probe\Target\Communication\Generic\RS-232\OS\uCOS-III/probe_rs232_os.c **** * Argument(s) : none.
 186:..\..\..\..\..\..\uC-Probe\Target\Communication\Generic\RS-232\OS\uCOS-III/probe_rs232_os.c **** *
 187:..\..\..\..\..\..\uC-Probe\Target\Communication\Generic\RS-232\OS\uCOS-III/probe_rs232_os.c **** * Return(s)   : none.
ARM GAS  C:\Users\daniel01\AppData\Local\Temp\ccLTjjhP.s 			page 7


 188:..\..\..\..\..\..\uC-Probe\Target\Communication\Generic\RS-232\OS\uCOS-III/probe_rs232_os.c **** *
 189:..\..\..\..\..\..\uC-Probe\Target\Communication\Generic\RS-232\OS\uCOS-III/probe_rs232_os.c **** * Caller(s)   : ProbeRS232_Task().
 190:..\..\..\..\..\..\uC-Probe\Target\Communication\Generic\RS-232\OS\uCOS-III/probe_rs232_os.c **** *
 191:..\..\..\..\..\..\uC-Probe\Target\Communication\Generic\RS-232\OS\uCOS-III/probe_rs232_os.c **** * Note(s)     : none.
 192:..\..\..\..\..\..\uC-Probe\Target\Communication\Generic\RS-232\OS\uCOS-III/probe_rs232_os.c **** ***************************************************************************************************
 193:..\..\..\..\..\..\uC-Probe\Target\Communication\Generic\RS-232\OS\uCOS-III/probe_rs232_os.c **** */
 194:..\..\..\..\..\..\uC-Probe\Target\Communication\Generic\RS-232\OS\uCOS-III/probe_rs232_os.c **** 
 195:..\..\..\..\..\..\uC-Probe\Target\Communication\Generic\RS-232\OS\uCOS-III/probe_rs232_os.c **** #if (PROBE_RS232_CFG_PARSE_TASK_EN == DEF_ENABLED)
 196:..\..\..\..\..\..\uC-Probe\Target\Communication\Generic\RS-232\OS\uCOS-III/probe_rs232_os.c **** void  ProbeRS232_OS_Pend (void)
 197:..\..\..\..\..\..\uC-Probe\Target\Communication\Generic\RS-232\OS\uCOS-III/probe_rs232_os.c **** {
 135              		.loc 1 197 0
 136              		.cfi_startproc
 137              		@ args = 0, pretend = 0, frame = 8
 138              		@ frame_needed = 1, uses_anonymous_args = 0
 139 0000 80B5     		push	{r7, lr}
 140              	.LCFI3:
 141              		.cfi_def_cfa_offset 8
 142 0002 84B0     		sub	sp, sp, #16
 143              	.LCFI4:
 144              		.cfi_def_cfa_offset 24
 145 0004 02AF     		add	r7, sp, #8
 146              		.cfi_offset 14, -4
 147              		.cfi_offset 7, -8
 148              	.LCFI5:
 149              		.cfi_def_cfa 7, 16
 198:..\..\..\..\..\..\uC-Probe\Target\Communication\Generic\RS-232\OS\uCOS-III/probe_rs232_os.c ****     OS_ERR  os_err;
 199:..\..\..\..\..\..\uC-Probe\Target\Communication\Generic\RS-232\OS\uCOS-III/probe_rs232_os.c **** 
 200:..\..\..\..\..\..\uC-Probe\Target\Communication\Generic\RS-232\OS\uCOS-III/probe_rs232_os.c **** 
 201:..\..\..\..\..\..\uC-Probe\Target\Communication\Generic\RS-232\OS\uCOS-III/probe_rs232_os.c ****     OSSemPend((OS_SEM  *)&ProbeRS232_OS_Sem,                    /* Wait for a packet to be received
 150              		.loc 1 201 0
 151 0006 07F10603 		add	r3, r7, #6
 152 000a 0093     		str	r3, [sp, #0]
 153 000c 40F20000 		movw	r0, #:lower16:ProbeRS232_OS_Sem
 154 0010 C0F20000 		movt	r0, #:upper16:ProbeRS232_OS_Sem
 155 0014 4FF00001 		mov	r1, #0
 156 0018 4FF00002 		mov	r2, #0
 157 001c 4FF00003 		mov	r3, #0
 158 0020 FFF7FEFF 		bl	OSSemPend
 202:..\..\..\..\..\..\uC-Probe\Target\Communication\Generic\RS-232\OS\uCOS-III/probe_rs232_os.c ****               (OS_TICK  ) 0u,                                   /* ... without timeout.            
 203:..\..\..\..\..\..\uC-Probe\Target\Communication\Generic\RS-232\OS\uCOS-III/probe_rs232_os.c ****               (OS_OPT   ) OS_OPT_PEND_BLOCKING,
 204:..\..\..\..\..\..\uC-Probe\Target\Communication\Generic\RS-232\OS\uCOS-III/probe_rs232_os.c ****               (CPU_TS  *) 0u,
 205:..\..\..\..\..\..\uC-Probe\Target\Communication\Generic\RS-232\OS\uCOS-III/probe_rs232_os.c ****               (OS_ERR  *)&os_err);
 206:..\..\..\..\..\..\uC-Probe\Target\Communication\Generic\RS-232\OS\uCOS-III/probe_rs232_os.c **** 
 207:..\..\..\..\..\..\uC-Probe\Target\Communication\Generic\RS-232\OS\uCOS-III/probe_rs232_os.c ****    (void)&os_err;
 208:..\..\..\..\..\..\uC-Probe\Target\Communication\Generic\RS-232\OS\uCOS-III/probe_rs232_os.c **** }
 159              		.loc 1 208 0
 160 0024 07F10807 		add	r7, r7, #8
 161 0028 BD46     		mov	sp, r7
 162 002a 80BD     		pop	{r7, pc}
 163              		.cfi_endproc
 164              	.LFE1:
 165              		.size	ProbeRS232_OS_Pend, .-ProbeRS232_OS_Pend
 166              		.section	.text.ProbeRS232_OS_Post,"ax",%progbits
 167              		.align	2
 168              		.global	ProbeRS232_OS_Post
 169              		.thumb
 170              		.thumb_func
ARM GAS  C:\Users\daniel01\AppData\Local\Temp\ccLTjjhP.s 			page 8


 171              		.type	ProbeRS232_OS_Post, %function
 172              	ProbeRS232_OS_Post:
 173              	.LFB2:
 209:..\..\..\..\..\..\uC-Probe\Target\Communication\Generic\RS-232\OS\uCOS-III/probe_rs232_os.c **** #endif
 210:..\..\..\..\..\..\uC-Probe\Target\Communication\Generic\RS-232\OS\uCOS-III/probe_rs232_os.c **** 
 211:..\..\..\..\..\..\uC-Probe\Target\Communication\Generic\RS-232\OS\uCOS-III/probe_rs232_os.c **** 
 212:..\..\..\..\..\..\uC-Probe\Target\Communication\Generic\RS-232\OS\uCOS-III/probe_rs232_os.c **** /*
 213:..\..\..\..\..\..\uC-Probe\Target\Communication\Generic\RS-232\OS\uCOS-III/probe_rs232_os.c **** ***************************************************************************************************
 214:..\..\..\..\..\..\uC-Probe\Target\Communication\Generic\RS-232\OS\uCOS-III/probe_rs232_os.c **** *                                       ProbeRS232_OS_Post()
 215:..\..\..\..\..\..\uC-Probe\Target\Communication\Generic\RS-232\OS\uCOS-III/probe_rs232_os.c **** *
 216:..\..\..\..\..\..\uC-Probe\Target\Communication\Generic\RS-232\OS\uCOS-III/probe_rs232_os.c **** * Description : Notify a pending task that a packet has been receieved.
 217:..\..\..\..\..\..\uC-Probe\Target\Communication\Generic\RS-232\OS\uCOS-III/probe_rs232_os.c **** *
 218:..\..\..\..\..\..\uC-Probe\Target\Communication\Generic\RS-232\OS\uCOS-III/probe_rs232_os.c **** * Argument(s) : none.
 219:..\..\..\..\..\..\uC-Probe\Target\Communication\Generic\RS-232\OS\uCOS-III/probe_rs232_os.c **** *
 220:..\..\..\..\..\..\uC-Probe\Target\Communication\Generic\RS-232\OS\uCOS-III/probe_rs232_os.c **** * Return(s)   : none.
 221:..\..\..\..\..\..\uC-Probe\Target\Communication\Generic\RS-232\OS\uCOS-III/probe_rs232_os.c **** *
 222:..\..\..\..\..\..\uC-Probe\Target\Communication\Generic\RS-232\OS\uCOS-III/probe_rs232_os.c **** * Caller(s)   : ProbeRS232_RxPkt().
 223:..\..\..\..\..\..\uC-Probe\Target\Communication\Generic\RS-232\OS\uCOS-III/probe_rs232_os.c **** *
 224:..\..\..\..\..\..\uC-Probe\Target\Communication\Generic\RS-232\OS\uCOS-III/probe_rs232_os.c **** * Note(s)     : none.
 225:..\..\..\..\..\..\uC-Probe\Target\Communication\Generic\RS-232\OS\uCOS-III/probe_rs232_os.c **** ***************************************************************************************************
 226:..\..\..\..\..\..\uC-Probe\Target\Communication\Generic\RS-232\OS\uCOS-III/probe_rs232_os.c **** */
 227:..\..\..\..\..\..\uC-Probe\Target\Communication\Generic\RS-232\OS\uCOS-III/probe_rs232_os.c **** 
 228:..\..\..\..\..\..\uC-Probe\Target\Communication\Generic\RS-232\OS\uCOS-III/probe_rs232_os.c **** #if (PROBE_RS232_CFG_PARSE_TASK_EN == DEF_ENABLED)
 229:..\..\..\..\..\..\uC-Probe\Target\Communication\Generic\RS-232\OS\uCOS-III/probe_rs232_os.c **** void  ProbeRS232_OS_Post (void)
 230:..\..\..\..\..\..\uC-Probe\Target\Communication\Generic\RS-232\OS\uCOS-III/probe_rs232_os.c **** {
 174              		.loc 1 230 0
 175              		.cfi_startproc
 176              		@ args = 0, pretend = 0, frame = 8
 177              		@ frame_needed = 1, uses_anonymous_args = 0
 178 0000 80B5     		push	{r7, lr}
 179              	.LCFI6:
 180              		.cfi_def_cfa_offset 8
 181 0002 82B0     		sub	sp, sp, #8
 182              	.LCFI7:
 183              		.cfi_def_cfa_offset 16
 184 0004 00AF     		add	r7, sp, #0
 185              		.cfi_offset 14, -4
 186              		.cfi_offset 7, -8
 187              	.LCFI8:
 188              		.cfi_def_cfa_register 7
 231:..\..\..\..\..\..\uC-Probe\Target\Communication\Generic\RS-232\OS\uCOS-III/probe_rs232_os.c ****     OS_ERR  os_err;
 232:..\..\..\..\..\..\uC-Probe\Target\Communication\Generic\RS-232\OS\uCOS-III/probe_rs232_os.c **** 
 233:..\..\..\..\..\..\uC-Probe\Target\Communication\Generic\RS-232\OS\uCOS-III/probe_rs232_os.c **** 
 234:..\..\..\..\..\..\uC-Probe\Target\Communication\Generic\RS-232\OS\uCOS-III/probe_rs232_os.c ****     OSSemPost((OS_SEM *)&ProbeRS232_OS_Sem,                         /* A packet has been received. 
 189              		.loc 1 234 0
 190 0006 07F10603 		add	r3, r7, #6
 191 000a 40F20000 		movw	r0, #:lower16:ProbeRS232_OS_Sem
 192 000e C0F20000 		movt	r0, #:upper16:ProbeRS232_OS_Sem
 193 0012 4FF00001 		mov	r1, #0
 194 0016 1A46     		mov	r2, r3
 195 0018 FFF7FEFF 		bl	OSSemPost
 235:..\..\..\..\..\..\uC-Probe\Target\Communication\Generic\RS-232\OS\uCOS-III/probe_rs232_os.c ****               (OS_OPT  )OS_OPT_POST_FIFO,
 236:..\..\..\..\..\..\uC-Probe\Target\Communication\Generic\RS-232\OS\uCOS-III/probe_rs232_os.c ****               (OS_ERR *)&os_err);
 237:..\..\..\..\..\..\uC-Probe\Target\Communication\Generic\RS-232\OS\uCOS-III/probe_rs232_os.c **** 
 238:..\..\..\..\..\..\uC-Probe\Target\Communication\Generic\RS-232\OS\uCOS-III/probe_rs232_os.c ****    (void)&os_err;
 239:..\..\..\..\..\..\uC-Probe\Target\Communication\Generic\RS-232\OS\uCOS-III/probe_rs232_os.c **** }
 196              		.loc 1 239 0
ARM GAS  C:\Users\daniel01\AppData\Local\Temp\ccLTjjhP.s 			page 9


 197 001c 07F10807 		add	r7, r7, #8
 198 0020 BD46     		mov	sp, r7
 199 0022 80BD     		pop	{r7, pc}
 200              		.cfi_endproc
 201              	.LFE2:
 202              		.size	ProbeRS232_OS_Post, .-ProbeRS232_OS_Post
 203              		.section	.text.ProbeRS232_OS_Task,"ax",%progbits
 204              		.align	2
 205              		.thumb
 206              		.thumb_func
 207              		.type	ProbeRS232_OS_Task, %function
 208              	ProbeRS232_OS_Task:
 209              	.LFB3:
 240:..\..\..\..\..\..\uC-Probe\Target\Communication\Generic\RS-232\OS\uCOS-III/probe_rs232_os.c **** #endif
 241:..\..\..\..\..\..\uC-Probe\Target\Communication\Generic\RS-232\OS\uCOS-III/probe_rs232_os.c **** 
 242:..\..\..\..\..\..\uC-Probe\Target\Communication\Generic\RS-232\OS\uCOS-III/probe_rs232_os.c **** 
 243:..\..\..\..\..\..\uC-Probe\Target\Communication\Generic\RS-232\OS\uCOS-III/probe_rs232_os.c **** /*
 244:..\..\..\..\..\..\uC-Probe\Target\Communication\Generic\RS-232\OS\uCOS-III/probe_rs232_os.c **** ***************************************************************************************************
 245:..\..\..\..\..\..\uC-Probe\Target\Communication\Generic\RS-232\OS\uCOS-III/probe_rs232_os.c **** ***************************************************************************************************
 246:..\..\..\..\..\..\uC-Probe\Target\Communication\Generic\RS-232\OS\uCOS-III/probe_rs232_os.c **** *                                           LOCAL FUNCTIONS
 247:..\..\..\..\..\..\uC-Probe\Target\Communication\Generic\RS-232\OS\uCOS-III/probe_rs232_os.c **** ***************************************************************************************************
 248:..\..\..\..\..\..\uC-Probe\Target\Communication\Generic\RS-232\OS\uCOS-III/probe_rs232_os.c **** ***************************************************************************************************
 249:..\..\..\..\..\..\uC-Probe\Target\Communication\Generic\RS-232\OS\uCOS-III/probe_rs232_os.c **** */
 250:..\..\..\..\..\..\uC-Probe\Target\Communication\Generic\RS-232\OS\uCOS-III/probe_rs232_os.c **** 
 251:..\..\..\..\..\..\uC-Probe\Target\Communication\Generic\RS-232\OS\uCOS-III/probe_rs232_os.c **** /*
 252:..\..\..\..\..\..\uC-Probe\Target\Communication\Generic\RS-232\OS\uCOS-III/probe_rs232_os.c **** ***************************************************************************************************
 253:..\..\..\..\..\..\uC-Probe\Target\Communication\Generic\RS-232\OS\uCOS-III/probe_rs232_os.c **** *                                         ProbeRS232_OS_Task()
 254:..\..\..\..\..\..\uC-Probe\Target\Communication\Generic\RS-232\OS\uCOS-III/probe_rs232_os.c **** *
 255:..\..\..\..\..\..\uC-Probe\Target\Communication\Generic\RS-232\OS\uCOS-III/probe_rs232_os.c **** * Description : Task which waits for packets to be received, formalates responses, and begins trans
 256:..\..\..\..\..\..\uC-Probe\Target\Communication\Generic\RS-232\OS\uCOS-III/probe_rs232_os.c **** *
 257:..\..\..\..\..\..\uC-Probe\Target\Communication\Generic\RS-232\OS\uCOS-III/probe_rs232_os.c **** * Argument(s) : p_arg       Argument passed to ProbeRS232_OS_Task() by 'OSTaskCreate()'.
 258:..\..\..\..\..\..\uC-Probe\Target\Communication\Generic\RS-232\OS\uCOS-III/probe_rs232_os.c **** *
 259:..\..\..\..\..\..\uC-Probe\Target\Communication\Generic\RS-232\OS\uCOS-III/probe_rs232_os.c **** * Return(s)   : none.
 260:..\..\..\..\..\..\uC-Probe\Target\Communication\Generic\RS-232\OS\uCOS-III/probe_rs232_os.c **** *
 261:..\..\..\..\..\..\uC-Probe\Target\Communication\Generic\RS-232\OS\uCOS-III/probe_rs232_os.c **** * Caller(s)   : This is a task.
 262:..\..\..\..\..\..\uC-Probe\Target\Communication\Generic\RS-232\OS\uCOS-III/probe_rs232_os.c **** *
 263:..\..\..\..\..\..\uC-Probe\Target\Communication\Generic\RS-232\OS\uCOS-III/probe_rs232_os.c **** * Note(s)     : none.
 264:..\..\..\..\..\..\uC-Probe\Target\Communication\Generic\RS-232\OS\uCOS-III/probe_rs232_os.c **** ***************************************************************************************************
 265:..\..\..\..\..\..\uC-Probe\Target\Communication\Generic\RS-232\OS\uCOS-III/probe_rs232_os.c **** */
 266:..\..\..\..\..\..\uC-Probe\Target\Communication\Generic\RS-232\OS\uCOS-III/probe_rs232_os.c **** 
 267:..\..\..\..\..\..\uC-Probe\Target\Communication\Generic\RS-232\OS\uCOS-III/probe_rs232_os.c **** #if (PROBE_RS232_CFG_PARSE_TASK_EN == DEF_ENABLED)
 268:..\..\..\..\..\..\uC-Probe\Target\Communication\Generic\RS-232\OS\uCOS-III/probe_rs232_os.c **** static  void  ProbeRS232_OS_Task (void *p_arg)
 269:..\..\..\..\..\..\uC-Probe\Target\Communication\Generic\RS-232\OS\uCOS-III/probe_rs232_os.c **** {
 210              		.loc 1 269 0
 211              		.cfi_startproc
 212              		@ args = 0, pretend = 0, frame = 8
 213              		@ frame_needed = 1, uses_anonymous_args = 0
 214 0000 80B5     		push	{r7, lr}
 215              	.LCFI9:
 216              		.cfi_def_cfa_offset 8
 217 0002 82B0     		sub	sp, sp, #8
 218              	.LCFI10:
 219              		.cfi_def_cfa_offset 16
 220 0004 00AF     		add	r7, sp, #0
 221              		.cfi_offset 14, -4
 222              		.cfi_offset 7, -8
 223              	.LCFI11:
ARM GAS  C:\Users\daniel01\AppData\Local\Temp\ccLTjjhP.s 			page 10


 224              		.cfi_def_cfa_register 7
 225 0006 7860     		str	r0, [r7, #4]
 270:..\..\..\..\..\..\uC-Probe\Target\Communication\Generic\RS-232\OS\uCOS-III/probe_rs232_os.c ****    (void)&p_arg;
 271:..\..\..\..\..\..\uC-Probe\Target\Communication\Generic\RS-232\OS\uCOS-III/probe_rs232_os.c ****     ProbeRS232_Task();
 226              		.loc 1 271 0
 227 0008 FFF7FEFF 		bl	ProbeRS232_Task
 272:..\..\..\..\..\..\uC-Probe\Target\Communication\Generic\RS-232\OS\uCOS-III/probe_rs232_os.c **** }
 228              		.loc 1 272 0
 229 000c 07F10807 		add	r7, r7, #8
 230 0010 BD46     		mov	sp, r7
 231 0012 80BD     		pop	{r7, pc}
 232              		.cfi_endproc
 233              	.LFE3:
 234              		.size	ProbeRS232_OS_Task, .-ProbeRS232_OS_Task
 235              		.text
 236              	.Letext0: