ARM GAS  C:\Users\daniel01\AppData\Local\Temp\ccHLFCB6.s 			page 1


   1              		.syntax unified
   2              		.cpu cortex-m3
   3              		.fpu softvfp
   4              		.eabi_attribute 20, 1
   5              		.eabi_attribute 21, 1
   6              		.eabi_attribute 23, 3
   7              		.eabi_attribute 24, 1
   8              		.eabi_attribute 25, 1
   9              		.eabi_attribute 26, 1
  10              		.eabi_attribute 30, 6
  11              		.eabi_attribute 18, 4
  12              		.thumb
  13              		.file	"probe_com.c"
  20 0000 7E020000 		.text
  20      0200A400 
  20      00000201 
  20      FB0E0D00 
  20      01010101 
  21              	.Ltext0:
  22              		.cfi_sections	.debug_frame
  23              		.comm	ProbeCom_RxPktCtr,4,4
  24              		.comm	ProbeCom_TxPktCtr,4,4
  25              		.comm	ProbeCom_TxSymCtr,4,4
  26              		.comm	ProbeCom_TxSymByteCtr,4,4
  27              		.comm	ProbeCom_ErrPktCtr,4,4
  28              		.comm	ProbeCom_RxSymCtr,4,4
  29              		.comm	ProbeCom_RxSymByteCtr,4,4
  30              		.bss
  31              		.align	2
  32              	ProbeCom_EndiannessTest:
  33 0000 00000000 		.space	4
  34              		.section	.text.ProbeCom_Init,"ax",%progbits
  35              		.align	2
  36              		.global	ProbeCom_Init
  37              		.thumb
  38              		.thumb_func
  39              		.type	ProbeCom_Init, %function
  40              	ProbeCom_Init:
  41              	.LFB0:
  42              		.file 1 "..\\..\\..\\..\\..\\..\\uC-Probe\\Target\\Communication\\Generic\\Source\\probe_com.c"
   1:..\..\..\..\..\..\uC-Probe\Target\Communication\Generic\Source/probe_com.c **** /*
   2:..\..\..\..\..\..\uC-Probe\Target\Communication\Generic\Source/probe_com.c **** ***************************************************************************************************
   3:..\..\..\..\..\..\uC-Probe\Target\Communication\Generic\Source/probe_com.c **** *                                       uC/Probe Communication
   4:..\..\..\..\..\..\uC-Probe\Target\Communication\Generic\Source/probe_com.c **** *
   5:..\..\..\..\..\..\uC-Probe\Target\Communication\Generic\Source/probe_com.c **** *                         (c) Copyright 2007-2008; Micrium, Inc.; Weston, FL
   6:..\..\..\..\..\..\uC-Probe\Target\Communication\Generic\Source/probe_com.c **** *
   7:..\..\..\..\..\..\uC-Probe\Target\Communication\Generic\Source/probe_com.c **** *               All rights reserved.  Protected by international copyright laws.
   8:..\..\..\..\..\..\uC-Probe\Target\Communication\Generic\Source/probe_com.c **** *               Knowledge of the source code may NOT be used to develop a similar product.
   9:..\..\..\..\..\..\uC-Probe\Target\Communication\Generic\Source/probe_com.c **** *               Please help us continue to provide the Embedded community with the finest
  10:..\..\..\..\..\..\uC-Probe\Target\Communication\Generic\Source/probe_com.c **** *               software available.  Your honesty is greatly appreciated.
  11:..\..\..\..\..\..\uC-Probe\Target\Communication\Generic\Source/probe_com.c **** ***************************************************************************************************
ARM GAS  C:\Users\daniel01\AppData\Local\Temp\ccHLFCB6.s 			page 2


  12:..\..\..\..\..\..\uC-Probe\Target\Communication\Generic\Source/probe_com.c **** */
  13:..\..\..\..\..\..\uC-Probe\Target\Communication\Generic\Source/probe_com.c **** 
  14:..\..\..\..\..\..\uC-Probe\Target\Communication\Generic\Source/probe_com.c **** /*
  15:..\..\..\..\..\..\uC-Probe\Target\Communication\Generic\Source/probe_com.c **** ***************************************************************************************************
  16:..\..\..\..\..\..\uC-Probe\Target\Communication\Generic\Source/probe_com.c **** *
  17:..\..\..\..\..\..\uC-Probe\Target\Communication\Generic\Source/probe_com.c **** *                                       COMMUNICATION: GENERIC
  18:..\..\..\..\..\..\uC-Probe\Target\Communication\Generic\Source/probe_com.c **** *
  19:..\..\..\..\..\..\uC-Probe\Target\Communication\Generic\Source/probe_com.c **** * Filename      : probe_com.c
  20:..\..\..\..\..\..\uC-Probe\Target\Communication\Generic\Source/probe_com.c **** * Version       : V2.30
  21:..\..\..\..\..\..\uC-Probe\Target\Communication\Generic\Source/probe_com.c **** * Programmer(s) : BAN
  22:..\..\..\..\..\..\uC-Probe\Target\Communication\Generic\Source/probe_com.c **** ***************************************************************************************************
  23:..\..\..\..\..\..\uC-Probe\Target\Communication\Generic\Source/probe_com.c **** * Note(s)       : (1) This file contains code to respond to generic (non protocol-dependent) comman
  24:..\..\..\..\..\..\uC-Probe\Target\Communication\Generic\Source/probe_com.c **** *                     received by the target.
  25:..\..\..\..\..\..\uC-Probe\Target\Communication\Generic\Source/probe_com.c **** ***************************************************************************************************
  26:..\..\..\..\..\..\uC-Probe\Target\Communication\Generic\Source/probe_com.c **** */
  27:..\..\..\..\..\..\uC-Probe\Target\Communication\Generic\Source/probe_com.c **** 
  28:..\..\..\..\..\..\uC-Probe\Target\Communication\Generic\Source/probe_com.c **** 
  29:..\..\..\..\..\..\uC-Probe\Target\Communication\Generic\Source/probe_com.c **** /*
  30:..\..\..\..\..\..\uC-Probe\Target\Communication\Generic\Source/probe_com.c **** ***************************************************************************************************
  31:..\..\..\..\..\..\uC-Probe\Target\Communication\Generic\Source/probe_com.c **** *                                            INCLUDE FILES
  32:..\..\..\..\..\..\uC-Probe\Target\Communication\Generic\Source/probe_com.c **** ***************************************************************************************************
  33:..\..\..\..\..\..\uC-Probe\Target\Communication\Generic\Source/probe_com.c **** */
  34:..\..\..\..\..\..\uC-Probe\Target\Communication\Generic\Source/probe_com.c **** 
  35:..\..\..\..\..\..\uC-Probe\Target\Communication\Generic\Source/probe_com.c **** #define   PROBE_COM_MODULE
  36:..\..\..\..\..\..\uC-Probe\Target\Communication\Generic\Source/probe_com.c **** #include  <probe_com.h>
  37:..\..\..\..\..\..\uC-Probe\Target\Communication\Generic\Source/probe_com.c **** 
  38:..\..\..\..\..\..\uC-Probe\Target\Communication\Generic\Source/probe_com.c **** 
  39:..\..\..\..\..\..\uC-Probe\Target\Communication\Generic\Source/probe_com.c **** /*
  40:..\..\..\..\..\..\uC-Probe\Target\Communication\Generic\Source/probe_com.c **** ***************************************************************************************************
  41:..\..\..\..\..\..\uC-Probe\Target\Communication\Generic\Source/probe_com.c **** *                                            LOCAL DEFINES
  42:..\..\..\..\..\..\uC-Probe\Target\Communication\Generic\Source/probe_com.c **** ***************************************************************************************************
  43:..\..\..\..\..\..\uC-Probe\Target\Communication\Generic\Source/probe_com.c **** */
  44:..\..\..\..\..\..\uC-Probe\Target\Communication\Generic\Source/probe_com.c **** 
  45:..\..\..\..\..\..\uC-Probe\Target\Communication\Generic\Source/probe_com.c **** /*
  46:..\..\..\..\..\..\uC-Probe\Target\Communication\Generic\Source/probe_com.c **** ***************************************************************************************************
  47:..\..\..\..\..\..\uC-Probe\Target\Communication\Generic\Source/probe_com.c **** *                                        DATA FORMATS DEFINES
  48:..\..\..\..\..\..\uC-Probe\Target\Communication\Generic\Source/probe_com.c **** ***************************************************************************************************
  49:..\..\..\..\..\..\uC-Probe\Target\Communication\Generic\Source/probe_com.c **** */
  50:..\..\..\..\..\..\uC-Probe\Target\Communication\Generic\Source/probe_com.c **** 
  51:..\..\..\..\..\..\uC-Probe\Target\Communication\Generic\Source/probe_com.c **** #define  PROBE_COM_FMT_TX_ERR                         0x8000u
  52:..\..\..\..\..\..\uC-Probe\Target\Communication\Generic\Source/probe_com.c **** 
  53:..\..\..\..\..\..\uC-Probe\Target\Communication\Generic\Source/probe_com.c **** #define  PROBE_COM_FMT_RX_QUERY                       0x0001u   /* Query setup parameter or capabil
  54:..\..\..\..\..\..\uC-Probe\Target\Communication\Generic\Source/probe_com.c **** #define  PROBE_COM_FMT_TX_QUERY                       0x8001u
  55:..\..\..\..\..\..\uC-Probe\Target\Communication\Generic\Source/probe_com.c **** 
  56:..\..\..\..\..\..\uC-Probe\Target\Communication\Generic\Source/probe_com.c **** #define  PROBE_COM_FMT_RX_RD                          0x0002u   /* Read data at memory address.    
  57:..\..\..\..\..\..\uC-Probe\Target\Communication\Generic\Source/probe_com.c **** #define  PROBE_COM_FMT_TX_RD                          0x8002u
  58:..\..\..\..\..\..\uC-Probe\Target\Communication\Generic\Source/probe_com.c **** 
  59:..\..\..\..\..\..\uC-Probe\Target\Communication\Generic\Source/probe_com.c **** #define  PROBE_COM_FMT_RX_WR                          0x0003u   /* Write data at memory address.   
  60:..\..\..\..\..\..\uC-Probe\Target\Communication\Generic\Source/probe_com.c **** #define  PROBE_COM_FMT_TX_WR                          0x8003u
  61:..\..\..\..\..\..\uC-Probe\Target\Communication\Generic\Source/probe_com.c **** 
  62:..\..\..\..\..\..\uC-Probe\Target\Communication\Generic\Source/probe_com.c **** #define  PROBE_COM_FMT_RX_RD_MULTI                    0x0007u   /* Read data at multiple memory add
  63:..\..\..\..\..\..\uC-Probe\Target\Communication\Generic\Source/probe_com.c **** #define  PROBE_COM_FMT_TX_RD_MULTI                    0x8007u
  64:..\..\..\..\..\..\uC-Probe\Target\Communication\Generic\Source/probe_com.c **** #define  PROBE_COM_FMT_TX_RD_MULTI_LO                   0x07u
  65:..\..\..\..\..\..\uC-Probe\Target\Communication\Generic\Source/probe_com.c **** #define  PROBE_COM_FMT_TX_RD_MULTI_HI                   0x80u
  66:..\..\..\..\..\..\uC-Probe\Target\Communication\Generic\Source/probe_com.c **** 
  67:..\..\..\..\..\..\uC-Probe\Target\Communication\Generic\Source/probe_com.c **** #define  PROBE_COM_FMT_RX_WR_MULTI                    0x0008u   /* Write data at multiple memory ad
  68:..\..\..\..\..\..\uC-Probe\Target\Communication\Generic\Source/probe_com.c **** #define  PROBE_COM_FMT_TX_WR_MULTI                    0x8008u
ARM GAS  C:\Users\daniel01\AppData\Local\Temp\ccHLFCB6.s 			page 3


  69:..\..\..\..\..\..\uC-Probe\Target\Communication\Generic\Source/probe_com.c **** 
  70:..\..\..\..\..\..\uC-Probe\Target\Communication\Generic\Source/probe_com.c **** #define  PROBE_COM_FMT_RX_STR_OUT                     0x0009u   /* Transmit output string to Probe.
  71:..\..\..\..\..\..\uC-Probe\Target\Communication\Generic\Source/probe_com.c **** #define  PROBE_COM_FMT_TX_STR_OUT                     0x8009u
  72:..\..\..\..\..\..\uC-Probe\Target\Communication\Generic\Source/probe_com.c **** 
  73:..\..\..\..\..\..\uC-Probe\Target\Communication\Generic\Source/probe_com.c **** #define  PROBE_COM_FMT_RX_STR_IN                      0x000Au   /* Receive input string from Probe.
  74:..\..\..\..\..\..\uC-Probe\Target\Communication\Generic\Source/probe_com.c **** #define  PROBE_COM_FMT_TX_STR_IN                      0x800Au
  75:..\..\..\..\..\..\uC-Probe\Target\Communication\Generic\Source/probe_com.c **** 
  76:..\..\..\..\..\..\uC-Probe\Target\Communication\Generic\Source/probe_com.c **** #define  PROBE_COM_FMT_RX_TERMINAL_EXEC               0x000Bu   /* Execute terminal command.       
  77:..\..\..\..\..\..\uC-Probe\Target\Communication\Generic\Source/probe_com.c **** #define  PROBE_COM_FMT_TX_TERMINAL_EXEC               0x800Bu
  78:..\..\..\..\..\..\uC-Probe\Target\Communication\Generic\Source/probe_com.c **** 
  79:..\..\..\..\..\..\uC-Probe\Target\Communication\Generic\Source/probe_com.c **** #define  PROBE_COM_FMT_RX_TERMINAL_OUT                0x000Cu   /* Transmit output data to Probe.  
  80:..\..\..\..\..\..\uC-Probe\Target\Communication\Generic\Source/probe_com.c **** #define  PROBE_COM_FMT_TX_TERMINAL_OUT                0x800Cu
  81:..\..\..\..\..\..\uC-Probe\Target\Communication\Generic\Source/probe_com.c **** 
  82:..\..\..\..\..\..\uC-Probe\Target\Communication\Generic\Source/probe_com.c **** #define  PROBE_COM_FMT_RX_TERMINAL_IN                 0x000Du   /* Receive input data from Probe.  
  83:..\..\..\..\..\..\uC-Probe\Target\Communication\Generic\Source/probe_com.c **** #define  PROBE_COM_FMT_TX_TERMINAL_IN                 0x800Du
  84:..\..\..\..\..\..\uC-Probe\Target\Communication\Generic\Source/probe_com.c **** 
  85:..\..\..\..\..\..\uC-Probe\Target\Communication\Generic\Source/probe_com.c **** /*
  86:..\..\..\..\..\..\uC-Probe\Target\Communication\Generic\Source/probe_com.c **** ***************************************************************************************************
  87:..\..\..\..\..\..\uC-Probe\Target\Communication\Generic\Source/probe_com.c **** *                                      STATUS CONSTANTS DEFINES
  88:..\..\..\..\..\..\uC-Probe\Target\Communication\Generic\Source/probe_com.c **** ***************************************************************************************************
  89:..\..\..\..\..\..\uC-Probe\Target\Communication\Generic\Source/probe_com.c **** */
  90:..\..\..\..\..\..\uC-Probe\Target\Communication\Generic\Source/probe_com.c **** 
  91:..\..\..\..\..\..\uC-Probe\Target\Communication\Generic\Source/probe_com.c **** #define  PROBE_COM_STATUS_OK                            0x01u
  92:..\..\..\..\..\..\uC-Probe\Target\Communication\Generic\Source/probe_com.c **** #define  PROBE_COM_STATUS_TERMINAL_EXEC_NOT_RDY         0xF4u   /* Terminal not rdy to exec new cmd
  93:..\..\..\..\..\..\uC-Probe\Target\Communication\Generic\Source/probe_com.c **** #define  PROBE_COM_STATUS_TERMINAL_IN_OVF               0xF5u   /* Terminal in buf ovf'd.          
  94:..\..\..\..\..\..\uC-Probe\Target\Communication\Generic\Source/probe_com.c **** #define  PROBE_COM_STATUS_TERMINAL_OUT_NONE             0xF6u   /* Terminal out buf empty.         
  95:..\..\..\..\..\..\uC-Probe\Target\Communication\Generic\Source/probe_com.c **** #define  PROBE_COM_STATUS_STR_IN_OVF                    0xF7u   /* String in buf ovf'd.            
  96:..\..\..\..\..\..\uC-Probe\Target\Communication\Generic\Source/probe_com.c **** #define  PROBE_COM_STATUS_STR_OUT_NONE                  0xF8u   /* String out buf empty.           
  97:..\..\..\..\..\..\uC-Probe\Target\Communication\Generic\Source/probe_com.c **** #define  PROBE_COM_STATUS_UNKNOWN_REQUEST               0xF9u   /* Unknown req.                    
  98:..\..\..\..\..\..\uC-Probe\Target\Communication\Generic\Source/probe_com.c **** #define  PROBE_COM_STATUS_QUERY_NOT_SUPPORTED           0xFCu   /* Query not supported.            
  99:..\..\..\..\..\..\uC-Probe\Target\Communication\Generic\Source/probe_com.c **** #define  PROBE_COM_STATUS_TX_PKT_TOO_LARGE              0xFDu   /* Reply pkt too large for buf.    
 100:..\..\..\..\..\..\uC-Probe\Target\Communication\Generic\Source/probe_com.c **** #define  PROBE_COM_STATUS_RX_PKT_WRONG_SIZE             0xFEu   /* Req pkt not correct size.       
 101:..\..\..\..\..\..\uC-Probe\Target\Communication\Generic\Source/probe_com.c **** #define  PROBE_COM_STATUS_FAIL                          0xFFu   /* Req exec failed (or unknown err)
 102:..\..\..\..\..\..\uC-Probe\Target\Communication\Generic\Source/probe_com.c **** 
 103:..\..\..\..\..\..\uC-Probe\Target\Communication\Generic\Source/probe_com.c **** /*
 104:..\..\..\..\..\..\uC-Probe\Target\Communication\Generic\Source/probe_com.c **** ***************************************************************************************************
 105:..\..\..\..\..\..\uC-Probe\Target\Communication\Generic\Source/probe_com.c **** *                                           QUERIES DEFINES
 106:..\..\..\..\..\..\uC-Probe\Target\Communication\Generic\Source/probe_com.c **** ***************************************************************************************************
 107:..\..\..\..\..\..\uC-Probe\Target\Communication\Generic\Source/probe_com.c **** */
 108:..\..\..\..\..\..\uC-Probe\Target\Communication\Generic\Source/probe_com.c **** 
 109:..\..\..\..\..\..\uC-Probe\Target\Communication\Generic\Source/probe_com.c ****                                                                 /* ------------------- CONFIGURATIO
 110:..\..\..\..\..\..\uC-Probe\Target\Communication\Generic\Source/probe_com.c **** #define  PROBE_COM_QUERY_MAX_RX_SIZE                  0x0101u   /* Get data size of largest pkt tar
 111:..\..\..\..\..\..\uC-Probe\Target\Communication\Generic\Source/probe_com.c **** #define  PROBE_COM_QUERY_MAX_TX_SIZE                  0x0102u   /* Get data size of largest pkt tar
 112:..\..\..\..\..\..\uC-Probe\Target\Communication\Generic\Source/probe_com.c **** 
 113:..\..\..\..\..\..\uC-Probe\Target\Communication\Generic\Source/probe_com.c ****                                                                 /* ----------------- TARGET PROPERT
 114:..\..\..\..\..\..\uC-Probe\Target\Communication\Generic\Source/probe_com.c **** #define  PROBE_COM_QUERY_ENDIANNESS_TEST              0x0201u   /* Test endianness of target.      
 115:..\..\..\..\..\..\uC-Probe\Target\Communication\Generic\Source/probe_com.c **** #define  PROBE_COM_QUERY_STATUS                       0x0202u   /* Target status.                  
 116:..\..\..\..\..\..\uC-Probe\Target\Communication\Generic\Source/probe_com.c **** 
 117:..\..\..\..\..\..\uC-Probe\Target\Communication\Generic\Source/probe_com.c ****                                                                 /* ------------- COMMUNICATION CAPA
 118:..\..\..\..\..\..\uC-Probe\Target\Communication\Generic\Source/probe_com.c **** #define  PROBE_COM_QUERY_FMT_SUPPORT                  0x1001u   /* Get list of supported req's.    
 119:..\..\..\..\..\..\uC-Probe\Target\Communication\Generic\Source/probe_com.c **** #define  PROBE_COM_QUERY_VERSION                      0x1002u   /* Get target code ver.            
 120:..\..\..\..\..\..\uC-Probe\Target\Communication\Generic\Source/probe_com.c **** 
 121:..\..\..\..\..\..\uC-Probe\Target\Communication\Generic\Source/probe_com.c **** /*
 122:..\..\..\..\..\..\uC-Probe\Target\Communication\Generic\Source/probe_com.c **** ***************************************************************************************************
 123:..\..\..\..\..\..\uC-Probe\Target\Communication\Generic\Source/probe_com.c **** *                                          MODIFIERS DEFINES
 124:..\..\..\..\..\..\uC-Probe\Target\Communication\Generic\Source/probe_com.c **** ***************************************************************************************************
 125:..\..\..\..\..\..\uC-Probe\Target\Communication\Generic\Source/probe_com.c **** */
ARM GAS  C:\Users\daniel01\AppData\Local\Temp\ccHLFCB6.s 			page 4


 126:..\..\..\..\..\..\uC-Probe\Target\Communication\Generic\Source/probe_com.c **** 
 127:..\..\..\..\..\..\uC-Probe\Target\Communication\Generic\Source/probe_com.c **** #define  PROBE_COM_MODIFIER_NONE                  DEF_BIT_NONE
 128:..\..\..\..\..\..\uC-Probe\Target\Communication\Generic\Source/probe_com.c **** #define  PROBE_COM_MODIFIER_STR_OUT_AVAIL         DEF_BIT_00    /* Str out is avail.               
 129:..\..\..\..\..\..\uC-Probe\Target\Communication\Generic\Source/probe_com.c **** #define  PROBE_COM_MODIFIER_TERMINAL_EXEC_DONE    DEF_BIT_01    /* Terminal cmd exec done.         
 130:..\..\..\..\..\..\uC-Probe\Target\Communication\Generic\Source/probe_com.c **** #define  PROBE_COM_MODIFIER_TERMINAL_OUT_AVAIL    DEF_BIT_02    /* Terminal out is avail.          
 131:..\..\..\..\..\..\uC-Probe\Target\Communication\Generic\Source/probe_com.c **** 
 132:..\..\..\..\..\..\uC-Probe\Target\Communication\Generic\Source/probe_com.c **** /*
 133:..\..\..\..\..\..\uC-Probe\Target\Communication\Generic\Source/probe_com.c **** ***************************************************************************************************
 134:..\..\..\..\..\..\uC-Probe\Target\Communication\Generic\Source/probe_com.c **** *                                        HEADER SIZES DEFINES
 135:..\..\..\..\..\..\uC-Probe\Target\Communication\Generic\Source/probe_com.c **** *
 136:..\..\..\..\..\..\uC-Probe\Target\Communication\Generic\Source/probe_com.c **** * Note(s):  (1) The first four bytes in all tx data segments is identical:
 137:..\..\..\..\..\..\uC-Probe\Target\Communication\Generic\Source/probe_com.c **** *
 138:..\..\..\..\..\..\uC-Probe\Target\Communication\Generic\Source/probe_com.c **** *               (a) A 2-byte format;
 139:..\..\..\..\..\..\uC-Probe\Target\Communication\Generic\Source/probe_com.c **** *               (b) A 1-byte status;
 140:..\..\..\..\..\..\uC-Probe\Target\Communication\Generic\Source/probe_com.c **** *               (c) A 1-byte modifier, currently unused.
 141:..\..\..\..\..\..\uC-Probe\Target\Communication\Generic\Source/probe_com.c **** *
 142:..\..\..\..\..\..\uC-Probe\Target\Communication\Generic\Source/probe_com.c **** *           (2) The first two bytes in all rx data segments is identical:
 143:..\..\..\..\..\..\uC-Probe\Target\Communication\Generic\Source/probe_com.c **** *
 144:..\..\..\..\..\..\uC-Probe\Target\Communication\Generic\Source/probe_com.c **** *               (a) A 2-byte format.
 145:..\..\..\..\..\..\uC-Probe\Target\Communication\Generic\Source/probe_com.c **** ***************************************************************************************************
 146:..\..\..\..\..\..\uC-Probe\Target\Communication\Generic\Source/probe_com.c **** */
 147:..\..\..\..\..\..\uC-Probe\Target\Communication\Generic\Source/probe_com.c **** 
 148:..\..\..\..\..\..\uC-Probe\Target\Communication\Generic\Source/probe_com.c **** #define  PROBE_COM_SIZE_RX_HDR                             2u
 149:..\..\..\..\..\..\uC-Probe\Target\Communication\Generic\Source/probe_com.c **** #define  PROBE_COM_SIZE_TX_HDR                             4u
 150:..\..\..\..\..\..\uC-Probe\Target\Communication\Generic\Source/probe_com.c **** 
 151:..\..\..\..\..\..\uC-Probe\Target\Communication\Generic\Source/probe_com.c **** /*
 152:..\..\..\..\..\..\uC-Probe\Target\Communication\Generic\Source/probe_com.c **** ***************************************************************************************************
 153:..\..\..\..\..\..\uC-Probe\Target\Communication\Generic\Source/probe_com.c **** *                                           LOCAL CONSTANTS
 154:..\..\..\..\..\..\uC-Probe\Target\Communication\Generic\Source/probe_com.c **** ***************************************************************************************************
 155:..\..\..\..\..\..\uC-Probe\Target\Communication\Generic\Source/probe_com.c **** */
 156:..\..\..\..\..\..\uC-Probe\Target\Communication\Generic\Source/probe_com.c **** 
 157:..\..\..\..\..\..\uC-Probe\Target\Communication\Generic\Source/probe_com.c **** 
 158:..\..\..\..\..\..\uC-Probe\Target\Communication\Generic\Source/probe_com.c **** /*
 159:..\..\..\..\..\..\uC-Probe\Target\Communication\Generic\Source/probe_com.c **** ***************************************************************************************************
 160:..\..\..\..\..\..\uC-Probe\Target\Communication\Generic\Source/probe_com.c **** *                                          LOCAL DATA TYPES
 161:..\..\..\..\..\..\uC-Probe\Target\Communication\Generic\Source/probe_com.c **** ***************************************************************************************************
 162:..\..\..\..\..\..\uC-Probe\Target\Communication\Generic\Source/probe_com.c **** */
 163:..\..\..\..\..\..\uC-Probe\Target\Communication\Generic\Source/probe_com.c **** 
 164:..\..\..\..\..\..\uC-Probe\Target\Communication\Generic\Source/probe_com.c **** typedef  struct  probe_com_buf {
 165:..\..\..\..\..\..\uC-Probe\Target\Communication\Generic\Source/probe_com.c ****     CPU_SIZE_T   Len;
 166:..\..\..\..\..\..\uC-Probe\Target\Communication\Generic\Source/probe_com.c ****     CPU_SIZE_T   IxRd;
 167:..\..\..\..\..\..\uC-Probe\Target\Communication\Generic\Source/probe_com.c ****     CPU_SIZE_T   IxWr;
 168:..\..\..\..\..\..\uC-Probe\Target\Communication\Generic\Source/probe_com.c ****     CPU_INT08U  *DataPtr;
 169:..\..\..\..\..\..\uC-Probe\Target\Communication\Generic\Source/probe_com.c **** } PROBE_COM_BUF;
 170:..\..\..\..\..\..\uC-Probe\Target\Communication\Generic\Source/probe_com.c **** 
 171:..\..\..\..\..\..\uC-Probe\Target\Communication\Generic\Source/probe_com.c **** 
 172:..\..\..\..\..\..\uC-Probe\Target\Communication\Generic\Source/probe_com.c **** /*
 173:..\..\..\..\..\..\uC-Probe\Target\Communication\Generic\Source/probe_com.c **** ***************************************************************************************************
 174:..\..\..\..\..\..\uC-Probe\Target\Communication\Generic\Source/probe_com.c **** *                                            LOCAL TABLES
 175:..\..\..\..\..\..\uC-Probe\Target\Communication\Generic\Source/probe_com.c **** ***************************************************************************************************
 176:..\..\..\..\..\..\uC-Probe\Target\Communication\Generic\Source/probe_com.c **** */
 177:..\..\..\..\..\..\uC-Probe\Target\Communication\Generic\Source/probe_com.c **** 
 178:..\..\..\..\..\..\uC-Probe\Target\Communication\Generic\Source/probe_com.c **** 
 179:..\..\..\..\..\..\uC-Probe\Target\Communication\Generic\Source/probe_com.c **** /*
 180:..\..\..\..\..\..\uC-Probe\Target\Communication\Generic\Source/probe_com.c **** ***************************************************************************************************
 181:..\..\..\..\..\..\uC-Probe\Target\Communication\Generic\Source/probe_com.c **** *                                       LOCAL GLOBAL VARIABLES
 182:..\..\..\..\..\..\uC-Probe\Target\Communication\Generic\Source/probe_com.c **** ***************************************************************************************************
ARM GAS  C:\Users\daniel01\AppData\Local\Temp\ccHLFCB6.s 			page 5


 183:..\..\..\..\..\..\uC-Probe\Target\Communication\Generic\Source/probe_com.c **** */
 184:..\..\..\..\..\..\uC-Probe\Target\Communication\Generic\Source/probe_com.c **** 
 185:..\..\..\..\..\..\uC-Probe\Target\Communication\Generic\Source/probe_com.c **** #if (PROBE_COM_CFG_STR_REQ_EN       == DEF_ENABLED)
 186:..\..\..\..\..\..\uC-Probe\Target\Communication\Generic\Source/probe_com.c **** static  CPU_CHAR                       ProbeCom_StrInBufData[PROBE_COM_CFG_STR_IN_BUF_SIZE];
 187:..\..\..\..\..\..\uC-Probe\Target\Communication\Generic\Source/probe_com.c **** static  PROBE_COM_BUF                  ProbeCom_StrInBuf;
 188:..\..\..\..\..\..\uC-Probe\Target\Communication\Generic\Source/probe_com.c **** 
 189:..\..\..\..\..\..\uC-Probe\Target\Communication\Generic\Source/probe_com.c **** static  CPU_CHAR                       ProbeCom_StrOutBufData[PROBE_COM_CFG_STR_OUT_BUF_SIZE];
 190:..\..\..\..\..\..\uC-Probe\Target\Communication\Generic\Source/probe_com.c **** static  PROBE_COM_BUF                  ProbeCom_StrOutBuf;
 191:..\..\..\..\..\..\uC-Probe\Target\Communication\Generic\Source/probe_com.c **** #endif
 192:..\..\..\..\..\..\uC-Probe\Target\Communication\Generic\Source/probe_com.c **** 
 193:..\..\..\..\..\..\uC-Probe\Target\Communication\Generic\Source/probe_com.c **** #if (PROBE_COM_CFG_TERMINAL_REQ_EN  == DEF_ENABLED)
 194:..\..\..\..\..\..\uC-Probe\Target\Communication\Generic\Source/probe_com.c **** static  PROBE_COM_TERMINAL_EXEC_FNCT   ProbeCom_TerminalExecHandler;
 195:..\..\..\..\..\..\uC-Probe\Target\Communication\Generic\Source/probe_com.c **** static  CPU_BOOLEAN                    ProbeCom_TerminalExecuting;
 196:..\..\..\..\..\..\uC-Probe\Target\Communication\Generic\Source/probe_com.c **** 
 197:..\..\..\..\..\..\uC-Probe\Target\Communication\Generic\Source/probe_com.c **** static  PROBE_COM_TERMINAL_IN_FNCT     ProbeCom_TerminalInHandler;
 198:..\..\..\..\..\..\uC-Probe\Target\Communication\Generic\Source/probe_com.c **** 
 199:..\..\..\..\..\..\uC-Probe\Target\Communication\Generic\Source/probe_com.c **** static  CPU_INT08U                    *ProbeCom_TerminalOutBufPtr;
 200:..\..\..\..\..\..\uC-Probe\Target\Communication\Generic\Source/probe_com.c **** static  CPU_SIZE_T                     ProbeCom_TerminalOutBufIx;
 201:..\..\..\..\..\..\uC-Probe\Target\Communication\Generic\Source/probe_com.c **** static  CPU_SIZE_T                     ProbeCom_TerminalOutBufLen;
 202:..\..\..\..\..\..\uC-Probe\Target\Communication\Generic\Source/probe_com.c **** #endif
 203:..\..\..\..\..\..\uC-Probe\Target\Communication\Generic\Source/probe_com.c **** 
 204:..\..\..\..\..\..\uC-Probe\Target\Communication\Generic\Source/probe_com.c **** static  CPU_INT32U                     ProbeCom_EndiannessTest;
 205:..\..\..\..\..\..\uC-Probe\Target\Communication\Generic\Source/probe_com.c **** 
 206:..\..\..\..\..\..\uC-Probe\Target\Communication\Generic\Source/probe_com.c **** 
 207:..\..\..\..\..\..\uC-Probe\Target\Communication\Generic\Source/probe_com.c **** /*
 208:..\..\..\..\..\..\uC-Probe\Target\Communication\Generic\Source/probe_com.c **** ***************************************************************************************************
 209:..\..\..\..\..\..\uC-Probe\Target\Communication\Generic\Source/probe_com.c **** *                                      LOCAL FUNCTION PROTOTYPES
 210:..\..\..\..\..\..\uC-Probe\Target\Communication\Generic\Source/probe_com.c **** ***************************************************************************************************
 211:..\..\..\..\..\..\uC-Probe\Target\Communication\Generic\Source/probe_com.c **** */
 212:..\..\..\..\..\..\uC-Probe\Target\Communication\Generic\Source/probe_com.c **** 
 213:..\..\..\..\..\..\uC-Probe\Target\Communication\Generic\Source/probe_com.c **** static  CPU_INT08U   ProbeCom_PktModifier     (void);
 214:..\..\..\..\..\..\uC-Probe\Target\Communication\Generic\Source/probe_com.c **** 
 215:..\..\..\..\..\..\uC-Probe\Target\Communication\Generic\Source/probe_com.c **** static  CPU_SIZE_T   ProbeCom_ReqErr          (CPU_INT08U      *ptx_buf,
 216:..\..\..\..\..\..\uC-Probe\Target\Communication\Generic\Source/probe_com.c ****                                                CPU_INT08U       pcomm_err);
 217:..\..\..\..\..\..\uC-Probe\Target\Communication\Generic\Source/probe_com.c **** 
 218:..\..\..\..\..\..\uC-Probe\Target\Communication\Generic\Source/probe_com.c **** 
 219:..\..\..\..\..\..\uC-Probe\Target\Communication\Generic\Source/probe_com.c ****                                                                 /* ------------------- HANDLE REQ'S
 220:..\..\..\..\..\..\uC-Probe\Target\Communication\Generic\Source/probe_com.c **** static  CPU_SIZE_T   ProbeCom_ReqQuery        (CPU_INT08U      *prx_buf,
 221:..\..\..\..\..\..\uC-Probe\Target\Communication\Generic\Source/probe_com.c ****                                                CPU_INT08U      *ptx_buf,
 222:..\..\..\..\..\..\uC-Probe\Target\Communication\Generic\Source/probe_com.c ****                                                CPU_SIZE_T       rx_pkt_size,
 223:..\..\..\..\..\..\uC-Probe\Target\Communication\Generic\Source/probe_com.c ****                                                CPU_SIZE_T       tx_buf_size);
 224:..\..\..\..\..\..\uC-Probe\Target\Communication\Generic\Source/probe_com.c **** 
 225:..\..\..\..\..\..\uC-Probe\Target\Communication\Generic\Source/probe_com.c **** static  CPU_SIZE_T   ProbeCom_ReqRd           (CPU_INT08U      *prx_buf,
 226:..\..\..\..\..\..\uC-Probe\Target\Communication\Generic\Source/probe_com.c ****                                                CPU_INT08U      *ptx_buf,
 227:..\..\..\..\..\..\uC-Probe\Target\Communication\Generic\Source/probe_com.c ****                                                CPU_SIZE_T       rx_pkt_size,
 228:..\..\..\..\..\..\uC-Probe\Target\Communication\Generic\Source/probe_com.c ****                                                CPU_SIZE_T       tx_buf_size);
 229:..\..\..\..\..\..\uC-Probe\Target\Communication\Generic\Source/probe_com.c **** 
 230:..\..\..\..\..\..\uC-Probe\Target\Communication\Generic\Source/probe_com.c **** static  CPU_SIZE_T   ProbeCom_ReqRdMulti      (CPU_INT08U      *prx_buf,
 231:..\..\..\..\..\..\uC-Probe\Target\Communication\Generic\Source/probe_com.c ****                                                CPU_INT08U      *ptx_buf,
 232:..\..\..\..\..\..\uC-Probe\Target\Communication\Generic\Source/probe_com.c ****                                                CPU_SIZE_T       rx_pkt_size,
 233:..\..\..\..\..\..\uC-Probe\Target\Communication\Generic\Source/probe_com.c ****                                                CPU_SIZE_T       tx_buf_size);
 234:..\..\..\..\..\..\uC-Probe\Target\Communication\Generic\Source/probe_com.c **** 
 235:..\..\..\..\..\..\uC-Probe\Target\Communication\Generic\Source/probe_com.c **** #if (PROBE_COM_CFG_WR_REQ_EN == DEF_ENABLED)
 236:..\..\..\..\..\..\uC-Probe\Target\Communication\Generic\Source/probe_com.c **** static  CPU_SIZE_T   ProbeCom_ReqWr           (CPU_INT08U      *prx_buf,
 237:..\..\..\..\..\..\uC-Probe\Target\Communication\Generic\Source/probe_com.c ****                                                CPU_INT08U      *ptx_buf,
 238:..\..\..\..\..\..\uC-Probe\Target\Communication\Generic\Source/probe_com.c ****                                                CPU_SIZE_T       rx_pkt_size,
 239:..\..\..\..\..\..\uC-Probe\Target\Communication\Generic\Source/probe_com.c ****                                                CPU_SIZE_T       tx_buf_size);
ARM GAS  C:\Users\daniel01\AppData\Local\Temp\ccHLFCB6.s 			page 6


 240:..\..\..\..\..\..\uC-Probe\Target\Communication\Generic\Source/probe_com.c **** 
 241:..\..\..\..\..\..\uC-Probe\Target\Communication\Generic\Source/probe_com.c **** static  CPU_SIZE_T   ProbeCom_ReqWrMulti      (CPU_INT08U      *prx_buf,
 242:..\..\..\..\..\..\uC-Probe\Target\Communication\Generic\Source/probe_com.c ****                                                CPU_INT08U      *ptx_buf,
 243:..\..\..\..\..\..\uC-Probe\Target\Communication\Generic\Source/probe_com.c ****                                                CPU_SIZE_T       rx_pkt_size,
 244:..\..\..\..\..\..\uC-Probe\Target\Communication\Generic\Source/probe_com.c ****                                                CPU_SIZE_T       tx_buf_size);
 245:..\..\..\..\..\..\uC-Probe\Target\Communication\Generic\Source/probe_com.c **** #endif
 246:..\..\..\..\..\..\uC-Probe\Target\Communication\Generic\Source/probe_com.c **** 
 247:..\..\..\..\..\..\uC-Probe\Target\Communication\Generic\Source/probe_com.c **** #if (PROBE_COM_CFG_STR_REQ_EN == DEF_ENABLED)
 248:..\..\..\..\..\..\uC-Probe\Target\Communication\Generic\Source/probe_com.c **** static  CPU_SIZE_T   ProbeCom_ReqStrIn        (CPU_INT08U      *prx_buf,
 249:..\..\..\..\..\..\uC-Probe\Target\Communication\Generic\Source/probe_com.c ****                                                CPU_INT08U      *ptx_buf,
 250:..\..\..\..\..\..\uC-Probe\Target\Communication\Generic\Source/probe_com.c ****                                                CPU_SIZE_T       rx_pkt_size,
 251:..\..\..\..\..\..\uC-Probe\Target\Communication\Generic\Source/probe_com.c ****                                                CPU_SIZE_T       tx_buf_size);
 252:..\..\..\..\..\..\uC-Probe\Target\Communication\Generic\Source/probe_com.c **** 
 253:..\..\..\..\..\..\uC-Probe\Target\Communication\Generic\Source/probe_com.c **** static  CPU_SIZE_T   ProbeCom_ReqStrOut       (CPU_INT08U      *prx_buf,
 254:..\..\..\..\..\..\uC-Probe\Target\Communication\Generic\Source/probe_com.c ****                                                CPU_INT08U      *ptx_buf,
 255:..\..\..\..\..\..\uC-Probe\Target\Communication\Generic\Source/probe_com.c ****                                                CPU_SIZE_T       rx_pkt_size,
 256:..\..\..\..\..\..\uC-Probe\Target\Communication\Generic\Source/probe_com.c ****                                                CPU_SIZE_T       tx_buf_size);
 257:..\..\..\..\..\..\uC-Probe\Target\Communication\Generic\Source/probe_com.c **** #endif
 258:..\..\..\..\..\..\uC-Probe\Target\Communication\Generic\Source/probe_com.c **** 
 259:..\..\..\..\..\..\uC-Probe\Target\Communication\Generic\Source/probe_com.c **** #if (PROBE_COM_CFG_TERMINAL_REQ_EN == DEF_ENABLED)
 260:..\..\..\..\..\..\uC-Probe\Target\Communication\Generic\Source/probe_com.c **** static  CPU_SIZE_T   ProbeCom_ReqTerminalExec (CPU_INT08U      *prx_buf,
 261:..\..\..\..\..\..\uC-Probe\Target\Communication\Generic\Source/probe_com.c ****                                                CPU_INT08U      *ptx_buf,
 262:..\..\..\..\..\..\uC-Probe\Target\Communication\Generic\Source/probe_com.c ****                                                CPU_SIZE_T       rx_pkt_size,
 263:..\..\..\..\..\..\uC-Probe\Target\Communication\Generic\Source/probe_com.c ****                                                CPU_SIZE_T       tx_buf_size);
 264:..\..\..\..\..\..\uC-Probe\Target\Communication\Generic\Source/probe_com.c **** 
 265:..\..\..\..\..\..\uC-Probe\Target\Communication\Generic\Source/probe_com.c **** static  CPU_SIZE_T   ProbeCom_ReqTerminalIn   (CPU_INT08U      *prx_buf,
 266:..\..\..\..\..\..\uC-Probe\Target\Communication\Generic\Source/probe_com.c ****                                                CPU_INT08U      *ptx_buf,
 267:..\..\..\..\..\..\uC-Probe\Target\Communication\Generic\Source/probe_com.c ****                                                CPU_SIZE_T       rx_pkt_size,
 268:..\..\..\..\..\..\uC-Probe\Target\Communication\Generic\Source/probe_com.c ****                                                CPU_SIZE_T       tx_buf_size);
 269:..\..\..\..\..\..\uC-Probe\Target\Communication\Generic\Source/probe_com.c **** 
 270:..\..\..\..\..\..\uC-Probe\Target\Communication\Generic\Source/probe_com.c **** static  CPU_SIZE_T   ProbeCom_ReqTerminalOut  (CPU_INT08U      *prx_buf,
 271:..\..\..\..\..\..\uC-Probe\Target\Communication\Generic\Source/probe_com.c ****                                                CPU_INT08U      *ptx_buf,
 272:..\..\..\..\..\..\uC-Probe\Target\Communication\Generic\Source/probe_com.c ****                                                CPU_SIZE_T       rx_pkt_size,
 273:..\..\..\..\..\..\uC-Probe\Target\Communication\Generic\Source/probe_com.c ****                                                CPU_SIZE_T       tx_buf_size);
 274:..\..\..\..\..\..\uC-Probe\Target\Communication\Generic\Source/probe_com.c **** #endif
 275:..\..\..\..\..\..\uC-Probe\Target\Communication\Generic\Source/probe_com.c **** 
 276:..\..\..\..\..\..\uC-Probe\Target\Communication\Generic\Source/probe_com.c ****                                                                 /* ------------------- DYNAMIC BUFF
 277:..\..\..\..\..\..\uC-Probe\Target\Communication\Generic\Source/probe_com.c **** #if (PROBE_COM_CFG_STR_REQ_EN == DEF_TRUE)
 278:..\..\..\..\..\..\uC-Probe\Target\Communication\Generic\Source/probe_com.c **** static  void         ProbeCom_BufInit         (PROBE_COM_BUF   *pbuf,
 279:..\..\..\..\..\..\uC-Probe\Target\Communication\Generic\Source/probe_com.c ****                                                CPU_INT08U      *pdata,
 280:..\..\..\..\..\..\uC-Probe\Target\Communication\Generic\Source/probe_com.c ****                                                CPU_SIZE_T       len);
 281:..\..\..\..\..\..\uC-Probe\Target\Communication\Generic\Source/probe_com.c **** 
 282:..\..\..\..\..\..\uC-Probe\Target\Communication\Generic\Source/probe_com.c **** static  CPU_SIZE_T   ProbeCom_BufRd           (PROBE_COM_BUF   *pbuf,
 283:..\..\..\..\..\..\uC-Probe\Target\Communication\Generic\Source/probe_com.c ****                                                CPU_INT08U      *pdest,
 284:..\..\..\..\..\..\uC-Probe\Target\Communication\Generic\Source/probe_com.c ****                                                CPU_SIZE_T       len)
 285:..\..\..\..\..\..\uC-Probe\Target\Communication\Generic\Source/probe_com.c **** ;
 286:..\..\..\..\..\..\uC-Probe\Target\Communication\Generic\Source/probe_com.c **** static  CPU_SIZE_T   ProbeCom_BufWr           (PROBE_COM_BUF   *pbuf,
 287:..\..\..\..\..\..\uC-Probe\Target\Communication\Generic\Source/probe_com.c ****                                                CPU_INT08U      *psrc,
 288:..\..\..\..\..\..\uC-Probe\Target\Communication\Generic\Source/probe_com.c ****                                                CPU_SIZE_T       len);
 289:..\..\..\..\..\..\uC-Probe\Target\Communication\Generic\Source/probe_com.c **** 
 290:..\..\..\..\..\..\uC-Probe\Target\Communication\Generic\Source/probe_com.c **** static  CPU_BOOLEAN  ProbeCom_BufIsEmpty      (PROBE_COM_BUF   *pbuf);
 291:..\..\..\..\..\..\uC-Probe\Target\Communication\Generic\Source/probe_com.c **** #endif
 292:..\..\..\..\..\..\uC-Probe\Target\Communication\Generic\Source/probe_com.c **** 
 293:..\..\..\..\..\..\uC-Probe\Target\Communication\Generic\Source/probe_com.c **** #if 0
 294:..\..\..\..\..\..\uC-Probe\Target\Communication\Generic\Source/probe_com.c **** static  CPU_BOOLEAN  ProbeCom_BufIsFull       (PROBE_COM_BUF   *pbuf);
 295:..\..\..\..\..\..\uC-Probe\Target\Communication\Generic\Source/probe_com.c **** #endif
 296:..\..\..\..\..\..\uC-Probe\Target\Communication\Generic\Source/probe_com.c **** 
ARM GAS  C:\Users\daniel01\AppData\Local\Temp\ccHLFCB6.s 			page 7


 297:..\..\..\..\..\..\uC-Probe\Target\Communication\Generic\Source/probe_com.c ****                                                                 /* ------------------- STATIC BUFFE
 298:..\..\..\..\..\..\uC-Probe\Target\Communication\Generic\Source/probe_com.c **** static  CPU_INT08U   ProbeCom_GetINT08U       (CPU_INT08U     **pbuf);
 299:..\..\..\..\..\..\uC-Probe\Target\Communication\Generic\Source/probe_com.c **** 
 300:..\..\..\..\..\..\uC-Probe\Target\Communication\Generic\Source/probe_com.c **** static  CPU_INT16U   ProbeCom_GetINT16U       (CPU_INT08U     **pbuf);
 301:..\..\..\..\..\..\uC-Probe\Target\Communication\Generic\Source/probe_com.c **** 
 302:..\..\..\..\..\..\uC-Probe\Target\Communication\Generic\Source/probe_com.c **** static  CPU_INT32U   ProbeCom_GetINT32U       (CPU_INT08U     **pbuf);
 303:..\..\..\..\..\..\uC-Probe\Target\Communication\Generic\Source/probe_com.c **** 
 304:..\..\..\..\..\..\uC-Probe\Target\Communication\Generic\Source/probe_com.c **** static  void         ProbeCom_StoINT08U       (CPU_INT08U     **pbuf,
 305:..\..\..\..\..\..\uC-Probe\Target\Communication\Generic\Source/probe_com.c ****                                                CPU_INT08U       data);
 306:..\..\..\..\..\..\uC-Probe\Target\Communication\Generic\Source/probe_com.c **** 
 307:..\..\..\..\..\..\uC-Probe\Target\Communication\Generic\Source/probe_com.c **** static  void         ProbeCom_StoINT16U       (CPU_INT08U     **pbuf,
 308:..\..\..\..\..\..\uC-Probe\Target\Communication\Generic\Source/probe_com.c ****                                                CPU_INT16U       data);
 309:..\..\..\..\..\..\uC-Probe\Target\Communication\Generic\Source/probe_com.c **** 
 310:..\..\..\..\..\..\uC-Probe\Target\Communication\Generic\Source/probe_com.c **** #if 0
 311:..\..\..\..\..\..\uC-Probe\Target\Communication\Generic\Source/probe_com.c **** static  void         ProbeCom_StoINT32U       (CPU_INT08U     **pbuf,
 312:..\..\..\..\..\..\uC-Probe\Target\Communication\Generic\Source/probe_com.c ****                                                CPU_INT32U       data);
 313:..\..\..\..\..\..\uC-Probe\Target\Communication\Generic\Source/probe_com.c **** #endif
 314:..\..\..\..\..\..\uC-Probe\Target\Communication\Generic\Source/probe_com.c **** 
 315:..\..\..\..\..\..\uC-Probe\Target\Communication\Generic\Source/probe_com.c ****                                                                 /* -------------- DETERMINE PKT MOD
 316:..\..\..\..\..\..\uC-Probe\Target\Communication\Generic\Source/probe_com.c **** #if (PROBE_COM_CFG_STR_REQ_EN == DEF_ENABLED)
 317:..\..\..\..\..\..\uC-Probe\Target\Communication\Generic\Source/probe_com.c **** static  CPU_BOOLEAN  ProbeCom_StrOutAvail     (void);
 318:..\..\..\..\..\..\uC-Probe\Target\Communication\Generic\Source/probe_com.c **** #endif
 319:..\..\..\..\..\..\uC-Probe\Target\Communication\Generic\Source/probe_com.c **** 
 320:..\..\..\..\..\..\uC-Probe\Target\Communication\Generic\Source/probe_com.c **** 
 321:..\..\..\..\..\..\uC-Probe\Target\Communication\Generic\Source/probe_com.c **** #if (PROBE_COM_CFG_TERMINAL_REQ_EN == DEF_ENABLED)
 322:..\..\..\..\..\..\uC-Probe\Target\Communication\Generic\Source/probe_com.c **** static  CPU_BOOLEAN  ProbeCom_TerminalOutAvail(void);
 323:..\..\..\..\..\..\uC-Probe\Target\Communication\Generic\Source/probe_com.c **** 
 324:..\..\..\..\..\..\uC-Probe\Target\Communication\Generic\Source/probe_com.c **** static  CPU_BOOLEAN  ProbeCom_TerminalExecDone(void);
 325:..\..\..\..\..\..\uC-Probe\Target\Communication\Generic\Source/probe_com.c **** #endif
 326:..\..\..\..\..\..\uC-Probe\Target\Communication\Generic\Source/probe_com.c **** 
 327:..\..\..\..\..\..\uC-Probe\Target\Communication\Generic\Source/probe_com.c **** 
 328:..\..\..\..\..\..\uC-Probe\Target\Communication\Generic\Source/probe_com.c **** /*
 329:..\..\..\..\..\..\uC-Probe\Target\Communication\Generic\Source/probe_com.c **** ***************************************************************************************************
 330:..\..\..\..\..\..\uC-Probe\Target\Communication\Generic\Source/probe_com.c **** *                                     LOCAL CONFIGURATION ERRORS
 331:..\..\..\..\..\..\uC-Probe\Target\Communication\Generic\Source/probe_com.c **** ***************************************************************************************************
 332:..\..\..\..\..\..\uC-Probe\Target\Communication\Generic\Source/probe_com.c **** */
 333:..\..\..\..\..\..\uC-Probe\Target\Communication\Generic\Source/probe_com.c **** 
 334:..\..\..\..\..\..\uC-Probe\Target\Communication\Generic\Source/probe_com.c **** 
 335:..\..\..\..\..\..\uC-Probe\Target\Communication\Generic\Source/probe_com.c **** /*
 336:..\..\..\..\..\..\uC-Probe\Target\Communication\Generic\Source/probe_com.c **** ***************************************************************************************************
 337:..\..\..\..\..\..\uC-Probe\Target\Communication\Generic\Source/probe_com.c **** *                                           ProbeCom_Init()
 338:..\..\..\..\..\..\uC-Probe\Target\Communication\Generic\Source/probe_com.c **** *
 339:..\..\..\..\..\..\uC-Probe\Target\Communication\Generic\Source/probe_com.c **** * Description : Initialize the module.
 340:..\..\..\..\..\..\uC-Probe\Target\Communication\Generic\Source/probe_com.c **** *
 341:..\..\..\..\..\..\uC-Probe\Target\Communication\Generic\Source/probe_com.c **** * Argument(s) : none.
 342:..\..\..\..\..\..\uC-Probe\Target\Communication\Generic\Source/probe_com.c **** *
 343:..\..\..\..\..\..\uC-Probe\Target\Communication\Generic\Source/probe_com.c **** * Return(s)   : DEF_OK,   if initialization successful.
 344:..\..\..\..\..\..\uC-Probe\Target\Communication\Generic\Source/probe_com.c **** *               DEF_FAIL, otherwise.
 345:..\..\..\..\..\..\uC-Probe\Target\Communication\Generic\Source/probe_com.c **** *
 346:..\..\..\..\..\..\uC-Probe\Target\Communication\Generic\Source/probe_com.c **** * Caller(s)   : Application.
 347:..\..\..\..\..\..\uC-Probe\Target\Communication\Generic\Source/probe_com.c **** *
 348:..\..\..\..\..\..\uC-Probe\Target\Communication\Generic\Source/probe_com.c **** * Note(s)     : none.
 349:..\..\..\..\..\..\uC-Probe\Target\Communication\Generic\Source/probe_com.c **** ***************************************************************************************************
 350:..\..\..\..\..\..\uC-Probe\Target\Communication\Generic\Source/probe_com.c **** */
 351:..\..\..\..\..\..\uC-Probe\Target\Communication\Generic\Source/probe_com.c **** 
 352:..\..\..\..\..\..\uC-Probe\Target\Communication\Generic\Source/probe_com.c **** CPU_BOOLEAN  ProbeCom_Init (void)
 353:..\..\..\..\..\..\uC-Probe\Target\Communication\Generic\Source/probe_com.c **** {
ARM GAS  C:\Users\daniel01\AppData\Local\Temp\ccHLFCB6.s 			page 8


  43              		.loc 1 353 0
  44              		.cfi_startproc
  45              		@ args = 0, pretend = 0, frame = 0
  46              		@ frame_needed = 1, uses_anonymous_args = 0
  47              		@ link register save eliminated.
  48 0000 80B4     		push	{r7}
  49              	.LCFI0:
  50              		.cfi_def_cfa_offset 4
  51 0002 00AF     		add	r7, sp, #0
  52              		.cfi_offset 7, -4
  53              	.LCFI1:
  54              		.cfi_def_cfa_register 7
 354:..\..\..\..\..\..\uC-Probe\Target\Communication\Generic\Source/probe_com.c **** #if (PROBE_COM_CFG_TERMINAL_REQ_EN == DEF_ENABLED)
 355:..\..\..\..\..\..\uC-Probe\Target\Communication\Generic\Source/probe_com.c ****     CPU_BOOLEAN  ok;
 356:..\..\..\..\..\..\uC-Probe\Target\Communication\Generic\Source/probe_com.c **** #endif
 357:..\..\..\..\..\..\uC-Probe\Target\Communication\Generic\Source/probe_com.c **** 
 358:..\..\..\..\..\..\uC-Probe\Target\Communication\Generic\Source/probe_com.c **** 
 359:..\..\..\..\..\..\uC-Probe\Target\Communication\Generic\Source/probe_com.c **** #if (PROBE_COM_CFG_STR_REQ_EN      == DEF_ENABLED)
 360:..\..\..\..\..\..\uC-Probe\Target\Communication\Generic\Source/probe_com.c ****     Mem_Clr((void     *)&ProbeCom_StrInBufData[0],
 361:..\..\..\..\..\..\uC-Probe\Target\Communication\Generic\Source/probe_com.c ****             (CPU_SIZE_T) PROBE_COM_CFG_STR_IN_BUF_SIZE);
 362:..\..\..\..\..\..\uC-Probe\Target\Communication\Generic\Source/probe_com.c **** 
 363:..\..\..\..\..\..\uC-Probe\Target\Communication\Generic\Source/probe_com.c ****     ProbeCom_BufInit((PROBE_COM_BUF *)&ProbeCom_StrInBuf,
 364:..\..\..\..\..\..\uC-Probe\Target\Communication\Generic\Source/probe_com.c ****                      (CPU_INT08U    *)&ProbeCom_StrInBufData[0],
 365:..\..\..\..\..\..\uC-Probe\Target\Communication\Generic\Source/probe_com.c ****                      (CPU_SIZE_T     ) PROBE_COM_CFG_STR_IN_BUF_SIZE);
 366:..\..\..\..\..\..\uC-Probe\Target\Communication\Generic\Source/probe_com.c **** 
 367:..\..\..\..\..\..\uC-Probe\Target\Communication\Generic\Source/probe_com.c ****     Mem_Clr((void     *)&ProbeCom_StrOutBufData[0],
 368:..\..\..\..\..\..\uC-Probe\Target\Communication\Generic\Source/probe_com.c ****             (CPU_SIZE_T) PROBE_COM_CFG_STR_OUT_BUF_SIZE);
 369:..\..\..\..\..\..\uC-Probe\Target\Communication\Generic\Source/probe_com.c **** 
 370:..\..\..\..\..\..\uC-Probe\Target\Communication\Generic\Source/probe_com.c ****     ProbeCom_BufInit((PROBE_COM_BUF *)&ProbeCom_StrOutBuf,
 371:..\..\..\..\..\..\uC-Probe\Target\Communication\Generic\Source/probe_com.c ****                      (CPU_INT08U    *)&ProbeCom_StrOutBufData[0],
 372:..\..\..\..\..\..\uC-Probe\Target\Communication\Generic\Source/probe_com.c ****                      (CPU_SIZE_T     ) PROBE_COM_CFG_STR_OUT_BUF_SIZE);
 373:..\..\..\..\..\..\uC-Probe\Target\Communication\Generic\Source/probe_com.c **** #endif
 374:..\..\..\..\..\..\uC-Probe\Target\Communication\Generic\Source/probe_com.c **** 
 375:..\..\..\..\..\..\uC-Probe\Target\Communication\Generic\Source/probe_com.c **** 
 376:..\..\..\..\..\..\uC-Probe\Target\Communication\Generic\Source/probe_com.c **** #if (PROBE_COM_CFG_TERMINAL_REQ_EN == DEF_ENABLED)
 377:..\..\..\..\..\..\uC-Probe\Target\Communication\Generic\Source/probe_com.c ****     ProbeCom_TerminalExecHandler   = (void        *)0;
 378:..\..\..\..\..\..\uC-Probe\Target\Communication\Generic\Source/probe_com.c ****     ProbeCom_TerminalExecuting     = (CPU_BOOLEAN  )DEF_NO;
 379:..\..\..\..\..\..\uC-Probe\Target\Communication\Generic\Source/probe_com.c **** 
 380:..\..\..\..\..\..\uC-Probe\Target\Communication\Generic\Source/probe_com.c ****     ProbeCom_TerminalInHandler     = (void        *)0;
 381:..\..\..\..\..\..\uC-Probe\Target\Communication\Generic\Source/probe_com.c **** 
 382:..\..\..\..\..\..\uC-Probe\Target\Communication\Generic\Source/probe_com.c ****     ProbeCom_TerminalOutBufPtr     = (CPU_INT08U  *)0;
 383:..\..\..\..\..\..\uC-Probe\Target\Communication\Generic\Source/probe_com.c ****     ProbeCom_TerminalOutBufIx      = (CPU_SIZE_T   )0;
 384:..\..\..\..\..\..\uC-Probe\Target\Communication\Generic\Source/probe_com.c ****     ProbeCom_TerminalOutBufLen     = (CPU_SIZE_T   )0;
 385:..\..\..\..\..\..\uC-Probe\Target\Communication\Generic\Source/probe_com.c **** 
 386:..\..\..\..\..\..\uC-Probe\Target\Communication\Generic\Source/probe_com.c ****     ok = ProbeCom_OS_Init();
 387:..\..\..\..\..\..\uC-Probe\Target\Communication\Generic\Source/probe_com.c **** 
 388:..\..\..\..\..\..\uC-Probe\Target\Communication\Generic\Source/probe_com.c ****     if (ok == DEF_FAIL) {
 389:..\..\..\..\..\..\uC-Probe\Target\Communication\Generic\Source/probe_com.c ****         return (DEF_FAIL);
 390:..\..\..\..\..\..\uC-Probe\Target\Communication\Generic\Source/probe_com.c ****     }
 391:..\..\..\..\..\..\uC-Probe\Target\Communication\Generic\Source/probe_com.c **** #endif
 392:..\..\..\..\..\..\uC-Probe\Target\Communication\Generic\Source/probe_com.c **** 
 393:..\..\..\..\..\..\uC-Probe\Target\Communication\Generic\Source/probe_com.c **** 
 394:..\..\..\..\..\..\uC-Probe\Target\Communication\Generic\Source/probe_com.c **** #if (PROBE_COM_CFG_STAT_EN         == DEF_ENABLED)
 395:..\..\..\..\..\..\uC-Probe\Target\Communication\Generic\Source/probe_com.c ****     ProbeCom_RxPktCtr              =  0u;
  55              		.loc 1 395 0
  56 0004 40F20003 		movw	r3, #:lower16:ProbeCom_RxPktCtr
  57 0008 C0F20003 		movt	r3, #:upper16:ProbeCom_RxPktCtr
ARM GAS  C:\Users\daniel01\AppData\Local\Temp\ccHLFCB6.s 			page 9


  58 000c 4FF00002 		mov	r2, #0
  59 0010 1A60     		str	r2, [r3, #0]
 396:..\..\..\..\..\..\uC-Probe\Target\Communication\Generic\Source/probe_com.c ****     ProbeCom_TxPktCtr              =  0u;
  60              		.loc 1 396 0
  61 0012 40F20003 		movw	r3, #:lower16:ProbeCom_TxPktCtr
  62 0016 C0F20003 		movt	r3, #:upper16:ProbeCom_TxPktCtr
  63 001a 4FF00002 		mov	r2, #0
  64 001e 1A60     		str	r2, [r3, #0]
 397:..\..\..\..\..\..\uC-Probe\Target\Communication\Generic\Source/probe_com.c **** 
 398:..\..\..\..\..\..\uC-Probe\Target\Communication\Generic\Source/probe_com.c ****     ProbeCom_TxSymCtr              =  0u;
  65              		.loc 1 398 0
  66 0020 40F20003 		movw	r3, #:lower16:ProbeCom_TxSymCtr
  67 0024 C0F20003 		movt	r3, #:upper16:ProbeCom_TxSymCtr
  68 0028 4FF00002 		mov	r2, #0
  69 002c 1A60     		str	r2, [r3, #0]
 399:..\..\..\..\..\..\uC-Probe\Target\Communication\Generic\Source/probe_com.c ****     ProbeCom_TxSymByteCtr          =  0u;
  70              		.loc 1 399 0
  71 002e 40F20003 		movw	r3, #:lower16:ProbeCom_TxSymByteCtr
  72 0032 C0F20003 		movt	r3, #:upper16:ProbeCom_TxSymByteCtr
  73 0036 4FF00002 		mov	r2, #0
  74 003a 1A60     		str	r2, [r3, #0]
 400:..\..\..\..\..\..\uC-Probe\Target\Communication\Generic\Source/probe_com.c ****     ProbeCom_ErrPktCtr             =  0u;
  75              		.loc 1 400 0
  76 003c 40F20003 		movw	r3, #:lower16:ProbeCom_ErrPktCtr
  77 0040 C0F20003 		movt	r3, #:upper16:ProbeCom_ErrPktCtr
  78 0044 4FF00002 		mov	r2, #0
  79 0048 1A60     		str	r2, [r3, #0]
 401:..\..\..\..\..\..\uC-Probe\Target\Communication\Generic\Source/probe_com.c **** 
 402:..\..\..\..\..\..\uC-Probe\Target\Communication\Generic\Source/probe_com.c **** #if (PROBE_COM_CFG_STR_REQ_EN      == DEF_ENABLED)
 403:..\..\..\..\..\..\uC-Probe\Target\Communication\Generic\Source/probe_com.c ****     ProbeCom_StrRxCtr              =  0u;
 404:..\..\..\..\..\..\uC-Probe\Target\Communication\Generic\Source/probe_com.c ****     ProbeCom_StrRxOvfErrCtr        =  0u;
 405:..\..\..\..\..\..\uC-Probe\Target\Communication\Generic\Source/probe_com.c **** 
 406:..\..\..\..\..\..\uC-Probe\Target\Communication\Generic\Source/probe_com.c ****     ProbeCom_StrTxCtr              =  0u;
 407:..\..\..\..\..\..\uC-Probe\Target\Communication\Generic\Source/probe_com.c ****     ProbeCom_StrTxOvfErrCtr        =  0u;
 408:..\..\..\..\..\..\uC-Probe\Target\Communication\Generic\Source/probe_com.c **** #endif
 409:..\..\..\..\..\..\uC-Probe\Target\Communication\Generic\Source/probe_com.c **** 
 410:..\..\..\..\..\..\uC-Probe\Target\Communication\Generic\Source/probe_com.c **** #if (PROBE_COM_CFG_WR_REQ_EN       == DEF_ENABLED)
 411:..\..\..\..\..\..\uC-Probe\Target\Communication\Generic\Source/probe_com.c ****     ProbeCom_RxSymCtr              =  0u;
  80              		.loc 1 411 0
  81 004a 40F20003 		movw	r3, #:lower16:ProbeCom_RxSymCtr
  82 004e C0F20003 		movt	r3, #:upper16:ProbeCom_RxSymCtr
  83 0052 4FF00002 		mov	r2, #0
  84 0056 1A60     		str	r2, [r3, #0]
 412:..\..\..\..\..\..\uC-Probe\Target\Communication\Generic\Source/probe_com.c ****     ProbeCom_RxSymByteCtr          =  0u;
  85              		.loc 1 412 0
  86 0058 40F20003 		movw	r3, #:lower16:ProbeCom_RxSymByteCtr
  87 005c C0F20003 		movt	r3, #:upper16:ProbeCom_RxSymByteCtr
  88 0060 4FF00002 		mov	r2, #0
  89 0064 1A60     		str	r2, [r3, #0]
 413:..\..\..\..\..\..\uC-Probe\Target\Communication\Generic\Source/probe_com.c **** #endif
 414:..\..\..\..\..\..\uC-Probe\Target\Communication\Generic\Source/probe_com.c **** #endif
 415:..\..\..\..\..\..\uC-Probe\Target\Communication\Generic\Source/probe_com.c **** 
 416:..\..\..\..\..\..\uC-Probe\Target\Communication\Generic\Source/probe_com.c ****     ProbeCom_EndiannessTest        =  0x12345678uL;
  90              		.loc 1 416 0
  91 0066 40F20003 		movw	r3, #:lower16:ProbeCom_EndiannessTest
  92 006a C0F20003 		movt	r3, #:upper16:ProbeCom_EndiannessTest
  93 006e 45F27862 		movw	r2, #:lower16:305419896
ARM GAS  C:\Users\daniel01\AppData\Local\Temp\ccHLFCB6.s 			page 10


  94 0072 C1F23422 		movt	r2, #:upper16:305419896
  95 0076 1A60     		str	r2, [r3, #0]
 417:..\..\..\..\..\..\uC-Probe\Target\Communication\Generic\Source/probe_com.c **** 
 418:..\..\..\..\..\..\uC-Probe\Target\Communication\Generic\Source/probe_com.c ****     return (DEF_OK);
  96              		.loc 1 418 0
  97 0078 4FF00103 		mov	r3, #1
 419:..\..\..\..\..\..\uC-Probe\Target\Communication\Generic\Source/probe_com.c **** }
  98              		.loc 1 419 0
  99 007c 1846     		mov	r0, r3
 100 007e BD46     		mov	sp, r7
 101 0080 80BC     		pop	{r7}
 102 0082 7047     		bx	lr
 103              		.cfi_endproc
 104              	.LFE0:
 105              		.size	ProbeCom_Init, .-ProbeCom_Init
 106              		.section	.text.ProbeCom_ParseRxPkt,"ax",%progbits
 107              		.align	2
 108              		.global	ProbeCom_ParseRxPkt
 109              		.thumb
 110              		.thumb_func
 111              		.type	ProbeCom_ParseRxPkt, %function
 112              	ProbeCom_ParseRxPkt:
 113              	.LFB1:
 420:..\..\..\..\..\..\uC-Probe\Target\Communication\Generic\Source/probe_com.c **** 
 421:..\..\..\..\..\..\uC-Probe\Target\Communication\Generic\Source/probe_com.c **** 
 422:..\..\..\..\..\..\uC-Probe\Target\Communication\Generic\Source/probe_com.c **** /*
 423:..\..\..\..\..\..\uC-Probe\Target\Communication\Generic\Source/probe_com.c **** ***************************************************************************************************
 424:..\..\..\..\..\..\uC-Probe\Target\Communication\Generic\Source/probe_com.c **** *                                          ProbeCom_StrRd()
 425:..\..\..\..\..\..\uC-Probe\Target\Communication\Generic\Source/probe_com.c **** *
 426:..\..\..\..\..\..\uC-Probe\Target\Communication\Generic\Source/probe_com.c **** * Description : Read input data.
 427:..\..\..\..\..\..\uC-Probe\Target\Communication\Generic\Source/probe_com.c **** *
 428:..\..\..\..\..\..\uC-Probe\Target\Communication\Generic\Source/probe_com.c **** * Argument(s) : pdest       Pointer to the destination buffer.
 429:..\..\..\..\..\..\uC-Probe\Target\Communication\Generic\Source/probe_com.c **** *
 430:..\..\..\..\..\..\uC-Probe\Target\Communication\Generic\Source/probe_com.c **** *               len         Length of the destination buffer, in octets/characters.
 431:..\..\..\..\..\..\uC-Probe\Target\Communication\Generic\Source/probe_com.c **** *
 432:..\..\..\..\..\..\uC-Probe\Target\Communication\Generic\Source/probe_com.c **** * Return(s)   : Number of octets/characters read.
 433:..\..\..\..\..\..\uC-Probe\Target\Communication\Generic\Source/probe_com.c **** *
 434:..\..\..\..\..\..\uC-Probe\Target\Communication\Generic\Source/probe_com.c **** * Caller(s)   : Application.
 435:..\..\..\..\..\..\uC-Probe\Target\Communication\Generic\Source/probe_com.c **** *
 436:..\..\..\..\..\..\uC-Probe\Target\Communication\Generic\Source/probe_com.c **** * Note(s)     : (1) This function implements a non-blocking read.  It will read as much data as fit
 437:..\..\..\..\..\..\uC-Probe\Target\Communication\Generic\Source/probe_com.c **** *                   into the buffer, up to 'len' bytes/characters.  The calling application should
 438:..\..\..\..\..\..\uC-Probe\Target\Communication\Generic\Source/probe_com.c **** *                   monitor the return value to see if more data needs to be read.
 439:..\..\..\..\..\..\uC-Probe\Target\Communication\Generic\Source/probe_com.c **** *
 440:..\..\..\..\..\..\uC-Probe\Target\Communication\Generic\Source/probe_com.c **** *               (2) Since this function never blocks, it should not be called in a tight loop witho
 441:..\..\..\..\..\..\uC-Probe\Target\Communication\Generic\Source/probe_com.c **** *                   delay.
 442:..\..\..\..\..\..\uC-Probe\Target\Communication\Generic\Source/probe_com.c **** *
 443:..\..\..\..\..\..\uC-Probe\Target\Communication\Generic\Source/probe_com.c **** *               (3) This function MAY be called from an ISR.
 444:..\..\..\..\..\..\uC-Probe\Target\Communication\Generic\Source/probe_com.c **** ***************************************************************************************************
 445:..\..\..\..\..\..\uC-Probe\Target\Communication\Generic\Source/probe_com.c **** */
 446:..\..\..\..\..\..\uC-Probe\Target\Communication\Generic\Source/probe_com.c **** 
 447:..\..\..\..\..\..\uC-Probe\Target\Communication\Generic\Source/probe_com.c **** #if (PROBE_COM_CFG_STR_REQ_EN == DEF_ENABLED)
 448:..\..\..\..\..\..\uC-Probe\Target\Communication\Generic\Source/probe_com.c **** CPU_SIZE_T  ProbeCom_StrRd (CPU_CHAR    *pdest,
 449:..\..\..\..\..\..\uC-Probe\Target\Communication\Generic\Source/probe_com.c ****                             CPU_SIZE_T   len)
 450:..\..\..\..\..\..\uC-Probe\Target\Communication\Generic\Source/probe_com.c **** {
 451:..\..\..\..\..\..\uC-Probe\Target\Communication\Generic\Source/probe_com.c ****     CPU_SIZE_T  len_rd;
 452:..\..\..\..\..\..\uC-Probe\Target\Communication\Generic\Source/probe_com.c **** 
 453:..\..\..\..\..\..\uC-Probe\Target\Communication\Generic\Source/probe_com.c **** 
ARM GAS  C:\Users\daniel01\AppData\Local\Temp\ccHLFCB6.s 			page 11


 454:..\..\..\..\..\..\uC-Probe\Target\Communication\Generic\Source/probe_com.c ****     len_rd = ProbeCom_BufRd((PROBE_COM_BUF *)&ProbeCom_StrInBuf,
 455:..\..\..\..\..\..\uC-Probe\Target\Communication\Generic\Source/probe_com.c ****                             (CPU_INT08U    *) pdest,
 456:..\..\..\..\..\..\uC-Probe\Target\Communication\Generic\Source/probe_com.c ****                             (CPU_SIZE_T     ) len);
 457:..\..\..\..\..\..\uC-Probe\Target\Communication\Generic\Source/probe_com.c **** 
 458:..\..\..\..\..\..\uC-Probe\Target\Communication\Generic\Source/probe_com.c ****     return (len_rd);
 459:..\..\..\..\..\..\uC-Probe\Target\Communication\Generic\Source/probe_com.c **** }
 460:..\..\..\..\..\..\uC-Probe\Target\Communication\Generic\Source/probe_com.c **** #endif
 461:..\..\..\..\..\..\uC-Probe\Target\Communication\Generic\Source/probe_com.c **** 
 462:..\..\..\..\..\..\uC-Probe\Target\Communication\Generic\Source/probe_com.c **** 
 463:..\..\..\..\..\..\uC-Probe\Target\Communication\Generic\Source/probe_com.c **** /*
 464:..\..\..\..\..\..\uC-Probe\Target\Communication\Generic\Source/probe_com.c **** ***************************************************************************************************
 465:..\..\..\..\..\..\uC-Probe\Target\Communication\Generic\Source/probe_com.c **** *                                          ProbeCom_StrWr()
 466:..\..\..\..\..\..\uC-Probe\Target\Communication\Generic\Source/probe_com.c **** *
 467:..\..\..\..\..\..\uC-Probe\Target\Communication\Generic\Source/probe_com.c **** * Description : Write or buffer data for output.
 468:..\..\..\..\..\..\uC-Probe\Target\Communication\Generic\Source/probe_com.c **** *
 469:..\..\..\..\..\..\uC-Probe\Target\Communication\Generic\Source/probe_com.c **** * Argument(s) : psrc        Pointer to the source buffer.
 470:..\..\..\..\..\..\uC-Probe\Target\Communication\Generic\Source/probe_com.c **** *
 471:..\..\..\..\..\..\uC-Probe\Target\Communication\Generic\Source/probe_com.c **** *               len         Length of the source buffer, in octets/characters.
 472:..\..\..\..\..\..\uC-Probe\Target\Communication\Generic\Source/probe_com.c **** *
 473:..\..\..\..\..\..\uC-Probe\Target\Communication\Generic\Source/probe_com.c **** * Return(s)   : Number of octets/characters written or buffered.
 474:..\..\..\..\..\..\uC-Probe\Target\Communication\Generic\Source/probe_com.c **** *
 475:..\..\..\..\..\..\uC-Probe\Target\Communication\Generic\Source/probe_com.c **** * Caller(s)   : Application.
 476:..\..\..\..\..\..\uC-Probe\Target\Communication\Generic\Source/probe_com.c **** *
 477:..\..\..\..\..\..\uC-Probe\Target\Communication\Generic\Source/probe_com.c **** * Note(s)     : (1) This function implements a non-blocking write.  It will write as much data as f
 478:..\..\..\..\..\..\uC-Probe\Target\Communication\Generic\Source/probe_com.c **** *                   into the buffer, up to 'len' bytes/characters.  The calling application should
 479:..\..\..\..\..\..\uC-Probe\Target\Communication\Generic\Source/probe_com.c **** *                   monitor the return value to see if more data from the buffer needs to be writte
 480:..\..\..\..\..\..\uC-Probe\Target\Communication\Generic\Source/probe_com.c **** *
 481:..\..\..\..\..\..\uC-Probe\Target\Communication\Generic\Source/probe_com.c **** *               (2) Since this function never blocks, it should not be called in a tight loop witho
 482:..\..\..\..\..\..\uC-Probe\Target\Communication\Generic\Source/probe_com.c **** *                   delay.
 483:..\..\..\..\..\..\uC-Probe\Target\Communication\Generic\Source/probe_com.c **** *
 484:..\..\..\..\..\..\uC-Probe\Target\Communication\Generic\Source/probe_com.c **** *               (3) This function MAY be called from an ISR.
 485:..\..\..\..\..\..\uC-Probe\Target\Communication\Generic\Source/probe_com.c **** ***************************************************************************************************
 486:..\..\..\..\..\..\uC-Probe\Target\Communication\Generic\Source/probe_com.c **** */
 487:..\..\..\..\..\..\uC-Probe\Target\Communication\Generic\Source/probe_com.c **** 
 488:..\..\..\..\..\..\uC-Probe\Target\Communication\Generic\Source/probe_com.c **** #if (PROBE_COM_CFG_STR_REQ_EN == DEF_ENABLED)
 489:..\..\..\..\..\..\uC-Probe\Target\Communication\Generic\Source/probe_com.c **** CPU_SIZE_T  ProbeCom_StrWr (CPU_CHAR    *psrc,
 490:..\..\..\..\..\..\uC-Probe\Target\Communication\Generic\Source/probe_com.c ****                             CPU_SIZE_T   len)
 491:..\..\..\..\..\..\uC-Probe\Target\Communication\Generic\Source/probe_com.c **** {
 492:..\..\..\..\..\..\uC-Probe\Target\Communication\Generic\Source/probe_com.c ****     CPU_SIZE_T  len_wr;
 493:..\..\..\..\..\..\uC-Probe\Target\Communication\Generic\Source/probe_com.c **** 
 494:..\..\..\..\..\..\uC-Probe\Target\Communication\Generic\Source/probe_com.c **** 
 495:..\..\..\..\..\..\uC-Probe\Target\Communication\Generic\Source/probe_com.c ****     len_wr = ProbeCom_BufWr((PROBE_COM_BUF *)&ProbeCom_StrOutBuf,
 496:..\..\..\..\..\..\uC-Probe\Target\Communication\Generic\Source/probe_com.c ****                             (CPU_INT08U    *) psrc,
 497:..\..\..\..\..\..\uC-Probe\Target\Communication\Generic\Source/probe_com.c ****                             (CPU_SIZE_T     ) len);
 498:..\..\..\..\..\..\uC-Probe\Target\Communication\Generic\Source/probe_com.c **** 
 499:..\..\..\..\..\..\uC-Probe\Target\Communication\Generic\Source/probe_com.c **** #if (PROBE_COM_CFG_STAT_EN == DEF_ENABLED)
 500:..\..\..\..\..\..\uC-Probe\Target\Communication\Generic\Source/probe_com.c ****     if (len_wr < len) {
 501:..\..\..\..\..\..\uC-Probe\Target\Communication\Generic\Source/probe_com.c ****         ProbeCom_StrTxOvfErrCtr++;
 502:..\..\..\..\..\..\uC-Probe\Target\Communication\Generic\Source/probe_com.c ****     }
 503:..\..\..\..\..\..\uC-Probe\Target\Communication\Generic\Source/probe_com.c **** #endif
 504:..\..\..\..\..\..\uC-Probe\Target\Communication\Generic\Source/probe_com.c **** 
 505:..\..\..\..\..\..\uC-Probe\Target\Communication\Generic\Source/probe_com.c ****     return (len_wr);
 506:..\..\..\..\..\..\uC-Probe\Target\Communication\Generic\Source/probe_com.c **** }
 507:..\..\..\..\..\..\uC-Probe\Target\Communication\Generic\Source/probe_com.c **** #endif
 508:..\..\..\..\..\..\uC-Probe\Target\Communication\Generic\Source/probe_com.c **** 
 509:..\..\..\..\..\..\uC-Probe\Target\Communication\Generic\Source/probe_com.c **** 
 510:..\..\..\..\..\..\uC-Probe\Target\Communication\Generic\Source/probe_com.c **** /*
ARM GAS  C:\Users\daniel01\AppData\Local\Temp\ccHLFCB6.s 			page 12


 511:..\..\..\..\..\..\uC-Probe\Target\Communication\Generic\Source/probe_com.c **** ***************************************************************************************************
 512:..\..\..\..\..\..\uC-Probe\Target\Communication\Generic\Source/probe_com.c **** *                                       ProbeCom_TerminalOut()
 513:..\..\..\..\..\..\uC-Probe\Target\Communication\Generic\Source/probe_com.c **** *
 514:..\..\..\..\..\..\uC-Probe\Target\Communication\Generic\Source/probe_com.c **** * Description : Output data over terminal.
 515:..\..\..\..\..\..\uC-Probe\Target\Communication\Generic\Source/probe_com.c **** *
 516:..\..\..\..\..\..\uC-Probe\Target\Communication\Generic\Source/probe_com.c **** * Argument(s) : psrc        Pointer to the source buffer.
 517:..\..\..\..\..\..\uC-Probe\Target\Communication\Generic\Source/probe_com.c **** *
 518:..\..\..\..\..\..\uC-Probe\Target\Communication\Generic\Source/probe_com.c **** *               len         Length of source buffer, in octets/characters.
 519:..\..\..\..\..\..\uC-Probe\Target\Communication\Generic\Source/probe_com.c **** *
 520:..\..\..\..\..\..\uC-Probe\Target\Communication\Generic\Source/probe_com.c **** * Return(s)   : Number of octets/characters output.
 521:..\..\..\..\..\..\uC-Probe\Target\Communication\Generic\Source/probe_com.c **** *
 522:..\..\..\..\..\..\uC-Probe\Target\Communication\Generic\Source/probe_com.c **** * Caller(s)   : Application.
 523:..\..\..\..\..\..\uC-Probe\Target\Communication\Generic\Source/probe_com.c **** *
 524:..\..\..\..\..\..\uC-Probe\Target\Communication\Generic\Source/probe_com.c **** * Note(s)     : (1) This function implements a blocking write.  It will queue the request and wait 
 525:..\..\..\..\..\..\uC-Probe\Target\Communication\Generic\Source/probe_com.c **** *                   all of the data has been buffered or transmitted before returning.
 526:..\..\..\..\..\..\uC-Probe\Target\Communication\Generic\Source/probe_com.c **** *
 527:..\..\..\..\..\..\uC-Probe\Target\Communication\Generic\Source/probe_com.c **** *               (2) Terminal data may ONLY be output while a command is being executed.
 528:..\..\..\..\..\..\uC-Probe\Target\Communication\Generic\Source/probe_com.c **** *
 529:..\..\..\..\..\..\uC-Probe\Target\Communication\Generic\Source/probe_com.c **** *                   (a) Generic read/write functionality is provided by the string read/write funct
 530:..\..\..\..\..\..\uC-Probe\Target\Communication\Generic\Source/probe_com.c **** *                       (see 'ProbeCom_StrRd()', 'ProbeCom_StrWr()').
 531:..\..\..\..\..\..\uC-Probe\Target\Communication\Generic\Source/probe_com.c **** *
 532:..\..\..\..\..\..\uC-Probe\Target\Communication\Generic\Source/probe_com.c **** *               (3) This function MUST NOT be called from an ISR.
 533:..\..\..\..\..\..\uC-Probe\Target\Communication\Generic\Source/probe_com.c **** ***************************************************************************************************
 534:..\..\..\..\..\..\uC-Probe\Target\Communication\Generic\Source/probe_com.c **** */
 535:..\..\..\..\..\..\uC-Probe\Target\Communication\Generic\Source/probe_com.c **** 
 536:..\..\..\..\..\..\uC-Probe\Target\Communication\Generic\Source/probe_com.c **** #if (PROBE_COM_CFG_TERMINAL_REQ_EN == DEF_ENABLED)
 537:..\..\..\..\..\..\uC-Probe\Target\Communication\Generic\Source/probe_com.c **** CPU_SIZE_T  ProbeCom_TerminalOut (CPU_CHAR    *psrc,
 538:..\..\..\..\..\..\uC-Probe\Target\Communication\Generic\Source/probe_com.c ****                                   CPU_SIZE_T   len)
 539:..\..\..\..\..\..\uC-Probe\Target\Communication\Generic\Source/probe_com.c **** {
 540:..\..\..\..\..\..\uC-Probe\Target\Communication\Generic\Source/probe_com.c ****     CPU_SR_ALLOC();
 541:..\..\..\..\..\..\uC-Probe\Target\Communication\Generic\Source/probe_com.c **** 
 542:..\..\..\..\..\..\uC-Probe\Target\Communication\Generic\Source/probe_com.c **** 
 543:..\..\..\..\..\..\uC-Probe\Target\Communication\Generic\Source/probe_com.c ****                                                                 /* ------------------- VALIDATE ARG
 544:..\..\..\..\..\..\uC-Probe\Target\Communication\Generic\Source/probe_com.c ****     if (psrc == (CPU_CHAR *)0) {                                /* Validate NULL ptr.              
 545:..\..\..\..\..\..\uC-Probe\Target\Communication\Generic\Source/probe_com.c ****         return ((CPU_SIZE_T)0);
 546:..\..\..\..\..\..\uC-Probe\Target\Communication\Generic\Source/probe_com.c ****     }
 547:..\..\..\..\..\..\uC-Probe\Target\Communication\Generic\Source/probe_com.c **** 
 548:..\..\..\..\..\..\uC-Probe\Target\Communication\Generic\Source/probe_com.c ****     if (len == 0u) {                                            /* Validate NULL len.              
 549:..\..\..\..\..\..\uC-Probe\Target\Communication\Generic\Source/probe_com.c ****         return ((CPU_SIZE_T)0);
 550:..\..\..\..\..\..\uC-Probe\Target\Communication\Generic\Source/probe_com.c ****     }
 551:..\..\..\..\..\..\uC-Probe\Target\Communication\Generic\Source/probe_com.c **** 
 552:..\..\..\..\..\..\uC-Probe\Target\Communication\Generic\Source/probe_com.c **** 
 553:..\..\..\..\..\..\uC-Probe\Target\Communication\Generic\Source/probe_com.c **** 
 554:..\..\..\..\..\..\uC-Probe\Target\Communication\Generic\Source/probe_com.c ****                                                                 /* ------------------- START OUTPUT
 555:..\..\..\..\..\..\uC-Probe\Target\Communication\Generic\Source/probe_com.c ****     CPU_CRITICAL_ENTER();
 556:..\..\..\..\..\..\uC-Probe\Target\Communication\Generic\Source/probe_com.c ****     if (ProbeCom_TerminalExecuting == DEF_NO) {                 /* Chk if cmd exec'ing.            
 557:..\..\..\..\..\..\uC-Probe\Target\Communication\Generic\Source/probe_com.c ****         CPU_CRITICAL_EXIT();
 558:..\..\..\..\..\..\uC-Probe\Target\Communication\Generic\Source/probe_com.c ****         return ((CPU_SIZE_T)0);
 559:..\..\..\..\..\..\uC-Probe\Target\Communication\Generic\Source/probe_com.c ****     }
 560:..\..\..\..\..\..\uC-Probe\Target\Communication\Generic\Source/probe_com.c **** 
 561:..\..\..\..\..\..\uC-Probe\Target\Communication\Generic\Source/probe_com.c ****     if (ProbeCom_TerminalOutBufPtr != (CPU_INT08U *)0) {        /* Chk if out in progress.         
 562:..\..\..\..\..\..\uC-Probe\Target\Communication\Generic\Source/probe_com.c ****         CPU_CRITICAL_EXIT();
 563:..\..\..\..\..\..\uC-Probe\Target\Communication\Generic\Source/probe_com.c ****         return ((CPU_SIZE_T)0);
 564:..\..\..\..\..\..\uC-Probe\Target\Communication\Generic\Source/probe_com.c ****     }
 565:..\..\..\..\..\..\uC-Probe\Target\Communication\Generic\Source/probe_com.c **** 
 566:..\..\..\..\..\..\uC-Probe\Target\Communication\Generic\Source/probe_com.c ****     ProbeCom_TerminalOutBufPtr = (CPU_INT08U *)psrc;            /* Schedule output.                
 567:..\..\..\..\..\..\uC-Probe\Target\Communication\Generic\Source/probe_com.c ****     ProbeCom_TerminalOutBufIx  = (CPU_SIZE_T  )0;
ARM GAS  C:\Users\daniel01\AppData\Local\Temp\ccHLFCB6.s 			page 13


 568:..\..\..\..\..\..\uC-Probe\Target\Communication\Generic\Source/probe_com.c ****     ProbeCom_TerminalOutBufLen = (CPU_SIZE_T  )len;
 569:..\..\..\..\..\..\uC-Probe\Target\Communication\Generic\Source/probe_com.c **** 
 570:..\..\..\..\..\..\uC-Probe\Target\Communication\Generic\Source/probe_com.c ****     ProbeCom_OS_TerminalOutWait();                              /* Wait for output completion.     
 571:..\..\..\..\..\..\uC-Probe\Target\Communication\Generic\Source/probe_com.c **** 
 572:..\..\..\..\..\..\uC-Probe\Target\Communication\Generic\Source/probe_com.c ****     ProbeCom_TerminalOutBufPtr = (CPU_INT08U *)0;
 573:..\..\..\..\..\..\uC-Probe\Target\Communication\Generic\Source/probe_com.c ****     ProbeCom_TerminalOutBufIx  = (CPU_SIZE_T  )0;
 574:..\..\..\..\..\..\uC-Probe\Target\Communication\Generic\Source/probe_com.c ****     ProbeCom_TerminalOutBufLen = (CPU_SIZE_T  )0;
 575:..\..\..\..\..\..\uC-Probe\Target\Communication\Generic\Source/probe_com.c ****     CPU_CRITICAL_EXIT();
 576:..\..\..\..\..\..\uC-Probe\Target\Communication\Generic\Source/probe_com.c **** 
 577:..\..\..\..\..\..\uC-Probe\Target\Communication\Generic\Source/probe_com.c **** 
 578:..\..\..\..\..\..\uC-Probe\Target\Communication\Generic\Source/probe_com.c **** 
 579:..\..\..\..\..\..\uC-Probe\Target\Communication\Generic\Source/probe_com.c ****                                                                 /* ----------------------- RTN ----
 580:..\..\..\..\..\..\uC-Probe\Target\Communication\Generic\Source/probe_com.c ****     return (len);
 581:..\..\..\..\..\..\uC-Probe\Target\Communication\Generic\Source/probe_com.c **** }
 582:..\..\..\..\..\..\uC-Probe\Target\Communication\Generic\Source/probe_com.c **** #endif
 583:..\..\..\..\..\..\uC-Probe\Target\Communication\Generic\Source/probe_com.c **** 
 584:..\..\..\..\..\..\uC-Probe\Target\Communication\Generic\Source/probe_com.c **** 
 585:..\..\..\..\..\..\uC-Probe\Target\Communication\Generic\Source/probe_com.c **** /*
 586:..\..\..\..\..\..\uC-Probe\Target\Communication\Generic\Source/probe_com.c **** ***************************************************************************************************
 587:..\..\..\..\..\..\uC-Probe\Target\Communication\Generic\Source/probe_com.c **** *                                   ProbeCom_TerminalExecComplete()
 588:..\..\..\..\..\..\uC-Probe\Target\Communication\Generic\Source/probe_com.c **** *
 589:..\..\..\..\..\..\uC-Probe\Target\Communication\Generic\Source/probe_com.c **** * Description : Signal completion of command execution.
 590:..\..\..\..\..\..\uC-Probe\Target\Communication\Generic\Source/probe_com.c **** *
 591:..\..\..\..\..\..\uC-Probe\Target\Communication\Generic\Source/probe_com.c **** * Argument(s) : none.
 592:..\..\..\..\..\..\uC-Probe\Target\Communication\Generic\Source/probe_com.c **** *
 593:..\..\..\..\..\..\uC-Probe\Target\Communication\Generic\Source/probe_com.c **** * Return(s)   : The number of bytes in the data segment of the packet to transmit in response.
 594:..\..\..\..\..\..\uC-Probe\Target\Communication\Generic\Source/probe_com.c **** *
 595:..\..\..\..\..\..\uC-Probe\Target\Communication\Generic\Source/probe_com.c **** * Caller(s)   : Application.
 596:..\..\..\..\..\..\uC-Probe\Target\Communication\Generic\Source/probe_com.c **** *
 597:..\..\..\..\..\..\uC-Probe\Target\Communication\Generic\Source/probe_com.c **** * Note(s)     : none.
 598:..\..\..\..\..\..\uC-Probe\Target\Communication\Generic\Source/probe_com.c **** ***************************************************************************************************
 599:..\..\..\..\..\..\uC-Probe\Target\Communication\Generic\Source/probe_com.c **** */
 600:..\..\..\..\..\..\uC-Probe\Target\Communication\Generic\Source/probe_com.c **** 
 601:..\..\..\..\..\..\uC-Probe\Target\Communication\Generic\Source/probe_com.c **** #if (PROBE_COM_CFG_TERMINAL_REQ_EN == DEF_ENABLED)
 602:..\..\..\..\..\..\uC-Probe\Target\Communication\Generic\Source/probe_com.c **** void  ProbeCom_TerminalExecComplete (void)
 603:..\..\..\..\..\..\uC-Probe\Target\Communication\Generic\Source/probe_com.c **** {
 604:..\..\..\..\..\..\uC-Probe\Target\Communication\Generic\Source/probe_com.c ****     CPU_BOOLEAN  executing;
 605:..\..\..\..\..\..\uC-Probe\Target\Communication\Generic\Source/probe_com.c ****     CPU_SR_ALLOC();
 606:..\..\..\..\..\..\uC-Probe\Target\Communication\Generic\Source/probe_com.c **** 
 607:..\..\..\..\..\..\uC-Probe\Target\Communication\Generic\Source/probe_com.c **** 
 608:..\..\..\..\..\..\uC-Probe\Target\Communication\Generic\Source/probe_com.c ****     CPU_CRITICAL_ENTER();
 609:..\..\..\..\..\..\uC-Probe\Target\Communication\Generic\Source/probe_com.c ****     executing = ProbeCom_TerminalExecuting;
 610:..\..\..\..\..\..\uC-Probe\Target\Communication\Generic\Source/probe_com.c ****     if (executing == DEF_YES) {
 611:..\..\..\..\..\..\uC-Probe\Target\Communication\Generic\Source/probe_com.c ****         ProbeCom_TerminalExecuting = DEF_NO;
 612:..\..\..\..\..\..\uC-Probe\Target\Communication\Generic\Source/probe_com.c ****     }
 613:..\..\..\..\..\..\uC-Probe\Target\Communication\Generic\Source/probe_com.c ****     CPU_CRITICAL_EXIT();
 614:..\..\..\..\..\..\uC-Probe\Target\Communication\Generic\Source/probe_com.c **** }
 615:..\..\..\..\..\..\uC-Probe\Target\Communication\Generic\Source/probe_com.c **** #endif
 616:..\..\..\..\..\..\uC-Probe\Target\Communication\Generic\Source/probe_com.c **** 
 617:..\..\..\..\..\..\uC-Probe\Target\Communication\Generic\Source/probe_com.c **** 
 618:..\..\..\..\..\..\uC-Probe\Target\Communication\Generic\Source/probe_com.c **** /*
 619:..\..\..\..\..\..\uC-Probe\Target\Communication\Generic\Source/probe_com.c **** ***************************************************************************************************
 620:..\..\..\..\..\..\uC-Probe\Target\Communication\Generic\Source/probe_com.c **** *                                     ProbeCom_TerminalExecSet()
 621:..\..\..\..\..\..\uC-Probe\Target\Communication\Generic\Source/probe_com.c **** *
 622:..\..\..\..\..\..\uC-Probe\Target\Communication\Generic\Source/probe_com.c **** * Description : Set the handler that will be invoked to process a terminal command.
 623:..\..\..\..\..\..\uC-Probe\Target\Communication\Generic\Source/probe_com.c **** *
 624:..\..\..\..\..\..\uC-Probe\Target\Communication\Generic\Source/probe_com.c **** * Argument(s) : handler         The handler that will be invoked.
ARM GAS  C:\Users\daniel01\AppData\Local\Temp\ccHLFCB6.s 			page 14


 625:..\..\..\..\..\..\uC-Probe\Target\Communication\Generic\Source/probe_com.c **** *
 626:..\..\..\..\..\..\uC-Probe\Target\Communication\Generic\Source/probe_com.c **** * Return(s)   : none.
 627:..\..\..\..\..\..\uC-Probe\Target\Communication\Generic\Source/probe_com.c **** *
 628:..\..\..\..\..\..\uC-Probe\Target\Communication\Generic\Source/probe_com.c **** * Caller(s)   : Application.
 629:..\..\..\..\..\..\uC-Probe\Target\Communication\Generic\Source/probe_com.c **** *
 630:..\..\..\..\..\..\uC-Probe\Target\Communication\Generic\Source/probe_com.c **** * Note(s)     : (1) The handler should be a function with the following prototype:
 631:..\..\..\..\..\..\uC-Probe\Target\Communication\Generic\Source/probe_com.c **** *
 632:..\..\..\..\..\..\uC-Probe\Target\Communication\Generic\Source/probe_com.c **** *                       void  App_TerminalExecFnct (CPU_CHAR    *pstr,
 633:..\..\..\..\..\..\uC-Probe\Target\Communication\Generic\Source/probe_com.c **** *                                                   CPU_SIZE_T   len);
 634:..\..\..\..\..\..\uC-Probe\Target\Communication\Generic\Source/probe_com.c **** *
 635:..\..\..\..\..\..\uC-Probe\Target\Communication\Generic\Source/probe_com.c **** *                   where 'pstr' is a pointer to the command string, and 'len' is the length of the
 636:..\..\..\..\..\..\uC-Probe\Target\Communication\Generic\Source/probe_com.c **** *                   command string (in characters) excluding the final NULL byte.  The command stri
 637:..\..\..\..\..\..\uC-Probe\Target\Communication\Generic\Source/probe_com.c **** *                   will NOT include a terminating new line or line feed.
 638:..\..\..\..\..\..\uC-Probe\Target\Communication\Generic\Source/probe_com.c **** ***************************************************************************************************
 639:..\..\..\..\..\..\uC-Probe\Target\Communication\Generic\Source/probe_com.c **** */
 640:..\..\..\..\..\..\uC-Probe\Target\Communication\Generic\Source/probe_com.c **** 
 641:..\..\..\..\..\..\uC-Probe\Target\Communication\Generic\Source/probe_com.c **** #if (PROBE_COM_CFG_TERMINAL_REQ_EN == DEF_ENABLED)
 642:..\..\..\..\..\..\uC-Probe\Target\Communication\Generic\Source/probe_com.c **** void  ProbeCom_TerminalExecSet (PROBE_COM_TERMINAL_EXEC_FNCT  handler)
 643:..\..\..\..\..\..\uC-Probe\Target\Communication\Generic\Source/probe_com.c **** {
 644:..\..\..\..\..\..\uC-Probe\Target\Communication\Generic\Source/probe_com.c ****     CPU_SR_ALLOC();
 645:..\..\..\..\..\..\uC-Probe\Target\Communication\Generic\Source/probe_com.c **** 
 646:..\..\..\..\..\..\uC-Probe\Target\Communication\Generic\Source/probe_com.c **** 
 647:..\..\..\..\..\..\uC-Probe\Target\Communication\Generic\Source/probe_com.c ****     CPU_CRITICAL_ENTER();
 648:..\..\..\..\..\..\uC-Probe\Target\Communication\Generic\Source/probe_com.c ****     ProbeCom_TerminalExecHandler = handler;
 649:..\..\..\..\..\..\uC-Probe\Target\Communication\Generic\Source/probe_com.c ****     CPU_CRITICAL_EXIT();
 650:..\..\..\..\..\..\uC-Probe\Target\Communication\Generic\Source/probe_com.c **** }
 651:..\..\..\..\..\..\uC-Probe\Target\Communication\Generic\Source/probe_com.c **** #endif
 652:..\..\..\..\..\..\uC-Probe\Target\Communication\Generic\Source/probe_com.c **** 
 653:..\..\..\..\..\..\uC-Probe\Target\Communication\Generic\Source/probe_com.c **** 
 654:..\..\..\..\..\..\uC-Probe\Target\Communication\Generic\Source/probe_com.c **** /*
 655:..\..\..\..\..\..\uC-Probe\Target\Communication\Generic\Source/probe_com.c **** ***************************************************************************************************
 656:..\..\..\..\..\..\uC-Probe\Target\Communication\Generic\Source/probe_com.c **** *                                      ProbeCom_TerminalInSet()
 657:..\..\..\..\..\..\uC-Probe\Target\Communication\Generic\Source/probe_com.c **** *
 658:..\..\..\..\..\..\uC-Probe\Target\Communication\Generic\Source/probe_com.c **** * Description : Set the handler that will be invoked to process terminal input.
 659:..\..\..\..\..\..\uC-Probe\Target\Communication\Generic\Source/probe_com.c **** *
 660:..\..\..\..\..\..\uC-Probe\Target\Communication\Generic\Source/probe_com.c **** * Argument(s) : handler         The handler that will be invoked.
 661:..\..\..\..\..\..\uC-Probe\Target\Communication\Generic\Source/probe_com.c **** *
 662:..\..\..\..\..\..\uC-Probe\Target\Communication\Generic\Source/probe_com.c **** * Return(s)   : none.
 663:..\..\..\..\..\..\uC-Probe\Target\Communication\Generic\Source/probe_com.c **** *
 664:..\..\..\..\..\..\uC-Probe\Target\Communication\Generic\Source/probe_com.c **** * Caller(s)   : Application.
 665:..\..\..\..\..\..\uC-Probe\Target\Communication\Generic\Source/probe_com.c **** *
 666:..\..\..\..\..\..\uC-Probe\Target\Communication\Generic\Source/probe_com.c **** * Note(s)     : (1) The handler should be a function with the following prototype:
 667:..\..\..\..\..\..\uC-Probe\Target\Communication\Generic\Source/probe_com.c **** *
 668:..\..\..\..\..\..\uC-Probe\Target\Communication\Generic\Source/probe_com.c **** *                       void  App_TerminalInFnct (CPU_CHAR    *pstr,
 669:..\..\..\..\..\..\uC-Probe\Target\Communication\Generic\Source/probe_com.c **** *                                                 CPU_SIZE_T   len);
 670:..\..\..\..\..\..\uC-Probe\Target\Communication\Generic\Source/probe_com.c **** *
 671:..\..\..\..\..\..\uC-Probe\Target\Communication\Generic\Source/probe_com.c **** *                   where 'pstr' is a pointer to the input string, and 'len' is the length of the i
 672:..\..\..\..\..\..\uC-Probe\Target\Communication\Generic\Source/probe_com.c **** *                   string (in characters) excluding the final NULL byte.  The input string will NO
 673:..\..\..\..\..\..\uC-Probe\Target\Communication\Generic\Source/probe_com.c **** *                   include a terminating new line or line feed.
 674:..\..\..\..\..\..\uC-Probe\Target\Communication\Generic\Source/probe_com.c **** ***************************************************************************************************
 675:..\..\..\..\..\..\uC-Probe\Target\Communication\Generic\Source/probe_com.c **** */
 676:..\..\..\..\..\..\uC-Probe\Target\Communication\Generic\Source/probe_com.c **** 
 677:..\..\..\..\..\..\uC-Probe\Target\Communication\Generic\Source/probe_com.c **** #if (PROBE_COM_CFG_TERMINAL_REQ_EN == DEF_ENABLED)
 678:..\..\..\..\..\..\uC-Probe\Target\Communication\Generic\Source/probe_com.c **** void  ProbeCom_TerminalInSet (PROBE_COM_TERMINAL_IN_FNCT  handler)
 679:..\..\..\..\..\..\uC-Probe\Target\Communication\Generic\Source/probe_com.c **** {
 680:..\..\..\..\..\..\uC-Probe\Target\Communication\Generic\Source/probe_com.c **** #if (CPU_CFG_CRITICAL_METHOD == CPU_CRITICAL_METHOD_STATUS_LOCAL)
 681:..\..\..\..\..\..\uC-Probe\Target\Communication\Generic\Source/probe_com.c ****     CPU_SR  cpu_sr;
ARM GAS  C:\Users\daniel01\AppData\Local\Temp\ccHLFCB6.s 			page 15


 682:..\..\..\..\..\..\uC-Probe\Target\Communication\Generic\Source/probe_com.c **** #endif
 683:..\..\..\..\..\..\uC-Probe\Target\Communication\Generic\Source/probe_com.c **** 
 684:..\..\..\..\..\..\uC-Probe\Target\Communication\Generic\Source/probe_com.c **** 
 685:..\..\..\..\..\..\uC-Probe\Target\Communication\Generic\Source/probe_com.c ****     CPU_CRITICAL_ENTER();
 686:..\..\..\..\..\..\uC-Probe\Target\Communication\Generic\Source/probe_com.c ****     ProbeCom_TerminalInHandler = handler;
 687:..\..\..\..\..\..\uC-Probe\Target\Communication\Generic\Source/probe_com.c ****     CPU_CRITICAL_EXIT();
 688:..\..\..\..\..\..\uC-Probe\Target\Communication\Generic\Source/probe_com.c **** }
 689:..\..\..\..\..\..\uC-Probe\Target\Communication\Generic\Source/probe_com.c **** #endif
 690:..\..\..\..\..\..\uC-Probe\Target\Communication\Generic\Source/probe_com.c **** 
 691:..\..\..\..\..\..\uC-Probe\Target\Communication\Generic\Source/probe_com.c **** 
 692:..\..\..\..\..\..\uC-Probe\Target\Communication\Generic\Source/probe_com.c **** /*
 693:..\..\..\..\..\..\uC-Probe\Target\Communication\Generic\Source/probe_com.c **** ***************************************************************************************************
 694:..\..\..\..\..\..\uC-Probe\Target\Communication\Generic\Source/probe_com.c **** *                                        ProbeCom_ParseRxPkt()
 695:..\..\..\..\..\..\uC-Probe\Target\Communication\Generic\Source/probe_com.c **** *
 696:..\..\..\..\..\..\uC-Probe\Target\Communication\Generic\Source/probe_com.c **** * Description : Parse a packet & formulate a response.
 697:..\..\..\..\..\..\uC-Probe\Target\Communication\Generic\Source/probe_com.c **** *
 698:..\..\..\..\..\..\uC-Probe\Target\Communication\Generic\Source/probe_com.c **** * Argument(s) : prx_pkt         Pointer to the receive  packet buffer
 699:..\..\..\..\..\..\uC-Probe\Target\Communication\Generic\Source/probe_com.c **** *
 700:..\..\..\..\..\..\uC-Probe\Target\Communication\Generic\Source/probe_com.c **** *               ptx_pkt         Pointer to the transmit packet buffer
 701:..\..\..\..\..\..\uC-Probe\Target\Communication\Generic\Source/probe_com.c **** *
 702:..\..\..\..\..\..\uC-Probe\Target\Communication\Generic\Source/probe_com.c **** *               rx_pkt_size     Size of the received packet
 703:..\..\..\..\..\..\uC-Probe\Target\Communication\Generic\Source/probe_com.c **** *
 704:..\..\..\..\..\..\uC-Probe\Target\Communication\Generic\Source/probe_com.c **** *               tx_pkt_size     Size of the transmit packet buffer
 705:..\..\..\..\..\..\uC-Probe\Target\Communication\Generic\Source/probe_com.c **** *
 706:..\..\..\..\..\..\uC-Probe\Target\Communication\Generic\Source/probe_com.c **** * Return(s)   : The number of bytes in the data segment of the packet to transmit in response.
 707:..\..\..\..\..\..\uC-Probe\Target\Communication\Generic\Source/probe_com.c **** *
 708:..\..\..\..\..\..\uC-Probe\Target\Communication\Generic\Source/probe_com.c **** * Caller(s)   : Tasks/receive handlers in communications-specific drivers, (e.g., probe_rs232,
 709:..\..\..\..\..\..\uC-Probe\Target\Communication\Generic\Source/probe_com.c **** *               probe_usb, probe_tcpip, etc.).
 710:..\..\..\..\..\..\uC-Probe\Target\Communication\Generic\Source/probe_com.c **** *
 711:..\..\..\..\..\..\uC-Probe\Target\Communication\Generic\Source/probe_com.c **** * Note(s)     : none.
 712:..\..\..\..\..\..\uC-Probe\Target\Communication\Generic\Source/probe_com.c **** ***************************************************************************************************
 713:..\..\..\..\..\..\uC-Probe\Target\Communication\Generic\Source/probe_com.c **** */
 714:..\..\..\..\..\..\uC-Probe\Target\Communication\Generic\Source/probe_com.c **** 
 715:..\..\..\..\..\..\uC-Probe\Target\Communication\Generic\Source/probe_com.c **** CPU_SIZE_T  ProbeCom_ParseRxPkt (void        *prx_pkt,
 716:..\..\..\..\..\..\uC-Probe\Target\Communication\Generic\Source/probe_com.c ****                                  void        *ptx_pkt,
 717:..\..\..\..\..\..\uC-Probe\Target\Communication\Generic\Source/probe_com.c ****                                  CPU_SIZE_T   rx_pkt_size,
 718:..\..\..\..\..\..\uC-Probe\Target\Communication\Generic\Source/probe_com.c ****                                  CPU_SIZE_T   tx_buf_size)
 719:..\..\..\..\..\..\uC-Probe\Target\Communication\Generic\Source/probe_com.c **** {
 114              		.loc 1 719 0
 115              		.cfi_startproc
 116              		@ args = 0, pretend = 0, frame = 32
 117              		@ frame_needed = 1, uses_anonymous_args = 0
 118 0000 80B5     		push	{r7, lr}
 119              	.LCFI2:
 120              		.cfi_def_cfa_offset 8
 121 0002 88B0     		sub	sp, sp, #32
 122              	.LCFI3:
 123              		.cfi_def_cfa_offset 40
 124 0004 00AF     		add	r7, sp, #0
 125              		.cfi_offset 14, -4
 126              		.cfi_offset 7, -8
 127              	.LCFI4:
 128              		.cfi_def_cfa_register 7
 129 0006 F860     		str	r0, [r7, #12]
 130 0008 B960     		str	r1, [r7, #8]
 131 000a 7A60     		str	r2, [r7, #4]
 132 000c 3B60     		str	r3, [r7, #0]
ARM GAS  C:\Users\daniel01\AppData\Local\Temp\ccHLFCB6.s 			page 16


 720:..\..\..\..\..\..\uC-Probe\Target\Communication\Generic\Source/probe_com.c ****     CPU_SIZE_T   tx_buf_wr;
 721:..\..\..\..\..\..\uC-Probe\Target\Communication\Generic\Source/probe_com.c ****     CPU_INT16U   format;
 722:..\..\..\..\..\..\uC-Probe\Target\Communication\Generic\Source/probe_com.c ****     CPU_INT08U  *prx_pkt_08;
 723:..\..\..\..\..\..\uC-Probe\Target\Communication\Generic\Source/probe_com.c ****     CPU_INT08U  *ptx_pkt_08;
 724:..\..\..\..\..\..\uC-Probe\Target\Communication\Generic\Source/probe_com.c **** 
 725:..\..\..\..\..\..\uC-Probe\Target\Communication\Generic\Source/probe_com.c **** 
 726:..\..\..\..\..\..\uC-Probe\Target\Communication\Generic\Source/probe_com.c ****     if (rx_pkt_size < 2u) {
 133              		.loc 1 726 0
 134 000e 7B68     		ldr	r3, [r7, #4]
 135 0010 012B     		cmp	r3, #1
 136 0012 02D8     		bhi	.L4
 727:..\..\..\..\..\..\uC-Probe\Target\Communication\Generic\Source/probe_com.c ****         return (0);
 137              		.loc 1 727 0
 138 0014 4FF00003 		mov	r3, #0
 139 0018 77E0     		b	.L5
 140              	.L4:
 728:..\..\..\..\..\..\uC-Probe\Target\Communication\Generic\Source/probe_com.c ****     }
 729:..\..\..\..\..\..\uC-Probe\Target\Communication\Generic\Source/probe_com.c **** 
 730:..\..\..\..\..\..\uC-Probe\Target\Communication\Generic\Source/probe_com.c ****     prx_pkt_08  = (CPU_INT08U *)prx_pkt;
 141              		.loc 1 730 0
 142 001a FB68     		ldr	r3, [r7, #12]
 143 001c BB61     		str	r3, [r7, #24]
 731:..\..\..\..\..\..\uC-Probe\Target\Communication\Generic\Source/probe_com.c ****     ptx_pkt_08  = (CPU_INT08U *)ptx_pkt;
 144              		.loc 1 731 0
 145 001e BB68     		ldr	r3, [r7, #8]
 146 0020 FB61     		str	r3, [r7, #28]
 732:..\..\..\..\..\..\uC-Probe\Target\Communication\Generic\Source/probe_com.c ****     format      = (prx_pkt_08[1] << 8) + prx_pkt_08[0];
 147              		.loc 1 732 0
 148 0022 BB69     		ldr	r3, [r7, #24]
 149 0024 03F10103 		add	r3, r3, #1
 150 0028 1B78     		ldrb	r3, [r3, #0]	@ zero_extendqisi2
 151 002a 4FEA0323 		lsl	r3, r3, #8
 152 002e 9AB2     		uxth	r2, r3
 153 0030 BB69     		ldr	r3, [r7, #24]
 154 0032 1B78     		ldrb	r3, [r3, #0]	@ zero_extendqisi2
 155 0034 1344     		add	r3, r2, r3
 156 0036 FB82     		strh	r3, [r7, #22]	@ movhi
 733:..\..\..\..\..\..\uC-Probe\Target\Communication\Generic\Source/probe_com.c ****     prx_pkt_08 += 2u;
 157              		.loc 1 733 0
 158 0038 BB69     		ldr	r3, [r7, #24]
 159 003a 03F10203 		add	r3, r3, #2
 160 003e BB61     		str	r3, [r7, #24]
 734:..\..\..\..\..\..\uC-Probe\Target\Communication\Generic\Source/probe_com.c **** 
 735:..\..\..\..\..\..\uC-Probe\Target\Communication\Generic\Source/probe_com.c **** #if (PROBE_COM_CFG_STAT_EN == DEF_ENABLED)
 736:..\..\..\..\..\..\uC-Probe\Target\Communication\Generic\Source/probe_com.c ****     ProbeCom_RxPktCtr++;
 161              		.loc 1 736 0
 162 0040 40F20003 		movw	r3, #:lower16:ProbeCom_RxPktCtr
 163 0044 C0F20003 		movt	r3, #:upper16:ProbeCom_RxPktCtr
 164 0048 1B68     		ldr	r3, [r3, #0]
 165 004a 03F10102 		add	r2, r3, #1
 166 004e 40F20003 		movw	r3, #:lower16:ProbeCom_RxPktCtr
 167 0052 C0F20003 		movt	r3, #:upper16:ProbeCom_RxPktCtr
 168 0056 1A60     		str	r2, [r3, #0]
 737:..\..\..\..\..\..\uC-Probe\Target\Communication\Generic\Source/probe_com.c ****     ProbeCom_TxPktCtr++;
 169              		.loc 1 737 0
 170 0058 40F20003 		movw	r3, #:lower16:ProbeCom_TxPktCtr
 171 005c C0F20003 		movt	r3, #:upper16:ProbeCom_TxPktCtr
ARM GAS  C:\Users\daniel01\AppData\Local\Temp\ccHLFCB6.s 			page 17


 172 0060 1B68     		ldr	r3, [r3, #0]
 173 0062 03F10102 		add	r2, r3, #1
 174 0066 40F20003 		movw	r3, #:lower16:ProbeCom_TxPktCtr
 175 006a C0F20003 		movt	r3, #:upper16:ProbeCom_TxPktCtr
 176 006e 1A60     		str	r2, [r3, #0]
 738:..\..\..\..\..\..\uC-Probe\Target\Communication\Generic\Source/probe_com.c **** #endif
 739:..\..\..\..\..\..\uC-Probe\Target\Communication\Generic\Source/probe_com.c **** 
 740:..\..\..\..\..\..\uC-Probe\Target\Communication\Generic\Source/probe_com.c ****     switch (format) {
 177              		.loc 1 740 0
 178 0070 FB8A     		ldrh	r3, [r7, #22]
 179 0072 03F1FF33 		add	r3, r3, #-1
 180 0076 072B     		cmp	r3, #7
 181 0078 3FD8     		bhi	.L6
 182 007a 01A2     		adr	r2, .L12
 183 007c 52F823F0 		ldr	pc, [r2, r3, lsl #2]
 184              		.align	2
 185              	.L12:
 186 0080 A1000000 		.word	.L7+1
 187 0084 B3000000 		.word	.L8+1
 188 0088 D7000000 		.word	.L9+1
 189 008c FB000000 		.word	.L6+1
 190 0090 FB000000 		.word	.L6+1
 191 0094 FB000000 		.word	.L6+1
 192 0098 C5000000 		.word	.L10+1
 193 009c E9000000 		.word	.L11+1
 194              	.L7:
 741:..\..\..\..\..\..\uC-Probe\Target\Communication\Generic\Source/probe_com.c ****         case PROBE_COM_FMT_RX_QUERY:
 742:..\..\..\..\..\..\uC-Probe\Target\Communication\Generic\Source/probe_com.c ****              tx_buf_wr = ProbeCom_ReqQuery(       prx_pkt_08, ptx_pkt_08, rx_pkt_size, tx_buf_size)
 195              		.loc 1 742 0
 196 00a0 B869     		ldr	r0, [r7, #24]
 197 00a2 F969     		ldr	r1, [r7, #28]
 198 00a4 7A68     		ldr	r2, [r7, #4]
 199 00a6 3B68     		ldr	r3, [r7, #0]
 200 00a8 FFF7FEFF 		bl	ProbeCom_ReqQuery
 201 00ac 0346     		mov	r3, r0
 202 00ae 3B61     		str	r3, [r7, #16]
 743:..\..\..\..\..\..\uC-Probe\Target\Communication\Generic\Source/probe_com.c ****              break;
 203              		.loc 1 743 0
 204 00b0 2AE0     		b	.L13
 205              	.L8:
 744:..\..\..\..\..\..\uC-Probe\Target\Communication\Generic\Source/probe_com.c **** 
 745:..\..\..\..\..\..\uC-Probe\Target\Communication\Generic\Source/probe_com.c ****         case PROBE_COM_FMT_RX_RD:
 746:..\..\..\..\..\..\uC-Probe\Target\Communication\Generic\Source/probe_com.c ****              tx_buf_wr = ProbeCom_ReqRd(          prx_pkt_08, ptx_pkt_08, rx_pkt_size, tx_buf_size)
 206              		.loc 1 746 0
 207 00b2 B869     		ldr	r0, [r7, #24]
 208 00b4 F969     		ldr	r1, [r7, #28]
 209 00b6 7A68     		ldr	r2, [r7, #4]
 210 00b8 3B68     		ldr	r3, [r7, #0]
 211 00ba FFF7FEFF 		bl	ProbeCom_ReqRd
 212 00be 0346     		mov	r3, r0
 213 00c0 3B61     		str	r3, [r7, #16]
 747:..\..\..\..\..\..\uC-Probe\Target\Communication\Generic\Source/probe_com.c ****              break;
 214              		.loc 1 747 0
 215 00c2 21E0     		b	.L13
 216              	.L10:
 748:..\..\..\..\..\..\uC-Probe\Target\Communication\Generic\Source/probe_com.c **** 
 749:..\..\..\..\..\..\uC-Probe\Target\Communication\Generic\Source/probe_com.c ****         case PROBE_COM_FMT_RX_RD_MULTI:
ARM GAS  C:\Users\daniel01\AppData\Local\Temp\ccHLFCB6.s 			page 18


 750:..\..\..\..\..\..\uC-Probe\Target\Communication\Generic\Source/probe_com.c ****              tx_buf_wr = ProbeCom_ReqRdMulti(     prx_pkt_08, ptx_pkt_08, rx_pkt_size, tx_buf_size)
 217              		.loc 1 750 0
 218 00c4 B869     		ldr	r0, [r7, #24]
 219 00c6 F969     		ldr	r1, [r7, #28]
 220 00c8 7A68     		ldr	r2, [r7, #4]
 221 00ca 3B68     		ldr	r3, [r7, #0]
 222 00cc FFF7FEFF 		bl	ProbeCom_ReqRdMulti
 223 00d0 0346     		mov	r3, r0
 224 00d2 3B61     		str	r3, [r7, #16]
 751:..\..\..\..\..\..\uC-Probe\Target\Communication\Generic\Source/probe_com.c ****              break;
 225              		.loc 1 751 0
 226 00d4 18E0     		b	.L13
 227              	.L9:
 752:..\..\..\..\..\..\uC-Probe\Target\Communication\Generic\Source/probe_com.c **** 
 753:..\..\..\..\..\..\uC-Probe\Target\Communication\Generic\Source/probe_com.c **** #if (PROBE_COM_CFG_WR_REQ_EN == DEF_ENABLED)
 754:..\..\..\..\..\..\uC-Probe\Target\Communication\Generic\Source/probe_com.c ****         case PROBE_COM_FMT_RX_WR:
 755:..\..\..\..\..\..\uC-Probe\Target\Communication\Generic\Source/probe_com.c ****              tx_buf_wr = ProbeCom_ReqWr(          prx_pkt_08, ptx_pkt_08, rx_pkt_size, tx_buf_size)
 228              		.loc 1 755 0
 229 00d6 B869     		ldr	r0, [r7, #24]
 230 00d8 F969     		ldr	r1, [r7, #28]
 231 00da 7A68     		ldr	r2, [r7, #4]
 232 00dc 3B68     		ldr	r3, [r7, #0]
 233 00de FFF7FEFF 		bl	ProbeCom_ReqWr
 234 00e2 0346     		mov	r3, r0
 235 00e4 3B61     		str	r3, [r7, #16]
 756:..\..\..\..\..\..\uC-Probe\Target\Communication\Generic\Source/probe_com.c ****              break;
 236              		.loc 1 756 0
 237 00e6 0FE0     		b	.L13
 238              	.L11:
 757:..\..\..\..\..\..\uC-Probe\Target\Communication\Generic\Source/probe_com.c **** 
 758:..\..\..\..\..\..\uC-Probe\Target\Communication\Generic\Source/probe_com.c ****         case PROBE_COM_FMT_RX_WR_MULTI:
 759:..\..\..\..\..\..\uC-Probe\Target\Communication\Generic\Source/probe_com.c ****              tx_buf_wr = ProbeCom_ReqWrMulti(     prx_pkt_08, ptx_pkt_08, rx_pkt_size, tx_buf_size)
 239              		.loc 1 759 0
 240 00e8 B869     		ldr	r0, [r7, #24]
 241 00ea F969     		ldr	r1, [r7, #28]
 242 00ec 7A68     		ldr	r2, [r7, #4]
 243 00ee 3B68     		ldr	r3, [r7, #0]
 244 00f0 FFF7FEFF 		bl	ProbeCom_ReqWrMulti
 245 00f4 0346     		mov	r3, r0
 246 00f6 3B61     		str	r3, [r7, #16]
 760:..\..\..\..\..\..\uC-Probe\Target\Communication\Generic\Source/probe_com.c ****              break;
 247              		.loc 1 760 0
 248 00f8 06E0     		b	.L13
 249              	.L6:
 761:..\..\..\..\..\..\uC-Probe\Target\Communication\Generic\Source/probe_com.c **** #endif
 762:..\..\..\..\..\..\uC-Probe\Target\Communication\Generic\Source/probe_com.c **** 
 763:..\..\..\..\..\..\uC-Probe\Target\Communication\Generic\Source/probe_com.c **** #if (PROBE_COM_CFG_STR_REQ_EN == DEF_ENABLED)
 764:..\..\..\..\..\..\uC-Probe\Target\Communication\Generic\Source/probe_com.c ****         case PROBE_COM_FMT_RX_STR_IN:
 765:..\..\..\..\..\..\uC-Probe\Target\Communication\Generic\Source/probe_com.c ****              tx_buf_wr = ProbeCom_ReqStrIn(       prx_pkt_08, ptx_pkt_08, rx_pkt_size, tx_buf_size)
 766:..\..\..\..\..\..\uC-Probe\Target\Communication\Generic\Source/probe_com.c ****              break;
 767:..\..\..\..\..\..\uC-Probe\Target\Communication\Generic\Source/probe_com.c **** 
 768:..\..\..\..\..\..\uC-Probe\Target\Communication\Generic\Source/probe_com.c ****         case PROBE_COM_FMT_RX_STR_OUT:
 769:..\..\..\..\..\..\uC-Probe\Target\Communication\Generic\Source/probe_com.c ****              tx_buf_wr = ProbeCom_ReqStrOut(      prx_pkt_08, ptx_pkt_08, rx_pkt_size, tx_buf_size)
 770:..\..\..\..\..\..\uC-Probe\Target\Communication\Generic\Source/probe_com.c ****              break;
 771:..\..\..\..\..\..\uC-Probe\Target\Communication\Generic\Source/probe_com.c **** #endif
 772:..\..\..\..\..\..\uC-Probe\Target\Communication\Generic\Source/probe_com.c **** 
 773:..\..\..\..\..\..\uC-Probe\Target\Communication\Generic\Source/probe_com.c **** #if (PROBE_COM_CFG_TERMINAL_REQ_EN == DEF_ENABLED)
ARM GAS  C:\Users\daniel01\AppData\Local\Temp\ccHLFCB6.s 			page 19


 774:..\..\..\..\..\..\uC-Probe\Target\Communication\Generic\Source/probe_com.c ****         case PROBE_COM_FMT_RX_TERMINAL_EXEC:
 775:..\..\..\..\..\..\uC-Probe\Target\Communication\Generic\Source/probe_com.c ****              tx_buf_wr = ProbeCom_ReqTerminalExec(prx_pkt_08, ptx_pkt_08, rx_pkt_size, tx_buf_size)
 776:..\..\..\..\..\..\uC-Probe\Target\Communication\Generic\Source/probe_com.c ****              break;
 777:..\..\..\..\..\..\uC-Probe\Target\Communication\Generic\Source/probe_com.c **** 
 778:..\..\..\..\..\..\uC-Probe\Target\Communication\Generic\Source/probe_com.c ****         case PROBE_COM_FMT_RX_TERMINAL_IN:
 779:..\..\..\..\..\..\uC-Probe\Target\Communication\Generic\Source/probe_com.c ****              tx_buf_wr = ProbeCom_ReqTerminalIn(  prx_pkt_08, ptx_pkt_08, rx_pkt_size, tx_buf_size)
 780:..\..\..\..\..\..\uC-Probe\Target\Communication\Generic\Source/probe_com.c ****              break;
 781:..\..\..\..\..\..\uC-Probe\Target\Communication\Generic\Source/probe_com.c **** 
 782:..\..\..\..\..\..\uC-Probe\Target\Communication\Generic\Source/probe_com.c ****         case PROBE_COM_FMT_RX_TERMINAL_OUT:
 783:..\..\..\..\..\..\uC-Probe\Target\Communication\Generic\Source/probe_com.c ****              tx_buf_wr = ProbeCom_ReqTerminalOut( prx_pkt_08, ptx_pkt_08, rx_pkt_size, tx_buf_size)
 784:..\..\..\..\..\..\uC-Probe\Target\Communication\Generic\Source/probe_com.c ****              break;
 785:..\..\..\..\..\..\uC-Probe\Target\Communication\Generic\Source/probe_com.c **** #endif
 786:..\..\..\..\..\..\uC-Probe\Target\Communication\Generic\Source/probe_com.c **** 
 787:..\..\..\..\..\..\uC-Probe\Target\Communication\Generic\Source/probe_com.c ****         default:
 788:..\..\..\..\..\..\uC-Probe\Target\Communication\Generic\Source/probe_com.c ****              tx_buf_wr = ProbeCom_ReqErr(                     ptx_pkt_08, PROBE_COM_STATUS_UNKNOWN_
 250              		.loc 1 788 0
 251 00fa F869     		ldr	r0, [r7, #28]
 252 00fc 4FF0F901 		mov	r1, #249
 253 0100 FFF7FEFF 		bl	ProbeCom_ReqErr
 254 0104 0346     		mov	r3, r0
 255 0106 3B61     		str	r3, [r7, #16]
 256              	.L13:
 789:..\..\..\..\..\..\uC-Probe\Target\Communication\Generic\Source/probe_com.c ****              break;
 790:..\..\..\..\..\..\uC-Probe\Target\Communication\Generic\Source/probe_com.c ****     }
 791:..\..\..\..\..\..\uC-Probe\Target\Communication\Generic\Source/probe_com.c **** 
 792:..\..\..\..\..\..\uC-Probe\Target\Communication\Generic\Source/probe_com.c ****     return (tx_buf_wr);
 257              		.loc 1 792 0
 258 0108 3B69     		ldr	r3, [r7, #16]
 259              	.L5:
 793:..\..\..\..\..\..\uC-Probe\Target\Communication\Generic\Source/probe_com.c **** }
 260              		.loc 1 793 0
 261 010a 1846     		mov	r0, r3
 262 010c 07F12007 		add	r7, r7, #32
 263 0110 BD46     		mov	sp, r7
 264 0112 80BD     		pop	{r7, pc}
 265              		.cfi_endproc
 266              	.LFE1:
 267              		.size	ProbeCom_ParseRxPkt, .-ProbeCom_ParseRxPkt
 268              		.section	.text.ProbeCom_PktModifier,"ax",%progbits
 269              		.align	2
 270              		.thumb
 271              		.thumb_func
 272              		.type	ProbeCom_PktModifier, %function
 273              	ProbeCom_PktModifier:
 274              	.LFB2:
 794:..\..\..\..\..\..\uC-Probe\Target\Communication\Generic\Source/probe_com.c **** 
 795:..\..\..\..\..\..\uC-Probe\Target\Communication\Generic\Source/probe_com.c **** 
 796:..\..\..\..\..\..\uC-Probe\Target\Communication\Generic\Source/probe_com.c **** /*
 797:..\..\..\..\..\..\uC-Probe\Target\Communication\Generic\Source/probe_com.c **** ***************************************************************************************************
 798:..\..\..\..\..\..\uC-Probe\Target\Communication\Generic\Source/probe_com.c **** ***************************************************************************************************
 799:..\..\..\..\..\..\uC-Probe\Target\Communication\Generic\Source/probe_com.c **** *                                           LOCAL FUNCTIONS
 800:..\..\..\..\..\..\uC-Probe\Target\Communication\Generic\Source/probe_com.c **** ***************************************************************************************************
 801:..\..\..\..\..\..\uC-Probe\Target\Communication\Generic\Source/probe_com.c **** ***************************************************************************************************
 802:..\..\..\..\..\..\uC-Probe\Target\Communication\Generic\Source/probe_com.c **** */
 803:..\..\..\..\..\..\uC-Probe\Target\Communication\Generic\Source/probe_com.c **** 
 804:..\..\..\..\..\..\uC-Probe\Target\Communication\Generic\Source/probe_com.c **** /*
 805:..\..\..\..\..\..\uC-Probe\Target\Communication\Generic\Source/probe_com.c **** ***************************************************************************************************
ARM GAS  C:\Users\daniel01\AppData\Local\Temp\ccHLFCB6.s 			page 20


 806:..\..\..\..\..\..\uC-Probe\Target\Communication\Generic\Source/probe_com.c **** *                                       ProbeCom_StrOutAvail()
 807:..\..\..\..\..\..\uC-Probe\Target\Communication\Generic\Source/probe_com.c **** *
 808:..\..\..\..\..\..\uC-Probe\Target\Communication\Generic\Source/probe_com.c **** * Description : Check if string output is waiting for transmission.
 809:..\..\..\..\..\..\uC-Probe\Target\Communication\Generic\Source/probe_com.c **** *
 810:..\..\..\..\..\..\uC-Probe\Target\Communication\Generic\Source/probe_com.c **** * Argument(s) : none.
 811:..\..\..\..\..\..\uC-Probe\Target\Communication\Generic\Source/probe_com.c **** *
 812:..\..\..\..\..\..\uC-Probe\Target\Communication\Generic\Source/probe_com.c **** * Return(s)   : DEF_TRUE   if a  string output is waiting for transmission.
 813:..\..\..\..\..\..\uC-Probe\Target\Communication\Generic\Source/probe_com.c **** *               DEF_FALSE  if no string output is waiting for transmission.
 814:..\..\..\..\..\..\uC-Probe\Target\Communication\Generic\Source/probe_com.c **** *
 815:..\..\..\..\..\..\uC-Probe\Target\Communication\Generic\Source/probe_com.c **** * Caller(s)   : ProbeCom_PktModifier().
 816:..\..\..\..\..\..\uC-Probe\Target\Communication\Generic\Source/probe_com.c **** *
 817:..\..\..\..\..\..\uC-Probe\Target\Communication\Generic\Source/probe_com.c **** * Note(s)     : (1) See Notes for 'ProbeCom_StrWr()'.
 818:..\..\..\..\..\..\uC-Probe\Target\Communication\Generic\Source/probe_com.c **** ***************************************************************************************************
 819:..\..\..\..\..\..\uC-Probe\Target\Communication\Generic\Source/probe_com.c **** */
 820:..\..\..\..\..\..\uC-Probe\Target\Communication\Generic\Source/probe_com.c **** 
 821:..\..\..\..\..\..\uC-Probe\Target\Communication\Generic\Source/probe_com.c **** #if (PROBE_COM_CFG_STR_REQ_EN == DEF_ENABLED)
 822:..\..\..\..\..\..\uC-Probe\Target\Communication\Generic\Source/probe_com.c **** static  CPU_BOOLEAN  ProbeCom_StrOutAvail (void)
 823:..\..\..\..\..\..\uC-Probe\Target\Communication\Generic\Source/probe_com.c **** {
 824:..\..\..\..\..\..\uC-Probe\Target\Communication\Generic\Source/probe_com.c ****     CPU_BOOLEAN  avail;
 825:..\..\..\..\..\..\uC-Probe\Target\Communication\Generic\Source/probe_com.c ****     CPU_BOOLEAN  empty;
 826:..\..\..\..\..\..\uC-Probe\Target\Communication\Generic\Source/probe_com.c **** 
 827:..\..\..\..\..\..\uC-Probe\Target\Communication\Generic\Source/probe_com.c **** 
 828:..\..\..\..\..\..\uC-Probe\Target\Communication\Generic\Source/probe_com.c ****     empty = ProbeCom_BufIsEmpty(&ProbeCom_StrOutBuf);
 829:..\..\..\..\..\..\uC-Probe\Target\Communication\Generic\Source/probe_com.c ****     avail = (empty == DEF_YES) ? (DEF_FALSE) : (DEF_TRUE);
 830:..\..\..\..\..\..\uC-Probe\Target\Communication\Generic\Source/probe_com.c **** 
 831:..\..\..\..\..\..\uC-Probe\Target\Communication\Generic\Source/probe_com.c ****     return (avail);
 832:..\..\..\..\..\..\uC-Probe\Target\Communication\Generic\Source/probe_com.c **** }
 833:..\..\..\..\..\..\uC-Probe\Target\Communication\Generic\Source/probe_com.c **** #endif
 834:..\..\..\..\..\..\uC-Probe\Target\Communication\Generic\Source/probe_com.c **** 
 835:..\..\..\..\..\..\uC-Probe\Target\Communication\Generic\Source/probe_com.c **** 
 836:..\..\..\..\..\..\uC-Probe\Target\Communication\Generic\Source/probe_com.c **** 
 837:..\..\..\..\..\..\uC-Probe\Target\Communication\Generic\Source/probe_com.c **** /*
 838:..\..\..\..\..\..\uC-Probe\Target\Communication\Generic\Source/probe_com.c **** ***************************************************************************************************
 839:..\..\..\..\..\..\uC-Probe\Target\Communication\Generic\Source/probe_com.c **** *                                     ProbeCom_TerminalOutAvail()
 840:..\..\..\..\..\..\uC-Probe\Target\Communication\Generic\Source/probe_com.c **** *
 841:..\..\..\..\..\..\uC-Probe\Target\Communication\Generic\Source/probe_com.c **** * Description : Check if terminal output is waiting for transmission.
 842:..\..\..\..\..\..\uC-Probe\Target\Communication\Generic\Source/probe_com.c **** *
 843:..\..\..\..\..\..\uC-Probe\Target\Communication\Generic\Source/probe_com.c **** * Argument(s) : none.
 844:..\..\..\..\..\..\uC-Probe\Target\Communication\Generic\Source/probe_com.c **** *
 845:..\..\..\..\..\..\uC-Probe\Target\Communication\Generic\Source/probe_com.c **** * Return(s)   : DEF_TRUE   if a  terminal output is waiting for transmission.
 846:..\..\..\..\..\..\uC-Probe\Target\Communication\Generic\Source/probe_com.c **** *               DEF_FALSE  if no terminal output is waiting for transmission.
 847:..\..\..\..\..\..\uC-Probe\Target\Communication\Generic\Source/probe_com.c **** *
 848:..\..\..\..\..\..\uC-Probe\Target\Communication\Generic\Source/probe_com.c **** * Caller(s)   : ProbeCom_PktModifier().
 849:..\..\..\..\..\..\uC-Probe\Target\Communication\Generic\Source/probe_com.c **** *
 850:..\..\..\..\..\..\uC-Probe\Target\Communication\Generic\Source/probe_com.c **** * Note(s)     : (1) See Notes for 'ProbeCom_TerminalOut()'.
 851:..\..\..\..\..\..\uC-Probe\Target\Communication\Generic\Source/probe_com.c **** ***************************************************************************************************
 852:..\..\..\..\..\..\uC-Probe\Target\Communication\Generic\Source/probe_com.c **** */
 853:..\..\..\..\..\..\uC-Probe\Target\Communication\Generic\Source/probe_com.c **** 
 854:..\..\..\..\..\..\uC-Probe\Target\Communication\Generic\Source/probe_com.c **** #if (PROBE_COM_CFG_TERMINAL_REQ_EN == DEF_ENABLED)
 855:..\..\..\..\..\..\uC-Probe\Target\Communication\Generic\Source/probe_com.c **** static  CPU_BOOLEAN  ProbeCom_TerminalOutAvail (void)
 856:..\..\..\..\..\..\uC-Probe\Target\Communication\Generic\Source/probe_com.c **** {
 857:..\..\..\..\..\..\uC-Probe\Target\Communication\Generic\Source/probe_com.c ****     CPU_SIZE_T   buf_len;
 858:..\..\..\..\..\..\uC-Probe\Target\Communication\Generic\Source/probe_com.c ****     CPU_BOOLEAN  avail;
 859:..\..\..\..\..\..\uC-Probe\Target\Communication\Generic\Source/probe_com.c ****     CPU_SR_ALLOC();
 860:..\..\..\..\..\..\uC-Probe\Target\Communication\Generic\Source/probe_com.c **** 
 861:..\..\..\..\..\..\uC-Probe\Target\Communication\Generic\Source/probe_com.c **** 
 862:..\..\..\..\..\..\uC-Probe\Target\Communication\Generic\Source/probe_com.c ****     CPU_CRITICAL_ENTER();
ARM GAS  C:\Users\daniel01\AppData\Local\Temp\ccHLFCB6.s 			page 21


 863:..\..\..\..\..\..\uC-Probe\Target\Communication\Generic\Source/probe_com.c ****     buf_len = ProbeCom_TerminalOutBufLen;
 864:..\..\..\..\..\..\uC-Probe\Target\Communication\Generic\Source/probe_com.c ****     CPU_CRITICAL_EXIT();
 865:..\..\..\..\..\..\uC-Probe\Target\Communication\Generic\Source/probe_com.c **** 
 866:..\..\..\..\..\..\uC-Probe\Target\Communication\Generic\Source/probe_com.c ****     avail   = (buf_len == 0u) ? (DEF_FALSE) : (DEF_TRUE);
 867:..\..\..\..\..\..\uC-Probe\Target\Communication\Generic\Source/probe_com.c **** 
 868:..\..\..\..\..\..\uC-Probe\Target\Communication\Generic\Source/probe_com.c ****     return (avail);
 869:..\..\..\..\..\..\uC-Probe\Target\Communication\Generic\Source/probe_com.c **** }
 870:..\..\..\..\..\..\uC-Probe\Target\Communication\Generic\Source/probe_com.c **** #endif
 871:..\..\..\..\..\..\uC-Probe\Target\Communication\Generic\Source/probe_com.c **** 
 872:..\..\..\..\..\..\uC-Probe\Target\Communication\Generic\Source/probe_com.c **** 
 873:..\..\..\..\..\..\uC-Probe\Target\Communication\Generic\Source/probe_com.c **** 
 874:..\..\..\..\..\..\uC-Probe\Target\Communication\Generic\Source/probe_com.c **** /*
 875:..\..\..\..\..\..\uC-Probe\Target\Communication\Generic\Source/probe_com.c **** ***************************************************************************************************
 876:..\..\..\..\..\..\uC-Probe\Target\Communication\Generic\Source/probe_com.c **** *                                     ProbeCom_TerminalExecDone()
 877:..\..\..\..\..\..\uC-Probe\Target\Communication\Generic\Source/probe_com.c **** *
 878:..\..\..\..\..\..\uC-Probe\Target\Communication\Generic\Source/probe_com.c **** * Description : Check if terminal execution is done.
 879:..\..\..\..\..\..\uC-Probe\Target\Communication\Generic\Source/probe_com.c **** *
 880:..\..\..\..\..\..\uC-Probe\Target\Communication\Generic\Source/probe_com.c **** * Argument(s) : none.
 881:..\..\..\..\..\..\uC-Probe\Target\Communication\Generic\Source/probe_com.c **** *
 882:..\..\..\..\..\..\uC-Probe\Target\Communication\Generic\Source/probe_com.c **** * Return(s)   : DEF_TRUE   if terminal command execution is     done.
 883:..\..\..\..\..\..\uC-Probe\Target\Communication\Generic\Source/probe_com.c **** *               DEF_FALSE  if terminal command execution is NOT done.
 884:..\..\..\..\..\..\uC-Probe\Target\Communication\Generic\Source/probe_com.c **** *
 885:..\..\..\..\..\..\uC-Probe\Target\Communication\Generic\Source/probe_com.c **** * Caller(s)   : ProbeCom_PktModifier().
 886:..\..\..\..\..\..\uC-Probe\Target\Communication\Generic\Source/probe_com.c **** *
 887:..\..\..\..\..\..\uC-Probe\Target\Communication\Generic\Source/probe_com.c **** * Note(s)     : (1) See Notes for 'ProbeCom_TerminalOut()'.
 888:..\..\..\..\..\..\uC-Probe\Target\Communication\Generic\Source/probe_com.c **** ***************************************************************************************************
 889:..\..\..\..\..\..\uC-Probe\Target\Communication\Generic\Source/probe_com.c **** */
 890:..\..\..\..\..\..\uC-Probe\Target\Communication\Generic\Source/probe_com.c **** 
 891:..\..\..\..\..\..\uC-Probe\Target\Communication\Generic\Source/probe_com.c **** #if (PROBE_COM_CFG_TERMINAL_REQ_EN == DEF_ENABLED)
 892:..\..\..\..\..\..\uC-Probe\Target\Communication\Generic\Source/probe_com.c **** static  CPU_BOOLEAN  ProbeCom_TerminalExecDone (void)
 893:..\..\..\..\..\..\uC-Probe\Target\Communication\Generic\Source/probe_com.c **** {
 894:..\..\..\..\..\..\uC-Probe\Target\Communication\Generic\Source/probe_com.c **** #if (CPU_CFG_CRITICAL_METHOD == CPU_CRITICAL_METHOD_STATUS_LOCAL)
 895:..\..\..\..\..\..\uC-Probe\Target\Communication\Generic\Source/probe_com.c ****     CPU_SR       cpu_sr;
 896:..\..\..\..\..\..\uC-Probe\Target\Communication\Generic\Source/probe_com.c **** #endif
 897:..\..\..\..\..\..\uC-Probe\Target\Communication\Generic\Source/probe_com.c ****     CPU_BOOLEAN  executing;
 898:..\..\..\..\..\..\uC-Probe\Target\Communication\Generic\Source/probe_com.c ****     CPU_BOOLEAN  done;
 899:..\..\..\..\..\..\uC-Probe\Target\Communication\Generic\Source/probe_com.c **** 
 900:..\..\..\..\..\..\uC-Probe\Target\Communication\Generic\Source/probe_com.c **** 
 901:..\..\..\..\..\..\uC-Probe\Target\Communication\Generic\Source/probe_com.c ****     CPU_CRITICAL_ENTER();
 902:..\..\..\..\..\..\uC-Probe\Target\Communication\Generic\Source/probe_com.c ****     executing = ProbeCom_TerminalExecuting;
 903:..\..\..\..\..\..\uC-Probe\Target\Communication\Generic\Source/probe_com.c ****     CPU_CRITICAL_EXIT();
 904:..\..\..\..\..\..\uC-Probe\Target\Communication\Generic\Source/probe_com.c **** 
 905:..\..\..\..\..\..\uC-Probe\Target\Communication\Generic\Source/probe_com.c ****     done = (executing == DEF_YES) ? (DEF_FALSE) : (DEF_TRUE);
 906:..\..\..\..\..\..\uC-Probe\Target\Communication\Generic\Source/probe_com.c **** 
 907:..\..\..\..\..\..\uC-Probe\Target\Communication\Generic\Source/probe_com.c ****     return (done);
 908:..\..\..\..\..\..\uC-Probe\Target\Communication\Generic\Source/probe_com.c **** }
 909:..\..\..\..\..\..\uC-Probe\Target\Communication\Generic\Source/probe_com.c **** #endif
 910:..\..\..\..\..\..\uC-Probe\Target\Communication\Generic\Source/probe_com.c **** 
 911:..\..\..\..\..\..\uC-Probe\Target\Communication\Generic\Source/probe_com.c **** 
 912:..\..\..\..\..\..\uC-Probe\Target\Communication\Generic\Source/probe_com.c **** /*
 913:..\..\..\..\..\..\uC-Probe\Target\Communication\Generic\Source/probe_com.c **** ***************************************************************************************************
 914:..\..\..\..\..\..\uC-Probe\Target\Communication\Generic\Source/probe_com.c **** *                                       ProbeCom_PktModifier()
 915:..\..\..\..\..\..\uC-Probe\Target\Communication\Generic\Source/probe_com.c **** *
 916:..\..\..\..\..\..\uC-Probe\Target\Communication\Generic\Source/probe_com.c **** * Description : Get packet modfier byte.
 917:..\..\..\..\..\..\uC-Probe\Target\Communication\Generic\Source/probe_com.c **** *
 918:..\..\..\..\..\..\uC-Probe\Target\Communication\Generic\Source/probe_com.c **** * Argument(s) : none.
 919:..\..\..\..\..\..\uC-Probe\Target\Communication\Generic\Source/probe_com.c **** *
ARM GAS  C:\Users\daniel01\AppData\Local\Temp\ccHLFCB6.s 			page 22


 920:..\..\..\..\..\..\uC-Probe\Target\Communication\Generic\Source/probe_com.c **** * Return(s)   : The modifier byte.
 921:..\..\..\..\..\..\uC-Probe\Target\Communication\Generic\Source/probe_com.c **** *
 922:..\..\..\..\..\..\uC-Probe\Target\Communication\Generic\Source/probe_com.c **** * Caller(s)   : Various command handlers (ProbeCom_Req????()).
 923:..\..\..\..\..\..\uC-Probe\Target\Communication\Generic\Source/probe_com.c **** *
 924:..\..\..\..\..\..\uC-Probe\Target\Communication\Generic\Source/probe_com.c **** * Note(s)     : none.
 925:..\..\..\..\..\..\uC-Probe\Target\Communication\Generic\Source/probe_com.c **** ***************************************************************************************************
 926:..\..\..\..\..\..\uC-Probe\Target\Communication\Generic\Source/probe_com.c **** */
 927:..\..\..\..\..\..\uC-Probe\Target\Communication\Generic\Source/probe_com.c **** 
 928:..\..\..\..\..\..\uC-Probe\Target\Communication\Generic\Source/probe_com.c **** static  CPU_INT08U  ProbeCom_PktModifier (void)
 929:..\..\..\..\..\..\uC-Probe\Target\Communication\Generic\Source/probe_com.c **** {
 275              		.loc 1 929 0
 276              		.cfi_startproc
 277              		@ args = 0, pretend = 0, frame = 8
 278              		@ frame_needed = 1, uses_anonymous_args = 0
 279              		@ link register save eliminated.
 280 0000 80B4     		push	{r7}
 281              	.LCFI5:
 282              		.cfi_def_cfa_offset 4
 283 0002 83B0     		sub	sp, sp, #12
 284              	.LCFI6:
 285              		.cfi_def_cfa_offset 16
 286 0004 00AF     		add	r7, sp, #0
 287              		.cfi_offset 7, -4
 288              	.LCFI7:
 289              		.cfi_def_cfa_register 7
 930:..\..\..\..\..\..\uC-Probe\Target\Communication\Generic\Source/probe_com.c **** #if ((PROBE_COM_CFG_STR_REQ_EN      == DEF_ENABLED) || \
 931:..\..\..\..\..\..\uC-Probe\Target\Communication\Generic\Source/probe_com.c ****      (PROBE_COM_CFG_TERMINAL_REQ_EN == DEF_ENABLED))
 932:..\..\..\..\..\..\uC-Probe\Target\Communication\Generic\Source/probe_com.c ****     CPU_BOOLEAN  avail;
 933:..\..\..\..\..\..\uC-Probe\Target\Communication\Generic\Source/probe_com.c **** #endif
 934:..\..\..\..\..\..\uC-Probe\Target\Communication\Generic\Source/probe_com.c **** #if  (PROBE_COM_CFG_TERMINAL_REQ_EN == DEF_ENABLED)
 935:..\..\..\..\..\..\uC-Probe\Target\Communication\Generic\Source/probe_com.c ****     CPU_BOOLEAN  done;
 936:..\..\..\..\..\..\uC-Probe\Target\Communication\Generic\Source/probe_com.c **** #endif
 937:..\..\..\..\..\..\uC-Probe\Target\Communication\Generic\Source/probe_com.c ****     CPU_INT08U   mod;
 938:..\..\..\..\..\..\uC-Probe\Target\Communication\Generic\Source/probe_com.c **** 
 939:..\..\..\..\..\..\uC-Probe\Target\Communication\Generic\Source/probe_com.c **** 
 940:..\..\..\..\..\..\uC-Probe\Target\Communication\Generic\Source/probe_com.c ****     mod = PROBE_COM_MODIFIER_NONE;
 290              		.loc 1 940 0
 291 0006 4FF00003 		mov	r3, #0
 292 000a FB71     		strb	r3, [r7, #7]
 941:..\..\..\..\..\..\uC-Probe\Target\Communication\Generic\Source/probe_com.c **** 
 942:..\..\..\..\..\..\uC-Probe\Target\Communication\Generic\Source/probe_com.c **** #if (PROBE_COM_CFG_STR_REQ_EN == DEF_ENABLED)
 943:..\..\..\..\..\..\uC-Probe\Target\Communication\Generic\Source/probe_com.c ****     avail = ProbeCom_StrOutAvail();
 944:..\..\..\..\..\..\uC-Probe\Target\Communication\Generic\Source/probe_com.c ****     if (avail == DEF_TRUE) {
 945:..\..\..\..\..\..\uC-Probe\Target\Communication\Generic\Source/probe_com.c ****         DEF_BIT_SET(mod, PROBE_COM_MODIFIER_STR_OUT_AVAIL);
 946:..\..\..\..\..\..\uC-Probe\Target\Communication\Generic\Source/probe_com.c ****     }
 947:..\..\..\..\..\..\uC-Probe\Target\Communication\Generic\Source/probe_com.c **** #endif
 948:..\..\..\..\..\..\uC-Probe\Target\Communication\Generic\Source/probe_com.c **** 
 949:..\..\..\..\..\..\uC-Probe\Target\Communication\Generic\Source/probe_com.c **** #if (PROBE_COM_CFG_TERMINAL_REQ_EN == DEF_ENABLED)
 950:..\..\..\..\..\..\uC-Probe\Target\Communication\Generic\Source/probe_com.c ****     avail = ProbeCom_TerminalOutAvail();
 951:..\..\..\..\..\..\uC-Probe\Target\Communication\Generic\Source/probe_com.c ****     if (avail == DEF_TRUE) {
 952:..\..\..\..\..\..\uC-Probe\Target\Communication\Generic\Source/probe_com.c ****         DEF_BIT_SET(mod, PROBE_COM_MODIFIER_TERMINAL_OUT_AVAIL);
 953:..\..\..\..\..\..\uC-Probe\Target\Communication\Generic\Source/probe_com.c ****     }
 954:..\..\..\..\..\..\uC-Probe\Target\Communication\Generic\Source/probe_com.c **** 
 955:..\..\..\..\..\..\uC-Probe\Target\Communication\Generic\Source/probe_com.c ****     done = ProbeCom_TerminalExecDone();
 956:..\..\..\..\..\..\uC-Probe\Target\Communication\Generic\Source/probe_com.c ****     if (done == DEF_TRUE) {
 957:..\..\..\..\..\..\uC-Probe\Target\Communication\Generic\Source/probe_com.c ****         DEF_BIT_SET(mod, PROBE_COM_MODIFIER_TERMINAL_EXEC_DONE);
 958:..\..\..\..\..\..\uC-Probe\Target\Communication\Generic\Source/probe_com.c ****     }
ARM GAS  C:\Users\daniel01\AppData\Local\Temp\ccHLFCB6.s 			page 23


 959:..\..\..\..\..\..\uC-Probe\Target\Communication\Generic\Source/probe_com.c **** #endif
 960:..\..\..\..\..\..\uC-Probe\Target\Communication\Generic\Source/probe_com.c **** 
 961:..\..\..\..\..\..\uC-Probe\Target\Communication\Generic\Source/probe_com.c ****     return (mod);
 293              		.loc 1 961 0
 294 000c FB79     		ldrb	r3, [r7, #7]	@ zero_extendqisi2
 962:..\..\..\..\..\..\uC-Probe\Target\Communication\Generic\Source/probe_com.c **** }
 295              		.loc 1 962 0
 296 000e 1846     		mov	r0, r3
 297 0010 07F10C07 		add	r7, r7, #12
 298 0014 BD46     		mov	sp, r7
 299 0016 80BC     		pop	{r7}
 300 0018 7047     		bx	lr
 301              		.cfi_endproc
 302              	.LFE2:
 303              		.size	ProbeCom_PktModifier, .-ProbeCom_PktModifier
 304 001a 00BF     		.section	.text.ProbeCom_ReqErr,"ax",%progbits
 305              		.align	2
 306              		.thumb
 307              		.thumb_func
 308              		.type	ProbeCom_ReqErr, %function
 309              	ProbeCom_ReqErr:
 310              	.LFB3:
 963:..\..\..\..\..\..\uC-Probe\Target\Communication\Generic\Source/probe_com.c **** 
 964:..\..\..\..\..\..\uC-Probe\Target\Communication\Generic\Source/probe_com.c **** 
 965:..\..\..\..\..\..\uC-Probe\Target\Communication\Generic\Source/probe_com.c **** /*
 966:..\..\..\..\..\..\uC-Probe\Target\Communication\Generic\Source/probe_com.c **** ***************************************************************************************************
 967:..\..\..\..\..\..\uC-Probe\Target\Communication\Generic\Source/probe_com.c **** *                                          ProbeCom_ReqErr()
 968:..\..\..\..\..\..\uC-Probe\Target\Communication\Generic\Source/probe_com.c **** *
 969:..\..\..\..\..\..\uC-Probe\Target\Communication\Generic\Source/probe_com.c **** * Description : Formulate error response when the target receives a request it cannot handle.
 970:..\..\..\..\..\..\uC-Probe\Target\Communication\Generic\Source/probe_com.c **** *
 971:..\..\..\..\..\..\uC-Probe\Target\Communication\Generic\Source/probe_com.c **** * Argument(s) : ptx_buf      Pointer to the transmit buffer
 972:..\..\..\..\..\..\uC-Probe\Target\Communication\Generic\Source/probe_com.c **** *
 973:..\..\..\..\..\..\uC-Probe\Target\Communication\Generic\Source/probe_com.c **** *               comm_err     Error that occurred
 974:..\..\..\..\..\..\uC-Probe\Target\Communication\Generic\Source/probe_com.c **** *
 975:..\..\..\..\..\..\uC-Probe\Target\Communication\Generic\Source/probe_com.c **** * Return(s)   : The number of bytes written to the tx buffer.
 976:..\..\..\..\..\..\uC-Probe\Target\Communication\Generic\Source/probe_com.c **** *
 977:..\..\..\..\..\..\uC-Probe\Target\Communication\Generic\Source/probe_com.c **** * Caller(s)   : Various command handlers (ProbeCom_Req????()).
 978:..\..\..\..\..\..\uC-Probe\Target\Communication\Generic\Source/probe_com.c **** *
 979:..\..\..\..\..\..\uC-Probe\Target\Communication\Generic\Source/probe_com.c **** * Note(s)     : (1) The TX format:
 980:..\..\..\..\..\..\uC-Probe\Target\Communication\Generic\Source/probe_com.c **** *
 981:..\..\..\..\..\..\uC-Probe\Target\Communication\Generic\Source/probe_com.c **** *                   (A) A 2-byte format  , indicating the data segment format;
 982:..\..\..\..\..\..\uC-Probe\Target\Communication\Generic\Source/probe_com.c **** *                   (B) A 1-byte constant, PROBE_RS232_OK,   if the location can    be read;
 983:..\..\..\..\..\..\uC-Probe\Target\Communication\Generic\Source/probe_com.c **** *                       A 1-byte constant, PROBE_RS232_FAIL, if the location cannot be read.
 984:..\..\..\..\..\..\uC-Probe\Target\Communication\Generic\Source/probe_com.c **** *                   (C) A 1-byte modifier.
 985:..\..\..\..\..\..\uC-Probe\Target\Communication\Generic\Source/probe_com.c **** *
 986:..\..\..\..\..\..\uC-Probe\Target\Communication\Generic\Source/probe_com.c **** *                         +-------------------------+------------+------------+
 987:..\..\..\..\..\..\uC-Probe\Target\Communication\Generic\Source/probe_com.c **** *                         |          Format         |   Status   |  Modifier  |
 988:..\..\..\..\..\..\uC-Probe\Target\Communication\Generic\Source/probe_com.c **** *                         +-------------------------+------------+------------+
 989:..\..\..\..\..\..\uC-Probe\Target\Communication\Generic\Source/probe_com.c **** ***************************************************************************************************
 990:..\..\..\..\..\..\uC-Probe\Target\Communication\Generic\Source/probe_com.c **** */
 991:..\..\..\..\..\..\uC-Probe\Target\Communication\Generic\Source/probe_com.c **** 
 992:..\..\..\..\..\..\uC-Probe\Target\Communication\Generic\Source/probe_com.c **** static  CPU_SIZE_T  ProbeCom_ReqErr (CPU_INT08U  *ptx_buf,
 993:..\..\..\..\..\..\uC-Probe\Target\Communication\Generic\Source/probe_com.c ****                                      CPU_INT08U   comm_err)
 994:..\..\..\..\..\..\uC-Probe\Target\Communication\Generic\Source/probe_com.c **** {
 311              		.loc 1 994 0
 312              		.cfi_startproc
 313              		@ args = 0, pretend = 0, frame = 16
ARM GAS  C:\Users\daniel01\AppData\Local\Temp\ccHLFCB6.s 			page 24


 314              		@ frame_needed = 1, uses_anonymous_args = 0
 315 0000 80B5     		push	{r7, lr}
 316              	.LCFI8:
 317              		.cfi_def_cfa_offset 8
 318 0002 84B0     		sub	sp, sp, #16
 319              	.LCFI9:
 320              		.cfi_def_cfa_offset 24
 321 0004 00AF     		add	r7, sp, #0
 322              		.cfi_offset 14, -4
 323              		.cfi_offset 7, -8
 324              	.LCFI10:
 325              		.cfi_def_cfa_register 7
 326 0006 7860     		str	r0, [r7, #4]
 327 0008 0B46     		mov	r3, r1
 328 000a FB70     		strb	r3, [r7, #3]
 995:..\..\..\..\..\..\uC-Probe\Target\Communication\Generic\Source/probe_com.c ****     CPU_SIZE_T  tx_len;
 996:..\..\..\..\..\..\uC-Probe\Target\Communication\Generic\Source/probe_com.c **** 
 997:..\..\..\..\..\..\uC-Probe\Target\Communication\Generic\Source/probe_com.c **** 
 998:..\..\..\..\..\..\uC-Probe\Target\Communication\Generic\Source/probe_com.c **** #if (PROBE_COM_CFG_STAT_EN == DEF_ENABLED)
 999:..\..\..\..\..\..\uC-Probe\Target\Communication\Generic\Source/probe_com.c ****     ProbeCom_ErrPktCtr++;
 329              		.loc 1 999 0
 330 000c 40F20003 		movw	r3, #:lower16:ProbeCom_ErrPktCtr
 331 0010 C0F20003 		movt	r3, #:upper16:ProbeCom_ErrPktCtr
 332 0014 1B68     		ldr	r3, [r3, #0]
 333 0016 03F10102 		add	r2, r3, #1
 334 001a 40F20003 		movw	r3, #:lower16:ProbeCom_ErrPktCtr
 335 001e C0F20003 		movt	r3, #:upper16:ProbeCom_ErrPktCtr
 336 0022 1A60     		str	r2, [r3, #0]
1000:..\..\..\..\..\..\uC-Probe\Target\Communication\Generic\Source/probe_com.c **** #endif
1001:..\..\..\..\..\..\uC-Probe\Target\Communication\Generic\Source/probe_com.c **** 
1002:..\..\..\..\..\..\uC-Probe\Target\Communication\Generic\Source/probe_com.c ****     ProbeCom_StoINT16U(&ptx_buf, PROBE_COM_FMT_TX_ERR);         /* Tx pkt fmt.                     
 337              		.loc 1 1002 0
 338 0024 07F10403 		add	r3, r7, #4
 339 0028 1846     		mov	r0, r3
 340 002a 4FF40041 		mov	r1, #32768
 341 002e FFF7FEFF 		bl	ProbeCom_StoINT16U
1003:..\..\..\..\..\..\uC-Probe\Target\Communication\Generic\Source/probe_com.c ****     ProbeCom_StoINT08U(&ptx_buf, comm_err);                     /* Target status.                  
 342              		.loc 1 1003 0
 343 0032 07F10402 		add	r2, r7, #4
 344 0036 FB78     		ldrb	r3, [r7, #3]	@ zero_extendqisi2
 345 0038 1046     		mov	r0, r2
 346 003a 1946     		mov	r1, r3
 347 003c FFF7FEFF 		bl	ProbeCom_StoINT08U
1004:..\..\..\..\..\..\uC-Probe\Target\Communication\Generic\Source/probe_com.c ****     ProbeCom_StoINT08U(&ptx_buf, ProbeCom_PktModifier());       /* Modifier.                       
 348              		.loc 1 1004 0
 349 0040 FFF7FEFF 		bl	ProbeCom_PktModifier
 350 0044 0346     		mov	r3, r0
 351 0046 07F10402 		add	r2, r7, #4
 352 004a 1046     		mov	r0, r2
 353 004c 1946     		mov	r1, r3
 354 004e FFF7FEFF 		bl	ProbeCom_StoINT08U
1005:..\..\..\..\..\..\uC-Probe\Target\Communication\Generic\Source/probe_com.c **** 
1006:..\..\..\..\..\..\uC-Probe\Target\Communication\Generic\Source/probe_com.c ****     tx_len = (CPU_SIZE_T)PROBE_COM_SIZE_TX_HDR;
 355              		.loc 1 1006 0
 356 0052 4FF00403 		mov	r3, #4
 357 0056 FB60     		str	r3, [r7, #12]
1007:..\..\..\..\..\..\uC-Probe\Target\Communication\Generic\Source/probe_com.c ****     return (tx_len);                                            /* Rtn TX data segment size =  4 (=
ARM GAS  C:\Users\daniel01\AppData\Local\Temp\ccHLFCB6.s 			page 25


 358              		.loc 1 1007 0
 359 0058 FB68     		ldr	r3, [r7, #12]
1008:..\..\..\..\..\..\uC-Probe\Target\Communication\Generic\Source/probe_com.c **** }
 360              		.loc 1 1008 0
 361 005a 1846     		mov	r0, r3
 362 005c 07F11007 		add	r7, r7, #16
 363 0060 BD46     		mov	sp, r7
 364 0062 80BD     		pop	{r7, pc}
 365              		.cfi_endproc
 366              	.LFE3:
 367              		.size	ProbeCom_ReqErr, .-ProbeCom_ReqErr
 368              		.section	.text.ProbeCom_ReqQuery,"ax",%progbits
 369              		.align	2
 370              		.thumb
 371              		.thumb_func
 372              		.type	ProbeCom_ReqQuery, %function
 373              	ProbeCom_ReqQuery:
 374              	.LFB4:
1009:..\..\..\..\..\..\uC-Probe\Target\Communication\Generic\Source/probe_com.c **** 
1010:..\..\..\..\..\..\uC-Probe\Target\Communication\Generic\Source/probe_com.c **** 
1011:..\..\..\..\..\..\uC-Probe\Target\Communication\Generic\Source/probe_com.c **** /*
1012:..\..\..\..\..\..\uC-Probe\Target\Communication\Generic\Source/probe_com.c **** ***************************************************************************************************
1013:..\..\..\..\..\..\uC-Probe\Target\Communication\Generic\Source/probe_com.c **** *                                         ProbeCom_ReqQuery()
1014:..\..\..\..\..\..\uC-Probe\Target\Communication\Generic\Source/probe_com.c **** *
1015:..\..\..\..\..\..\uC-Probe\Target\Communication\Generic\Source/probe_com.c **** * Description : Parse the FMT_QUERY command & formulate response.  This command asks the target
1016:..\..\..\..\..\..\uC-Probe\Target\Communication\Generic\Source/probe_com.c **** *               about its capabilities, which are returned in response.
1017:..\..\..\..\..\..\uC-Probe\Target\Communication\Generic\Source/probe_com.c **** *
1018:..\..\..\..\..\..\uC-Probe\Target\Communication\Generic\Source/probe_com.c **** * Argument(s) : prx_buf         Pointer to the receive  buffer
1019:..\..\..\..\..\..\uC-Probe\Target\Communication\Generic\Source/probe_com.c **** *
1020:..\..\..\..\..\..\uC-Probe\Target\Communication\Generic\Source/probe_com.c **** *               ptx_buf         Pointer to the transmit buffer
1021:..\..\..\..\..\..\uC-Probe\Target\Communication\Generic\Source/probe_com.c **** *
1022:..\..\..\..\..\..\uC-Probe\Target\Communication\Generic\Source/probe_com.c **** *               rx_pkt_size     Size of the receive  packet
1023:..\..\..\..\..\..\uC-Probe\Target\Communication\Generic\Source/probe_com.c **** *
1024:..\..\..\..\..\..\uC-Probe\Target\Communication\Generic\Source/probe_com.c **** *               tx_buf_size     Size of the transmit buffer
1025:..\..\..\..\..\..\uC-Probe\Target\Communication\Generic\Source/probe_com.c **** *
1026:..\..\..\..\..\..\uC-Probe\Target\Communication\Generic\Source/probe_com.c **** * Return(s)   : The number of bytes written to the tx buffer.
1027:..\..\..\..\..\..\uC-Probe\Target\Communication\Generic\Source/probe_com.c **** *
1028:..\..\..\..\..\..\uC-Probe\Target\Communication\Generic\Source/probe_com.c **** * Caller(s)   : ProbeCom_ParseRxPkt().
1029:..\..\..\..\..\..\uC-Probe\Target\Communication\Generic\Source/probe_com.c **** *
1030:..\..\..\..\..\..\uC-Probe\Target\Communication\Generic\Source/probe_com.c **** * Note(s)     : (1) The RX format:
1031:..\..\..\..\..\..\uC-Probe\Target\Communication\Generic\Source/probe_com.c **** *
1032:..\..\..\..\..\..\uC-Probe\Target\Communication\Generic\Source/probe_com.c **** *                   (A) A 2-byte format, indicating the data segment format;
1033:..\..\..\..\..\..\uC-Probe\Target\Communication\Generic\Source/probe_com.c **** *                   (B) A 2-byte query , indicating the query type.
1034:..\..\..\..\..\..\uC-Probe\Target\Communication\Generic\Source/probe_com.c **** *
1035:..\..\..\..\..\..\uC-Probe\Target\Communication\Generic\Source/probe_com.c **** *                         +-------------------------+-------------------------+
1036:..\..\..\..\..\..\uC-Probe\Target\Communication\Generic\Source/probe_com.c **** *                         |          Format         |          Query          |
1037:..\..\..\..\..\..\uC-Probe\Target\Communication\Generic\Source/probe_com.c **** *                         +-------------------------+-------------------------+
1038:..\..\..\..\..\..\uC-Probe\Target\Communication\Generic\Source/probe_com.c **** *
1039:..\..\..\..\..\..\uC-Probe\Target\Communication\Generic\Source/probe_com.c **** *              (2) The TX format:
1040:..\..\..\..\..\..\uC-Probe\Target\Communication\Generic\Source/probe_com.c **** *
1041:..\..\..\..\..\..\uC-Probe\Target\Communication\Generic\Source/probe_com.c **** *                   (A) A 2-byte format, indicating the data segment format;
1042:..\..\..\..\..\..\uC-Probe\Target\Communication\Generic\Source/probe_com.c **** *                   (B) A 1-byte status, indicating the status after the request;
1043:..\..\..\..\..\..\uC-Probe\Target\Communication\Generic\Source/probe_com.c **** *                   (C) A 1-byte modifier;
1044:..\..\..\..\..\..\uC-Probe\Target\Communication\Generic\Source/probe_com.c **** *                   (E) A n-byte answer, the answer to the query.
1045:..\..\..\..\..\..\uC-Probe\Target\Communication\Generic\Source/probe_com.c **** *
1046:..\..\..\..\..\..\uC-Probe\Target\Communication\Generic\Source/probe_com.c **** *                         +-------------------------+------------+------------+
1047:..\..\..\..\..\..\uC-Probe\Target\Communication\Generic\Source/probe_com.c **** *                         |          Format         |   Status   |  Modifier  |
ARM GAS  C:\Users\daniel01\AppData\Local\Temp\ccHLFCB6.s 			page 26


1048:..\..\..\..\..\..\uC-Probe\Target\Communication\Generic\Source/probe_com.c **** *                         +-------------------------+------------+------------+
1049:..\..\..\..\..\..\uC-Probe\Target\Communication\Generic\Source/probe_com.c **** *                         |                       Answer                      |
1050:..\..\..\..\..\..\uC-Probe\Target\Communication\Generic\Source/probe_com.c **** *                         |                         .                         |
1051:..\..\..\..\..\..\uC-Probe\Target\Communication\Generic\Source/probe_com.c **** *                         |                         .                         |
1052:..\..\..\..\..\..\uC-Probe\Target\Communication\Generic\Source/probe_com.c **** *                         |                         .                         |
1053:..\..\..\..\..\..\uC-Probe\Target\Communication\Generic\Source/probe_com.c **** *                         +---------------------------------------------------+
1054:..\..\..\..\..\..\uC-Probe\Target\Communication\Generic\Source/probe_com.c **** *
1055:..\..\..\..\..\..\uC-Probe\Target\Communication\Generic\Source/probe_com.c **** ***************************************************************************************************
1056:..\..\..\..\..\..\uC-Probe\Target\Communication\Generic\Source/probe_com.c **** */
1057:..\..\..\..\..\..\uC-Probe\Target\Communication\Generic\Source/probe_com.c **** 
1058:..\..\..\..\..\..\uC-Probe\Target\Communication\Generic\Source/probe_com.c **** static  CPU_SIZE_T  ProbeCom_ReqQuery (CPU_INT08U  *prx_buf,
1059:..\..\..\..\..\..\uC-Probe\Target\Communication\Generic\Source/probe_com.c ****                                        CPU_INT08U  *ptx_buf,
1060:..\..\..\..\..\..\uC-Probe\Target\Communication\Generic\Source/probe_com.c ****                                        CPU_SIZE_T   rx_pkt_size,
1061:..\..\..\..\..\..\uC-Probe\Target\Communication\Generic\Source/probe_com.c ****                                        CPU_SIZE_T   tx_buf_size)
1062:..\..\..\..\..\..\uC-Probe\Target\Communication\Generic\Source/probe_com.c **** {
 375              		.loc 1 1062 0
 376              		.cfi_startproc
 377              		@ args = 0, pretend = 0, frame = 32
 378              		@ frame_needed = 1, uses_anonymous_args = 0
 379 0000 80B5     		push	{r7, lr}
 380              	.LCFI11:
 381              		.cfi_def_cfa_offset 8
 382 0002 88B0     		sub	sp, sp, #32
 383              	.LCFI12:
 384              		.cfi_def_cfa_offset 40
 385 0004 00AF     		add	r7, sp, #0
 386              		.cfi_offset 14, -4
 387              		.cfi_offset 7, -8
 388              	.LCFI13:
 389              		.cfi_def_cfa_register 7
 390 0006 F860     		str	r0, [r7, #12]
 391 0008 B960     		str	r1, [r7, #8]
 392 000a 7A60     		str	r2, [r7, #4]
 393 000c 3B60     		str	r3, [r7, #0]
1063:..\..\..\..\..\..\uC-Probe\Target\Communication\Generic\Source/probe_com.c ****     CPU_INT16U  query;
1064:..\..\..\..\..\..\uC-Probe\Target\Communication\Generic\Source/probe_com.c ****     CPU_INT32U  status;
1065:..\..\..\..\..\..\uC-Probe\Target\Communication\Generic\Source/probe_com.c ****     CPU_SIZE_T  tx_len;
1066:..\..\..\..\..\..\uC-Probe\Target\Communication\Generic\Source/probe_com.c ****     CPU_INT32U  version;
1067:..\..\..\..\..\..\uC-Probe\Target\Communication\Generic\Source/probe_com.c **** 
1068:..\..\..\..\..\..\uC-Probe\Target\Communication\Generic\Source/probe_com.c **** 
1069:..\..\..\..\..\..\uC-Probe\Target\Communication\Generic\Source/probe_com.c ****    (void)&tx_buf_size;                                          /* Prevent compiler warning.       
1070:..\..\..\..\..\..\uC-Probe\Target\Communication\Generic\Source/probe_com.c **** 
1071:..\..\..\..\..\..\uC-Probe\Target\Communication\Generic\Source/probe_com.c ****                                                                 /* ------------------- CHK PKT SIZE
1072:..\..\..\..\..\..\uC-Probe\Target\Communication\Generic\Source/probe_com.c ****                                                                 /* Expected size =  2 (= Rx hdr siz
1073:..\..\..\..\..\..\uC-Probe\Target\Communication\Generic\Source/probe_com.c ****                                                                 /*               +  2 (= Query     
1074:..\..\..\..\..\..\uC-Probe\Target\Communication\Generic\Source/probe_com.c ****     if (rx_pkt_size != 4u) {
 394              		.loc 1 1074 0
 395 000e 7B68     		ldr	r3, [r7, #4]
 396 0010 042B     		cmp	r3, #4
 397 0012 09D0     		beq	.L20
1075:..\..\..\..\..\..\uC-Probe\Target\Communication\Generic\Source/probe_com.c ****         tx_len = ProbeCom_ReqErr(ptx_buf, PROBE_COM_STATUS_RX_PKT_WRONG_SIZE);
 398              		.loc 1 1075 0
 399 0014 BB68     		ldr	r3, [r7, #8]
 400 0016 1846     		mov	r0, r3
 401 0018 4FF0FE01 		mov	r1, #254
 402 001c FFF7FEFF 		bl	ProbeCom_ReqErr
 403 0020 0346     		mov	r3, r0
ARM GAS  C:\Users\daniel01\AppData\Local\Temp\ccHLFCB6.s 			page 27


 404 0022 FB61     		str	r3, [r7, #28]
1076:..\..\..\..\..\..\uC-Probe\Target\Communication\Generic\Source/probe_com.c ****         return (tx_len);
 405              		.loc 1 1076 0
 406 0024 FB69     		ldr	r3, [r7, #28]
 407 0026 EBE0     		b	.L21
 408              	.L20:
1077:..\..\..\..\..\..\uC-Probe\Target\Communication\Generic\Source/probe_com.c ****     }
1078:..\..\..\..\..\..\uC-Probe\Target\Communication\Generic\Source/probe_com.c **** 
1079:..\..\..\..\..\..\uC-Probe\Target\Communication\Generic\Source/probe_com.c ****                                                                 /* ------------------- HANDLE QUERY
1080:..\..\..\..\..\..\uC-Probe\Target\Communication\Generic\Source/probe_com.c ****     query = ProbeCom_GetINT16U(&prx_buf);                       /* Rd the query.                   
 409              		.loc 1 1080 0
 410 0028 07F10C03 		add	r3, r7, #12
 411 002c 1846     		mov	r0, r3
 412 002e FFF7FEFF 		bl	ProbeCom_GetINT16U
 413 0032 0346     		mov	r3, r0
 414 0034 7B83     		strh	r3, [r7, #26]	@ movhi
1081:..\..\..\..\..\..\uC-Probe\Target\Communication\Generic\Source/probe_com.c **** 
1082:..\..\..\..\..\..\uC-Probe\Target\Communication\Generic\Source/probe_com.c ****     switch (query) {                                            /* Determine if query is supported.
 415              		.loc 1 1082 0
 416 0036 7B8B     		ldrh	r3, [r7, #26]
 417 0038 40F20222 		movw	r2, #514
 418 003c 9342     		cmp	r3, r2
 419 003e 0ADC     		bgt	.L24
 420 0040 40F20122 		movw	r2, #513
 421 0044 9342     		cmp	r3, r2
 422 0046 0CDA     		bge	.L23
 423 0048 A3F58073 		sub	r3, r3, #256
 424 004c 03F1FF33 		add	r3, r3, #-1
 425 0050 012B     		cmp	r3, #1
 426 0052 3CD8     		bhi	.L22
 427 0054 05E0     		b	.L23
 428              	.L24:
 429 0056 A3F58053 		sub	r3, r3, #4096
 430 005a 03F1FF33 		add	r3, r3, #-1
 431 005e 012B     		cmp	r3, #1
 432 0060 35D8     		bhi	.L22
 433              	.L23:
1083:..\..\..\..\..\..\uC-Probe\Target\Communication\Generic\Source/probe_com.c ****         case PROBE_COM_QUERY_MAX_RX_SIZE:
1084:..\..\..\..\..\..\uC-Probe\Target\Communication\Generic\Source/probe_com.c ****         case PROBE_COM_QUERY_MAX_TX_SIZE:
1085:..\..\..\..\..\..\uC-Probe\Target\Communication\Generic\Source/probe_com.c ****         case PROBE_COM_QUERY_FMT_SUPPORT:
1086:..\..\..\..\..\..\uC-Probe\Target\Communication\Generic\Source/probe_com.c ****         case PROBE_COM_QUERY_ENDIANNESS_TEST:
1087:..\..\..\..\..\..\uC-Probe\Target\Communication\Generic\Source/probe_com.c ****         case PROBE_COM_QUERY_STATUS:
1088:..\..\..\..\..\..\uC-Probe\Target\Communication\Generic\Source/probe_com.c ****         case PROBE_COM_QUERY_VERSION:
1089:..\..\..\..\..\..\uC-Probe\Target\Communication\Generic\Source/probe_com.c ****              break;
1090:..\..\..\..\..\..\uC-Probe\Target\Communication\Generic\Source/probe_com.c **** 
1091:..\..\..\..\..\..\uC-Probe\Target\Communication\Generic\Source/probe_com.c ****         default:
1092:..\..\..\..\..\..\uC-Probe\Target\Communication\Generic\Source/probe_com.c ****              tx_len = ProbeCom_ReqErr(ptx_buf, PROBE_COM_STATUS_QUERY_NOT_SUPPORTED);
1093:..\..\..\..\..\..\uC-Probe\Target\Communication\Generic\Source/probe_com.c ****              return (tx_len);
1094:..\..\..\..\..\..\uC-Probe\Target\Communication\Generic\Source/probe_com.c ****     }
1095:..\..\..\..\..\..\uC-Probe\Target\Communication\Generic\Source/probe_com.c **** 
1096:..\..\..\..\..\..\uC-Probe\Target\Communication\Generic\Source/probe_com.c ****                                                                 /* Sto tx pkt hdr :                
1097:..\..\..\..\..\..\uC-Probe\Target\Communication\Generic\Source/probe_com.c ****     ProbeCom_StoINT16U(&ptx_buf, PROBE_COM_FMT_TX_QUERY);       /*  (a) TX pkt fmt.                
 434              		.loc 1 1097 0
 435 0062 07F10803 		add	r3, r7, #8
 436 0066 1846     		mov	r0, r3
 437 0068 48F20101 		movw	r1, #32769
 438 006c FFF7FEFF 		bl	ProbeCom_StoINT16U
ARM GAS  C:\Users\daniel01\AppData\Local\Temp\ccHLFCB6.s 			page 28


1098:..\..\..\..\..\..\uC-Probe\Target\Communication\Generic\Source/probe_com.c ****     ProbeCom_StoINT08U(&ptx_buf, PROBE_COM_STATUS_OK);          /*  (b) Target status.             
 439              		.loc 1 1098 0
 440 0070 07F10803 		add	r3, r7, #8
 441 0074 1846     		mov	r0, r3
 442 0076 4FF00101 		mov	r1, #1
 443 007a FFF7FEFF 		bl	ProbeCom_StoINT08U
1099:..\..\..\..\..\..\uC-Probe\Target\Communication\Generic\Source/probe_com.c ****     ProbeCom_StoINT08U(&ptx_buf, ProbeCom_PktModifier());       /*  (c) Modifier.                  
 444              		.loc 1 1099 0
 445 007e FFF7FEFF 		bl	ProbeCom_PktModifier
 446 0082 0346     		mov	r3, r0
 447 0084 07F10802 		add	r2, r7, #8
 448 0088 1046     		mov	r0, r2
 449 008a 1946     		mov	r1, r3
 450 008c FFF7FEFF 		bl	ProbeCom_StoINT08U
1100:..\..\..\..\..\..\uC-Probe\Target\Communication\Generic\Source/probe_com.c **** 
1101:..\..\..\..\..\..\uC-Probe\Target\Communication\Generic\Source/probe_com.c ****                                                                 /* Sto tx data segment data.       
1102:..\..\..\..\..\..\uC-Probe\Target\Communication\Generic\Source/probe_com.c ****     switch (query) {
 451              		.loc 1 1102 0
 452 0090 7B8B     		ldrh	r3, [r7, #26]
 453 0092 40F20122 		movw	r2, #513
 454 0096 9342     		cmp	r3, r2
 455 0098 72D0     		beq	.L28
 456 009a 40F20122 		movw	r2, #513
 457 009e 9342     		cmp	r3, r2
 458 00a0 07DC     		bgt	.L32
 459 00a2 40F20112 		movw	r2, #257
 460 00a6 9342     		cmp	r3, r2
 461 00a8 1BD0     		beq	.L26
 462 00aa B3F5817F 		cmp	r3, #258
 463 00ae 2AD0     		beq	.L27
 464 00b0 9EE0     		b	.L25
 465              	.L32:
 466 00b2 41F20102 		movw	r2, #4097
 467 00b6 9342     		cmp	r3, r2
 468 00b8 37D0     		beq	.L30
 469 00ba 41F20202 		movw	r2, #4098
 470 00be 9342     		cmp	r3, r2
 471 00c0 00F08680 		beq	.L31
 472 00c4 40F20222 		movw	r2, #514
 473 00c8 9342     		cmp	r3, r2
 474 00ca 70D0     		beq	.L29
 475 00cc 90E0     		b	.L25
 476              	.L22:
 477              		.loc 1 1092 0
 478 00ce BB68     		ldr	r3, [r7, #8]
 479 00d0 1846     		mov	r0, r3
 480 00d2 4FF0FC01 		mov	r1, #252
 481 00d6 FFF7FEFF 		bl	ProbeCom_ReqErr
 482 00da 0346     		mov	r3, r0
 483 00dc FB61     		str	r3, [r7, #28]
 484              		.loc 1 1093 0
 485 00de FB69     		ldr	r3, [r7, #28]
 486 00e0 8EE0     		b	.L21
 487              	.L26:
1103:..\..\..\..\..\..\uC-Probe\Target\Communication\Generic\Source/probe_com.c ****         case PROBE_COM_QUERY_MAX_RX_SIZE:
1104:..\..\..\..\..\..\uC-Probe\Target\Communication\Generic\Source/probe_com.c ****              ProbeCom_StoINT16U(&ptx_buf, PROBE_COM_CFG_RX_MAX_SIZE);
 488              		.loc 1 1104 0
ARM GAS  C:\Users\daniel01\AppData\Local\Temp\ccHLFCB6.s 			page 29


 489 00e2 07F10803 		add	r3, r7, #8
 490 00e6 1846     		mov	r0, r3
 491 00e8 4FF40071 		mov	r1, #512
 492 00ec FFF7FEFF 		bl	ProbeCom_StoINT16U
1105:..\..\..\..\..\..\uC-Probe\Target\Communication\Generic\Source/probe_com.c ****              ProbeCom_StoINT16U(&ptx_buf, 0);
 493              		.loc 1 1105 0
 494 00f0 07F10803 		add	r3, r7, #8
 495 00f4 1846     		mov	r0, r3
 496 00f6 4FF00001 		mov	r1, #0
 497 00fa FFF7FEFF 		bl	ProbeCom_StoINT16U
1106:..\..\..\..\..\..\uC-Probe\Target\Communication\Generic\Source/probe_com.c ****              tx_len  = 4u;
 498              		.loc 1 1106 0
 499 00fe 4FF00403 		mov	r3, #4
 500 0102 FB61     		str	r3, [r7, #28]
1107:..\..\..\..\..\..\uC-Probe\Target\Communication\Generic\Source/probe_com.c ****              break;
 501              		.loc 1 1107 0
 502 0104 77E0     		b	.L33
 503              	.L27:
1108:..\..\..\..\..\..\uC-Probe\Target\Communication\Generic\Source/probe_com.c **** 
1109:..\..\..\..\..\..\uC-Probe\Target\Communication\Generic\Source/probe_com.c **** 
1110:..\..\..\..\..\..\uC-Probe\Target\Communication\Generic\Source/probe_com.c ****         case PROBE_COM_QUERY_MAX_TX_SIZE:
1111:..\..\..\..\..\..\uC-Probe\Target\Communication\Generic\Source/probe_com.c ****              ProbeCom_StoINT16U(&ptx_buf, PROBE_COM_CFG_TX_MAX_SIZE);
 504              		.loc 1 1111 0
 505 0106 07F10803 		add	r3, r7, #8
 506 010a 1846     		mov	r0, r3
 507 010c 4FF40071 		mov	r1, #512
 508 0110 FFF7FEFF 		bl	ProbeCom_StoINT16U
1112:..\..\..\..\..\..\uC-Probe\Target\Communication\Generic\Source/probe_com.c ****              ProbeCom_StoINT16U(&ptx_buf, 0);
 509              		.loc 1 1112 0
 510 0114 07F10803 		add	r3, r7, #8
 511 0118 1846     		mov	r0, r3
 512 011a 4FF00001 		mov	r1, #0
 513 011e FFF7FEFF 		bl	ProbeCom_StoINT16U
1113:..\..\..\..\..\..\uC-Probe\Target\Communication\Generic\Source/probe_com.c ****              tx_len  = 4u;
 514              		.loc 1 1113 0
 515 0122 4FF00403 		mov	r3, #4
 516 0126 FB61     		str	r3, [r7, #28]
1114:..\..\..\..\..\..\uC-Probe\Target\Communication\Generic\Source/probe_com.c ****              break;
 517              		.loc 1 1114 0
 518 0128 65E0     		b	.L33
 519              	.L30:
1115:..\..\..\..\..\..\uC-Probe\Target\Communication\Generic\Source/probe_com.c **** 
1116:..\..\..\..\..\..\uC-Probe\Target\Communication\Generic\Source/probe_com.c **** 
1117:..\..\..\..\..\..\uC-Probe\Target\Communication\Generic\Source/probe_com.c ****         case PROBE_COM_QUERY_FMT_SUPPORT:
1118:..\..\..\..\..\..\uC-Probe\Target\Communication\Generic\Source/probe_com.c ****              ProbeCom_StoINT16U(&ptx_buf, PROBE_COM_FMT_RX_QUERY);
 520              		.loc 1 1118 0
 521 012a 07F10803 		add	r3, r7, #8
 522 012e 1846     		mov	r0, r3
 523 0130 4FF00101 		mov	r1, #1
 524 0134 FFF7FEFF 		bl	ProbeCom_StoINT16U
1119:..\..\..\..\..\..\uC-Probe\Target\Communication\Generic\Source/probe_com.c ****              ProbeCom_StoINT16U(&ptx_buf, PROBE_COM_FMT_RX_RD);
 525              		.loc 1 1119 0
 526 0138 07F10803 		add	r3, r7, #8
 527 013c 1846     		mov	r0, r3
 528 013e 4FF00201 		mov	r1, #2
 529 0142 FFF7FEFF 		bl	ProbeCom_StoINT16U
1120:..\..\..\..\..\..\uC-Probe\Target\Communication\Generic\Source/probe_com.c ****              ProbeCom_StoINT16U(&ptx_buf, PROBE_COM_FMT_RX_RD_MULTI);
ARM GAS  C:\Users\daniel01\AppData\Local\Temp\ccHLFCB6.s 			page 30


 530              		.loc 1 1120 0
 531 0146 07F10803 		add	r3, r7, #8
 532 014a 1846     		mov	r0, r3
 533 014c 4FF00701 		mov	r1, #7
 534 0150 FFF7FEFF 		bl	ProbeCom_StoINT16U
1121:..\..\..\..\..\..\uC-Probe\Target\Communication\Generic\Source/probe_com.c ****              tx_len  = 8u;
 535              		.loc 1 1121 0
 536 0154 4FF00803 		mov	r3, #8
 537 0158 FB61     		str	r3, [r7, #28]
1122:..\..\..\..\..\..\uC-Probe\Target\Communication\Generic\Source/probe_com.c **** #if (PROBE_COM_CFG_WR_REQ_EN == DEF_ENABLED)
1123:..\..\..\..\..\..\uC-Probe\Target\Communication\Generic\Source/probe_com.c ****              ProbeCom_StoINT16U(&ptx_buf, PROBE_COM_FMT_RX_WR);
 538              		.loc 1 1123 0
 539 015a 07F10803 		add	r3, r7, #8
 540 015e 1846     		mov	r0, r3
 541 0160 4FF00301 		mov	r1, #3
 542 0164 FFF7FEFF 		bl	ProbeCom_StoINT16U
1124:..\..\..\..\..\..\uC-Probe\Target\Communication\Generic\Source/probe_com.c ****              ProbeCom_StoINT16U(&ptx_buf, PROBE_COM_FMT_RX_WR_MULTI);
 543              		.loc 1 1124 0
 544 0168 07F10803 		add	r3, r7, #8
 545 016c 1846     		mov	r0, r3
 546 016e 4FF00801 		mov	r1, #8
 547 0172 FFF7FEFF 		bl	ProbeCom_StoINT16U
1125:..\..\..\..\..\..\uC-Probe\Target\Communication\Generic\Source/probe_com.c ****              tx_len += 4u;
 548              		.loc 1 1125 0
 549 0176 FB69     		ldr	r3, [r7, #28]
 550 0178 03F10403 		add	r3, r3, #4
 551 017c FB61     		str	r3, [r7, #28]
1126:..\..\..\..\..\..\uC-Probe\Target\Communication\Generic\Source/probe_com.c **** #endif
1127:..\..\..\..\..\..\uC-Probe\Target\Communication\Generic\Source/probe_com.c **** #if (PROBE_COM_CFG_STR_REQ_EN == DEF_ENABLED)
1128:..\..\..\..\..\..\uC-Probe\Target\Communication\Generic\Source/probe_com.c ****              ProbeCom_StoINT16U(&ptx_buf, PROBE_COM_FMT_RX_STR_IN);
1129:..\..\..\..\..\..\uC-Probe\Target\Communication\Generic\Source/probe_com.c ****              ProbeCom_StoINT16U(&ptx_buf, PROBE_COM_FMT_RX_STR_OUT);
1130:..\..\..\..\..\..\uC-Probe\Target\Communication\Generic\Source/probe_com.c ****              tx_len += 4u;
1131:..\..\..\..\..\..\uC-Probe\Target\Communication\Generic\Source/probe_com.c **** #endif
1132:..\..\..\..\..\..\uC-Probe\Target\Communication\Generic\Source/probe_com.c **** #if (PROBE_COM_CFG_TERMINAL_REQ_EN == DEF_ENABLED)
1133:..\..\..\..\..\..\uC-Probe\Target\Communication\Generic\Source/probe_com.c ****              ProbeCom_StoINT16U(&ptx_buf, PROBE_COM_FMT_RX_TERMINAL_EXEC);
1134:..\..\..\..\..\..\uC-Probe\Target\Communication\Generic\Source/probe_com.c ****              ProbeCom_StoINT16U(&ptx_buf, PROBE_COM_FMT_RX_TERMINAL_IN);
1135:..\..\..\..\..\..\uC-Probe\Target\Communication\Generic\Source/probe_com.c ****              ProbeCom_StoINT16U(&ptx_buf, PROBE_COM_FMT_RX_TERMINAL_OUT);
1136:..\..\..\..\..\..\uC-Probe\Target\Communication\Generic\Source/probe_com.c ****              tx_len += 6u;
1137:..\..\..\..\..\..\uC-Probe\Target\Communication\Generic\Source/probe_com.c **** #endif
1138:..\..\..\..\..\..\uC-Probe\Target\Communication\Generic\Source/probe_com.c ****              break;
 552              		.loc 1 1138 0
 553 017e 3AE0     		b	.L33
 554              	.L28:
1139:..\..\..\..\..\..\uC-Probe\Target\Communication\Generic\Source/probe_com.c **** 
1140:..\..\..\..\..\..\uC-Probe\Target\Communication\Generic\Source/probe_com.c **** 
1141:..\..\..\..\..\..\uC-Probe\Target\Communication\Generic\Source/probe_com.c ****         case PROBE_COM_QUERY_ENDIANNESS_TEST:
1142:..\..\..\..\..\..\uC-Probe\Target\Communication\Generic\Source/probe_com.c ****              ProbeCom_EndiannessTest = 0x12345678;
 555              		.loc 1 1142 0
 556 0180 40F20003 		movw	r3, #:lower16:ProbeCom_EndiannessTest
 557 0184 C0F20003 		movt	r3, #:upper16:ProbeCom_EndiannessTest
 558 0188 45F27862 		movw	r2, #:lower16:305419896
 559 018c C1F23422 		movt	r2, #:upper16:305419896
 560 0190 1A60     		str	r2, [r3, #0]
1143:..\..\..\..\..\..\uC-Probe\Target\Communication\Generic\Source/probe_com.c ****              Mem_Copy((void     *) ptx_buf,
 561              		.loc 1 1143 0
 562 0192 BB68     		ldr	r3, [r7, #8]
 563 0194 1846     		mov	r0, r3
ARM GAS  C:\Users\daniel01\AppData\Local\Temp\ccHLFCB6.s 			page 31


 564 0196 40F20001 		movw	r1, #:lower16:ProbeCom_EndiannessTest
 565 019a C0F20001 		movt	r1, #:upper16:ProbeCom_EndiannessTest
 566 019e 4FF00402 		mov	r2, #4
 567 01a2 FFF7FEFF 		bl	Mem_Copy
1144:..\..\..\..\..\..\uC-Probe\Target\Communication\Generic\Source/probe_com.c ****                       (void     *)&ProbeCom_EndiannessTest,
1145:..\..\..\..\..\..\uC-Probe\Target\Communication\Generic\Source/probe_com.c ****                       (CPU_SIZE_T) 4);
1146:..\..\..\..\..\..\uC-Probe\Target\Communication\Generic\Source/probe_com.c ****              tx_len  = 4u;
 568              		.loc 1 1146 0
 569 01a6 4FF00403 		mov	r3, #4
 570 01aa FB61     		str	r3, [r7, #28]
1147:..\..\..\..\..\..\uC-Probe\Target\Communication\Generic\Source/probe_com.c ****              break;
 571              		.loc 1 1147 0
 572 01ac 23E0     		b	.L33
 573              	.L29:
1148:..\..\..\..\..\..\uC-Probe\Target\Communication\Generic\Source/probe_com.c **** 
1149:..\..\..\..\..\..\uC-Probe\Target\Communication\Generic\Source/probe_com.c **** 
1150:..\..\..\..\..\..\uC-Probe\Target\Communication\Generic\Source/probe_com.c ****         case PROBE_COM_QUERY_STATUS:
1151:..\..\..\..\..\..\uC-Probe\Target\Communication\Generic\Source/probe_com.c ****              status = (CPU_INT32U)ProbeCom_PktModifier();
 574              		.loc 1 1151 0
 575 01ae FFF7FEFF 		bl	ProbeCom_PktModifier
 576 01b2 0346     		mov	r3, r0
 577 01b4 7B61     		str	r3, [r7, #20]
1152:..\..\..\..\..\..\uC-Probe\Target\Communication\Generic\Source/probe_com.c ****              Mem_Copy((void     *) ptx_buf,
 578              		.loc 1 1152 0
 579 01b6 BA68     		ldr	r2, [r7, #8]
 580 01b8 07F11403 		add	r3, r7, #20
 581 01bc 1046     		mov	r0, r2
 582 01be 1946     		mov	r1, r3
 583 01c0 4FF00402 		mov	r2, #4
 584 01c4 FFF7FEFF 		bl	Mem_Copy
1153:..\..\..\..\..\..\uC-Probe\Target\Communication\Generic\Source/probe_com.c ****                       (void     *)&status,
1154:..\..\..\..\..\..\uC-Probe\Target\Communication\Generic\Source/probe_com.c ****                       (CPU_SIZE_T) 4);
1155:..\..\..\..\..\..\uC-Probe\Target\Communication\Generic\Source/probe_com.c ****              tx_len = 4u;
 585              		.loc 1 1155 0
 586 01c8 4FF00403 		mov	r3, #4
 587 01cc FB61     		str	r3, [r7, #28]
1156:..\..\..\..\..\..\uC-Probe\Target\Communication\Generic\Source/probe_com.c ****              break;
 588              		.loc 1 1156 0
 589 01ce 12E0     		b	.L33
 590              	.L31:
1157:..\..\..\..\..\..\uC-Probe\Target\Communication\Generic\Source/probe_com.c **** 
1158:..\..\..\..\..\..\uC-Probe\Target\Communication\Generic\Source/probe_com.c **** 
1159:..\..\..\..\..\..\uC-Probe\Target\Communication\Generic\Source/probe_com.c ****         case PROBE_COM_QUERY_VERSION:
1160:..\..\..\..\..\..\uC-Probe\Target\Communication\Generic\Source/probe_com.c ****              version = PROBE_COM_VERSION;
 591              		.loc 1 1160 0
 592 01d0 4FF0DC03 		mov	r3, #220
 593 01d4 3B61     		str	r3, [r7, #16]
1161:..\..\..\..\..\..\uC-Probe\Target\Communication\Generic\Source/probe_com.c ****              Mem_Copy((void     *) ptx_buf,
 594              		.loc 1 1161 0
 595 01d6 BA68     		ldr	r2, [r7, #8]
 596 01d8 07F11003 		add	r3, r7, #16
 597 01dc 1046     		mov	r0, r2
 598 01de 1946     		mov	r1, r3
 599 01e0 4FF00402 		mov	r2, #4
 600 01e4 FFF7FEFF 		bl	Mem_Copy
1162:..\..\..\..\..\..\uC-Probe\Target\Communication\Generic\Source/probe_com.c ****                       (void     *)&version,
1163:..\..\..\..\..\..\uC-Probe\Target\Communication\Generic\Source/probe_com.c ****                       (CPU_SIZE_T) 4);
ARM GAS  C:\Users\daniel01\AppData\Local\Temp\ccHLFCB6.s 			page 32


1164:..\..\..\..\..\..\uC-Probe\Target\Communication\Generic\Source/probe_com.c ****              tx_len  = 4u;
 601              		.loc 1 1164 0
 602 01e8 4FF00403 		mov	r3, #4
 603 01ec FB61     		str	r3, [r7, #28]
1165:..\..\..\..\..\..\uC-Probe\Target\Communication\Generic\Source/probe_com.c ****              break;
 604              		.loc 1 1165 0
 605 01ee 02E0     		b	.L33
 606              	.L25:
1166:..\..\..\..\..\..\uC-Probe\Target\Communication\Generic\Source/probe_com.c **** 
1167:..\..\..\..\..\..\uC-Probe\Target\Communication\Generic\Source/probe_com.c **** 
1168:..\..\..\..\..\..\uC-Probe\Target\Communication\Generic\Source/probe_com.c ****         default:
1169:..\..\..\..\..\..\uC-Probe\Target\Communication\Generic\Source/probe_com.c ****              tx_len  = 0u;
 607              		.loc 1 1169 0
 608 01f0 4FF00003 		mov	r3, #0
 609 01f4 FB61     		str	r3, [r7, #28]
 610              	.L33:
1170:..\..\..\..\..\..\uC-Probe\Target\Communication\Generic\Source/probe_com.c ****              break;
1171:..\..\..\..\..\..\uC-Probe\Target\Communication\Generic\Source/probe_com.c ****     }
1172:..\..\..\..\..\..\uC-Probe\Target\Communication\Generic\Source/probe_com.c **** 
1173:..\..\..\..\..\..\uC-Probe\Target\Communication\Generic\Source/probe_com.c ****                                                                 /* ------------------ RTN TX PKT SI
1174:..\..\..\..\..\..\uC-Probe\Target\Communication\Generic\Source/probe_com.c ****     tx_len += PROBE_COM_SIZE_TX_HDR;
 611              		.loc 1 1174 0
 612 01f6 FB69     		ldr	r3, [r7, #28]
 613 01f8 03F10403 		add	r3, r3, #4
 614 01fc FB61     		str	r3, [r7, #28]
1175:..\..\..\..\..\..\uC-Probe\Target\Communication\Generic\Source/probe_com.c ****     return (tx_len);                                            /* TX pkt size = nbytes (= Tx data 
 615              		.loc 1 1175 0
 616 01fe FB69     		ldr	r3, [r7, #28]
 617              	.L21:
1176:..\..\..\..\..\..\uC-Probe\Target\Communication\Generic\Source/probe_com.c ****                                                                 /*             + 4      (= Tx hdr  
1177:..\..\..\..\..\..\uC-Probe\Target\Communication\Generic\Source/probe_com.c **** }
 618              		.loc 1 1177 0
 619 0200 1846     		mov	r0, r3
 620 0202 07F12007 		add	r7, r7, #32
 621 0206 BD46     		mov	sp, r7
 622 0208 80BD     		pop	{r7, pc}
 623              		.cfi_endproc
 624              	.LFE4:
 625              		.size	ProbeCom_ReqQuery, .-ProbeCom_ReqQuery
 626 020a 00BF     		.section	.text.ProbeCom_ReqRd,"ax",%progbits
 627              		.align	2
 628              		.thumb
 629              		.thumb_func
 630              		.type	ProbeCom_ReqRd, %function
 631              	ProbeCom_ReqRd:
 632              	.LFB5:
1178:..\..\..\..\..\..\uC-Probe\Target\Communication\Generic\Source/probe_com.c **** 
1179:..\..\..\..\..\..\uC-Probe\Target\Communication\Generic\Source/probe_com.c **** 
1180:..\..\..\..\..\..\uC-Probe\Target\Communication\Generic\Source/probe_com.c **** /*
1181:..\..\..\..\..\..\uC-Probe\Target\Communication\Generic\Source/probe_com.c **** ***************************************************************************************************
1182:..\..\..\..\..\..\uC-Probe\Target\Communication\Generic\Source/probe_com.c **** *                                          ProbeCom_ReqRd()
1183:..\..\..\..\..\..\uC-Probe\Target\Communication\Generic\Source/probe_com.c **** *
1184:..\..\..\..\..\..\uC-Probe\Target\Communication\Generic\Source/probe_com.c **** * Description : Parse the FMT_RD request & formulate response.  This command causes the target to s
1185:..\..\..\..\..\..\uC-Probe\Target\Communication\Generic\Source/probe_com.c **** *               data read from its memory for a certain {memory address, data length} pair (which i
1186:..\..\..\..\..\..\uC-Probe\Target\Communication\Generic\Source/probe_com.c **** *               given in the request).
1187:..\..\..\..\..\..\uC-Probe\Target\Communication\Generic\Source/probe_com.c **** *
1188:..\..\..\..\..\..\uC-Probe\Target\Communication\Generic\Source/probe_com.c **** * Argument(s) : prx_buf         Pointer to the receive  buffer
ARM GAS  C:\Users\daniel01\AppData\Local\Temp\ccHLFCB6.s 			page 33


1189:..\..\..\..\..\..\uC-Probe\Target\Communication\Generic\Source/probe_com.c **** *
1190:..\..\..\..\..\..\uC-Probe\Target\Communication\Generic\Source/probe_com.c **** *               ptx_buf         Pointer to the transmit buffer
1191:..\..\..\..\..\..\uC-Probe\Target\Communication\Generic\Source/probe_com.c **** *
1192:..\..\..\..\..\..\uC-Probe\Target\Communication\Generic\Source/probe_com.c **** *               rx_pkt_size     Size of the receive  packet
1193:..\..\..\..\..\..\uC-Probe\Target\Communication\Generic\Source/probe_com.c **** *
1194:..\..\..\..\..\..\uC-Probe\Target\Communication\Generic\Source/probe_com.c **** *               tx_buf_size     Size of the transmit buffer
1195:..\..\..\..\..\..\uC-Probe\Target\Communication\Generic\Source/probe_com.c **** *
1196:..\..\..\..\..\..\uC-Probe\Target\Communication\Generic\Source/probe_com.c **** * Return(s)   : The number of bytes written to the tx buffer.
1197:..\..\..\..\..\..\uC-Probe\Target\Communication\Generic\Source/probe_com.c **** *
1198:..\..\..\..\..\..\uC-Probe\Target\Communication\Generic\Source/probe_com.c **** * Caller(s)   : ProbeCom_ParseRxPkt().
1199:..\..\..\..\..\..\uC-Probe\Target\Communication\Generic\Source/probe_com.c **** *
1200:..\..\..\..\..\..\uC-Probe\Target\Communication\Generic\Source/probe_com.c **** * Note(s)     : (1) The RX format:
1201:..\..\..\..\..\..\uC-Probe\Target\Communication\Generic\Source/probe_com.c **** *
1202:..\..\..\..\..\..\uC-Probe\Target\Communication\Generic\Source/probe_com.c **** *                   (A) A 2-byte format , indicating the data segment format;
1203:..\..\..\..\..\..\uC-Probe\Target\Communication\Generic\Source/probe_com.c **** *                   (B) A 2-byte length , indicating the number of bytes to read;
1204:..\..\..\..\..\..\uC-Probe\Target\Communication\Generic\Source/probe_com.c **** *                   (C) A 4-byte address, the starting address of the data to read.
1205:..\..\..\..\..\..\uC-Probe\Target\Communication\Generic\Source/probe_com.c **** *
1206:..\..\..\..\..\..\uC-Probe\Target\Communication\Generic\Source/probe_com.c **** *                         +-------------------------+-------------------------+
1207:..\..\..\..\..\..\uC-Probe\Target\Communication\Generic\Source/probe_com.c **** *                         |          Format         |     Number of bytes     |
1208:..\..\..\..\..\..\uC-Probe\Target\Communication\Generic\Source/probe_com.c **** *                         +-------------------------+-------------------------+
1209:..\..\..\..\..\..\uC-Probe\Target\Communication\Generic\Source/probe_com.c **** *                         |                      Address                      |
1210:..\..\..\..\..\..\uC-Probe\Target\Communication\Generic\Source/probe_com.c **** *                         +-------------------------+-------------------------+
1211:..\..\..\..\..\..\uC-Probe\Target\Communication\Generic\Source/probe_com.c **** *
1212:..\..\..\..\..\..\uC-Probe\Target\Communication\Generic\Source/probe_com.c **** *               (2) The TX format:
1213:..\..\..\..\..\..\uC-Probe\Target\Communication\Generic\Source/probe_com.c **** *
1214:..\..\..\..\..\..\uC-Probe\Target\Communication\Generic\Source/probe_com.c **** *                   (A) A 2-byte format, indicating the data segment format;
1215:..\..\..\..\..\..\uC-Probe\Target\Communication\Generic\Source/probe_com.c **** *                   (B) A 1-byte status, indicating the status after the request;
1216:..\..\..\..\..\..\uC-Probe\Target\Communication\Generic\Source/probe_com.c **** *                   (C) A 1-byte modifier;
1217:..\..\..\..\..\..\uC-Probe\Target\Communication\Generic\Source/probe_com.c **** *                   (D) The memory data.
1218:..\..\..\..\..\..\uC-Probe\Target\Communication\Generic\Source/probe_com.c **** *
1219:..\..\..\..\..\..\uC-Probe\Target\Communication\Generic\Source/probe_com.c **** *                         +-------------------------+------------+------------+
1220:..\..\..\..\..\..\uC-Probe\Target\Communication\Generic\Source/probe_com.c **** *                         |          Format         |   Status   |  Modifier  |
1221:..\..\..\..\..\..\uC-Probe\Target\Communication\Generic\Source/probe_com.c **** *                         +-------------------------+------------+------------+
1222:..\..\..\..\..\..\uC-Probe\Target\Communication\Generic\Source/probe_com.c **** *                         |                        Data                       |
1223:..\..\..\..\..\..\uC-Probe\Target\Communication\Generic\Source/probe_com.c **** *                         |                         .                         |
1224:..\..\..\..\..\..\uC-Probe\Target\Communication\Generic\Source/probe_com.c **** *                         |                         .                         |
1225:..\..\..\..\..\..\uC-Probe\Target\Communication\Generic\Source/probe_com.c **** *                         |                         .                         |
1226:..\..\..\..\..\..\uC-Probe\Target\Communication\Generic\Source/probe_com.c **** *                         +---------------------------------------------------+
1227:..\..\..\..\..\..\uC-Probe\Target\Communication\Generic\Source/probe_com.c **** *
1228:..\..\..\..\..\..\uC-Probe\Target\Communication\Generic\Source/probe_com.c **** ***************************************************************************************************
1229:..\..\..\..\..\..\uC-Probe\Target\Communication\Generic\Source/probe_com.c **** */
1230:..\..\..\..\..\..\uC-Probe\Target\Communication\Generic\Source/probe_com.c **** 
1231:..\..\..\..\..\..\uC-Probe\Target\Communication\Generic\Source/probe_com.c **** static  CPU_SIZE_T  ProbeCom_ReqRd (CPU_INT08U  *prx_buf,
1232:..\..\..\..\..\..\uC-Probe\Target\Communication\Generic\Source/probe_com.c ****                                     CPU_INT08U  *ptx_buf,
1233:..\..\..\..\..\..\uC-Probe\Target\Communication\Generic\Source/probe_com.c ****                                     CPU_SIZE_T   rx_pkt_size,
1234:..\..\..\..\..\..\uC-Probe\Target\Communication\Generic\Source/probe_com.c ****                                     CPU_SIZE_T   tx_buf_size)
1235:..\..\..\..\..\..\uC-Probe\Target\Communication\Generic\Source/probe_com.c **** {
 633              		.loc 1 1235 0
 634              		.cfi_startproc
 635              		@ args = 0, pretend = 0, frame = 32
 636              		@ frame_needed = 1, uses_anonymous_args = 0
 637 0000 80B5     		push	{r7, lr}
 638              	.LCFI14:
 639              		.cfi_def_cfa_offset 8
 640 0002 88B0     		sub	sp, sp, #32
 641              	.LCFI15:
 642              		.cfi_def_cfa_offset 40
ARM GAS  C:\Users\daniel01\AppData\Local\Temp\ccHLFCB6.s 			page 34


 643 0004 00AF     		add	r7, sp, #0
 644              		.cfi_offset 14, -4
 645              		.cfi_offset 7, -8
 646              	.LCFI16:
 647              		.cfi_def_cfa_register 7
 648 0006 F860     		str	r0, [r7, #12]
 649 0008 B960     		str	r1, [r7, #8]
 650 000a 7A60     		str	r2, [r7, #4]
 651 000c 3B60     		str	r3, [r7, #0]
1236:..\..\..\..\..\..\uC-Probe\Target\Communication\Generic\Source/probe_com.c ****     CPU_ADDR    sym_addr;
1237:..\..\..\..\..\..\uC-Probe\Target\Communication\Generic\Source/probe_com.c ****     CPU_SIZE_T  sym_size;
1238:..\..\..\..\..\..\uC-Probe\Target\Communication\Generic\Source/probe_com.c ****     CPU_SIZE_T  tx_len;
1239:..\..\..\..\..\..\uC-Probe\Target\Communication\Generic\Source/probe_com.c **** 
1240:..\..\..\..\..\..\uC-Probe\Target\Communication\Generic\Source/probe_com.c **** 
1241:..\..\..\..\..\..\uC-Probe\Target\Communication\Generic\Source/probe_com.c ****                                                                 /* ------------------- CHK PKT SIZE
1242:..\..\..\..\..\..\uC-Probe\Target\Communication\Generic\Source/probe_com.c ****                                                                 /* Expected size = 2 (= Rx hdr size
1243:..\..\..\..\..\..\uC-Probe\Target\Communication\Generic\Source/probe_com.c ****                                                                 /*               + 2 (= Sym size   
1244:..\..\..\..\..\..\uC-Probe\Target\Communication\Generic\Source/probe_com.c ****                                                                 /*               + 4 (= Sym addr   
1245:..\..\..\..\..\..\uC-Probe\Target\Communication\Generic\Source/probe_com.c ****     if (rx_pkt_size != 8u) {
 652              		.loc 1 1245 0
 653 000e 7B68     		ldr	r3, [r7, #4]
 654 0010 082B     		cmp	r3, #8
 655 0012 09D0     		beq	.L36
1246:..\..\..\..\..\..\uC-Probe\Target\Communication\Generic\Source/probe_com.c ****         tx_len = ProbeCom_ReqErr(ptx_buf, PROBE_COM_STATUS_RX_PKT_WRONG_SIZE);
 656              		.loc 1 1246 0
 657 0014 BB68     		ldr	r3, [r7, #8]
 658 0016 1846     		mov	r0, r3
 659 0018 4FF0FE01 		mov	r1, #254
 660 001c FFF7FEFF 		bl	ProbeCom_ReqErr
 661 0020 0346     		mov	r3, r0
 662 0022 FB61     		str	r3, [r7, #28]
1247:..\..\..\..\..\..\uC-Probe\Target\Communication\Generic\Source/probe_com.c ****         return (tx_len);
 663              		.loc 1 1247 0
 664 0024 FB69     		ldr	r3, [r7, #28]
 665 0026 58E0     		b	.L37
 666              	.L36:
1248:..\..\..\..\..\..\uC-Probe\Target\Communication\Generic\Source/probe_com.c ****     }
1249:..\..\..\..\..\..\uC-Probe\Target\Communication\Generic\Source/probe_com.c **** 
1250:..\..\..\..\..\..\uC-Probe\Target\Communication\Generic\Source/probe_com.c **** 
1251:..\..\..\..\..\..\uC-Probe\Target\Communication\Generic\Source/probe_com.c ****                                                                 /* -------------------- HANDLE RD -
1252:..\..\..\..\..\..\uC-Probe\Target\Communication\Generic\Source/probe_com.c ****     sym_size = ProbeCom_GetINT16U(&prx_buf);                    /* Get nbr of bytes to rd.         
 667              		.loc 1 1252 0
 668 0028 07F10C03 		add	r3, r7, #12
 669 002c 1846     		mov	r0, r3
 670 002e FFF7FEFF 		bl	ProbeCom_GetINT16U
 671 0032 0346     		mov	r3, r0
 672 0034 BB61     		str	r3, [r7, #24]
1253:..\..\..\..\..\..\uC-Probe\Target\Communication\Generic\Source/probe_com.c **** 
1254:..\..\..\..\..\..\uC-Probe\Target\Communication\Generic\Source/probe_com.c ****                                                                 /* Get rd addr.                    
1255:..\..\..\..\..\..\uC-Probe\Target\Communication\Generic\Source/probe_com.c **** #if ((!defined(CPU_CFG_ADDR_SIZE)) || \
1256:..\..\..\..\..\..\uC-Probe\Target\Communication\Generic\Source/probe_com.c ****      ((defined(CPU_CFG_ADDR_SIZE)) && \
1257:..\..\..\..\..\..\uC-Probe\Target\Communication\Generic\Source/probe_com.c ****               (CPU_CFG_ADDR_SIZE   != CPU_WORD_SIZE_16)))
1258:..\..\..\..\..\..\uC-Probe\Target\Communication\Generic\Source/probe_com.c ****     sym_addr = (CPU_ADDR)ProbeCom_GetINT32U(&prx_buf);
 673              		.loc 1 1258 0
 674 0036 07F10C03 		add	r3, r7, #12
 675 003a 1846     		mov	r0, r3
 676 003c FFF7FEFF 		bl	ProbeCom_GetINT32U
ARM GAS  C:\Users\daniel01\AppData\Local\Temp\ccHLFCB6.s 			page 35


 677 0040 0346     		mov	r3, r0
 678 0042 7B61     		str	r3, [r7, #20]
1259:..\..\..\..\..\..\uC-Probe\Target\Communication\Generic\Source/probe_com.c **** #else
1260:..\..\..\..\..\..\uC-Probe\Target\Communication\Generic\Source/probe_com.c ****     sym_addr = (CPU_ADDR)ProbeCom_GetINT16U(&prx_buf);
1261:..\..\..\..\..\..\uC-Probe\Target\Communication\Generic\Source/probe_com.c **** #endif
1262:..\..\..\..\..\..\uC-Probe\Target\Communication\Generic\Source/probe_com.c **** 
1263:..\..\..\..\..\..\uC-Probe\Target\Communication\Generic\Source/probe_com.c ****     if (sym_size + PROBE_COM_SIZE_TX_HDR > tx_buf_size) {       /* If tx pkt will NOT fit in buf, r
 679              		.loc 1 1263 0
 680 0044 BB69     		ldr	r3, [r7, #24]
 681 0046 03F10402 		add	r2, r3, #4
 682 004a 3B68     		ldr	r3, [r7, #0]
 683 004c 9A42     		cmp	r2, r3
 684 004e 09D9     		bls	.L38
1264:..\..\..\..\..\..\uC-Probe\Target\Communication\Generic\Source/probe_com.c ****         tx_len = ProbeCom_ReqErr(ptx_buf, PROBE_COM_STATUS_TX_PKT_TOO_LARGE);
 685              		.loc 1 1264 0
 686 0050 BB68     		ldr	r3, [r7, #8]
 687 0052 1846     		mov	r0, r3
 688 0054 4FF0FD01 		mov	r1, #253
 689 0058 FFF7FEFF 		bl	ProbeCom_ReqErr
 690 005c 0346     		mov	r3, r0
 691 005e FB61     		str	r3, [r7, #28]
1265:..\..\..\..\..\..\uC-Probe\Target\Communication\Generic\Source/probe_com.c ****         return (tx_len);
 692              		.loc 1 1265 0
 693 0060 FB69     		ldr	r3, [r7, #28]
 694 0062 3AE0     		b	.L37
 695              	.L38:
1266:..\..\..\..\..\..\uC-Probe\Target\Communication\Generic\Source/probe_com.c ****     }
1267:..\..\..\..\..\..\uC-Probe\Target\Communication\Generic\Source/probe_com.c **** 
1268:..\..\..\..\..\..\uC-Probe\Target\Communication\Generic\Source/probe_com.c **** #if (PROBE_COM_CFG_STAT_EN == DEF_ENABLED)
1269:..\..\..\..\..\..\uC-Probe\Target\Communication\Generic\Source/probe_com.c ****     ProbeCom_TxSymCtr++;                                        /* Inc tx sym ctr.                 
 696              		.loc 1 1269 0
 697 0064 40F20003 		movw	r3, #:lower16:ProbeCom_TxSymCtr
 698 0068 C0F20003 		movt	r3, #:upper16:ProbeCom_TxSymCtr
 699 006c 1B68     		ldr	r3, [r3, #0]
 700 006e 03F10102 		add	r2, r3, #1
 701 0072 40F20003 		movw	r3, #:lower16:ProbeCom_TxSymCtr
 702 0076 C0F20003 		movt	r3, #:upper16:ProbeCom_TxSymCtr
 703 007a 1A60     		str	r2, [r3, #0]
1270:..\..\..\..\..\..\uC-Probe\Target\Communication\Generic\Source/probe_com.c ****     ProbeCom_TxSymByteCtr += sym_size;
 704              		.loc 1 1270 0
 705 007c 40F20003 		movw	r3, #:lower16:ProbeCom_TxSymByteCtr
 706 0080 C0F20003 		movt	r3, #:upper16:ProbeCom_TxSymByteCtr
 707 0084 1A68     		ldr	r2, [r3, #0]
 708 0086 BB69     		ldr	r3, [r7, #24]
 709 0088 1A44     		add	r2, r2, r3
 710 008a 40F20003 		movw	r3, #:lower16:ProbeCom_TxSymByteCtr
 711 008e C0F20003 		movt	r3, #:upper16:ProbeCom_TxSymByteCtr
 712 0092 1A60     		str	r2, [r3, #0]
1271:..\..\..\..\..\..\uC-Probe\Target\Communication\Generic\Source/probe_com.c **** #endif
1272:..\..\..\..\..\..\uC-Probe\Target\Communication\Generic\Source/probe_com.c **** 
1273:..\..\..\..\..\..\uC-Probe\Target\Communication\Generic\Source/probe_com.c ****                                                                 /* Store tx pkt hdr :              
1274:..\..\..\..\..\..\uC-Probe\Target\Communication\Generic\Source/probe_com.c ****     ProbeCom_StoINT16U(&ptx_buf, PROBE_COM_FMT_TX_RD);          /*  (a) Tx pkt fmt.                
 713              		.loc 1 1274 0
 714 0094 07F10803 		add	r3, r7, #8
 715 0098 1846     		mov	r0, r3
 716 009a 48F20201 		movw	r1, #32770
 717 009e FFF7FEFF 		bl	ProbeCom_StoINT16U
ARM GAS  C:\Users\daniel01\AppData\Local\Temp\ccHLFCB6.s 			page 36


1275:..\..\..\..\..\..\uC-Probe\Target\Communication\Generic\Source/probe_com.c ****     ProbeCom_StoINT08U(&ptx_buf, PROBE_COM_STATUS_OK);          /*  (b) Target status.             
 718              		.loc 1 1275 0
 719 00a2 07F10803 		add	r3, r7, #8
 720 00a6 1846     		mov	r0, r3
 721 00a8 4FF00101 		mov	r1, #1
 722 00ac FFF7FEFF 		bl	ProbeCom_StoINT08U
1276:..\..\..\..\..\..\uC-Probe\Target\Communication\Generic\Source/probe_com.c ****     ProbeCom_StoINT08U(&ptx_buf, ProbeCom_PktModifier());       /*  (c) Modifier.                  
 723              		.loc 1 1276 0
 724 00b0 FFF7FEFF 		bl	ProbeCom_PktModifier
 725 00b4 0346     		mov	r3, r0
 726 00b6 07F10802 		add	r2, r7, #8
 727 00ba 1046     		mov	r0, r2
 728 00bc 1946     		mov	r1, r3
 729 00be FFF7FEFF 		bl	ProbeCom_StoINT08U
1277:..\..\..\..\..\..\uC-Probe\Target\Communication\Generic\Source/probe_com.c **** 
1278:..\..\..\..\..\..\uC-Probe\Target\Communication\Generic\Source/probe_com.c ****     Mem_Copy((void     *)ptx_buf,                               /* Save tx data segment data.      
 730              		.loc 1 1278 0
 731 00c2 BA68     		ldr	r2, [r7, #8]
 732 00c4 7B69     		ldr	r3, [r7, #20]
 733 00c6 1046     		mov	r0, r2
 734 00c8 1946     		mov	r1, r3
 735 00ca BA69     		ldr	r2, [r7, #24]
 736 00cc FFF7FEFF 		bl	Mem_Copy
1279:..\..\..\..\..\..\uC-Probe\Target\Communication\Generic\Source/probe_com.c ****              (void     *)sym_addr,
1280:..\..\..\..\..\..\uC-Probe\Target\Communication\Generic\Source/probe_com.c ****              (CPU_SIZE_T)sym_size);
1281:..\..\..\..\..\..\uC-Probe\Target\Communication\Generic\Source/probe_com.c **** 
1282:..\..\..\..\..\..\uC-Probe\Target\Communication\Generic\Source/probe_com.c ****                                                                 /* ------------------ RTN TX PKT SI
1283:..\..\..\..\..\..\uC-Probe\Target\Communication\Generic\Source/probe_com.c ****     tx_len = sym_size + PROBE_COM_SIZE_TX_HDR;
 737              		.loc 1 1283 0
 738 00d0 BB69     		ldr	r3, [r7, #24]
 739 00d2 03F10403 		add	r3, r3, #4
 740 00d6 FB61     		str	r3, [r7, #28]
1284:..\..\..\..\..\..\uC-Probe\Target\Communication\Generic\Source/probe_com.c ****     return (tx_len);                                            /* Tx pkt size = nbytes (= Tx data 
 741              		.loc 1 1284 0
 742 00d8 FB69     		ldr	r3, [r7, #28]
 743              	.L37:
1285:..\..\..\..\..\..\uC-Probe\Target\Communication\Generic\Source/probe_com.c ****                                                                 /*             + 4      (= Tx heade
1286:..\..\..\..\..\..\uC-Probe\Target\Communication\Generic\Source/probe_com.c **** }
 744              		.loc 1 1286 0
 745 00da 1846     		mov	r0, r3
 746 00dc 07F12007 		add	r7, r7, #32
 747 00e0 BD46     		mov	sp, r7
 748 00e2 80BD     		pop	{r7, pc}
 749              		.cfi_endproc
 750              	.LFE5:
 751              		.size	ProbeCom_ReqRd, .-ProbeCom_ReqRd
 752              		.section	.text.ProbeCom_ReqRdMulti,"ax",%progbits
 753              		.align	2
 754              		.thumb
 755              		.thumb_func
 756              		.type	ProbeCom_ReqRdMulti, %function
 757              	ProbeCom_ReqRdMulti:
 758              	.LFB6:
1287:..\..\..\..\..\..\uC-Probe\Target\Communication\Generic\Source/probe_com.c **** 
1288:..\..\..\..\..\..\uC-Probe\Target\Communication\Generic\Source/probe_com.c **** 
1289:..\..\..\..\..\..\uC-Probe\Target\Communication\Generic\Source/probe_com.c **** /*
1290:..\..\..\..\..\..\uC-Probe\Target\Communication\Generic\Source/probe_com.c **** ***************************************************************************************************
ARM GAS  C:\Users\daniel01\AppData\Local\Temp\ccHLFCB6.s 			page 37


1291:..\..\..\..\..\..\uC-Probe\Target\Communication\Generic\Source/probe_com.c **** *                                        ProbeCom_ReqRdMulti()
1292:..\..\..\..\..\..\uC-Probe\Target\Communication\Generic\Source/probe_com.c **** *
1293:..\..\..\..\..\..\uC-Probe\Target\Communication\Generic\Source/probe_com.c **** * Description : Parse the FMT_RD_MULTI request & formulate respnse.  This command causes the target
1294:..\..\..\..\..\..\uC-Probe\Target\Communication\Generic\Source/probe_com.c **** *               send data read from its memory for a certain set of {memory address, data length} p
1295:..\..\..\..\..\..\uC-Probe\Target\Communication\Generic\Source/probe_com.c **** *               (which are given in the request).
1296:..\..\..\..\..\..\uC-Probe\Target\Communication\Generic\Source/probe_com.c **** *
1297:..\..\..\..\..\..\uC-Probe\Target\Communication\Generic\Source/probe_com.c **** * Argument(s) : prx_buf         Pointer to the receive  buffer
1298:..\..\..\..\..\..\uC-Probe\Target\Communication\Generic\Source/probe_com.c **** *
1299:..\..\..\..\..\..\uC-Probe\Target\Communication\Generic\Source/probe_com.c **** *               ptx_buf         Pointer to the transmit buffer
1300:..\..\..\..\..\..\uC-Probe\Target\Communication\Generic\Source/probe_com.c **** *
1301:..\..\..\..\..\..\uC-Probe\Target\Communication\Generic\Source/probe_com.c **** *               rx_pkt_size     Size of the receive  packet
1302:..\..\..\..\..\..\uC-Probe\Target\Communication\Generic\Source/probe_com.c **** *
1303:..\..\..\..\..\..\uC-Probe\Target\Communication\Generic\Source/probe_com.c **** *               tx_buf_size     Size of the transmit buffer
1304:..\..\..\..\..\..\uC-Probe\Target\Communication\Generic\Source/probe_com.c **** *
1305:..\..\..\..\..\..\uC-Probe\Target\Communication\Generic\Source/probe_com.c **** * Return(s)   : The number of bytes written to the tx buffer.
1306:..\..\..\..\..\..\uC-Probe\Target\Communication\Generic\Source/probe_com.c **** *
1307:..\..\..\..\..\..\uC-Probe\Target\Communication\Generic\Source/probe_com.c **** * Caller(s)   : ProbeCom_ParseRxPkt().
1308:..\..\..\..\..\..\uC-Probe\Target\Communication\Generic\Source/probe_com.c **** *
1309:..\..\..\..\..\..\uC-Probe\Target\Communication\Generic\Source/probe_com.c **** * Note(s)     : (1) The RX format:
1310:..\..\..\..\..\..\uC-Probe\Target\Communication\Generic\Source/probe_com.c **** *
1311:..\..\..\..\..\..\uC-Probe\Target\Communication\Generic\Source/probe_com.c **** *                   (A) A 2-byte format,          indicating the data segment format;
1312:..\..\..\..\..\..\uC-Probe\Target\Communication\Generic\Source/probe_com.c **** *                   (B) A 5-byte item descriptor, for each item in the list, consisting of:
1313:..\..\..\..\..\..\uC-Probe\Target\Communication\Generic\Source/probe_com.c **** *
1314:..\..\..\..\..\..\uC-Probe\Target\Communication\Generic\Source/probe_com.c **** *                       (1) A 4-byte address, the starting address of the data to read;
1315:..\..\..\..\..\..\uC-Probe\Target\Communication\Generic\Source/probe_com.c **** *                       (2) A 1-byte length,  indicating the number of bytes to read.
1316:..\..\..\..\..\..\uC-Probe\Target\Communication\Generic\Source/probe_com.c **** *
1317:..\..\..\..\..\..\uC-Probe\Target\Communication\Generic\Source/probe_com.c **** *                         +-------------------------+------------+------------+
1318:..\..\..\..\..\..\uC-Probe\Target\Communication\Generic\Source/probe_com.c **** *                         |          Format         | Num. bytes |         Addr       ---
1319:..\..\..\..\..\..\uC-Probe\Target\Communication\Generic\Source/probe_com.c **** *                         +-------------------------+------------+------------+        |    Item 1
1320:..\..\..\..\..\..\uC-Probe\Target\Communication\Generic\Source/probe_com.c **** *                         ress                                   | Num. bytes |       ---
1321:..\..\..\..\..\..\uC-Probe\Target\Communication\Generic\Source/probe_com.c **** *                         +--------------------------------------+------------+        |
1322:..\..\..\..\..\..\uC-Probe\Target\Communication\Generic\Source/probe_com.c **** *                         |                      Address                      |        |    Item 2
1323:..\..\..\..\..\..\uC-Probe\Target\Communication\Generic\Source/probe_com.c **** *                         +------------+--------------------------------------+       ---
1324:..\..\..\..\..\..\uC-Probe\Target\Communication\Generic\Source/probe_com.c **** *                         | Num. bytes |                                   Addr        |    Item 3
1325:..\..\..\..\..\..\uC-Probe\Target\Communication\Generic\Source/probe_com.c **** *                         +------------+--------------------------------------+        .
1326:..\..\..\..\..\..\uC-Probe\Target\Communication\Generic\Source/probe_com.c **** *                         |                         .                         |        .
1327:..\..\..\..\..\..\uC-Probe\Target\Communication\Generic\Source/probe_com.c **** *                         |                         .                         |        .
1328:..\..\..\..\..\..\uC-Probe\Target\Communication\Generic\Source/probe_com.c **** *                         |                         .                         |        .
1329:..\..\..\..\..\..\uC-Probe\Target\Communication\Generic\Source/probe_com.c **** *                         |                         .                         |        .
1330:..\..\..\..\..\..\uC-Probe\Target\Communication\Generic\Source/probe_com.c **** *                         +--------------------------------------+------------+        .
1331:..\..\..\..\..\..\uC-Probe\Target\Communication\Generic\Source/probe_com.c **** *                         ress                                   | Num. bytes |       ---
1332:..\..\..\..\..\..\uC-Probe\Target\Communication\Generic\Source/probe_com.c **** *                         ---------------------------------------+------------+        |   Item n
1333:..\..\..\..\..\..\uC-Probe\Target\Communication\Generic\Source/probe_com.c **** *                         |                      Address                      |        |
1334:..\..\..\..\..\..\uC-Probe\Target\Communication\Generic\Source/probe_com.c **** *                         +---------------------------------------------------+       ---
1335:..\..\..\..\..\..\uC-Probe\Target\Communication\Generic\Source/probe_com.c **** *
1336:..\..\..\..\..\..\uC-Probe\Target\Communication\Generic\Source/probe_com.c **** *               (2) The TX format:
1337:..\..\..\..\..\..\uC-Probe\Target\Communication\Generic\Source/probe_com.c **** *
1338:..\..\..\..\..\..\uC-Probe\Target\Communication\Generic\Source/probe_com.c **** *                   (A) A 2-byte format, indicating the data segment format;
1339:..\..\..\..\..\..\uC-Probe\Target\Communication\Generic\Source/probe_com.c **** *                   (B) A 1-byte status, indicating the status after the request;
1340:..\..\..\..\..\..\uC-Probe\Target\Communication\Generic\Source/probe_com.c **** *                   (C) A 1-byte modifier;
1341:..\..\..\..\..\..\uC-Probe\Target\Communication\Generic\Source/probe_com.c **** *                   (D) For each item, the following is sent:
1342:..\..\..\..\..\..\uC-Probe\Target\Communication\Generic\Source/probe_com.c **** *
1343:..\..\..\..\..\..\uC-Probe\Target\Communication\Generic\Source/probe_com.c **** *                       (1) The memory data.
1344:..\..\..\..\..\..\uC-Probe\Target\Communication\Generic\Source/probe_com.c **** *
1345:..\..\..\..\..\..\uC-Probe\Target\Communication\Generic\Source/probe_com.c **** *                         +-------------------------+------------+------------+
1346:..\..\..\..\..\..\uC-Probe\Target\Communication\Generic\Source/probe_com.c **** *                         |          Format         |   Status   |  Modifier  |
1347:..\..\..\..\..\..\uC-Probe\Target\Communication\Generic\Source/probe_com.c **** *                         +-------------------------+------------+------------+       ---
ARM GAS  C:\Users\daniel01\AppData\Local\Temp\ccHLFCB6.s 			page 38


1348:..\..\..\..\..\..\uC-Probe\Target\Communication\Generic\Source/probe_com.c **** *                         |                        Data                       |        |    Item 1
1349:..\..\..\..\..\..\uC-Probe\Target\Communication\Generic\Source/probe_com.c **** *                         |                         .                         |        |
1350:..\..\..\..\..\..\uC-Probe\Target\Communication\Generic\Source/probe_com.c **** *                         |                         .                         |        |
1351:..\..\..\..\..\..\uC-Probe\Target\Communication\Generic\Source/probe_com.c **** *                         |                         .                         |        |
1352:..\..\..\..\..\..\uC-Probe\Target\Communication\Generic\Source/probe_com.c **** *                         +---------------------------------------------------+       ---
1353:..\..\..\..\..\..\uC-Probe\Target\Communication\Generic\Source/probe_com.c **** *                         |                         .                         |        .
1354:..\..\..\..\..\..\uC-Probe\Target\Communication\Generic\Source/probe_com.c **** *                         |                         .                         |        .
1355:..\..\..\..\..\..\uC-Probe\Target\Communication\Generic\Source/probe_com.c **** *                         |                         .                         |        .
1356:..\..\..\..\..\..\uC-Probe\Target\Communication\Generic\Source/probe_com.c **** *                         |                         .                         |        .
1357:..\..\..\..\..\..\uC-Probe\Target\Communication\Generic\Source/probe_com.c **** *                         |                         .                         |        .
1358:..\..\..\..\..\..\uC-Probe\Target\Communication\Generic\Source/probe_com.c **** *                         +---------------------------------------------------+       ---
1359:..\..\..\..\..\..\uC-Probe\Target\Communication\Generic\Source/probe_com.c **** *                         |                        Data                       |        |    Item n
1360:..\..\..\..\..\..\uC-Probe\Target\Communication\Generic\Source/probe_com.c **** *                         |                         .                         |        |
1361:..\..\..\..\..\..\uC-Probe\Target\Communication\Generic\Source/probe_com.c **** *                         |                         .                         |        |
1362:..\..\..\..\..\..\uC-Probe\Target\Communication\Generic\Source/probe_com.c **** *                         |                         .                         |        |
1363:..\..\..\..\..\..\uC-Probe\Target\Communication\Generic\Source/probe_com.c **** *                         +---------------------------------------------------+       ---
1364:..\..\..\..\..\..\uC-Probe\Target\Communication\Generic\Source/probe_com.c **** *
1365:..\..\..\..\..\..\uC-Probe\Target\Communication\Generic\Source/probe_com.c **** ***************************************************************************************************
1366:..\..\..\..\..\..\uC-Probe\Target\Communication\Generic\Source/probe_com.c **** */
1367:..\..\..\..\..\..\uC-Probe\Target\Communication\Generic\Source/probe_com.c **** 
1368:..\..\..\..\..\..\uC-Probe\Target\Communication\Generic\Source/probe_com.c **** static  CPU_SIZE_T  ProbeCom_ReqRdMulti (CPU_INT08U  *prx_buf,
1369:..\..\..\..\..\..\uC-Probe\Target\Communication\Generic\Source/probe_com.c ****                                          CPU_INT08U  *ptx_buf,
1370:..\..\..\..\..\..\uC-Probe\Target\Communication\Generic\Source/probe_com.c ****                                          CPU_SIZE_T   rx_pkt_size,
1371:..\..\..\..\..\..\uC-Probe\Target\Communication\Generic\Source/probe_com.c ****                                          CPU_SIZE_T   tx_buf_size)
1372:..\..\..\..\..\..\uC-Probe\Target\Communication\Generic\Source/probe_com.c **** {
 759              		.loc 1 1372 0
 760              		.cfi_startproc
 761              		@ args = 0, pretend = 0, frame = 48
 762              		@ frame_needed = 1, uses_anonymous_args = 0
 763 0000 90B5     		push	{r4, r7, lr}
 764              	.LCFI17:
 765              		.cfi_def_cfa_offset 12
 766 0002 8DB0     		sub	sp, sp, #52
 767              	.LCFI18:
 768              		.cfi_def_cfa_offset 64
 769 0004 00AF     		add	r7, sp, #0
 770              		.cfi_offset 14, -4
 771              		.cfi_offset 7, -8
 772              		.cfi_offset 4, -12
 773              	.LCFI19:
 774              		.cfi_def_cfa_register 7
 775 0006 F860     		str	r0, [r7, #12]
 776 0008 B960     		str	r1, [r7, #8]
 777 000a 7A60     		str	r2, [r7, #4]
 778 000c 3B60     		str	r3, [r7, #0]
1373:..\..\..\..\..\..\uC-Probe\Target\Communication\Generic\Source/probe_com.c ****     CPU_SIZE_T   rx_pkt_ix;
1374:..\..\..\..\..\..\uC-Probe\Target\Communication\Generic\Source/probe_com.c **** #if (PROBE_COM_CFG_STAT_EN == DEF_ENABLED)
1375:..\..\..\..\..\..\uC-Probe\Target\Communication\Generic\Source/probe_com.c ****     CPU_INT32U   sym_byte_ctr;
1376:..\..\..\..\..\..\uC-Probe\Target\Communication\Generic\Source/probe_com.c ****     CPU_INT32U   sym_ctr;
1377:..\..\..\..\..\..\uC-Probe\Target\Communication\Generic\Source/probe_com.c **** #endif
1378:..\..\..\..\..\..\uC-Probe\Target\Communication\Generic\Source/probe_com.c ****     CPU_ADDR     sym_addr;
1379:..\..\..\..\..\..\uC-Probe\Target\Communication\Generic\Source/probe_com.c ****     CPU_SIZE_T   sym_size;
1380:..\..\..\..\..\..\uC-Probe\Target\Communication\Generic\Source/probe_com.c ****     CPU_SIZE_T   tx_len;
1381:..\..\..\..\..\..\uC-Probe\Target\Communication\Generic\Source/probe_com.c ****     CPU_INT08U  *ptx_buf_start;
1382:..\..\..\..\..\..\uC-Probe\Target\Communication\Generic\Source/probe_com.c **** 
1383:..\..\..\..\..\..\uC-Probe\Target\Communication\Generic\Source/probe_com.c **** 
1384:..\..\..\..\..\..\uC-Probe\Target\Communication\Generic\Source/probe_com.c ****                                                                 /* ------------------- CHK PKT SIZE
ARM GAS  C:\Users\daniel01\AppData\Local\Temp\ccHLFCB6.s 			page 39


1385:..\..\..\..\..\..\uC-Probe\Target\Communication\Generic\Source/probe_com.c ****                                                                 /* Expected size >= 2 (= Rx hdr siz
1386:..\..\..\..\..\..\uC-Probe\Target\Communication\Generic\Source/probe_com.c ****                                                                 /*                + 5 (= 1 item des
1387:..\..\..\..\..\..\uC-Probe\Target\Communication\Generic\Source/probe_com.c ****     if (rx_pkt_size  < 7u) {
 779              		.loc 1 1387 0
 780 000e 7B68     		ldr	r3, [r7, #4]
 781 0010 062B     		cmp	r3, #6
 782 0012 08D8     		bhi	.L41
1388:..\..\..\..\..\..\uC-Probe\Target\Communication\Generic\Source/probe_com.c ****         tx_len = ProbeCom_ReqErr(ptx_buf, PROBE_COM_STATUS_RX_PKT_WRONG_SIZE);
 783              		.loc 1 1388 0
 784 0014 B868     		ldr	r0, [r7, #8]
 785 0016 4FF0FE01 		mov	r1, #254
 786 001a FFF7FEFF 		bl	ProbeCom_ReqErr
 787 001e 0346     		mov	r3, r0
 788 0020 BB62     		str	r3, [r7, #40]
1389:..\..\..\..\..\..\uC-Probe\Target\Communication\Generic\Source/probe_com.c ****         return (tx_len);
 789              		.loc 1 1389 0
 790 0022 BB6A     		ldr	r3, [r7, #40]
 791 0024 94E0     		b	.L42
 792              	.L41:
1390:..\..\..\..\..\..\uC-Probe\Target\Communication\Generic\Source/probe_com.c ****     }
1391:..\..\..\..\..\..\uC-Probe\Target\Communication\Generic\Source/probe_com.c **** 
1392:..\..\..\..\..\..\uC-Probe\Target\Communication\Generic\Source/probe_com.c ****                                                                 /* -------------------- HANDLE RD -
1393:..\..\..\..\..\..\uC-Probe\Target\Communication\Generic\Source/probe_com.c ****     ptx_buf_start = ptx_buf;                                    /* Save ptr to tx buf in case pkt i
 793              		.loc 1 1393 0
 794 0026 BB68     		ldr	r3, [r7, #8]
 795 0028 FB62     		str	r3, [r7, #44]
1394:..\..\..\..\..\..\uC-Probe\Target\Communication\Generic\Source/probe_com.c ****     tx_len        = PROBE_COM_SIZE_TX_HDR;                      /* Init tx pkt len = 4 = size of hd
 796              		.loc 1 1394 0
 797 002a 4FF00403 		mov	r3, #4
 798 002e BB62     		str	r3, [r7, #40]
1395:..\..\..\..\..\..\uC-Probe\Target\Communication\Generic\Source/probe_com.c **** 
1396:..\..\..\..\..\..\uC-Probe\Target\Communication\Generic\Source/probe_com.c ****                                                                 /* Store TX pkt hdr :              
1397:..\..\..\..\..\..\uC-Probe\Target\Communication\Generic\Source/probe_com.c ****     ptx_buf[0]    = PROBE_COM_FMT_TX_RD_MULTI_LO;               /* (a) TX pkt fmt.                 
 799              		.loc 1 1397 0
 800 0030 BB68     		ldr	r3, [r7, #8]
 801 0032 4FF00702 		mov	r2, #7
 802 0036 1A70     		strb	r2, [r3, #0]
1398:..\..\..\..\..\..\uC-Probe\Target\Communication\Generic\Source/probe_com.c ****     ptx_buf[1]    = PROBE_COM_FMT_TX_RD_MULTI_HI;
 803              		.loc 1 1398 0
 804 0038 BB68     		ldr	r3, [r7, #8]
 805 003a 03F10103 		add	r3, r3, #1
 806 003e 6FF07F02 		mvn	r2, #127
 807 0042 1A70     		strb	r2, [r3, #0]
1399:..\..\..\..\..\..\uC-Probe\Target\Communication\Generic\Source/probe_com.c ****     ptx_buf[2]    = PROBE_COM_STATUS_OK;                        /* (b) Target status.              
 808              		.loc 1 1399 0
 809 0044 BB68     		ldr	r3, [r7, #8]
 810 0046 03F10203 		add	r3, r3, #2
 811 004a 4FF00102 		mov	r2, #1
 812 004e 1A70     		strb	r2, [r3, #0]
1400:..\..\..\..\..\..\uC-Probe\Target\Communication\Generic\Source/probe_com.c ****     ptx_buf[3]    = ProbeCom_PktModifier();                     /* (c) Modifier.                   
 813              		.loc 1 1400 0
 814 0050 BB68     		ldr	r3, [r7, #8]
 815 0052 03F10304 		add	r4, r3, #3
 816 0056 FFF7FEFF 		bl	ProbeCom_PktModifier
 817 005a 0346     		mov	r3, r0
 818 005c 2370     		strb	r3, [r4, #0]
1401:..\..\..\..\..\..\uC-Probe\Target\Communication\Generic\Source/probe_com.c ****     ptx_buf      += PROBE_COM_SIZE_TX_HDR;
ARM GAS  C:\Users\daniel01\AppData\Local\Temp\ccHLFCB6.s 			page 40


 819              		.loc 1 1401 0
 820 005e BB68     		ldr	r3, [r7, #8]
 821 0060 03F10403 		add	r3, r3, #4
 822 0064 BB60     		str	r3, [r7, #8]
1402:..\..\..\..\..\..\uC-Probe\Target\Communication\Generic\Source/probe_com.c **** 
1403:..\..\..\..\..\..\uC-Probe\Target\Communication\Generic\Source/probe_com.c ****     rx_pkt_ix     = 7u;                                         /* Tx pkt ix after 1st item = 2 (= 
 823              		.loc 1 1403 0
 824 0066 4FF00703 		mov	r3, #7
 825 006a 7B61     		str	r3, [r7, #20]
1404:..\..\..\..\..\..\uC-Probe\Target\Communication\Generic\Source/probe_com.c ****                                                                 /*                          + 5 (= 
1405:..\..\..\..\..\..\uC-Probe\Target\Communication\Generic\Source/probe_com.c **** 
1406:..\..\..\..\..\..\uC-Probe\Target\Communication\Generic\Source/probe_com.c **** #if (PROBE_COM_CFG_STAT_EN == DEF_ENABLED)
1407:..\..\..\..\..\..\uC-Probe\Target\Communication\Generic\Source/probe_com.c ****     sym_ctr      = 0;
 826              		.loc 1 1407 0
 827 006c 4FF00003 		mov	r3, #0
 828 0070 FB61     		str	r3, [r7, #28]
1408:..\..\..\..\..\..\uC-Probe\Target\Communication\Generic\Source/probe_com.c ****     sym_byte_ctr = 0;
 829              		.loc 1 1408 0
 830 0072 4FF00003 		mov	r3, #0
 831 0076 BB61     		str	r3, [r7, #24]
1409:..\..\..\..\..\..\uC-Probe\Target\Communication\Generic\Source/probe_com.c **** #endif
1410:..\..\..\..\..\..\uC-Probe\Target\Communication\Generic\Source/probe_com.c ****                                                                 /* Sto data for each item.         
1411:..\..\..\..\..\..\uC-Probe\Target\Communication\Generic\Source/probe_com.c ****     while (rx_pkt_ix <= rx_pkt_size) {
 832              		.loc 1 1411 0
 833 0078 4DE0     		b	.L43
 834              	.L45:
1412:..\..\..\..\..\..\uC-Probe\Target\Communication\Generic\Source/probe_com.c ****         sym_size   =  prx_buf[0];                               /* (a) Get nbr of bytes to rd.     
 835              		.loc 1 1412 0
 836 007a FB68     		ldr	r3, [r7, #12]
 837 007c 1B78     		ldrb	r3, [r3, #0]	@ zero_extendqisi2
 838 007e 7B62     		str	r3, [r7, #36]
1413:..\..\..\..\..\..\uC-Probe\Target\Communication\Generic\Source/probe_com.c **** 
1414:..\..\..\..\..\..\uC-Probe\Target\Communication\Generic\Source/probe_com.c ****                                                                 /* (b) Get rd addr.                
1415:..\..\..\..\..\..\uC-Probe\Target\Communication\Generic\Source/probe_com.c **** #if ((!defined(CPU_CFG_ADDR_SIZE)) || \
1416:..\..\..\..\..\..\uC-Probe\Target\Communication\Generic\Source/probe_com.c ****      ((defined(CPU_CFG_ADDR_SIZE)) && \
1417:..\..\..\..\..\..\uC-Probe\Target\Communication\Generic\Source/probe_com.c ****               (CPU_CFG_ADDR_SIZE   != CPU_WORD_SIZE_16)))
1418:..\..\..\..\..\..\uC-Probe\Target\Communication\Generic\Source/probe_com.c ****         sym_addr   = ((CPU_ADDR)prx_buf[4] << 8) + prx_buf[3];
 839              		.loc 1 1418 0
 840 0080 FB68     		ldr	r3, [r7, #12]
 841 0082 03F10403 		add	r3, r3, #4
 842 0086 1B78     		ldrb	r3, [r3, #0]	@ zero_extendqisi2
 843 0088 4FEA0322 		lsl	r2, r3, #8
 844 008c FB68     		ldr	r3, [r7, #12]
 845 008e 03F10303 		add	r3, r3, #3
 846 0092 1B78     		ldrb	r3, [r3, #0]	@ zero_extendqisi2
 847 0094 1344     		add	r3, r2, r3
 848 0096 3B62     		str	r3, [r7, #32]
1419:..\..\..\..\..\..\uC-Probe\Target\Communication\Generic\Source/probe_com.c ****         sym_addr   = ((CPU_ADDR)sym_addr   << 8) + prx_buf[2];
 849              		.loc 1 1419 0
 850 0098 3B6A     		ldr	r3, [r7, #32]
 851 009a 4FEA0322 		lsl	r2, r3, #8
 852 009e FB68     		ldr	r3, [r7, #12]
 853 00a0 03F10203 		add	r3, r3, #2
 854 00a4 1B78     		ldrb	r3, [r3, #0]	@ zero_extendqisi2
 855 00a6 1344     		add	r3, r2, r3
 856 00a8 3B62     		str	r3, [r7, #32]
1420:..\..\..\..\..\..\uC-Probe\Target\Communication\Generic\Source/probe_com.c ****         sym_addr   = ((CPU_ADDR)sym_addr   << 8) + prx_buf[1];
ARM GAS  C:\Users\daniel01\AppData\Local\Temp\ccHLFCB6.s 			page 41


 857              		.loc 1 1420 0
 858 00aa 3B6A     		ldr	r3, [r7, #32]
 859 00ac 4FEA0322 		lsl	r2, r3, #8
 860 00b0 FB68     		ldr	r3, [r7, #12]
 861 00b2 03F10103 		add	r3, r3, #1
 862 00b6 1B78     		ldrb	r3, [r3, #0]	@ zero_extendqisi2
 863 00b8 1344     		add	r3, r2, r3
 864 00ba 3B62     		str	r3, [r7, #32]
1421:..\..\..\..\..\..\uC-Probe\Target\Communication\Generic\Source/probe_com.c **** #else
1422:..\..\..\..\..\..\uC-Probe\Target\Communication\Generic\Source/probe_com.c ****         sym_addr   = ((CPU_ADDR)prx_buf[2] << 8) + prx_buf[1];
1423:..\..\..\..\..\..\uC-Probe\Target\Communication\Generic\Source/probe_com.c **** #endif
1424:..\..\..\..\..\..\uC-Probe\Target\Communication\Generic\Source/probe_com.c **** 
1425:..\..\..\..\..\..\uC-Probe\Target\Communication\Generic\Source/probe_com.c ****         prx_buf   += 5u;
 865              		.loc 1 1425 0
 866 00bc FB68     		ldr	r3, [r7, #12]
 867 00be 03F10503 		add	r3, r3, #5
 868 00c2 FB60     		str	r3, [r7, #12]
1426:..\..\..\..\..\..\uC-Probe\Target\Communication\Generic\Source/probe_com.c ****         rx_pkt_ix += 5u;
 869              		.loc 1 1426 0
 870 00c4 7B69     		ldr	r3, [r7, #20]
 871 00c6 03F10503 		add	r3, r3, #5
 872 00ca 7B61     		str	r3, [r7, #20]
1427:..\..\..\..\..\..\uC-Probe\Target\Communication\Generic\Source/probe_com.c **** 
1428:..\..\..\..\..\..\uC-Probe\Target\Communication\Generic\Source/probe_com.c ****         tx_len    += sym_size;                                  /* (c) Add nbr of bytes to pkt len.
 873              		.loc 1 1428 0
 874 00cc BA6A     		ldr	r2, [r7, #40]
 875 00ce 7B6A     		ldr	r3, [r7, #36]
 876 00d0 1344     		add	r3, r2, r3
 877 00d2 BB62     		str	r3, [r7, #40]
1429:..\..\..\..\..\..\uC-Probe\Target\Communication\Generic\Source/probe_com.c **** 
1430:..\..\..\..\..\..\uC-Probe\Target\Communication\Generic\Source/probe_com.c ****         if (tx_len > tx_buf_size) {                             /* (d) Will pkt be too long for TX 
 878              		.loc 1 1430 0
 879 00d4 BA6A     		ldr	r2, [r7, #40]
 880 00d6 3B68     		ldr	r3, [r7, #0]
 881 00d8 9A42     		cmp	r2, r3
 882 00da 0AD9     		bls	.L44
1431:..\..\..\..\..\..\uC-Probe\Target\Communication\Generic\Source/probe_com.c ****             ptx_buf = ptx_buf_start;                            /*     ... rtn err.                
 883              		.loc 1 1431 0
 884 00dc FB6A     		ldr	r3, [r7, #44]
 885 00de BB60     		str	r3, [r7, #8]
1432:..\..\..\..\..\..\uC-Probe\Target\Communication\Generic\Source/probe_com.c ****             tx_len  = ProbeCom_ReqErr(ptx_buf, PROBE_COM_STATUS_TX_PKT_TOO_LARGE);
 886              		.loc 1 1432 0
 887 00e0 B868     		ldr	r0, [r7, #8]
 888 00e2 4FF0FD01 		mov	r1, #253
 889 00e6 FFF7FEFF 		bl	ProbeCom_ReqErr
 890 00ea 0346     		mov	r3, r0
 891 00ec BB62     		str	r3, [r7, #40]
1433:..\..\..\..\..\..\uC-Probe\Target\Communication\Generic\Source/probe_com.c ****             return (tx_len);
 892              		.loc 1 1433 0
 893 00ee BB6A     		ldr	r3, [r7, #40]
 894 00f0 2EE0     		b	.L42
 895              	.L44:
1434:..\..\..\..\..\..\uC-Probe\Target\Communication\Generic\Source/probe_com.c ****         }
1435:..\..\..\..\..\..\uC-Probe\Target\Communication\Generic\Source/probe_com.c **** 
1436:..\..\..\..\..\..\uC-Probe\Target\Communication\Generic\Source/probe_com.c **** #if (PROBE_COM_CFG_STAT_EN == DEF_ENABLED)
1437:..\..\..\..\..\..\uC-Probe\Target\Communication\Generic\Source/probe_com.c ****         sym_ctr++;                                              /* (e) Inc local sym ctr.          
 896              		.loc 1 1437 0
ARM GAS  C:\Users\daniel01\AppData\Local\Temp\ccHLFCB6.s 			page 42


 897 00f2 FB69     		ldr	r3, [r7, #28]
 898 00f4 03F10103 		add	r3, r3, #1
 899 00f8 FB61     		str	r3, [r7, #28]
1438:..\..\..\..\..\..\uC-Probe\Target\Communication\Generic\Source/probe_com.c ****         sym_byte_ctr += sym_size;
 900              		.loc 1 1438 0
 901 00fa BA69     		ldr	r2, [r7, #24]
 902 00fc 7B6A     		ldr	r3, [r7, #36]
 903 00fe 1344     		add	r3, r2, r3
 904 0100 BB61     		str	r3, [r7, #24]
1439:..\..\..\..\..\..\uC-Probe\Target\Communication\Generic\Source/probe_com.c **** #endif
1440:..\..\..\..\..\..\uC-Probe\Target\Communication\Generic\Source/probe_com.c ****                                                                 /* (f) Otherwise, save TX data.    
1441:..\..\..\..\..\..\uC-Probe\Target\Communication\Generic\Source/probe_com.c ****         Mem_Copy((void     *)ptx_buf,
 905              		.loc 1 1441 0
 906 0102 3B6A     		ldr	r3, [r7, #32]
 907 0104 B868     		ldr	r0, [r7, #8]
 908 0106 1946     		mov	r1, r3
 909 0108 7A6A     		ldr	r2, [r7, #36]
 910 010a FFF7FEFF 		bl	Mem_Copy
1442:..\..\..\..\..\..\uC-Probe\Target\Communication\Generic\Source/probe_com.c ****                  (void     *)sym_addr,
1443:..\..\..\..\..\..\uC-Probe\Target\Communication\Generic\Source/probe_com.c ****                  (CPU_SIZE_T)sym_size);
1444:..\..\..\..\..\..\uC-Probe\Target\Communication\Generic\Source/probe_com.c **** 
1445:..\..\..\..\..\..\uC-Probe\Target\Communication\Generic\Source/probe_com.c ****         ptx_buf += sym_size;
 911              		.loc 1 1445 0
 912 010e BA68     		ldr	r2, [r7, #8]
 913 0110 7B6A     		ldr	r3, [r7, #36]
 914 0112 1344     		add	r3, r2, r3
 915 0114 BB60     		str	r3, [r7, #8]
 916              	.L43:
 917              		.loc 1 1411 0
 918 0116 7A69     		ldr	r2, [r7, #20]
 919 0118 7B68     		ldr	r3, [r7, #4]
 920 011a 9A42     		cmp	r2, r3
 921 011c ADD9     		bls	.L45
1446:..\..\..\..\..\..\uC-Probe\Target\Communication\Generic\Source/probe_com.c ****     }
1447:..\..\..\..\..\..\uC-Probe\Target\Communication\Generic\Source/probe_com.c **** 
1448:..\..\..\..\..\..\uC-Probe\Target\Communication\Generic\Source/probe_com.c **** #if (PROBE_COM_CFG_STAT_EN == DEF_ENABLED)
1449:..\..\..\..\..\..\uC-Probe\Target\Communication\Generic\Source/probe_com.c ****     ProbeCom_TxSymCtr     += sym_ctr;                           /* Inc global sym ctr.             
 922              		.loc 1 1449 0
 923 011e 40F20003 		movw	r3, #:lower16:ProbeCom_TxSymCtr
 924 0122 C0F20003 		movt	r3, #:upper16:ProbeCom_TxSymCtr
 925 0126 1A68     		ldr	r2, [r3, #0]
 926 0128 FB69     		ldr	r3, [r7, #28]
 927 012a 1A44     		add	r2, r2, r3
 928 012c 40F20003 		movw	r3, #:lower16:ProbeCom_TxSymCtr
 929 0130 C0F20003 		movt	r3, #:upper16:ProbeCom_TxSymCtr
 930 0134 1A60     		str	r2, [r3, #0]
1450:..\..\..\..\..\..\uC-Probe\Target\Communication\Generic\Source/probe_com.c ****     ProbeCom_TxSymByteCtr += sym_byte_ctr;
 931              		.loc 1 1450 0
 932 0136 40F20003 		movw	r3, #:lower16:ProbeCom_TxSymByteCtr
 933 013a C0F20003 		movt	r3, #:upper16:ProbeCom_TxSymByteCtr
 934 013e 1A68     		ldr	r2, [r3, #0]
 935 0140 BB69     		ldr	r3, [r7, #24]
 936 0142 1A44     		add	r2, r2, r3
 937 0144 40F20003 		movw	r3, #:lower16:ProbeCom_TxSymByteCtr
 938 0148 C0F20003 		movt	r3, #:upper16:ProbeCom_TxSymByteCtr
 939 014c 1A60     		str	r2, [r3, #0]
1451:..\..\..\..\..\..\uC-Probe\Target\Communication\Generic\Source/probe_com.c **** #endif
ARM GAS  C:\Users\daniel01\AppData\Local\Temp\ccHLFCB6.s 			page 43


1452:..\..\..\..\..\..\uC-Probe\Target\Communication\Generic\Source/probe_com.c **** 
1453:..\..\..\..\..\..\uC-Probe\Target\Communication\Generic\Source/probe_com.c ****                                                                 /* ------------------ RTN TX PKT SI
1454:..\..\..\..\..\..\uC-Probe\Target\Communication\Generic\Source/probe_com.c ****     return (tx_len);
 940              		.loc 1 1454 0
 941 014e BB6A     		ldr	r3, [r7, #40]
 942              	.L42:
1455:..\..\..\..\..\..\uC-Probe\Target\Communication\Generic\Source/probe_com.c **** }
 943              		.loc 1 1455 0
 944 0150 1846     		mov	r0, r3
 945 0152 07F13407 		add	r7, r7, #52
 946 0156 BD46     		mov	sp, r7
 947 0158 90BD     		pop	{r4, r7, pc}
 948              		.cfi_endproc
 949              	.LFE6:
 950              		.size	ProbeCom_ReqRdMulti, .-ProbeCom_ReqRdMulti
 951 015a 00BF     		.section	.text.ProbeCom_ReqWr,"ax",%progbits
 952              		.align	2
 953              		.thumb
 954              		.thumb_func
 955              		.type	ProbeCom_ReqWr, %function
 956              	ProbeCom_ReqWr:
 957              	.LFB7:
1456:..\..\..\..\..\..\uC-Probe\Target\Communication\Generic\Source/probe_com.c **** 
1457:..\..\..\..\..\..\uC-Probe\Target\Communication\Generic\Source/probe_com.c **** 
1458:..\..\..\..\..\..\uC-Probe\Target\Communication\Generic\Source/probe_com.c **** /*
1459:..\..\..\..\..\..\uC-Probe\Target\Communication\Generic\Source/probe_com.c **** ***************************************************************************************************
1460:..\..\..\..\..\..\uC-Probe\Target\Communication\Generic\Source/probe_com.c **** *                                          ProbeCom_ReqWr()
1461:..\..\..\..\..\..\uC-Probe\Target\Communication\Generic\Source/probe_com.c **** *
1462:..\..\..\..\..\..\uC-Probe\Target\Communication\Generic\Source/probe_com.c **** * Description : Parse the FMT_WR request & formulate response.  This command causes the target to w
1463:..\..\..\..\..\..\uC-Probe\Target\Communication\Generic\Source/probe_com.c **** *               into its memory data from a certain {memory address, data length, data} triplet whi
1464:..\..\..\..\..\..\uC-Probe\Target\Communication\Generic\Source/probe_com.c **** *               given in the request.
1465:..\..\..\..\..\..\uC-Probe\Target\Communication\Generic\Source/probe_com.c **** *
1466:..\..\..\..\..\..\uC-Probe\Target\Communication\Generic\Source/probe_com.c **** * Argument(s) : prx_buf         Pointer to the receive  buffer
1467:..\..\..\..\..\..\uC-Probe\Target\Communication\Generic\Source/probe_com.c **** *
1468:..\..\..\..\..\..\uC-Probe\Target\Communication\Generic\Source/probe_com.c **** *               ptx_buf         Pointer to the transmit buffer
1469:..\..\..\..\..\..\uC-Probe\Target\Communication\Generic\Source/probe_com.c **** *
1470:..\..\..\..\..\..\uC-Probe\Target\Communication\Generic\Source/probe_com.c **** *               rx_pkt_size     Size of the receive  packet
1471:..\..\..\..\..\..\uC-Probe\Target\Communication\Generic\Source/probe_com.c **** *
1472:..\..\..\..\..\..\uC-Probe\Target\Communication\Generic\Source/probe_com.c **** *               tx_buf_size     Size of the transmit buffer
1473:..\..\..\..\..\..\uC-Probe\Target\Communication\Generic\Source/probe_com.c **** *
1474:..\..\..\..\..\..\uC-Probe\Target\Communication\Generic\Source/probe_com.c **** * Return(s)   : The number of bytes written to the tx buffer.
1475:..\..\..\..\..\..\uC-Probe\Target\Communication\Generic\Source/probe_com.c **** *
1476:..\..\..\..\..\..\uC-Probe\Target\Communication\Generic\Source/probe_com.c **** * Caller(s)   : ProbeCom_ParseRxPkt().
1477:..\..\..\..\..\..\uC-Probe\Target\Communication\Generic\Source/probe_com.c **** *
1478:..\..\..\..\..\..\uC-Probe\Target\Communication\Generic\Source/probe_com.c **** * Note(s)     : (1) The RX format:
1479:..\..\..\..\..\..\uC-Probe\Target\Communication\Generic\Source/probe_com.c **** *
1480:..\..\..\..\..\..\uC-Probe\Target\Communication\Generic\Source/probe_com.c **** *                   (A) A 2-byte format,  indicating the data segment format;
1481:..\..\..\..\..\..\uC-Probe\Target\Communication\Generic\Source/probe_com.c **** *                   (B) A 2-byte length,  indicating the number of bytes to write;
1482:..\..\..\..\..\..\uC-Probe\Target\Communication\Generic\Source/probe_com.c **** *                   (C) A 4-byte address, the starting address at which the data should be written;
1483:..\..\..\..\..\..\uC-Probe\Target\Communication\Generic\Source/probe_com.c **** *                   (D) The memory data.
1484:..\..\..\..\..\..\uC-Probe\Target\Communication\Generic\Source/probe_com.c **** *
1485:..\..\..\..\..\..\uC-Probe\Target\Communication\Generic\Source/probe_com.c **** *                         +-------------------------+-------------------------+
1486:..\..\..\..\..\..\uC-Probe\Target\Communication\Generic\Source/probe_com.c **** *                         |          Format         |      Number of bytes    |
1487:..\..\..\..\..\..\uC-Probe\Target\Communication\Generic\Source/probe_com.c **** *                         +-------------------------+-------------------------+
1488:..\..\..\..\..\..\uC-Probe\Target\Communication\Generic\Source/probe_com.c **** *                         |                      Address                      |
1489:..\..\..\..\..\..\uC-Probe\Target\Communication\Generic\Source/probe_com.c **** *                         +---------------------------------------------------+
1490:..\..\..\..\..\..\uC-Probe\Target\Communication\Generic\Source/probe_com.c **** *                         |                        Data                       |
ARM GAS  C:\Users\daniel01\AppData\Local\Temp\ccHLFCB6.s 			page 44


1491:..\..\..\..\..\..\uC-Probe\Target\Communication\Generic\Source/probe_com.c **** *                         |                         .                         |
1492:..\..\..\..\..\..\uC-Probe\Target\Communication\Generic\Source/probe_com.c **** *                         |                         .                         |
1493:..\..\..\..\..\..\uC-Probe\Target\Communication\Generic\Source/probe_com.c **** *                         |                         .                         |
1494:..\..\..\..\..\..\uC-Probe\Target\Communication\Generic\Source/probe_com.c **** *                         +---------------------------------------------------+
1495:..\..\..\..\..\..\uC-Probe\Target\Communication\Generic\Source/probe_com.c **** *
1496:..\..\..\..\..\..\uC-Probe\Target\Communication\Generic\Source/probe_com.c **** *               (2) The TX format:
1497:..\..\..\..\..\..\uC-Probe\Target\Communication\Generic\Source/probe_com.c **** *
1498:..\..\..\..\..\..\uC-Probe\Target\Communication\Generic\Source/probe_com.c **** *                   (A) A 2-byte format, indicating the data segment format;
1499:..\..\..\..\..\..\uC-Probe\Target\Communication\Generic\Source/probe_com.c **** *                   (B) A 1-byte status, indicating the status after the request;
1500:..\..\..\..\..\..\uC-Probe\Target\Communication\Generic\Source/probe_com.c **** *                   (C) A 1-byte modifier.
1501:..\..\..\..\..\..\uC-Probe\Target\Communication\Generic\Source/probe_com.c **** *
1502:..\..\..\..\..\..\uC-Probe\Target\Communication\Generic\Source/probe_com.c **** *                         +-------------------------+------------+------------+
1503:..\..\..\..\..\..\uC-Probe\Target\Communication\Generic\Source/probe_com.c **** *                         |          Format         |   Status   |  Modifier  |
1504:..\..\..\..\..\..\uC-Probe\Target\Communication\Generic\Source/probe_com.c **** *                         +-------------------------+------------+------------+
1505:..\..\..\..\..\..\uC-Probe\Target\Communication\Generic\Source/probe_com.c **** *
1506:..\..\..\..\..\..\uC-Probe\Target\Communication\Generic\Source/probe_com.c **** ***************************************************************************************************
1507:..\..\..\..\..\..\uC-Probe\Target\Communication\Generic\Source/probe_com.c **** */
1508:..\..\..\..\..\..\uC-Probe\Target\Communication\Generic\Source/probe_com.c **** 
1509:..\..\..\..\..\..\uC-Probe\Target\Communication\Generic\Source/probe_com.c **** #if (PROBE_COM_CFG_WR_REQ_EN == DEF_ENABLED)
1510:..\..\..\..\..\..\uC-Probe\Target\Communication\Generic\Source/probe_com.c **** static  CPU_SIZE_T  ProbeCom_ReqWr (CPU_INT08U  *prx_buf,
1511:..\..\..\..\..\..\uC-Probe\Target\Communication\Generic\Source/probe_com.c ****                                     CPU_INT08U  *ptx_buf,
1512:..\..\..\..\..\..\uC-Probe\Target\Communication\Generic\Source/probe_com.c ****                                     CPU_SIZE_T   rx_pkt_size,
1513:..\..\..\..\..\..\uC-Probe\Target\Communication\Generic\Source/probe_com.c ****                                     CPU_SIZE_T   tx_buf_size)
1514:..\..\..\..\..\..\uC-Probe\Target\Communication\Generic\Source/probe_com.c **** {
 958              		.loc 1 1514 0
 959              		.cfi_startproc
 960              		@ args = 0, pretend = 0, frame = 32
 961              		@ frame_needed = 1, uses_anonymous_args = 0
 962 0000 80B5     		push	{r7, lr}
 963              	.LCFI20:
 964              		.cfi_def_cfa_offset 8
 965 0002 88B0     		sub	sp, sp, #32
 966              	.LCFI21:
 967              		.cfi_def_cfa_offset 40
 968 0004 00AF     		add	r7, sp, #0
 969              		.cfi_offset 14, -4
 970              		.cfi_offset 7, -8
 971              	.LCFI22:
 972              		.cfi_def_cfa_register 7
 973 0006 F860     		str	r0, [r7, #12]
 974 0008 B960     		str	r1, [r7, #8]
 975 000a 7A60     		str	r2, [r7, #4]
 976 000c 3B60     		str	r3, [r7, #0]
1515:..\..\..\..\..\..\uC-Probe\Target\Communication\Generic\Source/probe_com.c ****     CPU_SIZE_T  sym_size;
1516:..\..\..\..\..\..\uC-Probe\Target\Communication\Generic\Source/probe_com.c ****     CPU_ADDR    sym_addr;
1517:..\..\..\..\..\..\uC-Probe\Target\Communication\Generic\Source/probe_com.c ****     CPU_SIZE_T  tx_len;
1518:..\..\..\..\..\..\uC-Probe\Target\Communication\Generic\Source/probe_com.c ****     CPU_SR_ALLOC();
 977              		.loc 1 1518 0
 978 000e 4FF00003 		mov	r3, #0
 979 0012 FB61     		str	r3, [r7, #28]
1519:..\..\..\..\..\..\uC-Probe\Target\Communication\Generic\Source/probe_com.c **** 
1520:..\..\..\..\..\..\uC-Probe\Target\Communication\Generic\Source/probe_com.c **** 
1521:..\..\..\..\..\..\uC-Probe\Target\Communication\Generic\Source/probe_com.c ****    (void)&tx_buf_size;                                          /* Prevent compiler warning.       
1522:..\..\..\..\..\..\uC-Probe\Target\Communication\Generic\Source/probe_com.c **** 
1523:..\..\..\..\..\..\uC-Probe\Target\Communication\Generic\Source/probe_com.c **** 
1524:..\..\..\..\..\..\uC-Probe\Target\Communication\Generic\Source/probe_com.c ****                                                                 /* ------------------- CHK PKT SIZE
1525:..\..\..\..\..\..\uC-Probe\Target\Communication\Generic\Source/probe_com.c ****                                                                 /* Expected size >= 2      (= Rx hd
ARM GAS  C:\Users\daniel01\AppData\Local\Temp\ccHLFCB6.s 			page 45


1526:..\..\..\..\..\..\uC-Probe\Target\Communication\Generic\Source/probe_com.c ****                                                                 /*                + 2      (= Sym s
1527:..\..\..\..\..\..\uC-Probe\Target\Communication\Generic\Source/probe_com.c ****                                                                 /*                + 4      (= Sym a
1528:..\..\..\..\..\..\uC-Probe\Target\Communication\Generic\Source/probe_com.c ****                                                                 /*                + nbytes (= Data 
1529:..\..\..\..\..\..\uC-Probe\Target\Communication\Generic\Source/probe_com.c ****     if (rx_pkt_size < 8u) {
 980              		.loc 1 1529 0
 981 0014 7B68     		ldr	r3, [r7, #4]
 982 0016 072B     		cmp	r3, #7
 983 0018 09D8     		bhi	.L48
1530:..\..\..\..\..\..\uC-Probe\Target\Communication\Generic\Source/probe_com.c ****         tx_len = ProbeCom_ReqErr(ptx_buf, PROBE_COM_STATUS_RX_PKT_WRONG_SIZE);
 984              		.loc 1 1530 0
 985 001a BB68     		ldr	r3, [r7, #8]
 986 001c 1846     		mov	r0, r3
 987 001e 4FF0FE01 		mov	r1, #254
 988 0022 FFF7FEFF 		bl	ProbeCom_ReqErr
 989 0026 0346     		mov	r3, r0
 990 0028 BB61     		str	r3, [r7, #24]
1531:..\..\..\..\..\..\uC-Probe\Target\Communication\Generic\Source/probe_com.c ****         return (tx_len);
 991              		.loc 1 1531 0
 992 002a BB69     		ldr	r3, [r7, #24]
 993 002c 5EE0     		b	.L49
 994              	.L48:
1532:..\..\..\..\..\..\uC-Probe\Target\Communication\Generic\Source/probe_com.c ****     }
1533:..\..\..\..\..\..\uC-Probe\Target\Communication\Generic\Source/probe_com.c **** 
1534:..\..\..\..\..\..\uC-Probe\Target\Communication\Generic\Source/probe_com.c **** 
1535:..\..\..\..\..\..\uC-Probe\Target\Communication\Generic\Source/probe_com.c **** 
1536:..\..\..\..\..\..\uC-Probe\Target\Communication\Generic\Source/probe_com.c ****                                                                 /* -------------------- HANDLE WR -
1537:..\..\..\..\..\..\uC-Probe\Target\Communication\Generic\Source/probe_com.c ****     sym_size = ProbeCom_GetINT16U(&prx_buf);                    /* Get nbr of bytes to wr.         
 995              		.loc 1 1537 0
 996 002e 07F10C03 		add	r3, r7, #12
 997 0032 1846     		mov	r0, r3
 998 0034 FFF7FEFF 		bl	ProbeCom_GetINT16U
 999 0038 0346     		mov	r3, r0
 1000 003a 3B61     		str	r3, [r7, #16]
1538:..\..\..\..\..\..\uC-Probe\Target\Communication\Generic\Source/probe_com.c **** 
1539:..\..\..\..\..\..\uC-Probe\Target\Communication\Generic\Source/probe_com.c ****                                                                 /* Get wr addr.                    
1540:..\..\..\..\..\..\uC-Probe\Target\Communication\Generic\Source/probe_com.c **** #if ((!defined(CPU_CFG_ADDR_SIZE)) || \
1541:..\..\..\..\..\..\uC-Probe\Target\Communication\Generic\Source/probe_com.c ****      ((defined(CPU_CFG_ADDR_SIZE)) && \
1542:..\..\..\..\..\..\uC-Probe\Target\Communication\Generic\Source/probe_com.c ****               (CPU_CFG_ADDR_SIZE   != CPU_WORD_SIZE_16)))
1543:..\..\..\..\..\..\uC-Probe\Target\Communication\Generic\Source/probe_com.c ****     sym_addr = (CPU_ADDR)ProbeCom_GetINT32U(&prx_buf);
 1001              		.loc 1 1543 0
 1002 003c 07F10C03 		add	r3, r7, #12
 1003 0040 1846     		mov	r0, r3
 1004 0042 FFF7FEFF 		bl	ProbeCom_GetINT32U
 1005 0046 0346     		mov	r3, r0
 1006 0048 7B61     		str	r3, [r7, #20]
1544:..\..\..\..\..\..\uC-Probe\Target\Communication\Generic\Source/probe_com.c **** #else
1545:..\..\..\..\..\..\uC-Probe\Target\Communication\Generic\Source/probe_com.c ****     sym_addr = (CPU_ADDR)ProbeCom_GetINT16U(&prx_buf);
1546:..\..\..\..\..\..\uC-Probe\Target\Communication\Generic\Source/probe_com.c ****     prx_buf += 2;
1547:..\..\..\..\..\..\uC-Probe\Target\Communication\Generic\Source/probe_com.c **** #endif
1548:..\..\..\..\..\..\uC-Probe\Target\Communication\Generic\Source/probe_com.c **** 
1549:..\..\..\..\..\..\uC-Probe\Target\Communication\Generic\Source/probe_com.c ****     if (rx_pkt_size != (8 + sym_size)) {                        /* If rx data segment is NOT expect
 1007              		.loc 1 1549 0
 1008 004a 3B69     		ldr	r3, [r7, #16]
 1009 004c 03F10802 		add	r2, r3, #8
 1010 0050 7B68     		ldr	r3, [r7, #4]
 1011 0052 9A42     		cmp	r2, r3
 1012 0054 09D0     		beq	.L50
ARM GAS  C:\Users\daniel01\AppData\Local\Temp\ccHLFCB6.s 			page 46


1550:..\..\..\..\..\..\uC-Probe\Target\Communication\Generic\Source/probe_com.c ****         tx_len = ProbeCom_ReqErr(ptx_buf, PROBE_COM_STATUS_RX_PKT_WRONG_SIZE);
 1013              		.loc 1 1550 0
 1014 0056 BB68     		ldr	r3, [r7, #8]
 1015 0058 1846     		mov	r0, r3
 1016 005a 4FF0FE01 		mov	r1, #254
 1017 005e FFF7FEFF 		bl	ProbeCom_ReqErr
 1018 0062 0346     		mov	r3, r0
 1019 0064 BB61     		str	r3, [r7, #24]
1551:..\..\..\..\..\..\uC-Probe\Target\Communication\Generic\Source/probe_com.c ****         return (tx_len);
 1020              		.loc 1 1551 0
 1021 0066 BB69     		ldr	r3, [r7, #24]
 1022 0068 40E0     		b	.L49
 1023              	.L50:
1552:..\..\..\..\..\..\uC-Probe\Target\Communication\Generic\Source/probe_com.c ****     }
1553:..\..\..\..\..\..\uC-Probe\Target\Communication\Generic\Source/probe_com.c **** 
1554:..\..\..\..\..\..\uC-Probe\Target\Communication\Generic\Source/probe_com.c ****                                                                 /* Copy data into mem.             
1555:..\..\..\..\..\..\uC-Probe\Target\Communication\Generic\Source/probe_com.c ****     CPU_CRITICAL_ENTER();
 1024              		.loc 1 1555 0
 1025 006a FFF7FEFF 		bl	CPU_SR_Save
 1026 006e 0346     		mov	r3, r0
 1027 0070 FB61     		str	r3, [r7, #28]
1556:..\..\..\..\..\..\uC-Probe\Target\Communication\Generic\Source/probe_com.c ****     Mem_Copy((void     *)sym_addr,
 1028              		.loc 1 1556 0
 1029 0072 7A69     		ldr	r2, [r7, #20]
 1030 0074 FB68     		ldr	r3, [r7, #12]
 1031 0076 1046     		mov	r0, r2
 1032 0078 1946     		mov	r1, r3
 1033 007a 3A69     		ldr	r2, [r7, #16]
 1034 007c FFF7FEFF 		bl	Mem_Copy
1557:..\..\..\..\..\..\uC-Probe\Target\Communication\Generic\Source/probe_com.c ****              (void     *)prx_buf,
1558:..\..\..\..\..\..\uC-Probe\Target\Communication\Generic\Source/probe_com.c ****              (CPU_SIZE_T)sym_size);
1559:..\..\..\..\..\..\uC-Probe\Target\Communication\Generic\Source/probe_com.c ****     CPU_CRITICAL_EXIT();
 1035              		.loc 1 1559 0
 1036 0080 F869     		ldr	r0, [r7, #28]
 1037 0082 FFF7FEFF 		bl	CPU_SR_Restore
1560:..\..\..\..\..\..\uC-Probe\Target\Communication\Generic\Source/probe_com.c **** 
1561:..\..\..\..\..\..\uC-Probe\Target\Communication\Generic\Source/probe_com.c **** #if (PROBE_COM_CFG_STAT_EN == DEF_ENABLED)
1562:..\..\..\..\..\..\uC-Probe\Target\Communication\Generic\Source/probe_com.c ****     ProbeCom_RxSymCtr++;                                        /* Inc global sym ctr.             
 1038              		.loc 1 1562 0
 1039 0086 40F20003 		movw	r3, #:lower16:ProbeCom_RxSymCtr
 1040 008a C0F20003 		movt	r3, #:upper16:ProbeCom_RxSymCtr
 1041 008e 1B68     		ldr	r3, [r3, #0]
 1042 0090 03F10102 		add	r2, r3, #1
 1043 0094 40F20003 		movw	r3, #:lower16:ProbeCom_RxSymCtr
 1044 0098 C0F20003 		movt	r3, #:upper16:ProbeCom_RxSymCtr
 1045 009c 1A60     		str	r2, [r3, #0]
1563:..\..\..\..\..\..\uC-Probe\Target\Communication\Generic\Source/probe_com.c ****     ProbeCom_RxSymByteCtr += sym_size;
 1046              		.loc 1 1563 0
 1047 009e 40F20003 		movw	r3, #:lower16:ProbeCom_RxSymByteCtr
 1048 00a2 C0F20003 		movt	r3, #:upper16:ProbeCom_RxSymByteCtr
 1049 00a6 1A68     		ldr	r2, [r3, #0]
 1050 00a8 3B69     		ldr	r3, [r7, #16]
 1051 00aa 1A44     		add	r2, r2, r3
 1052 00ac 40F20003 		movw	r3, #:lower16:ProbeCom_RxSymByteCtr
 1053 00b0 C0F20003 		movt	r3, #:upper16:ProbeCom_RxSymByteCtr
 1054 00b4 1A60     		str	r2, [r3, #0]
1564:..\..\..\..\..\..\uC-Probe\Target\Communication\Generic\Source/probe_com.c **** #endif
ARM GAS  C:\Users\daniel01\AppData\Local\Temp\ccHLFCB6.s 			page 47


1565:..\..\..\..\..\..\uC-Probe\Target\Communication\Generic\Source/probe_com.c **** 
1566:..\..\..\..\..\..\uC-Probe\Target\Communication\Generic\Source/probe_com.c ****                                                                 /* Store TX pkt hdr :              
1567:..\..\..\..\..\..\uC-Probe\Target\Communication\Generic\Source/probe_com.c ****     ProbeCom_StoINT16U(&ptx_buf, PROBE_COM_FMT_TX_WR);          /* (a) TX pkt fmt.                 
 1055              		.loc 1 1567 0
 1056 00b6 07F10803 		add	r3, r7, #8
 1057 00ba 1846     		mov	r0, r3
 1058 00bc 48F20301 		movw	r1, #32771
 1059 00c0 FFF7FEFF 		bl	ProbeCom_StoINT16U
1568:..\..\..\..\..\..\uC-Probe\Target\Communication\Generic\Source/probe_com.c ****     ProbeCom_StoINT08U(&ptx_buf, PROBE_COM_STATUS_OK);          /* (b) Target status.              
 1060              		.loc 1 1568 0
 1061 00c4 07F10803 		add	r3, r7, #8
 1062 00c8 1846     		mov	r0, r3
 1063 00ca 4FF00101 		mov	r1, #1
 1064 00ce FFF7FEFF 		bl	ProbeCom_StoINT08U
1569:..\..\..\..\..\..\uC-Probe\Target\Communication\Generic\Source/probe_com.c ****     ProbeCom_StoINT08U(&ptx_buf, ProbeCom_PktModifier());       /* (c) Modifier.                   
 1065              		.loc 1 1569 0
 1066 00d2 FFF7FEFF 		bl	ProbeCom_PktModifier
 1067 00d6 0346     		mov	r3, r0
 1068 00d8 07F10802 		add	r2, r7, #8
 1069 00dc 1046     		mov	r0, r2
 1070 00de 1946     		mov	r1, r3
 1071 00e0 FFF7FEFF 		bl	ProbeCom_StoINT08U
1570:..\..\..\..\..\..\uC-Probe\Target\Communication\Generic\Source/probe_com.c **** 
1571:..\..\..\..\..\..\uC-Probe\Target\Communication\Generic\Source/probe_com.c **** 
1572:..\..\..\..\..\..\uC-Probe\Target\Communication\Generic\Source/probe_com.c **** 
1573:..\..\..\..\..\..\uC-Probe\Target\Communication\Generic\Source/probe_com.c ****                                                                 /* ------------------ RTN TX PKT SI
1574:..\..\..\..\..\..\uC-Probe\Target\Communication\Generic\Source/probe_com.c ****     tx_len = (CPU_SIZE_T)PROBE_COM_SIZE_TX_HDR;                 /* Tx pkt size = 4 (= Tx hdr size).
 1072              		.loc 1 1574 0
 1073 00e4 4FF00403 		mov	r3, #4
 1074 00e8 BB61     		str	r3, [r7, #24]
1575:..\..\..\..\..\..\uC-Probe\Target\Communication\Generic\Source/probe_com.c ****     return (tx_len);
 1075              		.loc 1 1575 0
 1076 00ea BB69     		ldr	r3, [r7, #24]
 1077              	.L49:
1576:..\..\..\..\..\..\uC-Probe\Target\Communication\Generic\Source/probe_com.c **** }
 1078              		.loc 1 1576 0
 1079 00ec 1846     		mov	r0, r3
 1080 00ee 07F12007 		add	r7, r7, #32
 1081 00f2 BD46     		mov	sp, r7
 1082 00f4 80BD     		pop	{r7, pc}
 1083              		.cfi_endproc
 1084              	.LFE7:
 1085              		.size	ProbeCom_ReqWr, .-ProbeCom_ReqWr
 1086 00f6 00BF     		.section	.text.ProbeCom_ReqWrMulti,"ax",%progbits
 1087              		.align	2
 1088              		.thumb
 1089              		.thumb_func
 1090              		.type	ProbeCom_ReqWrMulti, %function
 1091              	ProbeCom_ReqWrMulti:
 1092              	.LFB8:
1577:..\..\..\..\..\..\uC-Probe\Target\Communication\Generic\Source/probe_com.c **** #endif
1578:..\..\..\..\..\..\uC-Probe\Target\Communication\Generic\Source/probe_com.c **** 
1579:..\..\..\..\..\..\uC-Probe\Target\Communication\Generic\Source/probe_com.c **** 
1580:..\..\..\..\..\..\uC-Probe\Target\Communication\Generic\Source/probe_com.c **** /*
1581:..\..\..\..\..\..\uC-Probe\Target\Communication\Generic\Source/probe_com.c **** ***************************************************************************************************
1582:..\..\..\..\..\..\uC-Probe\Target\Communication\Generic\Source/probe_com.c **** *                                        ProbeCom_ReqWrMulti()
1583:..\..\..\..\..\..\uC-Probe\Target\Communication\Generic\Source/probe_com.c **** *
ARM GAS  C:\Users\daniel01\AppData\Local\Temp\ccHLFCB6.s 			page 48


1584:..\..\..\..\..\..\uC-Probe\Target\Communication\Generic\Source/probe_com.c **** * Description : Parse the FMT_WR_MULTI request & formulate response.  This command causes the targe
1585:..\..\..\..\..\..\uC-Probe\Target\Communication\Generic\Source/probe_com.c **** *               write certain data into its memroy, for a certain number of {memory address, data l
1586:..\..\..\..\..\..\uC-Probe\Target\Communication\Generic\Source/probe_com.c **** *               data} triplets (which are given in the request).
1587:..\..\..\..\..\..\uC-Probe\Target\Communication\Generic\Source/probe_com.c **** *
1588:..\..\..\..\..\..\uC-Probe\Target\Communication\Generic\Source/probe_com.c **** * Argument(s) : prx_buf         Pointer to the receive  buffer
1589:..\..\..\..\..\..\uC-Probe\Target\Communication\Generic\Source/probe_com.c **** *
1590:..\..\..\..\..\..\uC-Probe\Target\Communication\Generic\Source/probe_com.c **** *               ptx_buf         Pointer to the transmit buffer
1591:..\..\..\..\..\..\uC-Probe\Target\Communication\Generic\Source/probe_com.c **** *
1592:..\..\..\..\..\..\uC-Probe\Target\Communication\Generic\Source/probe_com.c **** *               rx_pkt_size     Size of the receive  packet
1593:..\..\..\..\..\..\uC-Probe\Target\Communication\Generic\Source/probe_com.c **** *
1594:..\..\..\..\..\..\uC-Probe\Target\Communication\Generic\Source/probe_com.c **** *               tx_buf_size     Size of the transmit buffer
1595:..\..\..\..\..\..\uC-Probe\Target\Communication\Generic\Source/probe_com.c **** *
1596:..\..\..\..\..\..\uC-Probe\Target\Communication\Generic\Source/probe_com.c **** * Return(s)   : The number of bytes written to the tx buffer.
1597:..\..\..\..\..\..\uC-Probe\Target\Communication\Generic\Source/probe_com.c **** *
1598:..\..\..\..\..\..\uC-Probe\Target\Communication\Generic\Source/probe_com.c **** * Caller(s)   : ProbeCom_ParseRxPkt().
1599:..\..\..\..\..\..\uC-Probe\Target\Communication\Generic\Source/probe_com.c **** *
1600:..\..\..\..\..\..\uC-Probe\Target\Communication\Generic\Source/probe_com.c **** * Note(s)     : (1) The RX format:
1601:..\..\..\..\..\..\uC-Probe\Target\Communication\Generic\Source/probe_com.c **** *
1602:..\..\..\..\..\..\uC-Probe\Target\Communication\Generic\Source/probe_com.c **** *                   (A) A 2-byte format,  indicating the data segment format;
1603:..\..\..\..\..\..\uC-Probe\Target\Communication\Generic\Source/probe_com.c **** *                   (B) A n-byte item descriptor, for each item in the list, consiting of the follo
1604:..\..\..\..\..\..\uC-Probe\Target\Communication\Generic\Source/probe_com.c **** *
1605:..\..\..\..\..\..\uC-Probe\Target\Communication\Generic\Source/probe_com.c **** *                       (1) A 1-byte length,  indicating the number of bytes to write;
1606:..\..\..\..\..\..\uC-Probe\Target\Communication\Generic\Source/probe_com.c **** *                       (2) A 4-byte address, the starting address at which the data should be writ
1607:..\..\..\..\..\..\uC-Probe\Target\Communication\Generic\Source/probe_com.c **** *                       (3) The memory data.
1608:..\..\..\..\..\..\uC-Probe\Target\Communication\Generic\Source/probe_com.c **** *
1609:..\..\..\..\..\..\uC-Probe\Target\Communication\Generic\Source/probe_com.c **** *                         +-------------------------+------------+------------+
1610:..\..\..\..\..\..\uC-Probe\Target\Communication\Generic\Source/probe_com.c **** *                         |          Format         | Num. bytes |         Addr       ---
1611:..\..\..\..\..\..\uC-Probe\Target\Communication\Generic\Source/probe_com.c **** *                         +-------------------------+------------+------------+        |
