ARM GAS  C:\Users\EDULU~1.DES\AppData\Local\Temp\ccL99LDy.s 			page 1


   1              		.syntax unified
   2              		.cpu cortex-m0
   3              		.fpu softvfp
   4              		.eabi_attribute 20, 1
   5              		.eabi_attribute 21, 1
   6              		.eabi_attribute 23, 3
   7              		.eabi_attribute 24, 1
   8              		.eabi_attribute 25, 1
   9              		.eabi_attribute 26, 1
  10              		.eabi_attribute 30, 6
  11              		.eabi_attribute 34, 0
  12              		.eabi_attribute 18, 4
  13              		.thumb
  14              		.syntax unified
  15              		.file	"app.c"
  16              		.text
  17              	.Ltext0:
  18              		.cfi_sections	.debug_frame
  19              		.comm	uC_Probe_RGB_Val,4,4
  20              		.global	uC_Probe_PB_Trigger
  21              		.bss
  22              		.type	uC_Probe_PB_Trigger, %object
  23              		.size	uC_Probe_PB_Trigger, 1
  24              	uC_Probe_PB_Trigger:
  25 0000 00       		.space	1
  26              		.comm	uC_Probe_Temp_Val,4,4
  27              		.comm	uC_Probe_AmbientLight,2,2
  28              		.comm	uC_Probe_Accel_X_Axis,2,2
  29              		.comm	uC_Probe_Accel_Y_Axis,2,2
  30              		.comm	uC_Probe_Accel_Z_Axis,2,2
  31 0001 000000   		.align	2
  32              	App_TaskStartTCB:
  33 0004 00000000 		.space	124
  33      00000000 
  33      00000000 
  33      00000000 
  33      00000000 
  34              		.align	2
  35              	App_TaskStartStk:
  36 0080 00000000 		.space	1024
  36      00000000 
  36      00000000 
  36      00000000 
  36      00000000 
  37              		.align	2
  38              	App_Demo_SensorTaskTCB:
  39 0480 00000000 		.space	124
  39      00000000 
  39      00000000 
  39      00000000 
  39      00000000 
  40              		.align	2
  41              	App_Demo_SensorTaskStk:
  42 04fc 00000000 		.space	1024
  42      00000000 
  42      00000000 
  42      00000000 
ARM GAS  C:\Users\EDULU~1.DES\AppData\Local\Temp\ccL99LDy.s 			page 2


  42      00000000 
  43              		.align	1
  44              	App_Demo_Ambient_InitVar:
  45 08fc 0000     		.space	2
  46              		.section	.rodata
  47              		.align	2
  48              	.LC1:
  49 0000 41707020 		.ascii	"App Task Start\000"
  49      5461736B 
  49      20537461 
  49      727400
  50              		.section	.text.main,"ax",%progbits
  51              		.align	2
  52              		.global	main
  53              		.code	16
  54              		.thumb_func
  55              		.type	main, %function
  56              	main:
  57              	.LFB33:
  58              		.file 1 "..\\..\\app.c"
   1:..\../app.c   **** /*
   2:..\../app.c   **** ***************************************************************************************************
   3:..\../app.c   **** *                                             EXAMPLE CODE
   4:..\../app.c   **** *
   5:..\../app.c   **** *                            (c) Copyright 2015; Micrium, Inc.; Weston, FL
   6:..\../app.c   **** *
   7:..\../app.c   **** *               This file is provided as an example on how to use Micrium products.
   8:..\../app.c   **** *
   9:..\../app.c   **** *               Please feel free to use any application code labeled as 'EXAMPLE CODE' in
  10:..\../app.c   **** *               your application products.  Example code may be used as is, in whole or in
  11:..\../app.c   **** *               part, or may be used as a reference only. This file can be modified as
  12:..\../app.c   **** *               required to meet the end-product requirements.
  13:..\../app.c   **** *
  14:..\../app.c   **** *               Please help us continue to provide the Embedded community with the finest
  15:..\../app.c   **** *               software available.  Your honesty is greatly appreciated.
  16:..\../app.c   **** *
  17:..\../app.c   **** *               You can find our product's user manual, API reference, release notes and
  18:..\../app.c   **** *               more information at https://doc.micrium.com.
  19:..\../app.c   **** *               You can contact us at www.micrium.com.
  20:..\../app.c   **** ***************************************************************************************************
  21:..\../app.c   **** */
  22:..\../app.c   **** 
  23:..\../app.c   **** /*
  24:..\../app.c   **** ***************************************************************************************************
  25:..\../app.c   **** *                                           APPLICATION CODE
  26:..\../app.c   **** *
  27:..\../app.c   **** *                                            CYPRESS PSoC4
  28:..\../app.c   **** *                                               with the
  29:..\../app.c   **** *                                      CY8CKIT-044 Development Kit
  30:..\../app.c   **** *
  31:..\../app.c   **** * Filename      : app.c
  32:..\../app.c   **** * Version       : V1.00
  33:..\../app.c   **** * Programmer(s) : DC
  34:..\../app.c   **** ***************************************************************************************************
  35:..\../app.c   **** */
  36:..\../app.c   **** 
  37:..\../app.c   **** /*
ARM GAS  C:\Users\EDULU~1.DES\AppData\Local\Temp\ccL99LDy.s 			page 3


  38:..\../app.c   **** ***************************************************************************************************
  39:..\../app.c   **** *                                             INCLUDE FILES
  40:..\../app.c   **** ***************************************************************************************************
  41:..\../app.c   **** */
  42:..\../app.c   **** 
  43:..\../app.c   **** #include  "app_cfg.h"
  44:..\../app.c   **** #include  <bsp.h>
  45:..\../app.c   **** #include  <os.h>
  46:..\../app.c   **** #include  <cpu.h>
  47:..\../app.c   **** 
  48:..\../app.c   **** #include  <lib_math.h>
  49:..\../app.c   **** #include  <lib_mem.h>
  50:..\../app.c   **** 
  51:..\../app.c   **** 
  52:..\../app.c   **** /*
  53:..\../app.c   **** ***************************************************************************************************
  54:..\../app.c   **** *                                             LOCAL DEFINES
  55:..\../app.c   **** ***************************************************************************************************
  56:..\../app.c   **** */
  57:..\../app.c   ****                                                                 /* ---------------- TEMP SENSOR DEF
  58:..\../app.c   **** #define  APP_TEMP_SENSOR_NUM                        0u
  59:..\../app.c   **** 
  60:..\../app.c   ****                                                                 /* --------------- AMBIENT LIGHT DE
  61:..\../app.c   **** #define  APP_AMBIENT_DEMO_MAX_VAL                  50u          /* See 'App_Demo_TempAccel' Task No
  62:..\../app.c   ****                                                                 
  63:..\../app.c   **** 
  64:..\../app.c   **** /*
  65:..\../app.c   **** ***************************************************************************************************
  66:..\../app.c   **** *                                            GLOBAL DEFINES
  67:..\../app.c   **** ***************************************************************************************************
  68:..\../app.c   **** */
  69:..\../app.c   ****                                                                 /* -------------- uC/PROBE GLOBAL D
  70:..\../app.c   **** CPU_INT32U   uC_Probe_RGB_Val;                                  /*  - RGB LED Color Value.         
  71:..\../app.c   **** CPU_BOOLEAN  uC_Probe_PB_Trigger = DEF_OFF;                     /*  - RGB LED ON/OFF Push Button Tr
  72:..\../app.c   **** CPU_FP32     uC_Probe_Temp_Val;                                 /*  - Temperature Sensor Value (*F)
  73:..\../app.c   **** CPU_INT16U   uC_Probe_AmbientLight;                             /*  - Ambient Light Sensor Value.  
  74:..\../app.c   **** CPU_INT16S   uC_Probe_Accel_X_Axis;                             /*  - Accelerometer X-Axis Value.  
  75:..\../app.c   **** CPU_INT16S   uC_Probe_Accel_Y_Axis;                             /*  - Accelerometer Y-Axis Value.  
  76:..\../app.c   **** CPU_INT16S   uC_Probe_Accel_Z_Axis;                             /*  - Accelerometer Z-Axis Value.  
  77:..\../app.c   **** 
  78:..\../app.c   **** 
  79:..\../app.c   **** /*
  80:..\../app.c   **** ***************************************************************************************************
  81:..\../app.c   **** *                                            LOCAL VARIABLES
  82:..\../app.c   **** ***************************************************************************************************
  83:..\../app.c   **** */
  84:..\../app.c   ****                                                                 /* ------------------ APP TASK VAR(
  85:..\../app.c   **** static  OS_TCB      App_TaskStartTCB;
  86:..\../app.c   **** static  CPU_STK     App_TaskStartStk[APP_CFG_TASK_START_STK_SIZE];
  87:..\../app.c   **** 
  88:..\../app.c   ****                                                                 /* ------------- TEMP & ACCEL TASK 
  89:..\../app.c   **** static  OS_TCB      App_Demo_SensorTaskTCB;
  90:..\../app.c   **** static  CPU_STK     App_Demo_SensorTaskStk[APP_CFG_SENSOR_TASK_STK_SIZE];
  91:..\../app.c   **** 
  92:..\../app.c   ****                                                                 /* --------------- MISCELLANEOUS VA
  93:..\../app.c   **** static  CPU_INT16U  App_Demo_Ambient_InitVar;                   /*  - Ambient Light Initial DMA Sto
  94:..\../app.c   **** 
ARM GAS  C:\Users\EDULU~1.DES\AppData\Local\Temp\ccL99LDy.s 			page 4


  95:..\../app.c   **** 
  96:..\../app.c   **** /*
  97:..\../app.c   **** ***************************************************************************************************
  98:..\../app.c   **** *                                         FUNCTION PROTOTYPES
  99:..\../app.c   **** ***************************************************************************************************
 100:..\../app.c   **** */
 101:..\../app.c   **** 
 102:..\../app.c   **** static  void  App_TaskStart      (void *p_arg);
 103:..\../app.c   **** static  void  App_Demo_SensorTask(void *p_arg);
 104:..\../app.c   **** 
 105:..\../app.c   **** static  void  App_TaskCreate     (void);
 106:..\../app.c   **** static  void  App_ObjCreate      (void);
 107:..\../app.c   **** 
 108:..\../app.c   **** 
 109:..\../app.c   **** /*
 110:..\../app.c   **** ***************************************************************************************************
 111:..\../app.c   **** *                                                main()
 112:..\../app.c   **** *
 113:..\../app.c   **** * Description : This is the standard entry point for C code.  It is assumed that your code will cal
 114:..\../app.c   **** *               main() once you have performed all necessary initialization.
 115:..\../app.c   **** *
 116:..\../app.c   **** * Argument(s) : none
 117:..\../app.c   **** *
 118:..\../app.c   **** * Return(s)   : none
 119:..\../app.c   **** *
 120:..\../app.c   **** * Caller(s)   : Startup Code.
 121:..\../app.c   **** *
 122:..\../app.c   **** * Note(s)     : none.
 123:..\../app.c   **** ***************************************************************************************************
 124:..\../app.c   **** */
 125:..\../app.c   **** 
 126:..\../app.c   **** int  main (void)
 127:..\../app.c   **** {
  59              		.loc 1 127 0
  60              		.cfi_startproc
  61              		@ args = 0, pretend = 0, frame = 8
  62              		@ frame_needed = 1, uses_anonymous_args = 0
  63 0000 80B5     		push	{r7, lr}
  64              		.cfi_def_cfa_offset 8
  65              		.cfi_offset 7, -8
  66              		.cfi_offset 14, -4
  67 0002 8CB0     		sub	sp, sp, #48
  68              		.cfi_def_cfa_offset 56
  69 0004 0AAF     		add	r7, sp, #40
  70              		.cfi_def_cfa 7, 16
 128:..\../app.c   ****     OS_ERR  os_err;
 129:..\../app.c   **** 
 130:..\../app.c   **** 
 131:..\../app.c   ****     CPU_Init();                                                 /* Initialize the uC/CPU services  
  71              		.loc 1 131 0
  72 0006 FFF7FEFF 		bl	CPU_Init
 132:..\../app.c   **** 	Mem_Init();                                                 /* Initialize Memory Managment Module 
  73              		.loc 1 132 0
  74 000a FFF7FEFF 		bl	Mem_Init
 133:..\../app.c   ****     Math_Init();                                                /* Initialize Mathematical Module  
  75              		.loc 1 133 0
  76 000e FFF7FEFF 		bl	Math_Init
ARM GAS  C:\Users\EDULU~1.DES\AppData\Local\Temp\ccL99LDy.s 			page 5


 134:..\../app.c   ****     
 135:..\../app.c   ****     BSP_Init();                                                 /* Initialize BSP Functions.       
  77              		.loc 1 135 0
  78 0012 FFF7FEFF 		bl	BSP_Init
 136:..\../app.c   ****     
 137:..\../app.c   ****     OSInit(&os_err);                                            /* Init uC/OS-III.                 
  79              		.loc 1 137 0
  80 0016 BB1D     		adds	r3, r7, #6
  81 0018 1800     		movs	r0, r3
  82 001a FFF7FEFF 		bl	OSInit
 138:..\../app.c   **** 
 139:..\../app.c   ****     OSTaskCreate(&App_TaskStartTCB,                             /* Create the start task           
  83              		.loc 1 139 0
  84 001e 0F4A     		ldr	r2, .L3
  85 0020 0F49     		ldr	r1, .L3+4
  86 0022 1048     		ldr	r0, .L3+8
  87 0024 BB1D     		adds	r3, r7, #6
  88 0026 0893     		str	r3, [sp, #32]
  89 0028 0323     		movs	r3, #3
  90 002a 0793     		str	r3, [sp, #28]
  91 002c 0023     		movs	r3, #0
  92 002e 0693     		str	r3, [sp, #24]
  93 0030 0023     		movs	r3, #0
  94 0032 0593     		str	r3, [sp, #20]
  95 0034 0023     		movs	r3, #0
  96 0036 0493     		str	r3, [sp, #16]
  97 0038 8023     		movs	r3, #128
  98 003a 5B00     		lsls	r3, r3, #1
  99 003c 0393     		str	r3, [sp, #12]
 100 003e 1923     		movs	r3, #25
 101 0040 0293     		str	r3, [sp, #8]
 102 0042 094B     		ldr	r3, .L3+12
 103 0044 0193     		str	r3, [sp, #4]
 104 0046 0223     		movs	r3, #2
 105 0048 0093     		str	r3, [sp]
 106 004a 0023     		movs	r3, #0
 107 004c FFF7FEFF 		bl	OSTaskCreate
 140:..\../app.c   ****                  "App Task Start",
 141:..\../app.c   ****                   App_TaskStart,
 142:..\../app.c   ****                   0u,
 143:..\../app.c   ****                   APP_CFG_TASK_START_PRIO,
 144:..\../app.c   ****                  &App_TaskStartStk[0u],
 145:..\../app.c   ****                  (APP_CFG_TASK_START_STK_SIZE / 10u),
 146:..\../app.c   ****                   APP_CFG_TASK_START_STK_SIZE,
 147:..\../app.c   ****                   0u,
 148:..\../app.c   ****                   0u,
 149:..\../app.c   ****                   0u,
 150:..\../app.c   ****                  (OS_OPT_TASK_STK_CHK | OS_OPT_TASK_STK_CLR),
 151:..\../app.c   ****                  &os_err);
 152:..\../app.c   **** 
 153:..\../app.c   ****     OSStart(&os_err);                                           /* Start multitasking (i.e. give co
 108              		.loc 1 153 0
 109 0050 BB1D     		adds	r3, r7, #6
 110 0052 1800     		movs	r0, r3
 111 0054 FFF7FEFF 		bl	OSStart
 112              	.L2:
 154:..\../app.c   ****     
ARM GAS  C:\Users\EDULU~1.DES\AppData\Local\Temp\ccL99LDy.s 			page 6


 155:..\../app.c   ****     while (DEF_ON);                                             /* Should Never Get Here.          
 113              		.loc 1 155 0 discriminator 1
 114 0058 FEE7     		b	.L2
 115              	.L4:
 116 005a C046     		.align	2
 117              	.L3:
 118 005c 00000000 		.word	App_TaskStart
 119 0060 00000000 		.word	.LC1
 120 0064 04000000 		.word	App_TaskStartTCB
 121 0068 80000000 		.word	App_TaskStartStk
 122              		.cfi_endproc
 123              	.LFE33:
 124              		.size	main, .-main
 125              		.section	.text.App_TaskStart,"ax",%progbits
 126              		.align	2
 127              		.code	16
 128              		.thumb_func
 129              		.type	App_TaskStart, %function
 130              	App_TaskStart:
 131              	.LFB34:
 156:..\../app.c   **** }
 157:..\../app.c   **** 
 158:..\../app.c   **** 
 159:..\../app.c   **** /*
 160:..\../app.c   **** ***************************************************************************************************
 161:..\../app.c   **** *                                          App_TaskStart()
 162:..\../app.c   **** *
 163:..\../app.c   **** * Description : This is an example of a startup task.  As mentioned in the book's text, you MUST
 164:..\../app.c   **** *               initialize the ticker only once multitasking has started.
 165:..\../app.c   **** *
 166:..\../app.c   **** * Argument(s) : p_arg   is the argument passed to 'App_TaskStart()' by 'OSTaskCreate()'.
 167:..\../app.c   **** *
 168:..\../app.c   **** * Return(s)   : none
 169:..\../app.c   **** *
 170:..\../app.c   **** * Caller(s)   : main()
 171:..\../app.c   **** *
 172:..\../app.c   **** * Note(s)     : (1) The first line of code is used to prevent a compiler warning because 'p_arg' is
 173:..\../app.c   **** *                   used.  The compiler should not generate any code for this statement.
 174:..\../app.c   **** *
 175:..\../app.c   **** *               (2) App_TaskStart Task will manage the RGB LED as well as the Push Button to Turn O
 176:..\../app.c   **** *                   and OFF the RGB LED.
 177:..\../app.c   **** ***************************************************************************************************
 178:..\../app.c   **** */
 179:..\../app.c   **** 
 180:..\../app.c   **** void  App_TaskStart (void *p_arg)
 181:..\../app.c   **** {
 132              		.loc 1 181 0
 133              		.cfi_startproc
 134              		@ args = 0, pretend = 0, frame = 16
 135              		@ frame_needed = 1, uses_anonymous_args = 0
 136 0000 90B5     		push	{r4, r7, lr}
 137              		.cfi_def_cfa_offset 12
 138              		.cfi_offset 4, -12
 139              		.cfi_offset 7, -8
 140              		.cfi_offset 14, -4
 141 0002 87B0     		sub	sp, sp, #28
 142              		.cfi_def_cfa_offset 40
ARM GAS  C:\Users\EDULU~1.DES\AppData\Local\Temp\ccL99LDy.s 			page 7


 143 0004 02AF     		add	r7, sp, #8
 144              		.cfi_def_cfa 7, 32
 145 0006 7860     		str	r0, [r7, #4]
 182:..\../app.c   ****     OS_ERR       os_err;
 183:..\../app.c   ****     CPU_BOOLEAN  pb_status;
 184:..\../app.c   ****     CPU_BOOLEAN  pb_prev;
 185:..\../app.c   ****     CPU_BOOLEAN  led_status;
 186:..\../app.c   ****         
 187:..\../app.c   **** 
 188:..\../app.c   ****    (void)p_arg;
 189:..\../app.c   ****     led_status = DEF_OFF;                                       /* Initialize Var(s).              
 146              		.loc 1 189 0
 147 0008 0E23     		movs	r3, #14
 148 000a FB18     		adds	r3, r7, r3
 149 000c 0022     		movs	r2, #0
 150 000e 1A70     		strb	r2, [r3]
 190:..\../app.c   **** 
 191:..\../app.c   ****     BSP_CPU_TickInit();                                         /* Initialize the Tick Interrupt.  
 151              		.loc 1 191 0
 152 0010 FFF7FEFF 		bl	BSP_CPU_TickInit
 192:..\../app.c   ****                                                                 /* --------------- ACCELEROMETER SE
 193:..\../app.c   ****     BSP_Accel_Init();                                           /* Init & Cfg I2C & Accelerometer a
 153              		.loc 1 193 0
 154 0014 FFF7FEFF 		bl	BSP_Accel_Init
 194:..\../app.c   **** 
 195:..\../app.c   **** #if (OS_CFG_STAT_TASK_EN > 0u)
 196:..\../app.c   ****     OSStatTaskCPUUsageInit(&os_err);
 155              		.loc 1 196 0
 156 0018 0A23     		movs	r3, #10
 157 001a FB18     		adds	r3, r7, r3
 158 001c 1800     		movs	r0, r3
 159 001e FFF7FEFF 		bl	OSStatTaskCPUUsageInit
 197:..\../app.c   **** #endif
 198:..\../app.c   **** 
 199:..\../app.c   **** #ifdef CPU_CFG_INT_DIS_MEAS_EN
 200:..\../app.c   ****     CPU_IntDisMeasMaxCurReset();
 160              		.loc 1 200 0
 161 0022 FFF7FEFF 		bl	CPU_IntDisMeasMaxCurReset
 201:..\../app.c   **** #endif
 202:..\../app.c   **** 
 203:..\../app.c   ****     APP_TRACE_INFO(("Creating Kernel Objects...\n\r"));
 204:..\../app.c   ****     App_ObjCreate();                                            /* Create Kernel Objects           
 162              		.loc 1 204 0
 163 0026 FFF7FEFF 		bl	App_ObjCreate
 205:..\../app.c   ****     
 206:..\../app.c   ****     APP_TRACE_INFO(("Creating Application Tasks...\n\r"));
 207:..\../app.c   ****     App_TaskCreate();                                           /* Create Application Tasks.       
 164              		.loc 1 207 0
 165 002a FFF7FEFF 		bl	App_TaskCreate
 208:..\../app.c   ****     
 209:..\../app.c   ****     BSP_RGB_Off();                                              /* Initially Turn off the RGB LED. 
 166              		.loc 1 209 0
 167 002e FFF7FEFF 		bl	BSP_RGB_Off
 168              	.L12:
 210:..\../app.c   ****     
 211:..\../app.c   ****     while (DEF_TRUE) {                                          /* Task body, always written as an 
 212:..\../app.c   ****         pb_status = BSP_PB_StatusGet();                         /* ------------- PUSH BUTTON (SW2) 
ARM GAS  C:\Users\EDULU~1.DES\AppData\Local\Temp\ccL99LDy.s 			page 8


 169              		.loc 1 212 0
 170 0032 0D23     		movs	r3, #13
 171 0034 FC18     		adds	r4, r7, r3
 172 0036 FFF7FEFF 		bl	BSP_PB_StatusGet
 173 003a 0300     		movs	r3, r0
 174 003c 2370     		strb	r3, [r4]
 213:..\../app.c   **** 		
 214:..\../app.c   ****         if((pb_status == DEF_OFF) && (pb_prev != DEF_OFF)) {    /* Push Button Triggers change on B
 175              		.loc 1 214 0
 176 003e 0D23     		movs	r3, #13
 177 0040 FB18     		adds	r3, r7, r3
 178 0042 1B78     		ldrb	r3, [r3]
 179 0044 002B     		cmp	r3, #0
 180 0046 0FD1     		bne	.L6
 181              		.loc 1 214 0 is_stmt 0 discriminator 1
 182 0048 0F23     		movs	r3, #15
 183 004a FB18     		adds	r3, r7, r3
 184 004c 1B78     		ldrb	r3, [r3]
 185 004e 002B     		cmp	r3, #0
 186 0050 0AD0     		beq	.L6
 215:..\../app.c   ****             if (uC_Probe_PB_Trigger == DEF_ON) {                /* If the Probe Button is Turned ON
 187              		.loc 1 215 0 is_stmt 1
 188 0052 214B     		ldr	r3, .L13
 189 0054 1B78     		ldrb	r3, [r3]
 190 0056 012B     		cmp	r3, #1
 191 0058 03D1     		bne	.L7
 216:..\../app.c   ****                 uC_Probe_PB_Trigger = DEF_OFF;
 192              		.loc 1 216 0
 193 005a 1F4B     		ldr	r3, .L13
 194 005c 0022     		movs	r2, #0
 195 005e 1A70     		strb	r2, [r3]
 196 0060 02E0     		b	.L6
 197              	.L7:
 217:..\../app.c   ****             } else {                                            /* If the Probe Button is Turned OF
 218:..\../app.c   ****                 uC_Probe_PB_Trigger = DEF_ON;
 198              		.loc 1 218 0
 199 0062 1D4B     		ldr	r3, .L13
 200 0064 0122     		movs	r2, #1
 201 0066 1A70     		strb	r2, [r3]
 202              	.L6:
 219:..\../app.c   ****             }
 220:..\../app.c   ****         }
 221:..\../app.c   ****         
 222:..\../app.c   ****         pb_prev = pb_status;                                    /* Set the Status as the Button's P
 203              		.loc 1 222 0
 204 0068 0F23     		movs	r3, #15
 205 006a FB18     		adds	r3, r7, r3
 206 006c 0D22     		movs	r2, #13
 207 006e BA18     		adds	r2, r7, r2
 208 0070 1278     		ldrb	r2, [r2]
 209 0072 1A70     		strb	r2, [r3]
 223:..\../app.c   ****         
 224:..\../app.c   ****         if (uC_Probe_PB_Trigger == DEF_ON) {                    /* ---------- uC/PROBE BUTTON TRIGG
 210              		.loc 1 224 0
 211 0074 184B     		ldr	r3, .L13
 212 0076 1B78     		ldrb	r3, [r3]
 213 0078 012B     		cmp	r3, #1
ARM GAS  C:\Users\EDULU~1.DES\AppData\Local\Temp\ccL99LDy.s 			page 9


 214 007a 0BD1     		bne	.L8
 225:..\../app.c   ****             if (led_status == DEF_INACTIVE) {                   /* if LED Status Flag is currently 
 215              		.loc 1 225 0
 216 007c 0E23     		movs	r3, #14
 217 007e FB18     		adds	r3, r7, r3
 218 0080 1B78     		ldrb	r3, [r3]
 219 0082 002B     		cmp	r3, #0
 220 0084 11D1     		bne	.L10
 226:..\../app.c   ****                 led_status = DEF_ACTIVE;                        /* ... Status Flag and Turn ON The 
 221              		.loc 1 226 0
 222 0086 0E23     		movs	r3, #14
 223 0088 FB18     		adds	r3, r7, r3
 224 008a 0122     		movs	r2, #1
 225 008c 1A70     		strb	r2, [r3]
 227:..\../app.c   ****                 BSP_RGB_On();
 226              		.loc 1 227 0
 227 008e FFF7FEFF 		bl	BSP_RGB_On
 228 0092 0AE0     		b	.L10
 229              	.L8:
 228:..\../app.c   ****             }
 229:..\../app.c   ****         } else {
 230:..\../app.c   ****             if (led_status == DEF_YES) {                        /* if LED Status Flag is currently 
 230              		.loc 1 230 0
 231 0094 0E23     		movs	r3, #14
 232 0096 FB18     		adds	r3, r7, r3
 233 0098 1B78     		ldrb	r3, [r3]
 234 009a 012B     		cmp	r3, #1
 235 009c 05D1     		bne	.L10
 231:..\../app.c   ****                 led_status = DEF_INACTIVE;                      /* .. Status Flag and Turn OFF The 
 236              		.loc 1 231 0
 237 009e 0E23     		movs	r3, #14
 238 00a0 FB18     		adds	r3, r7, r3
 239 00a2 0022     		movs	r2, #0
 240 00a4 1A70     		strb	r2, [r3]
 232:..\../app.c   ****                 BSP_RGB_Off();
 241              		.loc 1 232 0
 242 00a6 FFF7FEFF 		bl	BSP_RGB_Off
 243              	.L10:
 233:..\../app.c   ****             }
 234:..\../app.c   ****         }
 235:..\../app.c   ****         
 236:..\../app.c   ****         if (led_status == DEF_ACTIVE) {                         /* -------------- UPDATE RGB COLOR 
 244              		.loc 1 236 0
 245 00aa 0E23     		movs	r3, #14
 246 00ac FB18     		adds	r3, r7, r3
 247 00ae 1B78     		ldrb	r3, [r3]
 248 00b0 012B     		cmp	r3, #1
 249 00b2 04D1     		bne	.L11
 237:..\../app.c   ****             BSP_RGB_ColorSet(uC_Probe_RGB_Val);                 /* IF LED Status Flag is Active, Up
 250              		.loc 1 237 0
 251 00b4 094B     		ldr	r3, .L13+4
 252 00b6 1B68     		ldr	r3, [r3]
 253 00b8 1800     		movs	r0, r3
 254 00ba FFF7FEFF 		bl	BSP_RGB_ColorSet
 255              	.L11:
 238:..\../app.c   ****         }
 239:..\../app.c   ****         
ARM GAS  C:\Users\EDULU~1.DES\AppData\Local\Temp\ccL99LDy.s 			page 10


 240:..\../app.c   ****         OSTimeDlyHMSM(0u, 0u, 0u, 100u, 
 256              		.loc 1 240 0
 257 00be 0A23     		movs	r3, #10
 258 00c0 FB18     		adds	r3, r7, r3
 259 00c2 0193     		str	r3, [sp, #4]
 260 00c4 0023     		movs	r3, #0
 261 00c6 0093     		str	r3, [sp]
 262 00c8 6423     		movs	r3, #100
 263 00ca 0022     		movs	r2, #0
 264 00cc 0021     		movs	r1, #0
 265 00ce 0020     		movs	r0, #0
 266 00d0 FFF7FEFF 		bl	OSTimeDlyHMSM
 241:..\../app.c   ****                       OS_OPT_TIME_HMSM_STRICT, &os_err);
 242:..\../app.c   ****     }
 267              		.loc 1 242 0
 268 00d4 ADE7     		b	.L12
 269              	.L14:
 270 00d6 C046     		.align	2
 271              	.L13:
 272 00d8 00000000 		.word	uC_Probe_PB_Trigger
 273 00dc 00000000 		.word	uC_Probe_RGB_Val
 274              		.cfi_endproc
 275              	.LFE34:
 276              		.size	App_TaskStart, .-App_TaskStart
 277              		.section	.rodata
 278 000f 00       		.align	2
 279              	.LC8:
 280 0010 44656D6F 		.ascii	"Demo: Sensor Task\000"
 280      3A205365 
 280      6E736F72 
 280      20546173 
 280      6B00
 281              		.section	.text.App_TaskCreate,"ax",%progbits
 282              		.align	2
 283              		.code	16
 284              		.thumb_func
 285              		.type	App_TaskCreate, %function
 286              	App_TaskCreate:
 287              	.LFB35:
 243:..\../app.c   **** }
 244:..\../app.c   **** 
 245:..\../app.c   **** 
 246:..\../app.c   **** /*
 247:..\../app.c   **** ***************************************************************************************************
 248:..\../app.c   **** *                                          App_TaskCreate()
 249:..\../app.c   **** *
 250:..\../app.c   **** * Description : Create Application Tasks.
 251:..\../app.c   **** *
 252:..\../app.c   **** * Argument(s) : none
 253:..\../app.c   **** *
 254:..\../app.c   **** * Return(s)   : none
 255:..\../app.c   **** *
 256:..\../app.c   **** * Caller(s)   : AppTaskStart()
 257:..\../app.c   **** *
 258:..\../app.c   **** * Note(s)     : (1) The Following Task(s) were created to simulate Cypress' CY8CKIT-044 Sensor Hub
 259:..\../app.c   **** *                   demo using Micrium's uC/OS-III Kernel.
 260:..\../app.c   **** *
ARM GAS  C:\Users\EDULU~1.DES\AppData\Local\Temp\ccL99LDy.s 			page 11


 261:..\../app.c   **** *               (2) Although Multiple Tasks were used for this demo, One (1) Task can manage all 
 262:..\../app.c   **** *                   services required to simulate the demo. The use of Mutiple tasks is used as an
 263:..\../app.c   **** *                   example for Multitasking with uC/OS-III.
 264:..\../app.c   **** ***************************************************************************************************
 265:..\../app.c   **** */
 266:..\../app.c   **** 
 267:..\../app.c   **** void  App_TaskCreate (void)
 268:..\../app.c   **** {
 288              		.loc 1 268 0
 289              		.cfi_startproc
 290              		@ args = 0, pretend = 0, frame = 8
 291              		@ frame_needed = 1, uses_anonymous_args = 0
 292 0000 80B5     		push	{r7, lr}
 293              		.cfi_def_cfa_offset 8
 294              		.cfi_offset 7, -8
 295              		.cfi_offset 14, -4
 296 0002 8CB0     		sub	sp, sp, #48
 297              		.cfi_def_cfa_offset 56
 298 0004 0AAF     		add	r7, sp, #40
 299              		.cfi_def_cfa 7, 16
 269:..\../app.c   ****     OS_ERR  os_err;
 270:..\../app.c   ****     
 271:..\../app.c   ****     OSTaskCreate(&App_Demo_SensorTaskTCB,                       /* Task that Manages Temp, Accel & 
 300              		.loc 1 271 0
 301 0006 0E4A     		ldr	r2, .L16
 302 0008 0E49     		ldr	r1, .L16+4
 303 000a 0F48     		ldr	r0, .L16+8
 304 000c BB1D     		adds	r3, r7, #6
 305 000e 0893     		str	r3, [sp, #32]
 306 0010 0323     		movs	r3, #3
 307 0012 0793     		str	r3, [sp, #28]
 308 0014 0023     		movs	r3, #0
 309 0016 0693     		str	r3, [sp, #24]
 310 0018 0023     		movs	r3, #0
 311 001a 0593     		str	r3, [sp, #20]
 312 001c 0023     		movs	r3, #0
 313 001e 0493     		str	r3, [sp, #16]
 314 0020 8023     		movs	r3, #128
 315 0022 5B00     		lsls	r3, r3, #1
 316 0024 0393     		str	r3, [sp, #12]
 317 0026 1923     		movs	r3, #25
 318 0028 0293     		str	r3, [sp, #8]
 319 002a 084B     		ldr	r3, .L16+12
 320 002c 0193     		str	r3, [sp, #4]
 321 002e 0323     		movs	r3, #3
 322 0030 0093     		str	r3, [sp]
 323 0032 0023     		movs	r3, #0
 324 0034 FFF7FEFF 		bl	OSTaskCreate
 272:..\../app.c   ****                  "Demo: Sensor Task",
 273:..\../app.c   ****                   App_Demo_SensorTask,
 274:..\../app.c   ****                   0u,
 275:..\../app.c   ****                   APP_CFG_SENSOR_TASK_PRIO,
 276:..\../app.c   ****                  &App_Demo_SensorTaskStk[0u],
 277:..\../app.c   ****                  (APP_CFG_SENSOR_TASK_STK_SIZE / 10u),
 278:..\../app.c   ****                   APP_CFG_SENSOR_TASK_STK_SIZE,
 279:..\../app.c   ****                   0u,
 280:..\../app.c   ****                   0u,
ARM GAS  C:\Users\EDULU~1.DES\AppData\Local\Temp\ccL99LDy.s 			page 12


 281:..\../app.c   ****                   0u,
 282:..\../app.c   ****                  (OS_OPT_TASK_STK_CHK | OS_OPT_TASK_STK_CLR),
 283:..\../app.c   ****                  &os_err);
 284:..\../app.c   **** }
 325              		.loc 1 284 0
 326 0038 C046     		nop
 327 003a BD46     		mov	sp, r7
 328 003c 02B0     		add	sp, sp, #8
 329              		@ sp needed
 330 003e 80BD     		pop	{r7, pc}
 331              	.L17:
 332              		.align	2
 333              	.L16:
 334 0040 00000000 		.word	App_Demo_SensorTask
 335 0044 10000000 		.word	.LC8
 336 0048 80040000 		.word	App_Demo_SensorTaskTCB
 337 004c FC040000 		.word	App_Demo_SensorTaskStk
 338              		.cfi_endproc
 339              	.LFE35:
 340              		.size	App_TaskCreate, .-App_TaskCreate
 341              		.section	.text.App_ObjCreate,"ax",%progbits
 342              		.align	2
 343              		.code	16
 344              		.thumb_func
 345              		.type	App_ObjCreate, %function
 346              	App_ObjCreate:
 347              	.LFB36:
 285:..\../app.c   **** 
 286:..\../app.c   **** 
 287:..\../app.c   **** /*
 288:..\../app.c   **** ***************************************************************************************************
 289:..\../app.c   **** *                                          App_ObjCreate()
 290:..\../app.c   **** *
 291:..\../app.c   **** * Description : Create Application Kernel Objects Tasks.
 292:..\../app.c   **** *
 293:..\../app.c   **** * Argument(s) : none
 294:..\../app.c   **** *
 295:..\../app.c   **** * Return(s)   : none
 296:..\../app.c   **** *
 297:..\../app.c   **** * Caller(s)   : AppTaskStart()
 298:..\../app.c   **** *
 299:..\../app.c   **** * Note(s)     : none.
 300:..\../app.c   **** ***************************************************************************************************
 301:..\../app.c   **** */
 302:..\../app.c   **** 
 303:..\../app.c   **** void  App_ObjCreate (void)
 304:..\../app.c   **** {
 348              		.loc 1 304 0
 349              		.cfi_startproc
 350              		@ args = 0, pretend = 0, frame = 0
 351              		@ frame_needed = 1, uses_anonymous_args = 0
 352 0000 80B5     		push	{r7, lr}
 353              		.cfi_def_cfa_offset 8
 354              		.cfi_offset 7, -8
 355              		.cfi_offset 14, -4
 356 0002 00AF     		add	r7, sp, #0
 357              		.cfi_def_cfa_register 7
ARM GAS  C:\Users\EDULU~1.DES\AppData\Local\Temp\ccL99LDy.s 			page 13


 305:..\../app.c   ****     
 306:..\../app.c   **** }
 358              		.loc 1 306 0
 359 0004 C046     		nop
 360 0006 BD46     		mov	sp, r7
 361              		@ sp needed
 362 0008 80BD     		pop	{r7, pc}
 363              		.cfi_endproc
 364              	.LFE36:
 365              		.size	App_ObjCreate, .-App_ObjCreate
 366 000a C046     		.section	.text.App_Demo_SensorTask,"ax",%progbits
 367              		.align	2
 368              		.code	16
 369              		.thumb_func
 370              		.type	App_Demo_SensorTask, %function
 371              	App_Demo_SensorTask:
 372              	.LFB37:
 307:..\../app.c   **** 
 308:..\../app.c   **** 
 309:..\../app.c   **** /*
 310:..\../app.c   **** ***************************************************************************************************
 311:..\../app.c   **** ***************************************************************************************************
 312:..\../app.c   **** *                                             LOCAL TASKS
 313:..\../app.c   **** ***************************************************************************************************
 314:..\../app.c   **** ***************************************************************************************************
 315:..\../app.c   **** */
 316:..\../app.c   **** 
 317:..\../app.c   **** /*
 318:..\../app.c   **** ***************************************************************************************************
 319:..\../app.c   **** *                                        App_Demo_SensorTask()
 320:..\../app.c   **** *
 321:..\../app.c   **** * Description : Manage CY8CKIT-044's Temperature Sensor, Ambient Light Sensor, and I2C Communicatio
 322:..\../app.c   **** *               to the KXTJ2-1009 3-Axis Accelerometer.
 323:..\../app.c   **** *
 324:..\../app.c   **** * Argument(s) : none
 325:..\../app.c   **** *
 326:..\../app.c   **** * Return(s)   : none
 327:..\../app.c   **** *
 328:..\../app.c   **** * Caller(s)   : AppTaskStart()
 329:..\../app.c   **** *
 330:..\../app.c   **** * Note(s)     : (1) The use/start of the DMA Component also sets the source of the Global Variable 
 331:..\../app.c   **** *                   will be used to house the Ambient Light data Autiomatically that uC/Probe will
 332:..\../app.c   **** *                   Display.
 333:..\../app.c   **** *
 334:..\../app.c   **** *               (2) The Ambient Light Sensor can go to a max range of 2000, however in normal 'indo
 335:..\../app.c   **** *                   light the Light doesn't go higher than 50. For this reason, an initial Variable
 336:..\../app.c   **** *                   was introduced to regulate the Probe Variable. When surrounded in Total Darknes
 337:..\../app.c   **** *                   the Ambient Light Sensor cannot successfully read the proper Lighting value, an
 338:..\../app.c   **** *                   simulate a variable overflow. To keep this from occurring, a check has been int
 339:..\../app.c   **** *                   to check if the 'Light Value' is greater than the configured range (50), the
 340:..\../app.c   **** *                   uC/Probe variable will be defaulted to '0'.
 341:..\../app.c   **** ***************************************************************************************************
 342:..\../app.c   **** */
 343:..\../app.c   **** 
 344:..\../app.c   **** void  App_Demo_SensorTask (void *p_arg)
 345:..\../app.c   **** {
 373              		.loc 1 345 0
ARM GAS  C:\Users\EDULU~1.DES\AppData\Local\Temp\ccL99LDy.s 			page 14


 374              		.cfi_startproc
 375              		@ args = 0, pretend = 0, frame = 16
 376              		@ frame_needed = 1, uses_anonymous_args = 0
 377 0000 80B5     		push	{r7, lr}
 378              		.cfi_def_cfa_offset 8
 379              		.cfi_offset 7, -8
 380              		.cfi_offset 14, -4
 381 0002 86B0     		sub	sp, sp, #24
 382              		.cfi_def_cfa_offset 32
 383 0004 02AF     		add	r7, sp, #8
 384              		.cfi_def_cfa 7, 24
 385 0006 7860     		str	r0, [r7, #4]
 386              	.L20:
 346:..\../app.c   ****     OS_ERR      os_err;
 347:..\../app.c   ****     CPU_INT08U  temp_status;
 348:..\../app.c   ****     CPU_INT16U  temp_val;
 349:..\../app.c   ****     CPU_FP32    temp_conv;
 350:..\../app.c   ****     
 351:..\../app.c   ****     
 352:..\../app.c   ****     (void)p_arg;
 353:..\../app.c   ****                                                                 /* ---------------- AMBIENT LIGHT I
 354:..\../app.c   ****                                                                 /* Enable the DMA Component and set
 355:..\../app.c   ****                                                                 /* .. DMA transfer as well as the D
 356:..\../app.c   **** //    DMA_Start((void *)ADC_SAR_CHAN0_RESULT_PTR, &App_Demo_Ambient_InitVar);
 357:..\../app.c   ****     
 358:..\../app.c   ****    // ADC_StartConvert();                                         /* Start ADC Conversions, Save to
 359:..\../app.c   ****     
 360:..\../app.c   ****     while (DEF_TRUE) {                                          /* Task body, always written as an 
 361:..\../app.c   ****           
 362:..\../app.c   ****         /* ----------------- TEMP SENSOR READ ----------------- */
 363:..\../app.c   ****        /* temp_status = Temp_Sensor_ConversionStatus();           /* Get the Temperature Sensor's C
 364:..\../app.c   ****         
 365:..\../app.c   ****         //if (temp_status == Temp_Sensor_STATUS_COMPLETE) {       /* If Conversion is Complete, Rd 
 366:..\../app.c   ****                                                                 /* Temperature Returned is in (*C).
 367:..\../app.c   ****          //   temp_val          = Temp_Sensor_GetTemperature(APP_TEMP_SENSOR_NUM);
 368:..\../app.c   ****          //   temp_conv         = (temp_val / 100u);              /* Temp Value must be Factored Do
 369:..\../app.c   ****          //   uC_Probe_Temp_Val = ((temp_conv * 1.8) + 32u);      /* Convert Temp from (*C) to (*F)
 370:..\../app.c   ****             
 371:..\../app.c   ****        //     Temp_Sensor_Trigger();                              /* Trigger next conversion when t
 372:..\../app.c   ****        // }
 373:..\../app.c   ****                                                                 /* --------------- AMBIENT LIGHT SE
 374:..\../app.c   ****        // if (App_Demo_Ambient_InitVar > APP_AMBIENT_DEMO_MAX_VAL) {
 375:..\../app.c   ****         //    uC_Probe_AmbientLight = 0u;                         /* See Note (2).                 
 376:..\../app.c   ****        // } else {
 377:..\../app.c   ****        //     uC_Probe_AmbientLight = App_Demo_Ambient_InitVar;
 378:..\../app.c   ****         //}
 379:..\../app.c   ****         
 380:..\../app.c   ****                                                                 /* --------------- ACCELEROMETER SE
 381:..\../app.c   ****        // BSP_Accel_Rd(&uC_Probe_Accel_X_Axis,                    /* Read Accelerometer's X, Y, & Z
 382:..\../app.c   ****         //             &uC_Probe_Accel_Y_Axis,
 383:..\../app.c   ****         //             &uC_Probe_Accel_Z_Axis);
 384:..\../app.c   ****       
 385:..\../app.c   ****         
 386:..\../app.c   ****         OSTimeDlyHMSM(0u, 0u, 0u, 50u,
 387              		.loc 1 386 0 discriminator 1
 388 0008 0E23     		movs	r3, #14
 389 000a FB18     		adds	r3, r7, r3
ARM GAS  C:\Users\EDULU~1.DES\AppData\Local\Temp\ccL99LDy.s 			page 15


 390 000c 0193     		str	r3, [sp, #4]
 391 000e 0023     		movs	r3, #0
 392 0010 0093     		str	r3, [sp]
 393 0012 3223     		movs	r3, #50
 394 0014 0022     		movs	r2, #0
 395 0016 0021     		movs	r1, #0
 396 0018 0020     		movs	r0, #0
 397 001a FFF7FEFF 		bl	OSTimeDlyHMSM
 387:..\../app.c   ****                       OS_OPT_TIME_HMSM_STRICT, &os_err);
 388:..\../app.c   ****     }
 398              		.loc 1 388 0 discriminator 1
 399 001e F3E7     		b	.L20
 400              		.cfi_endproc
 401              	.LFE37:
 402              		.size	App_Demo_SensorTask, .-App_Demo_SensorTask
 403              		.text
 404              	.Letext0:
 405              		.file 2 "..\\..\\..\\..\\..\\..\\Software\\uC-CPU\\ARM-Cortex-M0\\GNU/cpu.h"
 406              		.file 3 "..\\..\\..\\..\\..\\..\\Software\\uC-CPU/cpu_core.h"
 407              		.file 4 "..\\..\\..\\..\\..\\..\\Software\\uCOS-III\\Source/os_type.h"
 408              		.file 5 "..\\..\\..\\..\\..\\..\\Software\\uCOS-III\\Source/os.h"