ARM GAS  C:\Users\EDULU~1.DES\AppData\Local\Temp\ccfVVCDU.s 			page 1


   1              		.syntax unified
   2              		.cpu cortex-m0
   3              		.fpu softvfp
   4              		.eabi_attribute 20, 1
   5              		.eabi_attribute 21, 1
   6              		.eabi_attribute 23, 3
   7              		.eabi_attribute 24, 1
   8              		.eabi_attribute 25, 1
   9              		.eabi_attribute 26, 1
  10              		.eabi_attribute 30, 6
  11              		.eabi_attribute 34, 0
  12              		.eabi_attribute 18, 4
  13              		.thumb
  14              		.syntax unified
  15              		.file	"bsp_os.c"
  16              		.text
  17              	.Ltext0:
  18              		.cfi_sections	.debug_frame
  19              		.section	.text.BSP_OS_SemCreate,"ax",%progbits
  20              		.align	2
  21              		.global	BSP_OS_SemCreate
  22              		.code	16
  23              		.thumb_func
  24              		.type	BSP_OS_SemCreate, %function
  25              	BSP_OS_SemCreate:
  26              	.LFB33:
  27              		.file 1 "..\\..\\..\\BSP\\OS\\uCOS-III\\bsp_os.c"
   1:..\..\..\BSP\OS\uCOS-III/bsp_os.c **** /*
   2:..\..\..\BSP\OS\uCOS-III/bsp_os.c **** ***************************************************************************************************
   3:..\..\..\BSP\OS\uCOS-III/bsp_os.c **** *                                     MICRIUM BOARD SUPPORT SUPPORT
   4:..\..\..\BSP\OS\uCOS-III/bsp_os.c **** *
   5:..\..\..\BSP\OS\uCOS-III/bsp_os.c **** *                          (c) Copyright 2003-2013; Micrium, Inc.; Weston, FL
   6:..\..\..\BSP\OS\uCOS-III/bsp_os.c **** *
   7:..\..\..\BSP\OS\uCOS-III/bsp_os.c **** *               All rights reserved.  Protected by international copyright laws.
   8:..\..\..\BSP\OS\uCOS-III/bsp_os.c **** *               Knowledge of the source code may NOT be used to develop a similar product.
   9:..\..\..\BSP\OS\uCOS-III/bsp_os.c **** *               Please help us continue to provide the Embedded community with the finest
  10:..\..\..\BSP\OS\uCOS-III/bsp_os.c **** *               software available.  Your honesty is greatly appreciated.
  11:..\..\..\BSP\OS\uCOS-III/bsp_os.c **** ***************************************************************************************************
  12:..\..\..\BSP\OS\uCOS-III/bsp_os.c **** */
  13:..\..\..\BSP\OS\uCOS-III/bsp_os.c **** 
  14:..\..\..\BSP\OS\uCOS-III/bsp_os.c **** /*
  15:..\..\..\BSP\OS\uCOS-III/bsp_os.c **** ***************************************************************************************************
  16:..\..\..\BSP\OS\uCOS-III/bsp_os.c **** *
  17:..\..\..\BSP\OS\uCOS-III/bsp_os.c **** *                                       BOARD SUPPORT PACKAGE
  18:..\..\..\BSP\OS\uCOS-III/bsp_os.c **** *                                          uCOS-III LAYER
  19:..\..\..\BSP\OS\uCOS-III/bsp_os.c **** *
  20:..\..\..\BSP\OS\uCOS-III/bsp_os.c **** * Filename      : bsp_os.c
  21:..\..\..\BSP\OS\uCOS-III/bsp_os.c **** * Version       : V1.00
  22:..\..\..\BSP\OS\uCOS-III/bsp_os.c **** * Programmer(s) : DC
  23:..\..\..\BSP\OS\uCOS-III/bsp_os.c **** ***************************************************************************************************
  24:..\..\..\BSP\OS\uCOS-III/bsp_os.c **** */
  25:..\..\..\BSP\OS\uCOS-III/bsp_os.c **** 
  26:..\..\..\BSP\OS\uCOS-III/bsp_os.c **** 
  27:..\..\..\BSP\OS\uCOS-III/bsp_os.c **** /*
  28:..\..\..\BSP\OS\uCOS-III/bsp_os.c **** ***************************************************************************************************
  29:..\..\..\BSP\OS\uCOS-III/bsp_os.c **** *                                             INCLUDE FILES
  30:..\..\..\BSP\OS\uCOS-III/bsp_os.c **** ***************************************************************************************************
ARM GAS  C:\Users\EDULU~1.DES\AppData\Local\Temp\ccfVVCDU.s 			page 2


  31:..\..\..\BSP\OS\uCOS-III/bsp_os.c **** */
  32:..\..\..\BSP\OS\uCOS-III/bsp_os.c **** 
  33:..\..\..\BSP\OS\uCOS-III/bsp_os.c **** #define  BSP_OS_MODULE
  34:..\..\..\BSP\OS\uCOS-III/bsp_os.c **** #include <bsp.h>
  35:..\..\..\BSP\OS\uCOS-III/bsp_os.c **** #include <bsp_os.h>
  36:..\..\..\BSP\OS\uCOS-III/bsp_os.c **** 
  37:..\..\..\BSP\OS\uCOS-III/bsp_os.c **** 
  38:..\..\..\BSP\OS\uCOS-III/bsp_os.c **** /*
  39:..\..\..\BSP\OS\uCOS-III/bsp_os.c **** ***************************************************************************************************
  40:..\..\..\BSP\OS\uCOS-III/bsp_os.c **** *                                            LOCAL DEFINES
  41:..\..\..\BSP\OS\uCOS-III/bsp_os.c **** ***************************************************************************************************
  42:..\..\..\BSP\OS\uCOS-III/bsp_os.c **** */
  43:..\..\..\BSP\OS\uCOS-III/bsp_os.c **** 
  44:..\..\..\BSP\OS\uCOS-III/bsp_os.c **** 
  45:..\..\..\BSP\OS\uCOS-III/bsp_os.c **** /*
  46:..\..\..\BSP\OS\uCOS-III/bsp_os.c **** ***************************************************************************************************
  47:..\..\..\BSP\OS\uCOS-III/bsp_os.c **** *                                           LOCAL CONSTANTS
  48:..\..\..\BSP\OS\uCOS-III/bsp_os.c **** ***************************************************************************************************
  49:..\..\..\BSP\OS\uCOS-III/bsp_os.c **** */
  50:..\..\..\BSP\OS\uCOS-III/bsp_os.c **** 
  51:..\..\..\BSP\OS\uCOS-III/bsp_os.c **** 
  52:..\..\..\BSP\OS\uCOS-III/bsp_os.c **** /*
  53:..\..\..\BSP\OS\uCOS-III/bsp_os.c **** ***************************************************************************************************
  54:..\..\..\BSP\OS\uCOS-III/bsp_os.c **** *                                          LOCAL DATA TYPES
  55:..\..\..\BSP\OS\uCOS-III/bsp_os.c **** ***************************************************************************************************
  56:..\..\..\BSP\OS\uCOS-III/bsp_os.c **** */
  57:..\..\..\BSP\OS\uCOS-III/bsp_os.c **** 
  58:..\..\..\BSP\OS\uCOS-III/bsp_os.c **** 
  59:..\..\..\BSP\OS\uCOS-III/bsp_os.c **** /*
  60:..\..\..\BSP\OS\uCOS-III/bsp_os.c **** ***************************************************************************************************
  61:..\..\..\BSP\OS\uCOS-III/bsp_os.c **** *                                            LOCAL TABLES
  62:..\..\..\BSP\OS\uCOS-III/bsp_os.c **** ***************************************************************************************************
  63:..\..\..\BSP\OS\uCOS-III/bsp_os.c **** */
  64:..\..\..\BSP\OS\uCOS-III/bsp_os.c **** 
  65:..\..\..\BSP\OS\uCOS-III/bsp_os.c **** 
  66:..\..\..\BSP\OS\uCOS-III/bsp_os.c **** /*
  67:..\..\..\BSP\OS\uCOS-III/bsp_os.c **** ***************************************************************************************************
  68:..\..\..\BSP\OS\uCOS-III/bsp_os.c **** *                                       LOCAL GLOBAL VARIABLES
  69:..\..\..\BSP\OS\uCOS-III/bsp_os.c **** ***************************************************************************************************
  70:..\..\..\BSP\OS\uCOS-III/bsp_os.c **** */
  71:..\..\..\BSP\OS\uCOS-III/bsp_os.c **** 
  72:..\..\..\BSP\OS\uCOS-III/bsp_os.c **** 
  73:..\..\..\BSP\OS\uCOS-III/bsp_os.c **** /*
  74:..\..\..\BSP\OS\uCOS-III/bsp_os.c **** ***************************************************************************************************
  75:..\..\..\BSP\OS\uCOS-III/bsp_os.c **** *                                      LOCAL FUNCTION PROTOTYPES
  76:..\..\..\BSP\OS\uCOS-III/bsp_os.c **** ***************************************************************************************************
  77:..\..\..\BSP\OS\uCOS-III/bsp_os.c **** */
  78:..\..\..\BSP\OS\uCOS-III/bsp_os.c **** 
  79:..\..\..\BSP\OS\uCOS-III/bsp_os.c **** 
  80:..\..\..\BSP\OS\uCOS-III/bsp_os.c **** /*
  81:..\..\..\BSP\OS\uCOS-III/bsp_os.c **** ***************************************************************************************************
  82:..\..\..\BSP\OS\uCOS-III/bsp_os.c **** *                                     LOCAL CONFIGURATION ERRORS
  83:..\..\..\BSP\OS\uCOS-III/bsp_os.c **** ***************************************************************************************************
  84:..\..\..\BSP\OS\uCOS-III/bsp_os.c **** */
  85:..\..\..\BSP\OS\uCOS-III/bsp_os.c **** 
  86:..\..\..\BSP\OS\uCOS-III/bsp_os.c **** /*
  87:..\..\..\BSP\OS\uCOS-III/bsp_os.c **** ***************************************************************************************************
ARM GAS  C:\Users\EDULU~1.DES\AppData\Local\Temp\ccfVVCDU.s 			page 3


  88:..\..\..\BSP\OS\uCOS-III/bsp_os.c **** ***************************************************************************************************
  89:..\..\..\BSP\OS\uCOS-III/bsp_os.c **** **                                         GLOBAL FUNCTIONS
  90:..\..\..\BSP\OS\uCOS-III/bsp_os.c **** ***************************************************************************************************
  91:..\..\..\BSP\OS\uCOS-III/bsp_os.c **** ***************************************************************************************************
  92:..\..\..\BSP\OS\uCOS-III/bsp_os.c **** */
  93:..\..\..\BSP\OS\uCOS-III/bsp_os.c **** 
  94:..\..\..\BSP\OS\uCOS-III/bsp_os.c **** 
  95:..\..\..\BSP\OS\uCOS-III/bsp_os.c **** /*
  96:..\..\..\BSP\OS\uCOS-III/bsp_os.c **** ***************************************************************************************************
  97:..\..\..\BSP\OS\uCOS-III/bsp_os.c **** ***************************************************************************************************
  98:..\..\..\BSP\OS\uCOS-III/bsp_os.c **** **                                     BSP OS LOCKS FUNCTIONS
  99:..\..\..\BSP\OS\uCOS-III/bsp_os.c **** ***************************************************************************************************
 100:..\..\..\BSP\OS\uCOS-III/bsp_os.c **** ***************************************************************************************************
 101:..\..\..\BSP\OS\uCOS-III/bsp_os.c **** */
 102:..\..\..\BSP\OS\uCOS-III/bsp_os.c **** 
 103:..\..\..\BSP\OS\uCOS-III/bsp_os.c **** /*
 104:..\..\..\BSP\OS\uCOS-III/bsp_os.c **** ***************************************************************************************************
 105:..\..\..\BSP\OS\uCOS-III/bsp_os.c **** ***************************************************************************************************
 106:..\..\..\BSP\OS\uCOS-III/bsp_os.c **** **                                     BSP OS LOCKS FUNCTIONS
 107:..\..\..\BSP\OS\uCOS-III/bsp_os.c **** ***************************************************************************************************
 108:..\..\..\BSP\OS\uCOS-III/bsp_os.c **** ***************************************************************************************************
 109:..\..\..\BSP\OS\uCOS-III/bsp_os.c **** */
 110:..\..\..\BSP\OS\uCOS-III/bsp_os.c **** 
 111:..\..\..\BSP\OS\uCOS-III/bsp_os.c **** /*
 112:..\..\..\BSP\OS\uCOS-III/bsp_os.c **** ***************************************************************************************************
 113:..\..\..\BSP\OS\uCOS-III/bsp_os.c **** *                                      BSP_OS_SemCreate()
 114:..\..\..\BSP\OS\uCOS-III/bsp_os.c **** *
 115:..\..\..\BSP\OS\uCOS-III/bsp_os.c **** * Description : Creates a sempahore to lock/unlock
 116:..\..\..\BSP\OS\uCOS-III/bsp_os.c **** *
 117:..\..\..\BSP\OS\uCOS-III/bsp_os.c **** * Argument(s) : p_sem        Pointer to a BSP_OS_SEM structure
 118:..\..\..\BSP\OS\uCOS-III/bsp_os.c **** *
 119:..\..\..\BSP\OS\uCOS-III/bsp_os.c **** *               sem_val      Initial value of the semaphore.
 120:..\..\..\BSP\OS\uCOS-III/bsp_os.c **** *
 121:..\..\..\BSP\OS\uCOS-III/bsp_os.c **** *               p_sem_name   Pointer to the semaphore name.
 122:..\..\..\BSP\OS\uCOS-III/bsp_os.c **** *
 123:..\..\..\BSP\OS\uCOS-III/bsp_os.c **** * Return(s)   : DEF_OK       if the semaphore was created.
 124:..\..\..\BSP\OS\uCOS-III/bsp_os.c **** *               DEF_FAIL     if the sempahore could not be created.
 125:..\..\..\BSP\OS\uCOS-III/bsp_os.c **** *
 126:..\..\..\BSP\OS\uCOS-III/bsp_os.c **** * Caller(s)   : Application.
 127:..\..\..\BSP\OS\uCOS-III/bsp_os.c **** *
 128:..\..\..\BSP\OS\uCOS-III/bsp_os.c **** * Note(s)     : none.
 129:..\..\..\BSP\OS\uCOS-III/bsp_os.c **** *
 130:..\..\..\BSP\OS\uCOS-III/bsp_os.c **** ***************************************************************************************************
 131:..\..\..\BSP\OS\uCOS-III/bsp_os.c **** */
 132:..\..\..\BSP\OS\uCOS-III/bsp_os.c **** 
 133:..\..\..\BSP\OS\uCOS-III/bsp_os.c **** CPU_BOOLEAN  BSP_OS_SemCreate (BSP_OS_SEM      *p_sem,
 134:..\..\..\BSP\OS\uCOS-III/bsp_os.c ****                                BSP_OS_SEM_VAL   sem_val,
 135:..\..\..\BSP\OS\uCOS-III/bsp_os.c ****                                CPU_CHAR        *p_sem_name)
 136:..\..\..\BSP\OS\uCOS-III/bsp_os.c **** {
  28              		.loc 1 136 0
  29              		.cfi_startproc
  30              		@ args = 0, pretend = 0, frame = 24
  31              		@ frame_needed = 1, uses_anonymous_args = 0
  32 0000 80B5     		push	{r7, lr}
  33              		.cfi_def_cfa_offset 8
  34              		.cfi_offset 7, -8
  35              		.cfi_offset 14, -4
ARM GAS  C:\Users\EDULU~1.DES\AppData\Local\Temp\ccfVVCDU.s 			page 4


  36 0002 86B0     		sub	sp, sp, #24
  37              		.cfi_def_cfa_offset 32
  38 0004 00AF     		add	r7, sp, #0
  39              		.cfi_def_cfa_register 7
  40 0006 F860     		str	r0, [r7, #12]
  41 0008 B960     		str	r1, [r7, #8]
  42 000a 7A60     		str	r2, [r7, #4]
 137:..\..\..\BSP\OS\uCOS-III/bsp_os.c ****     OS_ERR os_err;
 138:..\..\..\BSP\OS\uCOS-III/bsp_os.c **** 
 139:..\..\..\BSP\OS\uCOS-III/bsp_os.c **** 
 140:..\..\..\BSP\OS\uCOS-III/bsp_os.c ****     OSSemCreate( p_sem,
  43              		.loc 1 140 0
  44 000c 1623     		movs	r3, #22
  45 000e FB18     		adds	r3, r7, r3
  46 0010 BA68     		ldr	r2, [r7, #8]
  47 0012 7968     		ldr	r1, [r7, #4]
  48 0014 F868     		ldr	r0, [r7, #12]
  49 0016 FFF7FEFF 		bl	OSSemCreate
 141:..\..\..\BSP\OS\uCOS-III/bsp_os.c ****                  p_sem_name,
 142:..\..\..\BSP\OS\uCOS-III/bsp_os.c ****                  sem_val,
 143:..\..\..\BSP\OS\uCOS-III/bsp_os.c ****                 &os_err);
 144:..\..\..\BSP\OS\uCOS-III/bsp_os.c **** 
 145:..\..\..\BSP\OS\uCOS-III/bsp_os.c ****     if (os_err != OS_ERR_NONE) {
  50              		.loc 1 145 0
  51 001a 1623     		movs	r3, #22
  52 001c FB18     		adds	r3, r7, r3
  53 001e 1B88     		ldrh	r3, [r3]
  54 0020 002B     		cmp	r3, #0
  55 0022 01D0     		beq	.L2
 146:..\..\..\BSP\OS\uCOS-III/bsp_os.c ****         return (DEF_FAIL);
  56              		.loc 1 146 0
  57 0024 0023     		movs	r3, #0
  58 0026 00E0     		b	.L4
  59              	.L2:
 147:..\..\..\BSP\OS\uCOS-III/bsp_os.c ****     }
 148:..\..\..\BSP\OS\uCOS-III/bsp_os.c **** 
 149:..\..\..\BSP\OS\uCOS-III/bsp_os.c ****     return (DEF_OK);
  60              		.loc 1 149 0
  61 0028 0123     		movs	r3, #1
  62              	.L4:
 150:..\..\..\BSP\OS\uCOS-III/bsp_os.c **** }
  63              		.loc 1 150 0 discriminator 1
  64 002a 1800     		movs	r0, r3
  65 002c BD46     		mov	sp, r7
  66 002e 06B0     		add	sp, sp, #24
  67              		@ sp needed
  68 0030 80BD     		pop	{r7, pc}
  69              		.cfi_endproc
  70              	.LFE33:
  71              		.size	BSP_OS_SemCreate, .-BSP_OS_SemCreate
  72              		.global	__aeabi_uidiv
  73 0032 C046     		.section	.text.BSP_OS_SemWait,"ax",%progbits
  74              		.align	2
  75              		.global	BSP_OS_SemWait
  76              		.code	16
  77              		.thumb_func
  78              		.type	BSP_OS_SemWait, %function
ARM GAS  C:\Users\EDULU~1.DES\AppData\Local\Temp\ccfVVCDU.s 			page 5


  79              	BSP_OS_SemWait:
  80              	.LFB34:
 151:..\..\..\BSP\OS\uCOS-III/bsp_os.c **** 
 152:..\..\..\BSP\OS\uCOS-III/bsp_os.c **** 
 153:..\..\..\BSP\OS\uCOS-III/bsp_os.c **** /*
 154:..\..\..\BSP\OS\uCOS-III/bsp_os.c **** ***************************************************************************************************
 155:..\..\..\BSP\OS\uCOS-III/bsp_os.c **** *                                     BSP_OS_SemWait()
 156:..\..\..\BSP\OS\uCOS-III/bsp_os.c **** *
 157:..\..\..\BSP\OS\uCOS-III/bsp_os.c **** * Description : Wait on a semaphore to become available
 158:..\..\..\BSP\OS\uCOS-III/bsp_os.c **** *
 159:..\..\..\BSP\OS\uCOS-III/bsp_os.c **** * Argument(s) : sem          sempahore handler
 160:..\..\..\BSP\OS\uCOS-III/bsp_os.c **** *
 161:..\..\..\BSP\OS\uCOS-III/bsp_os.c **** *               dly_ms       delay in miliseconds to wait on the semaphore
 162:..\..\..\BSP\OS\uCOS-III/bsp_os.c **** *
 163:..\..\..\BSP\OS\uCOS-III/bsp_os.c **** * Return(s)   : DEF_OK       if the semaphore was acquire
 164:..\..\..\BSP\OS\uCOS-III/bsp_os.c **** *               DEF_FAIL     if the sempahore could not be acquire
 165:..\..\..\BSP\OS\uCOS-III/bsp_os.c **** *
 166:..\..\..\BSP\OS\uCOS-III/bsp_os.c **** * Caller(s)   : Application.
 167:..\..\..\BSP\OS\uCOS-III/bsp_os.c **** *
 168:..\..\..\BSP\OS\uCOS-III/bsp_os.c **** * Note(s)     : none.
 169:..\..\..\BSP\OS\uCOS-III/bsp_os.c **** ***************************************************************************************************
 170:..\..\..\BSP\OS\uCOS-III/bsp_os.c **** */
 171:..\..\..\BSP\OS\uCOS-III/bsp_os.c **** 
 172:..\..\..\BSP\OS\uCOS-III/bsp_os.c **** CPU_BOOLEAN  BSP_OS_SemWait (BSP_OS_SEM  *p_sem,
 173:..\..\..\BSP\OS\uCOS-III/bsp_os.c ****                              CPU_INT32U   dly_ms)
 174:..\..\..\BSP\OS\uCOS-III/bsp_os.c **** {
  81              		.loc 1 174 0
  82              		.cfi_startproc
  83              		@ args = 0, pretend = 0, frame = 16
  84              		@ frame_needed = 1, uses_anonymous_args = 0
  85 0000 80B5     		push	{r7, lr}
  86              		.cfi_def_cfa_offset 8
  87              		.cfi_offset 7, -8
  88              		.cfi_offset 14, -4
  89 0002 86B0     		sub	sp, sp, #24
  90              		.cfi_def_cfa_offset 32
  91 0004 02AF     		add	r7, sp, #8
  92              		.cfi_def_cfa 7, 24
  93 0006 7860     		str	r0, [r7, #4]
  94 0008 3960     		str	r1, [r7]
 175:..\..\..\BSP\OS\uCOS-III/bsp_os.c ****     OS_ERR      os_err;
 176:..\..\..\BSP\OS\uCOS-III/bsp_os.c ****     CPU_INT32U  dly_ticks;
 177:..\..\..\BSP\OS\uCOS-III/bsp_os.c **** 
 178:..\..\..\BSP\OS\uCOS-III/bsp_os.c **** 
 179:..\..\..\BSP\OS\uCOS-III/bsp_os.c ****     dly_ticks  = ((dly_ms * DEF_TIME_NBR_mS_PER_SEC) / OSCfg_TickRate_Hz);
  95              		.loc 1 179 0
  96 000a 3B68     		ldr	r3, [r7]
  97 000c FA22     		movs	r2, #250
  98 000e 9200     		lsls	r2, r2, #2
  99 0010 5A43     		muls	r2, r3
 100 0012 0E4B     		ldr	r3, .L9
 101 0014 1B68     		ldr	r3, [r3]
 102 0016 1900     		movs	r1, r3
 103 0018 1000     		movs	r0, r2
 104 001a FFF7FEFF 		bl	__aeabi_uidiv
 105 001e 0300     		movs	r3, r0
 106 0020 FB60     		str	r3, [r7, #12]
ARM GAS  C:\Users\EDULU~1.DES\AppData\Local\Temp\ccfVVCDU.s 			page 6


 180:..\..\..\BSP\OS\uCOS-III/bsp_os.c **** 
 181:..\..\..\BSP\OS\uCOS-III/bsp_os.c ****     OSSemPend( p_sem,
 107              		.loc 1 181 0
 108 0022 F968     		ldr	r1, [r7, #12]
 109 0024 7868     		ldr	r0, [r7, #4]
 110 0026 0A23     		movs	r3, #10
 111 0028 FB18     		adds	r3, r7, r3
 112 002a 0093     		str	r3, [sp]
 113 002c 0023     		movs	r3, #0
 114 002e 0022     		movs	r2, #0
 115 0030 FFF7FEFF 		bl	OSSemPend
 182:..\..\..\BSP\OS\uCOS-III/bsp_os.c ****                dly_ticks,
 183:..\..\..\BSP\OS\uCOS-III/bsp_os.c ****                OS_OPT_PEND_BLOCKING,
 184:..\..\..\BSP\OS\uCOS-III/bsp_os.c ****                0u,
 185:..\..\..\BSP\OS\uCOS-III/bsp_os.c ****               &os_err);
 186:..\..\..\BSP\OS\uCOS-III/bsp_os.c **** 
 187:..\..\..\BSP\OS\uCOS-III/bsp_os.c ****     if (os_err != OS_ERR_NONE) {
 116              		.loc 1 187 0
 117 0034 0A23     		movs	r3, #10
 118 0036 FB18     		adds	r3, r7, r3
 119 0038 1B88     		ldrh	r3, [r3]
 120 003a 002B     		cmp	r3, #0
 121 003c 01D0     		beq	.L6
 188:..\..\..\BSP\OS\uCOS-III/bsp_os.c ****        return (DEF_FAIL);
 122              		.loc 1 188 0
 123 003e 0023     		movs	r3, #0
 124 0040 00E0     		b	.L8
 125              	.L6:
 189:..\..\..\BSP\OS\uCOS-III/bsp_os.c ****     }
 190:..\..\..\BSP\OS\uCOS-III/bsp_os.c **** 
 191:..\..\..\BSP\OS\uCOS-III/bsp_os.c ****     return (DEF_OK);
 126              		.loc 1 191 0
 127 0042 0123     		movs	r3, #1
 128              	.L8:
 192:..\..\..\BSP\OS\uCOS-III/bsp_os.c **** }
 129              		.loc 1 192 0 discriminator 1
 130 0044 1800     		movs	r0, r3
 131 0046 BD46     		mov	sp, r7
 132 0048 04B0     		add	sp, sp, #16
 133              		@ sp needed
 134 004a 80BD     		pop	{r7, pc}
 135              	.L10:
 136              		.align	2
 137              	.L9:
 138 004c 00000000 		.word	OSCfg_TickRate_Hz
 139              		.cfi_endproc
 140              	.LFE34:
 141              		.size	BSP_OS_SemWait, .-BSP_OS_SemWait
 142              		.section	.text.BSP_OS_SemPost,"ax",%progbits
 143              		.align	2
 144              		.global	BSP_OS_SemPost
 145              		.code	16
 146              		.thumb_func
 147              		.type	BSP_OS_SemPost, %function
 148              	BSP_OS_SemPost:
 149              	.LFB35:
 193:..\..\..\BSP\OS\uCOS-III/bsp_os.c **** 
ARM GAS  C:\Users\EDULU~1.DES\AppData\Local\Temp\ccfVVCDU.s 			page 7


 194:..\..\..\BSP\OS\uCOS-III/bsp_os.c **** /*
 195:..\..\..\BSP\OS\uCOS-III/bsp_os.c **** ***************************************************************************************************
 196:..\..\..\BSP\OS\uCOS-III/bsp_os.c **** *                                      BSP_OS_SemPost()
 197:..\..\..\BSP\OS\uCOS-III/bsp_os.c **** *
 198:..\..\..\BSP\OS\uCOS-III/bsp_os.c **** * Description : Post a semaphore
 199:..\..\..\BSP\OS\uCOS-III/bsp_os.c **** *
 200:..\..\..\BSP\OS\uCOS-III/bsp_os.c **** * Argument(s) : sem          Semaphore handler
 201:..\..\..\BSP\OS\uCOS-III/bsp_os.c **** *
 202:..\..\..\BSP\OS\uCOS-III/bsp_os.c **** * Return(s)   : DEF_OK       if the semaphore was posted.
 203:..\..\..\BSP\OS\uCOS-III/bsp_os.c **** *               DEF_FAIL     if the sempahore could not be posted.
 204:..\..\..\BSP\OS\uCOS-III/bsp_os.c **** *
 205:..\..\..\BSP\OS\uCOS-III/bsp_os.c **** * Caller(s)   : Application.
 206:..\..\..\BSP\OS\uCOS-III/bsp_os.c **** *
 207:..\..\..\BSP\OS\uCOS-III/bsp_os.c **** * Note(s)     : none.
 208:..\..\..\BSP\OS\uCOS-III/bsp_os.c **** ***************************************************************************************************
 209:..\..\..\BSP\OS\uCOS-III/bsp_os.c **** */
 210:..\..\..\BSP\OS\uCOS-III/bsp_os.c **** 
 211:..\..\..\BSP\OS\uCOS-III/bsp_os.c **** CPU_BOOLEAN  BSP_OS_SemPost (BSP_OS_SEM *p_sem)
 212:..\..\..\BSP\OS\uCOS-III/bsp_os.c **** {
 150              		.loc 1 212 0
 151              		.cfi_startproc
 152              		@ args = 0, pretend = 0, frame = 16
 153              		@ frame_needed = 1, uses_anonymous_args = 0
 154 0000 80B5     		push	{r7, lr}
 155              		.cfi_def_cfa_offset 8
 156              		.cfi_offset 7, -8
 157              		.cfi_offset 14, -4
 158 0002 84B0     		sub	sp, sp, #16
 159              		.cfi_def_cfa_offset 24
 160 0004 00AF     		add	r7, sp, #0
 161              		.cfi_def_cfa_register 7
 162 0006 7860     		str	r0, [r7, #4]
 213:..\..\..\BSP\OS\uCOS-III/bsp_os.c ****     OS_ERR  os_err;
 214:..\..\..\BSP\OS\uCOS-III/bsp_os.c **** 
 215:..\..\..\BSP\OS\uCOS-III/bsp_os.c **** 
 216:..\..\..\BSP\OS\uCOS-III/bsp_os.c ****     OSSemPost( p_sem,
 163              		.loc 1 216 0
 164 0008 0E23     		movs	r3, #14
 165 000a FA18     		adds	r2, r7, r3
 166 000c 7B68     		ldr	r3, [r7, #4]
 167 000e 0021     		movs	r1, #0
 168 0010 1800     		movs	r0, r3
 169 0012 FFF7FEFF 		bl	OSSemPost
 217:..\..\..\BSP\OS\uCOS-III/bsp_os.c ****                OS_OPT_POST_1,
 218:..\..\..\BSP\OS\uCOS-III/bsp_os.c ****                &os_err);
 219:..\..\..\BSP\OS\uCOS-III/bsp_os.c **** 
 220:..\..\..\BSP\OS\uCOS-III/bsp_os.c ****     if (os_err != OS_ERR_NONE) {
 170              		.loc 1 220 0
 171 0016 0E23     		movs	r3, #14
 172 0018 FB18     		adds	r3, r7, r3
 173 001a 1B88     		ldrh	r3, [r3]
 174 001c 002B     		cmp	r3, #0
 175 001e 01D0     		beq	.L12
 221:..\..\..\BSP\OS\uCOS-III/bsp_os.c ****         return (DEF_FAIL);
 176              		.loc 1 221 0
 177 0020 0023     		movs	r3, #0
 178 0022 00E0     		b	.L14
ARM GAS  C:\Users\EDULU~1.DES\AppData\Local\Temp\ccfVVCDU.s 			page 8


 179              	.L12:
 222:..\..\..\BSP\OS\uCOS-III/bsp_os.c ****     }
 223:..\..\..\BSP\OS\uCOS-III/bsp_os.c **** 
 224:..\..\..\BSP\OS\uCOS-III/bsp_os.c ****     return (DEF_OK);
 180              		.loc 1 224 0
 181 0024 0123     		movs	r3, #1
 182              	.L14:
 225:..\..\..\BSP\OS\uCOS-III/bsp_os.c **** }
 183              		.loc 1 225 0 discriminator 1
 184 0026 1800     		movs	r0, r3
 185 0028 BD46     		mov	sp, r7
 186 002a 04B0     		add	sp, sp, #16
 187              		@ sp needed
 188 002c 80BD     		pop	{r7, pc}
 189              		.cfi_endproc
 190              	.LFE35:
 191              		.size	BSP_OS_SemPost, .-BSP_OS_SemPost
 192              		.global	__aeabi_uidivmod
 193              		.section	.text.BSP_OS_TimeDlyMs,"ax",%progbits
 194              		.align	2
 195              		.global	BSP_OS_TimeDlyMs
 196              		.code	16
 197              		.thumb_func
 198              		.type	BSP_OS_TimeDlyMs, %function
 199              	BSP_OS_TimeDlyMs:
 200              	.LFB36:
 226:..\..\..\BSP\OS\uCOS-III/bsp_os.c **** 
 227:..\..\..\BSP\OS\uCOS-III/bsp_os.c **** 
 228:..\..\..\BSP\OS\uCOS-III/bsp_os.c **** /*
 229:..\..\..\BSP\OS\uCOS-III/bsp_os.c **** ***************************************************************************************************
 230:..\..\..\BSP\OS\uCOS-III/bsp_os.c **** ***************************************************************************************************
 231:..\..\..\BSP\OS\uCOS-III/bsp_os.c **** **                                     uC/OS-III TIMER FUNCTIONS
 232:..\..\..\BSP\OS\uCOS-III/bsp_os.c **** ***************************************************************************************************
 233:..\..\..\BSP\OS\uCOS-III/bsp_os.c **** ***************************************************************************************************
 234:..\..\..\BSP\OS\uCOS-III/bsp_os.c **** */
 235:..\..\..\BSP\OS\uCOS-III/bsp_os.c **** 
 236:..\..\..\BSP\OS\uCOS-III/bsp_os.c **** /*
 237:..\..\..\BSP\OS\uCOS-III/bsp_os.c **** ***************************************************************************************************
 238:..\..\..\BSP\OS\uCOS-III/bsp_os.c **** *                                    BSP_TimeDlyMs()
 239:..\..\..\BSP\OS\uCOS-III/bsp_os.c **** *
 240:..\..\..\BSP\OS\uCOS-III/bsp_os.c **** * Description : This function delay the exceution for specifi amount of miliseconds
 241:..\..\..\BSP\OS\uCOS-III/bsp_os.c **** *
 242:..\..\..\BSP\OS\uCOS-III/bsp_os.c **** * Argument(s) : dly_ms       Delay in miliseconds
 243:..\..\..\BSP\OS\uCOS-III/bsp_os.c **** *
 244:..\..\..\BSP\OS\uCOS-III/bsp_os.c **** * Return(s)   : none.
 245:..\..\..\BSP\OS\uCOS-III/bsp_os.c **** *
 246:..\..\..\BSP\OS\uCOS-III/bsp_os.c **** * Caller(s)   : Application
 247:..\..\..\BSP\OS\uCOS-III/bsp_os.c **** *
 248:..\..\..\BSP\OS\uCOS-III/bsp_os.c **** * Note(s)     : none.
 249:..\..\..\BSP\OS\uCOS-III/bsp_os.c **** *
 250:..\..\..\BSP\OS\uCOS-III/bsp_os.c **** ***************************************************************************************************
 251:..\..\..\BSP\OS\uCOS-III/bsp_os.c **** */
 252:..\..\..\BSP\OS\uCOS-III/bsp_os.c **** 
 253:..\..\..\BSP\OS\uCOS-III/bsp_os.c **** void  BSP_OS_TimeDlyMs (CPU_INT32U  dly_ms)
 254:..\..\..\BSP\OS\uCOS-III/bsp_os.c **** {
 201              		.loc 1 254 0
 202              		.cfi_startproc
ARM GAS  C:\Users\EDULU~1.DES\AppData\Local\Temp\ccfVVCDU.s 			page 9


 203              		@ args = 0, pretend = 0, frame = 16
 204              		@ frame_needed = 1, uses_anonymous_args = 0
 205 0000 80B5     		push	{r7, lr}
 206              		.cfi_def_cfa_offset 8
 207              		.cfi_offset 7, -8
 208              		.cfi_offset 14, -4
 209 0002 86B0     		sub	sp, sp, #24
 210              		.cfi_def_cfa_offset 32
 211 0004 02AF     		add	r7, sp, #8
 212              		.cfi_def_cfa 7, 24
 213 0006 7860     		str	r0, [r7, #4]
 255:..\..\..\BSP\OS\uCOS-III/bsp_os.c ****     CPU_INT16U  ms;
 256:..\..\..\BSP\OS\uCOS-III/bsp_os.c ****     CPU_INT16U  sec;
 257:..\..\..\BSP\OS\uCOS-III/bsp_os.c ****     OS_ERR      os_err;
 258:..\..\..\BSP\OS\uCOS-III/bsp_os.c **** 
 259:..\..\..\BSP\OS\uCOS-III/bsp_os.c **** 
 260:..\..\..\BSP\OS\uCOS-III/bsp_os.c ****     if (dly_ms > 10000u) {                                       /* Limit delays to 10 seconds.    
 214              		.loc 1 260 0
 215 0008 7B68     		ldr	r3, [r7, #4]
 216 000a 1E4A     		ldr	r2, .L19
 217 000c 9342     		cmp	r3, r2
 218 000e 01D9     		bls	.L16
 261:..\..\..\BSP\OS\uCOS-III/bsp_os.c ****         dly_ms = 10000u;
 219              		.loc 1 261 0
 220 0010 1C4B     		ldr	r3, .L19
 221 0012 7B60     		str	r3, [r7, #4]
 222              	.L16:
 262:..\..\..\BSP\OS\uCOS-III/bsp_os.c ****     }
 263:..\..\..\BSP\OS\uCOS-III/bsp_os.c **** 
 264:..\..\..\BSP\OS\uCOS-III/bsp_os.c ****     if (dly_ms >= 1000u) {
 223              		.loc 1 264 0
 224 0014 7B68     		ldr	r3, [r7, #4]
 225 0016 1C4A     		ldr	r2, .L19+4
 226 0018 9342     		cmp	r3, r2
 227 001a 16D9     		bls	.L17
 265:..\..\..\BSP\OS\uCOS-III/bsp_os.c ****         sec = dly_ms / 1000u;
 228              		.loc 1 265 0
 229 001c 7A68     		ldr	r2, [r7, #4]
 230 001e FA23     		movs	r3, #250
 231 0020 9900     		lsls	r1, r3, #2
 232 0022 1000     		movs	r0, r2
 233 0024 FFF7FEFF 		bl	__aeabi_uidiv
 234 0028 0300     		movs	r3, r0
 235 002a 1A00     		movs	r2, r3
 236 002c 0C23     		movs	r3, #12
 237 002e FB18     		adds	r3, r7, r3
 238 0030 1A80     		strh	r2, [r3]
 266:..\..\..\BSP\OS\uCOS-III/bsp_os.c ****         ms  = dly_ms % 1000u;
 239              		.loc 1 266 0
 240 0032 7A68     		ldr	r2, [r7, #4]
 241 0034 FA23     		movs	r3, #250
 242 0036 9900     		lsls	r1, r3, #2
 243 0038 1000     		movs	r0, r2
 244 003a FFF7FEFF 		bl	__aeabi_uidivmod
 245 003e 0B00     		movs	r3, r1
 246 0040 1A00     		movs	r2, r3
 247 0042 0E23     		movs	r3, #14
ARM GAS  C:\Users\EDULU~1.DES\AppData\Local\Temp\ccfVVCDU.s 			page 10


 248 0044 FB18     		adds	r3, r7, r3
 249 0046 1A80     		strh	r2, [r3]
 250 0048 07E0     		b	.L18
 251              	.L17:
 267:..\..\..\BSP\OS\uCOS-III/bsp_os.c ****     } else {
 268:..\..\..\BSP\OS\uCOS-III/bsp_os.c ****         ms  = dly_ms;
 252              		.loc 1 268 0
 253 004a 0E23     		movs	r3, #14
 254 004c FB18     		adds	r3, r7, r3
 255 004e 7A68     		ldr	r2, [r7, #4]
 256 0050 1A80     		strh	r2, [r3]
 269:..\..\..\BSP\OS\uCOS-III/bsp_os.c ****         sec = 0u;
 257              		.loc 1 269 0
 258 0052 0C23     		movs	r3, #12
 259 0054 FB18     		adds	r3, r7, r3
 260 0056 0022     		movs	r2, #0
 261 0058 1A80     		strh	r2, [r3]
 262              	.L18:
 270:..\..\..\BSP\OS\uCOS-III/bsp_os.c ****     }
 271:..\..\..\BSP\OS\uCOS-III/bsp_os.c **** 
 272:..\..\..\BSP\OS\uCOS-III/bsp_os.c ****     OSTimeDlyHMSM(0u, 0u, sec, ms,
 263              		.loc 1 272 0
 264 005a 0E23     		movs	r3, #14
 265 005c FB18     		adds	r3, r7, r3
 266 005e 1988     		ldrh	r1, [r3]
 267 0060 0C23     		movs	r3, #12
 268 0062 FB18     		adds	r3, r7, r3
 269 0064 1A88     		ldrh	r2, [r3]
 270 0066 0A23     		movs	r3, #10
 271 0068 FB18     		adds	r3, r7, r3
 272 006a 0193     		str	r3, [sp, #4]
 273 006c 0023     		movs	r3, #0
 274 006e 0093     		str	r3, [sp]
 275 0070 0B00     		movs	r3, r1
 276 0072 0021     		movs	r1, #0
 277 0074 0020     		movs	r0, #0
 278 0076 FFF7FEFF 		bl	OSTimeDlyHMSM
 273:..\..\..\BSP\OS\uCOS-III/bsp_os.c ****                   OS_OPT_TIME_HMSM_STRICT, &os_err);
 274:..\..\..\BSP\OS\uCOS-III/bsp_os.c **** }
 279              		.loc 1 274 0
 280 007a C046     		nop
 281 007c BD46     		mov	sp, r7
 282 007e 04B0     		add	sp, sp, #16
 283              		@ sp needed
 284 0080 80BD     		pop	{r7, pc}
 285              	.L20:
 286 0082 C046     		.align	2
 287              	.L19:
 288 0084 10270000 		.word	10000
 289 0088 E7030000 		.word	999
 290              		.cfi_endproc
 291              	.LFE36:
 292              		.size	BSP_OS_TimeDlyMs, .-BSP_OS_TimeDlyMs
 293              		.section	.text.BSP_OS_TimeDly,"ax",%progbits
 294              		.align	2
 295              		.global	BSP_OS_TimeDly
 296              		.code	16
ARM GAS  C:\Users\EDULU~1.DES\AppData\Local\Temp\ccfVVCDU.s 			page 11


 297              		.thumb_func
 298              		.type	BSP_OS_TimeDly, %function
 299              	BSP_OS_TimeDly:
 300              	.LFB37:
 275:..\..\..\BSP\OS\uCOS-III/bsp_os.c **** 
 276:..\..\..\BSP\OS\uCOS-III/bsp_os.c **** 
 277:..\..\..\BSP\OS\uCOS-III/bsp_os.c **** /*
 278:..\..\..\BSP\OS\uCOS-III/bsp_os.c **** ***************************************************************************************************
 279:..\..\..\BSP\OS\uCOS-III/bsp_os.c **** *                                     BSP_TimeDly()
 280:..\..\..\BSP\OS\uCOS-III/bsp_os.c **** *
 281:..\..\..\BSP\OS\uCOS-III/bsp_os.c **** * Description : This function delay the exceution for specific amount of clk ticks
 282:..\..\..\BSP\OS\uCOS-III/bsp_os.c **** *
 283:..\..\..\BSP\OS\uCOS-III/bsp_os.c **** * Argument(s) : dly_tick     Delay in clk ticks
 284:..\..\..\BSP\OS\uCOS-III/bsp_os.c **** *
 285:..\..\..\BSP\OS\uCOS-III/bsp_os.c **** * Return(s)   : none.
 286:..\..\..\BSP\OS\uCOS-III/bsp_os.c **** *
 287:..\..\..\BSP\OS\uCOS-III/bsp_os.c **** * Caller(s)   : Application
 288:..\..\..\BSP\OS\uCOS-III/bsp_os.c **** *
 289:..\..\..\BSP\OS\uCOS-III/bsp_os.c **** * Note(s)     : none.
 290:..\..\..\BSP\OS\uCOS-III/bsp_os.c **** *
 291:..\..\..\BSP\OS\uCOS-III/bsp_os.c **** ***************************************************************************************************
 292:..\..\..\BSP\OS\uCOS-III/bsp_os.c **** */
 293:..\..\..\BSP\OS\uCOS-III/bsp_os.c **** 
 294:..\..\..\BSP\OS\uCOS-III/bsp_os.c **** void  BSP_OS_TimeDly (CPU_INT32U  dly_tick)
 295:..\..\..\BSP\OS\uCOS-III/bsp_os.c **** {
 301              		.loc 1 295 0
 302              		.cfi_startproc
 303              		@ args = 0, pretend = 0, frame = 16
 304              		@ frame_needed = 1, uses_anonymous_args = 0
 305 0000 80B5     		push	{r7, lr}
 306              		.cfi_def_cfa_offset 8
 307              		.cfi_offset 7, -8
 308              		.cfi_offset 14, -4
 309 0002 84B0     		sub	sp, sp, #16
 310              		.cfi_def_cfa_offset 24
 311 0004 00AF     		add	r7, sp, #0
 312              		.cfi_def_cfa_register 7
 313 0006 7860     		str	r0, [r7, #4]
 296:..\..\..\BSP\OS\uCOS-III/bsp_os.c ****     OS_ERR  os_err;
 297:..\..\..\BSP\OS\uCOS-III/bsp_os.c **** 
 298:..\..\..\BSP\OS\uCOS-III/bsp_os.c ****     OSTimeDly( dly_tick,
 314              		.loc 1 298 0
 315 0008 0E23     		movs	r3, #14
 316 000a FA18     		adds	r2, r7, r3
 317 000c 7B68     		ldr	r3, [r7, #4]
 318 000e 0021     		movs	r1, #0
 319 0010 1800     		movs	r0, r3
 320 0012 FFF7FEFF 		bl	OSTimeDly
 299:..\..\..\BSP\OS\uCOS-III/bsp_os.c ****                OS_OPT_TIME_DLY,
 300:..\..\..\BSP\OS\uCOS-III/bsp_os.c ****               &os_err);
 301:..\..\..\BSP\OS\uCOS-III/bsp_os.c **** 
 302:..\..\..\BSP\OS\uCOS-III/bsp_os.c ****    (void)&os_err;
 303:..\..\..\BSP\OS\uCOS-III/bsp_os.c **** }
 321              		.loc 1 303 0
 322 0016 C046     		nop
 323 0018 BD46     		mov	sp, r7
 324 001a 04B0     		add	sp, sp, #16
ARM GAS  C:\Users\EDULU~1.DES\AppData\Local\Temp\ccfVVCDU.s 			page 12


 325              		@ sp needed
 326 001c 80BD     		pop	{r7, pc}
 327              		.cfi_endproc
 328              	.LFE37:
 329              		.size	BSP_OS_TimeDly, .-BSP_OS_TimeDly
 330 001e C046     		.text
 331              	.Letext0:
 332              		.file 2 "..\\..\\..\\..\\..\\..\\Software\\uC-CPU\\ARM-Cortex-M0\\GNU/cpu.h"
 333              		.file 3 "..\\..\\..\\..\\..\\..\\Software\\uC-CPU/cpu_core.h"
 334              		.file 4 "..\\..\\..\\..\\..\\..\\Software\\uCOS-III\\Source/os_type.h"
 335              		.file 5 "..\\..\\..\\..\\..\\..\\Software\\uCOS-III\\Source/os.h"
 336              		.file 6 "..\\..\\..\\BSP\\OS\\uCOS-III/bsp_os.h"