ARM GAS  C:\Users\EDULU~1.DES\AppData\Local\Temp\ccf7BJV7.s 			page 1


   1              		.syntax unified
   2              		.cpu cortex-m0
   3              		.fpu softvfp
   4              		.eabi_attribute 20, 1
   5              		.eabi_attribute 21, 1
   6              		.eabi_attribute 23, 3
   7              		.eabi_attribute 24, 1
   8              		.eabi_attribute 25, 1
   9              		.eabi_attribute 26, 1
  10              		.eabi_attribute 30, 6
  11              		.eabi_attribute 34, 0
  12              		.eabi_attribute 18, 4
  13              		.thumb
  14              		.syntax unified
  15              		.file	"cyfitter_cfg.c"
  16              		.text
  17              	.Ltext0:
  18              		.cfi_sections	.debug_frame
  19              		.section	.text.CYMEMZERO,"ax",%progbits
  20              		.align	2
  21              		.code	16
  22              		.thumb_func
  23              		.type	CYMEMZERO, %function
  24              	CYMEMZERO:
  25              	.LFB0:
  26              		.file 1 "Generated_Source\\PSoC4\\cyfitter_cfg.c"
   1:Generated_Source\PSoC4/cyfitter_cfg.c **** 
   2:Generated_Source\PSoC4/cyfitter_cfg.c **** /*******************************************************************************
   3:Generated_Source\PSoC4/cyfitter_cfg.c **** * File Name: cyfitter_cfg.c
   4:Generated_Source\PSoC4/cyfitter_cfg.c **** * 
   5:Generated_Source\PSoC4/cyfitter_cfg.c **** * PSoC Creator  4.2
   6:Generated_Source\PSoC4/cyfitter_cfg.c **** *
   7:Generated_Source\PSoC4/cyfitter_cfg.c **** * Description:
   8:Generated_Source\PSoC4/cyfitter_cfg.c **** * This file contains device initialization code.
   9:Generated_Source\PSoC4/cyfitter_cfg.c **** * Except for the user defined sections in CyClockStartupError(), this file should not be modified.
  10:Generated_Source\PSoC4/cyfitter_cfg.c **** * This file is automatically generated by PSoC Creator.
  11:Generated_Source\PSoC4/cyfitter_cfg.c **** *
  12:Generated_Source\PSoC4/cyfitter_cfg.c **** ********************************************************************************
  13:Generated_Source\PSoC4/cyfitter_cfg.c **** * Copyright (c) 2007-2018 Cypress Semiconductor.  All rights reserved.
  14:Generated_Source\PSoC4/cyfitter_cfg.c **** * You may use this file only in accordance with the license, terms, conditions, 
  15:Generated_Source\PSoC4/cyfitter_cfg.c **** * disclaimers, and limitations in the end user license agreement accompanying 
  16:Generated_Source\PSoC4/cyfitter_cfg.c **** * the software package with which this file was provided.
  17:Generated_Source\PSoC4/cyfitter_cfg.c **** ********************************************************************************/
  18:Generated_Source\PSoC4/cyfitter_cfg.c **** 
  19:Generated_Source\PSoC4/cyfitter_cfg.c **** #include <string.h>
  20:Generated_Source\PSoC4/cyfitter_cfg.c **** #include "cytypes.h"
  21:Generated_Source\PSoC4/cyfitter_cfg.c **** #include "cydevice_trm.h"
  22:Generated_Source\PSoC4/cyfitter_cfg.c **** #include "cyfitter.h"
  23:Generated_Source\PSoC4/cyfitter_cfg.c **** #include "CyLib.h"
  24:Generated_Source\PSoC4/cyfitter_cfg.c **** #include "CyLFClk.h"
  25:Generated_Source\PSoC4/cyfitter_cfg.c **** #include "cyfitter_cfg.h"
  26:Generated_Source\PSoC4/cyfitter_cfg.c **** 
  27:Generated_Source\PSoC4/cyfitter_cfg.c **** 
  28:Generated_Source\PSoC4/cyfitter_cfg.c **** #if defined(__GNUC__) || defined(__ARMCC_VERSION)
  29:Generated_Source\PSoC4/cyfitter_cfg.c ****     #define CYPACKED 
  30:Generated_Source\PSoC4/cyfitter_cfg.c ****     #define CYPACKED_ATTR __attribute__ ((packed))
  31:Generated_Source\PSoC4/cyfitter_cfg.c ****     #define CYALIGNED __attribute__ ((aligned))
ARM GAS  C:\Users\EDULU~1.DES\AppData\Local\Temp\ccf7BJV7.s 			page 2


  32:Generated_Source\PSoC4/cyfitter_cfg.c ****     #define CY_CFG_UNUSED __attribute__ ((unused))
  33:Generated_Source\PSoC4/cyfitter_cfg.c ****     #ifndef CY_CFG_SECTION
  34:Generated_Source\PSoC4/cyfitter_cfg.c ****         #define CY_CFG_SECTION __attribute__ ((section(".psocinit")))
  35:Generated_Source\PSoC4/cyfitter_cfg.c ****     #endif
  36:Generated_Source\PSoC4/cyfitter_cfg.c ****     
  37:Generated_Source\PSoC4/cyfitter_cfg.c ****     #if defined(__ARMCC_VERSION)
  38:Generated_Source\PSoC4/cyfitter_cfg.c ****         #define CY_CFG_MEMORY_BARRIER() __memory_changed()
  39:Generated_Source\PSoC4/cyfitter_cfg.c ****     #else
  40:Generated_Source\PSoC4/cyfitter_cfg.c ****         #define CY_CFG_MEMORY_BARRIER() __sync_synchronize()
  41:Generated_Source\PSoC4/cyfitter_cfg.c ****     #endif
  42:Generated_Source\PSoC4/cyfitter_cfg.c ****     
  43:Generated_Source\PSoC4/cyfitter_cfg.c **** #elif defined(__ICCARM__)
  44:Generated_Source\PSoC4/cyfitter_cfg.c ****     #include <intrinsics.h>
  45:Generated_Source\PSoC4/cyfitter_cfg.c **** 
  46:Generated_Source\PSoC4/cyfitter_cfg.c ****     #define CYPACKED __packed
  47:Generated_Source\PSoC4/cyfitter_cfg.c ****     #define CYPACKED_ATTR 
  48:Generated_Source\PSoC4/cyfitter_cfg.c ****     #define CYALIGNED _Pragma("data_alignment=4")
  49:Generated_Source\PSoC4/cyfitter_cfg.c ****     #define CY_CFG_UNUSED _Pragma("diag_suppress=Pe177")
  50:Generated_Source\PSoC4/cyfitter_cfg.c ****     #define CY_CFG_SECTION _Pragma("location=\".psocinit\"")
  51:Generated_Source\PSoC4/cyfitter_cfg.c ****     
  52:Generated_Source\PSoC4/cyfitter_cfg.c ****     #define CY_CFG_MEMORY_BARRIER() __DMB()
  53:Generated_Source\PSoC4/cyfitter_cfg.c ****     
  54:Generated_Source\PSoC4/cyfitter_cfg.c **** #else
  55:Generated_Source\PSoC4/cyfitter_cfg.c ****     #error Unsupported toolchain
  56:Generated_Source\PSoC4/cyfitter_cfg.c **** #endif
  57:Generated_Source\PSoC4/cyfitter_cfg.c **** 
  58:Generated_Source\PSoC4/cyfitter_cfg.c **** #ifndef CYCODE
  59:Generated_Source\PSoC4/cyfitter_cfg.c ****     #define CYCODE
  60:Generated_Source\PSoC4/cyfitter_cfg.c **** #endif
  61:Generated_Source\PSoC4/cyfitter_cfg.c **** #ifndef CYDATA
  62:Generated_Source\PSoC4/cyfitter_cfg.c ****     #define CYDATA
  63:Generated_Source\PSoC4/cyfitter_cfg.c **** #endif
  64:Generated_Source\PSoC4/cyfitter_cfg.c **** #ifndef CYFAR
  65:Generated_Source\PSoC4/cyfitter_cfg.c ****     #define CYFAR
  66:Generated_Source\PSoC4/cyfitter_cfg.c **** #endif
  67:Generated_Source\PSoC4/cyfitter_cfg.c **** #ifndef CYXDATA
  68:Generated_Source\PSoC4/cyfitter_cfg.c ****     #define CYXDATA
  69:Generated_Source\PSoC4/cyfitter_cfg.c **** #endif
  70:Generated_Source\PSoC4/cyfitter_cfg.c **** 
  71:Generated_Source\PSoC4/cyfitter_cfg.c **** 
  72:Generated_Source\PSoC4/cyfitter_cfg.c **** CY_CFG_UNUSED
  73:Generated_Source\PSoC4/cyfitter_cfg.c **** static void CYMEMZERO(void *s, size_t n);
  74:Generated_Source\PSoC4/cyfitter_cfg.c **** CY_CFG_UNUSED
  75:Generated_Source\PSoC4/cyfitter_cfg.c **** static void CYMEMZERO(void *s, size_t n)
  76:Generated_Source\PSoC4/cyfitter_cfg.c **** {
  27              		.loc 1 76 0
  28              		.cfi_startproc
  29              		@ args = 0, pretend = 0, frame = 8
  30              		@ frame_needed = 1, uses_anonymous_args = 0
  31 0000 80B5     		push	{r7, lr}
  32              		.cfi_def_cfa_offset 8
  33              		.cfi_offset 7, -8
  34              		.cfi_offset 14, -4
  35 0002 82B0     		sub	sp, sp, #8
  36              		.cfi_def_cfa_offset 16
  37 0004 00AF     		add	r7, sp, #0
  38              		.cfi_def_cfa_register 7
ARM GAS  C:\Users\EDULU~1.DES\AppData\Local\Temp\ccf7BJV7.s 			page 3


  39 0006 7860     		str	r0, [r7, #4]
  40 0008 3960     		str	r1, [r7]
  77:Generated_Source\PSoC4/cyfitter_cfg.c **** 	(void)memset(s, 0, n);
  41              		.loc 1 77 0
  42 000a 3A68     		ldr	r2, [r7]
  43 000c 7B68     		ldr	r3, [r7, #4]
  44 000e 0021     		movs	r1, #0
  45 0010 1800     		movs	r0, r3
  46 0012 FFF7FEFF 		bl	memset
  78:Generated_Source\PSoC4/cyfitter_cfg.c **** }
  47              		.loc 1 78 0
  48 0016 C046     		nop
  49 0018 BD46     		mov	sp, r7
  50 001a 02B0     		add	sp, sp, #8
  51              		@ sp needed
  52 001c 80BD     		pop	{r7, pc}
  53              		.cfi_endproc
  54              	.LFE0:
  55              		.size	CYMEMZERO, .-CYMEMZERO
  56 001e C046     		.section	.text.CYCONFIGCPY,"ax",%progbits
  57              		.align	2
  58              		.code	16
  59              		.thumb_func
  60              		.type	CYCONFIGCPY, %function
  61              	CYCONFIGCPY:
  62              	.LFB1:
  79:Generated_Source\PSoC4/cyfitter_cfg.c **** CY_CFG_UNUSED
  80:Generated_Source\PSoC4/cyfitter_cfg.c **** static void CYCONFIGCPY(void *dest, const void *src, size_t n);
  81:Generated_Source\PSoC4/cyfitter_cfg.c **** CY_CFG_UNUSED
  82:Generated_Source\PSoC4/cyfitter_cfg.c **** static void CYCONFIGCPY(void *dest, const void *src, size_t n)
  83:Generated_Source\PSoC4/cyfitter_cfg.c **** {
  63              		.loc 1 83 0
  64              		.cfi_startproc
  65              		@ args = 0, pretend = 0, frame = 16
  66              		@ frame_needed = 1, uses_anonymous_args = 0
  67 0000 80B5     		push	{r7, lr}
  68              		.cfi_def_cfa_offset 8
  69              		.cfi_offset 7, -8
  70              		.cfi_offset 14, -4
  71 0002 84B0     		sub	sp, sp, #16
  72              		.cfi_def_cfa_offset 24
  73 0004 00AF     		add	r7, sp, #0
  74              		.cfi_def_cfa_register 7
  75 0006 F860     		str	r0, [r7, #12]
  76 0008 B960     		str	r1, [r7, #8]
  77 000a 7A60     		str	r2, [r7, #4]
  84:Generated_Source\PSoC4/cyfitter_cfg.c **** 	(void)memcpy(dest, src, n);
  78              		.loc 1 84 0
  79 000c 7A68     		ldr	r2, [r7, #4]
  80 000e B968     		ldr	r1, [r7, #8]
  81 0010 FB68     		ldr	r3, [r7, #12]
  82 0012 1800     		movs	r0, r3
  83 0014 FFF7FEFF 		bl	memcpy
  85:Generated_Source\PSoC4/cyfitter_cfg.c **** }
  84              		.loc 1 85 0
  85 0018 C046     		nop
  86 001a BD46     		mov	sp, r7
ARM GAS  C:\Users\EDULU~1.DES\AppData\Local\Temp\ccf7BJV7.s 			page 4


  87 001c 04B0     		add	sp, sp, #16
  88              		@ sp needed
  89 001e 80BD     		pop	{r7, pc}
  90              		.cfi_endproc
  91              	.LFE1:
  92              		.size	CYCONFIGCPY, .-CYCONFIGCPY
  93              		.section	.text.CYCONFIGCPYCODE,"ax",%progbits
  94              		.align	2
  95              		.code	16
  96              		.thumb_func
  97              		.type	CYCONFIGCPYCODE, %function
  98              	CYCONFIGCPYCODE:
  99              	.LFB2:
  86:Generated_Source\PSoC4/cyfitter_cfg.c **** CY_CFG_UNUSED
  87:Generated_Source\PSoC4/cyfitter_cfg.c **** static void CYCONFIGCPYCODE(void *dest, const void *src, size_t n);
  88:Generated_Source\PSoC4/cyfitter_cfg.c **** CY_CFG_UNUSED
  89:Generated_Source\PSoC4/cyfitter_cfg.c **** static void CYCONFIGCPYCODE(void *dest, const void *src, size_t n)
  90:Generated_Source\PSoC4/cyfitter_cfg.c **** {
 100              		.loc 1 90 0
 101              		.cfi_startproc
 102              		@ args = 0, pretend = 0, frame = 16
 103              		@ frame_needed = 1, uses_anonymous_args = 0
 104 0000 80B5     		push	{r7, lr}
 105              		.cfi_def_cfa_offset 8
 106              		.cfi_offset 7, -8
 107              		.cfi_offset 14, -4
 108 0002 84B0     		sub	sp, sp, #16
 109              		.cfi_def_cfa_offset 24
 110 0004 00AF     		add	r7, sp, #0
 111              		.cfi_def_cfa_register 7
 112 0006 F860     		str	r0, [r7, #12]
 113 0008 B960     		str	r1, [r7, #8]
 114 000a 7A60     		str	r2, [r7, #4]
  91:Generated_Source\PSoC4/cyfitter_cfg.c **** 	(void)memcpy(dest, src, n);
 115              		.loc 1 91 0
 116 000c 7A68     		ldr	r2, [r7, #4]
 117 000e B968     		ldr	r1, [r7, #8]
 118 0010 FB68     		ldr	r3, [r7, #12]
 119 0012 1800     		movs	r0, r3
 120 0014 FFF7FEFF 		bl	memcpy
  92:Generated_Source\PSoC4/cyfitter_cfg.c **** }
 121              		.loc 1 92 0
 122 0018 C046     		nop
 123 001a BD46     		mov	sp, r7
 124 001c 04B0     		add	sp, sp, #16
 125              		@ sp needed
 126 001e 80BD     		pop	{r7, pc}
 127              		.cfi_endproc
 128              	.LFE2:
 129              		.size	CYCONFIGCPYCODE, .-CYCONFIGCPYCODE
 130              		.section	.text.cfg_write_bytes32,"ax",%progbits
 131              		.align	2
 132              		.code	16
 133              		.thumb_func
 134              		.type	cfg_write_bytes32, %function
 135              	cfg_write_bytes32:
 136              	.LFB3:
ARM GAS  C:\Users\EDULU~1.DES\AppData\Local\Temp\ccf7BJV7.s 			page 5


  93:Generated_Source\PSoC4/cyfitter_cfg.c **** 
  94:Generated_Source\PSoC4/cyfitter_cfg.c **** 
  95:Generated_Source\PSoC4/cyfitter_cfg.c **** 
  96:Generated_Source\PSoC4/cyfitter_cfg.c **** 
  97:Generated_Source\PSoC4/cyfitter_cfg.c **** /* Clock startup error codes                                                   */
  98:Generated_Source\PSoC4/cyfitter_cfg.c **** #define CYCLOCKSTART_NO_ERROR    0u
  99:Generated_Source\PSoC4/cyfitter_cfg.c **** #define CYCLOCKSTART_XTAL_ERROR  1u
 100:Generated_Source\PSoC4/cyfitter_cfg.c **** #define CYCLOCKSTART_32KHZ_ERROR 2u
 101:Generated_Source\PSoC4/cyfitter_cfg.c **** #define CYCLOCKSTART_PLL_ERROR   3u
 102:Generated_Source\PSoC4/cyfitter_cfg.c **** #define CYCLOCKSTART_FLL_ERROR   4u
 103:Generated_Source\PSoC4/cyfitter_cfg.c **** #define CYCLOCKSTART_WCO_ERROR   5u
 104:Generated_Source\PSoC4/cyfitter_cfg.c **** 
 105:Generated_Source\PSoC4/cyfitter_cfg.c **** 
 106:Generated_Source\PSoC4/cyfitter_cfg.c **** #ifdef CY_NEED_CYCLOCKSTARTUPERROR
 107:Generated_Source\PSoC4/cyfitter_cfg.c **** /*******************************************************************************
 108:Generated_Source\PSoC4/cyfitter_cfg.c **** * Function Name: CyClockStartupError
 109:Generated_Source\PSoC4/cyfitter_cfg.c **** ********************************************************************************
 110:Generated_Source\PSoC4/cyfitter_cfg.c **** * Summary:
 111:Generated_Source\PSoC4/cyfitter_cfg.c **** *  If an error is encountered during clock configuration (crystal startup error,
 112:Generated_Source\PSoC4/cyfitter_cfg.c **** *  PLL lock error, etc.), the system will end up here.  Unless reimplemented by
 113:Generated_Source\PSoC4/cyfitter_cfg.c **** *  the customer, this function will stop in an infinite loop.
 114:Generated_Source\PSoC4/cyfitter_cfg.c **** *
 115:Generated_Source\PSoC4/cyfitter_cfg.c **** * Parameters:
 116:Generated_Source\PSoC4/cyfitter_cfg.c **** *   void
 117:Generated_Source\PSoC4/cyfitter_cfg.c **** *
 118:Generated_Source\PSoC4/cyfitter_cfg.c **** * Return:
 119:Generated_Source\PSoC4/cyfitter_cfg.c **** *   void
 120:Generated_Source\PSoC4/cyfitter_cfg.c **** *
 121:Generated_Source\PSoC4/cyfitter_cfg.c **** *******************************************************************************/
 122:Generated_Source\PSoC4/cyfitter_cfg.c **** CY_CFG_UNUSED
 123:Generated_Source\PSoC4/cyfitter_cfg.c **** static void CyClockStartupError(uint8 errorCode);
 124:Generated_Source\PSoC4/cyfitter_cfg.c **** CY_CFG_UNUSED
 125:Generated_Source\PSoC4/cyfitter_cfg.c **** static void CyClockStartupError(uint8 errorCode)
 126:Generated_Source\PSoC4/cyfitter_cfg.c **** {
 127:Generated_Source\PSoC4/cyfitter_cfg.c ****     /* To remove the compiler warning if errorCode not used.                */
 128:Generated_Source\PSoC4/cyfitter_cfg.c ****     errorCode = errorCode;
 129:Generated_Source\PSoC4/cyfitter_cfg.c **** 
 130:Generated_Source\PSoC4/cyfitter_cfg.c ****     /* If we have a clock startup error (bad MHz crystal, PLL lock, etc.),  */
 131:Generated_Source\PSoC4/cyfitter_cfg.c ****     /* we will end up here to allow the customer to implement something to  */
 132:Generated_Source\PSoC4/cyfitter_cfg.c ****     /* deal with the clock condition.                                       */
 133:Generated_Source\PSoC4/cyfitter_cfg.c **** 
 134:Generated_Source\PSoC4/cyfitter_cfg.c **** #ifdef CY_CFG_CLOCK_STARTUP_ERROR_CALLBACK
 135:Generated_Source\PSoC4/cyfitter_cfg.c ****     CY_CFG_Clock_Startup_ErrorCallback();
 136:Generated_Source\PSoC4/cyfitter_cfg.c **** #else
 137:Generated_Source\PSoC4/cyfitter_cfg.c ****     /*  If not using CY_CFG_CLOCK_STARTUP_ERROR_CALLBACK, place your clock startup code here. */
 138:Generated_Source\PSoC4/cyfitter_cfg.c ****     /* `#START CyClockStartupError` */
 139:Generated_Source\PSoC4/cyfitter_cfg.c **** 
 140:Generated_Source\PSoC4/cyfitter_cfg.c **** 
 141:Generated_Source\PSoC4/cyfitter_cfg.c **** 
 142:Generated_Source\PSoC4/cyfitter_cfg.c ****     /* `#END` */
 143:Generated_Source\PSoC4/cyfitter_cfg.c **** 
 144:Generated_Source\PSoC4/cyfitter_cfg.c ****     while(1) {}
 145:Generated_Source\PSoC4/cyfitter_cfg.c **** #endif /* CY_CFG_CLOCK_STARTUP_ERROR_CALLBACK */
 146:Generated_Source\PSoC4/cyfitter_cfg.c **** }
 147:Generated_Source\PSoC4/cyfitter_cfg.c **** #endif
 148:Generated_Source\PSoC4/cyfitter_cfg.c **** 
 149:Generated_Source\PSoC4/cyfitter_cfg.c **** #define CY_CFG_BASE_ADDR_COUNT 9u
ARM GAS  C:\Users\EDULU~1.DES\AppData\Local\Temp\ccf7BJV7.s 			page 6


 150:Generated_Source\PSoC4/cyfitter_cfg.c **** CYPACKED typedef struct
 151:Generated_Source\PSoC4/cyfitter_cfg.c **** {
 152:Generated_Source\PSoC4/cyfitter_cfg.c **** 	uint8 offset;
 153:Generated_Source\PSoC4/cyfitter_cfg.c **** 	uint8 value;
 154:Generated_Source\PSoC4/cyfitter_cfg.c **** } CYPACKED_ATTR cy_cfg_addrvalue_t;
 155:Generated_Source\PSoC4/cyfitter_cfg.c **** 
 156:Generated_Source\PSoC4/cyfitter_cfg.c **** 
 157:Generated_Source\PSoC4/cyfitter_cfg.c **** 
 158:Generated_Source\PSoC4/cyfitter_cfg.c **** /*******************************************************************************
 159:Generated_Source\PSoC4/cyfitter_cfg.c **** * Function Name: cfg_write_bytes32
 160:Generated_Source\PSoC4/cyfitter_cfg.c **** ********************************************************************************
 161:Generated_Source\PSoC4/cyfitter_cfg.c **** * Summary:
 162:Generated_Source\PSoC4/cyfitter_cfg.c **** *  This function is used for setting up the chip configuration areas that
 163:Generated_Source\PSoC4/cyfitter_cfg.c **** *  contain relatively sparse data.
 164:Generated_Source\PSoC4/cyfitter_cfg.c **** *
 165:Generated_Source\PSoC4/cyfitter_cfg.c **** * Parameters:
 166:Generated_Source\PSoC4/cyfitter_cfg.c **** *   void
 167:Generated_Source\PSoC4/cyfitter_cfg.c **** *
 168:Generated_Source\PSoC4/cyfitter_cfg.c **** * Return:
 169:Generated_Source\PSoC4/cyfitter_cfg.c **** *   void
 170:Generated_Source\PSoC4/cyfitter_cfg.c **** *
 171:Generated_Source\PSoC4/cyfitter_cfg.c **** *******************************************************************************/
 172:Generated_Source\PSoC4/cyfitter_cfg.c **** static void cfg_write_bytes32(const uint32 addr_table[], const cy_cfg_addrvalue_t data_table[]);
 173:Generated_Source\PSoC4/cyfitter_cfg.c **** static void cfg_write_bytes32(const uint32 addr_table[], const cy_cfg_addrvalue_t data_table[])
 174:Generated_Source\PSoC4/cyfitter_cfg.c **** {
 137              		.loc 1 174 0
 138              		.cfi_startproc
 139              		@ args = 0, pretend = 0, frame = 24
 140              		@ frame_needed = 1, uses_anonymous_args = 0
 141 0000 80B5     		push	{r7, lr}
 142              		.cfi_def_cfa_offset 8
 143              		.cfi_offset 7, -8
 144              		.cfi_offset 14, -4
 145 0002 86B0     		sub	sp, sp, #24
 146              		.cfi_def_cfa_offset 32
 147 0004 00AF     		add	r7, sp, #0
 148              		.cfi_def_cfa_register 7
 149 0006 7860     		str	r0, [r7, #4]
 150 0008 3960     		str	r1, [r7]
 175:Generated_Source\PSoC4/cyfitter_cfg.c **** 	/* For 32-bit little-endian architectures */
 176:Generated_Source\PSoC4/cyfitter_cfg.c **** 	uint32 i, j = 0u;
 151              		.loc 1 176 0
 152 000a 0023     		movs	r3, #0
 153 000c 3B61     		str	r3, [r7, #16]
 177:Generated_Source\PSoC4/cyfitter_cfg.c **** 	for (i = 0u; i < CY_CFG_BASE_ADDR_COUNT; i++)
 154              		.loc 1 177 0
 155 000e 0023     		movs	r3, #0
 156 0010 7B61     		str	r3, [r7, #20]
 157 0012 2FE0     		b	.L5
 158              	.L8:
 159              	.LBB2:
 178:Generated_Source\PSoC4/cyfitter_cfg.c **** 	{
 179:Generated_Source\PSoC4/cyfitter_cfg.c **** 		uint32 baseAddr = addr_table[i];
 160              		.loc 1 179 0
 161 0014 7B69     		ldr	r3, [r7, #20]
 162 0016 9B00     		lsls	r3, r3, #2
 163 0018 7A68     		ldr	r2, [r7, #4]
ARM GAS  C:\Users\EDULU~1.DES\AppData\Local\Temp\ccf7BJV7.s 			page 7


 164 001a D318     		adds	r3, r2, r3
 165 001c 1B68     		ldr	r3, [r3]
 166 001e BB60     		str	r3, [r7, #8]
 180:Generated_Source\PSoC4/cyfitter_cfg.c **** 		uint8 count = (uint8)baseAddr;
 167              		.loc 1 180 0
 168 0020 0F23     		movs	r3, #15
 169 0022 FB18     		adds	r3, r7, r3
 170 0024 BA68     		ldr	r2, [r7, #8]
 171 0026 1A70     		strb	r2, [r3]
 181:Generated_Source\PSoC4/cyfitter_cfg.c **** 		baseAddr &= 0xFFFFFF00u;
 172              		.loc 1 181 0
 173 0028 BB68     		ldr	r3, [r7, #8]
 174 002a FF22     		movs	r2, #255
 175 002c 9343     		bics	r3, r2
 176 002e BB60     		str	r3, [r7, #8]
 182:Generated_Source\PSoC4/cyfitter_cfg.c **** 		while (count != 0u)
 177              		.loc 1 182 0
 178 0030 18E0     		b	.L6
 179              	.L7:
 183:Generated_Source\PSoC4/cyfitter_cfg.c **** 		{
 184:Generated_Source\PSoC4/cyfitter_cfg.c **** 			CY_SET_REG8((void *)(baseAddr + data_table[j].offset), data_table[j].value);
 180              		.loc 1 184 0
 181 0032 3B69     		ldr	r3, [r7, #16]
 182 0034 5B00     		lsls	r3, r3, #1
 183 0036 3A68     		ldr	r2, [r7]
 184 0038 D318     		adds	r3, r2, r3
 185 003a 1B78     		ldrb	r3, [r3]
 186 003c 1A00     		movs	r2, r3
 187 003e BB68     		ldr	r3, [r7, #8]
 188 0040 D318     		adds	r3, r2, r3
 189 0042 1900     		movs	r1, r3
 190 0044 3B69     		ldr	r3, [r7, #16]
 191 0046 5B00     		lsls	r3, r3, #1
 192 0048 3A68     		ldr	r2, [r7]
 193 004a D318     		adds	r3, r2, r3
 194 004c 5B78     		ldrb	r3, [r3, #1]
 195 004e 0B70     		strb	r3, [r1]
 185:Generated_Source\PSoC4/cyfitter_cfg.c **** 			j++;
 196              		.loc 1 185 0
 197 0050 3B69     		ldr	r3, [r7, #16]
 198 0052 0133     		adds	r3, r3, #1
 199 0054 3B61     		str	r3, [r7, #16]
 186:Generated_Source\PSoC4/cyfitter_cfg.c **** 			count--;
 200              		.loc 1 186 0
 201 0056 0F23     		movs	r3, #15
 202 0058 FB18     		adds	r3, r7, r3
 203 005a 1A78     		ldrb	r2, [r3]
 204 005c 0F23     		movs	r3, #15
 205 005e FB18     		adds	r3, r7, r3
 206 0060 013A     		subs	r2, r2, #1
 207 0062 1A70     		strb	r2, [r3]
 208              	.L6:
 182:Generated_Source\PSoC4/cyfitter_cfg.c **** 		{
 209              		.loc 1 182 0
 210 0064 0F23     		movs	r3, #15
 211 0066 FB18     		adds	r3, r7, r3
 212 0068 1B78     		ldrb	r3, [r3]
ARM GAS  C:\Users\EDULU~1.DES\AppData\Local\Temp\ccf7BJV7.s 			page 8


 213 006a 002B     		cmp	r3, #0
 214 006c E1D1     		bne	.L7
 215              	.LBE2:
 177:Generated_Source\PSoC4/cyfitter_cfg.c **** 	{
 216              		.loc 1 177 0 discriminator 2
 217 006e 7B69     		ldr	r3, [r7, #20]
 218 0070 0133     		adds	r3, r3, #1
 219 0072 7B61     		str	r3, [r7, #20]
 220              	.L5:
 177:Generated_Source\PSoC4/cyfitter_cfg.c **** 	{
 221              		.loc 1 177 0 is_stmt 0 discriminator 1
 222 0074 7B69     		ldr	r3, [r7, #20]
 223 0076 082B     		cmp	r3, #8
 224 0078 CCD9     		bls	.L8
 187:Generated_Source\PSoC4/cyfitter_cfg.c **** 		}
 188:Generated_Source\PSoC4/cyfitter_cfg.c **** 	}
 189:Generated_Source\PSoC4/cyfitter_cfg.c **** }
 225              		.loc 1 189 0 is_stmt 1
 226 007a C046     		nop
 227 007c BD46     		mov	sp, r7
 228 007e 06B0     		add	sp, sp, #24
 229              		@ sp needed
 230 0080 80BD     		pop	{r7, pc}
 231              		.cfi_endproc
 232              	.LFE3:
 233              		.size	cfg_write_bytes32, .-cfg_write_bytes32
 234 0082 C046     		.section	.psocinit,"ax",%progbits
 235              		.align	2
 236              		.code	16
 237              		.thumb_func
 238              		.type	ClockSetup, %function
 239              	ClockSetup:
 240              	.LFB4:
 190:Generated_Source\PSoC4/cyfitter_cfg.c **** 
 191:Generated_Source\PSoC4/cyfitter_cfg.c **** 
 192:Generated_Source\PSoC4/cyfitter_cfg.c **** /*******************************************************************************
 193:Generated_Source\PSoC4/cyfitter_cfg.c **** * Function Name: ClockSetup
 194:Generated_Source\PSoC4/cyfitter_cfg.c **** ********************************************************************************
 195:Generated_Source\PSoC4/cyfitter_cfg.c **** *
 196:Generated_Source\PSoC4/cyfitter_cfg.c **** * Summary:
 197:Generated_Source\PSoC4/cyfitter_cfg.c **** *   Performs the initialization of all of the clocks in the device based on the
 198:Generated_Source\PSoC4/cyfitter_cfg.c **** *   settings in the Clock tab of the DWR.  This includes enabling the requested
 199:Generated_Source\PSoC4/cyfitter_cfg.c **** *   clocks and setting the necessary dividers to produce the desired frequency. 
 200:Generated_Source\PSoC4/cyfitter_cfg.c **** *
 201:Generated_Source\PSoC4/cyfitter_cfg.c **** * Parameters:
 202:Generated_Source\PSoC4/cyfitter_cfg.c **** *   void
 203:Generated_Source\PSoC4/cyfitter_cfg.c **** *
 204:Generated_Source\PSoC4/cyfitter_cfg.c **** * Return:
 205:Generated_Source\PSoC4/cyfitter_cfg.c **** *   void
 206:Generated_Source\PSoC4/cyfitter_cfg.c **** *
 207:Generated_Source\PSoC4/cyfitter_cfg.c **** *******************************************************************************/
 208:Generated_Source\PSoC4/cyfitter_cfg.c **** static void ClockSetup(void);
 209:Generated_Source\PSoC4/cyfitter_cfg.c **** CY_CFG_SECTION
 210:Generated_Source\PSoC4/cyfitter_cfg.c **** static void ClockSetup(void)
 211:Generated_Source\PSoC4/cyfitter_cfg.c **** {
 241              		.loc 1 211 0
 242              		.cfi_startproc
ARM GAS  C:\Users\EDULU~1.DES\AppData\Local\Temp\ccf7BJV7.s 			page 9


 243              		@ args = 0, pretend = 0, frame = 0
 244              		@ frame_needed = 1, uses_anonymous_args = 0
 245 0000 80B5     		push	{r7, lr}
 246              		.cfi_def_cfa_offset 8
 247              		.cfi_offset 7, -8
 248              		.cfi_offset 14, -4
 249 0002 00AF     		add	r7, sp, #0
 250              		.cfi_def_cfa_register 7
 212:Generated_Source\PSoC4/cyfitter_cfg.c **** 	/* Enable HALF_EN before trimming for the flash accelerator. */
 213:Generated_Source\PSoC4/cyfitter_cfg.c **** 	CY_SET_REG32((void CYXDATA *)(CYREG_CLK_SELECT), (CY_GET_REG32((void *)CYREG_CLK_SELECT) | 0x00040
 251              		.loc 1 213 0
 252 0004 204B     		ldr	r3, .L10
 253 0006 204A     		ldr	r2, .L10
 254 0008 1268     		ldr	r2, [r2]
 255 000a 8021     		movs	r1, #128
 256 000c C902     		lsls	r1, r1, #11
 257 000e 0A43     		orrs	r2, r1
 258 0010 1A60     		str	r2, [r3]
 214:Generated_Source\PSoC4/cyfitter_cfg.c **** 
 215:Generated_Source\PSoC4/cyfitter_cfg.c **** 	/* Setup and trim IMO based on desired frequency. */
 216:Generated_Source\PSoC4/cyfitter_cfg.c **** 	CySysClkWriteImoFreq(48u);
 259              		.loc 1 216 0
 260 0012 3020     		movs	r0, #48
 261 0014 FFF7FEFF 		bl	CySysClkWriteImoFreq
 217:Generated_Source\PSoC4/cyfitter_cfg.c **** 	/* CYDEV_CLK_ILO_CONFIG Starting address: CYDEV_CLK_ILO_CONFIG */
 218:Generated_Source\PSoC4/cyfitter_cfg.c **** 	CY_SET_REG32((void *)(CYREG_CLK_ILO_CONFIG), 0x80000006u);
 262              		.loc 1 218 0
 263 0018 1C4B     		ldr	r3, .L10+4
 264 001a 1D4A     		ldr	r2, .L10+8
 265 001c 1A60     		str	r2, [r3]
 219:Generated_Source\PSoC4/cyfitter_cfg.c **** 
 220:Generated_Source\PSoC4/cyfitter_cfg.c **** 
 221:Generated_Source\PSoC4/cyfitter_cfg.c **** 	/* CYDEV_CLK_SELECT00 Starting address: CYDEV_CLK_SELECT00 */
 222:Generated_Source\PSoC4/cyfitter_cfg.c **** 	CY_SET_REG32((void *)(CYREG_CLK_SELECT02), 0x00000020u);
 266              		.loc 1 222 0
 267 001e 1D4B     		ldr	r3, .L10+12
 268 0020 2022     		movs	r2, #32
 269 0022 1A60     		str	r2, [r3]
 223:Generated_Source\PSoC4/cyfitter_cfg.c **** 	CY_SET_REG32((void *)(CYREG_CLK_SELECT07), 0x00000030u);
 270              		.loc 1 223 0
 271 0024 1C4B     		ldr	r3, .L10+16
 272 0026 3022     		movs	r2, #48
 273 0028 1A60     		str	r2, [r3]
 224:Generated_Source\PSoC4/cyfitter_cfg.c **** 	CY_SET_REG32((void *)(CYREG_CLK_SELECT08), 0x00000010u);
 274              		.loc 1 224 0
 275 002a 1C4B     		ldr	r3, .L10+20
 276 002c 1022     		movs	r2, #16
 277 002e 1A60     		str	r2, [r3]
 225:Generated_Source\PSoC4/cyfitter_cfg.c **** 	CY_SET_REG32((void *)(CYREG_CLK_SELECT09), 0x00000010u);
 278              		.loc 1 225 0
 279 0030 1B4B     		ldr	r3, .L10+24
 280 0032 1022     		movs	r2, #16
 281 0034 1A60     		str	r2, [r3]
 226:Generated_Source\PSoC4/cyfitter_cfg.c **** 	CY_SET_REG32((void *)(CYREG_CLK_SELECT10), 0x00000010u);
 282              		.loc 1 226 0
 283 0036 1B4B     		ldr	r3, .L10+28
 284 0038 1022     		movs	r2, #16
ARM GAS  C:\Users\EDULU~1.DES\AppData\Local\Temp\ccf7BJV7.s 			page 10


 285 003a 1A60     		str	r2, [r3]
 227:Generated_Source\PSoC4/cyfitter_cfg.c **** 	CY_SET_REG32((void *)(CYREG_CLK_SELECT12), 0x00000011u);
 286              		.loc 1 227 0
 287 003c 1A4B     		ldr	r3, .L10+32
 288 003e 1122     		movs	r2, #17
 289 0040 1A60     		str	r2, [r3]
 228:Generated_Source\PSoC4/cyfitter_cfg.c **** 
 229:Generated_Source\PSoC4/cyfitter_cfg.c **** 	/* CYDEV_CLK_IMO_CONFIG Starting address: CYDEV_CLK_IMO_CONFIG */
 230:Generated_Source\PSoC4/cyfitter_cfg.c **** 	CY_SET_REG32((void *)(CYREG_CLK_IMO_CONFIG), 0x82000000u);
 290              		.loc 1 230 0
 291 0042 1A4B     		ldr	r3, .L10+36
 292 0044 8222     		movs	r2, #130
 293 0046 1206     		lsls	r2, r2, #24
 294 0048 1A60     		str	r2, [r3]
 231:Generated_Source\PSoC4/cyfitter_cfg.c **** 
 232:Generated_Source\PSoC4/cyfitter_cfg.c **** 	/* CYDEV_CLK_SELECT Starting address: CYDEV_CLK_SELECT */
 233:Generated_Source\PSoC4/cyfitter_cfg.c **** 	CY_SET_REG32((void *)(CYREG_CLK_SELECT), 0x00040000u);
 295              		.loc 1 233 0
 296 004a 0F4B     		ldr	r3, .L10
 297 004c 8022     		movs	r2, #128
 298 004e D202     		lsls	r2, r2, #11
 299 0050 1A60     		str	r2, [r3]
 234:Generated_Source\PSoC4/cyfitter_cfg.c **** 
 235:Generated_Source\PSoC4/cyfitter_cfg.c **** 	/* CYDEV_CLK_DIVIDER_A00 Starting address: CYDEV_CLK_DIVIDER_A00 */
 236:Generated_Source\PSoC4/cyfitter_cfg.c **** 	CY_SET_REG32((void *)(CYREG_CLK_DIVIDER_A00), 0x80000003u);
 300              		.loc 1 236 0
 301 0052 174B     		ldr	r3, .L10+40
 302 0054 174A     		ldr	r2, .L10+44
 303 0056 1A60     		str	r2, [r3]
 237:Generated_Source\PSoC4/cyfitter_cfg.c **** 
 238:Generated_Source\PSoC4/cyfitter_cfg.c **** 	/* CYDEV_CLK_DIVIDER_B00 Starting address: CYDEV_CLK_DIVIDER_B00 */
 239:Generated_Source\PSoC4/cyfitter_cfg.c **** 	CY_SET_REG32((void *)(CYREG_CLK_DIVIDER_B00), 0x8000001Du);
 304              		.loc 1 239 0
 305 0058 174B     		ldr	r3, .L10+48
 306 005a 184A     		ldr	r2, .L10+52
 307 005c 1A60     		str	r2, [r3]
 240:Generated_Source\PSoC4/cyfitter_cfg.c **** 
 241:Generated_Source\PSoC4/cyfitter_cfg.c **** 	/* CYDEV_CLK_DIVIDER_C00 Starting address: CYDEV_CLK_DIVIDER_C00 */
 242:Generated_Source\PSoC4/cyfitter_cfg.c **** 	CY_SET_REG32((void *)(CYREG_CLK_DIVIDER_C00), 0x8000002Fu);
 308              		.loc 1 242 0
 309 005e 184B     		ldr	r3, .L10+56
 310 0060 184A     		ldr	r2, .L10+60
 311 0062 1A60     		str	r2, [r3]
 243:Generated_Source\PSoC4/cyfitter_cfg.c **** 
 244:Generated_Source\PSoC4/cyfitter_cfg.c **** 	/* CYDEV_CLK_DIVIDER_A01 Starting address: CYDEV_CLK_DIVIDER_A01 */
 245:Generated_Source\PSoC4/cyfitter_cfg.c **** 	CY_SET_REG32((void *)(CYREG_CLK_DIVIDER_A01), 0x800000EFu);
 312              		.loc 1 245 0
 313 0064 184B     		ldr	r3, .L10+64
 314 0066 194A     		ldr	r2, .L10+68
 315 0068 1A60     		str	r2, [r3]
 246:Generated_Source\PSoC4/cyfitter_cfg.c **** 
 247:Generated_Source\PSoC4/cyfitter_cfg.c **** 	(void)CyIntSetVector(9u, &CySysWdtIsr);
 316              		.loc 1 247 0
 317 006a 194B     		ldr	r3, .L10+72
 318 006c 1900     		movs	r1, r3
 319 006e 0920     		movs	r0, #9
 320 0070 FFF7FEFF 		bl	CyIntSetVector
ARM GAS  C:\Users\EDULU~1.DES\AppData\Local\Temp\ccf7BJV7.s 			page 11


 248:Generated_Source\PSoC4/cyfitter_cfg.c **** 	CyIntEnable(9u);
 321              		.loc 1 248 0
 322 0074 0920     		movs	r0, #9
 323 0076 FFF7FEFF 		bl	CyIntEnable
 249:Generated_Source\PSoC4/cyfitter_cfg.c **** 	CY_SET_REG32((void *)(CYREG_WDT_CONFIG), 0x00000000u);
 324              		.loc 1 249 0
 325 007a 164B     		ldr	r3, .L10+76
 326 007c 0022     		movs	r2, #0
 327 007e 1A60     		str	r2, [r3]
 250:Generated_Source\PSoC4/cyfitter_cfg.c **** }
 328              		.loc 1 250 0
 329 0080 C046     		nop
 330 0082 BD46     		mov	sp, r7
 331              		@ sp needed
 332 0084 80BD     		pop	{r7, pc}
 333              	.L11:
 334 0086 C046     		.align	2
 335              	.L10:
 336 0088 00010B40 		.word	1074462976
 337 008c 04010B40 		.word	1074462980
 338 0090 06000080 		.word	-2147483642
 339 0094 08020240 		.word	1073873416
 340 0098 1C020240 		.word	1073873436
 341 009c 20020240 		.word	1073873440
 342 00a0 24020240 		.word	1073873444
 343 00a4 28020240 		.word	1073873448
 344 00a8 30020240 		.word	1073873456
 345 00ac 08010B40 		.word	1074462984
 346 00b0 00000240 		.word	1073872896
 347 00b4 03000080 		.word	-2147483645
 348 00b8 40000240 		.word	1073872960
 349 00bc 1D000080 		.word	-2147483619
 350 00c0 80000240 		.word	1073873024
 351 00c4 2F000080 		.word	-2147483601
 352 00c8 04000240 		.word	1073872900
 353 00cc EF000080 		.word	-2147483409
 354 00d0 00000000 		.word	CySysWdtIsr
 355 00d4 0C020B40 		.word	1074463244
 356              		.cfi_endproc
 357              	.LFE4:
 358              		.size	ClockSetup, .-ClockSetup
 359              		.section	.text.AnalogSetDefault,"ax",%progbits
 360              		.align	2
 361              		.code	16
 362              		.thumb_func
 363              		.type	AnalogSetDefault, %function
 364              	AnalogSetDefault:
 365              	.LFB5:
 251:Generated_Source\PSoC4/cyfitter_cfg.c **** 
 252:Generated_Source\PSoC4/cyfitter_cfg.c **** 
 253:Generated_Source\PSoC4/cyfitter_cfg.c **** /* Analog API Functions */
 254:Generated_Source\PSoC4/cyfitter_cfg.c **** 
 255:Generated_Source\PSoC4/cyfitter_cfg.c **** 
 256:Generated_Source\PSoC4/cyfitter_cfg.c **** /*******************************************************************************
 257:Generated_Source\PSoC4/cyfitter_cfg.c **** * Function Name: AnalogSetDefault
 258:Generated_Source\PSoC4/cyfitter_cfg.c **** ********************************************************************************
 259:Generated_Source\PSoC4/cyfitter_cfg.c **** *
ARM GAS  C:\Users\EDULU~1.DES\AppData\Local\Temp\ccf7BJV7.s 			page 12


 260:Generated_Source\PSoC4/cyfitter_cfg.c **** * Summary:
 261:Generated_Source\PSoC4/cyfitter_cfg.c **** *  Sets up the analog portions of the chip to default values based on chip
 262:Generated_Source\PSoC4/cyfitter_cfg.c **** *  configuration options from the project.
 263:Generated_Source\PSoC4/cyfitter_cfg.c **** *
 264:Generated_Source\PSoC4/cyfitter_cfg.c **** * Parameters:
 265:Generated_Source\PSoC4/cyfitter_cfg.c **** *  void
 266:Generated_Source\PSoC4/cyfitter_cfg.c **** *
 267:Generated_Source\PSoC4/cyfitter_cfg.c **** * Return:
 268:Generated_Source\PSoC4/cyfitter_cfg.c **** *  void
 269:Generated_Source\PSoC4/cyfitter_cfg.c **** *
 270:Generated_Source\PSoC4/cyfitter_cfg.c **** *******************************************************************************/
 271:Generated_Source\PSoC4/cyfitter_cfg.c **** static void AnalogSetDefault(void);
 272:Generated_Source\PSoC4/cyfitter_cfg.c **** static void AnalogSetDefault(void)
 273:Generated_Source\PSoC4/cyfitter_cfg.c **** {
 366              		.loc 1 273 0
 367              		.cfi_startproc
 368              		@ args = 0, pretend = 0, frame = 0
 369              		@ frame_needed = 1, uses_anonymous_args = 0
 370 0000 80B5     		push	{r7, lr}
 371              		.cfi_def_cfa_offset 8
 372              		.cfi_offset 7, -8
 373              		.cfi_offset 14, -4
 374 0002 00AF     		add	r7, sp, #0
 375              		.cfi_def_cfa_register 7
 274:Generated_Source\PSoC4/cyfitter_cfg.c **** 	CY_SET_XTND_REG32((void CYFAR *)CYREG_CTBM_OA0_SW, 0x00240104u);
 376              		.loc 1 274 0
 377 0004 054B     		ldr	r3, .L13
 378 0006 064A     		ldr	r2, .L13+4
 379 0008 1A60     		str	r2, [r3]
 275:Generated_Source\PSoC4/cyfitter_cfg.c **** 	CY_SET_XTND_REG32((void CYFAR *)CYREG_SAR_MUX_SWITCH0, 0x01080080u);
 380              		.loc 1 275 0
 381 000a 064B     		ldr	r3, .L13+8
 382 000c 064A     		ldr	r2, .L13+12
 383 000e 1A60     		str	r2, [r3]
 276:Generated_Source\PSoC4/cyfitter_cfg.c **** 	SetAnalogRoutingPumps(1);
 384              		.loc 1 276 0
 385 0010 0120     		movs	r0, #1
 386 0012 FFF7FEFF 		bl	SetAnalogRoutingPumps
 277:Generated_Source\PSoC4/cyfitter_cfg.c **** }
 387              		.loc 1 277 0
 388 0016 C046     		nop
 389 0018 BD46     		mov	sp, r7
 390              		@ sp needed
 391 001a 80BD     		pop	{r7, pc}
 392              	.L14:
 393              		.align	2
 394              	.L13:
 395 001c 80001040 		.word	1074790528
 396 0020 04012400 		.word	2359556
 397 0024 00031A40 		.word	1075446528
 398 0028 80000801 		.word	17301632
 399              		.cfi_endproc
 400              	.LFE5:
 401              		.size	AnalogSetDefault, .-AnalogSetDefault
 402              		.section	.text.SetAnalogRoutingPumps,"ax",%progbits
 403              		.align	2
 404              		.global	SetAnalogRoutingPumps
ARM GAS  C:\Users\EDULU~1.DES\AppData\Local\Temp\ccf7BJV7.s 			page 13


 405              		.code	16
 406              		.thumb_func
 407              		.type	SetAnalogRoutingPumps, %function
 408              	SetAnalogRoutingPumps:
 409              	.LFB6:
 278:Generated_Source\PSoC4/cyfitter_cfg.c **** 
 279:Generated_Source\PSoC4/cyfitter_cfg.c **** 
 280:Generated_Source\PSoC4/cyfitter_cfg.c **** /*******************************************************************************
 281:Generated_Source\PSoC4/cyfitter_cfg.c **** * Function Name: SetAnalogRoutingPumps
 282:Generated_Source\PSoC4/cyfitter_cfg.c **** ********************************************************************************
 283:Generated_Source\PSoC4/cyfitter_cfg.c **** *
 284:Generated_Source\PSoC4/cyfitter_cfg.c **** * Summary:
 285:Generated_Source\PSoC4/cyfitter_cfg.c **** * Enables or disables the analog pumps feeding analog routing switches.
 286:Generated_Source\PSoC4/cyfitter_cfg.c **** * Intended to be called at startup, based on the Vdda system configuration;
 287:Generated_Source\PSoC4/cyfitter_cfg.c **** * may be called during operation when the user informs us that the Vdda voltage crossed the pump th
 288:Generated_Source\PSoC4/cyfitter_cfg.c **** *
 289:Generated_Source\PSoC4/cyfitter_cfg.c **** * Parameters:
 290:Generated_Source\PSoC4/cyfitter_cfg.c **** *  enabled - 1 to enable the pumps, 0 to disable the pumps
 291:Generated_Source\PSoC4/cyfitter_cfg.c **** *
 292:Generated_Source\PSoC4/cyfitter_cfg.c **** * Return:
 293:Generated_Source\PSoC4/cyfitter_cfg.c **** *  void
 294:Generated_Source\PSoC4/cyfitter_cfg.c **** *
 295:Generated_Source\PSoC4/cyfitter_cfg.c **** *******************************************************************************/
 296:Generated_Source\PSoC4/cyfitter_cfg.c **** void SetAnalogRoutingPumps(uint8 enabled)
 297:Generated_Source\PSoC4/cyfitter_cfg.c **** {
 410              		.loc 1 297 0
 411              		.cfi_startproc
 412              		@ args = 0, pretend = 0, frame = 16
 413              		@ frame_needed = 1, uses_anonymous_args = 0
 414 0000 80B5     		push	{r7, lr}
 415              		.cfi_def_cfa_offset 8
 416              		.cfi_offset 7, -8
 417              		.cfi_offset 14, -4
 418 0002 84B0     		sub	sp, sp, #16
 419              		.cfi_def_cfa_offset 24
 420 0004 00AF     		add	r7, sp, #0
 421              		.cfi_def_cfa_register 7
 422 0006 0200     		movs	r2, r0
 423 0008 FB1D     		adds	r3, r7, #7
 424 000a 1A70     		strb	r2, [r3]
 298:Generated_Source\PSoC4/cyfitter_cfg.c **** 	uint32 regValue = CY_GET_XTND_REG32((void *)(CYREG_SAR_PUMP_CTRL));
 425              		.loc 1 298 0
 426 000c 0B4B     		ldr	r3, .L18
 427 000e 1B68     		ldr	r3, [r3]
 428 0010 FB60     		str	r3, [r7, #12]
 299:Generated_Source\PSoC4/cyfitter_cfg.c **** 	if (enabled != 0u)
 429              		.loc 1 299 0
 430 0012 FB1D     		adds	r3, r7, #7
 431 0014 1B78     		ldrb	r3, [r3]
 432 0016 002B     		cmp	r3, #0
 433 0018 05D0     		beq	.L16
 300:Generated_Source\PSoC4/cyfitter_cfg.c **** 	{
 301:Generated_Source\PSoC4/cyfitter_cfg.c **** 		regValue |= 0x80000000u;
 434              		.loc 1 301 0
 435 001a FB68     		ldr	r3, [r7, #12]
 436 001c 8022     		movs	r2, #128
 437 001e 1206     		lsls	r2, r2, #24
ARM GAS  C:\Users\EDULU~1.DES\AppData\Local\Temp\ccf7BJV7.s 			page 14


 438 0020 1343     		orrs	r3, r2
 439 0022 FB60     		str	r3, [r7, #12]
 440 0024 03E0     		b	.L17
 441              	.L16:
 302:Generated_Source\PSoC4/cyfitter_cfg.c **** 	}
 303:Generated_Source\PSoC4/cyfitter_cfg.c **** 	else
 304:Generated_Source\PSoC4/cyfitter_cfg.c **** 	{
 305:Generated_Source\PSoC4/cyfitter_cfg.c **** 		regValue &= ~0x80000000u;
 442              		.loc 1 305 0
 443 0026 FB68     		ldr	r3, [r7, #12]
 444 0028 5B00     		lsls	r3, r3, #1
 445 002a 5B08     		lsrs	r3, r3, #1
 446 002c FB60     		str	r3, [r7, #12]
 447              	.L17:
 306:Generated_Source\PSoC4/cyfitter_cfg.c **** 	}
 307:Generated_Source\PSoC4/cyfitter_cfg.c **** 	CY_SET_XTND_REG32((void *)(CYREG_SAR_PUMP_CTRL), regValue);
 448              		.loc 1 307 0
 449 002e 034B     		ldr	r3, .L18
 450 0030 FA68     		ldr	r2, [r7, #12]
 451 0032 1A60     		str	r2, [r3]
 308:Generated_Source\PSoC4/cyfitter_cfg.c **** }
 452              		.loc 1 308 0
 453 0034 C046     		nop
 454 0036 BD46     		mov	sp, r7
 455 0038 04B0     		add	sp, sp, #16
 456              		@ sp needed
 457 003a 80BD     		pop	{r7, pc}
 458              	.L19:
 459              		.align	2
 460              	.L18:
 461 003c 80031A40 		.word	1075446656
 462              		.cfi_endproc
 463              	.LFE6:
 464              		.size	SetAnalogRoutingPumps, .-SetAnalogRoutingPumps
 465              		.section	.psocinit
 466              		.align	2
 467              		.global	cyfitter_cfg
 468              		.code	16
 469              		.thumb_func
 470              		.type	cyfitter_cfg, %function
 471              	cyfitter_cfg:
 472              	.LFB7:
 309:Generated_Source\PSoC4/cyfitter_cfg.c **** 
 310:Generated_Source\PSoC4/cyfitter_cfg.c **** 
 311:Generated_Source\PSoC4/cyfitter_cfg.c **** 
 312:Generated_Source\PSoC4/cyfitter_cfg.c **** 
 313:Generated_Source\PSoC4/cyfitter_cfg.c **** /*******************************************************************************
 314:Generated_Source\PSoC4/cyfitter_cfg.c **** * Function Name: cyfitter_cfg
 315:Generated_Source\PSoC4/cyfitter_cfg.c **** ********************************************************************************
 316:Generated_Source\PSoC4/cyfitter_cfg.c **** * Summary:
 317:Generated_Source\PSoC4/cyfitter_cfg.c **** *  This function is called by the start-up code for the selected device. It
 318:Generated_Source\PSoC4/cyfitter_cfg.c **** *  performs all of the necessary device configuration based on the design
 319:Generated_Source\PSoC4/cyfitter_cfg.c **** *  settings.  This includes settings from the Design Wide Resources (DWR) such
 320:Generated_Source\PSoC4/cyfitter_cfg.c **** *  as Clocks and Pins as well as any component configuration that is necessary.
 321:Generated_Source\PSoC4/cyfitter_cfg.c **** *
 322:Generated_Source\PSoC4/cyfitter_cfg.c **** * Parameters:
 323:Generated_Source\PSoC4/cyfitter_cfg.c **** *   void
ARM GAS  C:\Users\EDULU~1.DES\AppData\Local\Temp\ccf7BJV7.s 			page 15


 324:Generated_Source\PSoC4/cyfitter_cfg.c **** *
 325:Generated_Source\PSoC4/cyfitter_cfg.c **** * Return:
 326:Generated_Source\PSoC4/cyfitter_cfg.c **** *   void
 327:Generated_Source\PSoC4/cyfitter_cfg.c **** *
 328:Generated_Source\PSoC4/cyfitter_cfg.c **** *******************************************************************************/
 329:Generated_Source\PSoC4/cyfitter_cfg.c **** CY_CFG_SECTION
 330:Generated_Source\PSoC4/cyfitter_cfg.c **** void cyfitter_cfg(void)
 331:Generated_Source\PSoC4/cyfitter_cfg.c **** {
 473              		.loc 1 331 0
 474              		.cfi_startproc
 475              		@ args = 0, pretend = 0, frame = 8
 476              		@ frame_needed = 1, uses_anonymous_args = 0
 477 00d8 80B5     		push	{r7, lr}
 478              		.cfi_def_cfa_offset 8
 479              		.cfi_offset 7, -8
 480              		.cfi_offset 14, -4
 481 00da 82B0     		sub	sp, sp, #8
 482              		.cfi_def_cfa_offset 16
 483 00dc 00AF     		add	r7, sp, #0
 484              		.cfi_def_cfa_register 7
 332:Generated_Source\PSoC4/cyfitter_cfg.c **** 	/* Disable interrupts by default. Let user enable if/when they want. */
 333:Generated_Source\PSoC4/cyfitter_cfg.c **** 	CyGlobalIntDisable;
 485              		.loc 1 333 0
 486              		.syntax divided
 487              	@ 333 "Generated_Source\PSoC4\cyfitter_cfg.c" 1
 488 00de 72B6     		CPSID   i
 489              	@ 0 "" 2
 334:Generated_Source\PSoC4/cyfitter_cfg.c **** 
 335:Generated_Source\PSoC4/cyfitter_cfg.c **** 	/* Enable the clock in the interrupt controller for the routed interrupts */
 336:Generated_Source\PSoC4/cyfitter_cfg.c **** 	CY_SET_REG8((void *)CYREG_UDB_UDBIF_INT_CLK_CTL, 0x01u);
 490              		.loc 1 336 0
 491              		.thumb
 492              		.syntax unified
 493 00e0 5C4B     		ldr	r3, .L23
 494 00e2 0122     		movs	r2, #1
 495 00e4 1A70     		strb	r2, [r3]
 496              	.LBB3:
 337:Generated_Source\PSoC4/cyfitter_cfg.c **** 	{
 338:Generated_Source\PSoC4/cyfitter_cfg.c **** 		static const uint32 CYCODE cy_cfg_addr_table[] = {
 339:Generated_Source\PSoC4/cyfitter_cfg.c **** 			0x400F300Fu, /* Base address: 0x400F3000 Count: 15 */
 340:Generated_Source\PSoC4/cyfitter_cfg.c **** 			0x400F310Au, /* Base address: 0x400F3100 Count: 10 */
 341:Generated_Source\PSoC4/cyfitter_cfg.c **** 			0x400F3262u, /* Base address: 0x400F3200 Count: 98 */
 342:Generated_Source\PSoC4/cyfitter_cfg.c **** 			0x400F3331u, /* Base address: 0x400F3300 Count: 49 */
 343:Generated_Source\PSoC4/cyfitter_cfg.c **** 			0x400F4006u, /* Base address: 0x400F4000 Count: 6 */
 344:Generated_Source\PSoC4/cyfitter_cfg.c **** 			0x400F4111u, /* Base address: 0x400F4100 Count: 17 */
 345:Generated_Source\PSoC4/cyfitter_cfg.c **** 			0x400F4202u, /* Base address: 0x400F4200 Count: 2 */
 346:Generated_Source\PSoC4/cyfitter_cfg.c **** 			0x400F4306u, /* Base address: 0x400F4300 Count: 6 */
 347:Generated_Source\PSoC4/cyfitter_cfg.c **** 			0x400F6002u, /* Base address: 0x400F6000 Count: 2 */
 348:Generated_Source\PSoC4/cyfitter_cfg.c **** 		};
 349:Generated_Source\PSoC4/cyfitter_cfg.c **** 
 350:Generated_Source\PSoC4/cyfitter_cfg.c **** 		static const cy_cfg_addrvalue_t CYCODE cy_cfg_data_table[] = {
 351:Generated_Source\PSoC4/cyfitter_cfg.c **** 			{0x80u, 0x02u},
 352:Generated_Source\PSoC4/cyfitter_cfg.c **** 			{0x82u, 0x01u},
 353:Generated_Source\PSoC4/cyfitter_cfg.c **** 			{0x8Eu, 0x08u},
 354:Generated_Source\PSoC4/cyfitter_cfg.c **** 			{0x98u, 0x01u},
 355:Generated_Source\PSoC4/cyfitter_cfg.c **** 			{0x9Au, 0x06u},
 356:Generated_Source\PSoC4/cyfitter_cfg.c **** 			{0x9Eu, 0x10u},
ARM GAS  C:\Users\EDULU~1.DES\AppData\Local\Temp\ccf7BJV7.s 			page 16


 357:Generated_Source\PSoC4/cyfitter_cfg.c **** 			{0xB0u, 0x04u},
 358:Generated_Source\PSoC4/cyfitter_cfg.c **** 			{0xB2u, 0x10u},
 359:Generated_Source\PSoC4/cyfitter_cfg.c **** 			{0xB4u, 0x08u},
 360:Generated_Source\PSoC4/cyfitter_cfg.c **** 			{0xB5u, 0x01u},
 361:Generated_Source\PSoC4/cyfitter_cfg.c **** 			{0xB6u, 0x03u},
 362:Generated_Source\PSoC4/cyfitter_cfg.c **** 			{0xBFu, 0x10u},
 363:Generated_Source\PSoC4/cyfitter_cfg.c **** 			{0xD8u, 0x04u},
 364:Generated_Source\PSoC4/cyfitter_cfg.c **** 			{0xD9u, 0x04u},
 365:Generated_Source\PSoC4/cyfitter_cfg.c **** 			{0xDFu, 0x01u},
 366:Generated_Source\PSoC4/cyfitter_cfg.c **** 			{0x05u, 0x01u},
 367:Generated_Source\PSoC4/cyfitter_cfg.c **** 			{0x07u, 0x01u},
 368:Generated_Source\PSoC4/cyfitter_cfg.c **** 			{0x0Du, 0x20u},
 369:Generated_Source\PSoC4/cyfitter_cfg.c **** 			{0x0Fu, 0x01u},
 370:Generated_Source\PSoC4/cyfitter_cfg.c **** 			{0x1Du, 0x25u},
 371:Generated_Source\PSoC4/cyfitter_cfg.c **** 			{0x1Eu, 0x01u},
 372:Generated_Source\PSoC4/cyfitter_cfg.c **** 			{0x27u, 0x04u},
 373:Generated_Source\PSoC4/cyfitter_cfg.c **** 			{0x83u, 0x04u},
 374:Generated_Source\PSoC4/cyfitter_cfg.c **** 			{0xC0u, 0x90u},
 375:Generated_Source\PSoC4/cyfitter_cfg.c **** 			{0xC2u, 0xC0u},
 376:Generated_Source\PSoC4/cyfitter_cfg.c **** 			{0x00u, 0x2Au},
 377:Generated_Source\PSoC4/cyfitter_cfg.c **** 			{0x02u, 0x55u},
 378:Generated_Source\PSoC4/cyfitter_cfg.c **** 			{0x04u, 0x11u},
 379:Generated_Source\PSoC4/cyfitter_cfg.c **** 			{0x05u, 0x01u},
 380:Generated_Source\PSoC4/cyfitter_cfg.c **** 			{0x06u, 0x0Au},
 381:Generated_Source\PSoC4/cyfitter_cfg.c **** 			{0x07u, 0x02u},
 382:Generated_Source\PSoC4/cyfitter_cfg.c **** 			{0x08u, 0x40u},
 383:Generated_Source\PSoC4/cyfitter_cfg.c **** 			{0x09u, 0x08u},
 384:Generated_Source\PSoC4/cyfitter_cfg.c **** 			{0x0Bu, 0x10u},
 385:Generated_Source\PSoC4/cyfitter_cfg.c **** 			{0x11u, 0x1Bu},
 386:Generated_Source\PSoC4/cyfitter_cfg.c **** 			{0x13u, 0x64u},
 387:Generated_Source\PSoC4/cyfitter_cfg.c **** 			{0x14u, 0x35u},
 388:Generated_Source\PSoC4/cyfitter_cfg.c **** 			{0x15u, 0x02u},
 389:Generated_Source\PSoC4/cyfitter_cfg.c **** 			{0x16u, 0xCAu},
 390:Generated_Source\PSoC4/cyfitter_cfg.c **** 			{0x17u, 0x25u},
 391:Generated_Source\PSoC4/cyfitter_cfg.c **** 			{0x18u, 0x36u},
 392:Generated_Source\PSoC4/cyfitter_cfg.c **** 			{0x19u, 0x14u},
 393:Generated_Source\PSoC4/cyfitter_cfg.c **** 			{0x1Au, 0x80u},
 394:Generated_Source\PSoC4/cyfitter_cfg.c **** 			{0x1Bu, 0x48u},
 395:Generated_Source\PSoC4/cyfitter_cfg.c **** 			{0x1Eu, 0x20u},
 396:Generated_Source\PSoC4/cyfitter_cfg.c **** 			{0x22u, 0x20u},
 397:Generated_Source\PSoC4/cyfitter_cfg.c **** 			{0x24u, 0x40u},
 398:Generated_Source\PSoC4/cyfitter_cfg.c **** 			{0x25u, 0x7Fu},
 399:Generated_Source\PSoC4/cyfitter_cfg.c **** 			{0x28u, 0x0Au},
 400:Generated_Source\PSoC4/cyfitter_cfg.c **** 			{0x29u, 0x1Bu},
 401:Generated_Source\PSoC4/cyfitter_cfg.c **** 			{0x2Au, 0x11u},
 402:Generated_Source\PSoC4/cyfitter_cfg.c **** 			{0x2Bu, 0x64u},
 403:Generated_Source\PSoC4/cyfitter_cfg.c **** 			{0x2Fu, 0x1Bu},
 404:Generated_Source\PSoC4/cyfitter_cfg.c **** 			{0x30u, 0x06u},
 405:Generated_Source\PSoC4/cyfitter_cfg.c **** 			{0x32u, 0x01u},
 406:Generated_Source\PSoC4/cyfitter_cfg.c **** 			{0x33u, 0x78u},
 407:Generated_Source\PSoC4/cyfitter_cfg.c **** 			{0x34u, 0xF8u},
 408:Generated_Source\PSoC4/cyfitter_cfg.c **** 			{0x35u, 0x07u},
 409:Generated_Source\PSoC4/cyfitter_cfg.c **** 			{0x36u, 0x01u},
 410:Generated_Source\PSoC4/cyfitter_cfg.c **** 			{0x3Au, 0x20u},
 411:Generated_Source\PSoC4/cyfitter_cfg.c **** 			{0x3Bu, 0x28u},
 412:Generated_Source\PSoC4/cyfitter_cfg.c **** 			{0x3Eu, 0x44u},
 413:Generated_Source\PSoC4/cyfitter_cfg.c **** 			{0x40u, 0x42u},
ARM GAS  C:\Users\EDULU~1.DES\AppData\Local\Temp\ccf7BJV7.s 			page 17


 414:Generated_Source\PSoC4/cyfitter_cfg.c **** 			{0x42u, 0x11u},
 415:Generated_Source\PSoC4/cyfitter_cfg.c **** 			{0x49u, 0xFFu},
 416:Generated_Source\PSoC4/cyfitter_cfg.c **** 			{0x4Au, 0xFFu},
 417:Generated_Source\PSoC4/cyfitter_cfg.c **** 			{0x4Bu, 0xFFu},
 418:Generated_Source\PSoC4/cyfitter_cfg.c **** 			{0x4Fu, 0x09u},
 419:Generated_Source\PSoC4/cyfitter_cfg.c **** 			{0x52u, 0x87u},
 420:Generated_Source\PSoC4/cyfitter_cfg.c **** 			{0x58u, 0x04u},
 421:Generated_Source\PSoC4/cyfitter_cfg.c **** 			{0x59u, 0x04u},
 422:Generated_Source\PSoC4/cyfitter_cfg.c **** 			{0x5Au, 0x04u},
 423:Generated_Source\PSoC4/cyfitter_cfg.c **** 			{0x5Bu, 0x04u},
 424:Generated_Source\PSoC4/cyfitter_cfg.c **** 			{0x5Fu, 0x01u},
 425:Generated_Source\PSoC4/cyfitter_cfg.c **** 			{0x60u, 0x50u},
 426:Generated_Source\PSoC4/cyfitter_cfg.c **** 			{0x61u, 0xA8u},
 427:Generated_Source\PSoC4/cyfitter_cfg.c **** 			{0x62u, 0x10u},
 428:Generated_Source\PSoC4/cyfitter_cfg.c **** 			{0x63u, 0x30u},
 429:Generated_Source\PSoC4/cyfitter_cfg.c **** 			{0x64u, 0x40u},
 430:Generated_Source\PSoC4/cyfitter_cfg.c **** 			{0x65u, 0x20u},
 431:Generated_Source\PSoC4/cyfitter_cfg.c **** 			{0x66u, 0x50u},
 432:Generated_Source\PSoC4/cyfitter_cfg.c **** 			{0x67u, 0xA8u},
 433:Generated_Source\PSoC4/cyfitter_cfg.c **** 			{0x80u, 0x0Au},
 434:Generated_Source\PSoC4/cyfitter_cfg.c **** 			{0x82u, 0x04u},
 435:Generated_Source\PSoC4/cyfitter_cfg.c **** 			{0x84u, 0x08u},
 436:Generated_Source\PSoC4/cyfitter_cfg.c **** 			{0x90u, 0x04u},
 437:Generated_Source\PSoC4/cyfitter_cfg.c **** 			{0x92u, 0x08u},
 438:Generated_Source\PSoC4/cyfitter_cfg.c **** 			{0x94u, 0x04u},
 439:Generated_Source\PSoC4/cyfitter_cfg.c **** 			{0x96u, 0x08u},
 440:Generated_Source\PSoC4/cyfitter_cfg.c **** 			{0x98u, 0x08u},
 441:Generated_Source\PSoC4/cyfitter_cfg.c **** 			{0xA2u, 0x04u},
 442:Generated_Source\PSoC4/cyfitter_cfg.c **** 			{0xA4u, 0x0Fu},
 443:Generated_Source\PSoC4/cyfitter_cfg.c **** 			{0xA8u, 0x03u},
 444:Generated_Source\PSoC4/cyfitter_cfg.c **** 			{0xB0u, 0x0Cu},
 445:Generated_Source\PSoC4/cyfitter_cfg.c **** 			{0xB4u, 0x01u},
 446:Generated_Source\PSoC4/cyfitter_cfg.c **** 			{0xB6u, 0x02u},
 447:Generated_Source\PSoC4/cyfitter_cfg.c **** 			{0xB8u, 0xA0u},
 448:Generated_Source\PSoC4/cyfitter_cfg.c **** 			{0xBAu, 0x02u},
 449:Generated_Source\PSoC4/cyfitter_cfg.c **** 			{0xBEu, 0x50u},
 450:Generated_Source\PSoC4/cyfitter_cfg.c **** 			{0xC0u, 0x42u},
 451:Generated_Source\PSoC4/cyfitter_cfg.c **** 			{0xC2u, 0x33u},
 452:Generated_Source\PSoC4/cyfitter_cfg.c **** 			{0xC5u, 0x03u},
 453:Generated_Source\PSoC4/cyfitter_cfg.c **** 			{0xC7u, 0x07u},
 454:Generated_Source\PSoC4/cyfitter_cfg.c **** 			{0xC8u, 0x11u},
 455:Generated_Source\PSoC4/cyfitter_cfg.c **** 			{0xC9u, 0xFFu},
 456:Generated_Source\PSoC4/cyfitter_cfg.c **** 			{0xCAu, 0xFFu},
 457:Generated_Source\PSoC4/cyfitter_cfg.c **** 			{0xCBu, 0xFFu},
 458:Generated_Source\PSoC4/cyfitter_cfg.c **** 			{0xCDu, 0x0Fu},
 459:Generated_Source\PSoC4/cyfitter_cfg.c **** 			{0xCEu, 0x73u},
 460:Generated_Source\PSoC4/cyfitter_cfg.c **** 			{0xCFu, 0x09u},
 461:Generated_Source\PSoC4/cyfitter_cfg.c **** 			{0xD4u, 0x03u},
 462:Generated_Source\PSoC4/cyfitter_cfg.c **** 			{0xD8u, 0x04u},
 463:Generated_Source\PSoC4/cyfitter_cfg.c **** 			{0xDAu, 0x04u},
 464:Generated_Source\PSoC4/cyfitter_cfg.c **** 			{0xDBu, 0x04u},
 465:Generated_Source\PSoC4/cyfitter_cfg.c **** 			{0xDFu, 0x01u},
 466:Generated_Source\PSoC4/cyfitter_cfg.c **** 			{0xE0u, 0x50u},
 467:Generated_Source\PSoC4/cyfitter_cfg.c **** 			{0xE1u, 0xA8u},
 468:Generated_Source\PSoC4/cyfitter_cfg.c **** 			{0xE2u, 0x10u},
 469:Generated_Source\PSoC4/cyfitter_cfg.c **** 			{0xE3u, 0x30u},
 470:Generated_Source\PSoC4/cyfitter_cfg.c **** 			{0xE4u, 0x40u},
ARM GAS  C:\Users\EDULU~1.DES\AppData\Local\Temp\ccf7BJV7.s 			page 18


 471:Generated_Source\PSoC4/cyfitter_cfg.c **** 			{0xE5u, 0x20u},
 472:Generated_Source\PSoC4/cyfitter_cfg.c **** 			{0xE6u, 0x50u},
 473:Generated_Source\PSoC4/cyfitter_cfg.c **** 			{0xE7u, 0xA8u},
 474:Generated_Source\PSoC4/cyfitter_cfg.c **** 			{0x01u, 0x02u},
 475:Generated_Source\PSoC4/cyfitter_cfg.c **** 			{0x03u, 0x10u},
 476:Generated_Source\PSoC4/cyfitter_cfg.c **** 			{0x04u, 0x20u},
 477:Generated_Source\PSoC4/cyfitter_cfg.c **** 			{0x05u, 0x05u},
 478:Generated_Source\PSoC4/cyfitter_cfg.c **** 			{0x08u, 0x04u},
 479:Generated_Source\PSoC4/cyfitter_cfg.c **** 			{0x09u, 0x12u},
 480:Generated_Source\PSoC4/cyfitter_cfg.c **** 			{0x0Cu, 0x24u},
 481:Generated_Source\PSoC4/cyfitter_cfg.c **** 			{0x0Eu, 0x01u},
 482:Generated_Source\PSoC4/cyfitter_cfg.c **** 			{0x10u, 0x28u},
 483:Generated_Source\PSoC4/cyfitter_cfg.c **** 			{0x12u, 0x40u},
 484:Generated_Source\PSoC4/cyfitter_cfg.c **** 			{0x16u, 0x40u},
 485:Generated_Source\PSoC4/cyfitter_cfg.c **** 			{0x17u, 0x28u},
 486:Generated_Source\PSoC4/cyfitter_cfg.c **** 			{0x19u, 0x92u},
 487:Generated_Source\PSoC4/cyfitter_cfg.c **** 			{0x1Cu, 0x10u},
 488:Generated_Source\PSoC4/cyfitter_cfg.c **** 			{0x1Du, 0xA3u},
 489:Generated_Source\PSoC4/cyfitter_cfg.c **** 			{0x24u, 0x20u},
 490:Generated_Source\PSoC4/cyfitter_cfg.c **** 			{0x25u, 0x10u},
 491:Generated_Source\PSoC4/cyfitter_cfg.c **** 			{0x27u, 0x18u},
 492:Generated_Source\PSoC4/cyfitter_cfg.c **** 			{0x2Cu, 0x24u},
 493:Generated_Source\PSoC4/cyfitter_cfg.c **** 			{0x2Eu, 0x80u},
 494:Generated_Source\PSoC4/cyfitter_cfg.c **** 			{0x35u, 0x01u},
 495:Generated_Source\PSoC4/cyfitter_cfg.c **** 			{0x37u, 0x18u},
 496:Generated_Source\PSoC4/cyfitter_cfg.c **** 			{0x3Eu, 0x14u},
 497:Generated_Source\PSoC4/cyfitter_cfg.c **** 			{0x40u, 0x10u},
 498:Generated_Source\PSoC4/cyfitter_cfg.c **** 			{0x41u, 0x22u},
 499:Generated_Source\PSoC4/cyfitter_cfg.c **** 			{0x44u, 0x04u},
 500:Generated_Source\PSoC4/cyfitter_cfg.c **** 			{0x45u, 0xA2u},
 501:Generated_Source\PSoC4/cyfitter_cfg.c **** 			{0x48u, 0x20u},
 502:Generated_Source\PSoC4/cyfitter_cfg.c **** 			{0x50u, 0x08u},
 503:Generated_Source\PSoC4/cyfitter_cfg.c **** 			{0x59u, 0x90u},
 504:Generated_Source\PSoC4/cyfitter_cfg.c **** 			{0x6Eu, 0x14u},
 505:Generated_Source\PSoC4/cyfitter_cfg.c **** 			{0x6Fu, 0x01u},
 506:Generated_Source\PSoC4/cyfitter_cfg.c **** 			{0x76u, 0xC0u},
 507:Generated_Source\PSoC4/cyfitter_cfg.c **** 			{0x83u, 0x21u},
 508:Generated_Source\PSoC4/cyfitter_cfg.c **** 			{0x85u, 0x80u},
 509:Generated_Source\PSoC4/cyfitter_cfg.c **** 			{0x92u, 0x01u},
 510:Generated_Source\PSoC4/cyfitter_cfg.c **** 			{0x97u, 0x01u},
 511:Generated_Source\PSoC4/cyfitter_cfg.c **** 			{0x99u, 0x04u},
 512:Generated_Source\PSoC4/cyfitter_cfg.c **** 			{0x9Fu, 0x01u},
 513:Generated_Source\PSoC4/cyfitter_cfg.c **** 			{0xAEu, 0x01u},
 514:Generated_Source\PSoC4/cyfitter_cfg.c **** 			{0xC0u, 0x7Cu},
 515:Generated_Source\PSoC4/cyfitter_cfg.c **** 			{0xC2u, 0xEEu},
 516:Generated_Source\PSoC4/cyfitter_cfg.c **** 			{0xC4u, 0x7Eu},
 517:Generated_Source\PSoC4/cyfitter_cfg.c **** 			{0xCAu, 0x70u},
 518:Generated_Source\PSoC4/cyfitter_cfg.c **** 			{0xCCu, 0xE0u},
 519:Generated_Source\PSoC4/cyfitter_cfg.c **** 			{0xCEu, 0x60u},
 520:Generated_Source\PSoC4/cyfitter_cfg.c **** 			{0xD0u, 0xB7u},
 521:Generated_Source\PSoC4/cyfitter_cfg.c **** 			{0xD6u, 0x0Cu},
 522:Generated_Source\PSoC4/cyfitter_cfg.c **** 			{0xE2u, 0x80u},
 523:Generated_Source\PSoC4/cyfitter_cfg.c **** 			{0x61u, 0x40u},
 524:Generated_Source\PSoC4/cyfitter_cfg.c **** 			{0x6Fu, 0x02u},
 525:Generated_Source\PSoC4/cyfitter_cfg.c **** 			{0x82u, 0x80u},
 526:Generated_Source\PSoC4/cyfitter_cfg.c **** 			{0xD6u, 0x40u},
 527:Generated_Source\PSoC4/cyfitter_cfg.c **** 			{0xDAu, 0x80u},
ARM GAS  C:\Users\EDULU~1.DES\AppData\Local\Temp\ccf7BJV7.s 			page 19


 528:Generated_Source\PSoC4/cyfitter_cfg.c **** 			{0xE2u, 0x80u},
 529:Generated_Source\PSoC4/cyfitter_cfg.c **** 			{0x0Au, 0x10u},
 530:Generated_Source\PSoC4/cyfitter_cfg.c **** 			{0x56u, 0x80u},
 531:Generated_Source\PSoC4/cyfitter_cfg.c **** 			{0x5Du, 0x01u},
 532:Generated_Source\PSoC4/cyfitter_cfg.c **** 			{0x82u, 0x10u},
 533:Generated_Source\PSoC4/cyfitter_cfg.c **** 			{0x87u, 0x02u},
 534:Generated_Source\PSoC4/cyfitter_cfg.c **** 			{0x89u, 0x40u},
 535:Generated_Source\PSoC4/cyfitter_cfg.c **** 			{0x91u, 0x01u},
 536:Generated_Source\PSoC4/cyfitter_cfg.c **** 			{0x9Au, 0x80u},
 537:Generated_Source\PSoC4/cyfitter_cfg.c **** 			{0x9Du, 0x40u},
 538:Generated_Source\PSoC4/cyfitter_cfg.c **** 			{0xA7u, 0x02u},
 539:Generated_Source\PSoC4/cyfitter_cfg.c **** 			{0xADu, 0x01u},
 540:Generated_Source\PSoC4/cyfitter_cfg.c **** 			{0xC2u, 0x10u},
 541:Generated_Source\PSoC4/cyfitter_cfg.c **** 			{0xD4u, 0x40u},
 542:Generated_Source\PSoC4/cyfitter_cfg.c **** 			{0xD6u, 0x80u},
 543:Generated_Source\PSoC4/cyfitter_cfg.c **** 			{0xE0u, 0x80u},
 544:Generated_Source\PSoC4/cyfitter_cfg.c **** 			{0xE2u, 0x10u},
 545:Generated_Source\PSoC4/cyfitter_cfg.c **** 			{0xEAu, 0x10u},
 546:Generated_Source\PSoC4/cyfitter_cfg.c **** 			{0x60u, 0x01u},
 547:Generated_Source\PSoC4/cyfitter_cfg.c **** 			{0xD6u, 0x02u},
 548:Generated_Source\PSoC4/cyfitter_cfg.c **** 			{0x20u, 0x02u},
 549:Generated_Source\PSoC4/cyfitter_cfg.c **** 			{0x24u, 0x01u},
 550:Generated_Source\PSoC4/cyfitter_cfg.c **** 			{0x88u, 0x01u},
 551:Generated_Source\PSoC4/cyfitter_cfg.c **** 			{0x94u, 0x01u},
 552:Generated_Source\PSoC4/cyfitter_cfg.c **** 			{0xC8u, 0x0Cu},
 553:Generated_Source\PSoC4/cyfitter_cfg.c **** 			{0xE2u, 0x01u},
 554:Generated_Source\PSoC4/cyfitter_cfg.c **** 			{0x10u, 0x01u},
 555:Generated_Source\PSoC4/cyfitter_cfg.c **** 			{0x11u, 0x01u},
 556:Generated_Source\PSoC4/cyfitter_cfg.c **** 		};
 557:Generated_Source\PSoC4/cyfitter_cfg.c **** 
 558:Generated_Source\PSoC4/cyfitter_cfg.c **** 
 559:Generated_Source\PSoC4/cyfitter_cfg.c **** 
 560:Generated_Source\PSoC4/cyfitter_cfg.c **** 		CYPACKED typedef struct {
 561:Generated_Source\PSoC4/cyfitter_cfg.c **** 			void CYFAR *address;
 562:Generated_Source\PSoC4/cyfitter_cfg.c **** 			uint16 size;
 563:Generated_Source\PSoC4/cyfitter_cfg.c **** 		} CYPACKED_ATTR cfg_memset_t;
 564:Generated_Source\PSoC4/cyfitter_cfg.c **** 
 565:Generated_Source\PSoC4/cyfitter_cfg.c **** 		static const cfg_memset_t CYCODE cfg_memset_list[] = {
 566:Generated_Source\PSoC4/cyfitter_cfg.c **** 			/* address, size */
 567:Generated_Source\PSoC4/cyfitter_cfg.c **** 			{(void CYFAR *)(CYDEV_UDB_P0_U0_BASE), 1024u},
 568:Generated_Source\PSoC4/cyfitter_cfg.c **** 			{(void CYFAR *)(CYDEV_UDB_DSI0_BASE), 1024u},
 569:Generated_Source\PSoC4/cyfitter_cfg.c **** 		};
 570:Generated_Source\PSoC4/cyfitter_cfg.c **** 
 571:Generated_Source\PSoC4/cyfitter_cfg.c **** 		uint8 CYDATA i;
 572:Generated_Source\PSoC4/cyfitter_cfg.c **** 
 573:Generated_Source\PSoC4/cyfitter_cfg.c **** 		/* Zero out critical memory blocks before beginning configuration */
 574:Generated_Source\PSoC4/cyfitter_cfg.c **** 		for (i = 0u; i < (sizeof(cfg_memset_list)/sizeof(cfg_memset_list[0])); i++)
 497              		.loc 1 574 0
 498 00e6 FB1D     		adds	r3, r7, #7
 499 00e8 0022     		movs	r2, #0
 500 00ea 1A70     		strb	r2, [r3]
 501 00ec 22E0     		b	.L21
 502              	.L22:
 503              	.LBB4:
 575:Generated_Source\PSoC4/cyfitter_cfg.c **** 		{
 576:Generated_Source\PSoC4/cyfitter_cfg.c **** 			const cfg_memset_t CYCODE * CYDATA ms = &cfg_memset_list[i];
 504              		.loc 1 576 0 discriminator 3
ARM GAS  C:\Users\EDULU~1.DES\AppData\Local\Temp\ccf7BJV7.s 			page 20


 505 00ee FB1D     		adds	r3, r7, #7
 506 00f0 1A78     		ldrb	r2, [r3]
 507 00f2 1300     		movs	r3, r2
 508 00f4 5B00     		lsls	r3, r3, #1
 509 00f6 9B18     		adds	r3, r3, r2
 510 00f8 5B00     		lsls	r3, r3, #1
 511 00fa 574A     		ldr	r2, .L23+4
 512 00fc 9B18     		adds	r3, r3, r2
 513 00fe 3B60     		str	r3, [r7]
 577:Generated_Source\PSoC4/cyfitter_cfg.c **** 			CYMEMZERO(ms->address, (size_t)(uint32)(ms->size));
 514              		.loc 1 577 0 discriminator 3
 515 0100 3B68     		ldr	r3, [r7]
 516 0102 1A78     		ldrb	r2, [r3]
 517 0104 5978     		ldrb	r1, [r3, #1]
 518 0106 0902     		lsls	r1, r1, #8
 519 0108 0A43     		orrs	r2, r1
 520 010a 9978     		ldrb	r1, [r3, #2]
 521 010c 0904     		lsls	r1, r1, #16
 522 010e 0A43     		orrs	r2, r1
 523 0110 DB78     		ldrb	r3, [r3, #3]
 524 0112 1B06     		lsls	r3, r3, #24
 525 0114 1343     		orrs	r3, r2
 526 0116 1800     		movs	r0, r3
 527 0118 3B68     		ldr	r3, [r7]
 528 011a 1A79     		ldrb	r2, [r3, #4]
 529 011c 5B79     		ldrb	r3, [r3, #5]
 530 011e 1B02     		lsls	r3, r3, #8
 531 0120 1343     		orrs	r3, r2
 532 0122 9BB2     		uxth	r3, r3
 533 0124 1900     		movs	r1, r3
 534 0126 FFF7FEFF 		bl	CYMEMZERO
 535              	.LBE4:
 574:Generated_Source\PSoC4/cyfitter_cfg.c **** 		{
 536              		.loc 1 574 0 discriminator 3
 537 012a FB1D     		adds	r3, r7, #7
 538 012c 1A78     		ldrb	r2, [r3]
 539 012e FB1D     		adds	r3, r7, #7
 540 0130 0132     		adds	r2, r2, #1
 541 0132 1A70     		strb	r2, [r3]
 542              	.L21:
 574:Generated_Source\PSoC4/cyfitter_cfg.c **** 		{
 543              		.loc 1 574 0 is_stmt 0 discriminator 1
 544 0134 FB1D     		adds	r3, r7, #7
 545 0136 1B78     		ldrb	r3, [r3]
 546 0138 012B     		cmp	r3, #1
 547 013a D8D9     		bls	.L22
 578:Generated_Source\PSoC4/cyfitter_cfg.c **** 		}
 579:Generated_Source\PSoC4/cyfitter_cfg.c **** 
 580:Generated_Source\PSoC4/cyfitter_cfg.c **** 		cfg_write_bytes32(cy_cfg_addr_table, cy_cfg_data_table);
 548              		.loc 1 580 0 is_stmt 1
 549 013c 474A     		ldr	r2, .L23+8
 550 013e 484B     		ldr	r3, .L23+12
 551 0140 1100     		movs	r1, r2
 552 0142 1800     		movs	r0, r3
 553 0144 FFF7FEFF 		bl	cfg_write_bytes32
 581:Generated_Source\PSoC4/cyfitter_cfg.c **** 
 582:Generated_Source\PSoC4/cyfitter_cfg.c **** 		/* Perform normal device configuration. Order is not critical for these items. */
ARM GAS  C:\Users\EDULU~1.DES\AppData\Local\Temp\ccf7BJV7.s 			page 21


 583:Generated_Source\PSoC4/cyfitter_cfg.c **** 		CY_SET_REG16((void *)(CYREG_UDB_BCTL0_DRV), 0x0100u);
 554              		.loc 1 583 0
 555 0148 464B     		ldr	r3, .L23+16
 556 014a 8022     		movs	r2, #128
 557 014c 5200     		lsls	r2, r2, #1
 558 014e 1A80     		strh	r2, [r3]
 584:Generated_Source\PSoC4/cyfitter_cfg.c **** 		CY_SET_REG8((void *)(CYREG_UDB_BCTL0_DRV + 0x2u), 0x01u);
 559              		.loc 1 584 0
 560 0150 454B     		ldr	r3, .L23+20
 561 0152 0122     		movs	r2, #1
 562 0154 1A70     		strb	r2, [r3]
 585:Generated_Source\PSoC4/cyfitter_cfg.c **** 
 586:Generated_Source\PSoC4/cyfitter_cfg.c **** 		/* HSIOM Starting address: CYDEV_HSIOM_BASE */
 587:Generated_Source\PSoC4/cyfitter_cfg.c **** 		CY_SET_REG32((void *)(CYDEV_HSIOM_BASE), 0x03000000u);
 563              		.loc 1 587 0
 564 0156 454B     		ldr	r3, .L23+24
 565 0158 C022     		movs	r2, #192
 566 015a 9204     		lsls	r2, r2, #18
 567 015c 1A60     		str	r2, [r3]
 588:Generated_Source\PSoC4/cyfitter_cfg.c **** 		CY_SET_REG32((void *)(CYREG_HSIOM_PORT_SEL1), 0x00300070u);
 568              		.loc 1 588 0
 569 015e 444B     		ldr	r3, .L23+28
 570 0160 444A     		ldr	r2, .L23+32
 571 0162 1A60     		str	r2, [r3]
 589:Generated_Source\PSoC4/cyfitter_cfg.c **** 		CY_SET_REG32((void *)(CYREG_HSIOM_PORT_SEL2), 0x03000000u);
 572              		.loc 1 589 0
 573 0164 444B     		ldr	r3, .L23+36
 574 0166 C022     		movs	r2, #192
 575 0168 9204     		lsls	r2, r2, #18
 576 016a 1A60     		str	r2, [r3]
 590:Generated_Source\PSoC4/cyfitter_cfg.c **** 		CY_SET_REG32((void *)(CYREG_HSIOM_PORT_SEL3), 0x0080EE00u);
 577              		.loc 1 590 0
 578 016c 434B     		ldr	r3, .L23+40
 579 016e 444A     		ldr	r2, .L23+44
 580 0170 1A60     		str	r2, [r3]
 591:Generated_Source\PSoC4/cyfitter_cfg.c **** 		CY_SET_REG32((void *)(CYREG_HSIOM_PORT_SEL4), 0x000000EEu);
 581              		.loc 1 591 0
 582 0172 444B     		ldr	r3, .L23+48
 583 0174 EE22     		movs	r2, #238
 584 0176 1A60     		str	r2, [r3]
 592:Generated_Source\PSoC4/cyfitter_cfg.c **** 
 593:Generated_Source\PSoC4/cyfitter_cfg.c **** 		/* UDB_PA_0 Starting address: CYDEV_UDB_PA0_BASE */
 594:Generated_Source\PSoC4/cyfitter_cfg.c **** 		CY_SET_REG32((void *)(CYDEV_UDB_PA0_BASE), 0x00990000u);
 585              		.loc 1 594 0
 586 0178 434B     		ldr	r3, .L23+52
 587 017a 9922     		movs	r2, #153
 588 017c 1204     		lsls	r2, r2, #16
 589 017e 1A60     		str	r2, [r3]
 595:Generated_Source\PSoC4/cyfitter_cfg.c **** 		CY_SET_REG32((void *)(CYREG_UDB_PA0_CFG4), 0x80000000u);
 590              		.loc 1 595 0
 591 0180 424B     		ldr	r3, .L23+56
 592 0182 8022     		movs	r2, #128
 593 0184 1206     		lsls	r2, r2, #24
 594 0186 1A60     		str	r2, [r3]
 596:Generated_Source\PSoC4/cyfitter_cfg.c **** 		CY_SET_REG32((void *)(CYREG_UDB_PA0_CFG8), 0x45000000u);
 595              		.loc 1 596 0
 596 0188 414B     		ldr	r3, .L23+60
ARM GAS  C:\Users\EDULU~1.DES\AppData\Local\Temp\ccf7BJV7.s 			page 22


 597 018a 8A22     		movs	r2, #138
 598 018c D205     		lsls	r2, r2, #23
 599 018e 1A60     		str	r2, [r3]
 597:Generated_Source\PSoC4/cyfitter_cfg.c **** 
 598:Generated_Source\PSoC4/cyfitter_cfg.c **** 		/* UDB_PA_1 Starting address: CYDEV_UDB_PA1_BASE */
 599:Generated_Source\PSoC4/cyfitter_cfg.c **** 		CY_SET_REG32((void *)(CYDEV_UDB_PA1_BASE), 0x00990004u);
 600              		.loc 1 599 0
 601 0190 404B     		ldr	r3, .L23+64
 602 0192 414A     		ldr	r2, .L23+68
 603 0194 1A60     		str	r2, [r3]
 600:Generated_Source\PSoC4/cyfitter_cfg.c **** 		CY_SET_REG32((void *)(CYREG_UDB_PA1_CFG4), 0x02000000u);
 604              		.loc 1 600 0
 605 0196 414B     		ldr	r3, .L23+72
 606 0198 8022     		movs	r2, #128
 607 019a 9204     		lsls	r2, r2, #18
 608 019c 1A60     		str	r2, [r3]
 601:Generated_Source\PSoC4/cyfitter_cfg.c **** 		CY_SET_REG32((void *)(CYREG_UDB_PA1_CFG8), 0x04040000u);
 609              		.loc 1 601 0
 610 019e 404B     		ldr	r3, .L23+76
 611 01a0 404A     		ldr	r2, .L23+80
 612 01a2 1A60     		str	r2, [r3]
 602:Generated_Source\PSoC4/cyfitter_cfg.c **** 
 603:Generated_Source\PSoC4/cyfitter_cfg.c **** 		/* UDB_PA_2 Starting address: CYDEV_UDB_PA2_BASE */
 604:Generated_Source\PSoC4/cyfitter_cfg.c **** 		CY_SET_REG32((void *)(CYDEV_UDB_PA2_BASE), 0x00990000u);
 613              		.loc 1 604 0
 614 01a4 404B     		ldr	r3, .L23+84
 615 01a6 9922     		movs	r2, #153
 616 01a8 1204     		lsls	r2, r2, #16
 617 01aa 1A60     		str	r2, [r3]
 605:Generated_Source\PSoC4/cyfitter_cfg.c **** 		CY_SET_REG32((void *)(CYREG_UDB_PA2_CFG8), 0x45000000u);
 618              		.loc 1 605 0
 619 01ac 3F4B     		ldr	r3, .L23+88
 620 01ae 8A22     		movs	r2, #138
 621 01b0 D205     		lsls	r2, r2, #23
 622 01b2 1A60     		str	r2, [r3]
 606:Generated_Source\PSoC4/cyfitter_cfg.c **** 
 607:Generated_Source\PSoC4/cyfitter_cfg.c **** 		/* UDB_PA_3 Starting address: CYDEV_UDB_PA3_BASE */
 608:Generated_Source\PSoC4/cyfitter_cfg.c **** 		CY_SET_REG32((void *)(CYDEV_UDB_PA3_BASE), 0x00990000u);
 623              		.loc 1 608 0
 624 01b4 3E4B     		ldr	r3, .L23+92
 625 01b6 9922     		movs	r2, #153
 626 01b8 1204     		lsls	r2, r2, #16
 627 01ba 1A60     		str	r2, [r3]
 609:Generated_Source\PSoC4/cyfitter_cfg.c **** 
 610:Generated_Source\PSoC4/cyfitter_cfg.c **** 		/* INT_SELECT Starting address: CYDEV_CPUSS_INTR_SELECT */
 611:Generated_Source\PSoC4/cyfitter_cfg.c **** 		CY_SET_REG32((void *)(CYREG_CPUSS_INTR_SELECT), 0x00000001u);
 628              		.loc 1 611 0
 629 01bc 3D4B     		ldr	r3, .L23+96
 630 01be 0122     		movs	r2, #1
 631 01c0 1A60     		str	r2, [r3]
 612:Generated_Source\PSoC4/cyfitter_cfg.c **** 
 613:Generated_Source\PSoC4/cyfitter_cfg.c **** 		/* INT_CONFIG Starting address: CYDEV_UDB_INT_CFG */
 614:Generated_Source\PSoC4/cyfitter_cfg.c **** 		CY_SET_REG32((void *)(CYREG_UDB_INT_CFG), 0x00000002u);
 632              		.loc 1 614 0
 633 01c2 3D4B     		ldr	r3, .L23+100
 634 01c4 0222     		movs	r2, #2
 635 01c6 1A60     		str	r2, [r3]
ARM GAS  C:\Users\EDULU~1.DES\AppData\Local\Temp\ccf7BJV7.s 			page 23


 615:Generated_Source\PSoC4/cyfitter_cfg.c **** 
 616:Generated_Source\PSoC4/cyfitter_cfg.c **** 		/* Enable UDB array and digital routing */
 617:Generated_Source\PSoC4/cyfitter_cfg.c **** 		CY_SET_XTND_REG8((void *)CYREG_UDB_UDBIF_WAIT_CFG, (uint8)((CY_GET_XTND_REG8((void *)CYREG_UDB_UD
 636              		.loc 1 617 0
 637 01c8 3C4A     		ldr	r2, .L23+104
 638 01ca 3C4B     		ldr	r3, .L23+104
 639 01cc 1B78     		ldrb	r3, [r3]
 640 01ce DBB2     		uxtb	r3, r3
 641 01d0 3C21     		movs	r1, #60
 642 01d2 8B43     		bics	r3, r1
 643 01d4 DBB2     		uxtb	r3, r3
 644 01d6 1421     		movs	r1, #20
 645 01d8 0B43     		orrs	r3, r1
 646 01da DBB2     		uxtb	r3, r3
 647 01dc 1370     		strb	r3, [r2]
 618:Generated_Source\PSoC4/cyfitter_cfg.c **** 		CY_SET_XTND_REG8((void *)CYREG_UDB_UDBIF_BANK_CTL, (uint8)(CY_GET_XTND_REG8((void *)CYREG_UDB_UDB
 648              		.loc 1 618 0
 649 01de 384A     		ldr	r2, .L23+108
 650 01e0 374B     		ldr	r3, .L23+108
 651 01e2 1B78     		ldrb	r3, [r3]
 652 01e4 DBB2     		uxtb	r3, r3
 653 01e6 1621     		movs	r1, #22
 654 01e8 0B43     		orrs	r3, r1
 655 01ea DBB2     		uxtb	r3, r3
 656 01ec 1370     		strb	r3, [r2]
 657              	.LBE3:
 619:Generated_Source\PSoC4/cyfitter_cfg.c **** 	}
 620:Generated_Source\PSoC4/cyfitter_cfg.c **** 
 621:Generated_Source\PSoC4/cyfitter_cfg.c **** 	/* Perform second pass device configuration. These items must be configured in specific order afte
 622:Generated_Source\PSoC4/cyfitter_cfg.c **** 	/* IOPINS0_0 Starting address: CYDEV_PRT0_BASE */
 623:Generated_Source\PSoC4/cyfitter_cfg.c **** 	CY_SET_REG32((void *)(CYDEV_PRT0_BASE), 0x000000C0u);
 658              		.loc 1 623 0
 659 01ee 354B     		ldr	r3, .L23+112
 660 01f0 C022     		movs	r2, #192
 661 01f2 1A60     		str	r2, [r3]
 624:Generated_Source\PSoC4/cyfitter_cfg.c **** 	CY_SET_REG32((void *)(CYREG_PRT0_PC), 0x00580000u);
 662              		.loc 1 624 0
 663 01f4 344B     		ldr	r3, .L23+116
 664 01f6 B022     		movs	r2, #176
 665 01f8 D203     		lsls	r2, r2, #15
 666 01fa 1A60     		str	r2, [r3]
 625:Generated_Source\PSoC4/cyfitter_cfg.c **** 
 626:Generated_Source\PSoC4/cyfitter_cfg.c **** 	/* IOPINS0_1 Starting address: CYDEV_PRT1_BASE */
 627:Generated_Source\PSoC4/cyfitter_cfg.c **** 	CY_SET_REG32((void *)(CYDEV_PRT1_BASE), 0x00000025u);
 667              		.loc 1 627 0
 668 01fc 334B     		ldr	r3, .L23+120
 669 01fe 2522     		movs	r2, #37
 670 0200 1A60     		str	r2, [r3]
 628:Generated_Source\PSoC4/cyfitter_cfg.c **** 	CY_SET_REG32((void *)(CYREG_PRT1_PC), 0x00071000u);
 671              		.loc 1 628 0
 672 0202 334B     		ldr	r3, .L23+124
 673 0204 E222     		movs	r2, #226
 674 0206 D202     		lsls	r2, r2, #11
 675 0208 1A60     		str	r2, [r3]
 629:Generated_Source\PSoC4/cyfitter_cfg.c **** 	CY_SET_REG32((void *)(CYREG_PRT1_INTCFG), 0x00001000u);
 676              		.loc 1 629 0
 677 020a 324B     		ldr	r3, .L23+128
ARM GAS  C:\Users\EDULU~1.DES\AppData\Local\Temp\ccf7BJV7.s 			page 24


 678 020c 8022     		movs	r2, #128
 679 020e 5201     		lsls	r2, r2, #5
 680 0210 1A60     		str	r2, [r3]
 630:Generated_Source\PSoC4/cyfitter_cfg.c **** 	CY_SET_REG32((void *)(CYREG_PRT1_PC2), 0x00000005u);
 681              		.loc 1 630 0
 682 0212 314B     		ldr	r3, .L23+132
 683 0214 0522     		movs	r2, #5
 684 0216 1A60     		str	r2, [r3]
 631:Generated_Source\PSoC4/cyfitter_cfg.c **** 
 632:Generated_Source\PSoC4/cyfitter_cfg.c **** 	/* IOPINS0_2 Starting address: CYDEV_PRT2_BASE */
 633:Generated_Source\PSoC4/cyfitter_cfg.c **** 	CY_SET_REG32((void *)(CYDEV_PRT2_BASE), 0x000000C0u);
 685              		.loc 1 633 0
 686 0218 304B     		ldr	r3, .L23+136
 687 021a C022     		movs	r2, #192
 688 021c 1A60     		str	r2, [r3]
 634:Generated_Source\PSoC4/cyfitter_cfg.c **** 	CY_SET_REG32((void *)(CYREG_PRT2_PC), 0x00180000u);
 689              		.loc 1 634 0
 690 021e 304B     		ldr	r3, .L23+140
 691 0220 C022     		movs	r2, #192
 692 0222 5203     		lsls	r2, r2, #13
 693 0224 1A60     		str	r2, [r3]
 635:Generated_Source\PSoC4/cyfitter_cfg.c **** 	CY_SET_REG32((void *)(CYREG_PRT2_PC2), 0x00000080u);
 694              		.loc 1 635 0
 695 0226 2F4B     		ldr	r3, .L23+144
 696 0228 8022     		movs	r2, #128
 697 022a 1A60     		str	r2, [r3]
 636:Generated_Source\PSoC4/cyfitter_cfg.c **** 
 637:Generated_Source\PSoC4/cyfitter_cfg.c **** 	/* IOPINS0_3 Starting address: CYDEV_PRT3_BASE */
 638:Generated_Source\PSoC4/cyfitter_cfg.c **** 	CY_SET_REG32((void *)(CYDEV_PRT3_BASE), 0x00000020u);
 698              		.loc 1 638 0
 699 022c 2E4B     		ldr	r3, .L23+148
 700 022e 2022     		movs	r2, #32
 701 0230 1A60     		str	r2, [r3]
 639:Generated_Source\PSoC4/cyfitter_cfg.c **** 	CY_SET_REG32((void *)(CYREG_PRT3_PC), 0x00030D80u);
 702              		.loc 1 639 0
 703 0232 2E4B     		ldr	r3, .L23+152
 704 0234 2E4A     		ldr	r2, .L23+156
 705 0236 1A60     		str	r2, [r3]
 640:Generated_Source\PSoC4/cyfitter_cfg.c **** 
 641:Generated_Source\PSoC4/cyfitter_cfg.c **** 	/* IOPINS0_4 Starting address: CYDEV_PRT4_BASE */
 642:Generated_Source\PSoC4/cyfitter_cfg.c **** 	CY_SET_REG32((void *)(CYDEV_PRT4_BASE), 0x00000003u);
 706              		.loc 1 642 0
 707 0238 2E4B     		ldr	r3, .L23+160
 708 023a 0322     		movs	r2, #3
 709 023c 1A60     		str	r2, [r3]
 643:Generated_Source\PSoC4/cyfitter_cfg.c **** 	CY_SET_REG32((void *)(CYREG_PRT4_PC), 0x00000024u);
 710              		.loc 1 643 0
 711 023e 2E4B     		ldr	r3, .L23+164
 712 0240 2422     		movs	r2, #36
 713 0242 1A60     		str	r2, [r3]
 644:Generated_Source\PSoC4/cyfitter_cfg.c **** 
 645:Generated_Source\PSoC4/cyfitter_cfg.c **** 
 646:Generated_Source\PSoC4/cyfitter_cfg.c **** 	/* Setup clocks based on selections from Clock DWR */
 647:Generated_Source\PSoC4/cyfitter_cfg.c **** 	ClockSetup();
 714              		.loc 1 647 0
 715 0244 FFF7DCFE 		bl	ClockSetup
 648:Generated_Source\PSoC4/cyfitter_cfg.c **** 
ARM GAS  C:\Users\EDULU~1.DES\AppData\Local\Temp\ccf7BJV7.s 			page 25


 649:Generated_Source\PSoC4/cyfitter_cfg.c **** 	/* Perform basic analog initialization to defaults */
 650:Generated_Source\PSoC4/cyfitter_cfg.c **** 	AnalogSetDefault();
 716              		.loc 1 650 0
 717 0248 FFF7FEFF 		bl	AnalogSetDefault
 651:Generated_Source\PSoC4/cyfitter_cfg.c **** 
 652:Generated_Source\PSoC4/cyfitter_cfg.c **** }
 718              		.loc 1 652 0
 719 024c C046     		nop
 720 024e BD46     		mov	sp, r7
 721 0250 02B0     		add	sp, sp, #8
 722              		@ sp needed
 723 0252 80BD     		pop	{r7, pc}
 724              	.L24:
 725              		.align	2
 726              	.L23:
 727 0254 1C700F40 		.word	1074753564
 728 0258 00000000 		.word	cfg_memset_list.4876
 729 025c 30000000 		.word	cy_cfg_data_table.4871
 730 0260 0C000000 		.word	cy_cfg_addr_table.4870
 731 0264 00600F40 		.word	1074749440
 732 0268 02600F40 		.word	1074749442
 733 026c 00000140 		.word	1073807360
 734 0270 04000140 		.word	1073807364
 735 0274 70003000 		.word	3145840
 736 0278 08000140 		.word	1073807368
 737 027c 0C000140 		.word	1073807372
 738 0280 00EE8000 		.word	8449536
 739 0284 10000140 		.word	1073807376
 740 0288 00500F40 		.word	1074745344
 741 028c 04500F40 		.word	1074745348
 742 0290 08500F40 		.word	1074745352
 743 0294 10500F40 		.word	1074745360
 744 0298 04009900 		.word	10027012
 745 029c 14500F40 		.word	1074745364
 746 02a0 18500F40 		.word	1074745368
 747 02a4 00000404 		.word	67371008
 748 02a8 20500F40 		.word	1074745376
 749 02ac 28500F40 		.word	1074745384
 750 02b0 30500F40 		.word	1074745392
 751 02b4 20000040 		.word	1073741856
 752 02b8 00800F40 		.word	1074757632
 753 02bc 01700F40 		.word	1074753537
 754 02c0 00700F40 		.word	1074753536
 755 02c4 00000440 		.word	1074003968
 756 02c8 08000440 		.word	1074003976
 757 02cc 00010440 		.word	1074004224
 758 02d0 08010440 		.word	1074004232
 759 02d4 0C010440 		.word	1074004236
 760 02d8 18010440 		.word	1074004248
 761 02dc 00020440 		.word	1074004480
 762 02e0 08020440 		.word	1074004488
 763 02e4 18020440 		.word	1074004504
 764 02e8 00030440 		.word	1074004736
 765 02ec 08030440 		.word	1074004744
 766 02f0 800D0300 		.word	200064
 767 02f4 00040440 		.word	1074004992
 768 02f8 08040440 		.word	1074005000
ARM GAS  C:\Users\EDULU~1.DES\AppData\Local\Temp\ccf7BJV7.s 			page 26


 769              		.cfi_endproc
 770              	.LFE7:
 771              		.size	cyfitter_cfg, .-cyfitter_cfg
 772              		.section	.rodata
 773              		.align	2
 774              		.type	cfg_memset_list.4876, %object
 775              		.size	cfg_memset_list.4876, 12
 776              	cfg_memset_list.4876:
 777 0000 00300F40 		.word	1074737152
 778 0004 0004     		.short	1024
 779 0006 00400F40 		.4byte	1074741248
 780 000a 0004     		.short	1024
 781              		.align	2
 782              		.type	cy_cfg_addr_table.4870, %object
 783              		.size	cy_cfg_addr_table.4870, 36
 784              	cy_cfg_addr_table.4870:
 785 000c 0F300F40 		.word	1074737167
 786 0010 0A310F40 		.word	1074737418
 787 0014 62320F40 		.word	1074737762
 788 0018 31330F40 		.word	1074737969
 789 001c 06400F40 		.word	1074741254
 790 0020 11410F40 		.word	1074741521
 791 0024 02420F40 		.word	1074741762
 792 0028 06430F40 		.word	1074742022
 793 002c 02600F40 		.word	1074749442
 794              		.align	2
 795              		.type	cy_cfg_data_table.4871, %object
 796              		.size	cy_cfg_data_table.4871, 410
 797              	cy_cfg_data_table.4871:
 798 0030 80       		.byte	-128
 799 0031 02       		.byte	2
 800 0032 82       		.byte	-126
 801 0033 01       		.byte	1
 802 0034 8E       		.byte	-114
 803 0035 08       		.byte	8
 804 0036 98       		.byte	-104
 805 0037 01       		.byte	1
 806 0038 9A       		.byte	-102
 807 0039 06       		.byte	6
 808 003a 9E       		.byte	-98
 809 003b 10       		.byte	16
 810 003c B0       		.byte	-80
 811 003d 04       		.byte	4
 812 003e B2       		.byte	-78
 813 003f 10       		.byte	16
 814 0040 B4       		.byte	-76
 815 0041 08       		.byte	8
 816 0042 B5       		.byte	-75
 817 0043 01       		.byte	1
 818 0044 B6       		.byte	-74
 819 0045 03       		.byte	3
 820 0046 BF       		.byte	-65
 821 0047 10       		.byte	16
 822 0048 D8       		.byte	-40
 823 0049 04       		.byte	4
 824 004a D9       		.byte	-39
 825 004b 04       		.byte	4
ARM GAS  C:\Users\EDULU~1.DES\AppData\Local\Temp\ccf7BJV7.s 			page 27


 826 004c DF       		.byte	-33
 827 004d 01       		.byte	1
 828 004e 05       		.byte	5
 829 004f 01       		.byte	1
 830 0050 07       		.byte	7
 831 0051 01       		.byte	1
 832 0052 0D       		.byte	13
 833 0053 20       		.byte	32
 834 0054 0F       		.byte	15
 835 0055 01       		.byte	1
 836 0056 1D       		.byte	29
 837 0057 25       		.byte	37
 838 0058 1E       		.byte	30
 839 0059 01       		.byte	1
 840 005a 27       		.byte	39
 841 005b 04       		.byte	4
 842 005c 83       		.byte	-125
 843 005d 04       		.byte	4
 844 005e C0       		.byte	-64
 845 005f 90       		.byte	-112
 846 0060 C2       		.byte	-62
 847 0061 C0       		.byte	-64
 848 0062 00       		.byte	0
 849 0063 2A       		.byte	42
 850 0064 02       		.byte	2
 851 0065 55       		.byte	85
 852 0066 04       		.byte	4
 853 0067 11       		.byte	17
 854 0068 05       		.byte	5
 855 0069 01       		.byte	1
 856 006a 06       		.byte	6
 857 006b 0A       		.byte	10
 858 006c 07       		.byte	7
 859 006d 02       		.byte	2
 860 006e 08       		.byte	8
 861 006f 40       		.byte	64
 862 0070 09       		.byte	9
 863 0071 08       		.byte	8
 864 0072 0B       		.byte	11
 865 0073 10       		.byte	16
 866 0074 11       		.byte	17
 867 0075 1B       		.byte	27
 868 0076 13       		.byte	19
 869 0077 64       		.byte	100
 870 0078 14       		.byte	20
 871 0079 35       		.byte	53
 872 007a 15       		.byte	21
 873 007b 02       		.byte	2
 874 007c 16       		.byte	22
 875 007d CA       		.byte	-54
 876 007e 17       		.byte	23
 877 007f 25       		.byte	37
 878 0080 18       		.byte	24
 879 0081 36       		.byte	54
 880 0082 19       		.byte	25
 881 0083 14       		.byte	20
 882 0084 1A       		.byte	26
ARM GAS  C:\Users\EDULU~1.DES\AppData\Local\Temp\ccf7BJV7.s 			page 28


 883 0085 80       		.byte	-128
 884 0086 1B       		.byte	27
 885 0087 48       		.byte	72
 886 0088 1E       		.byte	30
 887 0089 20       		.byte	32
 888 008a 22       		.byte	34
 889 008b 20       		.byte	32
 890 008c 24       		.byte	36
 891 008d 40       		.byte	64
 892 008e 25       		.byte	37
 893 008f 7F       		.byte	127
 894 0090 28       		.byte	40
 895 0091 0A       		.byte	10
 896 0092 29       		.byte	41
 897 0093 1B       		.byte	27
 898 0094 2A       		.byte	42
 899 0095 11       		.byte	17
 900 0096 2B       		.byte	43
 901 0097 64       		.byte	100
 902 0098 2F       		.byte	47
 903 0099 1B       		.byte	27
 904 009a 30       		.byte	48
 905 009b 06       		.byte	6
 906 009c 32       		.byte	50
 907 009d 01       		.byte	1
 908 009e 33       		.byte	51
 909 009f 78       		.byte	120
 910 00a0 34       		.byte	52
 911 00a1 F8       		.byte	-8
 912 00a2 35       		.byte	53
 913 00a3 07       		.byte	7
 914 00a4 36       		.byte	54
 915 00a5 01       		.byte	1
 916 00a6 3A       		.byte	58
 917 00a7 20       		.byte	32
 918 00a8 3B       		.byte	59
 919 00a9 28       		.byte	40
 920 00aa 3E       		.byte	62
 921 00ab 44       		.byte	68
 922 00ac 40       		.byte	64
 923 00ad 42       		.byte	66
 924 00ae 42       		.byte	66
 925 00af 11       		.byte	17
 926 00b0 49       		.byte	73
 927 00b1 FF       		.byte	-1
 928 00b2 4A       		.byte	74
 929 00b3 FF       		.byte	-1
 930 00b4 4B       		.byte	75
 931 00b5 FF       		.byte	-1
 932 00b6 4F       		.byte	79
 933 00b7 09       		.byte	9
 934 00b8 52       		.byte	82
 935 00b9 87       		.byte	-121
 936 00ba 58       		.byte	88
 937 00bb 04       		.byte	4
 938 00bc 59       		.byte	89
 939 00bd 04       		.byte	4
ARM GAS  C:\Users\EDULU~1.DES\AppData\Local\Temp\ccf7BJV7.s 			page 29


 940 00be 5A       		.byte	90
 941 00bf 04       		.byte	4
 942 00c0 5B       		.byte	91
 943 00c1 04       		.byte	4
 944 00c2 5F       		.byte	95
 945 00c3 01       		.byte	1
 946 00c4 60       		.byte	96
 947 00c5 50       		.byte	80
 948 00c6 61       		.byte	97
 949 00c7 A8       		.byte	-88
 950 00c8 62       		.byte	98
 951 00c9 10       		.byte	16
 952 00ca 63       		.byte	99
 953 00cb 30       		.byte	48
 954 00cc 64       		.byte	100
 955 00cd 40       		.byte	64
 956 00ce 65       		.byte	101
 957 00cf 20       		.byte	32
 958 00d0 66       		.byte	102
 959 00d1 50       		.byte	80
 960 00d2 67       		.byte	103
 961 00d3 A8       		.byte	-88
 962 00d4 80       		.byte	-128
 963 00d5 0A       		.byte	10
 964 00d6 82       		.byte	-126
 965 00d7 04       		.byte	4
 966 00d8 84       		.byte	-124
 967 00d9 08       		.byte	8
 968 00da 90       		.byte	-112
 969 00db 04       		.byte	4
 970 00dc 92       		.byte	-110
 971 00dd 08       		.byte	8
 972 00de 94       		.byte	-108
 973 00df 04       		.byte	4
 974 00e0 96       		.byte	-106
 975 00e1 08       		.byte	8
 976 00e2 98       		.byte	-104
 977 00e3 08       		.byte	8
 978 00e4 A2       		.byte	-94
 979 00e5 04       		.byte	4
 980 00e6 A4       		.byte	-92
 981 00e7 0F       		.byte	15
 982 00e8 A8       		.byte	-88
 983 00e9 03       		.byte	3
 984 00ea B0       		.byte	-80
 985 00eb 0C       		.byte	12
 986 00ec B4       		.byte	-76
 987 00ed 01       		.byte	1
 988 00ee B6       		.byte	-74
 989 00ef 02       		.byte	2
 990 00f0 B8       		.byte	-72
 991 00f1 A0       		.byte	-96
 992 00f2 BA       		.byte	-70
 993 00f3 02       		.byte	2
 994 00f4 BE       		.byte	-66
 995 00f5 50       		.byte	80
 996 00f6 C0       		.byte	-64
ARM GAS  C:\Users\EDULU~1.DES\AppData\Local\Temp\ccf7BJV7.s 			page 30


 997 00f7 42       		.byte	66
 998 00f8 C2       		.byte	-62
 999 00f9 33       		.byte	51
 1000 00fa C5       		.byte	-59
 1001 00fb 03       		.byte	3
 1002 00fc C7       		.byte	-57
 1003 00fd 07       		.byte	7
 1004 00fe C8       		.byte	-56
 1005 00ff 11       		.byte	17
 1006 0100 C9       		.byte	-55
 1007 0101 FF       		.byte	-1
 1008 0102 CA       		.byte	-54
 1009 0103 FF       		.byte	-1
 1010 0104 CB       		.byte	-53
 1011 0105 FF       		.byte	-1
 1012 0106 CD       		.byte	-51
 1013 0107 0F       		.byte	15
 1014 0108 CE       		.byte	-50
 1015 0109 73       		.byte	115
 1016 010a CF       		.byte	-49
 1017 010b 09       		.byte	9
 1018 010c D4       		.byte	-44
 1019 010d 03       		.byte	3
 1020 010e D8       		.byte	-40
 1021 010f 04       		.byte	4
 1022 0110 DA       		.byte	-38
 1023 0111 04       		.byte	4
 1024 0112 DB       		.byte	-37
 1025 0113 04       		.byte	4
 1026 0114 DF       		.byte	-33
 1027 0115 01       		.byte	1
 1028 0116 E0       		.byte	-32
 1029 0117 50       		.byte	80
 1030 0118 E1       		.byte	-31
 1031 0119 A8       		.byte	-88
 1032 011a E2       		.byte	-30
 1033 011b 10       		.byte	16
 1034 011c E3       		.byte	-29
 1035 011d 30       		.byte	48
 1036 011e E4       		.byte	-28
 1037 011f 40       		.byte	64
 1038 0120 E5       		.byte	-27
 1039 0121 20       		.byte	32
 1040 0122 E6       		.byte	-26
 1041 0123 50       		.byte	80
 1042 0124 E7       		.byte	-25
 1043 0125 A8       		.byte	-88
 1044 0126 01       		.byte	1
 1045 0127 02       		.byte	2
 1046 0128 03       		.byte	3
 1047 0129 10       		.byte	16
 1048 012a 04       		.byte	4
 1049 012b 20       		.byte	32
 1050 012c 05       		.byte	5
 1051 012d 05       		.byte	5
 1052 012e 08       		.byte	8
 1053 012f 04       		.byte	4
ARM GAS  C:\Users\EDULU~1.DES\AppData\Local\Temp\ccf7BJV7.s 			page 31


 1054 0130 09       		.byte	9
 1055 0131 12       		.byte	18
 1056 0132 0C       		.byte	12
 1057 0133 24       		.byte	36
 1058 0134 0E       		.byte	14
 1059 0135 01       		.byte	1
 1060 0136 10       		.byte	16
 1061 0137 28       		.byte	40
 1062 0138 12       		.byte	18
 1063 0139 40       		.byte	64
 1064 013a 16       		.byte	22
 1065 013b 40       		.byte	64
 1066 013c 17       		.byte	23
 1067 013d 28       		.byte	40
 1068 013e 19       		.byte	25
 1069 013f 92       		.byte	-110
 1070 0140 1C       		.byte	28
 1071 0141 10       		.byte	16
 1072 0142 1D       		.byte	29
 1073 0143 A3       		.byte	-93
 1074 0144 24       		.byte	36
 1075 0145 20       		.byte	32
 1076 0146 25       		.byte	37
 1077 0147 10       		.byte	16
 1078 0148 27       		.byte	39
 1079 0149 18       		.byte	24
 1080 014a 2C       		.byte	44
 1081 014b 24       		.byte	36
 1082 014c 2E       		.byte	46
 1083 014d 80       		.byte	-128
 1084 014e 35       		.byte	53
 1085 014f 01       		.byte	1
 1086 0150 37       		.byte	55
 1087 0151 18       		.byte	24
 1088 0152 3E       		.byte	62
 1089 0153 14       		.byte	20
 1090 0154 40       		.byte	64
 1091 0155 10       		.byte	16
 1092 0156 41       		.byte	65
 1093 0157 22       		.byte	34
 1094 0158 44       		.byte	68
 1095 0159 04       		.byte	4
 1096 015a 45       		.byte	69
 1097 015b A2       		.byte	-94
 1098 015c 48       		.byte	72
 1099 015d 20       		.byte	32
 1100 015e 50       		.byte	80
 1101 015f 08       		.byte	8
 1102 0160 59       		.byte	89
 1103 0161 90       		.byte	-112
 1104 0162 6E       		.byte	110
 1105 0163 14       		.byte	20
 1106 0164 6F       		.byte	111
 1107 0165 01       		.byte	1
 1108 0166 76       		.byte	118
 1109 0167 C0       		.byte	-64
 1110 0168 83       		.byte	-125
ARM GAS  C:\Users\EDULU~1.DES\AppData\Local\Temp\ccf7BJV7.s 			page 32


 1111 0169 21       		.byte	33
 1112 016a 85       		.byte	-123
 1113 016b 80       		.byte	-128
 1114 016c 92       		.byte	-110
 1115 016d 01       		.byte	1
 1116 016e 97       		.byte	-105
 1117 016f 01       		.byte	1
 1118 0170 99       		.byte	-103
 1119 0171 04       		.byte	4
 1120 0172 9F       		.byte	-97
 1121 0173 01       		.byte	1
 1122 0174 AE       		.byte	-82
 1123 0175 01       		.byte	1
 1124 0176 C0       		.byte	-64
 1125 0177 7C       		.byte	124
 1126 0178 C2       		.byte	-62
 1127 0179 EE       		.byte	-18
 1128 017a C4       		.byte	-60
 1129 017b 7E       		.byte	126
 1130 017c CA       		.byte	-54
 1131 017d 70       		.byte	112
 1132 017e CC       		.byte	-52
 1133 017f E0       		.byte	-32
 1134 0180 CE       		.byte	-50
 1135 0181 60       		.byte	96
 1136 0182 D0       		.byte	-48
 1137 0183 B7       		.byte	-73
 1138 0184 D6       		.byte	-42
 1139 0185 0C       		.byte	12
 1140 0186 E2       		.byte	-30
 1141 0187 80       		.byte	-128
 1142 0188 61       		.byte	97
 1143 0189 40       		.byte	64
 1144 018a 6F       		.byte	111
 1145 018b 02       		.byte	2
 1146 018c 82       		.byte	-126
 1147 018d 80       		.byte	-128
 1148 018e D6       		.byte	-42
 1149 018f 40       		.byte	64
 1150 0190 DA       		.byte	-38
 1151 0191 80       		.byte	-128
 1152 0192 E2       		.byte	-30
 1153 0193 80       		.byte	-128
 1154 0194 0A       		.byte	10
 1155 0195 10       		.byte	16
 1156 0196 56       		.byte	86
 1157 0197 80       		.byte	-128
 1158 0198 5D       		.byte	93
 1159 0199 01       		.byte	1
 1160 019a 82       		.byte	-126
 1161 019b 10       		.byte	16
 1162 019c 87       		.byte	-121
 1163 019d 02       		.byte	2
 1164 019e 89       		.byte	-119
 1165 019f 40       		.byte	64
 1166 01a0 91       		.byte	-111
 1167 01a1 01       		.byte	1
ARM GAS  C:\Users\EDULU~1.DES\AppData\Local\Temp\ccf7BJV7.s 			page 33


 1168 01a2 9A       		.byte	-102
 1169 01a3 80       		.byte	-128
 1170 01a4 9D       		.byte	-99
 1171 01a5 40       		.byte	64
 1172 01a6 A7       		.byte	-89
 1173 01a7 02       		.byte	2
 1174 01a8 AD       		.byte	-83
 1175 01a9 01       		.byte	1
 1176 01aa C2       		.byte	-62
 1177 01ab 10       		.byte	16
 1178 01ac D4       		.byte	-44
 1179 01ad 40       		.byte	64
 1180 01ae D6       		.byte	-42
 1181 01af 80       		.byte	-128
 1182 01b0 E0       		.byte	-32
 1183 01b1 80       		.byte	-128
 1184 01b2 E2       		.byte	-30
 1185 01b3 10       		.byte	16
 1186 01b4 EA       		.byte	-22
 1187 01b5 10       		.byte	16
 1188 01b6 60       		.byte	96
 1189 01b7 01       		.byte	1
 1190 01b8 D6       		.byte	-42
 1191 01b9 02       		.byte	2
 1192 01ba 20       		.byte	32
 1193 01bb 02       		.byte	2
 1194 01bc 24       		.byte	36
 1195 01bd 01       		.byte	1
 1196 01be 88       		.byte	-120
 1197 01bf 01       		.byte	1
 1198 01c0 94       		.byte	-108
 1199 01c1 01       		.byte	1
 1200 01c2 C8       		.byte	-56
 1201 01c3 0C       		.byte	12
 1202 01c4 E2       		.byte	-30
 1203 01c5 01       		.byte	1
 1204 01c6 10       		.byte	16
 1205 01c7 01       		.byte	1
 1206 01c8 11       		.byte	17
 1207 01c9 01       		.byte	1
 1208              		.text
 1209              	.Letext0:
 1210              		.file 2 "c:\\program files (x86)\\cypress\\psoc creator\\4.2\\psoc creator\\import\\gnu\\arm\\5.4.
 1211              		.file 3 "Generated_Source\\PSoC4\\cytypes.h"