Archive member included to satisfy reference by file (symbol)

.\CortexM0\ARM_GCC_541\Debug\OS3.a(PWM_Blue.o)
                              .\CortexM0\ARM_GCC_541\Debug\bsp.o (PWM_Blue_WriteCompare)
.\CortexM0\ARM_GCC_541\Debug\OS3.a(PWM_Green.o)
                              .\CortexM0\ARM_GCC_541\Debug\bsp.o (PWM_Green_WriteCompare)
.\CortexM0\ARM_GCC_541\Debug\OS3.a(PWM_Red.o)
                              .\CortexM0\ARM_GCC_541\Debug\bsp.o (PWM_Red_WriteCompare)
.\CortexM0\ARM_GCC_541\Debug\OS3.a(Accel_Pin.o)
                              .\CortexM0\ARM_GCC_541\Debug\bsp.o (Accel_Pin_ClearInterrupt)
.\CortexM0\ARM_GCC_541\Debug\OS3.a(I2C.o)
                              .\CortexM0\ARM_GCC_541\Debug\bsp.o (I2C_Start)
.\CortexM0\ARM_GCC_541\Debug\OS3.a(I2C_I2C.o)
                              .\CortexM0\ARM_GCC_541\Debug\OS3.a(I2C.o) (I2C_I2CInit)
.\CortexM0\ARM_GCC_541\Debug\OS3.a(I2C_I2C_MASTER.o)
                              .\CortexM0\ARM_GCC_541\Debug\OS3.a(I2C_I2C.o) (I2C_mstrStatus)
.\CortexM0\ARM_GCC_541\Debug\OS3.a(SW2.o)
                              .\CortexM0\ARM_GCC_541\Debug\bsp.o (SW2_Read)
.\CortexM0\ARM_GCC_541\Debug\OS3.a(Accel_ISR.o)
                              .\CortexM0\ARM_GCC_541\Debug\bsp.o (Accel_ISR_StartEx)
.\CortexM0\ARM_GCC_541\Debug\OS3.a(Temp_Sensor.o)
                              .\CortexM0\ARM_GCC_541\Debug\bsp.o (Temp_Sensor_Start)
.\CortexM0\ARM_GCC_541\Debug\OS3.a(Temp_Sensor_INT.o)
                              .\CortexM0\ARM_GCC_541\Debug\OS3.a(Temp_Sensor.o) (Temp_Sensor_EOC_ISR_Int)
.\CortexM0\ARM_GCC_541\Debug\OS3.a(Opamp.o)
                              .\CortexM0\ARM_GCC_541\Debug\bsp.o (Opamp_Start)
.\CortexM0\ARM_GCC_541\Debug\OS3.a(ADC.o)
                              .\CortexM0\ARM_GCC_541\Debug\bsp.o (ADC_Start)
.\CortexM0\ARM_GCC_541\Debug\OS3.a(ADC_INT.o)
                              .\CortexM0\ARM_GCC_541\Debug\OS3.a(ADC.o) (ADC_ISR)
.\CortexM0\ARM_GCC_541\Debug\OS3.a(I2C_sda.o)
                              .\CortexM0\ARM_GCC_541\Debug\OS3.a(I2C_I2C_MASTER.o) (I2C_sda_Read)
.\CortexM0\ARM_GCC_541\Debug\OS3.a(I2C_scl.o)
                              .\CortexM0\ARM_GCC_541\Debug\OS3.a(I2C_I2C_MASTER.o) (I2C_scl_Write)
.\CortexM0\ARM_GCC_541\Debug\OS3.a(Temp_Sensor_EOC_ISR.o)
                              .\CortexM0\ARM_GCC_541\Debug\OS3.a(Temp_Sensor.o) (Temp_Sensor_EOC_ISR_Disable)
.\CortexM0\ARM_GCC_541\Debug\OS3.a(CyLib.o)
                              .\CortexM0\ARM_GCC_541\Debug\cyfitter_cfg.o (CySysClkWriteImoFreq)
.\CortexM0\ARM_GCC_541\Debug\OS3.a(CyLFClk.o)
                              .\CortexM0\ARM_GCC_541\Debug\cyfitter_cfg.o (CySysWdtIsr)
.\CortexM0\ARM_GCC_541\Debug\OS3.a(CyBootAsmGnu.o)
                              .\CortexM0\ARM_GCC_541\Debug\OS3.a(CyLib.o) (CyDelayCycles)
.\CortexM0\ARM_GCC_541\Debug\OS3.a(I2C_I2C_INT.o)
                              .\CortexM0\ARM_GCC_541\Debug\OS3.a(I2C_I2C.o) (I2C_I2C_ISR)
c:/program files (x86)/cypress/psoc creator/4.2/psoc creator/import/gnu/arm/5.4.1/bin/../lib/gcc/arm-none-eabi/5.4.1/armv6-m\libgcc.a(_udivsi3.o)
                              .\CortexM0\ARM_GCC_541\Debug\bsp_os.o (__aeabi_uidiv)
c:/program files (x86)/cypress/psoc creator/4.2/psoc creator/import/gnu/arm/5.4.1/bin/../lib/gcc/arm-none-eabi/5.4.1/armv6-m\libgcc.a(_divsi3.o)
                              .\CortexM0\ARM_GCC_541\Debug\OS3.a(Temp_Sensor.o) (__aeabi_idiv)
c:/program files (x86)/cypress/psoc creator/4.2/psoc creator/import/gnu/arm/5.4.1/bin/../lib/gcc/arm-none-eabi/5.4.1/armv6-m\libgcc.a(_dvmd_tls.o)
                              c:/program files (x86)/cypress/psoc creator/4.2/psoc creator/import/gnu/arm/5.4.1/bin/../lib/gcc/arm-none-eabi/5.4.1/armv6-m\libgcc.a(_udivsi3.o) (__aeabi_idiv0)
c:/program files (x86)/cypress/psoc creator/4.2/psoc creator/import/gnu/arm/5.4.1/bin/../lib/gcc/arm-none-eabi/5.4.1/armv6-m\libgcc.a(_aeabi_ldivmod.o)
                              .\CortexM0\ARM_GCC_541\Debug\OS3.a(ADC.o) (__aeabi_ldivmod)
c:/program files (x86)/cypress/psoc creator/4.2/psoc creator/import/gnu/arm/5.4.1/bin/../lib/gcc/arm-none-eabi/5.4.1/armv6-m\libgcc.a(_aeabi_uldivmod.o)
                              .\CortexM0\ARM_GCC_541\Debug\cpu_bsp.o (__aeabi_uldivmod)
c:/program files (x86)/cypress/psoc creator/4.2/psoc creator/import/gnu/arm/5.4.1/bin/../lib/gcc/arm-none-eabi/5.4.1/armv6-m\libgcc.a(_muldi3.o)
                              .\CortexM0\ARM_GCC_541\Debug\OS3.a(ADC.o) (__aeabi_lmul)
c:/program files (x86)/cypress/psoc creator/4.2/psoc creator/import/gnu/arm/5.4.1/bin/../lib/gcc/arm-none-eabi/5.4.1/armv6-m\libgcc.a(_udivmoddi4.o)
                              c:/program files (x86)/cypress/psoc creator/4.2/psoc creator/import/gnu/arm/5.4.1/bin/../lib/gcc/arm-none-eabi/5.4.1/armv6-m\libgcc.a(_aeabi_uldivmod.o) (__udivmoddi4)
c:/program files (x86)/cypress/psoc creator/4.2/psoc creator/import/gnu/arm/5.4.1/bin/../lib/gcc/arm-none-eabi/5.4.1/armv6-m\libgcc.a(bpabi.o)
                              c:/program files (x86)/cypress/psoc creator/4.2/psoc creator/import/gnu/arm/5.4.1/bin/../lib/gcc/arm-none-eabi/5.4.1/armv6-m\libgcc.a(_aeabi_ldivmod.o) (__gnu_ldivmod_helper)
c:/program files (x86)/cypress/psoc creator/4.2/psoc creator/import/gnu/arm/5.4.1/bin/../lib/gcc/arm-none-eabi/5.4.1/armv6-m\libgcc.a(divsf3.o)
                              .\CortexM0\ARM_GCC_541\Debug\OS3.a(ADC.o) (__aeabi_fdiv)
c:/program files (x86)/cypress/psoc creator/4.2/psoc creator/import/gnu/arm/5.4.1/bin/../lib/gcc/arm-none-eabi/5.4.1/armv6-m\libgcc.a(mulsf3.o)
                              .\CortexM0\ARM_GCC_541\Debug\OS3.a(ADC.o) (__aeabi_fmul)
c:/program files (x86)/cypress/psoc creator/4.2/psoc creator/import/gnu/arm/5.4.1/bin/../lib/gcc/arm-none-eabi/5.4.1/armv6-m\libgcc.a(floatsisf.o)
                              .\CortexM0\ARM_GCC_541\Debug\OS3.a(ADC.o) (__aeabi_i2f)
c:/program files (x86)/cypress/psoc creator/4.2/psoc creator/import/gnu/arm/5.4.1/bin/../lib/gcc/arm-none-eabi/5.4.1/armv6-m\libgcc.a(_clzsi2.o)
                              c:/program files (x86)/cypress/psoc creator/4.2/psoc creator/import/gnu/arm/5.4.1/bin/../lib/gcc/arm-none-eabi/5.4.1/armv6-m\libgcc.a(divsf3.o) (__clzsi2)
c:/program files (x86)/cypress/psoc creator/4.2/psoc creator/import/gnu/arm/5.4.1/bin/../lib/gcc/arm-none-eabi/5.4.1/armv6-m\libgcc.a(_clzdi2.o)
                              c:/program files (x86)/cypress/psoc creator/4.2/psoc creator/import/gnu/arm/5.4.1/bin/../lib/gcc/arm-none-eabi/5.4.1/armv6-m\libgcc.a(_udivmoddi4.o) (__clzdi2)
c:/program files (x86)/cypress/psoc creator/4.2/psoc creator/import/gnu/arm/5.4.1/bin/../lib/gcc/arm-none-eabi/5.4.1/armv6-m\libgcc.a(_divdi3.o)
                              c:/program files (x86)/cypress/psoc creator/4.2/psoc creator/import/gnu/arm/5.4.1/bin/../lib/gcc/arm-none-eabi/5.4.1/armv6-m\libgcc.a(bpabi.o) (__divdi3)
c:/program files (x86)/cypress/psoc creator/4.2/psoc creator/import/gnu/arm/5.4.1/bin/../lib/gcc/arm-none-eabi/5.4.1/../../../../arm-none-eabi/lib/armv6-m\libg_nano.a(lib_a-errno.o)
                              .\CortexM0\ARM_GCC_541\Debug\Cm0Start.o (__errno)
c:/program files (x86)/cypress/psoc creator/4.2/psoc creator/import/gnu/arm/5.4.1/bin/../lib/gcc/arm-none-eabi/5.4.1/../../../../arm-none-eabi/lib/armv6-m\libg_nano.a(lib_a-exit.o)
                              c:/program files (x86)/cypress/psoc creator/4.2/psoc creator/import/gnu/arm/5.4.1/bin/../lib/gcc/arm-none-eabi/5.4.1/../../../../arm-none-eabi/lib/armv6-m/crt0.o (exit)
c:/program files (x86)/cypress/psoc creator/4.2/psoc creator/import/gnu/arm/5.4.1/bin/../lib/gcc/arm-none-eabi/5.4.1/../../../../arm-none-eabi/lib/armv6-m\libg_nano.a(lib_a-impure.o)
                              c:/program files (x86)/cypress/psoc creator/4.2/psoc creator/import/gnu/arm/5.4.1/bin/../lib/gcc/arm-none-eabi/5.4.1/../../../../arm-none-eabi/lib/armv6-m\libg_nano.a(lib_a-exit.o) (_global_impure_ptr)
c:/program files (x86)/cypress/psoc creator/4.2/psoc creator/import/gnu/arm/5.4.1/bin/../lib/gcc/arm-none-eabi/5.4.1/../../../../arm-none-eabi/lib/armv6-m\libg_nano.a(lib_a-init.o)
                              c:/program files (x86)/cypress/psoc creator/4.2/psoc creator/import/gnu/arm/5.4.1/bin/../lib/gcc/arm-none-eabi/5.4.1/../../../../arm-none-eabi/lib/armv6-m/crt0.o (__libc_init_array)
c:/program files (x86)/cypress/psoc creator/4.2/psoc creator/import/gnu/arm/5.4.1/bin/../lib/gcc/arm-none-eabi/5.4.1/../../../../arm-none-eabi/lib/armv6-m\libg_nano.a(lib_a-memcpy-stub.o)
                              .\CortexM0\ARM_GCC_541\Debug\cyfitter_cfg.o (memcpy)
c:/program files (x86)/cypress/psoc creator/4.2/psoc creator/import/gnu/arm/5.4.1/bin/../lib/gcc/arm-none-eabi/5.4.1/../../../../arm-none-eabi/lib/armv6-m\libg_nano.a(lib_a-memset.o)
                              c:/program files (x86)/cypress/psoc creator/4.2/psoc creator/import/gnu/arm/5.4.1/bin/../lib/gcc/arm-none-eabi/5.4.1/../../../../arm-none-eabi/lib/armv6-m/crt0.o (memset)

Allocating common symbols
Common symbol       size              file

Temp_Sensor_lo      0x2               .\CortexM0\ARM_GCC_541\Debug\OS3.a(Temp_Sensor.o)
OSSchedLockNestingCtr
                    0x1               .\CortexM0\ARM_GCC_541\Debug\os_var.o
OSStatTaskTimeMax   0x4               .\CortexM0\ARM_GCC_541\Debug\os_var.o
OSStatTaskCtr       0x4               .\CortexM0\ARM_GCC_541\Debug\os_var.o
OSTaskRegNextAvailID
                    0x1               .\CortexM0\ARM_GCC_541\Debug\os_var.o
OSRunning           0x1               .\CortexM0\ARM_GCC_541\Debug\os_var.o
Temp_Sensor_contMode
                    0x1               .\CortexM0\ARM_GCC_541\Debug\OS3.a(Temp_Sensor.o)
OSRdyList           0x180             .\CortexM0\ARM_GCC_541\Debug\os_var.o
I2C_mstrWrBufIndexTmp
                    0x4               .\CortexM0\ARM_GCC_541\Debug\OS3.a(I2C_I2C_MASTER.o)
OSPrioHighRdy       0x1               .\CortexM0\ARM_GCC_541\Debug\os_var.o
OSStatTaskRdy       0x1               .\CortexM0\ARM_GCC_541\Debug\os_var.o
OSSemDbgListPtr     0x4               .\CortexM0\ARM_GCC_541\Debug\os_var.o
OSCfg_StatTaskStk   0x200             .\CortexM0\ARM_GCC_541\Debug\os_cfg_app.o
OSCfg_TickWheel     0x100             .\CortexM0\ARM_GCC_541\Debug\os_cfg_app.o
OSPrioCur           0x1               .\CortexM0\ARM_GCC_541\Debug\os_var.o
OSTickTaskTCB       0x7c              .\CortexM0\ARM_GCC_541\Debug\os_var.o
Math_RandSeedCur    0x4               .\CortexM0\ARM_GCC_541\Debug\lib_math.o
CPU_IntDisMeasMax_cnts
                    0x4               .\CortexM0\ARM_GCC_541\Debug\cpu_core.o
uC_Probe_Temp_Val   0x4               .\CortexM0\ARM_GCC_541\Debug\app.o
OSTmrTickCtr        0x4               .\CortexM0\ARM_GCC_541\Debug\os_var.o
ADC_countsPer10Volt
                    0x4               .\CortexM0\ARM_GCC_541\Debug\OS3.a(ADC.o)
OSTCBCurPtr         0x4               .\CortexM0\ARM_GCC_541\Debug\os_var.o
OSStatTaskCPUUsageMax
                    0x2               .\CortexM0\ARM_GCC_541\Debug\os_var.o
OSPrioSaved         0x1               .\CortexM0\ARM_GCC_541\Debug\os_var.o
OSTCBHighRdyPtr     0x4               .\CortexM0\ARM_GCC_541\Debug\os_var.o
CPU_TS_TmrFreq_Hz   0x4               .\CortexM0\ARM_GCC_541\Debug\cpu_core.o
CPU_IntDisMeasStart_cnts
                    0x4               .\CortexM0\ARM_GCC_541\Debug\cpu_core.o
OSTaskDbgListPtr    0x4               .\CortexM0\ARM_GCC_541\Debug\os_var.o
OSTmrTaskTimeMax    0x4               .\CortexM0\ARM_GCC_541\Debug\os_var.o
I2C_state           0x1               .\CortexM0\ARM_GCC_541\Debug\OS3.a(I2C_I2C.o)
I2C_mstrWrBufIndex  0x4               .\CortexM0\ARM_GCC_541\Debug\OS3.a(I2C_I2C_MASTER.o)
uC_Probe_Accel_X_Axis
                    0x2               .\CortexM0\ARM_GCC_541\Debug\app.o
OSStatTaskCPUUsage  0x2               .\CortexM0\ARM_GCC_541\Debug\os_var.o
OSTaskCtxSwCtr      0x4               .\CortexM0\ARM_GCC_541\Debug\os_var.o
OSIntNestingCtr     0x1               .\CortexM0\ARM_GCC_541\Debug\os_var.o
OSTaskQty           0x2               .\CortexM0\ARM_GCC_541\Debug\os_var.o
OS_CPU_ExceptStkBase
                    0x4               .\CortexM0\ARM_GCC_541\Debug\os_cpu_c.o
Temp_Sensor_hi      0x2               .\CortexM0\ARM_GCC_541\Debug\OS3.a(Temp_Sensor.o)
OSTmrTaskTCB        0x7c              .\CortexM0\ARM_GCC_541\Debug\os_var.o
ADC_offset          0x2               .\CortexM0\ARM_GCC_541\Debug\OS3.a(ADC.o)
OSIdleTaskTCB       0x7c              .\CortexM0\ARM_GCC_541\Debug\os_var.o
I2C_mstrWrBufSize   0x4               .\CortexM0\ARM_GCC_541\Debug\OS3.a(I2C_I2C_MASTER.o)
I2C_mstrStatus      0x2               .\CortexM0\ARM_GCC_541\Debug\OS3.a(I2C_I2C_MASTER.o)
uC_Probe_AmbientLight
                    0x2               .\CortexM0\ARM_GCC_541\Debug\app.o
OSSemQty            0x2               .\CortexM0\ARM_GCC_541\Debug\os_var.o
OSCfg_TmrTaskStk    0x200             .\CortexM0\ARM_GCC_541\Debug\os_cfg_app.o
I2C_mstrRdBufPtr    0x4               .\CortexM0\ARM_GCC_541\Debug\OS3.a(I2C_I2C_MASTER.o)
I2C_mstrControl     0x1               .\CortexM0\ARM_GCC_541\Debug\OS3.a(I2C_I2C_MASTER.o)
OSStatTaskCtrMax    0x4               .\CortexM0\ARM_GCC_541\Debug\os_var.o
OSTickCtr           0x4               .\CortexM0\ARM_GCC_541\Debug\os_var.o
I2C_mstrRdBufSize   0x4               .\CortexM0\ARM_GCC_541\Debug\OS3.a(I2C_I2C_MASTER.o)
CPU_IntDisNestCtr   0x2               .\CortexM0\ARM_GCC_541\Debug\cpu_core.o
OSCfg_TmrWheel      0x100             .\CortexM0\ARM_GCC_541\Debug\os_cfg_app.o
OSTmrQty            0x2               .\CortexM0\ARM_GCC_541\Debug\os_var.o
uC_Probe_Accel_Z_Axis
                    0x2               .\CortexM0\ARM_GCC_541\Debug\app.o
CPU_IntDisMeasStop_cnts
                    0x4               .\CortexM0\ARM_GCC_541\Debug\cpu_core.o
CPU_IntDisMeasMaxCur_cnts
                    0x4               .\CortexM0\ARM_GCC_541\Debug\cpu_core.o
OSCfg_ISRStk        0x190             .\CortexM0\ARM_GCC_541\Debug\os_cfg_app.o
OSIntDisTimeMax     0x4               .\CortexM0\ARM_GCC_541\Debug\os_var.o
OSIdleTaskCtr       0x4               .\CortexM0\ARM_GCC_541\Debug\os_var.o
OSStatTaskCtrRun    0x4               .\CortexM0\ARM_GCC_541\Debug\os_var.o
I2C_mstrRdBufIndex  0x4               .\CortexM0\ARM_GCC_541\Debug\OS3.a(I2C_I2C_MASTER.o)
OSCfg_TickTaskStk   0x200             .\CortexM0\ARM_GCC_541\Debug\os_cfg_app.o
CPU_IntDisMeasCtr   0x2               .\CortexM0\ARM_GCC_541\Debug\cpu_core.o
OSStatResetFlag     0x1               .\CortexM0\ARM_GCC_541\Debug\os_var.o
CPU_IntDisMeasOvrhd_cnts
                    0x4               .\CortexM0\ARM_GCC_541\Debug\cpu_core.o
I2C_mstrWrBufPtr    0x4               .\CortexM0\ARM_GCC_541\Debug\OS3.a(I2C_I2C_MASTER.o)
OSStatTaskTCB       0x7c              .\CortexM0\ARM_GCC_541\Debug\os_var.o
uC_Probe_Accel_Y_Axis
                    0x2               .\CortexM0\ARM_GCC_541\Debug\app.o
OSPrioTbl           0x4               .\CortexM0\ARM_GCC_541\Debug\os_prio.o
uC_Probe_RGB_Val    0x4               .\CortexM0\ARM_GCC_541\Debug\app.o
OSTmrDbgListPtr     0x4               .\CortexM0\ARM_GCC_541\Debug\os_var.o
OSTickTaskTimeMax   0x4               .\CortexM0\ARM_GCC_541\Debug\os_var.o
OSTmrUpdateCnt      0x4               .\CortexM0\ARM_GCC_541\Debug\os_var.o
OSTmrUpdateCtr      0x4               .\CortexM0\ARM_GCC_541\Debug\os_var.o
Temp_Sensor_busyFlag
                    0x1               .\CortexM0\ARM_GCC_541\Debug\OS3.a(Temp_Sensor.o)
OSCfg_IdleTaskStk   0x200             .\CortexM0\ARM_GCC_541\Debug\os_cfg_app.o
CPU_Name            0x10              .\CortexM0\ARM_GCC_541\Debug\cpu_core.o

Memory Configuration

Name             Origin             Length             Attributes
rom              0x00000000         0x00008000         xr
ram              0x20000000         0x00001000         xrw
*default*        0x00000000         0xffffffff

Linker script and memory map

LOAD c:/program files (x86)/cypress/psoc creator/4.2/psoc creator/import/gnu/arm/5.4.1/bin/../lib/gcc/arm-none-eabi/5.4.1/armv6-m/crti.o
LOAD c:/program files (x86)/cypress/psoc creator/4.2/psoc creator/import/gnu/arm/5.4.1/bin/../lib/gcc/arm-none-eabi/5.4.1/armv6-m/crtbegin.o
LOAD c:/program files (x86)/cypress/psoc creator/4.2/psoc creator/import/gnu/arm/5.4.1/bin/../lib/gcc/arm-none-eabi/5.4.1/../../../../arm-none-eabi/lib/armv6-m/crt0.o
START GROUP
LOAD .\CortexM0\ARM_GCC_541\Debug\app.o
LOAD .\CortexM0\ARM_GCC_541\Debug\os_app_hooks.o
LOAD .\CortexM0\ARM_GCC_541\Debug\bsp_os.o
LOAD .\CortexM0\ARM_GCC_541\Debug\cpu_bsp.o
LOAD .\CortexM0\ARM_GCC_541\Debug\bsp.o
LOAD .\CortexM0\ARM_GCC_541\Debug\cpu_c.o
LOAD .\CortexM0\ARM_GCC_541\Debug\cpu_core.o
LOAD .\CortexM0\ARM_GCC_541\Debug\os_cpu_c.o
LOAD .\CortexM0\ARM_GCC_541\Debug\os_cfg_app.o
LOAD .\CortexM0\ARM_GCC_541\Debug\os_core.o
LOAD .\CortexM0\ARM_GCC_541\Debug\os_dbg.o
LOAD .\CortexM0\ARM_GCC_541\Debug\os_flag.o
LOAD .\CortexM0\ARM_GCC_541\Debug\os_int.o
LOAD .\CortexM0\ARM_GCC_541\Debug\os_mem.o
LOAD .\CortexM0\ARM_GCC_541\Debug\os_mon.o
LOAD .\CortexM0\ARM_GCC_541\Debug\os_msg.o
LOAD .\CortexM0\ARM_GCC_541\Debug\os_mutex.o
LOAD .\CortexM0\ARM_GCC_541\Debug\os_pend_multi.o
LOAD .\CortexM0\ARM_GCC_541\Debug\os_prio.o
LOAD .\CortexM0\ARM_GCC_541\Debug\os_q.o
LOAD .\CortexM0\ARM_GCC_541\Debug\os_sem.o
LOAD .\CortexM0\ARM_GCC_541\Debug\os_stat.o
LOAD .\CortexM0\ARM_GCC_541\Debug\os_task.o
LOAD .\CortexM0\ARM_GCC_541\Debug\os_tick.o
LOAD .\CortexM0\ARM_GCC_541\Debug\os_time.o
LOAD .\CortexM0\ARM_GCC_541\Debug\os_tmr.o
LOAD .\CortexM0\ARM_GCC_541\Debug\os_var.o
LOAD .\CortexM0\ARM_GCC_541\Debug\lib_ascii.o
LOAD .\CortexM0\ARM_GCC_541\Debug\lib_math.o
LOAD .\CortexM0\ARM_GCC_541\Debug\lib_mem.o
LOAD .\CortexM0\ARM_GCC_541\Debug\lib_str.o
LOAD .\CortexM0\ARM_GCC_541\Debug\cyfitter_cfg.o
LOAD .\CortexM0\ARM_GCC_541\Debug\cymetadata.o
LOAD .\CortexM0\ARM_GCC_541\Debug\Cm0Start.o
LOAD .\CortexM0\ARM_GCC_541\Debug\cpu_a.o
LOAD .\CortexM0\ARM_GCC_541\Debug\os_cpu_a.o
LOAD .\CortexM0\ARM_GCC_541\Debug\OS3.a
END GROUP
START GROUP
LOAD c:/program files (x86)/cypress/psoc creator/4.2/psoc creator/import/gnu/arm/5.4.1/bin/../lib/gcc/arm-none-eabi/5.4.1/armv6-m\libgcc.a
LOAD c:/program files (x86)/cypress/psoc creator/4.2/psoc creator/import/gnu/arm/5.4.1/bin/../lib/gcc/arm-none-eabi/5.4.1/../../../../arm-none-eabi/lib/armv6-m\libg_nano.a
LOAD c:/program files (x86)/cypress/psoc creator/4.2/psoc creator/import/gnu/arm/5.4.1/bin/../lib/gcc/arm-none-eabi/5.4.1/../../../../arm-none-eabi/lib/armv6-m\libc_nano.a
END GROUP
START GROUP
LOAD c:/program files (x86)/cypress/psoc creator/4.2/psoc creator/import/gnu/arm/5.4.1/bin/../lib/gcc/arm-none-eabi/5.4.1/armv6-m\libgcc.a
LOAD c:/program files (x86)/cypress/psoc creator/4.2/psoc creator/import/gnu/arm/5.4.1/bin/../lib/gcc/arm-none-eabi/5.4.1/../../../../arm-none-eabi/lib/armv6-m\libc_nano.a
END GROUP
LOAD c:/program files (x86)/cypress/psoc creator/4.2/psoc creator/import/gnu/arm/5.4.1/bin/../lib/gcc/arm-none-eabi/5.4.1/armv6-m/crtend.o
LOAD c:/program files (x86)/cypress/psoc creator/4.2/psoc creator/import/gnu/arm/5.4.1/bin/../lib/gcc/arm-none-eabi/5.4.1/armv6-m/crtn.o
START GROUP
LOAD c:/program files (x86)/cypress/psoc creator/4.2/psoc creator/import/gnu/arm/5.4.1/bin/../lib/gcc/arm-none-eabi/5.4.1/armv6-m\libgcc.a
LOAD c:/program files (x86)/cypress/psoc creator/4.2/psoc creator/import/gnu/arm/5.4.1/bin/../lib/gcc/arm-none-eabi/5.4.1/../../../../arm-none-eabi/lib/armv6-m\libc.a
LOAD c:/program files (x86)/cypress/psoc creator/4.2/psoc creator/import/gnu/arm/5.4.1/bin/../lib/gcc/arm-none-eabi/5.4.1/../../../../arm-none-eabi/lib/armv6-m\libnosys.a
END GROUP
                0x00000000                CY_APPL_ORIGIN = 0x0
                0x00000080                CY_FLASH_ROW_SIZE = 0x80
                0x00000001                CY_APPL_NUM = 0x1
                0x00000001                CY_APPL_MAX = 0x1
                0x00000040                CY_METADATA_SIZE = 0x40
                0x00000000                CY_APPL_LOADABLE = 0x0
                0x00000000                CY_CHECKSUM_EXCLUDE_SIZE = ALIGN (0x0, CY_FLASH_ROW_SIZE)
                0x00000000                CY_APP_FOR_STACK_AND_COPIER = 0x0
                [!provide]                PROVIDE (__cy_heap_start, _end)
                0x00000001                PROVIDE (__cy_region_num, ((__cy_regions_end - __cy_regions) / 0x10))
                0x20001000                PROVIDE (__cy_stack, (ORIGIN (ram) + LENGTH (ram)))
                [!provide]                PROVIDE (__cy_heap_end, (__cy_stack - 0x800))

.cybootloader   0x00000000        0x0
 *(.cybootloader)
                0x00000000                appl1_start = CY_APPL_ORIGIN?CY_APPL_ORIGIN:ALIGN (CY_FLASH_ROW_SIZE)
                0x00003f80                appl2_start = (appl1_start + ALIGN ((((LENGTH (rom) - appl1_start) - (0x2 * CY_FLASH_ROW_SIZE)) / 0x2), CY_FLASH_ROW_SIZE))
                0x00000000                appl_start = (CY_APPL_NUM == 0x1)?appl1_start:appl2_start
                0x00000001                cy_project_type_bootloader = (appl_start == 0x0)?0x1:0x0
                0x00000000                cy_project_type_app_for_stack_and_copier = (CY_APP_FOR_STACK_AND_COPIER == 0x1)?0x1:0x0

.text           0x00000000     0xe30a
 CREATE_OBJECT_SYMBOLS
                0x00000000                PROVIDE (__cy_interrupt_vector, RomVectors)
 *(.romvectors)
 .romvectors    0x00000000       0x10 .\CortexM0\ARM_GCC_541\Debug\Cm0Start.o
                0x00000000                RomVectors
                0x00000001                ASSERT ((. != __cy_interrupt_vector), No interrupt vector)
                0x00000001                ASSERT (CY_APPL_ORIGIN?(SIZEOF (.cybootloader) <= CY_APPL_ORIGIN):0x1, Wrong image location)
                0x00000010                PROVIDE (__cy_reset, Reset)
 *(.text.Reset)
 .text.Reset    0x00000010        0x8 .\CortexM0\ARM_GCC_541\Debug\Cm0Start.o
                0x00000010                Reset
                0x00000001                ASSERT ((. != __cy_reset), No reset code)
 *(.psocinit)
 .psocinit      0x00000018      0x2fc .\CortexM0\ARM_GCC_541\Debug\cyfitter_cfg.o
                0x000000f0                cyfitter_cfg
                0x00000314                . = MAX (., 0x100)
 *(.text .text.* .gnu.linkonce.t.*)
 .text          0x00000314        0x0 c:/program files (x86)/cypress/psoc creator/4.2/psoc creator/import/gnu/arm/5.4.1/bin/../lib/gcc/arm-none-eabi/5.4.1/armv6-m/crti.o
 .text          0x00000314       0x60 c:/program files (x86)/cypress/psoc creator/4.2/psoc creator/import/gnu/arm/5.4.1/bin/../lib/gcc/arm-none-eabi/5.4.1/armv6-m/crtbegin.o
 .text          0x00000374       0x78 c:/program files (x86)/cypress/psoc creator/4.2/psoc creator/import/gnu/arm/5.4.1/bin/../lib/gcc/arm-none-eabi/5.4.1/../../../../arm-none-eabi/lib/armv6-m/crt0.o
                0x00000374                _start
                0x00000374                _mainCRTStartup
 .text          0x000003ec        0x0 .\CortexM0\ARM_GCC_541\Debug\app.o
 .text.main     0x000003ec       0x6c .\CortexM0\ARM_GCC_541\Debug\app.o
                0x000003ec                main
 .text.App_TaskStart
                0x00000458       0xe0 .\CortexM0\ARM_GCC_541\Debug\app.o
 .text.App_TaskCreate
                0x00000538       0x50 .\CortexM0\ARM_GCC_541\Debug\app.o
 .text.App_ObjCreate
                0x00000588        0xc .\CortexM0\ARM_GCC_541\Debug\app.o
 .text.App_Demo_SensorTask
                0x00000594       0x20 .\CortexM0\ARM_GCC_541\Debug\app.o
 .text          0x000005b4        0x0 .\CortexM0\ARM_GCC_541\Debug\os_app_hooks.o
 .text.App_OS_SetAllHooks
                0x000005b4        0xc .\CortexM0\ARM_GCC_541\Debug\os_app_hooks.o
                0x000005b4                App_OS_SetAllHooks
 .text.App_OS_ClrAllHooks
                0x000005c0        0xc .\CortexM0\ARM_GCC_541\Debug\os_app_hooks.o
                0x000005c0                App_OS_ClrAllHooks
 .text.App_OS_IdleTaskHook
                0x000005cc        0xc .\CortexM0\ARM_GCC_541\Debug\os_app_hooks.o
                0x000005cc                App_OS_IdleTaskHook
 .text.App_OS_StatTaskHook
                0x000005d8        0xc .\CortexM0\ARM_GCC_541\Debug\os_app_hooks.o
                0x000005d8                App_OS_StatTaskHook
 .text.App_OS_TaskCreateHook
                0x000005e4       0x10 .\CortexM0\ARM_GCC_541\Debug\os_app_hooks.o
                0x000005e4                App_OS_TaskCreateHook
 .text.App_OS_TaskDelHook
                0x000005f4       0x10 .\CortexM0\ARM_GCC_541\Debug\os_app_hooks.o
                0x000005f4                App_OS_TaskDelHook
 .text.App_OS_TaskReturnHook
                0x00000604       0x10 .\CortexM0\ARM_GCC_541\Debug\os_app_hooks.o
                0x00000604                App_OS_TaskReturnHook
 .text.App_OS_TaskSwHook
                0x00000614        0xc .\CortexM0\ARM_GCC_541\Debug\os_app_hooks.o
                0x00000614                App_OS_TaskSwHook
 .text.App_OS_TimeTickHook
                0x00000620        0xc .\CortexM0\ARM_GCC_541\Debug\os_app_hooks.o
                0x00000620                App_OS_TimeTickHook
 .text          0x0000062c        0x0 .\CortexM0\ARM_GCC_541\Debug\bsp_os.o
 .text.BSP_OS_SemCreate
                0x0000062c       0x34 .\CortexM0\ARM_GCC_541\Debug\bsp_os.o
                0x0000062c                BSP_OS_SemCreate
 .text.BSP_OS_SemWait
                0x00000660       0x50 .\CortexM0\ARM_GCC_541\Debug\bsp_os.o
                0x00000660                BSP_OS_SemWait
 .text.BSP_OS_SemPost
                0x000006b0       0x30 .\CortexM0\ARM_GCC_541\Debug\bsp_os.o
                0x000006b0                BSP_OS_SemPost
 .text.BSP_OS_TimeDlyMs
                0x000006e0       0x8c .\CortexM0\ARM_GCC_541\Debug\bsp_os.o
                0x000006e0                BSP_OS_TimeDlyMs
 .text.BSP_OS_TimeDly
                0x0000076c       0x20 .\CortexM0\ARM_GCC_541\Debug\bsp_os.o
                0x0000076c                BSP_OS_TimeDly
 .text          0x0000078c        0x0 .\CortexM0\ARM_GCC_541\Debug\cpu_bsp.o
 .text.CPU_TS_TmrInit
                0x0000078c       0x40 .\CortexM0\ARM_GCC_541\Debug\cpu_bsp.o
                0x0000078c                CPU_TS_TmrInit
 .text.CPU_TS_TmrRd
                0x000007cc       0x1c .\CortexM0\ARM_GCC_541\Debug\cpu_bsp.o
                0x000007cc                CPU_TS_TmrRd
 .text.CPU_TS32_to_uSec
                0x000007e8       0x50 .\CortexM0\ARM_GCC_541\Debug\cpu_bsp.o
                0x000007e8                CPU_TS32_to_uSec
 .text          0x00000838        0x0 .\CortexM0\ARM_GCC_541\Debug\bsp.o
 .text.BSP_Init
                0x00000838       0x5c .\CortexM0\ARM_GCC_541\Debug\bsp.o
                0x00000838                BSP_Init
 .text.BSP_CPU_TickInit
                0x00000894       0x20 .\CortexM0\ARM_GCC_541\Debug\bsp.o
                0x00000894                BSP_CPU_TickInit
 .text.BSP_CPU_ClkFreq
                0x000008b4       0x10 .\CortexM0\ARM_GCC_541\Debug\bsp.o
                0x000008b4                BSP_CPU_ClkFreq
 .text.BSP_RGB_On
                0x000008c4       0x18 .\CortexM0\ARM_GCC_541\Debug\bsp.o
                0x000008c4                BSP_RGB_On
 .text.BSP_RGB_Off
                0x000008dc       0x24 .\CortexM0\ARM_GCC_541\Debug\bsp.o
                0x000008dc                BSP_RGB_Off
 .text.BSP_RGB_ColorSet
                0x00000900       0xe0 .\CortexM0\ARM_GCC_541\Debug\bsp.o
                0x00000900                BSP_RGB_ColorSet
 .text.BSP_RGB_ColorRead
                0x000009e0       0x9c .\CortexM0\ARM_GCC_541\Debug\bsp.o
                0x000009e0                BSP_RGB_ColorRead
 .text.BSP_PB_StatusGet
                0x00000a7c       0x30 .\CortexM0\ARM_GCC_541\Debug\bsp.o
                0x00000a7c                BSP_PB_StatusGet
 .text.BSP_Accel_Init
                0x00000aac       0xec .\CortexM0\ARM_GCC_541\Debug\bsp.o
                0x00000aac                BSP_Accel_Init
 .text.BSP_Accel_InitSelfTst
                0x00000b98       0xd0 .\CortexM0\ARM_GCC_541\Debug\bsp.o
 .text.BSP_Accel_RegRdWr
                0x00000c68       0xe4 .\CortexM0\ARM_GCC_541\Debug\bsp.o
 .text.BSP_Accel_Rd
                0x00000d4c      0x1b8 .\CortexM0\ARM_GCC_541\Debug\bsp.o
                0x00000d4c                BSP_Accel_Rd
 .text.BSP_Accel_ISR_Handler
                0x00000f04       0x20 .\CortexM0\ARM_GCC_541\Debug\bsp.o
                0x00000f04                BSP_Accel_ISR_Handler
 .text          0x00000f24        0x0 .\CortexM0\ARM_GCC_541\Debug\cpu_c.o
 .text.CPU_BitBandClr
                0x00000f24       0x88 .\CortexM0\ARM_GCC_541\Debug\cpu_c.o
                0x00000f24                CPU_BitBandClr
 .text.CPU_BitBandSet
                0x00000fac       0x88 .\CortexM0\ARM_GCC_541\Debug\cpu_c.o
                0x00000fac                CPU_BitBandSet
 .text.CPU_IntSrcDis
                0x00001034       0xfc .\CortexM0\ARM_GCC_541\Debug\cpu_c.o
                0x00001034                CPU_IntSrcDis
 .text.CPU_IntSrcEn
                0x00001130       0xfc .\CortexM0\ARM_GCC_541\Debug\cpu_c.o
                0x00001130                CPU_IntSrcEn
 .text.CPU_IntSrcPendClr
                0x0000122c       0xd4 .\CortexM0\ARM_GCC_541\Debug\cpu_c.o
                0x0000122c                CPU_IntSrcPendClr
 .text.CPU_IntSrcPrioSet
                0x00001300      0x1d0 .\CortexM0\ARM_GCC_541\Debug\cpu_c.o
                0x00001300                CPU_IntSrcPrioSet
 .text.CPU_IntSrcPrioGet
                0x000014d0      0x1ac .\CortexM0\ARM_GCC_541\Debug\cpu_c.o
                0x000014d0                CPU_IntSrcPrioGet
 .text.CPU_RevBits
                0x0000167c       0x68 .\CortexM0\ARM_GCC_541\Debug\cpu_c.o
                0x0000167c                CPU_RevBits
 .text          0x000016e4        0x0 .\CortexM0\ARM_GCC_541\Debug\cpu_core.o
 .text.CPU_Init
                0x000016e4       0x18 .\CortexM0\ARM_GCC_541\Debug\cpu_core.o
                0x000016e4                CPU_Init
 .text.CPU_SW_Exception
                0x000016fc        0x8 .\CortexM0\ARM_GCC_541\Debug\cpu_core.o
                0x000016fc                CPU_SW_Exception
 .text.CPU_NameClr
                0x00001704       0x38 .\CortexM0\ARM_GCC_541\Debug\cpu_core.o
                0x00001704                CPU_NameClr
 .text.CPU_NameGet
                0x0000173c       0x5c .\CortexM0\ARM_GCC_541\Debug\cpu_core.o
                0x0000173c                CPU_NameGet
 .text.CPU_NameSet
                0x00001798       0x78 .\CortexM0\ARM_GCC_541\Debug\cpu_core.o
                0x00001798                CPU_NameSet
 .text.CPU_TS_Get32
                0x00001810       0x18 .\CortexM0\ARM_GCC_541\Debug\cpu_core.o
                0x00001810                CPU_TS_Get32
 .text.CPU_TS_Update
                0x00001828        0xc .\CortexM0\ARM_GCC_541\Debug\cpu_core.o
                0x00001828                CPU_TS_Update
 .text.CPU_TS_TmrFreqGet
                0x00001834       0x38 .\CortexM0\ARM_GCC_541\Debug\cpu_core.o
                0x00001834                CPU_TS_TmrFreqGet
 .text.CPU_TS_TmrFreqSet
                0x0000186c       0x1c .\CortexM0\ARM_GCC_541\Debug\cpu_core.o
                0x0000186c                CPU_TS_TmrFreqSet
 .text.CPU_IntDisMeasMaxCurReset
                0x00001888       0x38 .\CortexM0\ARM_GCC_541\Debug\cpu_core.o
                0x00001888                CPU_IntDisMeasMaxCurReset
 .text.CPU_IntDisMeasMaxCurGet
                0x000018c0       0x3c .\CortexM0\ARM_GCC_541\Debug\cpu_core.o
                0x000018c0                CPU_IntDisMeasMaxCurGet
 .text.CPU_IntDisMeasMaxGet
                0x000018fc       0x3c .\CortexM0\ARM_GCC_541\Debug\cpu_core.o
                0x000018fc                CPU_IntDisMeasMaxGet
 .text.CPU_IntDisMeasStart
                0x00001938       0x40 .\CortexM0\ARM_GCC_541\Debug\cpu_core.o
                0x00001938                CPU_IntDisMeasStart
 .text.CPU_IntDisMeasStop
                0x00001978       0x6c .\CortexM0\ARM_GCC_541\Debug\cpu_core.o
                0x00001978                CPU_IntDisMeasStop
 .text.CPU_CntLeadZeros
                0x000019e4       0x20 .\CortexM0\ARM_GCC_541\Debug\cpu_core.o
                0x000019e4                CPU_CntLeadZeros
 .text.CPU_CntLeadZeros08
                0x00001a04       0x2c .\CortexM0\ARM_GCC_541\Debug\cpu_core.o
                0x00001a04                CPU_CntLeadZeros08
 .text.CPU_CntLeadZeros16
                0x00001a30       0x4c .\CortexM0\ARM_GCC_541\Debug\cpu_core.o
                0x00001a30                CPU_CntLeadZeros16
 .text.CPU_CntLeadZeros32
                0x00001a7c       0x80 .\CortexM0\ARM_GCC_541\Debug\cpu_core.o
                0x00001a7c                CPU_CntLeadZeros32
 .text.CPU_CntLeadZeros64
                0x00001afc      0x168 .\CortexM0\ARM_GCC_541\Debug\cpu_core.o
                0x00001afc                CPU_CntLeadZeros64
 .text.CPU_CntTrailZeros
                0x00001c64       0x3c .\CortexM0\ARM_GCC_541\Debug\cpu_core.o
                0x00001c64                CPU_CntTrailZeros
 .text.CPU_CntTrailZeros08
                0x00001ca0       0x50 .\CortexM0\ARM_GCC_541\Debug\cpu_core.o
                0x00001ca0                CPU_CntTrailZeros08
 .text.CPU_CntTrailZeros16
                0x00001cf0       0x50 .\CortexM0\ARM_GCC_541\Debug\cpu_core.o
                0x00001cf0                CPU_CntTrailZeros16
 .text.CPU_CntTrailZeros32
                0x00001d40       0x3c .\CortexM0\ARM_GCC_541\Debug\cpu_core.o
                0x00001d40                CPU_CntTrailZeros32
 .text.CPU_CntTrailZeros64
                0x00001d7c       0x50 .\CortexM0\ARM_GCC_541\Debug\cpu_core.o
                0x00001d7c                CPU_CntTrailZeros64
 .text.CPU_NameInit
                0x00001dcc       0x10 .\CortexM0\ARM_GCC_541\Debug\cpu_core.o
 .text.CPU_TS_Init
                0x00001ddc       0x18 .\CortexM0\ARM_GCC_541\Debug\cpu_core.o
 .text.CPU_IntDisMeasInit
                0x00001df4       0xb8 .\CortexM0\ARM_GCC_541\Debug\cpu_core.o
 .text.CPU_IntDisMeasMaxCalc
                0x00001eac       0x34 .\CortexM0\ARM_GCC_541\Debug\cpu_core.o
 .text          0x00001ee0        0x0 .\CortexM0\ARM_GCC_541\Debug\os_cpu_c.o
 .text.OSIdleTaskHook
                0x00001ee0        0xc .\CortexM0\ARM_GCC_541\Debug\os_cpu_c.o
                0x00001ee0                OSIdleTaskHook
 .text.OSInitHook
                0x00001eec       0x38 .\CortexM0\ARM_GCC_541\Debug\os_cpu_c.o
                0x00001eec                OSInitHook
 .text.OSStatTaskHook
                0x00001f24        0xc .\CortexM0\ARM_GCC_541\Debug\os_cpu_c.o
                0x00001f24                OSStatTaskHook
 .text.OSTaskCreateHook
                0x00001f30       0x10 .\CortexM0\ARM_GCC_541\Debug\os_cpu_c.o
                0x00001f30                OSTaskCreateHook
 .text.OSTaskDelHook
                0x00001f40       0x10 .\CortexM0\ARM_GCC_541\Debug\os_cpu_c.o
                0x00001f40                OSTaskDelHook
 .text.OSTaskReturnHook
                0x00001f50       0x10 .\CortexM0\ARM_GCC_541\Debug\os_cpu_c.o
                0x00001f50                OSTaskReturnHook
 .text.OSTaskStkInit
                0x00001f60      0x12c .\CortexM0\ARM_GCC_541\Debug\os_cpu_c.o
                0x00001f60                OSTaskStkInit
 .text.OSTaskSwHook
                0x0000208c       0x30 .\CortexM0\ARM_GCC_541\Debug\os_cpu_c.o
                0x0000208c                OSTaskSwHook
 .text.OSTimeTickHook
                0x000020bc        0xc .\CortexM0\ARM_GCC_541\Debug\os_cpu_c.o
                0x000020bc                OSTimeTickHook
 .text.SysTick_Handler
                0x000020c8       0x38 .\CortexM0\ARM_GCC_541\Debug\os_cpu_c.o
                0x000020c8                SysTick_Handler
 .text.OS_CPU_SysTickInit
                0x00002100       0x64 .\CortexM0\ARM_GCC_541\Debug\os_cpu_c.o
                0x00002100                OS_CPU_SysTickInit
 .text          0x00002164        0x0 .\CortexM0\ARM_GCC_541\Debug\os_cfg_app.o
 .text.OSCfg_Init
                0x00002164        0xc .\CortexM0\ARM_GCC_541\Debug\os_cfg_app.o
                0x00002164                OSCfg_Init
 .text          0x00002170        0x0 .\CortexM0\ARM_GCC_541\Debug\os_core.o
 .text.OSInit   0x00002170      0x130 .\CortexM0\ARM_GCC_541\Debug\os_core.o
                0x00002170                OSInit
 .text.OSIntEnter
                0x000022a0       0x34 .\CortexM0\ARM_GCC_541\Debug\os_core.o
                0x000022a0                OSIntEnter
 .text.OSIntExit
                0x000022d4       0xd4 .\CortexM0\ARM_GCC_541\Debug\os_core.o
                0x000022d4                OSIntExit
 .text.OSSched  0x000023a8       0x9c .\CortexM0\ARM_GCC_541\Debug\os_core.o
                0x000023a8                OSSched
 .text.OSSchedLock
                0x00002444       0x84 .\CortexM0\ARM_GCC_541\Debug\os_core.o
                0x00002444                OSSchedLock
 .text.OSSchedUnlock
                0x000024c8       0xa8 .\CortexM0\ARM_GCC_541\Debug\os_core.o
                0x000024c8                OSSchedUnlock
 .text.OSStart  0x00002570       0x84 .\CortexM0\ARM_GCC_541\Debug\os_core.o
                0x00002570                OSStart
 .text.OSVersion
                0x000025f4       0x1c .\CortexM0\ARM_GCC_541\Debug\os_core.o
                0x000025f4                OSVersion
 .text.OS_IdleTask
                0x00002610       0x48 .\CortexM0\ARM_GCC_541\Debug\os_core.o
                0x00002610                OS_IdleTask
 .text.OS_IdleTaskInit
                0x00002658       0x70 .\CortexM0\ARM_GCC_541\Debug\os_core.o
                0x00002658                OS_IdleTaskInit
 .text.OS_Pend  0x000026c8       0x8c .\CortexM0\ARM_GCC_541\Debug\os_core.o
                0x000026c8                OS_Pend
 .text.OS_PendAbort
                0x00002754       0xcc .\CortexM0\ARM_GCC_541\Debug\os_core.o
                0x00002754                OS_PendAbort
 .text.OS_PendAbort1
                0x00002820       0x5c .\CortexM0\ARM_GCC_541\Debug\os_core.o
                0x00002820                OS_PendAbort1
 .text.OS_PendDataInit
                0x0000287c       0x7c .\CortexM0\ARM_GCC_541\Debug\os_core.o
                0x0000287c                OS_PendDataInit
 .text.OS_PendDbgNameAdd
                0x000028f8       0x70 .\CortexM0\ARM_GCC_541\Debug\os_core.o
                0x000028f8                OS_PendDbgNameAdd
 .text.OS_PendDbgNameRemove
                0x00002968       0x44 .\CortexM0\ARM_GCC_541\Debug\os_core.o
                0x00002968                OS_PendDbgNameRemove
 .text.OS_PendListChangePrio
                0x000029ac       0x7c .\CortexM0\ARM_GCC_541\Debug\os_core.o
                0x000029ac                OS_PendListChangePrio
 .text.OS_PendListInit
                0x00002a28       0x24 .\CortexM0\ARM_GCC_541\Debug\os_core.o
                0x00002a28                OS_PendListInit
 .text.OS_PendListInsertHead
                0x00002a4c       0x54 .\CortexM0\ARM_GCC_541\Debug\os_core.o
                0x00002a4c                OS_PendListInsertHead
 .text.OS_PendListInsertPrio
                0x00002aa0       0xec .\CortexM0\ARM_GCC_541\Debug\os_core.o
                0x00002aa0                OS_PendListInsertPrio
 .text.OS_PendListRemove
                0x00002b8c       0x64 .\CortexM0\ARM_GCC_541\Debug\os_core.o
                0x00002b8c                OS_PendListRemove
 .text.OS_PendListRemove1
                0x00002bf0       0x90 .\CortexM0\ARM_GCC_541\Debug\os_core.o
                0x00002bf0                OS_PendListRemove1
 .text.OS_PendObjDel
                0x00002c80       0xc0 .\CortexM0\ARM_GCC_541\Debug\os_core.o
                0x00002c80                OS_PendObjDel
 .text.OS_PendObjDel1
                0x00002d40       0x5c .\CortexM0\ARM_GCC_541\Debug\os_core.o
                0x00002d40                OS_PendObjDel1
 .text.OS_Post  0x00002d9c       0xfc .\CortexM0\ARM_GCC_541\Debug\os_core.o
                0x00002d9c                OS_Post
 .text.OS_Post1
                0x00002e98       0x70 .\CortexM0\ARM_GCC_541\Debug\os_core.o
                0x00002e98                OS_Post1
 .text.OS_RdyListInit
                0x00002f08       0x50 .\CortexM0\ARM_GCC_541\Debug\os_core.o
                0x00002f08                OS_RdyListInit
 .text.OS_RdyListInsert
                0x00002f58       0x40 .\CortexM0\ARM_GCC_541\Debug\os_core.o
                0x00002f58                OS_RdyListInsert
 .text.OS_RdyListInsertHead
                0x00002f98       0x80 .\CortexM0\ARM_GCC_541\Debug\os_core.o
                0x00002f98                OS_RdyListInsertHead
 .text.OS_RdyListInsertTail
                0x00003018       0x7c .\CortexM0\ARM_GCC_541\Debug\os_core.o
                0x00003018                OS_RdyListInsertTail
 .text.OS_RdyListMoveHeadToTail
                0x00003094       0x8c .\CortexM0\ARM_GCC_541\Debug\os_core.o
                0x00003094                OS_RdyListMoveHeadToTail
 .text.OS_RdyListRemove
                0x00003120       0xb0 .\CortexM0\ARM_GCC_541\Debug\os_core.o
                0x00003120                OS_RdyListRemove
 .text.OS_TaskBlock
                0x000031d0       0x54 .\CortexM0\ARM_GCC_541\Debug\os_core.o
                0x000031d0                OS_TaskBlock
 .text.OS_TaskRdy
                0x00003224       0x30 .\CortexM0\ARM_GCC_541\Debug\os_core.o
                0x00003224                OS_TaskRdy
 .text          0x00003254        0x0 .\CortexM0\ARM_GCC_541\Debug\os_dbg.o
 .text.OS_Dbg_Init
                0x00003254      0x1c0 .\CortexM0\ARM_GCC_541\Debug\os_dbg.o
                0x00003254                OS_Dbg_Init
 .text          0x00003414        0x0 .\CortexM0\ARM_GCC_541\Debug\os_flag.o
 .text          0x00003414        0x0 .\CortexM0\ARM_GCC_541\Debug\os_int.o
 .text          0x00003414        0x0 .\CortexM0\ARM_GCC_541\Debug\os_mem.o
 .text          0x00003414        0x0 .\CortexM0\ARM_GCC_541\Debug\os_mon.o
 .text          0x00003414        0x0 .\CortexM0\ARM_GCC_541\Debug\os_msg.o
 .text          0x00003414        0x0 .\CortexM0\ARM_GCC_541\Debug\os_mutex.o
 .text          0x00003414        0x0 .\CortexM0\ARM_GCC_541\Debug\os_pend_multi.o
 .text          0x00003414        0x0 .\CortexM0\ARM_GCC_541\Debug\os_prio.o
 .text.OS_PrioInit
                0x00003414       0x30 .\CortexM0\ARM_GCC_541\Debug\os_prio.o
                0x00003414                OS_PrioInit
 .text.OS_PrioGetHighest
                0x00003444       0x54 .\CortexM0\ARM_GCC_541\Debug\os_prio.o
                0x00003444                OS_PrioGetHighest
 .text.OS_PrioInsert
                0x00003498       0x5c .\CortexM0\ARM_GCC_541\Debug\os_prio.o
                0x00003498                OS_PrioInsert
 .text.OS_PrioRemove
                0x000034f4       0x60 .\CortexM0\ARM_GCC_541\Debug\os_prio.o
                0x000034f4                OS_PrioRemove
 .text          0x00003554        0x0 .\CortexM0\ARM_GCC_541\Debug\os_q.o
 .text          0x00003554        0x0 .\CortexM0\ARM_GCC_541\Debug\os_sem.o
 .text.OSSemCreate
                0x00003554       0xa0 .\CortexM0\ARM_GCC_541\Debug\os_sem.o
                0x00003554                OSSemCreate
 .text.OSSemPend
                0x000035f4      0x1f0 .\CortexM0\ARM_GCC_541\Debug\os_sem.o
                0x000035f4                OSSemPend
 .text.OSSemPendAbort
                0x000037e4      0x134 .\CortexM0\ARM_GCC_541\Debug\os_sem.o
                0x000037e4                OSSemPendAbort
 .text.OSSemPost
                0x00003918       0x8c .\CortexM0\ARM_GCC_541\Debug\os_sem.o
                0x00003918                OSSemPost
 .text.OSSemSet
                0x000039a4       0x90 .\CortexM0\ARM_GCC_541\Debug\os_sem.o
                0x000039a4                OSSemSet
 .text.OS_SemClr
                0x00003a34       0x3c .\CortexM0\ARM_GCC_541\Debug\os_sem.o
                0x00003a34                OS_SemClr
 .text.OS_SemDbgListAdd
                0x00003a70       0x4c .\CortexM0\ARM_GCC_541\Debug\os_sem.o
                0x00003a70                OS_SemDbgListAdd
 .text.OS_SemDbgListRemove
                0x00003abc       0x6c .\CortexM0\ARM_GCC_541\Debug\os_sem.o
                0x00003abc                OS_SemDbgListRemove
 .text.OS_SemInit
                0x00003b28       0x2c .\CortexM0\ARM_GCC_541\Debug\os_sem.o
                0x00003b28                OS_SemInit
 .text.OS_SemPost
                0x00003b54      0x118 .\CortexM0\ARM_GCC_541\Debug\os_sem.o
                0x00003b54                OS_SemPost
 .text          0x00003c6c        0x0 .\CortexM0\ARM_GCC_541\Debug\os_stat.o
 .text.OSStatReset
                0x00003c6c       0xbc .\CortexM0\ARM_GCC_541\Debug\os_stat.o
                0x00003c6c                OSStatReset
 .text.OSStatTaskCPUUsageInit
                0x00003d28      0x134 .\CortexM0\ARM_GCC_541\Debug\os_stat.o
                0x00003d28                OSStatTaskCPUUsageInit
 .text.OS_StatTask
                0x00003e5c      0x23c .\CortexM0\ARM_GCC_541\Debug\os_stat.o
                0x00003e5c                OS_StatTask
 .text.OS_StatTaskInit
                0x00004098       0xe0 .\CortexM0\ARM_GCC_541\Debug\os_stat.o
                0x00004098                OS_StatTaskInit
 .text          0x00004178        0x0 .\CortexM0\ARM_GCC_541\Debug\os_task.o
 .text.OSTaskChangePrio
                0x00004178      0x160 .\CortexM0\ARM_GCC_541\Debug\os_task.o
                0x00004178                OSTaskChangePrio
 .text.OSTaskCreate
                0x000042d8      0x228 .\CortexM0\ARM_GCC_541\Debug\os_task.o
                0x000042d8                OSTaskCreate
 .text.OSTaskRegGet
                0x00004500       0x7c .\CortexM0\ARM_GCC_541\Debug\os_task.o
                0x00004500                OSTaskRegGet
 .text.OSTaskRegGetID
                0x0000457c       0x74 .\CortexM0\ARM_GCC_541\Debug\os_task.o
                0x0000457c                OSTaskRegGetID
 .text.OSTaskRegSet
                0x000045f0       0x78 .\CortexM0\ARM_GCC_541\Debug\os_task.o
                0x000045f0                OSTaskRegSet
 .text.OSTaskResume
                0x00004668       0x7c .\CortexM0\ARM_GCC_541\Debug\os_task.o
                0x00004668                OSTaskResume
 .text.OSTaskSemPend
                0x000046e4      0x1b0 .\CortexM0\ARM_GCC_541\Debug\os_task.o
                0x000046e4                OSTaskSemPend
 .text.OSTaskSemPost
                0x00004894       0x5c .\CortexM0\ARM_GCC_541\Debug\os_task.o
                0x00004894                OSTaskSemPost
 .text.OSTaskSemSet
                0x000048f0       0x70 .\CortexM0\ARM_GCC_541\Debug\os_task.o
                0x000048f0                OSTaskSemSet
 .text.OSTaskStkChk
                0x00004960      0x10c .\CortexM0\ARM_GCC_541\Debug\os_task.o
                0x00004960                OSTaskStkChk
 .text.OSTaskSuspend
                0x00004a6c       0x4c .\CortexM0\ARM_GCC_541\Debug\os_task.o
                0x00004a6c                OSTaskSuspend
 .text.OS_TaskDbgListAdd
                0x00004ab8       0x40 .\CortexM0\ARM_GCC_541\Debug\os_task.o
                0x00004ab8                OS_TaskDbgListAdd
 .text.OS_TaskDbgListRemove
                0x00004af8       0x6c .\CortexM0\ARM_GCC_541\Debug\os_task.o
                0x00004af8                OS_TaskDbgListRemove
 .text.OS_TaskInit
                0x00004b64       0x34 .\CortexM0\ARM_GCC_541\Debug\os_task.o
                0x00004b64                OS_TaskInit
 .text.OS_TaskInitTCB
                0x00004b98      0x11c .\CortexM0\ARM_GCC_541\Debug\os_task.o
                0x00004b98                OS_TaskInitTCB
 .text.OS_TaskResume
                0x00004cb4      0x13c .\CortexM0\ARM_GCC_541\Debug\os_task.o
                0x00004cb4                OS_TaskResume
 .text.OS_TaskReturn
                0x00004df0       0x28 .\CortexM0\ARM_GCC_541\Debug\os_task.o
                0x00004df0                OS_TaskReturn
 .text.OS_TaskSemPost
                0x00004e18      0x140 .\CortexM0\ARM_GCC_541\Debug\os_task.o
                0x00004e18                OS_TaskSemPost
 .text.OS_TaskSuspend
                0x00004f58      0x138 .\CortexM0\ARM_GCC_541\Debug\os_task.o
                0x00004f58                OS_TaskSuspend
 .text          0x00005090        0x0 .\CortexM0\ARM_GCC_541\Debug\os_tick.o
 .text.OS_TickTask
                0x00005090       0x34 .\CortexM0\ARM_GCC_541\Debug\os_tick.o
                0x00005090                OS_TickTask
 .text.OS_TickTaskInit
                0x000050c4       0xc8 .\CortexM0\ARM_GCC_541\Debug\os_tick.o
                0x000050c4                OS_TickTaskInit
 .text.OS_TickListInit
                0x0000518c       0x54 .\CortexM0\ARM_GCC_541\Debug\os_tick.o
                0x0000518c                OS_TickListInit
 .text.OS_TickListInsert
                0x000051e0      0x200 .\CortexM0\ARM_GCC_541\Debug\os_tick.o
                0x000051e0                OS_TickListInsert
 .text.OS_TickListRemove
                0x000053e0       0x88 .\CortexM0\ARM_GCC_541\Debug\os_tick.o
                0x000053e0                OS_TickListRemove
 .text.OS_TickListResetPeak
                0x00005468       0x48 .\CortexM0\ARM_GCC_541\Debug\os_tick.o
                0x00005468                OS_TickListResetPeak
 .text.OS_TickListUpdate
                0x000054b0      0x204 .\CortexM0\ARM_GCC_541\Debug\os_tick.o
                0x000054b0                OS_TickListUpdate
 .text          0x000056b4        0x0 .\CortexM0\ARM_GCC_541\Debug\os_time.o
 .text.OSTimeDly
                0x000056b4       0xf0 .\CortexM0\ARM_GCC_541\Debug\os_time.o
                0x000056b4                OSTimeDly
 .text.OSTimeDlyHMSM
                0x000057a4      0x26c .\CortexM0\ARM_GCC_541\Debug\os_time.o
                0x000057a4                OSTimeDlyHMSM
 .text.OSTimeGet
                0x00005a10       0x40 .\CortexM0\ARM_GCC_541\Debug\os_time.o
                0x00005a10                OSTimeGet
 .text.OSTimeSet
                0x00005a50       0x40 .\CortexM0\ARM_GCC_541\Debug\os_time.o
                0x00005a50                OSTimeSet
 .text.OSTimeTick
                0x00005a90       0x54 .\CortexM0\ARM_GCC_541\Debug\os_time.o
                0x00005a90                OSTimeTick
 .text          0x00005ae4        0x0 .\CortexM0\ARM_GCC_541\Debug\os_tmr.o
 .text.OSTmrCreate
                0x00005ae4      0x110 .\CortexM0\ARM_GCC_541\Debug\os_tmr.o
                0x00005ae4                OSTmrCreate
 .text.OSTmrRemainGet
                0x00005bf4      0x118 .\CortexM0\ARM_GCC_541\Debug\os_tmr.o
                0x00005bf4                OSTmrRemainGet
 .text.OSTmrStart
                0x00005d0c       0xf8 .\CortexM0\ARM_GCC_541\Debug\os_tmr.o
                0x00005d0c                OSTmrStart
 .text.OSTmrStateGet
                0x00005e04       0x90 .\CortexM0\ARM_GCC_541\Debug\os_tmr.o
                0x00005e04                OSTmrStateGet
 .text.OSTmrStop
                0x00005e94      0x168 .\CortexM0\ARM_GCC_541\Debug\os_tmr.o
                0x00005e94                OSTmrStop
 .text.OS_TmrClr
                0x00005ffc       0x64 .\CortexM0\ARM_GCC_541\Debug\os_tmr.o
                0x00005ffc                OS_TmrClr
 .text.OS_TmrDbgListAdd
                0x00006060       0x40 .\CortexM0\ARM_GCC_541\Debug\os_tmr.o
                0x00006060                OS_TmrDbgListAdd
 .text.OS_TmrDbgListRemove
                0x000060a0       0x6c .\CortexM0\ARM_GCC_541\Debug\os_tmr.o
                0x000060a0                OS_TmrDbgListRemove
 .text.OS_TmrInit
                0x0000610c      0x168 .\CortexM0\ARM_GCC_541\Debug\os_tmr.o
                0x0000610c                OS_TmrInit
 .text.OS_TmrLink
                0x00006274      0x174 .\CortexM0\ARM_GCC_541\Debug\os_tmr.o
                0x00006274                OS_TmrLink
 .text.OS_TmrResetPeak
                0x000063e8       0x48 .\CortexM0\ARM_GCC_541\Debug\os_tmr.o
                0x000063e8                OS_TmrResetPeak
 .text.OS_TmrUnlink
                0x00006430       0xa4 .\CortexM0\ARM_GCC_541\Debug\os_tmr.o
                0x00006430                OS_TmrUnlink
 .text.OS_TmrTask
                0x000064d4      0x11c .\CortexM0\ARM_GCC_541\Debug\os_tmr.o
                0x000064d4                OS_TmrTask
 .text          0x000065f0        0x0 .\CortexM0\ARM_GCC_541\Debug\os_var.o
 .text          0x000065f0        0x0 .\CortexM0\ARM_GCC_541\Debug\lib_ascii.o
 .text.ASCII_IsAlpha
                0x000065f0       0x48 .\CortexM0\ARM_GCC_541\Debug\lib_ascii.o
                0x000065f0                ASCII_IsAlpha
 .text.ASCII_IsAlphaNum
                0x00006638       0x58 .\CortexM0\ARM_GCC_541\Debug\lib_ascii.o
                0x00006638                ASCII_IsAlphaNum
 .text.ASCII_IsLower
                0x00006690       0x38 .\CortexM0\ARM_GCC_541\Debug\lib_ascii.o
                0x00006690                ASCII_IsLower
 .text.ASCII_IsUpper
                0x000066c8       0x38 .\CortexM0\ARM_GCC_541\Debug\lib_ascii.o
                0x000066c8                ASCII_IsUpper
 .text.ASCII_IsDig
                0x00006700       0x38 .\CortexM0\ARM_GCC_541\Debug\lib_ascii.o
                0x00006700                ASCII_IsDig
 .text.ASCII_IsDigOct
                0x00006738       0x38 .\CortexM0\ARM_GCC_541\Debug\lib_ascii.o
                0x00006738                ASCII_IsDigOct
 .text.ASCII_IsDigHex
                0x00006770       0x58 .\CortexM0\ARM_GCC_541\Debug\lib_ascii.o
                0x00006770                ASCII_IsDigHex
 .text.ASCII_IsBlank
                0x000067c8       0x38 .\CortexM0\ARM_GCC_541\Debug\lib_ascii.o
                0x000067c8                ASCII_IsBlank
 .text.ASCII_IsSpace
                0x00006800       0x58 .\CortexM0\ARM_GCC_541\Debug\lib_ascii.o
                0x00006800                ASCII_IsSpace
 .text.ASCII_IsPrint
                0x00006858       0x38 .\CortexM0\ARM_GCC_541\Debug\lib_ascii.o
                0x00006858                ASCII_IsPrint
 .text.ASCII_IsGraph
                0x00006890       0x38 .\CortexM0\ARM_GCC_541\Debug\lib_ascii.o
                0x00006890                ASCII_IsGraph
 .text.ASCII_IsPunct
                0x000068c8       0x98 .\CortexM0\ARM_GCC_541\Debug\lib_ascii.o
                0x000068c8                ASCII_IsPunct
 .text.ASCII_IsCtrl
                0x00006960       0x40 .\CortexM0\ARM_GCC_541\Debug\lib_ascii.o
                0x00006960                ASCII_IsCtrl
 .text.ASCII_ToLower
                0x000069a0       0x40 .\CortexM0\ARM_GCC_541\Debug\lib_ascii.o
                0x000069a0                ASCII_ToLower
 .text.ASCII_ToUpper
                0x000069e0       0x40 .\CortexM0\ARM_GCC_541\Debug\lib_ascii.o
                0x000069e0                ASCII_ToUpper
 .text.ASCII_Cmp
                0x00006a20       0x60 .\CortexM0\ARM_GCC_541\Debug\lib_ascii.o
                0x00006a20                ASCII_Cmp
 .text          0x00006a80        0x0 .\CortexM0\ARM_GCC_541\Debug\lib_math.o
 .text.Math_Init
                0x00006a80       0x10 .\CortexM0\ARM_GCC_541\Debug\lib_math.o
                0x00006a80                Math_Init
 .text.Math_RandSetSeed
                0x00006a90       0x38 .\CortexM0\ARM_GCC_541\Debug\lib_math.o
                0x00006a90                Math_RandSetSeed
 .text.Math_Rand
                0x00006ac8       0x48 .\CortexM0\ARM_GCC_541\Debug\lib_math.o
                0x00006ac8                Math_Rand
 .text.Math_RandSeed
                0x00006b10       0x2c .\CortexM0\ARM_GCC_541\Debug\lib_math.o
                0x00006b10                Math_RandSeed
 .text          0x00006b3c        0x0 .\CortexM0\ARM_GCC_541\Debug\lib_mem.o
 .text.Mem_Init
                0x00006b3c        0xc .\CortexM0\ARM_GCC_541\Debug\lib_mem.o
                0x00006b3c                Mem_Init
 .text.Mem_Clr  0x00006b48       0x20 .\CortexM0\ARM_GCC_541\Debug\lib_mem.o
                0x00006b48                Mem_Clr
 .text.Mem_Set  0x00006b68       0xc0 .\CortexM0\ARM_GCC_541\Debug\lib_mem.o
                0x00006b68                Mem_Set
 .text.Mem_Copy
                0x00006c28       0xdc .\CortexM0\ARM_GCC_541\Debug\lib_mem.o
                0x00006c28                Mem_Copy
 .text.Mem_Move
                0x00006d04      0x124 .\CortexM0\ARM_GCC_541\Debug\lib_mem.o
                0x00006d04                Mem_Move
 .text.Mem_Cmp  0x00006e28      0x15c .\CortexM0\ARM_GCC_541\Debug\lib_mem.o
                0x00006e28                Mem_Cmp
 .text          0x00006f84        0x0 .\CortexM0\ARM_GCC_541\Debug\lib_str.o
 .text.Str_Len  0x00006f84       0x24 .\CortexM0\ARM_GCC_541\Debug\lib_str.o
                0x00006f84                Str_Len
 .text.Str_Len_N
                0x00006fa8       0x40 .\CortexM0\ARM_GCC_541\Debug\lib_str.o
                0x00006fa8                Str_Len_N
 .text.Str_Copy
                0x00006fe8       0x28 .\CortexM0\ARM_GCC_541\Debug\lib_str.o
                0x00006fe8                Str_Copy
 .text.Str_Copy_N
                0x00007010       0x8c .\CortexM0\ARM_GCC_541\Debug\lib_str.o
                0x00007010                Str_Copy_N
 .text.Str_Cat  0x0000709c       0x28 .\CortexM0\ARM_GCC_541\Debug\lib_str.o
                0x0000709c                Str_Cat
 .text.Str_Cat_N
                0x000070c4       0xb0 .\CortexM0\ARM_GCC_541\Debug\lib_str.o
                0x000070c4                Str_Cat_N
 .text.Str_Cmp  0x00007174       0x30 .\CortexM0\ARM_GCC_541\Debug\lib_str.o
                0x00007174                Str_Cmp
 .text.Str_Cmp_N
                0x000071a4      0x148 .\CortexM0\ARM_GCC_541\Debug\lib_str.o
                0x000071a4                Str_Cmp_N
 .text.Str_CmpIgnoreCase
                0x000072ec       0x30 .\CortexM0\ARM_GCC_541\Debug\lib_str.o
                0x000072ec                Str_CmpIgnoreCase
 .text.Str_CmpIgnoreCase_N
                0x0000731c      0x1ec .\CortexM0\ARM_GCC_541\Debug\lib_str.o
                0x0000731c                Str_CmpIgnoreCase_N
 .text.Str_Char
                0x00007508       0x2c .\CortexM0\ARM_GCC_541\Debug\lib_str.o
                0x00007508                Str_Char
 .text.Str_Char_N
                0x00007534       0x8c .\CortexM0\ARM_GCC_541\Debug\lib_str.o
                0x00007534                Str_Char_N
 .text.Str_Char_Last
                0x000075c0       0x2c .\CortexM0\ARM_GCC_541\Debug\lib_str.o
                0x000075c0                Str_Char_Last
 .text.Str_Char_Last_N
                0x000075ec       0x84 .\CortexM0\ARM_GCC_541\Debug\lib_str.o
                0x000075ec                Str_Char_Last_N
 .text.Str_Char_Replace
                0x00007670       0x3c .\CortexM0\ARM_GCC_541\Debug\lib_str.o
                0x00007670                Str_Char_Replace
 .text.Str_Char_Replace_N
                0x000076ac       0x80 .\CortexM0\ARM_GCC_541\Debug\lib_str.o
                0x000076ac                Str_Char_Replace_N
 .text.Str_Str  0x0000772c       0x28 .\CortexM0\ARM_GCC_541\Debug\lib_str.o
                0x0000772c                Str_Str
 .text.Str_Str_N
                0x00007754      0x110 .\CortexM0\ARM_GCC_541\Debug\lib_str.o
                0x00007754                Str_Str_N
 .text.Str_FmtNbr_Int32U
                0x00007864       0x58 .\CortexM0\ARM_GCC_541\Debug\lib_str.o
                0x00007864                Str_FmtNbr_Int32U
 .text.Str_FmtNbr_Int32S
                0x000078bc       0x80 .\CortexM0\ARM_GCC_541\Debug\lib_str.o
                0x000078bc                Str_FmtNbr_Int32S
 .text.Str_ParseNbr_Int32U
                0x0000793c       0x30 .\CortexM0\ARM_GCC_541\Debug\lib_str.o
                0x0000793c                Str_ParseNbr_Int32U
 .text.Str_ParseNbr_Int32S
                0x0000796c       0x60 .\CortexM0\ARM_GCC_541\Debug\lib_str.o
                0x0000796c                Str_ParseNbr_Int32S
 .text.Str_FmtNbr_Int32
                0x000079cc      0x3a0 .\CortexM0\ARM_GCC_541\Debug\lib_str.o
 .text.Str_ParseNbr_Int32
                0x00007d6c      0x32c .\CortexM0\ARM_GCC_541\Debug\lib_str.o
 .text          0x00008098        0x0 .\CortexM0\ARM_GCC_541\Debug\cyfitter_cfg.o
 .text.CYMEMZERO
                0x00008098       0x20 .\CortexM0\ARM_GCC_541\Debug\cyfitter_cfg.o
 .text.CYCONFIGCPY
                0x000080b8       0x20 .\CortexM0\ARM_GCC_541\Debug\cyfitter_cfg.o
 .text.CYCONFIGCPYCODE
                0x000080d8       0x20 .\CortexM0\ARM_GCC_541\Debug\cyfitter_cfg.o
 .text.cfg_write_bytes32
                0x000080f8       0x84 .\CortexM0\ARM_GCC_541\Debug\cyfitter_cfg.o
 .text.AnalogSetDefault
                0x0000817c       0x2c .\CortexM0\ARM_GCC_541\Debug\cyfitter_cfg.o
 .text.SetAnalogRoutingPumps
                0x000081a8       0x40 .\CortexM0\ARM_GCC_541\Debug\cyfitter_cfg.o
                0x000081a8                SetAnalogRoutingPumps
 .text          0x000081e8        0x0 .\CortexM0\ARM_GCC_541\Debug\cymetadata.o
 .text          0x000081e8        0x0 .\CortexM0\ARM_GCC_541\Debug\Cm0Start.o
 .text.IntDefaultHandler
                0x000081e8       0x14 .\CortexM0\ARM_GCC_541\Debug\Cm0Start.o
                0x000081e8                IntDefaultHandler
 .text._exit    0x000081fc       0x14 .\CortexM0\ARM_GCC_541\Debug\Cm0Start.o
                0x000081fc                _exit
 .text._sbrk    0x00008210       0x50 .\CortexM0\ARM_GCC_541\Debug\Cm0Start.o
                0x00008210                _sbrk
 .text.Start_c  0x00008260       0x98 .\CortexM0\ARM_GCC_541\Debug\Cm0Start.o
                0x00008260                Start_c
 .text.initialize_psoc
                0x000082f8       0x64 .\CortexM0\ARM_GCC_541\Debug\Cm0Start.o
                0x000082f8                initialize_psoc
 .text          0x0000835c       0x20 .\CortexM0\ARM_GCC_541\Debug\cpu_a.o
                0x0000835c                CPU_IntDis
                0x00008360                CPU_IntEn
                0x00008364                CPU_SR_Save
                0x0000836c                CPU_SR_Restore
                0x00008372                CPU_WaitForInt
                0x00008376                CPU_WaitForExcept
 .text          0x0000837c       0xac .\CortexM0\ARM_GCC_541\Debug\os_cpu_a.o
                0x0000837c                OSStartHighRdy
                0x000083a0                OSCtxSw
                0x000083a8                OSIntCtxSw
                0x000083b0                PendSV_Handler
 .text          0x00008428        0x0 .\CortexM0\ARM_GCC_541\Debug\OS3.a(PWM_Blue.o)
 .text.PWM_Blue_Init
                0x00008428       0x58 .\CortexM0\ARM_GCC_541\Debug\OS3.a(PWM_Blue.o)
                0x00008428                PWM_Blue_Init
 .text.PWM_Blue_Enable
                0x00008480       0x3c .\CortexM0\ARM_GCC_541\Debug\OS3.a(PWM_Blue.o)
                0x00008480                PWM_Blue_Enable
 .text.PWM_Blue_Start
                0x000084bc       0x24 .\CortexM0\ARM_GCC_541\Debug\OS3.a(PWM_Blue.o)
                0x000084bc                PWM_Blue_Start
 .text.PWM_Blue_Stop
                0x000084e0       0x34 .\CortexM0\ARM_GCC_541\Debug\OS3.a(PWM_Blue.o)
                0x000084e0                PWM_Blue_Stop
 .text.PWM_Blue_SetMode
                0x00008514       0x48 .\CortexM0\ARM_GCC_541\Debug\OS3.a(PWM_Blue.o)
                0x00008514                PWM_Blue_SetMode
 .text.PWM_Blue_SetQDMode
                0x0000855c       0x48 .\CortexM0\ARM_GCC_541\Debug\OS3.a(PWM_Blue.o)
                0x0000855c                PWM_Blue_SetQDMode
 .text.PWM_Blue_SetPrescaler
                0x000085a4       0x48 .\CortexM0\ARM_GCC_541\Debug\OS3.a(PWM_Blue.o)
                0x000085a4                PWM_Blue_SetPrescaler
 .text.PWM_Blue_SetOneShot
                0x000085ec       0x50 .\CortexM0\ARM_GCC_541\Debug\OS3.a(PWM_Blue.o)
                0x000085ec                PWM_Blue_SetOneShot
 .text.PWM_Blue_SetPWMMode
                0x0000863c       0x20 .\CortexM0\ARM_GCC_541\Debug\OS3.a(PWM_Blue.o)
                0x0000863c                PWM_Blue_SetPWMMode
 .text.PWM_Blue_SetPWMSyncKill
                0x0000865c       0x4c .\CortexM0\ARM_GCC_541\Debug\OS3.a(PWM_Blue.o)
                0x0000865c                PWM_Blue_SetPWMSyncKill
 .text.PWM_Blue_SetPWMStopOnKill
                0x000086a8       0x4c .\CortexM0\ARM_GCC_541\Debug\OS3.a(PWM_Blue.o)
                0x000086a8                PWM_Blue_SetPWMStopOnKill
 .text.PWM_Blue_SetPWMDeadTime
                0x000086f4       0x50 .\CortexM0\ARM_GCC_541\Debug\OS3.a(PWM_Blue.o)
                0x000086f4                PWM_Blue_SetPWMDeadTime
 .text.PWM_Blue_SetPWMInvert
                0x00008744       0x48 .\CortexM0\ARM_GCC_541\Debug\OS3.a(PWM_Blue.o)
                0x00008744                PWM_Blue_SetPWMInvert
 .text.PWM_Blue_WriteCounter
                0x0000878c       0x20 .\CortexM0\ARM_GCC_541\Debug\OS3.a(PWM_Blue.o)
                0x0000878c                PWM_Blue_WriteCounter
 .text.PWM_Blue_ReadCounter
                0x000087ac       0x18 .\CortexM0\ARM_GCC_541\Debug\OS3.a(PWM_Blue.o)
                0x000087ac                PWM_Blue_ReadCounter
 .text.PWM_Blue_SetCounterMode
                0x000087c4       0x48 .\CortexM0\ARM_GCC_541\Debug\OS3.a(PWM_Blue.o)
                0x000087c4                PWM_Blue_SetCounterMode
 .text.PWM_Blue_WritePeriod
                0x0000880c       0x20 .\CortexM0\ARM_GCC_541\Debug\OS3.a(PWM_Blue.o)
                0x0000880c                PWM_Blue_WritePeriod
 .text.PWM_Blue_ReadPeriod
                0x0000882c       0x18 .\CortexM0\ARM_GCC_541\Debug\OS3.a(PWM_Blue.o)
                0x0000882c                PWM_Blue_ReadPeriod
 .text.PWM_Blue_SetCompareSwap
                0x00008844       0x48 .\CortexM0\ARM_GCC_541\Debug\OS3.a(PWM_Blue.o)
                0x00008844                PWM_Blue_SetCompareSwap
 .text.PWM_Blue_WritePeriodBuf
                0x0000888c       0x20 .\CortexM0\ARM_GCC_541\Debug\OS3.a(PWM_Blue.o)
                0x0000888c                PWM_Blue_WritePeriodBuf
 .text.PWM_Blue_ReadPeriodBuf
                0x000088ac       0x18 .\CortexM0\ARM_GCC_541\Debug\OS3.a(PWM_Blue.o)
                0x000088ac                PWM_Blue_ReadPeriodBuf
 .text.PWM_Blue_SetPeriodSwap
                0x000088c4       0x4c .\CortexM0\ARM_GCC_541\Debug\OS3.a(PWM_Blue.o)
                0x000088c4                PWM_Blue_SetPeriodSwap
 .text.PWM_Blue_WriteCompare
                0x00008910       0x20 .\CortexM0\ARM_GCC_541\Debug\OS3.a(PWM_Blue.o)
                0x00008910                PWM_Blue_WriteCompare
 .text.PWM_Blue_ReadCompare
                0x00008930       0x18 .\CortexM0\ARM_GCC_541\Debug\OS3.a(PWM_Blue.o)
                0x00008930                PWM_Blue_ReadCompare
 .text.PWM_Blue_WriteCompareBuf
                0x00008948       0x20 .\CortexM0\ARM_GCC_541\Debug\OS3.a(PWM_Blue.o)
                0x00008948                PWM_Blue_WriteCompareBuf
 .text.PWM_Blue_ReadCompareBuf
                0x00008968       0x18 .\CortexM0\ARM_GCC_541\Debug\OS3.a(PWM_Blue.o)
                0x00008968                PWM_Blue_ReadCompareBuf
 .text.PWM_Blue_ReadCapture
                0x00008980       0x18 .\CortexM0\ARM_GCC_541\Debug\OS3.a(PWM_Blue.o)
                0x00008980                PWM_Blue_ReadCapture
 .text.PWM_Blue_ReadCaptureBuf
                0x00008998       0x18 .\CortexM0\ARM_GCC_541\Debug\OS3.a(PWM_Blue.o)
                0x00008998                PWM_Blue_ReadCaptureBuf
 .text.PWM_Blue_SetCaptureMode
                0x000089b0       0x44 .\CortexM0\ARM_GCC_541\Debug\OS3.a(PWM_Blue.o)
                0x000089b0                PWM_Blue_SetCaptureMode
 .text.PWM_Blue_SetReloadMode
                0x000089f4       0x48 .\CortexM0\ARM_GCC_541\Debug\OS3.a(PWM_Blue.o)
                0x000089f4                PWM_Blue_SetReloadMode
 .text.PWM_Blue_SetStartMode
                0x00008a3c       0x4c .\CortexM0\ARM_GCC_541\Debug\OS3.a(PWM_Blue.o)
                0x00008a3c                PWM_Blue_SetStartMode
 .text.PWM_Blue_SetStopMode
                0x00008a88       0x48 .\CortexM0\ARM_GCC_541\Debug\OS3.a(PWM_Blue.o)
                0x00008a88                PWM_Blue_SetStopMode
 .text.PWM_Blue_SetCountMode
                0x00008ad0       0x48 .\CortexM0\ARM_GCC_541\Debug\OS3.a(PWM_Blue.o)
                0x00008ad0                PWM_Blue_SetCountMode
 .text.PWM_Blue_TriggerCommand
                0x00008b18       0x3c .\CortexM0\ARM_GCC_541\Debug\OS3.a(PWM_Blue.o)
                0x00008b18                PWM_Blue_TriggerCommand
 .text.PWM_Blue_ReadStatus
                0x00008b54       0x20 .\CortexM0\ARM_GCC_541\Debug\OS3.a(PWM_Blue.o)
                0x00008b54                PWM_Blue_ReadStatus
 .text.PWM_Blue_SetInterruptMode
                0x00008b74       0x1c .\CortexM0\ARM_GCC_541\Debug\OS3.a(PWM_Blue.o)
                0x00008b74                PWM_Blue_SetInterruptMode
 .text.PWM_Blue_GetInterruptSourceMasked
                0x00008b90       0x14 .\CortexM0\ARM_GCC_541\Debug\OS3.a(PWM_Blue.o)
                0x00008b90                PWM_Blue_GetInterruptSourceMasked
 .text.PWM_Blue_GetInterruptSource
                0x00008ba4       0x14 .\CortexM0\ARM_GCC_541\Debug\OS3.a(PWM_Blue.o)
                0x00008ba4                PWM_Blue_GetInterruptSource
 .text.PWM_Blue_ClearInterrupt
                0x00008bb8       0x1c .\CortexM0\ARM_GCC_541\Debug\OS3.a(PWM_Blue.o)
                0x00008bb8                PWM_Blue_ClearInterrupt
 .text.PWM_Blue_SetInterrupt
                0x00008bd4       0x1c .\CortexM0\ARM_GCC_541\Debug\OS3.a(PWM_Blue.o)
                0x00008bd4                PWM_Blue_SetInterrupt
 .text          0x00008bf0        0x0 .\CortexM0\ARM_GCC_541\Debug\OS3.a(PWM_Green.o)
 .text.PWM_Green_Init
                0x00008bf0       0x58 .\CortexM0\ARM_GCC_541\Debug\OS3.a(PWM_Green.o)
                0x00008bf0                PWM_Green_Init
 .text.PWM_Green_Enable
                0x00008c48       0x3c .\CortexM0\ARM_GCC_541\Debug\OS3.a(PWM_Green.o)
                0x00008c48                PWM_Green_Enable
 .text.PWM_Green_Start
                0x00008c84       0x24 .\CortexM0\ARM_GCC_541\Debug\OS3.a(PWM_Green.o)
                0x00008c84                PWM_Green_Start
 .text.PWM_Green_Stop
                0x00008ca8       0x34 .\CortexM0\ARM_GCC_541\Debug\OS3.a(PWM_Green.o)
                0x00008ca8                PWM_Green_Stop
 .text.PWM_Green_SetMode
                0x00008cdc       0x48 .\CortexM0\ARM_GCC_541\Debug\OS3.a(PWM_Green.o)
                0x00008cdc                PWM_Green_SetMode
 .text.PWM_Green_SetQDMode
                0x00008d24       0x48 .\CortexM0\ARM_GCC_541\Debug\OS3.a(PWM_Green.o)
                0x00008d24                PWM_Green_SetQDMode
 .text.PWM_Green_SetPrescaler
                0x00008d6c       0x48 .\CortexM0\ARM_GCC_541\Debug\OS3.a(PWM_Green.o)
                0x00008d6c                PWM_Green_SetPrescaler
 .text.PWM_Green_SetOneShot
                0x00008db4       0x50 .\CortexM0\ARM_GCC_541\Debug\OS3.a(PWM_Green.o)
                0x00008db4                PWM_Green_SetOneShot
 .text.PWM_Green_SetPWMMode
                0x00008e04       0x20 .\CortexM0\ARM_GCC_541\Debug\OS3.a(PWM_Green.o)
                0x00008e04                PWM_Green_SetPWMMode
 .text.PWM_Green_SetPWMSyncKill
                0x00008e24       0x4c .\CortexM0\ARM_GCC_541\Debug\OS3.a(PWM_Green.o)
                0x00008e24                PWM_Green_SetPWMSyncKill
 .text.PWM_Green_SetPWMStopOnKill
                0x00008e70       0x4c .\CortexM0\ARM_GCC_541\Debug\OS3.a(PWM_Green.o)
                0x00008e70                PWM_Green_SetPWMStopOnKill
 .text.PWM_Green_SetPWMDeadTime
                0x00008ebc       0x50 .\CortexM0\ARM_GCC_541\Debug\OS3.a(PWM_Green.o)
                0x00008ebc                PWM_Green_SetPWMDeadTime
 .text.PWM_Green_SetPWMInvert
                0x00008f0c       0x48 .\CortexM0\ARM_GCC_541\Debug\OS3.a(PWM_Green.o)
                0x00008f0c                PWM_Green_SetPWMInvert
 .text.PWM_Green_WriteCounter
                0x00008f54       0x20 .\CortexM0\ARM_GCC_541\Debug\OS3.a(PWM_Green.o)
                0x00008f54                PWM_Green_WriteCounter
 .text.PWM_Green_ReadCounter
                0x00008f74       0x18 .\CortexM0\ARM_GCC_541\Debug\OS3.a(PWM_Green.o)
                0x00008f74                PWM_Green_ReadCounter
 .text.PWM_Green_SetCounterMode
                0x00008f8c       0x48 .\CortexM0\ARM_GCC_541\Debug\OS3.a(PWM_Green.o)
                0x00008f8c                PWM_Green_SetCounterMode
 .text.PWM_Green_WritePeriod
                0x00008fd4       0x20 .\CortexM0\ARM_GCC_541\Debug\OS3.a(PWM_Green.o)
                0x00008fd4                PWM_Green_WritePeriod
 .text.PWM_Green_ReadPeriod
                0x00008ff4       0x18 .\CortexM0\ARM_GCC_541\Debug\OS3.a(PWM_Green.o)
                0x00008ff4                PWM_Green_ReadPeriod
 .text.PWM_Green_SetCompareSwap
                0x0000900c       0x48 .\CortexM0\ARM_GCC_541\Debug\OS3.a(PWM_Green.o)
                0x0000900c                PWM_Green_SetCompareSwap
 .text.PWM_Green_WritePeriodBuf
                0x00009054       0x20 .\CortexM0\ARM_GCC_541\Debug\OS3.a(PWM_Green.o)
                0x00009054                PWM_Green_WritePeriodBuf
 .text.PWM_Green_ReadPeriodBuf
                0x00009074       0x18 .\CortexM0\ARM_GCC_541\Debug\OS3.a(PWM_Green.o)
                0x00009074                PWM_Green_ReadPeriodBuf
 .text.PWM_Green_SetPeriodSwap
                0x0000908c       0x4c .\CortexM0\ARM_GCC_541\Debug\OS3.a(PWM_Green.o)
                0x0000908c                PWM_Green_SetPeriodSwap
 .text.PWM_Green_WriteCompare
                0x000090d8       0x20 .\CortexM0\ARM_GCC_541\Debug\OS3.a(PWM_Green.o)
                0x000090d8                PWM_Green_WriteCompare
 .text.PWM_Green_ReadCompare
                0x000090f8       0x18 .\CortexM0\ARM_GCC_541\Debug\OS3.a(PWM_Green.o)
                0x000090f8                PWM_Green_ReadCompare
 .text.PWM_Green_WriteCompareBuf
                0x00009110       0x20 .\CortexM0\ARM_GCC_541\Debug\OS3.a(PWM_Green.o)
                0x00009110                PWM_Green_WriteCompareBuf
 .text.PWM_Green_ReadCompareBuf
                0x00009130       0x18 .\CortexM0\ARM_GCC_541\Debug\OS3.a(PWM_Green.o)
                0x00009130                PWM_Green_ReadCompareBuf
 .text.PWM_Green_ReadCapture
                0x00009148       0x18 .\CortexM0\ARM_GCC_541\Debug\OS3.a(PWM_Green.o)
                0x00009148                PWM_Green_ReadCapture
 .text.PWM_Green_ReadCaptureBuf
                0x00009160       0x18 .\CortexM0\ARM_GCC_541\Debug\OS3.a(PWM_Green.o)
                0x00009160                PWM_Green_ReadCaptureBuf
 .text.PWM_Green_SetCaptureMode
                0x00009178       0x44 .\CortexM0\ARM_GCC_541\Debug\OS3.a(PWM_Green.o)
                0x00009178                PWM_Green_SetCaptureMode
 .text.PWM_Green_SetReloadMode
                0x000091bc       0x48 .\CortexM0\ARM_GCC_541\Debug\OS3.a(PWM_Green.o)
                0x000091bc                PWM_Green_SetReloadMode
 .text.PWM_Green_SetStartMode
                0x00009204       0x4c .\CortexM0\ARM_GCC_541\Debug\OS3.a(PWM_Green.o)
                0x00009204                PWM_Green_SetStartMode
 .text.PWM_Green_SetStopMode
                0x00009250       0x48 .\CortexM0\ARM_GCC_541\Debug\OS3.a(PWM_Green.o)
                0x00009250                PWM_Green_SetStopMode
 .text.PWM_Green_SetCountMode
                0x00009298       0x48 .\CortexM0\ARM_GCC_541\Debug\OS3.a(PWM_Green.o)
                0x00009298                PWM_Green_SetCountMode
 .text.PWM_Green_TriggerCommand
                0x000092e0       0x3c .\CortexM0\ARM_GCC_541\Debug\OS3.a(PWM_Green.o)
                0x000092e0                PWM_Green_TriggerCommand
 .text.PWM_Green_ReadStatus
                0x0000931c       0x20 .\CortexM0\ARM_GCC_541\Debug\OS3.a(PWM_Green.o)
                0x0000931c                PWM_Green_ReadStatus
 .text.PWM_Green_SetInterruptMode
                0x0000933c       0x1c .\CortexM0\ARM_GCC_541\Debug\OS3.a(PWM_Green.o)
                0x0000933c                PWM_Green_SetInterruptMode
 .text.PWM_Green_GetInterruptSourceMasked
                0x00009358       0x14 .\CortexM0\ARM_GCC_541\Debug\OS3.a(PWM_Green.o)
                0x00009358                PWM_Green_GetInterruptSourceMasked
 .text.PWM_Green_GetInterruptSource
                0x0000936c       0x14 .\CortexM0\ARM_GCC_541\Debug\OS3.a(PWM_Green.o)
                0x0000936c                PWM_Green_GetInterruptSource
 .text.PWM_Green_ClearInterrupt
                0x00009380       0x1c .\CortexM0\ARM_GCC_541\Debug\OS3.a(PWM_Green.o)
                0x00009380                PWM_Green_ClearInterrupt
 .text.PWM_Green_SetInterrupt
                0x0000939c       0x1c .\CortexM0\ARM_GCC_541\Debug\OS3.a(PWM_Green.o)
                0x0000939c                PWM_Green_SetInterrupt
 .text          0x000093b8        0x0 .\CortexM0\ARM_GCC_541\Debug\OS3.a(PWM_Red.o)
 .text.PWM_Red_Init
                0x000093b8       0x58 .\CortexM0\ARM_GCC_541\Debug\OS3.a(PWM_Red.o)
                0x000093b8                PWM_Red_Init
 .text.PWM_Red_Enable
                0x00009410       0x3c .\CortexM0\ARM_GCC_541\Debug\OS3.a(PWM_Red.o)
                0x00009410                PWM_Red_Enable
 .text.PWM_Red_Start
                0x0000944c       0x24 .\CortexM0\ARM_GCC_541\Debug\OS3.a(PWM_Red.o)
                0x0000944c                PWM_Red_Start
 .text.PWM_Red_Stop
                0x00009470       0x34 .\CortexM0\ARM_GCC_541\Debug\OS3.a(PWM_Red.o)
                0x00009470                PWM_Red_Stop
 .text.PWM_Red_SetMode
                0x000094a4       0x48 .\CortexM0\ARM_GCC_541\Debug\OS3.a(PWM_Red.o)
                0x000094a4                PWM_Red_SetMode
 .text.PWM_Red_SetQDMode
                0x000094ec       0x48 .\CortexM0\ARM_GCC_541\Debug\OS3.a(PWM_Red.o)
                0x000094ec                PWM_Red_SetQDMode
 .text.PWM_Red_SetPrescaler
                0x00009534       0x48 .\CortexM0\ARM_GCC_541\Debug\OS3.a(PWM_Red.o)
                0x00009534                PWM_Red_SetPrescaler
 .text.PWM_Red_SetOneShot
                0x0000957c       0x50 .\CortexM0\ARM_GCC_541\Debug\OS3.a(PWM_Red.o)
                0x0000957c                PWM_Red_SetOneShot
 .text.PWM_Red_SetPWMMode
                0x000095cc       0x20 .\CortexM0\ARM_GCC_541\Debug\OS3.a(PWM_Red.o)
                0x000095cc                PWM_Red_SetPWMMode
 .text.PWM_Red_SetPWMSyncKill
                0x000095ec       0x4c .\CortexM0\ARM_GCC_541\Debug\OS3.a(PWM_Red.o)
                0x000095ec                PWM_Red_SetPWMSyncKill
 .text.PWM_Red_SetPWMStopOnKill
                0x00009638       0x4c .\CortexM0\ARM_GCC_541\Debug\OS3.a(PWM_Red.o)
                0x00009638                PWM_Red_SetPWMStopOnKill
 .text.PWM_Red_SetPWMDeadTime
                0x00009684       0x50 .\CortexM0\ARM_GCC_541\Debug\OS3.a(PWM_Red.o)
                0x00009684                PWM_Red_SetPWMDeadTime
 .text.PWM_Red_SetPWMInvert
                0x000096d4       0x48 .\CortexM0\ARM_GCC_541\Debug\OS3.a(PWM_Red.o)
                0x000096d4                PWM_Red_SetPWMInvert
 .text.PWM_Red_WriteCounter
                0x0000971c       0x20 .\CortexM0\ARM_GCC_541\Debug\OS3.a(PWM_Red.o)
                0x0000971c                PWM_Red_WriteCounter
 .text.PWM_Red_ReadCounter
                0x0000973c       0x18 .\CortexM0\ARM_GCC_541\Debug\OS3.a(PWM_Red.o)
                0x0000973c                PWM_Red_ReadCounter
 .text.PWM_Red_SetCounterMode
                0x00009754       0x48 .\CortexM0\ARM_GCC_541\Debug\OS3.a(PWM_Red.o)
                0x00009754                PWM_Red_SetCounterMode
 .text.PWM_Red_WritePeriod
                0x0000979c       0x20 .\CortexM0\ARM_GCC_541\Debug\OS3.a(PWM_Red.o)
                0x0000979c                PWM_Red_WritePeriod
 .text.PWM_Red_ReadPeriod
                0x000097bc       0x18 .\CortexM0\ARM_GCC_541\Debug\OS3.a(PWM_Red.o)
                0x000097bc                PWM_Red_ReadPeriod
 .text.PWM_Red_SetCompareSwap
                0x000097d4       0x48 .\CortexM0\ARM_GCC_541\Debug\OS3.a(PWM_Red.o)
                0x000097d4                PWM_Red_SetCompareSwap
 .text.PWM_Red_WritePeriodBuf
                0x0000981c       0x20 .\CortexM0\ARM_GCC_541\Debug\OS3.a(PWM_Red.o)
                0x0000981c                PWM_Red_WritePeriodBuf
 .text.PWM_Red_ReadPeriodBuf
                0x0000983c       0x18 .\CortexM0\ARM_GCC_541\Debug\OS3.a(PWM_Red.o)
                0x0000983c                PWM_Red_ReadPeriodBuf
 .text.PWM_Red_SetPeriodSwap
                0x00009854       0x4c .\CortexM0\ARM_GCC_541\Debug\OS3.a(PWM_Red.o)
                0x00009854                PWM_Red_SetPeriodSwap
 .text.PWM_Red_WriteCompare
                0x000098a0       0x20 .\CortexM0\ARM_GCC_541\Debug\OS3.a(PWM_Red.o)
                0x000098a0                PWM_Red_WriteCompare
 .text.PWM_Red_ReadCompare
                0x000098c0       0x18 .\CortexM0\ARM_GCC_541\Debug\OS3.a(PWM_Red.o)
                0x000098c0                PWM_Red_ReadCompare
 .text.PWM_Red_WriteCompareBuf
                0x000098d8       0x20 .\CortexM0\ARM_GCC_541\Debug\OS3.a(PWM_Red.o)
                0x000098d8                PWM_Red_WriteCompareBuf
 .text.PWM_Red_ReadCompareBuf
                0x000098f8       0x18 .\CortexM0\ARM_GCC_541\Debug\OS3.a(PWM_Red.o)
                0x000098f8                PWM_Red_ReadCompareBuf
 .text.PWM_Red_ReadCapture
                0x00009910       0x18 .\CortexM0\ARM_GCC_541\Debug\OS3.a(PWM_Red.o)
                0x00009910                PWM_Red_ReadCapture
 .text.PWM_Red_ReadCaptureBuf
                0x00009928       0x18 .\CortexM0\ARM_GCC_541\Debug\OS3.a(PWM_Red.o)
                0x00009928                PWM_Red_ReadCaptureBuf
 .text.PWM_Red_SetCaptureMode
                0x00009940       0x44 .\CortexM0\ARM_GCC_541\Debug\OS3.a(PWM_Red.o)
                0x00009940                PWM_Red_SetCaptureMode
 .text.PWM_Red_SetReloadMode
                0x00009984       0x48 .\CortexM0\ARM_GCC_541\Debug\OS3.a(PWM_Red.o)
                0x00009984                PWM_Red_SetReloadMode
 .text.PWM_Red_SetStartMode
                0x000099cc       0x4c .\CortexM0\ARM_GCC_541\Debug\OS3.a(PWM_Red.o)
                0x000099cc                PWM_Red_SetStartMode
 .text.PWM_Red_SetStopMode
                0x00009a18       0x48 .\CortexM0\ARM_GCC_541\Debug\OS3.a(PWM_Red.o)
                0x00009a18                PWM_Red_SetStopMode
 .text.PWM_Red_SetCountMode
                0x00009a60       0x48 .\CortexM0\ARM_GCC_541\Debug\OS3.a(PWM_Red.o)
                0x00009a60                PWM_Red_SetCountMode
 .text.PWM_Red_TriggerCommand
                0x00009aa8       0x3c .\CortexM0\ARM_GCC_541\Debug\OS3.a(PWM_Red.o)
                0x00009aa8                PWM_Red_TriggerCommand
 .text.PWM_Red_ReadStatus
                0x00009ae4       0x20 .\CortexM0\ARM_GCC_541\Debug\OS3.a(PWM_Red.o)
                0x00009ae4                PWM_Red_ReadStatus
 .text.PWM_Red_SetInterruptMode
                0x00009b04       0x1c .\CortexM0\ARM_GCC_541\Debug\OS3.a(PWM_Red.o)
                0x00009b04                PWM_Red_SetInterruptMode
 .text.PWM_Red_GetInterruptSourceMasked
                0x00009b20       0x14 .\CortexM0\ARM_GCC_541\Debug\OS3.a(PWM_Red.o)
                0x00009b20                PWM_Red_GetInterruptSourceMasked
 .text.PWM_Red_GetInterruptSource
                0x00009b34       0x14 .\CortexM0\ARM_GCC_541\Debug\OS3.a(PWM_Red.o)
                0x00009b34                PWM_Red_GetInterruptSource
 .text.PWM_Red_ClearInterrupt
                0x00009b48       0x1c .\CortexM0\ARM_GCC_541\Debug\OS3.a(PWM_Red.o)
                0x00009b48                PWM_Red_ClearInterrupt
 .text.PWM_Red_SetInterrupt
                0x00009b64       0x1c .\CortexM0\ARM_GCC_541\Debug\OS3.a(PWM_Red.o)
                0x00009b64                PWM_Red_SetInterrupt
 .text          0x00009b80        0x0 .\CortexM0\ARM_GCC_541\Debug\OS3.a(Accel_Pin.o)
 .text.Accel_Pin_SetDriveMode
                0x00009b80       0x30 .\CortexM0\ARM_GCC_541\Debug\OS3.a(Accel_Pin.o)
                0x00009b80                Accel_Pin_SetDriveMode
 .text.Accel_Pin_Write
                0x00009bb0       0x50 .\CortexM0\ARM_GCC_541\Debug\OS3.a(Accel_Pin.o)
                0x00009bb0                Accel_Pin_Write
 .text.Accel_Pin_Read
                0x00009c00       0x1c .\CortexM0\ARM_GCC_541\Debug\OS3.a(Accel_Pin.o)
                0x00009c00                Accel_Pin_Read
 .text.Accel_Pin_ReadDataReg
                0x00009c1c       0x1c .\CortexM0\ARM_GCC_541\Debug\OS3.a(Accel_Pin.o)
                0x00009c1c                Accel_Pin_ReadDataReg
 .text.Accel_Pin_SetInterruptMode
                0x00009c38       0x44 .\CortexM0\ARM_GCC_541\Debug\OS3.a(Accel_Pin.o)
                0x00009c38                Accel_Pin_SetInterruptMode
 .text.Accel_Pin_ClearInterrupt
                0x00009c7c       0x30 .\CortexM0\ARM_GCC_541\Debug\OS3.a(Accel_Pin.o)
                0x00009c7c                Accel_Pin_ClearInterrupt
 .text          0x00009cac        0x0 .\CortexM0\ARM_GCC_541\Debug\OS3.a(I2C.o)
 .text.I2C_Init
                0x00009cac       0x10 .\CortexM0\ARM_GCC_541\Debug\OS3.a(I2C.o)
                0x00009cac                I2C_Init
 .text.I2C_Enable
                0x00009cbc       0x24 .\CortexM0\ARM_GCC_541\Debug\OS3.a(I2C.o)
                0x00009cbc                I2C_Enable
 .text.I2C_Start
                0x00009ce0       0x24 .\CortexM0\ARM_GCC_541\Debug\OS3.a(I2C.o)
                0x00009ce0                I2C_Start
 .text.I2C_Stop
                0x00009d04       0x34 .\CortexM0\ARM_GCC_541\Debug\OS3.a(I2C.o)
                0x00009d04                I2C_Stop
 .text.I2C_SetRxFifoLevel
                0x00009d38       0x34 .\CortexM0\ARM_GCC_541\Debug\OS3.a(I2C.o)
                0x00009d38                I2C_SetRxFifoLevel
 .text.I2C_SetTxFifoLevel
                0x00009d6c       0x34 .\CortexM0\ARM_GCC_541\Debug\OS3.a(I2C.o)
                0x00009d6c                I2C_SetTxFifoLevel
 .text.I2C_SetCustomInterruptHandler
                0x00009da0       0x1c .\CortexM0\ARM_GCC_541\Debug\OS3.a(I2C.o)
                0x00009da0                I2C_SetCustomInterruptHandler
 .text.I2C_ScbEnableIntr
                0x00009dbc       0x10 .\CortexM0\ARM_GCC_541\Debug\OS3.a(I2C.o)
 .text.I2C_ScbModePostEnable
                0x00009dcc        0xc .\CortexM0\ARM_GCC_541\Debug\OS3.a(I2C.o)
 .text.I2C_ScbModeStop
                0x00009dd8       0x10 .\CortexM0\ARM_GCC_541\Debug\OS3.a(I2C.o)
 .text.I2C_I2CSlaveNackGeneration
                0x00009de8       0x54 .\CortexM0\ARM_GCC_541\Debug\OS3.a(I2C.o)
                0x00009de8                I2C_I2CSlaveNackGeneration
 .text          0x00009e3c        0x0 .\CortexM0\ARM_GCC_541\Debug\OS3.a(I2C_I2C.o)
 .text.I2C_I2CInit
                0x00009e3c       0xe8 .\CortexM0\ARM_GCC_541\Debug\OS3.a(I2C_I2C.o)
                0x00009e3c                I2C_I2CInit
 .text.I2C_I2CStop
                0x00009f24       0x28 .\CortexM0\ARM_GCC_541\Debug\OS3.a(I2C_I2C.o)
                0x00009f24                I2C_I2CStop
 .text.I2C_I2CFwBlockReset
                0x00009f4c       0xa8 .\CortexM0\ARM_GCC_541\Debug\OS3.a(I2C_I2C.o)
                0x00009f4c                I2C_I2CFwBlockReset
 .text          0x00009ff4        0x0 .\CortexM0\ARM_GCC_541\Debug\OS3.a(I2C_I2C_MASTER.o)
 .text.I2C_I2CMasterWriteBuf
                0x00009ff4      0x128 .\CortexM0\ARM_GCC_541\Debug\OS3.a(I2C_I2C_MASTER.o)
                0x00009ff4                I2C_I2CMasterWriteBuf
 .text.I2C_I2CMasterReadBuf
                0x0000a11c      0x138 .\CortexM0\ARM_GCC_541\Debug\OS3.a(I2C_I2C_MASTER.o)
                0x0000a11c                I2C_I2CMasterReadBuf
 .text.I2C_I2CMasterSendStart
                0x0000a254       0xf4 .\CortexM0\ARM_GCC_541\Debug\OS3.a(I2C_I2C_MASTER.o)
                0x0000a254                I2C_I2CMasterSendStart
 .text.I2C_I2CMasterSendRestart
                0x0000a348       0xa0 .\CortexM0\ARM_GCC_541\Debug\OS3.a(I2C_I2C_MASTER.o)
                0x0000a348                I2C_I2CMasterSendRestart
 .text.I2C_I2CMasterSendStop
                0x0000a3e8       0x84 .\CortexM0\ARM_GCC_541\Debug\OS3.a(I2C_I2C_MASTER.o)
                0x0000a3e8                I2C_I2CMasterSendStop
 .text.I2C_I2CMasterWriteByte
                0x0000a46c       0x74 .\CortexM0\ARM_GCC_541\Debug\OS3.a(I2C_I2C_MASTER.o)
                0x0000a46c                I2C_I2CMasterWriteByte
 .text.I2C_I2CMasterReadByte
                0x0000a4e0       0xb4 .\CortexM0\ARM_GCC_541\Debug\OS3.a(I2C_I2C_MASTER.o)
                0x0000a4e0                I2C_I2CMasterReadByte
 .text.I2C_I2CMasterGetReadBufSize
                0x0000a594       0x14 .\CortexM0\ARM_GCC_541\Debug\OS3.a(I2C_I2C_MASTER.o)
                0x0000a594                I2C_I2CMasterGetReadBufSize
 .text.I2C_I2CMasterGetWriteBufSize
                0x0000a5a8       0x14 .\CortexM0\ARM_GCC_541\Debug\OS3.a(I2C_I2C_MASTER.o)
                0x0000a5a8                I2C_I2CMasterGetWriteBufSize
 .text.I2C_I2CMasterClearReadBuf
                0x0000a5bc       0x34 .\CortexM0\ARM_GCC_541\Debug\OS3.a(I2C_I2C_MASTER.o)
                0x0000a5bc                I2C_I2CMasterClearReadBuf
 .text.I2C_I2CMasterClearWriteBuf
                0x0000a5f0       0x34 .\CortexM0\ARM_GCC_541\Debug\OS3.a(I2C_I2C_MASTER.o)
                0x0000a5f0                I2C_I2CMasterClearWriteBuf
 .text.I2C_I2CMasterStatus
                0x0000a624       0x44 .\CortexM0\ARM_GCC_541\Debug\OS3.a(I2C_I2C_MASTER.o)
                0x0000a624                I2C_I2CMasterStatus
 .text.I2C_I2CMasterClearStatus
                0x0000a668       0x30 .\CortexM0\ARM_GCC_541\Debug\OS3.a(I2C_I2C_MASTER.o)
                0x0000a668                I2C_I2CMasterClearStatus
 .text.I2C_I2CReStartGeneration
                0x0000a698      0x100 .\CortexM0\ARM_GCC_541\Debug\OS3.a(I2C_I2C_MASTER.o)
                0x0000a698                I2C_I2CReStartGeneration
 .text.I2C_I2CMasterHandleStatus
                0x0000a798      0x104 .\CortexM0\ARM_GCC_541\Debug\OS3.a(I2C_I2C_MASTER.o)
 .text.I2C_I2CMasterWaitOneUnit
                0x0000a89c       0x4c .\CortexM0\ARM_GCC_541\Debug\OS3.a(I2C_I2C_MASTER.o)
 .text          0x0000a8e8        0x0 .\CortexM0\ARM_GCC_541\Debug\OS3.a(SW2.o)
 .text.SW2_SetDriveMode
                0x0000a8e8       0x30 .\CortexM0\ARM_GCC_541\Debug\OS3.a(SW2.o)
                0x0000a8e8                SW2_SetDriveMode
 .text.SW2_Write
                0x0000a918       0x48 .\CortexM0\ARM_GCC_541\Debug\OS3.a(SW2.o)
                0x0000a918                SW2_Write
 .text.SW2_Read
                0x0000a960       0x1c .\CortexM0\ARM_GCC_541\Debug\OS3.a(SW2.o)
                0x0000a960                SW2_Read
 .text.SW2_ReadDataReg
                0x0000a97c       0x1c .\CortexM0\ARM_GCC_541\Debug\OS3.a(SW2.o)
                0x0000a97c                SW2_ReadDataReg
 .text.SW2_SetInterruptMode
                0x0000a998       0x44 .\CortexM0\ARM_GCC_541\Debug\OS3.a(SW2.o)
                0x0000a998                SW2_SetInterruptMode
 .text.SW2_ClearInterrupt
                0x0000a9dc       0x30 .\CortexM0\ARM_GCC_541\Debug\OS3.a(SW2.o)
                0x0000a9dc                SW2_ClearInterrupt
 .text          0x0000aa0c        0x0 .\CortexM0\ARM_GCC_541\Debug\OS3.a(Accel_ISR.o)
 .text.Accel_ISR_Start
                0x0000aa0c       0x24 .\CortexM0\ARM_GCC_541\Debug\OS3.a(Accel_ISR.o)
                0x0000aa0c                Accel_ISR_Start
 .text.Accel_ISR_StartEx
                0x0000aa30       0x28 .\CortexM0\ARM_GCC_541\Debug\OS3.a(Accel_ISR.o)
                0x0000aa30                Accel_ISR_StartEx
 .text.Accel_ISR_Stop
                0x0000aa58       0x1c .\CortexM0\ARM_GCC_541\Debug\OS3.a(Accel_ISR.o)
                0x0000aa58                Accel_ISR_Stop
 .text.Accel_ISR_Interrupt
                0x0000aa74        0xc .\CortexM0\ARM_GCC_541\Debug\OS3.a(Accel_ISR.o)
                0x0000aa74                Accel_ISR_Interrupt
 .text.Accel_ISR_SetVector
                0x0000aa80       0x1c .\CortexM0\ARM_GCC_541\Debug\OS3.a(Accel_ISR.o)
                0x0000aa80                Accel_ISR_SetVector
 .text.Accel_ISR_GetVector
                0x0000aa9c       0x14 .\CortexM0\ARM_GCC_541\Debug\OS3.a(Accel_ISR.o)
                0x0000aa9c                Accel_ISR_GetVector
 .text.Accel_ISR_SetPriority
                0x0000aab0       0x50 .\CortexM0\ARM_GCC_541\Debug\OS3.a(Accel_ISR.o)
                0x0000aab0                Accel_ISR_SetPriority
 .text.Accel_ISR_GetPriority
                0x0000ab00       0x2c .\CortexM0\ARM_GCC_541\Debug\OS3.a(Accel_ISR.o)
                0x0000ab00                Accel_ISR_GetPriority
 .text.Accel_ISR_Enable
                0x0000ab2c       0x14 .\CortexM0\ARM_GCC_541\Debug\OS3.a(Accel_ISR.o)
                0x0000ab2c                Accel_ISR_Enable
 .text.Accel_ISR_GetState
                0x0000ab40       0x20 .\CortexM0\ARM_GCC_541\Debug\OS3.a(Accel_ISR.o)
                0x0000ab40                Accel_ISR_GetState
 .text.Accel_ISR_Disable
                0x0000ab60       0x14 .\CortexM0\ARM_GCC_541\Debug\OS3.a(Accel_ISR.o)
                0x0000ab60                Accel_ISR_Disable
 .text.Accel_ISR_SetPending
                0x0000ab74       0x14 .\CortexM0\ARM_GCC_541\Debug\OS3.a(Accel_ISR.o)
                0x0000ab74                Accel_ISR_SetPending
 .text.Accel_ISR_ClearPending
                0x0000ab88       0x14 .\CortexM0\ARM_GCC_541\Debug\OS3.a(Accel_ISR.o)
                0x0000ab88                Accel_ISR_ClearPending
 .text          0x0000ab9c        0x0 .\CortexM0\ARM_GCC_541\Debug\OS3.a(Temp_Sensor.o)
 .text.Temp_Sensor_Start
                0x0000ab9c       0x24 .\CortexM0\ARM_GCC_541\Debug\OS3.a(Temp_Sensor.o)
                0x0000ab9c                Temp_Sensor_Start
 .text.Temp_Sensor_Stop
                0x0000abc0       0x44 .\CortexM0\ARM_GCC_541\Debug\OS3.a(Temp_Sensor.o)
                0x0000abc0                Temp_Sensor_Stop
 .text.Temp_Sensor_Init
                0x0000ac04       0x20 .\CortexM0\ARM_GCC_541\Debug\OS3.a(Temp_Sensor.o)
                0x0000ac04                Temp_Sensor_Init
 .text.Temp_Sensor_Enable
                0x0000ac24       0x78 .\CortexM0\ARM_GCC_541\Debug\OS3.a(Temp_Sensor.o)
                0x0000ac24                Temp_Sensor_Enable
 .text.Temp_Sensor_Trigger
                0x0000ac9c       0x4c .\CortexM0\ARM_GCC_541\Debug\OS3.a(Temp_Sensor.o)
                0x0000ac9c                Temp_Sensor_Trigger
 .text.Temp_Sensor_GetTemperature
                0x0000ace8       0x70 .\CortexM0\ARM_GCC_541\Debug\OS3.a(Temp_Sensor.o)
                0x0000ace8                Temp_Sensor_GetTemperature
 .text.Temp_Sensor_ConversionStatus
                0x0000ad58       0x1c .\CortexM0\ARM_GCC_541\Debug\OS3.a(Temp_Sensor.o)
                0x0000ad58                Temp_Sensor_ConversionStatus
 .text.Temp_Sensor_SetMode
                0x0000ad74       0x20 .\CortexM0\ARM_GCC_541\Debug\OS3.a(Temp_Sensor.o)
                0x0000ad74                Temp_Sensor_SetMode
 .text.Temp_Sensor_DiscoverSensors
                0x0000ad94      0x10c .\CortexM0\ARM_GCC_541\Debug\OS3.a(Temp_Sensor.o)
                0x0000ad94                Temp_Sensor_DiscoverSensors
 .text          0x0000aea0        0x0 .\CortexM0\ARM_GCC_541\Debug\OS3.a(Temp_Sensor_INT.o)
 .text.Temp_Sensor_EOC_ISR_Int
                0x0000aea0       0xc0 .\CortexM0\ARM_GCC_541\Debug\OS3.a(Temp_Sensor_INT.o)
                0x0000aea0                Temp_Sensor_EOC_ISR_Int
 .text          0x0000af60        0x0 .\CortexM0\ARM_GCC_541\Debug\OS3.a(Opamp.o)
 .text.Opamp_Init
                0x0000af60       0x34 .\CortexM0\ARM_GCC_541\Debug\OS3.a(Opamp.o)
                0x0000af60                Opamp_Init
 .text.Opamp_Enable
                0x0000af94       0x28 .\CortexM0\ARM_GCC_541\Debug\OS3.a(Opamp.o)
                0x0000af94                Opamp_Enable
 .text.Opamp_Start
                0x0000afbc       0x24 .\CortexM0\ARM_GCC_541\Debug\OS3.a(Opamp.o)
                0x0000afbc                Opamp_Start
 .text.Opamp_Stop
                0x0000afe0       0x20 .\CortexM0\ARM_GCC_541\Debug\OS3.a(Opamp.o)
                0x0000afe0                Opamp_Stop
 .text.Opamp_SetPower
                0x0000b000       0x38 .\CortexM0\ARM_GCC_541\Debug\OS3.a(Opamp.o)
                0x0000b000                Opamp_SetPower
 .text.Opamp_PumpControl
                0x0000b038       0x3c .\CortexM0\ARM_GCC_541\Debug\OS3.a(Opamp.o)
                0x0000b038                Opamp_PumpControl
 .text          0x0000b074        0x0 .\CortexM0\ARM_GCC_541\Debug\OS3.a(ADC.o)
 .text.ADC_Start
                0x0000b074       0x24 .\CortexM0\ARM_GCC_541\Debug\OS3.a(ADC.o)
                0x0000b074                ADC_Start
 .text.ADC_Init
                0x0000b098      0x1c8 .\CortexM0\ARM_GCC_541\Debug\OS3.a(ADC.o)
                0x0000b098                ADC_Init
 .text.ADC_Enable
                0x0000b260       0x2c .\CortexM0\ARM_GCC_541\Debug\OS3.a(ADC.o)
                0x0000b260                ADC_Enable
 .text.ADC_Stop
                0x0000b28c       0x1c .\CortexM0\ARM_GCC_541\Debug\OS3.a(ADC.o)
                0x0000b28c                ADC_Stop
 .text.ADC_StartConvert
                0x0000b2a8       0x1c .\CortexM0\ARM_GCC_541\Debug\OS3.a(ADC.o)
                0x0000b2a8                ADC_StartConvert
 .text.ADC_StopConvert
                0x0000b2c4       0x20 .\CortexM0\ARM_GCC_541\Debug\OS3.a(ADC.o)
                0x0000b2c4                ADC_StopConvert
 .text.ADC_IsEndConversion
                0x0000b2e4       0x48 .\CortexM0\ARM_GCC_541\Debug\OS3.a(ADC.o)
                0x0000b2e4                ADC_IsEndConversion
 .text.ADC_GetResult16
                0x0000b32c       0x44 .\CortexM0\ARM_GCC_541\Debug\OS3.a(ADC.o)
                0x0000b32c                ADC_GetResult16
 .text.ADC_SetChanMask
                0x0000b370       0x20 .\CortexM0\ARM_GCC_541\Debug\OS3.a(ADC.o)
                0x0000b370                ADC_SetChanMask
 .text.ADC_SetLowLimit
                0x0000b390       0x30 .\CortexM0\ARM_GCC_541\Debug\OS3.a(ADC.o)
                0x0000b390                ADC_SetLowLimit
 .text.ADC_SetHighLimit
                0x0000b3c0       0x30 .\CortexM0\ARM_GCC_541\Debug\OS3.a(ADC.o)
                0x0000b3c0                ADC_SetHighLimit
 .text.ADC_SetLimitMask
                0x0000b3f0       0x20 .\CortexM0\ARM_GCC_541\Debug\OS3.a(ADC.o)
                0x0000b3f0                ADC_SetLimitMask
 .text.ADC_SetSatMask
                0x0000b410       0x20 .\CortexM0\ARM_GCC_541\Debug\OS3.a(ADC.o)
                0x0000b410                ADC_SetSatMask
 .text.ADC_SetOffset
                0x0000b430       0x34 .\CortexM0\ARM_GCC_541\Debug\OS3.a(ADC.o)
                0x0000b430                ADC_SetOffset
 .text.ADC_SetGain
                0x0000b464       0x2c .\CortexM0\ARM_GCC_541\Debug\OS3.a(ADC.o)
                0x0000b464                ADC_SetGain
 .text.ADC_CountsTo_mVolts
                0x0000b490       0xa0 .\CortexM0\ARM_GCC_541\Debug\OS3.a(ADC.o)
                0x0000b490                ADC_CountsTo_mVolts
 .text.ADC_CountsTo_uVolts
                0x0000b530       0x90 .\CortexM0\ARM_GCC_541\Debug\OS3.a(ADC.o)
                0x0000b530                ADC_CountsTo_uVolts
 .text.ADC_CountsTo_Volts
                0x0000b5c0       0x80 .\CortexM0\ARM_GCC_541\Debug\OS3.a(ADC.o)
                0x0000b5c0                ADC_CountsTo_Volts
 .text          0x0000b640        0x0 .\CortexM0\ARM_GCC_541\Debug\OS3.a(ADC_INT.o)
 .text.ADC_ISR  0x0000b640       0x20 .\CortexM0\ARM_GCC_541\Debug\OS3.a(ADC_INT.o)
                0x0000b640                ADC_ISR
 .text          0x0000b660        0x0 .\CortexM0\ARM_GCC_541\Debug\OS3.a(I2C_sda.o)
 .text.I2C_sda_SetDriveMode
                0x0000b660       0x30 .\CortexM0\ARM_GCC_541\Debug\OS3.a(I2C_sda.o)
                0x0000b660                I2C_sda_SetDriveMode
 .text.I2C_sda_Write
                0x0000b690       0x50 .\CortexM0\ARM_GCC_541\Debug\OS3.a(I2C_sda.o)
                0x0000b690                I2C_sda_Write
 .text.I2C_sda_Read
                0x0000b6e0       0x1c .\CortexM0\ARM_GCC_541\Debug\OS3.a(I2C_sda.o)
                0x0000b6e0                I2C_sda_Read
 .text.I2C_sda_ReadDataReg
                0x0000b6fc       0x1c .\CortexM0\ARM_GCC_541\Debug\OS3.a(I2C_sda.o)
                0x0000b6fc                I2C_sda_ReadDataReg
 .text.I2C_sda_SetInterruptMode
                0x0000b718       0x44 .\CortexM0\ARM_GCC_541\Debug\OS3.a(I2C_sda.o)
                0x0000b718                I2C_sda_SetInterruptMode
 .text.I2C_sda_ClearInterrupt
                0x0000b75c       0x30 .\CortexM0\ARM_GCC_541\Debug\OS3.a(I2C_sda.o)
                0x0000b75c                I2C_sda_ClearInterrupt
 .text          0x0000b78c        0x0 .\CortexM0\ARM_GCC_541\Debug\OS3.a(I2C_scl.o)
 .text.I2C_scl_SetDriveMode
                0x0000b78c       0x2c .\CortexM0\ARM_GCC_541\Debug\OS3.a(I2C_scl.o)
                0x0000b78c                I2C_scl_SetDriveMode
 .text.I2C_scl_Write
                0x0000b7b8       0x4c .\CortexM0\ARM_GCC_541\Debug\OS3.a(I2C_scl.o)
                0x0000b7b8                I2C_scl_Write
 .text.I2C_scl_Read
                0x0000b804       0x1c .\CortexM0\ARM_GCC_541\Debug\OS3.a(I2C_scl.o)
                0x0000b804                I2C_scl_Read
 .text.I2C_scl_ReadDataReg
                0x0000b820       0x1c .\CortexM0\ARM_GCC_541\Debug\OS3.a(I2C_scl.o)
                0x0000b820                I2C_scl_ReadDataReg
 .text.I2C_scl_SetInterruptMode
                0x0000b83c       0x44 .\CortexM0\ARM_GCC_541\Debug\OS3.a(I2C_scl.o)
                0x0000b83c                I2C_scl_SetInterruptMode
 .text.I2C_scl_ClearInterrupt
                0x0000b880       0x2c .\CortexM0\ARM_GCC_541\Debug\OS3.a(I2C_scl.o)
                0x0000b880                I2C_scl_ClearInterrupt
 .text          0x0000b8ac        0x0 .\CortexM0\ARM_GCC_541\Debug\OS3.a(Temp_Sensor_EOC_ISR.o)
 .text.Temp_Sensor_EOC_ISR_Start
                0x0000b8ac       0x24 .\CortexM0\ARM_GCC_541\Debug\OS3.a(Temp_Sensor_EOC_ISR.o)
                0x0000b8ac                Temp_Sensor_EOC_ISR_Start
 .text.Temp_Sensor_EOC_ISR_StartEx
                0x0000b8d0       0x28 .\CortexM0\ARM_GCC_541\Debug\OS3.a(Temp_Sensor_EOC_ISR.o)
                0x0000b8d0                Temp_Sensor_EOC_ISR_StartEx
 .text.Temp_Sensor_EOC_ISR_Stop
                0x0000b8f8       0x1c .\CortexM0\ARM_GCC_541\Debug\OS3.a(Temp_Sensor_EOC_ISR.o)
                0x0000b8f8                Temp_Sensor_EOC_ISR_Stop
 .text.Temp_Sensor_EOC_ISR_Interrupt
                0x0000b914        0xc .\CortexM0\ARM_GCC_541\Debug\OS3.a(Temp_Sensor_EOC_ISR.o)
                0x0000b914                Temp_Sensor_EOC_ISR_Interrupt
 .text.Temp_Sensor_EOC_ISR_SetVector
                0x0000b920       0x1c .\CortexM0\ARM_GCC_541\Debug\OS3.a(Temp_Sensor_EOC_ISR.o)
                0x0000b920                Temp_Sensor_EOC_ISR_SetVector
 .text.Temp_Sensor_EOC_ISR_GetVector
                0x0000b93c       0x14 .\CortexM0\ARM_GCC_541\Debug\OS3.a(Temp_Sensor_EOC_ISR.o)
                0x0000b93c                Temp_Sensor_EOC_ISR_GetVector
 .text.Temp_Sensor_EOC_ISR_SetPriority
                0x0000b950       0x50 .\CortexM0\ARM_GCC_541\Debug\OS3.a(Temp_Sensor_EOC_ISR.o)
                0x0000b950                Temp_Sensor_EOC_ISR_SetPriority
 .text.Temp_Sensor_EOC_ISR_GetPriority
                0x0000b9a0       0x2c .\CortexM0\ARM_GCC_541\Debug\OS3.a(Temp_Sensor_EOC_ISR.o)
                0x0000b9a0                Temp_Sensor_EOC_ISR_GetPriority
 .text.Temp_Sensor_EOC_ISR_Enable
                0x0000b9cc       0x14 .\CortexM0\ARM_GCC_541\Debug\OS3.a(Temp_Sensor_EOC_ISR.o)
                0x0000b9cc                Temp_Sensor_EOC_ISR_Enable
 .text.Temp_Sensor_EOC_ISR_GetState
                0x0000b9e0       0x1c .\CortexM0\ARM_GCC_541\Debug\OS3.a(Temp_Sensor_EOC_ISR.o)
                0x0000b9e0                Temp_Sensor_EOC_ISR_GetState
 .text.Temp_Sensor_EOC_ISR_Disable
                0x0000b9fc       0x14 .\CortexM0\ARM_GCC_541\Debug\OS3.a(Temp_Sensor_EOC_ISR.o)
                0x0000b9fc                Temp_Sensor_EOC_ISR_Disable
 .text.Temp_Sensor_EOC_ISR_SetPending
                0x0000ba10       0x14 .\CortexM0\ARM_GCC_541\Debug\OS3.a(Temp_Sensor_EOC_ISR.o)
                0x0000ba10                Temp_Sensor_EOC_ISR_SetPending
 .text.Temp_Sensor_EOC_ISR_ClearPending
                0x0000ba24       0x14 .\CortexM0\ARM_GCC_541\Debug\OS3.a(Temp_Sensor_EOC_ISR.o)
                0x0000ba24                Temp_Sensor_EOC_ISR_ClearPending
 .text          0x0000ba38        0x0 .\CortexM0\ARM_GCC_541\Debug\OS3.a(CyLib.o)
 .text.CySysClkImoStart
                0x0000ba38       0x1c .\CortexM0\ARM_GCC_541\Debug\OS3.a(CyLib.o)
                0x0000ba38                CySysClkImoStart
 .text.CySysClkImoStop
                0x0000ba54       0x1c .\CortexM0\ARM_GCC_541\Debug\OS3.a(CyLib.o)
                0x0000ba54                CySysClkImoStop
 .text.CySysClkWriteHfclkDirect
                0x0000ba70       0x48 .\CortexM0\ARM_GCC_541\Debug\OS3.a(CyLib.o)
                0x0000ba70                CySysClkWriteHfclkDirect
 .text.CySysEnablePumpClock
                0x0000bab8       0x50 .\CortexM0\ARM_GCC_541\Debug\OS3.a(CyLib.o)
                0x0000bab8                CySysEnablePumpClock
 .text.CySysClkGetSysclkSource
                0x0000bb08       0x34 .\CortexM0\ARM_GCC_541\Debug\OS3.a(CyLib.o)
                0x0000bb08                CySysClkGetSysclkSource
 .text.CySysClkWriteSysclkDiv
                0x0000bb3c       0x48 .\CortexM0\ARM_GCC_541\Debug\OS3.a(CyLib.o)
                0x0000bb3c                CySysClkWriteSysclkDiv
 .text.CySysClkWriteImoFreq
                0x0000bb84      0x1e4 .\CortexM0\ARM_GCC_541\Debug\OS3.a(CyLib.o)
                0x0000bb84                CySysClkWriteImoFreq
 .text.CySysLvdEnable
                0x0000bd68       0x64 .\CortexM0\ARM_GCC_541\Debug\OS3.a(CyLib.o)
                0x0000bd68                CySysLvdEnable
 .text.CySysLvdDisable
                0x0000bdcc       0x2c .\CortexM0\ARM_GCC_541\Debug\OS3.a(CyLib.o)
                0x0000bdcc                CySysLvdDisable
 .text.CySysLvdGetInterruptSource
                0x0000bdf8       0x18 .\CortexM0\ARM_GCC_541\Debug\OS3.a(CyLib.o)
                0x0000bdf8                CySysLvdGetInterruptSource
 .text.CySysLvdClearInterrupt
                0x0000be10       0x14 .\CortexM0\ARM_GCC_541\Debug\OS3.a(CyLib.o)
                0x0000be10                CySysLvdClearInterrupt
 .text.CySysGetResetReason
                0x0000be24       0x30 .\CortexM0\ARM_GCC_541\Debug\OS3.a(CyLib.o)
                0x0000be24                CySysGetResetReason
 .text.CyDisableInts
                0x0000be54       0x24 .\CortexM0\ARM_GCC_541\Debug\OS3.a(CyLib.o)
                0x0000be54                CyDisableInts
 .text.CyEnableInts
                0x0000be78       0x1c .\CortexM0\ARM_GCC_541\Debug\OS3.a(CyLib.o)
                0x0000be78                CyEnableInts
 .text.CyIntSetSysVector
                0x0000be94       0x48 .\CortexM0\ARM_GCC_541\Debug\OS3.a(CyLib.o)
                0x0000be94                CyIntSetSysVector
 .text.CyIntGetSysVector
                0x0000bedc       0x34 .\CortexM0\ARM_GCC_541\Debug\OS3.a(CyLib.o)
                0x0000bedc                CyIntGetSysVector
 .text.CyIntSetVector
                0x0000bf10       0x4c .\CortexM0\ARM_GCC_541\Debug\OS3.a(CyLib.o)
                0x0000bf10                CyIntSetVector
 .text.CyIntGetVector
                0x0000bf5c       0x38 .\CortexM0\ARM_GCC_541\Debug\OS3.a(CyLib.o)
                0x0000bf5c                CyIntGetVector
 .text.CyIntSetPriority
                0x0000bf94       0xa8 .\CortexM0\ARM_GCC_541\Debug\OS3.a(CyLib.o)
                0x0000bf94                CyIntSetPriority
 .text.CyIntGetPriority
                0x0000c03c       0x58 .\CortexM0\ARM_GCC_541\Debug\OS3.a(CyLib.o)
                0x0000c03c                CyIntGetPriority
 .text.CyIntEnable
                0x0000c094       0x2c .\CortexM0\ARM_GCC_541\Debug\OS3.a(CyLib.o)
                0x0000c094                CyIntEnable
 .text.CyIntGetState
                0x0000c0c0       0x30 .\CortexM0\ARM_GCC_541\Debug\OS3.a(CyLib.o)
                0x0000c0c0                CyIntGetState
 .text.CyIntDisable
                0x0000c0f0       0x2c .\CortexM0\ARM_GCC_541\Debug\OS3.a(CyLib.o)
                0x0000c0f0                CyIntDisable
 .text.CyIntSetPending
                0x0000c11c       0x2c .\CortexM0\ARM_GCC_541\Debug\OS3.a(CyLib.o)
                0x0000c11c                CyIntSetPending
 .text.CyIntClearPending
                0x0000c148       0x2c .\CortexM0\ARM_GCC_541\Debug\OS3.a(CyLib.o)
                0x0000c148                CyIntClearPending
 .text.CyHalt   0x0000c174       0x18 .\CortexM0\ARM_GCC_541\Debug\OS3.a(CyLib.o)
                0x0000c174                CyHalt
 .text.CySoftwareReset
                0x0000c18c       0x24 .\CortexM0\ARM_GCC_541\Debug\OS3.a(CyLib.o)
                0x0000c18c                CySoftwareReset
 .text.CyDelay  0x0000c1b0       0x4c .\CortexM0\ARM_GCC_541\Debug\OS3.a(CyLib.o)
                0x0000c1b0                CyDelay
 .text.CyDelayUs
                0x0000c1fc       0x28 .\CortexM0\ARM_GCC_541\Debug\OS3.a(CyLib.o)
                0x0000c1fc                CyDelayUs
 .text.CyDelayFreq
                0x0000c224       0x84 .\CortexM0\ARM_GCC_541\Debug\OS3.a(CyLib.o)
                0x0000c224                CyDelayFreq
 .text.CySysTickStart
                0x0000c2a8       0x24 .\CortexM0\ARM_GCC_541\Debug\OS3.a(CyLib.o)
                0x0000c2a8                CySysTickStart
 .text.CySysTickInit
                0x0000c2cc       0x5c .\CortexM0\ARM_GCC_541\Debug\OS3.a(CyLib.o)
                0x0000c2cc                CySysTickInit
 .text.CySysTickEnable
                0x0000c328       0x20 .\CortexM0\ARM_GCC_541\Debug\OS3.a(CyLib.o)
                0x0000c328                CySysTickEnable
 .text.CySysTickStop
                0x0000c348       0x1c .\CortexM0\ARM_GCC_541\Debug\OS3.a(CyLib.o)
                0x0000c348                CySysTickStop
 .text.CySysTickEnableInterrupt
                0x0000c364       0x1c .\CortexM0\ARM_GCC_541\Debug\OS3.a(CyLib.o)
                0x0000c364                CySysTickEnableInterrupt
 .text.CySysTickDisableInterrupt
                0x0000c380       0x1c .\CortexM0\ARM_GCC_541\Debug\OS3.a(CyLib.o)
                0x0000c380                CySysTickDisableInterrupt
 .text.CySysTickSetReload
                0x0000c39c       0x20 .\CortexM0\ARM_GCC_541\Debug\OS3.a(CyLib.o)
                0x0000c39c                CySysTickSetReload
 .text.CySysTickGetReload
                0x0000c3bc       0x18 .\CortexM0\ARM_GCC_541\Debug\OS3.a(CyLib.o)
                0x0000c3bc                CySysTickGetReload
 .text.CySysTickGetValue
                0x0000c3d4       0x18 .\CortexM0\ARM_GCC_541\Debug\OS3.a(CyLib.o)
                0x0000c3d4                CySysTickGetValue
 .text.CySysTickGetCountFlag
                0x0000c3ec       0x18 .\CortexM0\ARM_GCC_541\Debug\OS3.a(CyLib.o)
                0x0000c3ec                CySysTickGetCountFlag
 .text.CySysTickClear
                0x0000c404       0x14 .\CortexM0\ARM_GCC_541\Debug\OS3.a(CyLib.o)
                0x0000c404                CySysTickClear
 .text.CySysTickSetCallback
                0x0000c418       0x2c .\CortexM0\ARM_GCC_541\Debug\OS3.a(CyLib.o)
                0x0000c418                CySysTickSetCallback
 .text.CySysTickGetCallback
                0x0000c444       0x1c .\CortexM0\ARM_GCC_541\Debug\OS3.a(CyLib.o)
                0x0000c444                CySysTickGetCallback
 .text.CySysTickServiceCallbacks
                0x0000c460       0x44 .\CortexM0\ARM_GCC_541\Debug\OS3.a(CyLib.o)
 .text.CyGetUniqueId
                0x0000c4a4       0xc0 .\CortexM0\ARM_GCC_541\Debug\OS3.a(CyLib.o)
                0x0000c4a4                CyGetUniqueId
 .text          0x0000c564        0x0 .\CortexM0\ARM_GCC_541\Debug\OS3.a(CyLFClk.o)
 .text.CySysClkIloStart
                0x0000c564       0x1c .\CortexM0\ARM_GCC_541\Debug\OS3.a(CyLFClk.o)
                0x0000c564                CySysClkIloStart
 .text.CySysClkIloStop
                0x0000c580       0x4c .\CortexM0\ARM_GCC_541\Debug\OS3.a(CyLFClk.o)
                0x0000c580                CySysClkIloStop
 .text.CySysClkIloStartMeasurement
                0x0000c5cc       0x40 .\CortexM0\ARM_GCC_541\Debug\OS3.a(CyLFClk.o)
                0x0000c5cc                CySysClkIloStartMeasurement
 .text.CySysClkIloStopMeasurement
                0x0000c60c       0x20 .\CortexM0\ARM_GCC_541\Debug\OS3.a(CyLFClk.o)
                0x0000c60c                CySysClkIloStopMeasurement
 .text.CySysClkIloCompensate
                0x0000c62c      0x158 .\CortexM0\ARM_GCC_541\Debug\OS3.a(CyLFClk.o)
                0x0000c62c                CySysClkIloCompensate
 .text.CySysClkIloEnabled
                0x0000c784       0x1c .\CortexM0\ARM_GCC_541\Debug\OS3.a(CyLFClk.o)
 .text.CySysWdtLock
                0x0000c7a0       0x34 .\CortexM0\ARM_GCC_541\Debug\OS3.a(CyLFClk.o)
                0x0000c7a0                CySysWdtLock
 .text.CySysWdtLocked
                0x0000c7d4       0x20 .\CortexM0\ARM_GCC_541\Debug\OS3.a(CyLFClk.o)
 .text.CySysWdtUnlock
                0x0000c7f4       0x50 .\CortexM0\ARM_GCC_541\Debug\OS3.a(CyLFClk.o)
                0x0000c7f4                CySysWdtUnlock
 .text.CySysWdtGetEnabledStatus
                0x0000c844       0x34 .\CortexM0\ARM_GCC_541\Debug\OS3.a(CyLFClk.o)
                0x0000c844                CySysWdtGetEnabledStatus
 .text.CySysWdtSetMode
                0x0000c878       0x5c .\CortexM0\ARM_GCC_541\Debug\OS3.a(CyLFClk.o)
                0x0000c878                CySysWdtSetMode
 .text.CySysWdtGetMode
                0x0000c8d4       0x24 .\CortexM0\ARM_GCC_541\Debug\OS3.a(CyLFClk.o)
                0x0000c8d4                CySysWdtGetMode
 .text.CySysWdtSetClearOnMatch
                0x0000c8f8       0x6c .\CortexM0\ARM_GCC_541\Debug\OS3.a(CyLFClk.o)
                0x0000c8f8                CySysWdtSetClearOnMatch
 .text.CySysWdtGetClearOnMatch
                0x0000c964       0x44 .\CortexM0\ARM_GCC_541\Debug\OS3.a(CyLFClk.o)
                0x0000c964                CySysWdtGetClearOnMatch
 .text.CySysWdtEnable
                0x0000c9a8       0x64 .\CortexM0\ARM_GCC_541\Debug\OS3.a(CyLFClk.o)
                0x0000c9a8                CySysWdtEnable
 .text.CySysWdtDisable
                0x0000ca0c       0x6c .\CortexM0\ARM_GCC_541\Debug\OS3.a(CyLFClk.o)
                0x0000ca0c                CySysWdtDisable
 .text.CySysWdtSetCascade
                0x0000ca78       0x58 .\CortexM0\ARM_GCC_541\Debug\OS3.a(CyLFClk.o)
                0x0000ca78                CySysWdtSetCascade
 .text.CySysWdtGetCascade
                0x0000cad0       0x1c .\CortexM0\ARM_GCC_541\Debug\OS3.a(CyLFClk.o)
                0x0000cad0                CySysWdtGetCascade
 .text.CySysWdtSetMatch
                0x0000caec       0x6c .\CortexM0\ARM_GCC_541\Debug\OS3.a(CyLFClk.o)
                0x0000caec                CySysWdtSetMatch
 .text.CySysWdtSetToggleBit
                0x0000cb58       0x48 .\CortexM0\ARM_GCC_541\Debug\OS3.a(CyLFClk.o)
                0x0000cb58                CySysWdtSetToggleBit
 .text.CySysWdtGetToggleBit
                0x0000cba0       0x18 .\CortexM0\ARM_GCC_541\Debug\OS3.a(CyLFClk.o)
                0x0000cba0                CySysWdtGetToggleBit
 .text.CySysWdtGetMatch
                0x0000cbb8       0x40 .\CortexM0\ARM_GCC_541\Debug\OS3.a(CyLFClk.o)
                0x0000cbb8                CySysWdtGetMatch
 .text.CySysWdtGetCount
                0x0000cbf8       0x54 .\CortexM0\ARM_GCC_541\Debug\OS3.a(CyLFClk.o)
                0x0000cbf8                CySysWdtGetCount
 .text.CySysWdtGetInterruptSource
                0x0000cc4c       0x1c .\CortexM0\ARM_GCC_541\Debug\OS3.a(CyLFClk.o)
                0x0000cc4c                CySysWdtGetInterruptSource
 .text.CySysWdtClearInterrupt
                0x0000cc68       0x70 .\CortexM0\ARM_GCC_541\Debug\OS3.a(CyLFClk.o)
                0x0000cc68                CySysWdtClearInterrupt
 .text.CySysWdtResetCounters
                0x0000ccd8       0x34 .\CortexM0\ARM_GCC_541\Debug\OS3.a(CyLFClk.o)
                0x0000ccd8                CySysWdtResetCounters
 .text.CySysWdtSetInterruptCallback
                0x0000cd0c       0x40 .\CortexM0\ARM_GCC_541\Debug\OS3.a(CyLFClk.o)
                0x0000cd0c                CySysWdtSetInterruptCallback
 .text.CySysWdtGetInterruptCallback
                0x0000cd4c       0x34 .\CortexM0\ARM_GCC_541\Debug\OS3.a(CyLFClk.o)
                0x0000cd4c                CySysWdtGetInterruptCallback
 .text.CySysWdtEnableCounterIsr
                0x0000cd80       0x50 .\CortexM0\ARM_GCC_541\Debug\OS3.a(CyLFClk.o)
                0x0000cd80                CySysWdtEnableCounterIsr
 .text.CySysWdtDisableCounterIsr
                0x0000cdd0       0x3c .\CortexM0\ARM_GCC_541\Debug\OS3.a(CyLFClk.o)
                0x0000cdd0                CySysWdtDisableCounterIsr
 .text.CySysWdtIsr
                0x0000ce0c       0xec .\CortexM0\ARM_GCC_541\Debug\OS3.a(CyLFClk.o)
                0x0000ce0c                CySysWdtIsr
 .text.CySysWatchdogFeed
                0x0000cef8       0x8c .\CortexM0\ARM_GCC_541\Debug\OS3.a(CyLFClk.o)
                0x0000cef8                CySysWatchdogFeed
 .text.CySysClkLfclkPosedgeCatch
                0x0000cf84       0x98 .\CortexM0\ARM_GCC_541\Debug\OS3.a(CyLFClk.o)
 .text.CySysClkLfclkPosedgeRestore
                0x0000d01c       0x3c .\CortexM0\ARM_GCC_541\Debug\OS3.a(CyLFClk.o)
 .text.CySysTimerDelay
                0x0000d058       0x68 .\CortexM0\ARM_GCC_541\Debug\OS3.a(CyLFClk.o)
                0x0000d058                CySysTimerDelay
 .text.CySysTimerDelayUntilMatch
                0x0000d0c0       0xb0 .\CortexM0\ARM_GCC_541\Debug\OS3.a(CyLFClk.o)
                0x0000d0c0                CySysTimerDelayUntilMatch
 .text          0x0000d170       0x24 .\CortexM0\ARM_GCC_541\Debug\OS3.a(CyBootAsmGnu.o)
                0x0000d170                CyDelayCycles
                0x0000d184                CyEnterCriticalSection
                0x0000d18c                CyExitCriticalSection
 .text          0x0000d194        0x0 .\CortexM0\ARM_GCC_541\Debug\OS3.a(I2C_I2C_INT.o)
 .text.I2C_I2C_ISR
                0x0000d194      0x450 .\CortexM0\ARM_GCC_541\Debug\OS3.a(I2C_I2C_INT.o)
                0x0000d194                I2C_I2C_ISR
 .text          0x0000d5e4      0x114 c:/program files (x86)/cypress/psoc creator/4.2/psoc creator/import/gnu/arm/5.4.1/bin/../lib/gcc/arm-none-eabi/5.4.1/armv6-m\libgcc.a(_udivsi3.o)
                0x0000d5e4                __aeabi_uidiv
                0x0000d5e4                __udivsi3
                0x0000d6f0                __aeabi_uidivmod
 .text          0x0000d6f8      0x1d4 c:/program files (x86)/cypress/psoc creator/4.2/psoc creator/import/gnu/arm/5.4.1/bin/../lib/gcc/arm-none-eabi/5.4.1/armv6-m\libgcc.a(_divsi3.o)
                0x0000d6f8                __divsi3
                0x0000d6f8                __aeabi_idiv
                0x0000d8c4                __aeabi_idivmod
 .text          0x0000d8cc        0x4 c:/program files (x86)/cypress/psoc creator/4.2/psoc creator/import/gnu/arm/5.4.1/bin/../lib/gcc/arm-none-eabi/5.4.1/armv6-m\libgcc.a(_dvmd_tls.o)
                0x0000d8cc                __aeabi_idiv0
                0x0000d8cc                __aeabi_ldiv0
 .text          0x0000d8d0       0x48 c:/program files (x86)/cypress/psoc creator/4.2/psoc creator/import/gnu/arm/5.4.1/bin/../lib/gcc/arm-none-eabi/5.4.1/armv6-m\libgcc.a(_aeabi_ldivmod.o)
                0x0000d8d0                __aeabi_ldivmod
 .text          0x0000d918       0x40 c:/program files (x86)/cypress/psoc creator/4.2/psoc creator/import/gnu/arm/5.4.1/bin/../lib/gcc/arm-none-eabi/5.4.1/armv6-m\libgcc.a(_aeabi_uldivmod.o)
                0x0000d918                __aeabi_uldivmod
 .text          0x0000d958       0x58 c:/program files (x86)/cypress/psoc creator/4.2/psoc creator/import/gnu/arm/5.4.1/bin/../lib/gcc/arm-none-eabi/5.4.1/armv6-m\libgcc.a(_muldi3.o)
                0x0000d958                __muldi3
                0x0000d958                __aeabi_lmul
 .text          0x0000d9b0      0x180 c:/program files (x86)/cypress/psoc creator/4.2/psoc creator/import/gnu/arm/5.4.1/bin/../lib/gcc/arm-none-eabi/5.4.1/armv6-m\libgcc.a(_udivmoddi4.o)
                0x0000d9b0                __udivmoddi4
 .text          0x0000db30       0x38 c:/program files (x86)/cypress/psoc creator/4.2/psoc creator/import/gnu/arm/5.4.1/bin/../lib/gcc/arm-none-eabi/5.4.1/armv6-m\libgcc.a(bpabi.o)
                0x0000db30                __gnu_ldivmod_helper
 .text          0x0000db68      0x234 c:/program files (x86)/cypress/psoc creator/4.2/psoc creator/import/gnu/arm/5.4.1/bin/../lib/gcc/arm-none-eabi/5.4.1/armv6-m\libgcc.a(divsf3.o)
                0x0000db68                __aeabi_fdiv
 .text          0x0000dd9c      0x228 c:/program files (x86)/cypress/psoc creator/4.2/psoc creator/import/gnu/arm/5.4.1/bin/../lib/gcc/arm-none-eabi/5.4.1/armv6-m\libgcc.a(mulsf3.o)
                0x0000dd9c                __aeabi_fmul
 .text          0x0000dfc4       0x90 c:/program files (x86)/cypress/psoc creator/4.2/psoc creator/import/gnu/arm/5.4.1/bin/../lib/gcc/arm-none-eabi/5.4.1/armv6-m\libgcc.a(floatsisf.o)
                0x0000dfc4                __aeabi_i2f
 .text          0x0000e054       0x3c c:/program files (x86)/cypress/psoc creator/4.2/psoc creator/import/gnu/arm/5.4.1/bin/../lib/gcc/arm-none-eabi/5.4.1/armv6-m\libgcc.a(_clzsi2.o)
                0x0000e054                __clzsi2
 .text          0x0000e090       0x18 c:/program files (x86)/cypress/psoc creator/4.2/psoc creator/import/gnu/arm/5.4.1/bin/../lib/gcc/arm-none-eabi/5.4.1/armv6-m\libgcc.a(_clzdi2.o)
                0x0000e090                __clzdi2
 .text          0x0000e0a8      0x1bc c:/program files (x86)/cypress/psoc creator/4.2/psoc creator/import/gnu/arm/5.4.1/bin/../lib/gcc/arm-none-eabi/5.4.1/armv6-m\libgcc.a(_divdi3.o)
                0x0000e0a8                __divdi3
 .text          0x0000e264        0x0 c:/program files (x86)/cypress/psoc creator/4.2/psoc creator/import/gnu/arm/5.4.1/bin/../lib/gcc/arm-none-eabi/5.4.1/../../../../arm-none-eabi/lib/armv6-m\libg_nano.a(lib_a-errno.o)
 .text.__errno  0x0000e264        0xc c:/program files (x86)/cypress/psoc creator/4.2/psoc creator/import/gnu/arm/5.4.1/bin/../lib/gcc/arm-none-eabi/5.4.1/../../../../arm-none-eabi/lib/armv6-m\libg_nano.a(lib_a-errno.o)
                0x0000e264                __errno
 .text          0x0000e270        0x0 c:/program files (x86)/cypress/psoc creator/4.2/psoc creator/import/gnu/arm/5.4.1/bin/../lib/gcc/arm-none-eabi/5.4.1/../../../../arm-none-eabi/lib/armv6-m\libg_nano.a(lib_a-exit.o)
 .text.exit     0x0000e270       0x2c c:/program files (x86)/cypress/psoc creator/4.2/psoc creator/import/gnu/arm/5.4.1/bin/../lib/gcc/arm-none-eabi/5.4.1/../../../../arm-none-eabi/lib/armv6-m\libg_nano.a(lib_a-exit.o)
                0x0000e270                exit
 .text          0x0000e29c        0x0 c:/program files (x86)/cypress/psoc creator/4.2/psoc creator/import/gnu/arm/5.4.1/bin/../lib/gcc/arm-none-eabi/5.4.1/../../../../arm-none-eabi/lib/armv6-m\libg_nano.a(lib_a-impure.o)
 .text          0x0000e29c        0x0 c:/program files (x86)/cypress/psoc creator/4.2/psoc creator/import/gnu/arm/5.4.1/bin/../lib/gcc/arm-none-eabi/5.4.1/../../../../arm-none-eabi/lib/armv6-m\libg_nano.a(lib_a-init.o)
 .text.__libc_init_array
                0x0000e29c       0x4c c:/program files (x86)/cypress/psoc creator/4.2/psoc creator/import/gnu/arm/5.4.1/bin/../lib/gcc/arm-none-eabi/5.4.1/../../../../arm-none-eabi/lib/armv6-m\libg_nano.a(lib_a-init.o)
                0x0000e29c                __libc_init_array
 .text          0x0000e2e8        0x0 c:/program files (x86)/cypress/psoc creator/4.2/psoc creator/import/gnu/arm/5.4.1/bin/../lib/gcc/arm-none-eabi/5.4.1/../../../../arm-none-eabi/lib/armv6-m\libg_nano.a(lib_a-memcpy-stub.o)
 .text.memcpy   0x0000e2e8       0x12 c:/program files (x86)/cypress/psoc creator/4.2/psoc creator/import/gnu/arm/5.4.1/bin/../lib/gcc/arm-none-eabi/5.4.1/../../../../arm-none-eabi/lib/armv6-m\libg_nano.a(lib_a-memcpy-stub.o)
                0x0000e2e8                memcpy
 .text          0x0000e2fa        0x0 c:/program files (x86)/cypress/psoc creator/4.2/psoc creator/import/gnu/arm/5.4.1/bin/../lib/gcc/arm-none-eabi/5.4.1/../../../../arm-none-eabi/lib/armv6-m\libg_nano.a(lib_a-memset.o)
 .text.memset   0x0000e2fa       0x10 c:/program files (x86)/cypress/psoc creator/4.2/psoc creator/import/gnu/arm/5.4.1/bin/../lib/gcc/arm-none-eabi/5.4.1/../../../../arm-none-eabi/lib/armv6-m\libg_nano.a(lib_a-memset.o)
                0x0000e2fa                memset
 .text          0x0000e30a        0x0 c:/program files (x86)/cypress/psoc creator/4.2/psoc creator/import/gnu/arm/5.4.1/bin/../lib/gcc/arm-none-eabi/5.4.1/armv6-m/crtend.o
 .text          0x0000e30a        0x0 c:/program files (x86)/cypress/psoc creator/4.2/psoc creator/import/gnu/arm/5.4.1/bin/../lib/gcc/arm-none-eabi/5.4.1/armv6-m/crtn.o
 *(.plt)
 *(.gnu.warning)
 *(.glue_7t)
 .glue_7t       0x0000e30a        0x0 linker stubs
 *(.glue_7)
 .glue_7        0x0000e30a        0x0 linker stubs
 *(.vfp11_veneer)
 .vfp11_veneer  0x0000e30a        0x0 linker stubs
 *(.bootloader)
 *(.ARM.extab* .gnu.linkonce.armextab.*)
 .ARM.extab     0x0000e30a        0x0 c:/program files (x86)/cypress/psoc creator/4.2/psoc creator/import/gnu/arm/5.4.1/bin/../lib/gcc/arm-none-eabi/5.4.1/../../../../arm-none-eabi/lib/armv6-m/crt0.o
 .ARM.extab     0x0000e30a        0x0 c:/program files (x86)/cypress/psoc creator/4.2/psoc creator/import/gnu/arm/5.4.1/bin/../lib/gcc/arm-none-eabi/5.4.1/armv6-m\libgcc.a(_udivmoddi4.o)
 .ARM.extab     0x0000e30a        0x0 c:/program files (x86)/cypress/psoc creator/4.2/psoc creator/import/gnu/arm/5.4.1/bin/../lib/gcc/arm-none-eabi/5.4.1/armv6-m\libgcc.a(_divdi3.o)
 *(.gcc_except_table)

.v4_bx          0x0000e30c        0x0
 .v4_bx         0x0000e30c        0x0 linker stubs

.iplt           0x0000e30c        0x0
 .iplt          0x0000e30c        0x0 c:/program files (x86)/cypress/psoc creator/4.2/psoc creator/import/gnu/arm/5.4.1/bin/../lib/gcc/arm-none-eabi/5.4.1/armv6-m/crtbegin.o

.eh_frame_hdr
 *(.eh_frame_hdr)

.eh_frame       0x0000e30c        0x4
 *(.eh_frame)
 .eh_frame      0x0000e30c        0x0 c:/program files (x86)/cypress/psoc creator/4.2/psoc creator/import/gnu/arm/5.4.1/bin/../lib/gcc/arm-none-eabi/5.4.1/armv6-m/crtbegin.o
 .eh_frame      0x0000e30c        0x4 c:/program files (x86)/cypress/psoc creator/4.2/psoc creator/import/gnu/arm/5.4.1/bin/../lib/gcc/arm-none-eabi/5.4.1/armv6-m/crtend.o
                [!provide]                PROVIDE (__exidx_start, .)

.ARM.exidx      0x0000e310        0x8
 *(.ARM.exidx* .gnu.linkonce.armexidx.*)
 .ARM.exidx     0x0000e310        0x8 c:/program files (x86)/cypress/psoc creator/4.2/psoc creator/import/gnu/arm/5.4.1/bin/../lib/gcc/arm-none-eabi/5.4.1/../../../../arm-none-eabi/lib/armv6-m/crt0.o
 .ARM.exidx     0x0000e318        0x0 c:/program files (x86)/cypress/psoc creator/4.2/psoc creator/import/gnu/arm/5.4.1/bin/../lib/gcc/arm-none-eabi/5.4.1/armv6-m\libgcc.a(_udivmoddi4.o)
                                  0x8 (size before relaxing)
 .ARM.exidx     0x0000e318        0x0 c:/program files (x86)/cypress/psoc creator/4.2/psoc creator/import/gnu/arm/5.4.1/bin/../lib/gcc/arm-none-eabi/5.4.1/armv6-m\libgcc.a(_divdi3.o)
                                  0x8 (size before relaxing)
                0x0000e318                __exidx_end = .

.rodata         0x0000e318      0x9c0
 *(.rodata .rodata.* .gnu.linkonce.r.*)
 .rodata        0x0000e318       0x22 .\CortexM0\ARM_GCC_541\Debug\app.o
 *fill*         0x0000e33a        0x2 
 .rodata        0x0000e33c      0x140 .\CortexM0\ARM_GCC_541\Debug\cpu_c.o
 .rodata        0x0000e47c      0x100 .\CortexM0\ARM_GCC_541\Debug\cpu_core.o
 .rodata        0x0000e57c       0xa4 .\CortexM0\ARM_GCC_541\Debug\os_cfg_app.o
                0x0000e57c                OSCfg_IdleTaskStkBasePtr
                0x0000e580                OSCfg_IdleTaskStkLimit
                0x0000e584                OSCfg_IdleTaskStkSize
                0x0000e588                OSCfg_IdleTaskStkSizeRAM
                0x0000e58c                OSCfg_IntQBasePtr
                0x0000e590                OSCfg_IntQSize
                0x0000e594                OSCfg_IntQSizeRAM
                0x0000e598                OSCfg_IntQTaskStkBasePtr
                0x0000e59c                OSCfg_IntQTaskStkLimit
                0x0000e5a0                OSCfg_IntQTaskStkSize
                0x0000e5a4                OSCfg_IntQTaskStkSizeRAM
                0x0000e5a8                OSCfg_ISRStkBasePtr
                0x0000e5ac                OSCfg_ISRStkSize
                0x0000e5b0                OSCfg_ISRStkSizeRAM
                0x0000e5b4                OSCfg_MsgPoolSize
                0x0000e5b8                OSCfg_MsgPoolSizeRAM
                0x0000e5bc                OSCfg_MsgPoolBasePtr
                0x0000e5c0                OSCfg_StatTaskPrio
                0x0000e5c4                OSCfg_StatTaskRate_Hz
                0x0000e5c8                OSCfg_StatTaskStkBasePtr
                0x0000e5cc                OSCfg_StatTaskStkLimit
                0x0000e5d0                OSCfg_StatTaskStkSize
                0x0000e5d4                OSCfg_StatTaskStkSizeRAM
                0x0000e5d8                OSCfg_StkSizeMin
                0x0000e5dc                OSCfg_TickRate_Hz
                0x0000e5e0                OSCfg_TickTaskPrio
                0x0000e5e4                OSCfg_TickTaskStkBasePtr
                0x0000e5e8                OSCfg_TickTaskStkLimit
                0x0000e5ec                OSCfg_TickTaskStkSize
                0x0000e5f0                OSCfg_TickTaskStkSizeRAM
                0x0000e5f4                OSCfg_TickWheelSize
                0x0000e5f8                OSCfg_TickWheelSizeRAM
                0x0000e5fc                OSCfg_TmrTaskPrio
                0x0000e600                OSCfg_TmrTaskRate_Hz
                0x0000e604                OSCfg_TmrTaskStkBasePtr
                0x0000e608                OSCfg_TmrTaskStkLimit
                0x0000e60c                OSCfg_TmrTaskStkSize
                0x0000e610                OSCfg_TmrTaskStkSizeRAM
                0x0000e614                OSCfg_TmrWheelSize
                0x0000e618                OSCfg_TmrWheelSizeRAM
                0x0000e61c                OSCfg_DataSizeRAM
 .rodata        0x0000e620       0x8c .\CortexM0\ARM_GCC_541\Debug\os_core.o
 .rodata        0x0000e6ac      0x16c .\CortexM0\ARM_GCC_541\Debug\os_dbg.o
                0x0000e6ac                OSDbg_DbgEn
                0x0000e6ad                OSDbg_ArgChkEn
                0x0000e6ae                OSDbg_AppHooksEn
                0x0000e6b0                OSDbg_EndiannessTest
                0x0000e6b4                OSDbg_CalledFromISRChkEn
                0x0000e6b5                OSDbg_FlagEn
                0x0000e6b8                OSDbg_FlagGrp
                0x0000e6e0                OSDbg_FlagDelEn
                0x0000e6e1                OSDbg_FlagModeClrEn
                0x0000e6e2                OSDbg_FlagPendAbortEn
                0x0000e6e4                OSDbg_FlagGrpSize
                0x0000e6e6                OSDbg_FlagWidth
                0x0000e6e8                OSDbg_IntQ
                0x0000e6ea                OSDbg_ISRPostDeferredEn
                0x0000e6ec                OSDbg_Mem
                0x0000e70c                OSDbg_MemEn
                0x0000e70e                OSDbg_MemSize
                0x0000e710                OSDbg_MsgEn
                0x0000e712                OSDbg_MsgSize
                0x0000e714                OSDbg_MsgPoolSize
                0x0000e716                OSDbg_MsgQSize
                0x0000e718                OSDbg_Mutex
                0x0000e744                OSDbg_MutexEn
                0x0000e745                OSDbg_MutexDelEn
                0x0000e746                OSDbg_MutexPendAbortEn
                0x0000e748                OSDbg_MutexSize
                0x0000e74a                OSDbg_ObjTypeChkEn
                0x0000e74b                OSDbg_PendMultiEn
                0x0000e74c                OSDbg_PendDataSize
                0x0000e74e                OSDbg_PendListSize
                0x0000e750                OSDbg_PendObjSize
                0x0000e752                OSDbg_PrioMax
                0x0000e754                OSDbg_PrioTblSize
                0x0000e756                OSDbg_PtrSize
                0x0000e758                OSDbg_Q
                0x0000e788                OSDbg_QEn
                0x0000e789                OSDbg_QDelEn
                0x0000e78a                OSDbg_QFlushEn
                0x0000e78b                OSDbg_QPendAbortEn
                0x0000e78c                OSDbg_QSize
                0x0000e78e                OSDbg_SchedRoundRobinEn
                0x0000e790                OSDbg_Sem
                0x0000e7b8                OSDbg_SemEn
                0x0000e7b9                OSDbg_SemDelEn
                0x0000e7ba                OSDbg_SemPendAbortEn
                0x0000e7bb                OSDbg_SemSetEn
                0x0000e7bc                OSDbg_SemSize
                0x0000e7be                OSDbg_RdyList
                0x0000e7c0                OSDbg_RdyListSize
                0x0000e7c4                OSDbg_StkWidth
                0x0000e7c5                OSDbg_StatTaskEn
                0x0000e7c6                OSDbg_StatTaskStkChkEn
                0x0000e7c7                OSDbg_TaskChangePrioEn
                0x0000e7c8                OSDbg_TaskDelEn
                0x0000e7c9                OSDbg_TaskQEn
                0x0000e7ca                OSDbg_TaskQPendAbortEn
                0x0000e7cb                OSDbg_TaskProfileEn
                0x0000e7cc                OSDbg_TaskRegTblSize
                0x0000e7ce                OSDbg_TaskSemPendAbortEn
                0x0000e7cf                OSDbg_TaskSuspendEn
                0x0000e7d0                OSDbg_TCBSize
                0x0000e7d2                OSDbg_TickSpokeSize
                0x0000e7d4                OSDbg_TimeDlyHMSMEn
                0x0000e7d5                OSDbg_TimeDlyResumeEn
                0x0000e7d6                OSDbg_TLS_TblSize
                0x0000e7d8                OSDbg_Tmr
                0x0000e80c                OSDbg_TmrEn
                0x0000e80d                OSDbg_TmrDelEn
                0x0000e80e                OSDbg_TmrSize
                0x0000e810                OSDbg_TmrSpokeSize
                0x0000e812                OSDbg_VersionNbr
                0x0000e814                OSDbg_DataSize
 .rodata        0x0000e818        0xa .\CortexM0\ARM_GCC_541\Debug\os_sem.o
 *fill*         0x0000e822        0x2 
 .rodata        0x0000e824       0x14 .\CortexM0\ARM_GCC_541\Debug\os_stat.o
 .rodata        0x0000e838       0xac .\CortexM0\ARM_GCC_541\Debug\os_task.o
 .rodata        0x0000e8e4       0x34 .\CortexM0\ARM_GCC_541\Debug\os_tick.o
 .rodata        0x0000e918       0x1d .\CortexM0\ARM_GCC_541\Debug\os_tmr.o
 *fill*         0x0000e935        0x3 
 .rodata        0x0000e938       0x94 .\CortexM0\ARM_GCC_541\Debug\lib_str.o
 .rodata        0x0000e9cc      0x1ca .\CortexM0\ARM_GCC_541\Debug\cyfitter_cfg.o
 *fill*         0x0000eb96        0x2 
 .rodata        0x0000eb98        0x4 .\CortexM0\ARM_GCC_541\Debug\OS3.a(ADC.o)
 .rodata        0x0000eb9c       0x2e .\CortexM0\ARM_GCC_541\Debug\OS3.a(CyLib.o)
                0x0000eb9c                cyImoFreqMhz2Reg
 *fill*         0x0000ebca        0x2 
 .rodata        0x0000ebcc        0xc .\CortexM0\ARM_GCC_541\Debug\OS3.a(CyLFClk.o)
 .rodata        0x0000ebd8       0x80 c:/program files (x86)/cypress/psoc creator/4.2/psoc creator/import/gnu/arm/5.4.1/bin/../lib/gcc/arm-none-eabi/5.4.1/armv6-m\libgcc.a(divsf3.o)
 .rodata        0x0000ec58       0x40 c:/program files (x86)/cypress/psoc creator/4.2/psoc creator/import/gnu/arm/5.4.1/bin/../lib/gcc/arm-none-eabi/5.4.1/armv6-m\libgcc.a(mulsf3.o)
 .rodata.str1.1
                0x0000ec98        0x2 c:/program files (x86)/cypress/psoc creator/4.2/psoc creator/import/gnu/arm/5.4.1/bin/../lib/gcc/arm-none-eabi/5.4.1/../../../../arm-none-eabi/lib/armv6-m\libg_nano.a(lib_a-impure.o)
 *fill*         0x0000ec9a        0x2 
 .rodata._global_impure_ptr
                0x0000ec9c        0x4 c:/program files (x86)/cypress/psoc creator/4.2/psoc creator/import/gnu/arm/5.4.1/bin/../lib/gcc/arm-none-eabi/5.4.1/../../../../arm-none-eabi/lib/armv6-m\libg_nano.a(lib_a-impure.o)
                0x0000ec9c                _global_impure_ptr
                0x0000eca0                . = ALIGN (0x4)
 *(.init)
 .init          0x0000eca0        0x4 c:/program files (x86)/cypress/psoc creator/4.2/psoc creator/import/gnu/arm/5.4.1/bin/../lib/gcc/arm-none-eabi/5.4.1/armv6-m/crti.o
                0x0000eca0                _init
 .init          0x0000eca4        0x8 c:/program files (x86)/cypress/psoc creator/4.2/psoc creator/import/gnu/arm/5.4.1/bin/../lib/gcc/arm-none-eabi/5.4.1/armv6-m/crtn.o
                0x0000ecac                . = ALIGN (0x4)
                0x0000ecac                __preinit_array_start = .
 *(.preinit_array)
                0x0000ecac                __preinit_array_end = .
                0x0000ecac                . = ALIGN (0x4)
                0x0000ecac                __init_array_start = .
 *(SORT(.init_array.*))
 *(.init_array)
 .init_array    0x0000ecac        0x4 c:/program files (x86)/cypress/psoc creator/4.2/psoc creator/import/gnu/arm/5.4.1/bin/../lib/gcc/arm-none-eabi/5.4.1/armv6-m/crtbegin.o
 .init_array    0x0000ecb0        0x4 .\CortexM0\ARM_GCC_541\Debug\Cm0Start.o
                0x0000ecb4                __init_array_end = .
                0x0000ecb4                . = ALIGN (0x4)
 *(.fini)
 .fini          0x0000ecb4        0x4 c:/program files (x86)/cypress/psoc creator/4.2/psoc creator/import/gnu/arm/5.4.1/bin/../lib/gcc/arm-none-eabi/5.4.1/armv6-m/crti.o
                0x0000ecb4                _fini
 .fini          0x0000ecb8        0x8 c:/program files (x86)/cypress/psoc creator/4.2/psoc creator/import/gnu/arm/5.4.1/bin/../lib/gcc/arm-none-eabi/5.4.1/armv6-m/crtn.o
                0x0000ecc0                . = ALIGN (0x4)
                0x0000ecc0                __fini_array_start = .
 *(.fini_array)
 .fini_array    0x0000ecc0        0x4 c:/program files (x86)/cypress/psoc creator/4.2/psoc creator/import/gnu/arm/5.4.1/bin/../lib/gcc/arm-none-eabi/5.4.1/armv6-m/crtbegin.o
 *(SORT(.fini_array.*))
                0x0000ecc4                __fini_array_end = .
                0x0000ecc4                . = ALIGN (0x4)
 *crtbegin.o(.ctors)
 *(EXCLUDE_FILE(*crtend.o) .ctors)
 *(SORT(.ctors.*))
 *crtend.o(.ctors)
                0x0000ecc4                . = ALIGN (0x4)
 *crtbegin.o(.dtors)
 *(EXCLUDE_FILE(*crtend.o) .dtors)
 *(SORT(.dtors.*))
 *crtend.o(.dtors)
                0x0000ecc4                . = ALIGN (0x4)
                0x0000ecc4                __cy_regions = .
                0x0000ecc4        0x4 LONG 0xecd8 __cy_region_init_ram
                0x0000ecc8        0x4 LONG 0x200000c8 __cy_region_start_data
                0x0000eccc        0x4 LONG 0x90 __cy_region_init_size_ram
                0x0000ecd0        0x4 LONG 0x1968 __cy_region_zero_size_ram
                0x0000ecd4                __cy_regions_end = .
                0x0000ecd8                . = ALIGN (0x8)
 *fill*         0x0000ecd4        0x4 
                0x0000ecd8                _etext = .

.cy_checksum_exclude
                0x0000ecd8        0x0
 *(.cy_checksum_exclude)

.ramvectors     0x20000000       0xc0
                0x20000000                __cy_region_start_ram = .
 *(.ramvectors)
 .ramvectors    0x20000000       0xc0 .\CortexM0\ARM_GCC_541\Debug\Cm0Start.o
                0x20000000                CyRamVectors

.noinit         0x200000c0        0x4
 *(.noinit)
 .noinit        0x200000c0        0x4 .\CortexM0\ARM_GCC_541\Debug\Cm0Start.o

.data           0x200000c8       0x90 load address 0x0000ecd8
                0x200000c8                __cy_region_start_data = .
 *(.jcr)
 .jcr           0x200000c8        0x0 c:/program files (x86)/cypress/psoc creator/4.2/psoc creator/import/gnu/arm/5.4.1/bin/../lib/gcc/arm-none-eabi/5.4.1/armv6-m/crtbegin.o
 .jcr           0x200000c8        0x4 c:/program files (x86)/cypress/psoc creator/4.2/psoc creator/import/gnu/arm/5.4.1/bin/../lib/gcc/arm-none-eabi/5.4.1/armv6-m/crtend.o
 *(.got.plt)
 *(.got)
 *(.shdata)
 *(.data .data.* .gnu.linkonce.d.*)
 .data          0x200000cc        0x0 c:/program files (x86)/cypress/psoc creator/4.2/psoc creator/import/gnu/arm/5.4.1/bin/../lib/gcc/arm-none-eabi/5.4.1/armv6-m/crti.o
 .data          0x200000cc        0x4 c:/program files (x86)/cypress/psoc creator/4.2/psoc creator/import/gnu/arm/5.4.1/bin/../lib/gcc/arm-none-eabi/5.4.1/armv6-m/crtbegin.o
                0x200000cc                __dso_handle
 .data          0x200000d0        0x0 c:/program files (x86)/cypress/psoc creator/4.2/psoc creator/import/gnu/arm/5.4.1/bin/../lib/gcc/arm-none-eabi/5.4.1/../../../../arm-none-eabi/lib/armv6-m/crt0.o
 .data          0x200000d0        0x0 .\CortexM0\ARM_GCC_541\Debug\app.o
 .data          0x200000d0        0x0 .\CortexM0\ARM_GCC_541\Debug\os_app_hooks.o
 .data          0x200000d0        0x0 .\CortexM0\ARM_GCC_541\Debug\bsp_os.o
 .data          0x200000d0        0x0 .\CortexM0\ARM_GCC_541\Debug\cpu_bsp.o
 .data          0x200000d0        0x4 .\CortexM0\ARM_GCC_541\Debug\bsp.o
                0x200000d0                RGB_PrevVal
 .data          0x200000d4        0x0 .\CortexM0\ARM_GCC_541\Debug\cpu_c.o
 .data          0x200000d4        0x0 .\CortexM0\ARM_GCC_541\Debug\cpu_core.o
 .data          0x200000d4        0x0 .\CortexM0\ARM_GCC_541\Debug\os_cpu_c.o
 .data          0x200000d4        0x0 .\CortexM0\ARM_GCC_541\Debug\os_cfg_app.o
 .data          0x200000d4        0x0 .\CortexM0\ARM_GCC_541\Debug\os_core.o
 .data          0x200000d4        0x0 .\CortexM0\ARM_GCC_541\Debug\os_dbg.o
 .data          0x200000d4        0x0 .\CortexM0\ARM_GCC_541\Debug\os_flag.o
 .data          0x200000d4        0x0 .\CortexM0\ARM_GCC_541\Debug\os_int.o
 .data          0x200000d4        0x0 .\CortexM0\ARM_GCC_541\Debug\os_mem.o
 .data          0x200000d4        0x0 .\CortexM0\ARM_GCC_541\Debug\os_mon.o
 .data          0x200000d4        0x0 .\CortexM0\ARM_GCC_541\Debug\os_msg.o
 .data          0x200000d4        0x0 .\CortexM0\ARM_GCC_541\Debug\os_mutex.o
 .data          0x200000d4        0x0 .\CortexM0\ARM_GCC_541\Debug\os_pend_multi.o
 .data          0x200000d4        0x0 .\CortexM0\ARM_GCC_541\Debug\os_prio.o
 .data          0x200000d4        0x0 .\CortexM0\ARM_GCC_541\Debug\os_q.o
 .data          0x200000d4        0x0 .\CortexM0\ARM_GCC_541\Debug\os_sem.o
 .data          0x200000d4        0x0 .\CortexM0\ARM_GCC_541\Debug\os_stat.o
 .data          0x200000d4        0x0 .\CortexM0\ARM_GCC_541\Debug\os_task.o
 .data          0x200000d4        0x0 .\CortexM0\ARM_GCC_541\Debug\os_tick.o
 .data          0x200000d4        0x0 .\CortexM0\ARM_GCC_541\Debug\os_time.o
 .data          0x200000d4        0x0 .\CortexM0\ARM_GCC_541\Debug\os_tmr.o
 .data          0x200000d4        0x0 .\CortexM0\ARM_GCC_541\Debug\os_var.o
 .data          0x200000d4        0x0 .\CortexM0\ARM_GCC_541\Debug\lib_ascii.o
 .data          0x200000d4        0x0 .\CortexM0\ARM_GCC_541\Debug\lib_math.o
 .data          0x200000d4        0x0 .\CortexM0\ARM_GCC_541\Debug\lib_mem.o
 .data          0x200000d4        0x0 .\CortexM0\ARM_GCC_541\Debug\lib_str.o
 .data          0x200000d4        0x0 .\CortexM0\ARM_GCC_541\Debug\cyfitter_cfg.o
 .data          0x200000d4        0x0 .\CortexM0\ARM_GCC_541\Debug\cymetadata.o
 .data          0x200000d4        0x4 .\CortexM0\ARM_GCC_541\Debug\Cm0Start.o
 .data          0x200000d8        0x0 .\CortexM0\ARM_GCC_541\Debug\cpu_a.o
 .data          0x200000d8        0x0 .\CortexM0\ARM_GCC_541\Debug\os_cpu_a.o
 .data          0x200000d8        0x0 .\CortexM0\ARM_GCC_541\Debug\OS3.a(PWM_Blue.o)
 .data          0x200000d8        0x0 .\CortexM0\ARM_GCC_541\Debug\OS3.a(PWM_Green.o)
 .data          0x200000d8        0x0 .\CortexM0\ARM_GCC_541\Debug\OS3.a(PWM_Red.o)
 .data          0x200000d8        0x0 .\CortexM0\ARM_GCC_541\Debug\OS3.a(Accel_Pin.o)
 .data          0x200000d8        0x0 .\CortexM0\ARM_GCC_541\Debug\OS3.a(I2C.o)
 .data          0x200000d8        0x0 .\CortexM0\ARM_GCC_541\Debug\OS3.a(I2C_I2C.o)
 .data          0x200000d8        0x0 .\CortexM0\ARM_GCC_541\Debug\OS3.a(I2C_I2C_MASTER.o)
 .data          0x200000d8        0x0 .\CortexM0\ARM_GCC_541\Debug\OS3.a(SW2.o)
 .data          0x200000d8        0x0 .\CortexM0\ARM_GCC_541\Debug\OS3.a(Accel_ISR.o)
 .data          0x200000d8        0x0 .\CortexM0\ARM_GCC_541\Debug\OS3.a(Temp_Sensor.o)
 .data          0x200000d8        0x0 .\CortexM0\ARM_GCC_541\Debug\OS3.a(Temp_Sensor_INT.o)
 .data          0x200000d8        0x0 .\CortexM0\ARM_GCC_541\Debug\OS3.a(Opamp.o)
 .data          0x200000d8        0x0 .\CortexM0\ARM_GCC_541\Debug\OS3.a(ADC.o)
 .data          0x200000d8        0x0 .\CortexM0\ARM_GCC_541\Debug\OS3.a(ADC_INT.o)
 .data          0x200000d8        0x0 .\CortexM0\ARM_GCC_541\Debug\OS3.a(I2C_sda.o)
 .data          0x200000d8        0x0 .\CortexM0\ARM_GCC_541\Debug\OS3.a(I2C_scl.o)
 .data          0x200000d8        0x0 .\CortexM0\ARM_GCC_541\Debug\OS3.a(Temp_Sensor_EOC_ISR.o)
 .data          0x200000d8       0x14 .\CortexM0\ARM_GCC_541\Debug\OS3.a(CyLib.o)
                0x200000d8                cydelayFreqHz
                0x200000dc                cydelayFreqKhz
                0x200000e0                cydelayFreqMhz
                0x200000e4                cydelay32kMs
                0x200000e8                CySysClkPumpConfig
 .data          0x200000ec        0x4 .\CortexM0\ARM_GCC_541\Debug\OS3.a(CyLFClk.o)
 .data          0x200000f0        0x0 .\CortexM0\ARM_GCC_541\Debug\OS3.a(CyBootAsmGnu.o)
 .data          0x200000f0        0x0 .\CortexM0\ARM_GCC_541\Debug\OS3.a(I2C_I2C_INT.o)
 .data          0x200000f0        0x0 c:/program files (x86)/cypress/psoc creator/4.2/psoc creator/import/gnu/arm/5.4.1/bin/../lib/gcc/arm-none-eabi/5.4.1/armv6-m\libgcc.a(_udivsi3.o)
 .data          0x200000f0        0x0 c:/program files (x86)/cypress/psoc creator/4.2/psoc creator/import/gnu/arm/5.4.1/bin/../lib/gcc/arm-none-eabi/5.4.1/armv6-m\libgcc.a(_divsi3.o)
 .data          0x200000f0        0x0 c:/program files (x86)/cypress/psoc creator/4.2/psoc creator/import/gnu/arm/5.4.1/bin/../lib/gcc/arm-none-eabi/5.4.1/armv6-m\libgcc.a(_dvmd_tls.o)
 .data          0x200000f0        0x0 c:/program files (x86)/cypress/psoc creator/4.2/psoc creator/import/gnu/arm/5.4.1/bin/../lib/gcc/arm-none-eabi/5.4.1/armv6-m\libgcc.a(_aeabi_ldivmod.o)
 .data          0x200000f0        0x0 c:/program files (x86)/cypress/psoc creator/4.2/psoc creator/import/gnu/arm/5.4.1/bin/../lib/gcc/arm-none-eabi/5.4.1/armv6-m\libgcc.a(_aeabi_uldivmod.o)
 .data          0x200000f0        0x0 c:/program files (x86)/cypress/psoc creator/4.2/psoc creator/import/gnu/arm/5.4.1/bin/../lib/gcc/arm-none-eabi/5.4.1/armv6-m\libgcc.a(_muldi3.o)
 .data          0x200000f0        0x0 c:/program files (x86)/cypress/psoc creator/4.2/psoc creator/import/gnu/arm/5.4.1/bin/../lib/gcc/arm-none-eabi/5.4.1/armv6-m\libgcc.a(_udivmoddi4.o)
 .data          0x200000f0        0x0 c:/program files (x86)/cypress/psoc creator/4.2/psoc creator/import/gnu/arm/5.4.1/bin/../lib/gcc/arm-none-eabi/5.4.1/armv6-m\libgcc.a(bpabi.o)
 .data          0x200000f0        0x0 c:/program files (x86)/cypress/psoc creator/4.2/psoc creator/import/gnu/arm/5.4.1/bin/../lib/gcc/arm-none-eabi/5.4.1/armv6-m\libgcc.a(divsf3.o)
 .data          0x200000f0        0x0 c:/program files (x86)/cypress/psoc creator/4.2/psoc creator/import/gnu/arm/5.4.1/bin/../lib/gcc/arm-none-eabi/5.4.1/armv6-m\libgcc.a(mulsf3.o)
 .data          0x200000f0        0x0 c:/program files (x86)/cypress/psoc creator/4.2/psoc creator/import/gnu/arm/5.4.1/bin/../lib/gcc/arm-none-eabi/5.4.1/armv6-m\libgcc.a(floatsisf.o)
 .data          0x200000f0        0x0 c:/program files (x86)/cypress/psoc creator/4.2/psoc creator/import/gnu/arm/5.4.1/bin/../lib/gcc/arm-none-eabi/5.4.1/armv6-m\libgcc.a(_clzsi2.o)
 .data          0x200000f0        0x0 c:/program files (x86)/cypress/psoc creator/4.2/psoc creator/import/gnu/arm/5.4.1/bin/../lib/gcc/arm-none-eabi/5.4.1/armv6-m\libgcc.a(_clzdi2.o)
 .data          0x200000f0        0x0 c:/program files (x86)/cypress/psoc creator/4.2/psoc creator/import/gnu/arm/5.4.1/bin/../lib/gcc/arm-none-eabi/5.4.1/armv6-m\libgcc.a(_divdi3.o)
 .data          0x200000f0        0x0 c:/program files (x86)/cypress/psoc creator/4.2/psoc creator/import/gnu/arm/5.4.1/bin/../lib/gcc/arm-none-eabi/5.4.1/../../../../arm-none-eabi/lib/armv6-m\libg_nano.a(lib_a-errno.o)
 .data          0x200000f0        0x0 c:/program files (x86)/cypress/psoc creator/4.2/psoc creator/import/gnu/arm/5.4.1/bin/../lib/gcc/arm-none-eabi/5.4.1/../../../../arm-none-eabi/lib/armv6-m\libg_nano.a(lib_a-exit.o)
 .data          0x200000f0        0x0 c:/program files (x86)/cypress/psoc creator/4.2/psoc creator/import/gnu/arm/5.4.1/bin/../lib/gcc/arm-none-eabi/5.4.1/../../../../arm-none-eabi/lib/armv6-m\libg_nano.a(lib_a-impure.o)
 .data.impure_data
                0x200000f0       0x60 c:/program files (x86)/cypress/psoc creator/4.2/psoc creator/import/gnu/arm/5.4.1/bin/../lib/gcc/arm-none-eabi/5.4.1/../../../../arm-none-eabi/lib/armv6-m\libg_nano.a(lib_a-impure.o)
 .data._impure_ptr
                0x20000150        0x4 c:/program files (x86)/cypress/psoc creator/4.2/psoc creator/import/gnu/arm/5.4.1/bin/../lib/gcc/arm-none-eabi/5.4.1/../../../../arm-none-eabi/lib/armv6-m\libg_nano.a(lib_a-impure.o)
                0x20000150                _impure_ptr
 .data          0x20000154        0x0 c:/program files (x86)/cypress/psoc creator/4.2/psoc creator/import/gnu/arm/5.4.1/bin/../lib/gcc/arm-none-eabi/5.4.1/../../../../arm-none-eabi/lib/armv6-m\libg_nano.a(lib_a-init.o)
 .data          0x20000154        0x0 c:/program files (x86)/cypress/psoc creator/4.2/psoc creator/import/gnu/arm/5.4.1/bin/../lib/gcc/arm-none-eabi/5.4.1/../../../../arm-none-eabi/lib/armv6-m\libg_nano.a(lib_a-memcpy-stub.o)
 .data          0x20000154        0x0 c:/program files (x86)/cypress/psoc creator/4.2/psoc creator/import/gnu/arm/5.4.1/bin/../lib/gcc/arm-none-eabi/5.4.1/../../../../arm-none-eabi/lib/armv6-m\libg_nano.a(lib_a-memset.o)
 .data          0x20000154        0x0 c:/program files (x86)/cypress/psoc creator/4.2/psoc creator/import/gnu/arm/5.4.1/bin/../lib/gcc/arm-none-eabi/5.4.1/armv6-m/crtend.o
 .data          0x20000154        0x0 c:/program files (x86)/cypress/psoc creator/4.2/psoc creator/import/gnu/arm/5.4.1/bin/../lib/gcc/arm-none-eabi/5.4.1/armv6-m/crtn.o
                0x20000158                . = ALIGN (0x8)
 *fill*         0x20000154        0x4 
 *(.ram)
                0x20000158                _edata = .

.igot.plt       0x20000158        0x0 load address 0x0000ed68
 .igot.plt      0x20000158        0x0 c:/program files (x86)/cypress/psoc creator/4.2/psoc creator/import/gnu/arm/5.4.1/bin/../lib/gcc/arm-none-eabi/5.4.1/armv6-m/crtbegin.o

.bss            0x20000158     0x1968 load address 0x0000ed68
                0x20000158                PROVIDE (__bss_start__, .)
 *(.shbss)
 *(.bss .bss.* .gnu.linkonce.b.*)
 .bss           0x20000158        0x0 c:/program files (x86)/cypress/psoc creator/4.2/psoc creator/import/gnu/arm/5.4.1/bin/../lib/gcc/arm-none-eabi/5.4.1/armv6-m/crti.o
 .bss           0x20000158       0x1c c:/program files (x86)/cypress/psoc creator/4.2/psoc creator/import/gnu/arm/5.4.1/bin/../lib/gcc/arm-none-eabi/5.4.1/armv6-m/crtbegin.o
 .bss           0x20000174        0x0 c:/program files (x86)/cypress/psoc creator/4.2/psoc creator/import/gnu/arm/5.4.1/bin/../lib/gcc/arm-none-eabi/5.4.1/../../../../arm-none-eabi/lib/armv6-m/crt0.o
 .bss           0x20000174      0x8fe .\CortexM0\ARM_GCC_541\Debug\app.o
                0x20000174                uC_Probe_PB_Trigger
 .bss           0x20000a72        0x0 .\CortexM0\ARM_GCC_541\Debug\os_app_hooks.o
 .bss           0x20000a72        0x0 .\CortexM0\ARM_GCC_541\Debug\bsp_os.o
 .bss           0x20000a72        0x0 .\CortexM0\ARM_GCC_541\Debug\cpu_bsp.o
 .bss           0x20000a72        0x0 .\CortexM0\ARM_GCC_541\Debug\bsp.o
 .bss           0x20000a72        0x0 .\CortexM0\ARM_GCC_541\Debug\cpu_c.o
 .bss           0x20000a72        0x0 .\CortexM0\ARM_GCC_541\Debug\cpu_core.o
 .bss           0x20000a72        0x0 .\CortexM0\ARM_GCC_541\Debug\os_cpu_c.o
 .bss           0x20000a72        0x0 .\CortexM0\ARM_GCC_541\Debug\os_cfg_app.o
 .bss           0x20000a72        0x0 .\CortexM0\ARM_GCC_541\Debug\os_core.o
 .bss           0x20000a72        0x0 .\CortexM0\ARM_GCC_541\Debug\os_dbg.o
 .bss           0x20000a72        0x0 .\CortexM0\ARM_GCC_541\Debug\os_flag.o
 .bss           0x20000a72        0x0 .\CortexM0\ARM_GCC_541\Debug\os_int.o
 .bss           0x20000a72        0x0 .\CortexM0\ARM_GCC_541\Debug\os_mem.o
 .bss           0x20000a72        0x0 .\CortexM0\ARM_GCC_541\Debug\os_mon.o
 .bss           0x20000a72        0x0 .\CortexM0\ARM_GCC_541\Debug\os_msg.o
 .bss           0x20000a72        0x0 .\CortexM0\ARM_GCC_541\Debug\os_mutex.o
 .bss           0x20000a72        0x0 .\CortexM0\ARM_GCC_541\Debug\os_pend_multi.o
 .bss           0x20000a72        0x0 .\CortexM0\ARM_GCC_541\Debug\os_prio.o
 .bss           0x20000a72        0x0 .\CortexM0\ARM_GCC_541\Debug\os_q.o
 .bss           0x20000a72        0x0 .\CortexM0\ARM_GCC_541\Debug\os_sem.o
 .bss           0x20000a72        0x0 .\CortexM0\ARM_GCC_541\Debug\os_stat.o
 .bss           0x20000a72        0x0 .\CortexM0\ARM_GCC_541\Debug\os_task.o
 .bss           0x20000a72        0x0 .\CortexM0\ARM_GCC_541\Debug\os_tick.o
 .bss           0x20000a72        0x0 .\CortexM0\ARM_GCC_541\Debug\os_time.o
 .bss           0x20000a72        0x0 .\CortexM0\ARM_GCC_541\Debug\os_tmr.o
 .bss           0x20000a72        0x0 .\CortexM0\ARM_GCC_541\Debug\os_var.o
 .bss           0x20000a72        0x0 .\CortexM0\ARM_GCC_541\Debug\lib_ascii.o
 .bss           0x20000a72        0x0 .\CortexM0\ARM_GCC_541\Debug\lib_math.o
 .bss           0x20000a72        0x0 .\CortexM0\ARM_GCC_541\Debug\lib_mem.o
 .bss           0x20000a72        0x0 .\CortexM0\ARM_GCC_541\Debug\lib_str.o
 .bss           0x20000a72        0x0 .\CortexM0\ARM_GCC_541\Debug\cyfitter_cfg.o
 .bss           0x20000a72        0x0 .\CortexM0\ARM_GCC_541\Debug\cymetadata.o
 .bss           0x20000a72        0x0 .\CortexM0\ARM_GCC_541\Debug\Cm0Start.o
 .bss           0x20000a72        0x0 .\CortexM0\ARM_GCC_541\Debug\cpu_a.o
 .bss           0x20000a72        0x0 .\CortexM0\ARM_GCC_541\Debug\os_cpu_a.o
 .bss           0x20000a72        0x1 .\CortexM0\ARM_GCC_541\Debug\OS3.a(PWM_Blue.o)
                0x20000a72                PWM_Blue_initVar
 .bss           0x20000a73        0x1 .\CortexM0\ARM_GCC_541\Debug\OS3.a(PWM_Green.o)
                0x20000a73                PWM_Green_initVar
 .bss           0x20000a74        0x1 .\CortexM0\ARM_GCC_541\Debug\OS3.a(PWM_Red.o)
                0x20000a74                PWM_Red_initVar
 .bss           0x20000a75        0x0 .\CortexM0\ARM_GCC_541\Debug\OS3.a(Accel_Pin.o)
 *fill*         0x20000a75        0x3 
 .bss           0x20000a78        0x8 .\CortexM0\ARM_GCC_541\Debug\OS3.a(I2C.o)
                0x20000a78                I2C_initVar
                0x20000a7c                I2C_customIntrHandler
 .bss           0x20000a80        0x0 .\CortexM0\ARM_GCC_541\Debug\OS3.a(I2C_I2C.o)
 .bss           0x20000a80        0x0 .\CortexM0\ARM_GCC_541\Debug\OS3.a(I2C_I2C_MASTER.o)
 .bss           0x20000a80        0x0 .\CortexM0\ARM_GCC_541\Debug\OS3.a(SW2.o)
 .bss           0x20000a80        0x0 .\CortexM0\ARM_GCC_541\Debug\OS3.a(Accel_ISR.o)
 .bss           0x20000a80        0x1 .\CortexM0\ARM_GCC_541\Debug\OS3.a(Temp_Sensor.o)
                0x20000a80                Temp_Sensor_initVar
 .bss           0x20000a81        0x0 .\CortexM0\ARM_GCC_541\Debug\OS3.a(Temp_Sensor_INT.o)
 *fill*         0x20000a81        0x3 
 .bss           0x20000a84        0x8 .\CortexM0\ARM_GCC_541\Debug\OS3.a(Opamp.o)
                0x20000a84                Opamp_initVar
 .bss           0x20000a8c        0x1 .\CortexM0\ARM_GCC_541\Debug\OS3.a(ADC.o)
                0x20000a8c                ADC_initVar
 .bss           0x20000a8d        0x0 .\CortexM0\ARM_GCC_541\Debug\OS3.a(ADC_INT.o)
 .bss           0x20000a8d        0x0 .\CortexM0\ARM_GCC_541\Debug\OS3.a(I2C_sda.o)
 .bss           0x20000a8d        0x0 .\CortexM0\ARM_GCC_541\Debug\OS3.a(I2C_scl.o)
 .bss           0x20000a8d        0x0 .\CortexM0\ARM_GCC_541\Debug\OS3.a(Temp_Sensor_EOC_ISR.o)
 *fill*         0x20000a8d        0x3 
 .bss           0x20000a90       0x18 .\CortexM0\ARM_GCC_541\Debug\OS3.a(CyLib.o)
                0x20000aa4                CySysTickInitVar
 .bss           0x20000aa8       0x20 .\CortexM0\ARM_GCC_541\Debug\OS3.a(CyLFClk.o)
 .bss           0x20000ac8        0x0 .\CortexM0\ARM_GCC_541\Debug\OS3.a(CyBootAsmGnu.o)
 .bss           0x20000ac8        0x0 .\CortexM0\ARM_GCC_541\Debug\OS3.a(I2C_I2C_INT.o)
 .bss           0x20000ac8        0x0 c:/program files (x86)/cypress/psoc creator/4.2/psoc creator/import/gnu/arm/5.4.1/bin/../lib/gcc/arm-none-eabi/5.4.1/armv6-m\libgcc.a(_udivsi3.o)
 .bss           0x20000ac8        0x0 c:/program files (x86)/cypress/psoc creator/4.2/psoc creator/import/gnu/arm/5.4.1/bin/../lib/gcc/arm-none-eabi/5.4.1/armv6-m\libgcc.a(_divsi3.o)
 .bss           0x20000ac8        0x0 c:/program files (x86)/cypress/psoc creator/4.2/psoc creator/import/gnu/arm/5.4.1/bin/../lib/gcc/arm-none-eabi/5.4.1/armv6-m\libgcc.a(_dvmd_tls.o)
 .bss           0x20000ac8        0x0 c:/program files (x86)/cypress/psoc creator/4.2/psoc creator/import/gnu/arm/5.4.1/bin/../lib/gcc/arm-none-eabi/5.4.1/armv6-m\libgcc.a(_aeabi_ldivmod.o)
 .bss           0x20000ac8        0x0 c:/program files (x86)/cypress/psoc creator/4.2/psoc creator/import/gnu/arm/5.4.1/bin/../lib/gcc/arm-none-eabi/5.4.1/armv6-m\libgcc.a(_aeabi_uldivmod.o)
 .bss           0x20000ac8        0x0 c:/program files (x86)/cypress/psoc creator/4.2/psoc creator/import/gnu/arm/5.4.1/bin/../lib/gcc/arm-none-eabi/5.4.1/armv6-m\libgcc.a(_muldi3.o)
 .bss           0x20000ac8        0x0 c:/program files (x86)/cypress/psoc creator/4.2/psoc creator/import/gnu/arm/5.4.1/bin/../lib/gcc/arm-none-eabi/5.4.1/armv6-m\libgcc.a(_udivmoddi4.o)
 .bss           0x20000ac8        0x0 c:/program files (x86)/cypress/psoc creator/4.2/psoc creator/import/gnu/arm/5.4.1/bin/../lib/gcc/arm-none-eabi/5.4.1/armv6-m\libgcc.a(bpabi.o)
 .bss           0x20000ac8        0x0 c:/program files (x86)/cypress/psoc creator/4.2/psoc creator/import/gnu/arm/5.4.1/bin/../lib/gcc/arm-none-eabi/5.4.1/armv6-m\libgcc.a(divsf3.o)
 .bss           0x20000ac8        0x0 c:/program files (x86)/cypress/psoc creator/4.2/psoc creator/import/gnu/arm/5.4.1/bin/../lib/gcc/arm-none-eabi/5.4.1/armv6-m\libgcc.a(mulsf3.o)
 .bss           0x20000ac8        0x0 c:/program files (x86)/cypress/psoc creator/4.2/psoc creator/import/gnu/arm/5.4.1/bin/../lib/gcc/arm-none-eabi/5.4.1/armv6-m\libgcc.a(floatsisf.o)
 .bss           0x20000ac8        0x0 c:/program files (x86)/cypress/psoc creator/4.2/psoc creator/import/gnu/arm/5.4.1/bin/../lib/gcc/arm-none-eabi/5.4.1/armv6-m\libgcc.a(_clzsi2.o)
 .bss           0x20000ac8        0x0 c:/program files (x86)/cypress/psoc creator/4.2/psoc creator/import/gnu/arm/5.4.1/bin/../lib/gcc/arm-none-eabi/5.4.1/armv6-m\libgcc.a(_clzdi2.o)
 .bss           0x20000ac8        0x0 c:/program files (x86)/cypress/psoc creator/4.2/psoc creator/import/gnu/arm/5.4.1/bin/../lib/gcc/arm-none-eabi/5.4.1/armv6-m\libgcc.a(_divdi3.o)
 .bss           0x20000ac8        0x0 c:/program files (x86)/cypress/psoc creator/4.2/psoc creator/import/gnu/arm/5.4.1/bin/../lib/gcc/arm-none-eabi/5.4.1/../../../../arm-none-eabi/lib/armv6-m\libg_nano.a(lib_a-errno.o)
 .bss           0x20000ac8        0x0 c:/program files (x86)/cypress/psoc creator/4.2/psoc creator/import/gnu/arm/5.4.1/bin/../lib/gcc/arm-none-eabi/5.4.1/../../../../arm-none-eabi/lib/armv6-m\libg_nano.a(lib_a-exit.o)
 .bss           0x20000ac8        0x0 c:/program files (x86)/cypress/psoc creator/4.2/psoc creator/import/gnu/arm/5.4.1/bin/../lib/gcc/arm-none-eabi/5.4.1/../../../../arm-none-eabi/lib/armv6-m\libg_nano.a(lib_a-impure.o)
 .bss           0x20000ac8        0x0 c:/program files (x86)/cypress/psoc creator/4.2/psoc creator/import/gnu/arm/5.4.1/bin/../lib/gcc/arm-none-eabi/5.4.1/../../../../arm-none-eabi/lib/armv6-m\libg_nano.a(lib_a-init.o)
 .bss           0x20000ac8        0x0 c:/program files (x86)/cypress/psoc creator/4.2/psoc creator/import/gnu/arm/5.4.1/bin/../lib/gcc/arm-none-eabi/5.4.1/../../../../arm-none-eabi/lib/armv6-m\libg_nano.a(lib_a-memcpy-stub.o)
 .bss           0x20000ac8        0x0 c:/program files (x86)/cypress/psoc creator/4.2/psoc creator/import/gnu/arm/5.4.1/bin/../lib/gcc/arm-none-eabi/5.4.1/../../../../arm-none-eabi/lib/armv6-m\libg_nano.a(lib_a-memset.o)
 .bss           0x20000ac8        0x0 c:/program files (x86)/cypress/psoc creator/4.2/psoc creator/import/gnu/arm/5.4.1/bin/../lib/gcc/arm-none-eabi/5.4.1/armv6-m/crtend.o
 .bss           0x20000ac8        0x0 c:/program files (x86)/cypress/psoc creator/4.2/psoc creator/import/gnu/arm/5.4.1/bin/../lib/gcc/arm-none-eabi/5.4.1/armv6-m/crtn.o
 *(COMMON)
 COMMON         0x20000ac8       0x10 .\CortexM0\ARM_GCC_541\Debug\app.o
                0x20000ac8                uC_Probe_Temp_Val
                0x20000acc                uC_Probe_Accel_X_Axis
                0x20000ace                uC_Probe_AmbientLight
                0x20000ad0                uC_Probe_Accel_Z_Axis
                0x20000ad2                uC_Probe_Accel_Y_Axis
                0x20000ad4                uC_Probe_RGB_Val
 COMMON         0x20000ad8       0x30 .\CortexM0\ARM_GCC_541\Debug\cpu_core.o
                0x20000ad8                CPU_IntDisMeasMax_cnts
                0x20000adc                CPU_TS_TmrFreq_Hz
                0x20000ae0                CPU_IntDisMeasStart_cnts
                0x20000ae4                CPU_IntDisNestCtr
                0x20000ae8                CPU_IntDisMeasStop_cnts
                0x20000aec                CPU_IntDisMeasMaxCur_cnts
                0x20000af0                CPU_IntDisMeasCtr
                0x20000af4                CPU_IntDisMeasOvrhd_cnts
                0x20000af8                CPU_Name
 COMMON         0x20000b08        0x4 .\CortexM0\ARM_GCC_541\Debug\os_cpu_c.o
                0x20000b08                OS_CPU_ExceptStkBase
 COMMON         0x20000b0c      0xb90 .\CortexM0\ARM_GCC_541\Debug\os_cfg_app.o
                0x20000b0c                OSCfg_StatTaskStk
                0x20000d0c                OSCfg_TickWheel
                0x20000e0c                OSCfg_TmrTaskStk
                0x2000100c                OSCfg_TmrWheel
                0x2000110c                OSCfg_ISRStk
                0x2000129c                OSCfg_TickTaskStk
                0x2000149c                OSCfg_IdleTaskStk
 COMMON         0x2000169c        0x4 .\CortexM0\ARM_GCC_541\Debug\os_prio.o
                0x2000169c                OSPrioTbl
 COMMON         0x200016a0      0x3e0 .\CortexM0\ARM_GCC_541\Debug\os_var.o
                0x200016a0                OSSchedLockNestingCtr
                0x200016a4                OSStatTaskTimeMax
                0x200016a8                OSStatTaskCtr
                0x200016ac                OSTaskRegNextAvailID
                0x200016ad                OSRunning
                0x200016b0                OSRdyList
                0x20001830                OSPrioHighRdy
                0x20001831                OSStatTaskRdy
                0x20001834                OSSemDbgListPtr
                0x20001838                OSPrioCur
                0x2000183c                OSTickTaskTCB
                0x200018b8                OSTmrTickCtr
                0x200018bc                OSTCBCurPtr
                0x200018c0                OSStatTaskCPUUsageMax
                0x200018c2                OSPrioSaved
                0x200018c4                OSTCBHighRdyPtr
                0x200018c8                OSTaskDbgListPtr
                0x200018cc                OSTmrTaskTimeMax
                0x200018d0                OSStatTaskCPUUsage
                0x200018d4                OSTaskCtxSwCtr
                0x200018d8                OSIntNestingCtr
                0x200018da                OSTaskQty
                0x200018dc                OSTmrTaskTCB
                0x20001958                OSIdleTaskTCB
                0x200019d4                OSSemQty
                0x200019d8                OSStatTaskCtrMax
                0x200019dc                OSTickCtr
                0x200019e0                OSTmrQty
                0x200019e4                OSIntDisTimeMax
                0x200019e8                OSIdleTaskCtr
                0x200019ec                OSStatTaskCtrRun
                0x200019f0                OSStatResetFlag
                0x200019f4                OSStatTaskTCB
                0x20001a70                OSTmrDbgListPtr
                0x20001a74                OSTickTaskTimeMax
                0x20001a78                OSTmrUpdateCnt
                0x20001a7c                OSTmrUpdateCtr
 COMMON         0x20001a80        0x4 .\CortexM0\ARM_GCC_541\Debug\lib_math.o
                0x20001a80                Math_RandSeedCur
 COMMON         0x20001a84        0x1 .\CortexM0\ARM_GCC_541\Debug\OS3.a(I2C_I2C.o)
                0x20001a84                I2C_state
 *fill*         0x20001a85        0x3 
 COMMON         0x20001a88       0x24 .\CortexM0\ARM_GCC_541\Debug\OS3.a(I2C_I2C_MASTER.o)
                0x20001a88                I2C_mstrWrBufIndexTmp
                0x20001a8c                I2C_mstrWrBufIndex
                0x20001a90                I2C_mstrWrBufSize
                0x20001a94                I2C_mstrStatus
                0x20001a98                I2C_mstrRdBufPtr
                0x20001a9c                I2C_mstrControl
                0x20001aa0                I2C_mstrRdBufSize
                0x20001aa4                I2C_mstrRdBufIndex
                0x20001aa8                I2C_mstrWrBufPtr
 COMMON         0x20001aac        0x7 .\CortexM0\ARM_GCC_541\Debug\OS3.a(Temp_Sensor.o)
                0x20001aac                Temp_Sensor_lo
                0x20001aae                Temp_Sensor_contMode
                0x20001ab0                Temp_Sensor_hi
                0x20001ab2                Temp_Sensor_busyFlag
 *fill*         0x20001ab3        0x1 
 COMMON         0x20001ab4        0x6 .\CortexM0\ARM_GCC_541\Debug\OS3.a(ADC.o)
                0x20001ab4                ADC_countsPer10Volt
                0x20001ab8                ADC_offset
                0x20001ac0                . = ALIGN (0x8)
 *fill*         0x20001aba        0x6 
 *(.ram.b)
                0x20001ac0                _end = .
                0x20001ac0                __end = .
                0x20001ac0                PROVIDE (end, .)
                0x20001ac0                PROVIDE (__bss_end__, .)
                0x0000ecd8                __cy_region_init_ram = LOADADDR (.data)
                0x00000090                __cy_region_init_size_ram = (_edata - ADDR (.data))
                0x00001968                __cy_region_zero_size_ram = (_end - _edata)

.heap           0x20001ac0       0x80 load address 0x0000ed68
                0x20001ac0                . = _end
                0x20001b40                . = (. + 0x80)
 *fill*         0x20001ac0       0x80 
                0x20001b40                __cy_heap_limit = .

.stack          0x20000800      0x800
                0x20000800                __cy_stack_limit = .
                0x20001000                . = (. + 0x800)
 *fill*         0x20000800      0x800 
                0x00000000                ASSERT ((__cy_stack_limit >= __cy_heap_limit), region RAM overflowed with stack)
                0x00000000                cy_checksum_exclude_size = (CY_APPL_LOADABLE == 0x1)?SIZEOF (.cy_checksum_exclude):0x0
                0x00000001                ASSERT ((cy_checksum_exclude_size <= CY_CHECKSUM_EXCLUDE_SIZE), CY_BOOT: Section .cy_checksum_exclude size exceedes specified limit.)
                0x00007fc0                cyloadermeta_start = (cy_project_type_bootloader || cy_project_type_app_for_stack_and_copier)?(LENGTH (rom) - CY_METADATA_SIZE):0xf0000000

.cyloadermeta
 *(.cyloadermeta)
                0x00007fc0                cyloadablemeta_start = cy_project_type_app_for_stack_and_copier?((LENGTH (rom) - CY_FLASH_ROW_SIZE) - CY_METADATA_SIZE):((LENGTH (rom) - (CY_FLASH_ROW_SIZE * (CY_APPL_NUM - 0x1))) - CY_METADATA_SIZE)

.cyloadablemeta
 *(.cyloadablemeta)

.cyflashprotect
                0x90400000       0x20
 *(.cyflashprotect)
 .cyflashprotect
                0x90400000       0x20 .\CortexM0\ARM_GCC_541\Debug\cymetadata.o
                0x90400000                cy_meta_flashprotect

.cymeta         0x90500000        0xc
 *(.cymeta)
 .cymeta        0x90500000        0xc .\CortexM0\ARM_GCC_541\Debug\cymetadata.o
                0x90500000                cy_metadata

.cychipprotect  0x90600000        0x1
 *(.cychipprotect)
 .cychipprotect
                0x90600000        0x1 .\CortexM0\ARM_GCC_541\Debug\cymetadata.o
                0x90600000                cy_meta_chipprotect

.rel.dyn        0x0000ed68        0x0 load address 0x90600004
 .rel.iplt      0x0000ed68        0x0 c:/program files (x86)/cypress/psoc creator/4.2/psoc creator/import/gnu/arm/5.4.1/bin/../lib/gcc/arm-none-eabi/5.4.1/armv6-m/crtbegin.o

.stab
 *(.stab)

.stabstr
 *(.stabstr)

.debug
 *(.debug)

.line
 *(.line)

.debug_srcinfo
 *(.debug_srcinfo)

.debug_sfnames
 *(.debug_sfnames)

.debug_aranges  0x00000000     0x16f8
 *(.debug_aranges)
 .debug_aranges
                0x00000000       0x40 .\CortexM0\ARM_GCC_541\Debug\app.o
 .debug_aranges
                0x00000040       0x60 .\CortexM0\ARM_GCC_541\Debug\os_app_hooks.o
 .debug_aranges
                0x000000a0       0x40 .\CortexM0\ARM_GCC_541\Debug\bsp_os.o
 .debug_aranges
                0x000000e0       0x30 .\CortexM0\ARM_GCC_541\Debug\cpu_bsp.o
 .debug_aranges
                0x00000110       0x80 .\CortexM0\ARM_GCC_541\Debug\bsp.o
 .debug_aranges
                0x00000190       0x58 .\CortexM0\ARM_GCC_541\Debug\cpu_c.o
 .debug_aranges
                0x000001e8       0xf8 .\CortexM0\ARM_GCC_541\Debug\cpu_core.o
 .debug_aranges
                0x000002e0       0x70 .\CortexM0\ARM_GCC_541\Debug\os_cpu_c.o
 .debug_aranges
                0x00000350       0x20 .\CortexM0\ARM_GCC_541\Debug\os_cfg_app.o
 .debug_aranges
                0x00000370      0x128 .\CortexM0\ARM_GCC_541\Debug\os_core.o
 .debug_aranges
                0x00000498       0x20 .\CortexM0\ARM_GCC_541\Debug\os_dbg.o
 .debug_aranges
                0x000004b8       0x18 .\CortexM0\ARM_GCC_541\Debug\os_flag.o
 .debug_aranges
                0x000004d0       0x18 .\CortexM0\ARM_GCC_541\Debug\os_int.o
 .debug_aranges
                0x000004e8       0x18 .\CortexM0\ARM_GCC_541\Debug\os_mem.o
 .debug_aranges
                0x00000500       0x18 .\CortexM0\ARM_GCC_541\Debug\os_mon.o
 .debug_aranges
                0x00000518       0x18 .\CortexM0\ARM_GCC_541\Debug\os_msg.o
 .debug_aranges
                0x00000530       0x18 .\CortexM0\ARM_GCC_541\Debug\os_mutex.o
 .debug_aranges
                0x00000548       0x18 .\CortexM0\ARM_GCC_541\Debug\os_pend_multi.o
 .debug_aranges
                0x00000560       0x38 .\CortexM0\ARM_GCC_541\Debug\os_prio.o
 .debug_aranges
                0x00000598       0x18 .\CortexM0\ARM_GCC_541\Debug\os_q.o
 .debug_aranges
                0x000005b0       0x68 .\CortexM0\ARM_GCC_541\Debug\os_sem.o
 .debug_aranges
                0x00000618       0x38 .\CortexM0\ARM_GCC_541\Debug\os_stat.o
 .debug_aranges
                0x00000650       0xb0 .\CortexM0\ARM_GCC_541\Debug\os_task.o
 .debug_aranges
                0x00000700       0x50 .\CortexM0\ARM_GCC_541\Debug\os_tick.o
 .debug_aranges
                0x00000750       0x40 .\CortexM0\ARM_GCC_541\Debug\os_time.o
 .debug_aranges
                0x00000790       0x80 .\CortexM0\ARM_GCC_541\Debug\os_tmr.o
 .debug_aranges
                0x00000810       0x18 .\CortexM0\ARM_GCC_541\Debug\os_var.o
 .debug_aranges
                0x00000828       0x98 .\CortexM0\ARM_GCC_541\Debug\lib_ascii.o
 .debug_aranges
                0x000008c0       0x38 .\CortexM0\ARM_GCC_541\Debug\lib_math.o
 .debug_aranges
                0x000008f8       0x48 .\CortexM0\ARM_GCC_541\Debug\lib_mem.o
 .debug_aranges
                0x00000940       0xd8 .\CortexM0\ARM_GCC_541\Debug\lib_str.o
 .debug_aranges
                0x00000a18       0x58 .\CortexM0\ARM_GCC_541\Debug\cyfitter_cfg.o
 .debug_aranges
                0x00000a70       0x18 .\CortexM0\ARM_GCC_541\Debug\cymetadata.o
 .debug_aranges
                0x00000a88       0x48 .\CortexM0\ARM_GCC_541\Debug\Cm0Start.o
 .debug_aranges
                0x00000ad0       0x20 .\CortexM0\ARM_GCC_541\Debug\cpu_a.o
 .debug_aranges
                0x00000af0       0x20 .\CortexM0\ARM_GCC_541\Debug\os_cpu_a.o
 .debug_aranges
                0x00000b10      0x158 .\CortexM0\ARM_GCC_541\Debug\OS3.a(PWM_Blue.o)
 .debug_aranges
                0x00000c68      0x158 .\CortexM0\ARM_GCC_541\Debug\OS3.a(PWM_Green.o)
 .debug_aranges
                0x00000dc0      0x158 .\CortexM0\ARM_GCC_541\Debug\OS3.a(PWM_Red.o)
 .debug_aranges
                0x00000f18       0x48 .\CortexM0\ARM_GCC_541\Debug\OS3.a(Accel_Pin.o)
 .debug_aranges
                0x00000f60       0x70 .\CortexM0\ARM_GCC_541\Debug\OS3.a(I2C.o)
 .debug_aranges
                0x00000fd0       0x30 .\CortexM0\ARM_GCC_541\Debug\OS3.a(I2C_I2C.o)
 .debug_aranges
                0x00001000       0x98 .\CortexM0\ARM_GCC_541\Debug\OS3.a(I2C_I2C_MASTER.o)
 .debug_aranges
                0x00001098       0x48 .\CortexM0\ARM_GCC_541\Debug\OS3.a(SW2.o)
 .debug_aranges
                0x000010e0       0x80 .\CortexM0\ARM_GCC_541\Debug\OS3.a(Accel_ISR.o)
 .debug_aranges
                0x00001160       0x60 .\CortexM0\ARM_GCC_541\Debug\OS3.a(Temp_Sensor.o)
 .debug_aranges
                0x000011c0       0x20 .\CortexM0\ARM_GCC_541\Debug\OS3.a(Temp_Sensor_INT.o)
 .debug_aranges
                0x000011e0       0x48 .\CortexM0\ARM_GCC_541\Debug\OS3.a(Opamp.o)
 .debug_aranges
                0x00001228       0xa8 .\CortexM0\ARM_GCC_541\Debug\OS3.a(ADC.o)
 .debug_aranges
                0x000012d0       0x20 .\CortexM0\ARM_GCC_541\Debug\OS3.a(ADC_INT.o)
 .debug_aranges
                0x000012f0       0x48 .\CortexM0\ARM_GCC_541\Debug\OS3.a(I2C_sda.o)
 .debug_aranges
                0x00001338       0x48 .\CortexM0\ARM_GCC_541\Debug\OS3.a(I2C_scl.o)
 .debug_aranges
                0x00001380       0x80 .\CortexM0\ARM_GCC_541\Debug\OS3.a(Temp_Sensor_EOC_ISR.o)
 .debug_aranges
                0x00001400      0x180 .\CortexM0\ARM_GCC_541\Debug\OS3.a(CyLib.o)
 .debug_aranges
                0x00001580      0x138 .\CortexM0\ARM_GCC_541\Debug\OS3.a(CyLFClk.o)
 .debug_aranges
                0x000016b8       0x20 .\CortexM0\ARM_GCC_541\Debug\OS3.a(CyBootAsmGnu.o)
 .debug_aranges
                0x000016d8       0x20 .\CortexM0\ARM_GCC_541\Debug\OS3.a(I2C_I2C_INT.o)

.debug_pubnames
 *(.debug_pubnames)

.debug_info     0x00000000    0x1335d
 *(.debug_info .gnu.linkonce.wi.*)
 .debug_info    0x00000000      0xba0 .\CortexM0\ARM_GCC_541\Debug\app.o
 .debug_info    0x00000ba0      0x5dd .\CortexM0\ARM_GCC_541\Debug\os_app_hooks.o
 .debug_info    0x0000117d      0xbb6 .\CortexM0\ARM_GCC_541\Debug\bsp_os.o
 .debug_info    0x00001d33      0x166 .\CortexM0\ARM_GCC_541\Debug\cpu_bsp.o
 .debug_info    0x00001e99      0x430 .\CortexM0\ARM_GCC_541\Debug\bsp.o
 .debug_info    0x000022c9      0x404 .\CortexM0\ARM_GCC_541\Debug\cpu_c.o
 .debug_info    0x000026cd      0x85b .\CortexM0\ARM_GCC_541\Debug\cpu_core.o
 .debug_info    0x00002f28      0x746 .\CortexM0\ARM_GCC_541\Debug\os_cpu_c.o
 .debug_info    0x0000366e      0xa67 .\CortexM0\ARM_GCC_541\Debug\os_cfg_app.o
 .debug_info    0x000040d5     0x146a .\CortexM0\ARM_GCC_541\Debug\os_core.o
 .debug_info    0x0000553f     0x115d .\CortexM0\ARM_GCC_541\Debug\os_dbg.o
 .debug_info    0x0000669c       0x87 .\CortexM0\ARM_GCC_541\Debug\os_flag.o
 .debug_info    0x00006723       0x87 .\CortexM0\ARM_GCC_541\Debug\os_int.o
 .debug_info    0x000067aa       0x87 .\CortexM0\ARM_GCC_541\Debug\os_mem.o
 .debug_info    0x00006831       0x87 .\CortexM0\ARM_GCC_541\Debug\os_mon.o
 .debug_info    0x000068b8       0x87 .\CortexM0\ARM_GCC_541\Debug\os_msg.o
 .debug_info    0x0000693f       0x87 .\CortexM0\ARM_GCC_541\Debug\os_mutex.o
 .debug_info    0x000069c6       0x87 .\CortexM0\ARM_GCC_541\Debug\os_pend_multi.o
 .debug_info    0x00006a4d      0x1d4 .\CortexM0\ARM_GCC_541\Debug\os_prio.o
 .debug_info    0x00006c21       0x87 .\CortexM0\ARM_GCC_541\Debug\os_q.o
 .debug_info    0x00006ca8      0xe2c .\CortexM0\ARM_GCC_541\Debug\os_sem.o
 .debug_info    0x00007ad4      0xc3d .\CortexM0\ARM_GCC_541\Debug\os_stat.o
 .debug_info    0x00008711     0x1115 .\CortexM0\ARM_GCC_541\Debug\os_task.o
 .debug_info    0x00009826      0xcae .\CortexM0\ARM_GCC_541\Debug\os_tick.o
 .debug_info    0x0000a4d4      0xbf0 .\CortexM0\ARM_GCC_541\Debug\os_time.o
 .debug_info    0x0000b0c4     0x10b6 .\CortexM0\ARM_GCC_541\Debug\os_tmr.o
 .debug_info    0x0000c17a      0x9ae .\CortexM0\ARM_GCC_541\Debug\os_var.o
 .debug_info    0x0000cb28      0x421 .\CortexM0\ARM_GCC_541\Debug\lib_ascii.o
 .debug_info    0x0000cf49      0x182 .\CortexM0\ARM_GCC_541\Debug\lib_math.o
 .debug_info    0x0000d0cb      0x479 .\CortexM0\ARM_GCC_541\Debug\lib_mem.o
 .debug_info    0x0000d544      0xd6b .\CortexM0\ARM_GCC_541\Debug\lib_str.o
 .debug_info    0x0000e2af      0x3a4 .\CortexM0\ARM_GCC_541\Debug\cyfitter_cfg.o
 .debug_info    0x0000e653       0xf8 .\CortexM0\ARM_GCC_541\Debug\cymetadata.o
 .debug_info    0x0000e74b      0x312 .\CortexM0\ARM_GCC_541\Debug\Cm0Start.o
 .debug_info    0x0000ea5d       0xd2 .\CortexM0\ARM_GCC_541\Debug\cpu_a.o
 .debug_info    0x0000eb2f       0xe5 .\CortexM0\ARM_GCC_541\Debug\os_cpu_a.o
 .debug_info    0x0000ec14      0x6fb .\CortexM0\ARM_GCC_541\Debug\OS3.a(PWM_Blue.o)
 .debug_info    0x0000f30f      0x6fb .\CortexM0\ARM_GCC_541\Debug\OS3.a(PWM_Green.o)
 .debug_info    0x0000fa0a      0x6fb .\CortexM0\ARM_GCC_541\Debug\OS3.a(PWM_Red.o)
 .debug_info    0x00010105      0x19a .\CortexM0\ARM_GCC_541\Debug\OS3.a(Accel_Pin.o)
 .debug_info    0x0001029f      0x1fd .\CortexM0\ARM_GCC_541\Debug\OS3.a(I2C.o)
 .debug_info    0x0001049c      0x135 .\CortexM0\ARM_GCC_541\Debug\OS3.a(I2C_I2C.o)
 .debug_info    0x000105d1      0x61e .\CortexM0\ARM_GCC_541\Debug\OS3.a(I2C_I2C_MASTER.o)
 .debug_info    0x00010bef      0x19a .\CortexM0\ARM_GCC_541\Debug\OS3.a(SW2.o)
 .debug_info    0x00010d89      0x24d .\CortexM0\ARM_GCC_541\Debug\OS3.a(Accel_ISR.o)
 .debug_info    0x00010fd6      0x2b5 .\CortexM0\ARM_GCC_541\Debug\OS3.a(Temp_Sensor.o)
 .debug_info    0x0001128b      0x141 .\CortexM0\ARM_GCC_541\Debug\OS3.a(Temp_Sensor_INT.o)
 .debug_info    0x000113cc      0x166 .\CortexM0\ARM_GCC_541\Debug\OS3.a(Opamp.o)
 .debug_info    0x00011532      0x491 .\CortexM0\ARM_GCC_541\Debug\OS3.a(ADC.o)
 .debug_info    0x000119c3       0xcc .\CortexM0\ARM_GCC_541\Debug\OS3.a(ADC_INT.o)
 .debug_info    0x00011a8f      0x19a .\CortexM0\ARM_GCC_541\Debug\OS3.a(I2C_sda.o)
 .debug_info    0x00011c29      0x19a .\CortexM0\ARM_GCC_541\Debug\OS3.a(I2C_scl.o)
 .debug_info    0x00011dc3      0x24d .\CortexM0\ARM_GCC_541\Debug\OS3.a(Temp_Sensor_EOC_ISR.o)
 .debug_info    0x00012010      0x8e0 .\CortexM0\ARM_GCC_541\Debug\OS3.a(CyLib.o)
 .debug_info    0x000128f0      0x81f .\CortexM0\ARM_GCC_541\Debug\OS3.a(CyLFClk.o)
 .debug_info    0x0001310f       0xbc .\CortexM0\ARM_GCC_541\Debug\OS3.a(CyBootAsmGnu.o)
 .debug_info    0x000131cb      0x192 .\CortexM0\ARM_GCC_541\Debug\OS3.a(I2C_I2C_INT.o)

.debug_abbrev   0x00000000     0x36d1
 *(.debug_abbrev)
 .debug_abbrev  0x00000000      0x182 .\CortexM0\ARM_GCC_541\Debug\app.o
 .debug_abbrev  0x00000182       0xfc .\CortexM0\ARM_GCC_541\Debug\os_app_hooks.o
 .debug_abbrev  0x0000027e      0x188 .\CortexM0\ARM_GCC_541\Debug\bsp_os.o
 .debug_abbrev  0x00000406       0xbb .\CortexM0\ARM_GCC_541\Debug\cpu_bsp.o
 .debug_abbrev  0x000004c1      0x164 .\CortexM0\ARM_GCC_541\Debug\bsp.o
 .debug_abbrev  0x00000625      0x147 .\CortexM0\ARM_GCC_541\Debug\cpu_c.o
 .debug_abbrev  0x0000076c      0x20a .\CortexM0\ARM_GCC_541\Debug\cpu_core.o
 .debug_abbrev  0x00000976      0x18f .\CortexM0\ARM_GCC_541\Debug\os_cpu_c.o
 .debug_abbrev  0x00000b05       0xdc .\CortexM0\ARM_GCC_541\Debug\os_cfg_app.o
 .debug_abbrev  0x00000be1      0x1ba .\CortexM0\ARM_GCC_541\Debug\os_core.o
 .debug_abbrev  0x00000d9b       0xf5 .\CortexM0\ARM_GCC_541\Debug\os_dbg.o
 .debug_abbrev  0x00000e90       0x26 .\CortexM0\ARM_GCC_541\Debug\os_flag.o
 .debug_abbrev  0x00000eb6       0x26 .\CortexM0\ARM_GCC_541\Debug\os_int.o
 .debug_abbrev  0x00000edc       0x26 .\CortexM0\ARM_GCC_541\Debug\os_mem.o
 .debug_abbrev  0x00000f02       0x26 .\CortexM0\ARM_GCC_541\Debug\os_mon.o
 .debug_abbrev  0x00000f28       0x26 .\CortexM0\ARM_GCC_541\Debug\os_msg.o
 .debug_abbrev  0x00000f4e       0x26 .\CortexM0\ARM_GCC_541\Debug\os_mutex.o
 .debug_abbrev  0x00000f74       0x26 .\CortexM0\ARM_GCC_541\Debug\os_pend_multi.o
 .debug_abbrev  0x00000f9a       0xc6 .\CortexM0\ARM_GCC_541\Debug\os_prio.o
 .debug_abbrev  0x00001060       0x26 .\CortexM0\ARM_GCC_541\Debug\os_q.o
 .debug_abbrev  0x00001086      0x1aa .\CortexM0\ARM_GCC_541\Debug\os_sem.o
 .debug_abbrev  0x00001230      0x16c .\CortexM0\ARM_GCC_541\Debug\os_stat.o
 .debug_abbrev  0x0000139c      0x1a2 .\CortexM0\ARM_GCC_541\Debug\os_task.o
 .debug_abbrev  0x0000153e      0x1b4 .\CortexM0\ARM_GCC_541\Debug\os_tick.o
 .debug_abbrev  0x000016f2      0x188 .\CortexM0\ARM_GCC_541\Debug\os_time.o
 .debug_abbrev  0x0000187a      0x1b6 .\CortexM0\ARM_GCC_541\Debug\os_tmr.o
 .debug_abbrev  0x00001a30       0xb0 .\CortexM0\ARM_GCC_541\Debug\os_var.o
 .debug_abbrev  0x00001ae0       0xd4 .\CortexM0\ARM_GCC_541\Debug\lib_ascii.o
 .debug_abbrev  0x00001bb4       0xfb .\CortexM0\ARM_GCC_541\Debug\lib_math.o
 .debug_abbrev  0x00001caf      0x10f .\CortexM0\ARM_GCC_541\Debug\lib_mem.o
 .debug_abbrev  0x00001dbe      0x130 .\CortexM0\ARM_GCC_541\Debug\lib_str.o
 .debug_abbrev  0x00001eee      0x1b3 .\CortexM0\ARM_GCC_541\Debug\cyfitter_cfg.o
 .debug_abbrev  0x000020a1       0x5d .\CortexM0\ARM_GCC_541\Debug\cymetadata.o
 .debug_abbrev  0x000020fe      0x1c8 .\CortexM0\ARM_GCC_541\Debug\Cm0Start.o
 .debug_abbrev  0x000022c6       0x14 .\CortexM0\ARM_GCC_541\Debug\cpu_a.o
 .debug_abbrev  0x000022da       0x14 .\CortexM0\ARM_GCC_541\Debug\os_cpu_a.o
 .debug_abbrev  0x000022ee       0xfc .\CortexM0\ARM_GCC_541\Debug\OS3.a(PWM_Blue.o)
 .debug_abbrev  0x000023ea       0xfc .\CortexM0\ARM_GCC_541\Debug\OS3.a(PWM_Green.o)
 .debug_abbrev  0x000024e6       0xfc .\CortexM0\ARM_GCC_541\Debug\OS3.a(PWM_Red.o)
 .debug_abbrev  0x000025e2       0xaa .\CortexM0\ARM_GCC_541\Debug\OS3.a(Accel_Pin.o)
 .debug_abbrev  0x0000268c       0xf3 .\CortexM0\ARM_GCC_541\Debug\OS3.a(I2C.o)
 .debug_abbrev  0x0000277f       0x90 .\CortexM0\ARM_GCC_541\Debug\OS3.a(I2C_I2C.o)
 .debug_abbrev  0x0000280f      0x162 .\CortexM0\ARM_GCC_541\Debug\OS3.a(I2C_I2C_MASTER.o)
 .debug_abbrev  0x00002971       0xaa .\CortexM0\ARM_GCC_541\Debug\OS3.a(SW2.o)
 .debug_abbrev  0x00002a1b      0x16a .\CortexM0\ARM_GCC_541\Debug\OS3.a(Accel_ISR.o)
 .debug_abbrev  0x00002b85      0x153 .\CortexM0\ARM_GCC_541\Debug\OS3.a(Temp_Sensor.o)
 .debug_abbrev  0x00002cd8       0x8a .\CortexM0\ARM_GCC_541\Debug\OS3.a(Temp_Sensor_INT.o)
 .debug_abbrev  0x00002d62       0xc6 .\CortexM0\ARM_GCC_541\Debug\OS3.a(Opamp.o)
 .debug_abbrev  0x00002e28      0x163 .\CortexM0\ARM_GCC_541\Debug\OS3.a(ADC.o)
 .debug_abbrev  0x00002f8b       0x65 .\CortexM0\ARM_GCC_541\Debug\OS3.a(ADC_INT.o)
 .debug_abbrev  0x00002ff0       0xaa .\CortexM0\ARM_GCC_541\Debug\OS3.a(I2C_sda.o)
 .debug_abbrev  0x0000309a       0xaa .\CortexM0\ARM_GCC_541\Debug\OS3.a(I2C_scl.o)
 .debug_abbrev  0x00003144      0x16a .\CortexM0\ARM_GCC_541\Debug\OS3.a(Temp_Sensor_EOC_ISR.o)
 .debug_abbrev  0x000032ae      0x1a7 .\CortexM0\ARM_GCC_541\Debug\OS3.a(CyLib.o)
 .debug_abbrev  0x00003455      0x1e0 .\CortexM0\ARM_GCC_541\Debug\OS3.a(CyLFClk.o)
 .debug_abbrev  0x00003635       0x14 .\CortexM0\ARM_GCC_541\Debug\OS3.a(CyBootAsmGnu.o)
 .debug_abbrev  0x00003649       0x88 .\CortexM0\ARM_GCC_541\Debug\OS3.a(I2C_I2C_INT.o)

.debug_line     0x00000000     0x61a8
 *(.debug_line)
 .debug_line    0x00000000      0x16a .\CortexM0\ARM_GCC_541\Debug\app.o
 .debug_line    0x0000016a      0x17e .\CortexM0\ARM_GCC_541\Debug\os_app_hooks.o
 .debug_line    0x000002e8      0x172 .\CortexM0\ARM_GCC_541\Debug\bsp_os.o
 .debug_line    0x0000045a       0xe1 .\CortexM0\ARM_GCC_541\Debug\cpu_bsp.o
 .debug_line    0x0000053b      0x23c .\CortexM0\ARM_GCC_541\Debug\bsp.o
 .debug_line    0x00000777      0x1c5 .\CortexM0\ARM_GCC_541\Debug\cpu_c.o
 .debug_line    0x0000093c      0x390 .\CortexM0\ARM_GCC_541\Debug\cpu_core.o
 .debug_line    0x00000ccc      0x264 .\CortexM0\ARM_GCC_541\Debug\os_cpu_c.o
 .debug_line    0x00000f30       0xed .\CortexM0\ARM_GCC_541\Debug\os_cfg_app.o
 .debug_line    0x0000101d      0x5ae .\CortexM0\ARM_GCC_541\Debug\os_core.o
 .debug_line    0x000015cb      0x11f .\CortexM0\ARM_GCC_541\Debug\os_dbg.o
 .debug_line    0x000016ea       0x1d .\CortexM0\ARM_GCC_541\Debug\os_flag.o
 .debug_line    0x00001707       0x1d .\CortexM0\ARM_GCC_541\Debug\os_int.o
 .debug_line    0x00001724       0x1d .\CortexM0\ARM_GCC_541\Debug\os_mem.o
 .debug_line    0x00001741       0x1d .\CortexM0\ARM_GCC_541\Debug\os_mon.o
 .debug_line    0x0000175e       0x1d .\CortexM0\ARM_GCC_541\Debug\os_msg.o
 .debug_line    0x0000177b       0x1d .\CortexM0\ARM_GCC_541\Debug\os_mutex.o
 .debug_line    0x00001798       0x1d .\CortexM0\ARM_GCC_541\Debug\os_pend_multi.o
 .debug_line    0x000017b5      0x106 .\CortexM0\ARM_GCC_541\Debug\os_prio.o
 .debug_line    0x000018bb       0x1d .\CortexM0\ARM_GCC_541\Debug\os_q.o
 .debug_line    0x000018d8      0x26b .\CortexM0\ARM_GCC_541\Debug\os_sem.o
 .debug_line    0x00001b43      0x1a8 .\CortexM0\ARM_GCC_541\Debug\os_stat.o
 .debug_line    0x00001ceb      0x444 .\CortexM0\ARM_GCC_541\Debug\os_task.o
 .debug_line    0x0000212f      0x23b .\CortexM0\ARM_GCC_541\Debug\os_tick.o
 .debug_line    0x0000236a      0x1ba .\CortexM0\ARM_GCC_541\Debug\os_time.o
 .debug_line    0x00002524      0x346 .\CortexM0\ARM_GCC_541\Debug\os_tmr.o
 .debug_line    0x0000286a       0xca .\CortexM0\ARM_GCC_541\Debug\os_var.o
 .debug_line    0x00002934      0x41f .\CortexM0\ARM_GCC_541\Debug\lib_ascii.o
 .debug_line    0x00002d53       0xea .\CortexM0\ARM_GCC_541\Debug\lib_math.o
 .debug_line    0x00002e3d      0x207 .\CortexM0\ARM_GCC_541\Debug\lib_mem.o
 .debug_line    0x00003044      0x52d .\CortexM0\ARM_GCC_541\Debug\lib_str.o
 .debug_line    0x00003571      0x1c9 .\CortexM0\ARM_GCC_541\Debug\cyfitter_cfg.o
 .debug_line    0x0000373a      0x141 .\CortexM0\ARM_GCC_541\Debug\cymetadata.o
 .debug_line    0x0000387b      0x1cf .\CortexM0\ARM_GCC_541\Debug\Cm0Start.o
 .debug_line    0x00003a4a       0x7e .\CortexM0\ARM_GCC_541\Debug\cpu_a.o
 .debug_line    0x00003ac8       0xd3 .\CortexM0\ARM_GCC_541\Debug\os_cpu_a.o
 .debug_line    0x00003b9b      0x373 .\CortexM0\ARM_GCC_541\Debug\OS3.a(PWM_Blue.o)
 .debug_line    0x00003f0e      0x374 .\CortexM0\ARM_GCC_541\Debug\OS3.a(PWM_Green.o)
 .debug_line    0x00004282      0x372 .\CortexM0\ARM_GCC_541\Debug\OS3.a(PWM_Red.o)
 .debug_line    0x000045f4       0xc1 .\CortexM0\ARM_GCC_541\Debug\OS3.a(Accel_Pin.o)
 .debug_line    0x000046b5      0x13b .\CortexM0\ARM_GCC_541\Debug\OS3.a(I2C.o)
 .debug_line    0x000047f0       0xb8 .\CortexM0\ARM_GCC_541\Debug\OS3.a(I2C_I2C.o)
 .debug_line    0x000048a8      0x2f1 .\CortexM0\ARM_GCC_541\Debug\OS3.a(I2C_I2C_MASTER.o)
 .debug_line    0x00004b99       0xbb .\CortexM0\ARM_GCC_541\Debug\OS3.a(SW2.o)
 .debug_line    0x00004c54      0x158 .\CortexM0\ARM_GCC_541\Debug\OS3.a(Accel_ISR.o)
 .debug_line    0x00004dac      0x133 .\CortexM0\ARM_GCC_541\Debug\OS3.a(Temp_Sensor.o)
 .debug_line    0x00004edf       0xb4 .\CortexM0\ARM_GCC_541\Debug\OS3.a(Temp_Sensor_INT.o)
 .debug_line    0x00004f93       0xc2 .\CortexM0\ARM_GCC_541\Debug\OS3.a(Opamp.o)
 .debug_line    0x00005055      0x293 .\CortexM0\ARM_GCC_541\Debug\OS3.a(ADC.o)
 .debug_line    0x000052e8       0x62 .\CortexM0\ARM_GCC_541\Debug\OS3.a(ADC_INT.o)
 .debug_line    0x0000534a       0xbf .\CortexM0\ARM_GCC_541\Debug\OS3.a(I2C_sda.o)
 .debug_line    0x00005409       0xbf .\CortexM0\ARM_GCC_541\Debug\OS3.a(I2C_scl.o)
 .debug_line    0x000054c8      0x152 .\CortexM0\ARM_GCC_541\Debug\OS3.a(Temp_Sensor_EOC_ISR.o)
 .debug_line    0x0000561a      0x47b .\CortexM0\ARM_GCC_541\Debug\OS3.a(CyLib.o)
 .debug_line    0x00005a95      0x504 .\CortexM0\ARM_GCC_541\Debug\OS3.a(CyLFClk.o)
 .debug_line    0x00005f99       0x69 .\CortexM0\ARM_GCC_541\Debug\OS3.a(CyBootAsmGnu.o)
 .debug_line    0x00006002      0x1a6 .\CortexM0\ARM_GCC_541\Debug\OS3.a(I2C_I2C_INT.o)

.debug_frame    0x00000000     0x4aec
 *(.debug_frame)
 .debug_frame   0x00000000       0xb0 .\CortexM0\ARM_GCC_541\Debug\app.o
 .debug_frame   0x000000b0      0x118 .\CortexM0\ARM_GCC_541\Debug\os_app_hooks.o
 .debug_frame   0x000001c8       0xb0 .\CortexM0\ARM_GCC_541\Debug\bsp_os.o
 .debug_frame   0x00000278       0x78 .\CortexM0\ARM_GCC_541\Debug\cpu_bsp.o
 .debug_frame   0x000002f0      0x1b0 .\CortexM0\ARM_GCC_541\Debug\bsp.o
 .debug_frame   0x000004a0      0x110 .\CortexM0\ARM_GCC_541\Debug\cpu_c.o
 .debug_frame   0x000005b0      0x384 .\CortexM0\ARM_GCC_541\Debug\cpu_core.o
 .debug_frame   0x00000934      0x160 .\CortexM0\ARM_GCC_541\Debug\os_cpu_c.o
 .debug_frame   0x00000a94       0x2c .\CortexM0\ARM_GCC_541\Debug\os_cfg_app.o
 .debug_frame   0x00000ac0      0x45c .\CortexM0\ARM_GCC_541\Debug\os_core.o
 .debug_frame   0x00000f1c       0x30 .\CortexM0\ARM_GCC_541\Debug\os_dbg.o
 .debug_frame   0x00000f4c       0x90 .\CortexM0\ARM_GCC_541\Debug\os_prio.o
 .debug_frame   0x00000fdc      0x154 .\CortexM0\ARM_GCC_541\Debug\os_sem.o
 .debug_frame   0x00001130       0x9c .\CortexM0\ARM_GCC_541\Debug\os_stat.o
 .debug_frame   0x000011cc      0x278 .\CortexM0\ARM_GCC_541\Debug\os_task.o
 .debug_frame   0x00001444       0xfc .\CortexM0\ARM_GCC_541\Debug\os_tick.o
 .debug_frame   0x00001540       0xb8 .\CortexM0\ARM_GCC_541\Debug\os_time.o
 .debug_frame   0x000015f8      0x1bc .\CortexM0\ARM_GCC_541\Debug\os_tmr.o
 .debug_frame   0x000017b4      0x214 .\CortexM0\ARM_GCC_541\Debug\lib_ascii.o
 .debug_frame   0x000019c8       0x8c .\CortexM0\ARM_GCC_541\Debug\lib_math.o
 .debug_frame   0x00001a54       0xcc .\CortexM0\ARM_GCC_541\Debug\lib_mem.o
 .debug_frame   0x00001b20      0x334 .\CortexM0\ARM_GCC_541\Debug\lib_str.o
 .debug_frame   0x00001e54      0x108 .\CortexM0\ARM_GCC_541\Debug\cyfitter_cfg.o
 .debug_frame   0x00001f5c       0xc8 .\CortexM0\ARM_GCC_541\Debug\Cm0Start.o
 .debug_frame   0x00002024      0x52c .\CortexM0\ARM_GCC_541\Debug\OS3.a(PWM_Blue.o)
 .debug_frame   0x00002550      0x52c .\CortexM0\ARM_GCC_541\Debug\OS3.a(PWM_Green.o)
 .debug_frame   0x00002a7c      0x52c .\CortexM0\ARM_GCC_541\Debug\OS3.a(PWM_Red.o)
 .debug_frame   0x00002fa8       0xc8 .\CortexM0\ARM_GCC_541\Debug\OS3.a(Accel_Pin.o)
 .debug_frame   0x00003070      0x150 .\CortexM0\ARM_GCC_541\Debug\OS3.a(I2C.o)
 .debug_frame   0x000031c0       0x64 .\CortexM0\ARM_GCC_541\Debug\OS3.a(I2C_I2C.o)
 .debug_frame   0x00003224      0x200 .\CortexM0\ARM_GCC_541\Debug\OS3.a(I2C_I2C_MASTER.o)
 .debug_frame   0x00003424       0xc8 .\CortexM0\ARM_GCC_541\Debug\OS3.a(SW2.o)
 .debug_frame   0x000034ec      0x190 .\CortexM0\ARM_GCC_541\Debug\OS3.a(Accel_ISR.o)
 .debug_frame   0x0000367c      0x134 .\CortexM0\ARM_GCC_541\Debug\OS3.a(Temp_Sensor.o)
 .debug_frame   0x000037b0       0x34 .\CortexM0\ARM_GCC_541\Debug\OS3.a(Temp_Sensor_INT.o)
 .debug_frame   0x000037e4       0xc0 .\CortexM0\ARM_GCC_541\Debug\OS3.a(Opamp.o)
 .debug_frame   0x000038a4      0x248 .\CortexM0\ARM_GCC_541\Debug\OS3.a(ADC.o)
 .debug_frame   0x00003aec       0x30 .\CortexM0\ARM_GCC_541\Debug\OS3.a(ADC_INT.o)
 .debug_frame   0x00003b1c       0xc8 .\CortexM0\ARM_GCC_541\Debug\OS3.a(I2C_sda.o)
 .debug_frame   0x00003be4       0xc8 .\CortexM0\ARM_GCC_541\Debug\OS3.a(I2C_scl.o)
 .debug_frame   0x00003cac      0x190 .\CortexM0\ARM_GCC_541\Debug\OS3.a(Temp_Sensor_EOC_ISR.o)
 .debug_frame   0x00003e3c      0x588 .\CortexM0\ARM_GCC_541\Debug\OS3.a(CyLib.o)
 .debug_frame   0x000043c4      0x480 .\CortexM0\ARM_GCC_541\Debug\OS3.a(CyLFClk.o)
 .debug_frame   0x00004844       0x30 .\CortexM0\ARM_GCC_541\Debug\OS3.a(I2C_I2C_INT.o)
 .debug_frame   0x00004874       0x20 c:/program files (x86)/cypress/psoc creator/4.2/psoc creator/import/gnu/arm/5.4.1/bin/../lib/gcc/arm-none-eabi/5.4.1/armv6-m\libgcc.a(_udivsi3.o)
 .debug_frame   0x00004894       0x20 c:/program files (x86)/cypress/psoc creator/4.2/psoc creator/import/gnu/arm/5.4.1/bin/../lib/gcc/arm-none-eabi/5.4.1/armv6-m\libgcc.a(_divsi3.o)
 .debug_frame   0x000048b4       0x34 c:/program files (x86)/cypress/psoc creator/4.2/psoc creator/import/gnu/arm/5.4.1/bin/../lib/gcc/arm-none-eabi/5.4.1/armv6-m\libgcc.a(_muldi3.o)
 .debug_frame   0x000048e8       0x3c c:/program files (x86)/cypress/psoc creator/4.2/psoc creator/import/gnu/arm/5.4.1/bin/../lib/gcc/arm-none-eabi/5.4.1/armv6-m\libgcc.a(_udivmoddi4.o)
 .debug_frame   0x00004924       0x30 c:/program files (x86)/cypress/psoc creator/4.2/psoc creator/import/gnu/arm/5.4.1/bin/../lib/gcc/arm-none-eabi/5.4.1/armv6-m\libgcc.a(bpabi.o)
 .debug_frame   0x00004954       0x3c c:/program files (x86)/cypress/psoc creator/4.2/psoc creator/import/gnu/arm/5.4.1/bin/../lib/gcc/arm-none-eabi/5.4.1/armv6-m\libgcc.a(divsf3.o)
 .debug_frame   0x00004990       0x38 c:/program files (x86)/cypress/psoc creator/4.2/psoc creator/import/gnu/arm/5.4.1/bin/../lib/gcc/arm-none-eabi/5.4.1/armv6-m\libgcc.a(mulsf3.o)
 .debug_frame   0x000049c8       0x2c c:/program files (x86)/cypress/psoc creator/4.2/psoc creator/import/gnu/arm/5.4.1/bin/../lib/gcc/arm-none-eabi/5.4.1/armv6-m\libgcc.a(floatsisf.o)
 .debug_frame   0x000049f4       0x3c c:/program files (x86)/cypress/psoc creator/4.2/psoc creator/import/gnu/arm/5.4.1/bin/../lib/gcc/arm-none-eabi/5.4.1/armv6-m\libgcc.a(_divdi3.o)
 .debug_frame   0x00004a30       0x20 c:/program files (x86)/cypress/psoc creator/4.2/psoc creator/import/gnu/arm/5.4.1/bin/../lib/gcc/arm-none-eabi/5.4.1/../../../../arm-none-eabi/lib/armv6-m\libg_nano.a(lib_a-errno.o)
 .debug_frame   0x00004a50       0x28 c:/program files (x86)/cypress/psoc creator/4.2/psoc creator/import/gnu/arm/5.4.1/bin/../lib/gcc/arm-none-eabi/5.4.1/../../../../arm-none-eabi/lib/armv6-m\libg_nano.a(lib_a-exit.o)
 .debug_frame   0x00004a78       0x2c c:/program files (x86)/cypress/psoc creator/4.2/psoc creator/import/gnu/arm/5.4.1/bin/../lib/gcc/arm-none-eabi/5.4.1/../../../../arm-none-eabi/lib/armv6-m\libg_nano.a(lib_a-init.o)
 .debug_frame   0x00004aa4       0x28 c:/program files (x86)/cypress/psoc creator/4.2/psoc creator/import/gnu/arm/5.4.1/bin/../lib/gcc/arm-none-eabi/5.4.1/../../../../arm-none-eabi/lib/armv6-m\libg_nano.a(lib_a-memcpy-stub.o)
 .debug_frame   0x00004acc       0x20 c:/program files (x86)/cypress/psoc creator/4.2/psoc creator/import/gnu/arm/5.4.1/bin/../lib/gcc/arm-none-eabi/5.4.1/../../../../arm-none-eabi/lib/armv6-m\libg_nano.a(lib_a-memset.o)

.debug_str      0x00000000     0x6351
 *(.debug_str)
 .debug_str     0x00000000     0x1234 .\CortexM0\ARM_GCC_541\Debug\app.o
                               0x12c3 (size before relaxing)
 .debug_str     0x00001234       0xce .\CortexM0\ARM_GCC_541\Debug\os_app_hooks.o
                                0x591 (size before relaxing)
 .debug_str     0x00001302       0xe2 .\CortexM0\ARM_GCC_541\Debug\bsp_os.o
                               0x120e (size before relaxing)
 .debug_str     0x000013e4       0x98 .\CortexM0\ARM_GCC_541\Debug\cpu_bsp.o
                                0x253 (size before relaxing)
 .debug_str     0x0000147c      0x207 .\CortexM0\ARM_GCC_541\Debug\bsp.o
                                0x411 (size before relaxing)
 .debug_str     0x00001683      0x119 .\CortexM0\ARM_GCC_541\Debug\cpu_c.o
                                0x2fe (size before relaxing)
 .debug_str     0x0000179c      0x3ce .\CortexM0\ARM_GCC_541\Debug\cpu_core.o
                                0x5ee (size before relaxing)
 .debug_str     0x00001b6a      0x17e .\CortexM0\ARM_GCC_541\Debug\os_cpu_c.o
                                0x68c (size before relaxing)
 .debug_str     0x00001ce8      0x467 .\CortexM0\ARM_GCC_541\Debug\os_cfg_app.o
                                0x995 (size before relaxing)
 .debug_str     0x0000214f      0x3f2 .\CortexM0\ARM_GCC_541\Debug\os_core.o
                               0x15b9 (size before relaxing)
 .debug_str     0x00002541      0x76f .\CortexM0\ARM_GCC_541\Debug\os_dbg.o
                                0xdde (size before relaxing)
 .debug_str     0x00002cb0       0x35 .\CortexM0\ARM_GCC_541\Debug\os_flag.o
                                0x1dc (size before relaxing)
 .debug_str     0x00002ce5       0x34 .\CortexM0\ARM_GCC_541\Debug\os_int.o
                                0x1db (size before relaxing)
 .debug_str     0x00002d19       0x34 .\CortexM0\ARM_GCC_541\Debug\os_mem.o
                                0x1db (size before relaxing)
 .debug_str     0x00002d4d       0x34 .\CortexM0\ARM_GCC_541\Debug\os_mon.o
                                0x1db (size before relaxing)
 .debug_str     0x00002d81       0x34 .\CortexM0\ARM_GCC_541\Debug\os_msg.o
                                0x1db (size before relaxing)
 .debug_str     0x00002db5       0x36 .\CortexM0\ARM_GCC_541\Debug\os_mutex.o
                                0x1dd (size before relaxing)
 .debug_str     0x00002deb       0x3b .\CortexM0\ARM_GCC_541\Debug\os_pend_multi.o
                                0x1e2 (size before relaxing)
 .debug_str     0x00002e26       0x75 .\CortexM0\ARM_GCC_541\Debug\os_prio.o
                                0x25a (size before relaxing)
 .debug_str     0x00002e9b       0x32 .\CortexM0\ARM_GCC_541\Debug\os_q.o
                                0x1d9 (size before relaxing)
 .debug_str     0x00002ecd       0xcb .\CortexM0\ARM_GCC_541\Debug\os_sem.o
                               0x12aa (size before relaxing)
 .debug_str     0x00002f98       0x9d .\CortexM0\ARM_GCC_541\Debug\os_stat.o
                               0x137f (size before relaxing)
 .debug_str     0x00003035      0x19d .\CortexM0\ARM_GCC_541\Debug\os_task.o
                               0x1426 (size before relaxing)
 .debug_str     0x000031d2       0xe1 .\CortexM0\ARM_GCC_541\Debug\os_tick.o
                               0x132c (size before relaxing)
 .debug_str     0x000032b3       0xae .\CortexM0\ARM_GCC_541\Debug\os_time.o
                               0x128e (size before relaxing)
 .debug_str     0x00003361      0x157 .\CortexM0\ARM_GCC_541\Debug\os_tmr.o
                               0x1475 (size before relaxing)
 .debug_str     0x000034b8       0x34 .\CortexM0\ARM_GCC_541\Debug\os_var.o
                                0x7d9 (size before relaxing)
 .debug_str     0x000034ec      0x160 .\CortexM0\ARM_GCC_541\Debug\lib_ascii.o
                                0x304 (size before relaxing)
 .debug_str     0x0000364c       0x88 .\CortexM0\ARM_GCC_541\Debug\lib_math.o
                                0x248 (size before relaxing)
 .debug_str     0x000036d4      0x193 .\CortexM0\ARM_GCC_541\Debug\lib_mem.o
                                0x389 (size before relaxing)
 .debug_str     0x00003867      0x482 .\CortexM0\ARM_GCC_541\Debug\lib_str.o
                                0x6b4 (size before relaxing)
 .debug_str     0x00003ce9      0x129 .\CortexM0\ARM_GCC_541\Debug\cyfitter_cfg.o
                                0x319 (size before relaxing)
 .debug_str     0x00003e12       0x63 .\CortexM0\ARM_GCC_541\Debug\cymetadata.o
                                0x1f4 (size before relaxing)
 .debug_str     0x00003e75      0x113 .\CortexM0\ARM_GCC_541\Debug\Cm0Start.o
                                0x2fa (size before relaxing)
 .debug_str     0x00003f88      0x462 .\CortexM0\ARM_GCC_541\Debug\OS3.a(PWM_Blue.o)
                                0x62e (size before relaxing)
 .debug_str     0x000043ea      0x3cf .\CortexM0\ARM_GCC_541\Debug\OS3.a(PWM_Green.o)
                                0x658 (size before relaxing)
 .debug_str     0x000047b9      0x37b .\CortexM0\ARM_GCC_541\Debug\OS3.a(PWM_Red.o)
                                0x604 (size before relaxing)
 .debug_str     0x00004b34       0xc7 .\CortexM0\ARM_GCC_541\Debug\OS3.a(Accel_Pin.o)
                                0x27e (size before relaxing)
 .debug_str     0x00004bfb      0x11e .\CortexM0\ARM_GCC_541\Debug\OS3.a(I2C.o)
                                0x2d8 (size before relaxing)
 .debug_str     0x00004d19       0x8c .\CortexM0\ARM_GCC_541\Debug\OS3.a(I2C_I2C.o)
                                0x24d (size before relaxing)
 .debug_str     0x00004da5      0x2a5 .\CortexM0\ARM_GCC_541\Debug\OS3.a(I2C_I2C_MASTER.o)
                                0x4b9 (size before relaxing)
 .debug_str     0x0000504a       0x79 .\CortexM0\ARM_GCC_541\Debug\OS3.a(SW2.o)
                                0x254 (size before relaxing)
 .debug_str     0x000050c3      0x145 .\CortexM0\ARM_GCC_541\Debug\OS3.a(Accel_ISR.o)
                                0x321 (size before relaxing)
 .debug_str     0x00005208      0x180 .\CortexM0\ARM_GCC_541\Debug\OS3.a(Temp_Sensor.o)
                                0x361 (size before relaxing)
 .debug_str     0x00005388       0x4a .\CortexM0\ARM_GCC_541\Debug\OS3.a(Temp_Sensor_INT.o)
                                0x262 (size before relaxing)
 .debug_str     0x000053d2       0x9d .\CortexM0\ARM_GCC_541\Debug\OS3.a(Opamp.o)
                                0x242 (size before relaxing)
 .debug_str     0x0000546f      0x1d1 .\CortexM0\ARM_GCC_541\Debug\OS3.a(ADC.o)
                                0x3bf (size before relaxing)
 .debug_str     0x00005640       0x35 .\CortexM0\ARM_GCC_541\Debug\OS3.a(ADC_INT.o)
                                0x1e9 (size before relaxing)
 .debug_str     0x00005675       0x95 .\CortexM0\ARM_GCC_541\Debug\OS3.a(I2C_sda.o)
                                0x270 (size before relaxing)
 .debug_str     0x0000570a       0x95 .\CortexM0\ARM_GCC_541\Debug\OS3.a(I2C_scl.o)
                                0x270 (size before relaxing)
 .debug_str     0x0000579f      0x1aa .\CortexM0\ARM_GCC_541\Debug\OS3.a(Temp_Sensor_EOC_ISR.o)
                                0x3ad (size before relaxing)
 .debug_str     0x00005949      0x4a4 .\CortexM0\ARM_GCC_541\Debug\OS3.a(CyLib.o)
                                0x6a7 (size before relaxing)
 .debug_str     0x00005ded      0x51d .\CortexM0\ARM_GCC_541\Debug\OS3.a(CyLFClk.o)
                                0x72b (size before relaxing)
 .debug_str     0x0000630a       0x47 .\CortexM0\ARM_GCC_541\Debug\OS3.a(I2C_I2C_INT.o)
                                0x2d6 (size before relaxing)

.debug_loc
 *(.debug_loc)

.debug_macinfo
 *(.debug_macinfo)

.debug_ranges   0x00000000     0x12e8
 *(.debug_ranges)
 .debug_ranges  0x00000000       0x30 .\CortexM0\ARM_GCC_541\Debug\app.o
 .debug_ranges  0x00000030       0x50 .\CortexM0\ARM_GCC_541\Debug\os_app_hooks.o
 .debug_ranges  0x00000080       0x30 .\CortexM0\ARM_GCC_541\Debug\bsp_os.o
 .debug_ranges  0x000000b0       0x20 .\CortexM0\ARM_GCC_541\Debug\cpu_bsp.o
 .debug_ranges  0x000000d0       0x70 .\CortexM0\ARM_GCC_541\Debug\bsp.o
 .debug_ranges  0x00000140       0x48 .\CortexM0\ARM_GCC_541\Debug\cpu_c.o
 .debug_ranges  0x00000188       0xe8 .\CortexM0\ARM_GCC_541\Debug\cpu_core.o
 .debug_ranges  0x00000270       0x60 .\CortexM0\ARM_GCC_541\Debug\os_cpu_c.o
 .debug_ranges  0x000002d0       0x10 .\CortexM0\ARM_GCC_541\Debug\os_cfg_app.o
 .debug_ranges  0x000002e0      0x118 .\CortexM0\ARM_GCC_541\Debug\os_core.o
 .debug_ranges  0x000003f8       0x10 .\CortexM0\ARM_GCC_541\Debug\os_dbg.o
 .debug_ranges  0x00000408       0x28 .\CortexM0\ARM_GCC_541\Debug\os_prio.o
 .debug_ranges  0x00000430       0x58 .\CortexM0\ARM_GCC_541\Debug\os_sem.o
 .debug_ranges  0x00000488       0x28 .\CortexM0\ARM_GCC_541\Debug\os_stat.o
 .debug_ranges  0x000004b0       0xa0 .\CortexM0\ARM_GCC_541\Debug\os_task.o
 .debug_ranges  0x00000550       0x40 .\CortexM0\ARM_GCC_541\Debug\os_tick.o
 .debug_ranges  0x00000590       0x30 .\CortexM0\ARM_GCC_541\Debug\os_time.o
 .debug_ranges  0x000005c0       0x70 .\CortexM0\ARM_GCC_541\Debug\os_tmr.o
 .debug_ranges  0x00000630       0x88 .\CortexM0\ARM_GCC_541\Debug\lib_ascii.o
 .debug_ranges  0x000006b8       0x28 .\CortexM0\ARM_GCC_541\Debug\lib_math.o
 .debug_ranges  0x000006e0       0x38 .\CortexM0\ARM_GCC_541\Debug\lib_mem.o
 .debug_ranges  0x00000718       0xc8 .\CortexM0\ARM_GCC_541\Debug\lib_str.o
 .debug_ranges  0x000007e0       0x48 .\CortexM0\ARM_GCC_541\Debug\cyfitter_cfg.o
 .debug_ranges  0x00000828       0x38 .\CortexM0\ARM_GCC_541\Debug\Cm0Start.o
 .debug_ranges  0x00000860      0x148 .\CortexM0\ARM_GCC_541\Debug\OS3.a(PWM_Blue.o)
 .debug_ranges  0x000009a8      0x148 .\CortexM0\ARM_GCC_541\Debug\OS3.a(PWM_Green.o)
 .debug_ranges  0x00000af0      0x148 .\CortexM0\ARM_GCC_541\Debug\OS3.a(PWM_Red.o)
 .debug_ranges  0x00000c38       0x38 .\CortexM0\ARM_GCC_541\Debug\OS3.a(Accel_Pin.o)
 .debug_ranges  0x00000c70       0x60 .\CortexM0\ARM_GCC_541\Debug\OS3.a(I2C.o)
 .debug_ranges  0x00000cd0       0x20 .\CortexM0\ARM_GCC_541\Debug\OS3.a(I2C_I2C.o)
 .debug_ranges  0x00000cf0       0x88 .\CortexM0\ARM_GCC_541\Debug\OS3.a(I2C_I2C_MASTER.o)
 .debug_ranges  0x00000d78       0x38 .\CortexM0\ARM_GCC_541\Debug\OS3.a(SW2.o)
 .debug_ranges  0x00000db0       0x70 .\CortexM0\ARM_GCC_541\Debug\OS3.a(Accel_ISR.o)
 .debug_ranges  0x00000e20       0x50 .\CortexM0\ARM_GCC_541\Debug\OS3.a(Temp_Sensor.o)
 .debug_ranges  0x00000e70       0x10 .\CortexM0\ARM_GCC_541\Debug\OS3.a(Temp_Sensor_INT.o)
 .debug_ranges  0x00000e80       0x38 .\CortexM0\ARM_GCC_541\Debug\OS3.a(Opamp.o)
 .debug_ranges  0x00000eb8       0x98 .\CortexM0\ARM_GCC_541\Debug\OS3.a(ADC.o)
 .debug_ranges  0x00000f50       0x10 .\CortexM0\ARM_GCC_541\Debug\OS3.a(ADC_INT.o)
 .debug_ranges  0x00000f60       0x38 .\CortexM0\ARM_GCC_541\Debug\OS3.a(I2C_sda.o)
 .debug_ranges  0x00000f98       0x38 .\CortexM0\ARM_GCC_541\Debug\OS3.a(I2C_scl.o)
 .debug_ranges  0x00000fd0       0x70 .\CortexM0\ARM_GCC_541\Debug\OS3.a(Temp_Sensor_EOC_ISR.o)
 .debug_ranges  0x00001040      0x170 .\CortexM0\ARM_GCC_541\Debug\OS3.a(CyLib.o)
 .debug_ranges  0x000011b0      0x128 .\CortexM0\ARM_GCC_541\Debug\OS3.a(CyLFClk.o)
 .debug_ranges  0x000012d8       0x10 .\CortexM0\ARM_GCC_541\Debug\OS3.a(I2C_I2C_INT.o)

.comment        0x00000000       0x6e
 .comment       0x00000000       0x6e .\CortexM0\ARM_GCC_541\Debug\app.o
                                 0x6f (size before relaxing)
 .comment       0x0000006e       0x6f .\CortexM0\ARM_GCC_541\Debug\os_app_hooks.o
 .comment       0x0000006e       0x6f .\CortexM0\ARM_GCC_541\Debug\bsp_os.o
 .comment       0x0000006e       0x6f .\CortexM0\ARM_GCC_541\Debug\cpu_bsp.o
 .comment       0x0000006e       0x6f .\CortexM0\ARM_GCC_541\Debug\bsp.o
 .comment       0x0000006e       0x6f .\CortexM0\ARM_GCC_541\Debug\cpu_c.o
 .comment       0x0000006e       0x6f .\CortexM0\ARM_GCC_541\Debug\cpu_core.o
 .comment       0x0000006e       0x6f .\CortexM0\ARM_GCC_541\Debug\os_cpu_c.o
 .comment       0x0000006e       0x6f .\CortexM0\ARM_GCC_541\Debug\os_cfg_app.o
 .comment       0x0000006e       0x6f .\CortexM0\ARM_GCC_541\Debug\os_core.o
 .comment       0x0000006e       0x6f .\CortexM0\ARM_GCC_541\Debug\os_dbg.o
 .comment       0x0000006e       0x6f .\CortexM0\ARM_GCC_541\Debug\os_flag.o
 .comment       0x0000006e       0x6f .\CortexM0\ARM_GCC_541\Debug\os_int.o
 .comment       0x0000006e       0x6f .\CortexM0\ARM_GCC_541\Debug\os_mem.o
 .comment       0x0000006e       0x6f .\CortexM0\ARM_GCC_541\Debug\os_mon.o
 .comment       0x0000006e       0x6f .\CortexM0\ARM_GCC_541\Debug\os_msg.o
 .comment       0x0000006e       0x6f .\CortexM0\ARM_GCC_541\Debug\os_mutex.o
 .comment       0x0000006e       0x6f .\CortexM0\ARM_GCC_541\Debug\os_pend_multi.o
 .comment       0x0000006e       0x6f .\CortexM0\ARM_GCC_541\Debug\os_prio.o
 .comment       0x0000006e       0x6f .\CortexM0\ARM_GCC_541\Debug\os_q.o
 .comment       0x0000006e       0x6f .\CortexM0\ARM_GCC_541\Debug\os_sem.o
 .comment       0x0000006e       0x6f .\CortexM0\ARM_GCC_541\Debug\os_stat.o
 .comment       0x0000006e       0x6f .\CortexM0\ARM_GCC_541\Debug\os_task.o
 .comment       0x0000006e       0x6f .\CortexM0\ARM_GCC_541\Debug\os_tick.o
 .comment       0x0000006e       0x6f .\CortexM0\ARM_GCC_541\Debug\os_time.o
 .comment       0x0000006e       0x6f .\CortexM0\ARM_GCC_541\Debug\os_tmr.o
 .comment       0x0000006e       0x6f .\CortexM0\ARM_GCC_541\Debug\os_var.o
 .comment       0x0000006e       0x6f .\CortexM0\ARM_GCC_541\Debug\lib_ascii.o
 .comment       0x0000006e       0x6f .\CortexM0\ARM_GCC_541\Debug\lib_math.o
 .comment       0x0000006e       0x6f .\CortexM0\ARM_GCC_541\Debug\lib_mem.o
 .comment       0x0000006e       0x6f .\CortexM0\ARM_GCC_541\Debug\lib_str.o
 .comment       0x0000006e       0x6f .\CortexM0\ARM_GCC_541\Debug\cyfitter_cfg.o
 .comment       0x0000006e       0x6f .\CortexM0\ARM_GCC_541\Debug\cymetadata.o
 .comment       0x0000006e       0x6f .\CortexM0\ARM_GCC_541\Debug\Cm0Start.o
 .comment       0x0000006e       0x6f .\CortexM0\ARM_GCC_541\Debug\OS3.a(PWM_Blue.o)
 .comment       0x0000006e       0x6f .\CortexM0\ARM_GCC_541\Debug\OS3.a(PWM_Green.o)
 .comment       0x0000006e       0x6f .\CortexM0\ARM_GCC_541\Debug\OS3.a(PWM_Red.o)
 .comment       0x0000006e       0x6f .\CortexM0\ARM_GCC_541\Debug\OS3.a(Accel_Pin.o)
 .comment       0x0000006e       0x6f .\CortexM0\ARM_GCC_541\Debug\OS3.a(I2C.o)
 .comment       0x0000006e       0x6f .\CortexM0\ARM_GCC_541\Debug\OS3.a(I2C_I2C.o)
 .comment       0x0000006e       0x6f .\CortexM0\ARM_GCC_541\Debug\OS3.a(I2C_I2C_MASTER.o)
 .comment       0x0000006e       0x6f .\CortexM0\ARM_GCC_541\Debug\OS3.a(SW2.o)
 .comment       0x0000006e       0x6f .\CortexM0\ARM_GCC_541\Debug\OS3.a(Accel_ISR.o)
 .comment       0x0000006e       0x6f .\CortexM0\ARM_GCC_541\Debug\OS3.a(Temp_Sensor.o)
 .comment       0x0000006e       0x6f .\CortexM0\ARM_GCC_541\Debug\OS3.a(Temp_Sensor_INT.o)
 .comment       0x0000006e       0x6f .\CortexM0\ARM_GCC_541\Debug\OS3.a(Opamp.o)
 .comment       0x0000006e       0x6f .\CortexM0\ARM_GCC_541\Debug\OS3.a(ADC.o)
 .comment       0x0000006e       0x6f .\CortexM0\ARM_GCC_541\Debug\OS3.a(ADC_INT.o)
 .comment       0x0000006e       0x6f .\CortexM0\ARM_GCC_541\Debug\OS3.a(I2C_sda.o)
 .comment       0x0000006e       0x6f .\CortexM0\ARM_GCC_541\Debug\OS3.a(I2C_scl.o)
 .comment       0x0000006e       0x6f .\CortexM0\ARM_GCC_541\Debug\OS3.a(Temp_Sensor_EOC_ISR.o)
 .comment       0x0000006e       0x6f .\CortexM0\ARM_GCC_541\Debug\OS3.a(CyLib.o)
 .comment       0x0000006e       0x6f .\CortexM0\ARM_GCC_541\Debug\OS3.a(CyLFClk.o)
 .comment       0x0000006e       0x6f .\CortexM0\ARM_GCC_541\Debug\OS3.a(I2C_I2C_INT.o)

.debug_weaknames
 *(.debug_weaknames)

.debug_funcnames
 *(.debug_funcnames)

.debug_typenames
 *(.debug_typenames)

.debug_varnames
 *(.debug_varnames)

.note.gnu.arm.ident
 *(.note.gnu.arm.ident)

.ARM.attributes
                0x00000000       0x28
 *(.ARM.attributes)
 .ARM.attributes
                0x00000000       0x1e c:/program files (x86)/cypress/psoc creator/4.2/psoc creator/import/gnu/arm/5.4.1/bin/../lib/gcc/arm-none-eabi/5.4.1/armv6-m/crti.o
 .ARM.attributes
                0x0000001e       0x2c c:/program files (x86)/cypress/psoc creator/4.2/psoc creator/import/gnu/arm/5.4.1/bin/../lib/gcc/arm-none-eabi/5.4.1/armv6-m/crtbegin.o
 .ARM.attributes
                0x0000004a       0x1b c:/program files (x86)/cypress/psoc creator/4.2/psoc creator/import/gnu/arm/5.4.1/bin/../lib/gcc/arm-none-eabi/5.4.1/../../../../arm-none-eabi/lib/armv6-m/crt0.o
 .ARM.attributes
                0x00000065       0x31 .\CortexM0\ARM_GCC_541\Debug\app.o
 .ARM.attributes
                0x00000096       0x31 .\CortexM0\ARM_GCC_541\Debug\os_app_hooks.o
 .ARM.attributes
                0x000000c7       0x31 .\CortexM0\ARM_GCC_541\Debug\bsp_os.o
 .ARM.attributes
                0x000000f8       0x31 .\CortexM0\ARM_GCC_541\Debug\cpu_bsp.o
 .ARM.attributes
                0x00000129       0x31 .\CortexM0\ARM_GCC_541\Debug\bsp.o
 .ARM.attributes
                0x0000015a       0x31 .\CortexM0\ARM_GCC_541\Debug\cpu_c.o
 .ARM.attributes
                0x0000018b       0x31 .\CortexM0\ARM_GCC_541\Debug\cpu_core.o
 .ARM.attributes
                0x000001bc       0x31 .\CortexM0\ARM_GCC_541\Debug\os_cpu_c.o
 .ARM.attributes
                0x000001ed       0x31 .\CortexM0\ARM_GCC_541\Debug\os_cfg_app.o
 .ARM.attributes
                0x0000021e       0x31 .\CortexM0\ARM_GCC_541\Debug\os_core.o
 .ARM.attributes
                0x0000024f       0x31 .\CortexM0\ARM_GCC_541\Debug\os_dbg.o
 .ARM.attributes
                0x00000280       0x31 .\CortexM0\ARM_GCC_541\Debug\os_flag.o
 .ARM.attributes
                0x000002b1       0x31 .\CortexM0\ARM_GCC_541\Debug\os_int.o
 .ARM.attributes
                0x000002e2       0x31 .\CortexM0\ARM_GCC_541\Debug\os_mem.o
 .ARM.attributes
                0x00000313       0x31 .\CortexM0\ARM_GCC_541\Debug\os_mon.o
 .ARM.attributes
                0x00000344       0x31 .\CortexM0\ARM_GCC_541\Debug\os_msg.o
 .ARM.attributes
                0x00000375       0x31 .\CortexM0\ARM_GCC_541\Debug\os_mutex.o
 .ARM.attributes
                0x000003a6       0x31 .\CortexM0\ARM_GCC_541\Debug\os_pend_multi.o
 .ARM.attributes
                0x000003d7       0x31 .\CortexM0\ARM_GCC_541\Debug\os_prio.o
 .ARM.attributes
                0x00000408       0x31 .\CortexM0\ARM_GCC_541\Debug\os_q.o
 .ARM.attributes
                0x00000439       0x31 .\CortexM0\ARM_GCC_541\Debug\os_sem.o
 .ARM.attributes
                0x0000046a       0x31 .\CortexM0\ARM_GCC_541\Debug\os_stat.o
 .ARM.attributes
                0x0000049b       0x31 .\CortexM0\ARM_GCC_541\Debug\os_task.o
 .ARM.attributes
                0x000004cc       0x31 .\CortexM0\ARM_GCC_541\Debug\os_tick.o
 .ARM.attributes
                0x000004fd       0x31 .\CortexM0\ARM_GCC_541\Debug\os_time.o
 .ARM.attributes
                0x0000052e       0x31 .\CortexM0\ARM_GCC_541\Debug\os_tmr.o
 .ARM.attributes
                0x0000055f       0x31 .\CortexM0\ARM_GCC_541\Debug\os_var.o
 .ARM.attributes
                0x00000590       0x31 .\CortexM0\ARM_GCC_541\Debug\lib_ascii.o
 .ARM.attributes
                0x000005c1       0x31 .\CortexM0\ARM_GCC_541\Debug\lib_math.o
 .ARM.attributes
                0x000005f2       0x31 .\CortexM0\ARM_GCC_541\Debug\lib_mem.o
 .ARM.attributes
                0x00000623       0x31 .\CortexM0\ARM_GCC_541\Debug\lib_str.o
 .ARM.attributes
                0x00000654       0x31 .\CortexM0\ARM_GCC_541\Debug\cyfitter_cfg.o
 .ARM.attributes
                0x00000685       0x31 .\CortexM0\ARM_GCC_541\Debug\cymetadata.o
 .ARM.attributes
                0x000006b6       0x31 .\CortexM0\ARM_GCC_541\Debug\Cm0Start.o
 .ARM.attributes
                0x000006e7       0x21 .\CortexM0\ARM_GCC_541\Debug\cpu_a.o
 .ARM.attributes
                0x00000708       0x21 .\CortexM0\ARM_GCC_541\Debug\os_cpu_a.o
 .ARM.attributes
                0x00000729       0x31 .\CortexM0\ARM_GCC_541\Debug\OS3.a(PWM_Blue.o)
 .ARM.attributes
                0x0000075a       0x31 .\CortexM0\ARM_GCC_541\Debug\OS3.a(PWM_Green.o)
 .ARM.attributes
                0x0000078b       0x31 .\CortexM0\ARM_GCC_541\Debug\OS3.a(PWM_Red.o)
 .ARM.attributes
                0x000007bc       0x31 .\CortexM0\ARM_GCC_541\Debug\OS3.a(Accel_Pin.o)
 .ARM.attributes
                0x000007ed       0x31 .\CortexM0\ARM_GCC_541\Debug\OS3.a(I2C.o)
 .ARM.attributes
                0x0000081e       0x31 .\CortexM0\ARM_GCC_541\Debug\OS3.a(I2C_I2C.o)
 .ARM.attributes
                0x0000084f       0x31 .\CortexM0\ARM_GCC_541\Debug\OS3.a(I2C_I2C_MASTER.o)
 .ARM.attributes
                0x00000880       0x31 .\CortexM0\ARM_GCC_541\Debug\OS3.a(SW2.o)
 .ARM.attributes
                0x000008b1       0x31 .\CortexM0\ARM_GCC_541\Debug\OS3.a(Accel_ISR.o)
 .ARM.attributes
                0x000008e2       0x31 .\CortexM0\ARM_GCC_541\Debug\OS3.a(Temp_Sensor.o)
 .ARM.attributes
                0x00000913       0x31 .\CortexM0\ARM_GCC_541\Debug\OS3.a(Temp_Sensor_INT.o)
 .ARM.attributes
                0x00000944       0x31 .\CortexM0\ARM_GCC_541\Debug\OS3.a(Opamp.o)
 .ARM.attributes
                0x00000975       0x31 .\CortexM0\ARM_GCC_541\Debug\OS3.a(ADC.o)
 .ARM.attributes
                0x000009a6       0x31 .\CortexM0\ARM_GCC_541\Debug\OS3.a(ADC_INT.o)
 .ARM.attributes
                0x000009d7       0x31 .\CortexM0\ARM_GCC_541\Debug\OS3.a(I2C_sda.o)
 .ARM.attributes
                0x00000a08       0x31 .\CortexM0\ARM_GCC_541\Debug\OS3.a(I2C_scl.o)
 .ARM.attributes
                0x00000a39       0x31 .\CortexM0\ARM_GCC_541\Debug\OS3.a(Temp_Sensor_EOC_ISR.o)
 .ARM.attributes
                0x00000a6a       0x31 .\CortexM0\ARM_GCC_541\Debug\OS3.a(CyLib.o)
 .ARM.attributes
                0x00000a9b       0x31 .\CortexM0\ARM_GCC_541\Debug\OS3.a(CyLFClk.o)
 .ARM.attributes
                0x00000acc       0x21 .\CortexM0\ARM_GCC_541\Debug\OS3.a(CyBootAsmGnu.o)
 .ARM.attributes
                0x00000aed       0x31 .\CortexM0\ARM_GCC_541\Debug\OS3.a(I2C_I2C_INT.o)
 .ARM.attributes
                0x00000b1e       0x1e c:/program files (x86)/cypress/psoc creator/4.2/psoc creator/import/gnu/arm/5.4.1/bin/../lib/gcc/arm-none-eabi/5.4.1/armv6-m\libgcc.a(_udivsi3.o)
 .ARM.attributes
                0x00000b3c       0x1e c:/program files (x86)/cypress/psoc creator/4.2/psoc creator/import/gnu/arm/5.4.1/bin/../lib/gcc/arm-none-eabi/5.4.1/armv6-m\libgcc.a(_divsi3.o)
 .ARM.attributes
                0x00000b5a       0x1e c:/program files (x86)/cypress/psoc creator/4.2/psoc creator/import/gnu/arm/5.4.1/bin/../lib/gcc/arm-none-eabi/5.4.1/armv6-m\libgcc.a(_dvmd_tls.o)
 .ARM.attributes
                0x00000b78       0x1e c:/program files (x86)/cypress/psoc creator/4.2/psoc creator/import/gnu/arm/5.4.1/bin/../lib/gcc/arm-none-eabi/5.4.1/armv6-m\libgcc.a(_aeabi_ldivmod.o)
 .ARM.attributes
                0x00000b96       0x1e c:/program files (x86)/cypress/psoc creator/4.2/psoc creator/import/gnu/arm/5.4.1/bin/../lib/gcc/arm-none-eabi/5.4.1/armv6-m\libgcc.a(_aeabi_uldivmod.o)
 .ARM.attributes
                0x00000bb4       0x2c c:/program files (x86)/cypress/psoc creator/4.2/psoc creator/import/gnu/arm/5.4.1/bin/../lib/gcc/arm-none-eabi/5.4.1/armv6-m\libgcc.a(_muldi3.o)
 .ARM.attributes
                0x00000be0       0x2c c:/program files (x86)/cypress/psoc creator/4.2/psoc creator/import/gnu/arm/5.4.1/bin/../lib/gcc/arm-none-eabi/5.4.1/armv6-m\libgcc.a(_udivmoddi4.o)
 .ARM.attributes
                0x00000c0c       0x2c c:/program files (x86)/cypress/psoc creator/4.2/psoc creator/import/gnu/arm/5.4.1/bin/../lib/gcc/arm-none-eabi/5.4.1/armv6-m\libgcc.a(bpabi.o)
 .ARM.attributes
                0x00000c38       0x2c c:/program files (x86)/cypress/psoc creator/4.2/psoc creator/import/gnu/arm/5.4.1/bin/../lib/gcc/arm-none-eabi/5.4.1/armv6-m\libgcc.a(divsf3.o)
 .ARM.attributes
                0x00000c64       0x2c c:/program files (x86)/cypress/psoc creator/4.2/psoc creator/import/gnu/arm/5.4.1/bin/../lib/gcc/arm-none-eabi/5.4.1/armv6-m\libgcc.a(mulsf3.o)
 .ARM.attributes
                0x00000c90       0x2c c:/program files (x86)/cypress/psoc creator/4.2/psoc creator/import/gnu/arm/5.4.1/bin/../lib/gcc/arm-none-eabi/5.4.1/armv6-m\libgcc.a(floatsisf.o)
 .ARM.attributes
                0x00000cbc       0x1e c:/program files (x86)/cypress/psoc creator/4.2/psoc creator/import/gnu/arm/5.4.1/bin/../lib/gcc/arm-none-eabi/5.4.1/armv6-m\libgcc.a(_clzsi2.o)
 .ARM.attributes
                0x00000cda       0x1e c:/program files (x86)/cypress/psoc creator/4.2/psoc creator/import/gnu/arm/5.4.1/bin/../lib/gcc/arm-none-eabi/5.4.1/armv6-m\libgcc.a(_clzdi2.o)
 .ARM.attributes
                0x00000cf8       0x2c c:/program files (x86)/cypress/psoc creator/4.2/psoc creator/import/gnu/arm/5.4.1/bin/../lib/gcc/arm-none-eabi/5.4.1/armv6-m\libgcc.a(_divdi3.o)
 .ARM.attributes
                0x00000d24       0x2c c:/program files (x86)/cypress/psoc creator/4.2/psoc creator/import/gnu/arm/5.4.1/bin/../lib/gcc/arm-none-eabi/5.4.1/../../../../arm-none-eabi/lib/armv6-m\libg_nano.a(lib_a-errno.o)
 .ARM.attributes
                0x00000d50       0x2c c:/program files (x86)/cypress/psoc creator/4.2/psoc creator/import/gnu/arm/5.4.1/bin/../lib/gcc/arm-none-eabi/5.4.1/../../../../arm-none-eabi/lib/armv6-m\libg_nano.a(lib_a-exit.o)
 .ARM.attributes
                0x00000d7c       0x2c c:/program files (x86)/cypress/psoc creator/4.2/psoc creator/import/gnu/arm/5.4.1/bin/../lib/gcc/arm-none-eabi/5.4.1/../../../../arm-none-eabi/lib/armv6-m\libg_nano.a(lib_a-impure.o)
 .ARM.attributes
                0x00000da8       0x2c c:/program files (x86)/cypress/psoc creator/4.2/psoc creator/import/gnu/arm/5.4.1/bin/../lib/gcc/arm-none-eabi/5.4.1/../../../../arm-none-eabi/lib/armv6-m\libg_nano.a(lib_a-init.o)
 .ARM.attributes
                0x00000dd4       0x2c c:/program files (x86)/cypress/psoc creator/4.2/psoc creator/import/gnu/arm/5.4.1/bin/../lib/gcc/arm-none-eabi/5.4.1/../../../../arm-none-eabi/lib/armv6-m\libg_nano.a(lib_a-memcpy-stub.o)
 .ARM.attributes
                0x00000e00       0x2c c:/program files (x86)/cypress/psoc creator/4.2/psoc creator/import/gnu/arm/5.4.1/bin/../lib/gcc/arm-none-eabi/5.4.1/../../../../arm-none-eabi/lib/armv6-m\libg_nano.a(lib_a-memset.o)
 .ARM.attributes
                0x00000e2c       0x2c c:/program files (x86)/cypress/psoc creator/4.2/psoc creator/import/gnu/arm/5.4.1/bin/../lib/gcc/arm-none-eabi/5.4.1/armv6-m/crtend.o
 .ARM.attributes
                0x00000e58       0x1e c:/program files (x86)/cypress/psoc creator/4.2/psoc creator/import/gnu/arm/5.4.1/bin/../lib/gcc/arm-none-eabi/5.4.1/armv6-m/crtn.o

/DISCARD/
 *(.note.GNU-stack)
OUTPUT(C:\Users\edulu.DESKTOP-961TG4K\Documents\PSoC Creator\Micrium\Examples\Cypress\CY8CKIT-044\OS3\PSoC\OS3.cydsn\CortexM0\ARM_GCC_541\Debug\OS3.elf elf32-littlearm)
