ARM GAS  C:\Users\EDULU~1.DES\AppData\Local\Temp\ccgbquJH.s 			page 1


   1              		.syntax unified
   2              		.cpu cortex-m0
   3              		.fpu softvfp
   4              		.eabi_attribute 20, 1
   5              		.eabi_attribute 21, 1
   6              		.eabi_attribute 23, 3
   7              		.eabi_attribute 24, 1
   8              		.eabi_attribute 25, 1
   9              		.eabi_attribute 26, 1
  10              		.eabi_attribute 30, 6
  11              		.eabi_attribute 34, 0
  12              		.eabi_attribute 18, 4
  13              		.thumb
  14              		.syntax unified
  15              		.file	"os_cpu_c.c"
  16              		.text
  17              	.Ltext0:
  18              		.cfi_sections	.debug_frame
  19              		.comm	OS_CPU_ExceptStkBase,4,4
  20              		.section	.text.OSIdleTaskHook,"ax",%progbits
  21              		.align	2
  22              		.global	OSIdleTaskHook
  23              		.code	16
  24              		.thumb_func
  25              		.type	OSIdleTaskHook, %function
  26              	OSIdleTaskHook:
  27              	.LFB1:
  28              		.file 1 "..\\..\\..\\..\\..\\..\\Software\\uCOS-III\\Ports\\ARM-Cortex-M0\\Generic\\GNU\\os_cpu_c.
   1:..\..\..\..\..\..\Software\uCOS-III\Ports\ARM-Cortex-M0\Generic\GNU/os_cpu_c.c **** /*
   2:..\..\..\..\..\..\Software\uCOS-III\Ports\ARM-Cortex-M0\Generic\GNU/os_cpu_c.c **** ***************************************************************************************************
   3:..\..\..\..\..\..\Software\uCOS-III\Ports\ARM-Cortex-M0\Generic\GNU/os_cpu_c.c **** *                                                uC/OS-III
   4:..\..\..\..\..\..\Software\uCOS-III\Ports\ARM-Cortex-M0\Generic\GNU/os_cpu_c.c **** *                                          The Real-Time Kernel
   5:..\..\..\..\..\..\Software\uCOS-III\Ports\ARM-Cortex-M0\Generic\GNU/os_cpu_c.c **** *
   6:..\..\..\..\..\..\Software\uCOS-III\Ports\ARM-Cortex-M0\Generic\GNU/os_cpu_c.c **** *
   7:..\..\..\..\..\..\Software\uCOS-III\Ports\ARM-Cortex-M0\Generic\GNU/os_cpu_c.c **** *                           (c) Copyright 2009-2015; Micrium, Inc.; Weston, FL
   8:..\..\..\..\..\..\Software\uCOS-III\Ports\ARM-Cortex-M0\Generic\GNU/os_cpu_c.c **** *                    All rights reserved.  Protected by international copyright laws.
   9:..\..\..\..\..\..\Software\uCOS-III\Ports\ARM-Cortex-M0\Generic\GNU/os_cpu_c.c **** *
  10:..\..\..\..\..\..\Software\uCOS-III\Ports\ARM-Cortex-M0\Generic\GNU/os_cpu_c.c **** *                                           ARM Cortex-M0 Port
  11:..\..\..\..\..\..\Software\uCOS-III\Ports\ARM-Cortex-M0\Generic\GNU/os_cpu_c.c **** *
  12:..\..\..\..\..\..\Software\uCOS-III\Ports\ARM-Cortex-M0\Generic\GNU/os_cpu_c.c **** * File      : OS_CPU_C.C
  13:..\..\..\..\..\..\Software\uCOS-III\Ports\ARM-Cortex-M0\Generic\GNU/os_cpu_c.c **** * Version   : V3.05.01
  14:..\..\..\..\..\..\Software\uCOS-III\Ports\ARM-Cortex-M0\Generic\GNU/os_cpu_c.c **** * By        : JJL
  15:..\..\..\..\..\..\Software\uCOS-III\Ports\ARM-Cortex-M0\Generic\GNU/os_cpu_c.c **** *             BAN
  16:..\..\..\..\..\..\Software\uCOS-III\Ports\ARM-Cortex-M0\Generic\GNU/os_cpu_c.c **** *             MD
  17:..\..\..\..\..\..\Software\uCOS-III\Ports\ARM-Cortex-M0\Generic\GNU/os_cpu_c.c **** *             FF
  18:..\..\..\..\..\..\Software\uCOS-III\Ports\ARM-Cortex-M0\Generic\GNU/os_cpu_c.c **** *
  19:..\..\..\..\..\..\Software\uCOS-III\Ports\ARM-Cortex-M0\Generic\GNU/os_cpu_c.c **** * LICENSING TERMS:
  20:..\..\..\..\..\..\Software\uCOS-III\Ports\ARM-Cortex-M0\Generic\GNU/os_cpu_c.c **** * ---------------
  21:..\..\..\..\..\..\Software\uCOS-III\Ports\ARM-Cortex-M0\Generic\GNU/os_cpu_c.c **** *           uC/OS-III is provided in source form for FREE short-term evaluation, for educational us
  22:..\..\..\..\..\..\Software\uCOS-III\Ports\ARM-Cortex-M0\Generic\GNU/os_cpu_c.c **** *           for peaceful research.  If you plan or intend to use uC/OS-III in a commercial applicat
  23:..\..\..\..\..\..\Software\uCOS-III\Ports\ARM-Cortex-M0\Generic\GNU/os_cpu_c.c **** *           product then, you need to contact Micrium to properly license uC/OS-III for its use in 
  24:..\..\..\..\..\..\Software\uCOS-III\Ports\ARM-Cortex-M0\Generic\GNU/os_cpu_c.c **** *           application/product.   We provide ALL the source code for your convenience and to help 
  25:..\..\..\..\..\..\Software\uCOS-III\Ports\ARM-Cortex-M0\Generic\GNU/os_cpu_c.c **** *           experience uC/OS-III.  The fact that the source is provided does NOT mean that you can 
  26:..\..\..\..\..\..\Software\uCOS-III\Ports\ARM-Cortex-M0\Generic\GNU/os_cpu_c.c **** *           it commercially without paying a licensing fee.
  27:..\..\..\..\..\..\Software\uCOS-III\Ports\ARM-Cortex-M0\Generic\GNU/os_cpu_c.c **** *
  28:..\..\..\..\..\..\Software\uCOS-III\Ports\ARM-Cortex-M0\Generic\GNU/os_cpu_c.c **** *           Knowledge of the source code may NOT be used to develop a similar product.
  29:..\..\..\..\..\..\Software\uCOS-III\Ports\ARM-Cortex-M0\Generic\GNU/os_cpu_c.c **** *
ARM GAS  C:\Users\EDULU~1.DES\AppData\Local\Temp\ccgbquJH.s 			page 2


  30:..\..\..\..\..\..\Software\uCOS-III\Ports\ARM-Cortex-M0\Generic\GNU/os_cpu_c.c **** *           Please help us continue to provide the embedded community with the finest software avai
  31:..\..\..\..\..\..\Software\uCOS-III\Ports\ARM-Cortex-M0\Generic\GNU/os_cpu_c.c **** *           Your honesty is greatly appreciated.
  32:..\..\..\..\..\..\Software\uCOS-III\Ports\ARM-Cortex-M0\Generic\GNU/os_cpu_c.c **** *
  33:..\..\..\..\..\..\Software\uCOS-III\Ports\ARM-Cortex-M0\Generic\GNU/os_cpu_c.c **** *           You can find our product's user manual, API reference, release notes and
  34:..\..\..\..\..\..\Software\uCOS-III\Ports\ARM-Cortex-M0\Generic\GNU/os_cpu_c.c **** *           more information at https://doc.micrium.com.
  35:..\..\..\..\..\..\Software\uCOS-III\Ports\ARM-Cortex-M0\Generic\GNU/os_cpu_c.c **** *           You can contact us at www.micrium.com, or by phone at +1 (954) 217-2036.
  36:..\..\..\..\..\..\Software\uCOS-III\Ports\ARM-Cortex-M0\Generic\GNU/os_cpu_c.c **** *
  37:..\..\..\..\..\..\Software\uCOS-III\Ports\ARM-Cortex-M0\Generic\GNU/os_cpu_c.c **** * For       : ARMv6M Cortex-M0 or Cortex-M0+
  38:..\..\..\..\..\..\Software\uCOS-III\Ports\ARM-Cortex-M0\Generic\GNU/os_cpu_c.c **** * Mode      : Thumb2
  39:..\..\..\..\..\..\Software\uCOS-III\Ports\ARM-Cortex-M0\Generic\GNU/os_cpu_c.c **** * Toolchain : GNU C Compiler
  40:..\..\..\..\..\..\Software\uCOS-III\Ports\ARM-Cortex-M0\Generic\GNU/os_cpu_c.c **** *
  41:..\..\..\..\..\..\Software\uCOS-III\Ports\ARM-Cortex-M0\Generic\GNU/os_cpu_c.c **** * Note(s)   : (1) This port supports the ARM Cortex-M0 and Cortex-M0+ architectures.
  42:..\..\..\..\..\..\Software\uCOS-III\Ports\ARM-Cortex-M0\Generic\GNU/os_cpu_c.c **** ***************************************************************************************************
  43:..\..\..\..\..\..\Software\uCOS-III\Ports\ARM-Cortex-M0\Generic\GNU/os_cpu_c.c **** */
  44:..\..\..\..\..\..\Software\uCOS-III\Ports\ARM-Cortex-M0\Generic\GNU/os_cpu_c.c **** 
  45:..\..\..\..\..\..\Software\uCOS-III\Ports\ARM-Cortex-M0\Generic\GNU/os_cpu_c.c **** #define   OS_CPU_GLOBALS
  46:..\..\..\..\..\..\Software\uCOS-III\Ports\ARM-Cortex-M0\Generic\GNU/os_cpu_c.c **** 
  47:..\..\..\..\..\..\Software\uCOS-III\Ports\ARM-Cortex-M0\Generic\GNU/os_cpu_c.c **** #ifdef VSC_INCLUDE_SOURCE_FILE_NAMES
  48:..\..\..\..\..\..\Software\uCOS-III\Ports\ARM-Cortex-M0\Generic\GNU/os_cpu_c.c **** const  CPU_CHAR  *os_cpu_c__c = "$Id: $";
  49:..\..\..\..\..\..\Software\uCOS-III\Ports\ARM-Cortex-M0\Generic\GNU/os_cpu_c.c **** #endif
  50:..\..\..\..\..\..\Software\uCOS-III\Ports\ARM-Cortex-M0\Generic\GNU/os_cpu_c.c **** 
  51:..\..\..\..\..\..\Software\uCOS-III\Ports\ARM-Cortex-M0\Generic\GNU/os_cpu_c.c **** 
  52:..\..\..\..\..\..\Software\uCOS-III\Ports\ARM-Cortex-M0\Generic\GNU/os_cpu_c.c **** /*
  53:..\..\..\..\..\..\Software\uCOS-III\Ports\ARM-Cortex-M0\Generic\GNU/os_cpu_c.c **** ***************************************************************************************************
  54:..\..\..\..\..\..\Software\uCOS-III\Ports\ARM-Cortex-M0\Generic\GNU/os_cpu_c.c **** *                                             INCLUDE FILES
  55:..\..\..\..\..\..\Software\uCOS-III\Ports\ARM-Cortex-M0\Generic\GNU/os_cpu_c.c **** ***************************************************************************************************
  56:..\..\..\..\..\..\Software\uCOS-III\Ports\ARM-Cortex-M0\Generic\GNU/os_cpu_c.c **** */
  57:..\..\..\..\..\..\Software\uCOS-III\Ports\ARM-Cortex-M0\Generic\GNU/os_cpu_c.c **** 
  58:..\..\..\..\..\..\Software\uCOS-III\Ports\ARM-Cortex-M0\Generic\GNU/os_cpu_c.c **** #include  "../../../../Source/os.h"
  59:..\..\..\..\..\..\Software\uCOS-III\Ports\ARM-Cortex-M0\Generic\GNU/os_cpu_c.c **** 
  60:..\..\..\..\..\..\Software\uCOS-III\Ports\ARM-Cortex-M0\Generic\GNU/os_cpu_c.c **** 
  61:..\..\..\..\..\..\Software\uCOS-III\Ports\ARM-Cortex-M0\Generic\GNU/os_cpu_c.c **** #ifdef __cplusplus
  62:..\..\..\..\..\..\Software\uCOS-III\Ports\ARM-Cortex-M0\Generic\GNU/os_cpu_c.c **** extern  "C" {
  63:..\..\..\..\..\..\Software\uCOS-III\Ports\ARM-Cortex-M0\Generic\GNU/os_cpu_c.c **** #endif
  64:..\..\..\..\..\..\Software\uCOS-III\Ports\ARM-Cortex-M0\Generic\GNU/os_cpu_c.c **** 
  65:..\..\..\..\..\..\Software\uCOS-III\Ports\ARM-Cortex-M0\Generic\GNU/os_cpu_c.c **** 
  66:..\..\..\..\..\..\Software\uCOS-III\Ports\ARM-Cortex-M0\Generic\GNU/os_cpu_c.c **** /*
  67:..\..\..\..\..\..\Software\uCOS-III\Ports\ARM-Cortex-M0\Generic\GNU/os_cpu_c.c **** ***************************************************************************************************
  68:..\..\..\..\..\..\Software\uCOS-III\Ports\ARM-Cortex-M0\Generic\GNU/os_cpu_c.c **** *                                           IDLE TASK HOOK
  69:..\..\..\..\..\..\Software\uCOS-III\Ports\ARM-Cortex-M0\Generic\GNU/os_cpu_c.c **** *
  70:..\..\..\..\..\..\Software\uCOS-III\Ports\ARM-Cortex-M0\Generic\GNU/os_cpu_c.c **** * Description: This function is called by the idle task.  This hook has been added to allow you to 
  71:..\..\..\..\..\..\Software\uCOS-III\Ports\ARM-Cortex-M0\Generic\GNU/os_cpu_c.c **** *              such things as STOP the CPU to conserve power.
  72:..\..\..\..\..\..\Software\uCOS-III\Ports\ARM-Cortex-M0\Generic\GNU/os_cpu_c.c **** *
  73:..\..\..\..\..\..\Software\uCOS-III\Ports\ARM-Cortex-M0\Generic\GNU/os_cpu_c.c **** * Arguments  : None.
  74:..\..\..\..\..\..\Software\uCOS-III\Ports\ARM-Cortex-M0\Generic\GNU/os_cpu_c.c **** *
  75:..\..\..\..\..\..\Software\uCOS-III\Ports\ARM-Cortex-M0\Generic\GNU/os_cpu_c.c **** * Note(s)    : None.
  76:..\..\..\..\..\..\Software\uCOS-III\Ports\ARM-Cortex-M0\Generic\GNU/os_cpu_c.c **** ***************************************************************************************************
  77:..\..\..\..\..\..\Software\uCOS-III\Ports\ARM-Cortex-M0\Generic\GNU/os_cpu_c.c **** */
  78:..\..\..\..\..\..\Software\uCOS-III\Ports\ARM-Cortex-M0\Generic\GNU/os_cpu_c.c **** 
  79:..\..\..\..\..\..\Software\uCOS-III\Ports\ARM-Cortex-M0\Generic\GNU/os_cpu_c.c **** void  OSIdleTaskHook (void)
  80:..\..\..\..\..\..\Software\uCOS-III\Ports\ARM-Cortex-M0\Generic\GNU/os_cpu_c.c **** {
  29              		.loc 1 80 0
  30              		.cfi_startproc
  31              		@ args = 0, pretend = 0, frame = 0
  32              		@ frame_needed = 1, uses_anonymous_args = 0
  33 0000 80B5     		push	{r7, lr}
  34              		.cfi_def_cfa_offset 8
ARM GAS  C:\Users\EDULU~1.DES\AppData\Local\Temp\ccgbquJH.s 			page 3


  35              		.cfi_offset 7, -8
  36              		.cfi_offset 14, -4
  37 0002 00AF     		add	r7, sp, #0
  38              		.cfi_def_cfa_register 7
  81:..\..\..\..\..\..\Software\uCOS-III\Ports\ARM-Cortex-M0\Generic\GNU/os_cpu_c.c **** #if OS_CFG_APP_HOOKS_EN > 0u
  82:..\..\..\..\..\..\Software\uCOS-III\Ports\ARM-Cortex-M0\Generic\GNU/os_cpu_c.c ****     if (OS_AppIdleTaskHookPtr != (OS_APP_HOOK_VOID)0) {
  83:..\..\..\..\..\..\Software\uCOS-III\Ports\ARM-Cortex-M0\Generic\GNU/os_cpu_c.c ****         (*OS_AppIdleTaskHookPtr)();
  84:..\..\..\..\..\..\Software\uCOS-III\Ports\ARM-Cortex-M0\Generic\GNU/os_cpu_c.c ****     }
  85:..\..\..\..\..\..\Software\uCOS-III\Ports\ARM-Cortex-M0\Generic\GNU/os_cpu_c.c **** #endif
  86:..\..\..\..\..\..\Software\uCOS-III\Ports\ARM-Cortex-M0\Generic\GNU/os_cpu_c.c **** }
  39              		.loc 1 86 0
  40 0004 C046     		nop
  41 0006 BD46     		mov	sp, r7
  42              		@ sp needed
  43 0008 80BD     		pop	{r7, pc}
  44              		.cfi_endproc
  45              	.LFE1:
  46              		.size	OSIdleTaskHook, .-OSIdleTaskHook
  47 000a C046     		.section	.text.OSInitHook,"ax",%progbits
  48              		.align	2
  49              		.global	OSInitHook
  50              		.code	16
  51              		.thumb_func
  52              		.type	OSInitHook, %function
  53              	OSInitHook:
  54              	.LFB2:
  87:..\..\..\..\..\..\Software\uCOS-III\Ports\ARM-Cortex-M0\Generic\GNU/os_cpu_c.c **** 
  88:..\..\..\..\..\..\Software\uCOS-III\Ports\ARM-Cortex-M0\Generic\GNU/os_cpu_c.c **** 
  89:..\..\..\..\..\..\Software\uCOS-III\Ports\ARM-Cortex-M0\Generic\GNU/os_cpu_c.c **** /*
  90:..\..\..\..\..\..\Software\uCOS-III\Ports\ARM-Cortex-M0\Generic\GNU/os_cpu_c.c **** ***************************************************************************************************
  91:..\..\..\..\..\..\Software\uCOS-III\Ports\ARM-Cortex-M0\Generic\GNU/os_cpu_c.c **** *                                       OS INITIALIZATION HOOK
  92:..\..\..\..\..\..\Software\uCOS-III\Ports\ARM-Cortex-M0\Generic\GNU/os_cpu_c.c **** *
  93:..\..\..\..\..\..\Software\uCOS-III\Ports\ARM-Cortex-M0\Generic\GNU/os_cpu_c.c **** * Description: This function is called by OSInit() at the beginning of OSInit().
  94:..\..\..\..\..\..\Software\uCOS-III\Ports\ARM-Cortex-M0\Generic\GNU/os_cpu_c.c **** *
  95:..\..\..\..\..\..\Software\uCOS-III\Ports\ARM-Cortex-M0\Generic\GNU/os_cpu_c.c **** * Arguments  : None.
  96:..\..\..\..\..\..\Software\uCOS-III\Ports\ARM-Cortex-M0\Generic\GNU/os_cpu_c.c **** *
  97:..\..\..\..\..\..\Software\uCOS-III\Ports\ARM-Cortex-M0\Generic\GNU/os_cpu_c.c **** * Note(s)    : None.
  98:..\..\..\..\..\..\Software\uCOS-III\Ports\ARM-Cortex-M0\Generic\GNU/os_cpu_c.c **** ***************************************************************************************************
  99:..\..\..\..\..\..\Software\uCOS-III\Ports\ARM-Cortex-M0\Generic\GNU/os_cpu_c.c **** */
 100:..\..\..\..\..\..\Software\uCOS-III\Ports\ARM-Cortex-M0\Generic\GNU/os_cpu_c.c **** 
 101:..\..\..\..\..\..\Software\uCOS-III\Ports\ARM-Cortex-M0\Generic\GNU/os_cpu_c.c **** void  OSInitHook (void)
 102:..\..\..\..\..\..\Software\uCOS-III\Ports\ARM-Cortex-M0\Generic\GNU/os_cpu_c.c **** {
  55              		.loc 1 102 0
  56              		.cfi_startproc
  57              		@ args = 0, pretend = 0, frame = 0
  58              		@ frame_needed = 1, uses_anonymous_args = 0
  59 0000 80B5     		push	{r7, lr}
  60              		.cfi_def_cfa_offset 8
  61              		.cfi_offset 7, -8
  62              		.cfi_offset 14, -4
  63 0002 00AF     		add	r7, sp, #0
  64              		.cfi_def_cfa_register 7
 103:..\..\..\..\..\..\Software\uCOS-III\Ports\ARM-Cortex-M0\Generic\GNU/os_cpu_c.c ****                                                                 /* 8-byte align the ISR stack.     
 104:..\..\..\..\..\..\Software\uCOS-III\Ports\ARM-Cortex-M0\Generic\GNU/os_cpu_c.c ****     OS_CPU_ExceptStkBase = (CPU_STK *)(OSCfg_ISRStkBasePtr + OSCfg_ISRStkSize);
  65              		.loc 1 104 0
  66 0004 094B     		ldr	r3, .L3
  67 0006 1A68     		ldr	r2, [r3]
ARM GAS  C:\Users\EDULU~1.DES\AppData\Local\Temp\ccgbquJH.s 			page 4


  68 0008 094B     		ldr	r3, .L3+4
  69 000a 1B68     		ldr	r3, [r3]
  70 000c 9B00     		lsls	r3, r3, #2
  71 000e D218     		adds	r2, r2, r3
  72 0010 084B     		ldr	r3, .L3+8
  73 0012 1A60     		str	r2, [r3]
 105:..\..\..\..\..\..\Software\uCOS-III\Ports\ARM-Cortex-M0\Generic\GNU/os_cpu_c.c ****     OS_CPU_ExceptStkBase = (CPU_STK *)((CPU_STK)(OS_CPU_ExceptStkBase) & 0xFFFFFFF8);
  74              		.loc 1 105 0
  75 0014 074B     		ldr	r3, .L3+8
  76 0016 1B68     		ldr	r3, [r3]
  77 0018 1A00     		movs	r2, r3
  78 001a 0723     		movs	r3, #7
  79 001c 9A43     		bics	r2, r3
  80 001e 1300     		movs	r3, r2
  81 0020 1A00     		movs	r2, r3
  82 0022 044B     		ldr	r3, .L3+8
  83 0024 1A60     		str	r2, [r3]
 106:..\..\..\..\..\..\Software\uCOS-III\Ports\ARM-Cortex-M0\Generic\GNU/os_cpu_c.c **** 
 107:..\..\..\..\..\..\Software\uCOS-III\Ports\ARM-Cortex-M0\Generic\GNU/os_cpu_c.c **** }
  84              		.loc 1 107 0
  85 0026 C046     		nop
  86 0028 BD46     		mov	sp, r7
  87              		@ sp needed
  88 002a 80BD     		pop	{r7, pc}
  89              	.L4:
  90              		.align	2
  91              	.L3:
  92 002c 00000000 		.word	OSCfg_ISRStkBasePtr
  93 0030 00000000 		.word	OSCfg_ISRStkSize
  94 0034 00000000 		.word	OS_CPU_ExceptStkBase
  95              		.cfi_endproc
  96              	.LFE2:
  97              		.size	OSInitHook, .-OSInitHook
  98              		.section	.text.OSStatTaskHook,"ax",%progbits
  99              		.align	2
 100              		.global	OSStatTaskHook
 101              		.code	16
 102              		.thumb_func
 103              		.type	OSStatTaskHook, %function
 104              	OSStatTaskHook:
 105              	.LFB3:
 108:..\..\..\..\..\..\Software\uCOS-III\Ports\ARM-Cortex-M0\Generic\GNU/os_cpu_c.c **** 
 109:..\..\..\..\..\..\Software\uCOS-III\Ports\ARM-Cortex-M0\Generic\GNU/os_cpu_c.c **** 
 110:..\..\..\..\..\..\Software\uCOS-III\Ports\ARM-Cortex-M0\Generic\GNU/os_cpu_c.c **** /*
 111:..\..\..\..\..\..\Software\uCOS-III\Ports\ARM-Cortex-M0\Generic\GNU/os_cpu_c.c **** ***************************************************************************************************
 112:..\..\..\..\..\..\Software\uCOS-III\Ports\ARM-Cortex-M0\Generic\GNU/os_cpu_c.c **** *                                           REDZONE HIT HOOK
 113:..\..\..\..\..\..\Software\uCOS-III\Ports\ARM-Cortex-M0\Generic\GNU/os_cpu_c.c **** *
 114:..\..\..\..\..\..\Software\uCOS-III\Ports\ARM-Cortex-M0\Generic\GNU/os_cpu_c.c **** * Description: This function is called when a task's stack overflowed.
 115:..\..\..\..\..\..\Software\uCOS-III\Ports\ARM-Cortex-M0\Generic\GNU/os_cpu_c.c **** *
 116:..\..\..\..\..\..\Software\uCOS-III\Ports\ARM-Cortex-M0\Generic\GNU/os_cpu_c.c **** * Arguments  : p_tcb        Pointer to the task control block of the offending task. NULL if ISR.
 117:..\..\..\..\..\..\Software\uCOS-III\Ports\ARM-Cortex-M0\Generic\GNU/os_cpu_c.c **** *
 118:..\..\..\..\..\..\Software\uCOS-III\Ports\ARM-Cortex-M0\Generic\GNU/os_cpu_c.c **** * Note(s)    : None.
 119:..\..\..\..\..\..\Software\uCOS-III\Ports\ARM-Cortex-M0\Generic\GNU/os_cpu_c.c **** ***************************************************************************************************
 120:..\..\..\..\..\..\Software\uCOS-III\Ports\ARM-Cortex-M0\Generic\GNU/os_cpu_c.c **** */
 121:..\..\..\..\..\..\Software\uCOS-III\Ports\ARM-Cortex-M0\Generic\GNU/os_cpu_c.c **** #if (OS_CFG_TASK_STK_REDZONE_EN == DEF_ENABLED)
 122:..\..\..\..\..\..\Software\uCOS-III\Ports\ARM-Cortex-M0\Generic\GNU/os_cpu_c.c **** void  OSRedzoneHitHook (OS_TCB  *p_tcb)
 123:..\..\..\..\..\..\Software\uCOS-III\Ports\ARM-Cortex-M0\Generic\GNU/os_cpu_c.c **** {
ARM GAS  C:\Users\EDULU~1.DES\AppData\Local\Temp\ccgbquJH.s 			page 5


 124:..\..\..\..\..\..\Software\uCOS-III\Ports\ARM-Cortex-M0\Generic\GNU/os_cpu_c.c **** #if OS_CFG_APP_HOOKS_EN > 0u
 125:..\..\..\..\..\..\Software\uCOS-III\Ports\ARM-Cortex-M0\Generic\GNU/os_cpu_c.c ****     if (OS_AppRedzoneHitHookPtr != (OS_APP_HOOK_TCB)0) {
 126:..\..\..\..\..\..\Software\uCOS-III\Ports\ARM-Cortex-M0\Generic\GNU/os_cpu_c.c ****         (*OS_AppRedzoneHitHookPtr)(p_tcb);
 127:..\..\..\..\..\..\Software\uCOS-III\Ports\ARM-Cortex-M0\Generic\GNU/os_cpu_c.c ****     } else {
 128:..\..\..\..\..\..\Software\uCOS-III\Ports\ARM-Cortex-M0\Generic\GNU/os_cpu_c.c ****         CPU_SW_EXCEPTION(;);
 129:..\..\..\..\..\..\Software\uCOS-III\Ports\ARM-Cortex-M0\Generic\GNU/os_cpu_c.c ****     }
 130:..\..\..\..\..\..\Software\uCOS-III\Ports\ARM-Cortex-M0\Generic\GNU/os_cpu_c.c **** #else
 131:..\..\..\..\..\..\Software\uCOS-III\Ports\ARM-Cortex-M0\Generic\GNU/os_cpu_c.c ****     (void)p_tcb;                                                /* Prevent compiler warning        
 132:..\..\..\..\..\..\Software\uCOS-III\Ports\ARM-Cortex-M0\Generic\GNU/os_cpu_c.c ****     CPU_SW_EXCEPTION(;);
 133:..\..\..\..\..\..\Software\uCOS-III\Ports\ARM-Cortex-M0\Generic\GNU/os_cpu_c.c **** #endif
 134:..\..\..\..\..\..\Software\uCOS-III\Ports\ARM-Cortex-M0\Generic\GNU/os_cpu_c.c **** }
 135:..\..\..\..\..\..\Software\uCOS-III\Ports\ARM-Cortex-M0\Generic\GNU/os_cpu_c.c **** #endif
 136:..\..\..\..\..\..\Software\uCOS-III\Ports\ARM-Cortex-M0\Generic\GNU/os_cpu_c.c **** 
 137:..\..\..\..\..\..\Software\uCOS-III\Ports\ARM-Cortex-M0\Generic\GNU/os_cpu_c.c **** 
 138:..\..\..\..\..\..\Software\uCOS-III\Ports\ARM-Cortex-M0\Generic\GNU/os_cpu_c.c **** /*
 139:..\..\..\..\..\..\Software\uCOS-III\Ports\ARM-Cortex-M0\Generic\GNU/os_cpu_c.c **** ***************************************************************************************************
 140:..\..\..\..\..\..\Software\uCOS-III\Ports\ARM-Cortex-M0\Generic\GNU/os_cpu_c.c **** *                                         STATISTIC TASK HOOK
 141:..\..\..\..\..\..\Software\uCOS-III\Ports\ARM-Cortex-M0\Generic\GNU/os_cpu_c.c **** *
 142:..\..\..\..\..\..\Software\uCOS-III\Ports\ARM-Cortex-M0\Generic\GNU/os_cpu_c.c **** * Description: This function is called every second by uC/OS-III's statistics task.  This allows yo
 143:..\..\..\..\..\..\Software\uCOS-III\Ports\ARM-Cortex-M0\Generic\GNU/os_cpu_c.c **** *              application to add functionality to the statistics task.
 144:..\..\..\..\..\..\Software\uCOS-III\Ports\ARM-Cortex-M0\Generic\GNU/os_cpu_c.c **** *
 145:..\..\..\..\..\..\Software\uCOS-III\Ports\ARM-Cortex-M0\Generic\GNU/os_cpu_c.c **** * Arguments  : None.
 146:..\..\..\..\..\..\Software\uCOS-III\Ports\ARM-Cortex-M0\Generic\GNU/os_cpu_c.c **** *
 147:..\..\..\..\..\..\Software\uCOS-III\Ports\ARM-Cortex-M0\Generic\GNU/os_cpu_c.c **** * Note(s)    : None.
 148:..\..\..\..\..\..\Software\uCOS-III\Ports\ARM-Cortex-M0\Generic\GNU/os_cpu_c.c **** ***************************************************************************************************
 149:..\..\..\..\..\..\Software\uCOS-III\Ports\ARM-Cortex-M0\Generic\GNU/os_cpu_c.c **** */
 150:..\..\..\..\..\..\Software\uCOS-III\Ports\ARM-Cortex-M0\Generic\GNU/os_cpu_c.c **** 
 151:..\..\..\..\..\..\Software\uCOS-III\Ports\ARM-Cortex-M0\Generic\GNU/os_cpu_c.c **** void  OSStatTaskHook (void)
 152:..\..\..\..\..\..\Software\uCOS-III\Ports\ARM-Cortex-M0\Generic\GNU/os_cpu_c.c **** {
 106              		.loc 1 152 0
 107              		.cfi_startproc
 108              		@ args = 0, pretend = 0, frame = 0
 109              		@ frame_needed = 1, uses_anonymous_args = 0
 110 0000 80B5     		push	{r7, lr}
 111              		.cfi_def_cfa_offset 8
 112              		.cfi_offset 7, -8
 113              		.cfi_offset 14, -4
 114 0002 00AF     		add	r7, sp, #0
 115              		.cfi_def_cfa_register 7
 153:..\..\..\..\..\..\Software\uCOS-III\Ports\ARM-Cortex-M0\Generic\GNU/os_cpu_c.c **** #if OS_CFG_APP_HOOKS_EN > 0u
 154:..\..\..\..\..\..\Software\uCOS-III\Ports\ARM-Cortex-M0\Generic\GNU/os_cpu_c.c ****     if (OS_AppStatTaskHookPtr != (OS_APP_HOOK_VOID)0) {
 155:..\..\..\..\..\..\Software\uCOS-III\Ports\ARM-Cortex-M0\Generic\GNU/os_cpu_c.c ****         (*OS_AppStatTaskHookPtr)();
 156:..\..\..\..\..\..\Software\uCOS-III\Ports\ARM-Cortex-M0\Generic\GNU/os_cpu_c.c ****     }
 157:..\..\..\..\..\..\Software\uCOS-III\Ports\ARM-Cortex-M0\Generic\GNU/os_cpu_c.c **** #endif
 158:..\..\..\..\..\..\Software\uCOS-III\Ports\ARM-Cortex-M0\Generic\GNU/os_cpu_c.c **** }
 116              		.loc 1 158 0
 117 0004 C046     		nop
 118 0006 BD46     		mov	sp, r7
 119              		@ sp needed
 120 0008 80BD     		pop	{r7, pc}
 121              		.cfi_endproc
 122              	.LFE3:
 123              		.size	OSStatTaskHook, .-OSStatTaskHook
 124              		.section	.text.OSTaskCreateHook,"ax",%progbits
 125              		.align	2
 126              		.global	OSTaskCreateHook
 127              		.code	16
ARM GAS  C:\Users\EDULU~1.DES\AppData\Local\Temp\ccgbquJH.s 			page 6


 128              		.thumb_func
 129              		.type	OSTaskCreateHook, %function
 130              	OSTaskCreateHook:
 131              	.LFB4:
 159:..\..\..\..\..\..\Software\uCOS-III\Ports\ARM-Cortex-M0\Generic\GNU/os_cpu_c.c **** 
 160:..\..\..\..\..\..\Software\uCOS-III\Ports\ARM-Cortex-M0\Generic\GNU/os_cpu_c.c **** 
 161:..\..\..\..\..\..\Software\uCOS-III\Ports\ARM-Cortex-M0\Generic\GNU/os_cpu_c.c **** /*
 162:..\..\..\..\..\..\Software\uCOS-III\Ports\ARM-Cortex-M0\Generic\GNU/os_cpu_c.c **** ***************************************************************************************************
 163:..\..\..\..\..\..\Software\uCOS-III\Ports\ARM-Cortex-M0\Generic\GNU/os_cpu_c.c **** *                                          TASK CREATION HOOK
 164:..\..\..\..\..\..\Software\uCOS-III\Ports\ARM-Cortex-M0\Generic\GNU/os_cpu_c.c **** *
 165:..\..\..\..\..\..\Software\uCOS-III\Ports\ARM-Cortex-M0\Generic\GNU/os_cpu_c.c **** * Description: This function is called when a task is created.
 166:..\..\..\..\..\..\Software\uCOS-III\Ports\ARM-Cortex-M0\Generic\GNU/os_cpu_c.c **** *
 167:..\..\..\..\..\..\Software\uCOS-III\Ports\ARM-Cortex-M0\Generic\GNU/os_cpu_c.c **** * Arguments  : p_tcb        Pointer to the task control block of the task being created.
 168:..\..\..\..\..\..\Software\uCOS-III\Ports\ARM-Cortex-M0\Generic\GNU/os_cpu_c.c **** *
 169:..\..\..\..\..\..\Software\uCOS-III\Ports\ARM-Cortex-M0\Generic\GNU/os_cpu_c.c **** * Note(s)    : None.
 170:..\..\..\..\..\..\Software\uCOS-III\Ports\ARM-Cortex-M0\Generic\GNU/os_cpu_c.c **** ***************************************************************************************************
 171:..\..\..\..\..\..\Software\uCOS-III\Ports\ARM-Cortex-M0\Generic\GNU/os_cpu_c.c **** */
 172:..\..\..\..\..\..\Software\uCOS-III\Ports\ARM-Cortex-M0\Generic\GNU/os_cpu_c.c **** 
 173:..\..\..\..\..\..\Software\uCOS-III\Ports\ARM-Cortex-M0\Generic\GNU/os_cpu_c.c **** void  OSTaskCreateHook (OS_TCB  *p_tcb)
 174:..\..\..\..\..\..\Software\uCOS-III\Ports\ARM-Cortex-M0\Generic\GNU/os_cpu_c.c **** {
 132              		.loc 1 174 0
 133              		.cfi_startproc
 134              		@ args = 0, pretend = 0, frame = 8
 135              		@ frame_needed = 1, uses_anonymous_args = 0
 136 0000 80B5     		push	{r7, lr}
 137              		.cfi_def_cfa_offset 8
 138              		.cfi_offset 7, -8
 139              		.cfi_offset 14, -4
 140 0002 82B0     		sub	sp, sp, #8
 141              		.cfi_def_cfa_offset 16
 142 0004 00AF     		add	r7, sp, #0
 143              		.cfi_def_cfa_register 7
 144 0006 7860     		str	r0, [r7, #4]
 175:..\..\..\..\..\..\Software\uCOS-III\Ports\ARM-Cortex-M0\Generic\GNU/os_cpu_c.c **** #if OS_CFG_APP_HOOKS_EN > 0u
 176:..\..\..\..\..\..\Software\uCOS-III\Ports\ARM-Cortex-M0\Generic\GNU/os_cpu_c.c ****     if (OS_AppTaskCreateHookPtr != (OS_APP_HOOK_TCB)0) {
 177:..\..\..\..\..\..\Software\uCOS-III\Ports\ARM-Cortex-M0\Generic\GNU/os_cpu_c.c ****         (*OS_AppTaskCreateHookPtr)(p_tcb);
 178:..\..\..\..\..\..\Software\uCOS-III\Ports\ARM-Cortex-M0\Generic\GNU/os_cpu_c.c ****     }
 179:..\..\..\..\..\..\Software\uCOS-III\Ports\ARM-Cortex-M0\Generic\GNU/os_cpu_c.c **** #else
 180:..\..\..\..\..\..\Software\uCOS-III\Ports\ARM-Cortex-M0\Generic\GNU/os_cpu_c.c ****     (void)p_tcb;                                                /* Prevent compiler warning        
 181:..\..\..\..\..\..\Software\uCOS-III\Ports\ARM-Cortex-M0\Generic\GNU/os_cpu_c.c **** #endif
 182:..\..\..\..\..\..\Software\uCOS-III\Ports\ARM-Cortex-M0\Generic\GNU/os_cpu_c.c **** }
 145              		.loc 1 182 0
 146 0008 C046     		nop
 147 000a BD46     		mov	sp, r7
 148 000c 02B0     		add	sp, sp, #8
 149              		@ sp needed
 150 000e 80BD     		pop	{r7, pc}
 151              		.cfi_endproc
 152              	.LFE4:
 153              		.size	OSTaskCreateHook, .-OSTaskCreateHook
 154              		.section	.text.OSTaskDelHook,"ax",%progbits
 155              		.align	2
 156              		.global	OSTaskDelHook
 157              		.code	16
 158              		.thumb_func
 159              		.type	OSTaskDelHook, %function
 160              	OSTaskDelHook:
ARM GAS  C:\Users\EDULU~1.DES\AppData\Local\Temp\ccgbquJH.s 			page 7


 161              	.LFB5:
 183:..\..\..\..\..\..\Software\uCOS-III\Ports\ARM-Cortex-M0\Generic\GNU/os_cpu_c.c **** 
 184:..\..\..\..\..\..\Software\uCOS-III\Ports\ARM-Cortex-M0\Generic\GNU/os_cpu_c.c **** 
 185:..\..\..\..\..\..\Software\uCOS-III\Ports\ARM-Cortex-M0\Generic\GNU/os_cpu_c.c **** /*
 186:..\..\..\..\..\..\Software\uCOS-III\Ports\ARM-Cortex-M0\Generic\GNU/os_cpu_c.c **** ***************************************************************************************************
 187:..\..\..\..\..\..\Software\uCOS-III\Ports\ARM-Cortex-M0\Generic\GNU/os_cpu_c.c **** *                                           TASK DELETION HOOK
 188:..\..\..\..\..\..\Software\uCOS-III\Ports\ARM-Cortex-M0\Generic\GNU/os_cpu_c.c **** *
 189:..\..\..\..\..\..\Software\uCOS-III\Ports\ARM-Cortex-M0\Generic\GNU/os_cpu_c.c **** * Description: This function is called when a task is deleted.
 190:..\..\..\..\..\..\Software\uCOS-III\Ports\ARM-Cortex-M0\Generic\GNU/os_cpu_c.c **** *
 191:..\..\..\..\..\..\Software\uCOS-III\Ports\ARM-Cortex-M0\Generic\GNU/os_cpu_c.c **** * Arguments  : p_tcb        Pointer to the task control block of the task being deleted.
 192:..\..\..\..\..\..\Software\uCOS-III\Ports\ARM-Cortex-M0\Generic\GNU/os_cpu_c.c **** *
 193:..\..\..\..\..\..\Software\uCOS-III\Ports\ARM-Cortex-M0\Generic\GNU/os_cpu_c.c **** * Note(s)    : None.
 194:..\..\..\..\..\..\Software\uCOS-III\Ports\ARM-Cortex-M0\Generic\GNU/os_cpu_c.c **** ***************************************************************************************************
 195:..\..\..\..\..\..\Software\uCOS-III\Ports\ARM-Cortex-M0\Generic\GNU/os_cpu_c.c **** */
 196:..\..\..\..\..\..\Software\uCOS-III\Ports\ARM-Cortex-M0\Generic\GNU/os_cpu_c.c **** 
 197:..\..\..\..\..\..\Software\uCOS-III\Ports\ARM-Cortex-M0\Generic\GNU/os_cpu_c.c **** void  OSTaskDelHook (OS_TCB  *p_tcb)
 198:..\..\..\..\..\..\Software\uCOS-III\Ports\ARM-Cortex-M0\Generic\GNU/os_cpu_c.c **** {
 162              		.loc 1 198 0
 163              		.cfi_startproc
 164              		@ args = 0, pretend = 0, frame = 8
 165              		@ frame_needed = 1, uses_anonymous_args = 0
 166 0000 80B5     		push	{r7, lr}
 167              		.cfi_def_cfa_offset 8
 168              		.cfi_offset 7, -8
 169              		.cfi_offset 14, -4
 170 0002 82B0     		sub	sp, sp, #8
 171              		.cfi_def_cfa_offset 16
 172 0004 00AF     		add	r7, sp, #0
 173              		.cfi_def_cfa_register 7
 174 0006 7860     		str	r0, [r7, #4]
 199:..\..\..\..\..\..\Software\uCOS-III\Ports\ARM-Cortex-M0\Generic\GNU/os_cpu_c.c **** #if OS_CFG_APP_HOOKS_EN > 0u
 200:..\..\..\..\..\..\Software\uCOS-III\Ports\ARM-Cortex-M0\Generic\GNU/os_cpu_c.c ****     if (OS_AppTaskDelHookPtr != (OS_APP_HOOK_TCB)0) {
 201:..\..\..\..\..\..\Software\uCOS-III\Ports\ARM-Cortex-M0\Generic\GNU/os_cpu_c.c ****         (*OS_AppTaskDelHookPtr)(p_tcb);
 202:..\..\..\..\..\..\Software\uCOS-III\Ports\ARM-Cortex-M0\Generic\GNU/os_cpu_c.c ****     }
 203:..\..\..\..\..\..\Software\uCOS-III\Ports\ARM-Cortex-M0\Generic\GNU/os_cpu_c.c **** #else
 204:..\..\..\..\..\..\Software\uCOS-III\Ports\ARM-Cortex-M0\Generic\GNU/os_cpu_c.c ****     (void)p_tcb;                                                /* Prevent compiler warning        
 205:..\..\..\..\..\..\Software\uCOS-III\Ports\ARM-Cortex-M0\Generic\GNU/os_cpu_c.c **** #endif
 206:..\..\..\..\..\..\Software\uCOS-III\Ports\ARM-Cortex-M0\Generic\GNU/os_cpu_c.c **** }
 175              		.loc 1 206 0
 176 0008 C046     		nop
 177 000a BD46     		mov	sp, r7
 178 000c 02B0     		add	sp, sp, #8
 179              		@ sp needed
 180 000e 80BD     		pop	{r7, pc}
 181              		.cfi_endproc
 182              	.LFE5:
 183              		.size	OSTaskDelHook, .-OSTaskDelHook
 184              		.section	.text.OSTaskReturnHook,"ax",%progbits
 185              		.align	2
 186              		.global	OSTaskReturnHook
 187              		.code	16
 188              		.thumb_func
 189              		.type	OSTaskReturnHook, %function
 190              	OSTaskReturnHook:
 191              	.LFB6:
 207:..\..\..\..\..\..\Software\uCOS-III\Ports\ARM-Cortex-M0\Generic\GNU/os_cpu_c.c **** 
 208:..\..\..\..\..\..\Software\uCOS-III\Ports\ARM-Cortex-M0\Generic\GNU/os_cpu_c.c **** 
ARM GAS  C:\Users\EDULU~1.DES\AppData\Local\Temp\ccgbquJH.s 			page 8


 209:..\..\..\..\..\..\Software\uCOS-III\Ports\ARM-Cortex-M0\Generic\GNU/os_cpu_c.c **** /*
 210:..\..\..\..\..\..\Software\uCOS-III\Ports\ARM-Cortex-M0\Generic\GNU/os_cpu_c.c **** ***************************************************************************************************
 211:..\..\..\..\..\..\Software\uCOS-III\Ports\ARM-Cortex-M0\Generic\GNU/os_cpu_c.c **** *                                            TASK RETURN HOOK
 212:..\..\..\..\..\..\Software\uCOS-III\Ports\ARM-Cortex-M0\Generic\GNU/os_cpu_c.c **** *
 213:..\..\..\..\..\..\Software\uCOS-III\Ports\ARM-Cortex-M0\Generic\GNU/os_cpu_c.c **** * Description: This function is called if a task accidentally returns.  In other words, a task shou
 214:..\..\..\..\..\..\Software\uCOS-III\Ports\ARM-Cortex-M0\Generic\GNU/os_cpu_c.c **** *              either be an infinite loop or delete itself when done.
 215:..\..\..\..\..\..\Software\uCOS-III\Ports\ARM-Cortex-M0\Generic\GNU/os_cpu_c.c **** *
 216:..\..\..\..\..\..\Software\uCOS-III\Ports\ARM-Cortex-M0\Generic\GNU/os_cpu_c.c **** * Arguments  : p_tcb        Pointer to the task control block of the task that is returning.
 217:..\..\..\..\..\..\Software\uCOS-III\Ports\ARM-Cortex-M0\Generic\GNU/os_cpu_c.c **** *
 218:..\..\..\..\..\..\Software\uCOS-III\Ports\ARM-Cortex-M0\Generic\GNU/os_cpu_c.c **** * Note(s)    : None.
 219:..\..\..\..\..\..\Software\uCOS-III\Ports\ARM-Cortex-M0\Generic\GNU/os_cpu_c.c **** ***************************************************************************************************
 220:..\..\..\..\..\..\Software\uCOS-III\Ports\ARM-Cortex-M0\Generic\GNU/os_cpu_c.c **** */
 221:..\..\..\..\..\..\Software\uCOS-III\Ports\ARM-Cortex-M0\Generic\GNU/os_cpu_c.c **** 
 222:..\..\..\..\..\..\Software\uCOS-III\Ports\ARM-Cortex-M0\Generic\GNU/os_cpu_c.c **** void  OSTaskReturnHook (OS_TCB  *p_tcb)
 223:..\..\..\..\..\..\Software\uCOS-III\Ports\ARM-Cortex-M0\Generic\GNU/os_cpu_c.c **** {
 192              		.loc 1 223 0
 193              		.cfi_startproc
 194              		@ args = 0, pretend = 0, frame = 8
 195              		@ frame_needed = 1, uses_anonymous_args = 0
 196 0000 80B5     		push	{r7, lr}
 197              		.cfi_def_cfa_offset 8
 198              		.cfi_offset 7, -8
 199              		.cfi_offset 14, -4
 200 0002 82B0     		sub	sp, sp, #8
 201              		.cfi_def_cfa_offset 16
 202 0004 00AF     		add	r7, sp, #0
 203              		.cfi_def_cfa_register 7
 204 0006 7860     		str	r0, [r7, #4]
 224:..\..\..\..\..\..\Software\uCOS-III\Ports\ARM-Cortex-M0\Generic\GNU/os_cpu_c.c **** #if OS_CFG_APP_HOOKS_EN > 0u
 225:..\..\..\..\..\..\Software\uCOS-III\Ports\ARM-Cortex-M0\Generic\GNU/os_cpu_c.c ****     if (OS_AppTaskReturnHookPtr != (OS_APP_HOOK_TCB)0) {
 226:..\..\..\..\..\..\Software\uCOS-III\Ports\ARM-Cortex-M0\Generic\GNU/os_cpu_c.c ****         (*OS_AppTaskReturnHookPtr)(p_tcb);
 227:..\..\..\..\..\..\Software\uCOS-III\Ports\ARM-Cortex-M0\Generic\GNU/os_cpu_c.c ****     }
 228:..\..\..\..\..\..\Software\uCOS-III\Ports\ARM-Cortex-M0\Generic\GNU/os_cpu_c.c **** #else
 229:..\..\..\..\..\..\Software\uCOS-III\Ports\ARM-Cortex-M0\Generic\GNU/os_cpu_c.c ****     (void)p_tcb;                                                /* Prevent compiler warning        
 230:..\..\..\..\..\..\Software\uCOS-III\Ports\ARM-Cortex-M0\Generic\GNU/os_cpu_c.c **** #endif
 231:..\..\..\..\..\..\Software\uCOS-III\Ports\ARM-Cortex-M0\Generic\GNU/os_cpu_c.c **** }
 205              		.loc 1 231 0
 206 0008 C046     		nop
 207 000a BD46     		mov	sp, r7
 208 000c 02B0     		add	sp, sp, #8
 209              		@ sp needed
 210 000e 80BD     		pop	{r7, pc}
 211              		.cfi_endproc
 212              	.LFE6:
 213              		.size	OSTaskReturnHook, .-OSTaskReturnHook
 214              		.section	.text.OSTaskStkInit,"ax",%progbits
 215              		.align	2
 216              		.global	OSTaskStkInit
 217              		.code	16
 218              		.thumb_func
 219              		.type	OSTaskStkInit, %function
 220              	OSTaskStkInit:
 221              	.LFB7:
 232:..\..\..\..\..\..\Software\uCOS-III\Ports\ARM-Cortex-M0\Generic\GNU/os_cpu_c.c **** 
 233:..\..\..\..\..\..\Software\uCOS-III\Ports\ARM-Cortex-M0\Generic\GNU/os_cpu_c.c **** 
 234:..\..\..\..\..\..\Software\uCOS-III\Ports\ARM-Cortex-M0\Generic\GNU/os_cpu_c.c **** /*
 235:..\..\..\..\..\..\Software\uCOS-III\Ports\ARM-Cortex-M0\Generic\GNU/os_cpu_c.c **** ***************************************************************************************************
ARM GAS  C:\Users\EDULU~1.DES\AppData\Local\Temp\ccgbquJH.s 			page 9


 236:..\..\..\..\..\..\Software\uCOS-III\Ports\ARM-Cortex-M0\Generic\GNU/os_cpu_c.c **** *                                        INITIALIZE A TASK'S STACK
 237:..\..\..\..\..\..\Software\uCOS-III\Ports\ARM-Cortex-M0\Generic\GNU/os_cpu_c.c **** *
 238:..\..\..\..\..\..\Software\uCOS-III\Ports\ARM-Cortex-M0\Generic\GNU/os_cpu_c.c **** * Description: This function is called by either OSTaskCreate() or OSTaskCreateExt() to initialize 
 239:..\..\..\..\..\..\Software\uCOS-III\Ports\ARM-Cortex-M0\Generic\GNU/os_cpu_c.c **** *              stack frame of the task being created.  This function is highly processor specific.
 240:..\..\..\..\..\..\Software\uCOS-III\Ports\ARM-Cortex-M0\Generic\GNU/os_cpu_c.c **** *
 241:..\..\..\..\..\..\Software\uCOS-III\Ports\ARM-Cortex-M0\Generic\GNU/os_cpu_c.c **** * Arguments  : p_task       Pointer to the task entry point address.
 242:..\..\..\..\..\..\Software\uCOS-III\Ports\ARM-Cortex-M0\Generic\GNU/os_cpu_c.c **** *
 243:..\..\..\..\..\..\Software\uCOS-III\Ports\ARM-Cortex-M0\Generic\GNU/os_cpu_c.c **** *              p_arg        Pointer to a user supplied data area that will be passed to the task
 244:..\..\..\..\..\..\Software\uCOS-III\Ports\ARM-Cortex-M0\Generic\GNU/os_cpu_c.c **** *                               when the task first executes.
 245:..\..\..\..\..\..\Software\uCOS-III\Ports\ARM-Cortex-M0\Generic\GNU/os_cpu_c.c **** *
 246:..\..\..\..\..\..\Software\uCOS-III\Ports\ARM-Cortex-M0\Generic\GNU/os_cpu_c.c **** *              p_stk_base   Pointer to the base address of the stack.
 247:..\..\..\..\..\..\Software\uCOS-III\Ports\ARM-Cortex-M0\Generic\GNU/os_cpu_c.c **** *
 248:..\..\..\..\..\..\Software\uCOS-III\Ports\ARM-Cortex-M0\Generic\GNU/os_cpu_c.c **** *              stk_size     Size of the stack, in number of CPU_STK elements.
 249:..\..\..\..\..\..\Software\uCOS-III\Ports\ARM-Cortex-M0\Generic\GNU/os_cpu_c.c **** *
 250:..\..\..\..\..\..\Software\uCOS-III\Ports\ARM-Cortex-M0\Generic\GNU/os_cpu_c.c **** *              opt          Options used to alter the behavior of OS_Task_StkInit().
 251:..\..\..\..\..\..\Software\uCOS-III\Ports\ARM-Cortex-M0\Generic\GNU/os_cpu_c.c **** *                            (see OS.H for OS_TASK_OPT_xxx).
 252:..\..\..\..\..\..\Software\uCOS-III\Ports\ARM-Cortex-M0\Generic\GNU/os_cpu_c.c **** *
 253:..\..\..\..\..\..\Software\uCOS-III\Ports\ARM-Cortex-M0\Generic\GNU/os_cpu_c.c **** * Returns    : Always returns the location of the new top-of-stack once the processor registers hav
 254:..\..\..\..\..\..\Software\uCOS-III\Ports\ARM-Cortex-M0\Generic\GNU/os_cpu_c.c **** *              been placed on the stack in the proper order.
 255:..\..\..\..\..\..\Software\uCOS-III\Ports\ARM-Cortex-M0\Generic\GNU/os_cpu_c.c **** *
 256:..\..\..\..\..\..\Software\uCOS-III\Ports\ARM-Cortex-M0\Generic\GNU/os_cpu_c.c **** * Note(s)    : (1) Interrupts are enabled when task starts executing.
 257:..\..\..\..\..\..\Software\uCOS-III\Ports\ARM-Cortex-M0\Generic\GNU/os_cpu_c.c **** *
 258:..\..\..\..\..\..\Software\uCOS-III\Ports\ARM-Cortex-M0\Generic\GNU/os_cpu_c.c **** *              (2) All tasks run in Thread mode, using process stack.
 259:..\..\..\..\..\..\Software\uCOS-III\Ports\ARM-Cortex-M0\Generic\GNU/os_cpu_c.c **** *
 260:..\..\..\..\..\..\Software\uCOS-III\Ports\ARM-Cortex-M0\Generic\GNU/os_cpu_c.c **** *             (3) The SP must be 8-byte aligned in conforming to the Procedure Call Standard for th
 261:..\..\..\..\..\..\Software\uCOS-III\Ports\ARM-Cortex-M0\Generic\GNU/os_cpu_c.c **** *
 262:..\..\..\..\..\..\Software\uCOS-III\Ports\ARM-Cortex-M0\Generic\GNU/os_cpu_c.c **** *                    (a) Section 2.1 of the  ABI for the ARM Architecture Advisory Note. SP must be
 263:..\..\..\..\..\..\Software\uCOS-III\Ports\ARM-Cortex-M0\Generic\GNU/os_cpu_c.c **** *                        on entry to AAPCS-Conforming functions states :
 264:..\..\..\..\..\..\Software\uCOS-III\Ports\ARM-Cortex-M0\Generic\GNU/os_cpu_c.c **** *
 265:..\..\..\..\..\..\Software\uCOS-III\Ports\ARM-Cortex-M0\Generic\GNU/os_cpu_c.c **** *                        The Procedure Call Standard for the ARM Architecture [AAPCS] requires prim
 266:..\..\..\..\..\..\Software\uCOS-III\Ports\ARM-Cortex-M0\Generic\GNU/os_cpu_c.c **** *                        data types to be naturally aligned according to their sizes (for size = 1,
 267:..\..\..\..\..\..\Software\uCOS-III\Ports\ARM-Cortex-M0\Generic\GNU/os_cpu_c.c **** *                        Doing otherwise creates more problems than it solves.
 268:..\..\..\..\..\..\Software\uCOS-III\Ports\ARM-Cortex-M0\Generic\GNU/os_cpu_c.c **** *
 269:..\..\..\..\..\..\Software\uCOS-III\Ports\ARM-Cortex-M0\Generic\GNU/os_cpu_c.c **** *                        In return for preserving the natural alignment of data, conforming code is
 270:..\..\..\..\..\..\Software\uCOS-III\Ports\ARM-Cortex-M0\Generic\GNU/os_cpu_c.c **** *                        to rely on that alignment. To support aligning data allocated on the stack
 271:..\..\..\..\..\..\Software\uCOS-III\Ports\ARM-Cortex-M0\Generic\GNU/os_cpu_c.c **** *                        pointer (SP) is required to be 8-byte aligned on entry to a conforming fun
 272:..\..\..\..\..\..\Software\uCOS-III\Ports\ARM-Cortex-M0\Generic\GNU/os_cpu_c.c **** *                        practice this requirement is met if:
 273:..\..\..\..\..\..\Software\uCOS-III\Ports\ARM-Cortex-M0\Generic\GNU/os_cpu_c.c **** *
 274:..\..\..\..\..\..\Software\uCOS-III\Ports\ARM-Cortex-M0\Generic\GNU/os_cpu_c.c **** *                           (1) At each call site, the current size of the calling function’s stack
 275:..\..\..\..\..\..\Software\uCOS-III\Ports\ARM-Cortex-M0\Generic\GNU/os_cpu_c.c **** *                               This places an obligation on compilers and assembly language progra
 276:..\..\..\..\..\..\Software\uCOS-III\Ports\ARM-Cortex-M0\Generic\GNU/os_cpu_c.c **** *
 277:..\..\..\..\..\..\Software\uCOS-III\Ports\ARM-Cortex-M0\Generic\GNU/os_cpu_c.c **** *                           (2) SP is a multiple of 8 when control first enters a program.
 278:..\..\..\..\..\..\Software\uCOS-III\Ports\ARM-Cortex-M0\Generic\GNU/os_cpu_c.c **** *                               This places an obligation on authors of low level OS, RTOS, and run
 279:..\..\..\..\..\..\Software\uCOS-III\Ports\ARM-Cortex-M0\Generic\GNU/os_cpu_c.c **** *                               code to align SP at all points at which control first enters
 280:..\..\..\..\..\..\Software\uCOS-III\Ports\ARM-Cortex-M0\Generic\GNU/os_cpu_c.c **** *                               a body of (AAPCS-conforming) code.
 281:..\..\..\..\..\..\Software\uCOS-III\Ports\ARM-Cortex-M0\Generic\GNU/os_cpu_c.c **** *
 282:..\..\..\..\..\..\Software\uCOS-III\Ports\ARM-Cortex-M0\Generic\GNU/os_cpu_c.c **** *                       In turn, this requires the value of SP to be aligned to 0 modulo 8:
 283:..\..\..\..\..\..\Software\uCOS-III\Ports\ARM-Cortex-M0\Generic\GNU/os_cpu_c.c **** *
 284:..\..\..\..\..\..\Software\uCOS-III\Ports\ARM-Cortex-M0\Generic\GNU/os_cpu_c.c **** *                           (3) By exception handlers, before calling AAPCS-conforming code.
 285:..\..\..\..\..\..\Software\uCOS-III\Ports\ARM-Cortex-M0\Generic\GNU/os_cpu_c.c **** *
 286:..\..\..\..\..\..\Software\uCOS-III\Ports\ARM-Cortex-M0\Generic\GNU/os_cpu_c.c **** *                           (4) By OS/RTOS/run-time system code, before giving control to an applic
 287:..\..\..\..\..\..\Software\uCOS-III\Ports\ARM-Cortex-M0\Generic\GNU/os_cpu_c.c **** *
 288:..\..\..\..\..\..\Software\uCOS-III\Ports\ARM-Cortex-M0\Generic\GNU/os_cpu_c.c **** *                 (b) Section 2.3.1 corrective steps from the the SP must be 8-byte aligned on entr
 289:..\..\..\..\..\..\Software\uCOS-III\Ports\ARM-Cortex-M0\Generic\GNU/os_cpu_c.c **** *                     to AAPCS-conforming functions advisory note also states.
 290:..\..\..\..\..\..\Software\uCOS-III\Ports\ARM-Cortex-M0\Generic\GNU/os_cpu_c.c **** *
 291:..\..\..\..\..\..\Software\uCOS-III\Ports\ARM-Cortex-M0\Generic\GNU/os_cpu_c.c **** *                     " This requirement extends to operating systems and run-time code for all arc
 292:..\..\..\..\..\..\Software\uCOS-III\Ports\ARM-Cortex-M0\Generic\GNU/os_cpu_c.c **** *                       prior to ARMV7 and to the A, R and M architecture profiles thereafter. Spec
ARM GAS  C:\Users\EDULU~1.DES\AppData\Local\Temp\ccgbquJH.s 			page 10


 293:..\..\..\..\..\..\Software\uCOS-III\Ports\ARM-Cortex-M0\Generic\GNU/os_cpu_c.c **** *                       associated with ARMV7M are discussed in §2.3.3"
 294:..\..\..\..\..\..\Software\uCOS-III\Ports\ARM-Cortex-M0\Generic\GNU/os_cpu_c.c **** *
 295:..\..\..\..\..\..\Software\uCOS-III\Ports\ARM-Cortex-M0\Generic\GNU/os_cpu_c.c **** *                     (1) Even if the SP 8-byte aligment is not a requirement for the ARMv7M profil
 296:..\..\..\..\..\..\Software\uCOS-III\Ports\ARM-Cortex-M0\Generic\GNU/os_cpu_c.c **** *                         to 8-byte boundaries to support legacy execution enviroments.
 297:..\..\..\..\..\..\Software\uCOS-III\Ports\ARM-Cortex-M0\Generic\GNU/os_cpu_c.c **** *
 298:..\..\..\..\..\..\Software\uCOS-III\Ports\ARM-Cortex-M0\Generic\GNU/os_cpu_c.c **** *                 (c) Section 5.2.1.2 from the Procedure Call Standard for the ARM
 299:..\..\..\..\..\..\Software\uCOS-III\Ports\ARM-Cortex-M0\Generic\GNU/os_cpu_c.c **** *                     architecture states :  "The stack must also conform to the following
 300:..\..\..\..\..\..\Software\uCOS-III\Ports\ARM-Cortex-M0\Generic\GNU/os_cpu_c.c **** *                     constraint at a public interface:
 301:..\..\..\..\..\..\Software\uCOS-III\Ports\ARM-Cortex-M0\Generic\GNU/os_cpu_c.c **** *
 302:..\..\..\..\..\..\Software\uCOS-III\Ports\ARM-Cortex-M0\Generic\GNU/os_cpu_c.c **** *                     (1) SP mod 8 = 0. The stack must be double-word aligned"
 303:..\..\..\..\..\..\Software\uCOS-III\Ports\ARM-Cortex-M0\Generic\GNU/os_cpu_c.c **** *
 304:..\..\..\..\..\..\Software\uCOS-III\Ports\ARM-Cortex-M0\Generic\GNU/os_cpu_c.c **** *                 (d) From the ARM Technical Support Knowledge Base. 8 Byte stack aligment.
 305:..\..\..\..\..\..\Software\uCOS-III\Ports\ARM-Cortex-M0\Generic\GNU/os_cpu_c.c **** *
 306:..\..\..\..\..\..\Software\uCOS-III\Ports\ARM-Cortex-M0\Generic\GNU/os_cpu_c.c **** *                     "8 byte stack alignment is a requirement of the ARM Architecture Procedure
 307:..\..\..\..\..\..\Software\uCOS-III\Ports\ARM-Cortex-M0\Generic\GNU/os_cpu_c.c **** *                      Call Standard [AAPCS]. This specifies that functions must maintain an 8 byte
 308:..\..\..\..\..\..\Software\uCOS-III\Ports\ARM-Cortex-M0\Generic\GNU/os_cpu_c.c **** *                      aligned stack address (e.g. 0x00, 0x08, 0x10, 0x18, 0x20) on all external
 309:..\..\..\..\..\..\Software\uCOS-III\Ports\ARM-Cortex-M0\Generic\GNU/os_cpu_c.c **** *                      interfaces. In practice this requirement is met if:
 310:..\..\..\..\..\..\Software\uCOS-III\Ports\ARM-Cortex-M0\Generic\GNU/os_cpu_c.c **** *
 311:..\..\..\..\..\..\Software\uCOS-III\Ports\ARM-Cortex-M0\Generic\GNU/os_cpu_c.c **** *                      (1) At each external interface, the current stack pointer
 312:..\..\..\..\..\..\Software\uCOS-III\Ports\ARM-Cortex-M0\Generic\GNU/os_cpu_c.c **** *                          is a multiple of 8 bytes.
 313:..\..\..\..\..\..\Software\uCOS-III\Ports\ARM-Cortex-M0\Generic\GNU/os_cpu_c.c **** *
 314:..\..\..\..\..\..\Software\uCOS-III\Ports\ARM-Cortex-M0\Generic\GNU/os_cpu_c.c **** *                      (2) Your OS maintains 8 byte stack alignment on its external interfaces
 315:..\..\..\..\..\..\Software\uCOS-III\Ports\ARM-Cortex-M0\Generic\GNU/os_cpu_c.c **** *                          e.g. on task switches"
 316:..\..\..\..\..\..\Software\uCOS-III\Ports\ARM-Cortex-M0\Generic\GNU/os_cpu_c.c **** *
 317:..\..\..\..\..\..\Software\uCOS-III\Ports\ARM-Cortex-M0\Generic\GNU/os_cpu_c.c **** *              (4) Exception Return Behavior(EXEC_RETURN)
 318:..\..\..\..\..\..\Software\uCOS-III\Ports\ARM-Cortex-M0\Generic\GNU/os_cpu_c.c **** *                  0xFFFFFFF1      Return to Thread mode. Exception return gets state from the Main
 319:..\..\..\..\..\..\Software\uCOS-III\Ports\ARM-Cortex-M0\Generic\GNU/os_cpu_c.c **** *                                  On Return execution uses the Main Stack.
 320:..\..\..\..\..\..\Software\uCOS-III\Ports\ARM-Cortex-M0\Generic\GNU/os_cpu_c.c **** *
 321:..\..\..\..\..\..\Software\uCOS-III\Ports\ARM-Cortex-M0\Generic\GNU/os_cpu_c.c **** *                  0xFFFFFFF9      Return to Thread mode. Exception return gets state from the Main
 322:..\..\..\..\..\..\Software\uCOS-III\Ports\ARM-Cortex-M0\Generic\GNU/os_cpu_c.c **** *                                  On Return execution uses the Main Stack.
 323:..\..\..\..\..\..\Software\uCOS-III\Ports\ARM-Cortex-M0\Generic\GNU/os_cpu_c.c **** *
 324:..\..\..\..\..\..\Software\uCOS-III\Ports\ARM-Cortex-M0\Generic\GNU/os_cpu_c.c **** *                  0xFFFFFFFD      Return to Thread mode. Exception return gets state from the Proc
 325:..\..\..\..\..\..\Software\uCOS-III\Ports\ARM-Cortex-M0\Generic\GNU/os_cpu_c.c **** *                                  On Return execution uses the Process Stack.
 326:..\..\..\..\..\..\Software\uCOS-III\Ports\ARM-Cortex-M0\Generic\GNU/os_cpu_c.c **** ***************************************************************************************************
 327:..\..\..\..\..\..\Software\uCOS-III\Ports\ARM-Cortex-M0\Generic\GNU/os_cpu_c.c **** */
 328:..\..\..\..\..\..\Software\uCOS-III\Ports\ARM-Cortex-M0\Generic\GNU/os_cpu_c.c **** 
 329:..\..\..\..\..\..\Software\uCOS-III\Ports\ARM-Cortex-M0\Generic\GNU/os_cpu_c.c **** CPU_STK  *OSTaskStkInit (OS_TASK_PTR    p_task,
 330:..\..\..\..\..\..\Software\uCOS-III\Ports\ARM-Cortex-M0\Generic\GNU/os_cpu_c.c ****                          void          *p_arg,
 331:..\..\..\..\..\..\Software\uCOS-III\Ports\ARM-Cortex-M0\Generic\GNU/os_cpu_c.c ****                          CPU_STK       *p_stk_base,
 332:..\..\..\..\..\..\Software\uCOS-III\Ports\ARM-Cortex-M0\Generic\GNU/os_cpu_c.c ****                          CPU_STK       *p_stk_limit,
 333:..\..\..\..\..\..\Software\uCOS-III\Ports\ARM-Cortex-M0\Generic\GNU/os_cpu_c.c ****                          CPU_STK_SIZE   stk_size,
 334:..\..\..\..\..\..\Software\uCOS-III\Ports\ARM-Cortex-M0\Generic\GNU/os_cpu_c.c ****                          OS_OPT         opt)
 335:..\..\..\..\..\..\Software\uCOS-III\Ports\ARM-Cortex-M0\Generic\GNU/os_cpu_c.c **** {
 222              		.loc 1 335 0
 223              		.cfi_startproc
 224              		@ args = 8, pretend = 0, frame = 24
 225              		@ frame_needed = 1, uses_anonymous_args = 0
 226 0000 80B5     		push	{r7, lr}
 227              		.cfi_def_cfa_offset 8
 228              		.cfi_offset 7, -8
 229              		.cfi_offset 14, -4
 230 0002 86B0     		sub	sp, sp, #24
 231              		.cfi_def_cfa_offset 32
 232 0004 00AF     		add	r7, sp, #0
 233              		.cfi_def_cfa_register 7
 234 0006 F860     		str	r0, [r7, #12]
 235 0008 B960     		str	r1, [r7, #8]
ARM GAS  C:\Users\EDULU~1.DES\AppData\Local\Temp\ccgbquJH.s 			page 11


 236 000a 7A60     		str	r2, [r7, #4]
 237 000c 3B60     		str	r3, [r7]
 336:..\..\..\..\..\..\Software\uCOS-III\Ports\ARM-Cortex-M0\Generic\GNU/os_cpu_c.c ****     CPU_STK    *p_stk;
 337:..\..\..\..\..\..\Software\uCOS-III\Ports\ARM-Cortex-M0\Generic\GNU/os_cpu_c.c **** 
 338:..\..\..\..\..\..\Software\uCOS-III\Ports\ARM-Cortex-M0\Generic\GNU/os_cpu_c.c **** 
 339:..\..\..\..\..\..\Software\uCOS-III\Ports\ARM-Cortex-M0\Generic\GNU/os_cpu_c.c ****     (void)opt;                                                  /* 'opt' is not used, prevent warni
 340:..\..\..\..\..\..\Software\uCOS-III\Ports\ARM-Cortex-M0\Generic\GNU/os_cpu_c.c **** 
 341:..\..\..\..\..\..\Software\uCOS-III\Ports\ARM-Cortex-M0\Generic\GNU/os_cpu_c.c ****     p_stk = &p_stk_base[stk_size];                              /* Load stack pointer              
 238              		.loc 1 341 0
 239 000e 3B6A     		ldr	r3, [r7, #32]
 240 0010 9B00     		lsls	r3, r3, #2
 241 0012 7A68     		ldr	r2, [r7, #4]
 242 0014 D318     		adds	r3, r2, r3
 243 0016 7B61     		str	r3, [r7, #20]
 342:..\..\..\..\..\..\Software\uCOS-III\Ports\ARM-Cortex-M0\Generic\GNU/os_cpu_c.c ****                                                                 /* Align the stack to 8-bytes.     
 343:..\..\..\..\..\..\Software\uCOS-III\Ports\ARM-Cortex-M0\Generic\GNU/os_cpu_c.c ****     p_stk = (CPU_STK *)((CPU_STK)(p_stk) & 0xFFFFFFF8u);
 244              		.loc 1 343 0
 245 0018 7B69     		ldr	r3, [r7, #20]
 246 001a 0722     		movs	r2, #7
 247 001c 9343     		bics	r3, r2
 248 001e 7B61     		str	r3, [r7, #20]
 344:..\..\..\..\..\..\Software\uCOS-III\Ports\ARM-Cortex-M0\Generic\GNU/os_cpu_c.c ****                                                                 /* Registers stacked as if auto-sav
 345:..\..\..\..\..\..\Software\uCOS-III\Ports\ARM-Cortex-M0\Generic\GNU/os_cpu_c.c ****     *(--p_stk) = (CPU_STK)0x01000000u;                          /* xPSR                            
 249              		.loc 1 345 0
 250 0020 7B69     		ldr	r3, [r7, #20]
 251 0022 043B     		subs	r3, r3, #4
 252 0024 7B61     		str	r3, [r7, #20]
 253 0026 7B69     		ldr	r3, [r7, #20]
 254 0028 8022     		movs	r2, #128
 255 002a 5204     		lsls	r2, r2, #17
 256 002c 1A60     		str	r2, [r3]
 346:..\..\..\..\..\..\Software\uCOS-III\Ports\ARM-Cortex-M0\Generic\GNU/os_cpu_c.c ****     *(--p_stk) = (CPU_STK)p_task;                               /* Entry Point                     
 257              		.loc 1 346 0
 258 002e 7B69     		ldr	r3, [r7, #20]
 259 0030 043B     		subs	r3, r3, #4
 260 0032 7B61     		str	r3, [r7, #20]
 261 0034 FA68     		ldr	r2, [r7, #12]
 262 0036 7B69     		ldr	r3, [r7, #20]
 263 0038 1A60     		str	r2, [r3]
 347:..\..\..\..\..\..\Software\uCOS-III\Ports\ARM-Cortex-M0\Generic\GNU/os_cpu_c.c ****     *(--p_stk) = (CPU_STK)OS_TaskReturn;                        /* R14 (LR)                        
 264              		.loc 1 347 0
 265 003a 7B69     		ldr	r3, [r7, #20]
 266 003c 043B     		subs	r3, r3, #4
 267 003e 7B61     		str	r3, [r7, #20]
 268 0040 2E4A     		ldr	r2, .L11
 269 0042 7B69     		ldr	r3, [r7, #20]
 270 0044 1A60     		str	r2, [r3]
 348:..\..\..\..\..\..\Software\uCOS-III\Ports\ARM-Cortex-M0\Generic\GNU/os_cpu_c.c ****     *(--p_stk) = (CPU_STK)0x12121212u;                          /* R12                             
 271              		.loc 1 348 0
 272 0046 7B69     		ldr	r3, [r7, #20]
 273 0048 043B     		subs	r3, r3, #4
 274 004a 7B61     		str	r3, [r7, #20]
 275 004c 7B69     		ldr	r3, [r7, #20]
 276 004e 2C4A     		ldr	r2, .L11+4
 277 0050 1A60     		str	r2, [r3]
 349:..\..\..\..\..\..\Software\uCOS-III\Ports\ARM-Cortex-M0\Generic\GNU/os_cpu_c.c ****     *(--p_stk) = (CPU_STK)0x03030303u;                          /* R3                              
 278              		.loc 1 349 0
ARM GAS  C:\Users\EDULU~1.DES\AppData\Local\Temp\ccgbquJH.s 			page 12


 279 0052 7B69     		ldr	r3, [r7, #20]
 280 0054 043B     		subs	r3, r3, #4
 281 0056 7B61     		str	r3, [r7, #20]
 282 0058 7B69     		ldr	r3, [r7, #20]
 283 005a 2A4A     		ldr	r2, .L11+8
 284 005c 1A60     		str	r2, [r3]
 350:..\..\..\..\..\..\Software\uCOS-III\Ports\ARM-Cortex-M0\Generic\GNU/os_cpu_c.c ****     *(--p_stk) = (CPU_STK)0x02020202u;                          /* R2                              
 285              		.loc 1 350 0
 286 005e 7B69     		ldr	r3, [r7, #20]
 287 0060 043B     		subs	r3, r3, #4
 288 0062 7B61     		str	r3, [r7, #20]
 289 0064 7B69     		ldr	r3, [r7, #20]
 290 0066 284A     		ldr	r2, .L11+12
 291 0068 1A60     		str	r2, [r3]
 351:..\..\..\..\..\..\Software\uCOS-III\Ports\ARM-Cortex-M0\Generic\GNU/os_cpu_c.c ****     *(--p_stk) = (CPU_STK)p_stk_limit;                          /* R1                              
 292              		.loc 1 351 0
 293 006a 7B69     		ldr	r3, [r7, #20]
 294 006c 043B     		subs	r3, r3, #4
 295 006e 7B61     		str	r3, [r7, #20]
 296 0070 3A68     		ldr	r2, [r7]
 297 0072 7B69     		ldr	r3, [r7, #20]
 298 0074 1A60     		str	r2, [r3]
 352:..\..\..\..\..\..\Software\uCOS-III\Ports\ARM-Cortex-M0\Generic\GNU/os_cpu_c.c ****     *(--p_stk) = (CPU_STK)p_arg;                                /* R0 : argument                   
 299              		.loc 1 352 0
 300 0076 7B69     		ldr	r3, [r7, #20]
 301 0078 043B     		subs	r3, r3, #4
 302 007a 7B61     		str	r3, [r7, #20]
 303 007c BA68     		ldr	r2, [r7, #8]
 304 007e 7B69     		ldr	r3, [r7, #20]
 305 0080 1A60     		str	r2, [r3]
 353:..\..\..\..\..\..\Software\uCOS-III\Ports\ARM-Cortex-M0\Generic\GNU/os_cpu_c.c ****                                                                 /* Remaining registers saved on pro
 354:..\..\..\..\..\..\Software\uCOS-III\Ports\ARM-Cortex-M0\Generic\GNU/os_cpu_c.c ****     *(--p_stk) = (CPU_STK)0xFFFFFFFDuL;                         /* R14: EXEC_RETURN; See Note 4    
 306              		.loc 1 354 0
 307 0082 7B69     		ldr	r3, [r7, #20]
 308 0084 043B     		subs	r3, r3, #4
 309 0086 7B61     		str	r3, [r7, #20]
 310 0088 7B69     		ldr	r3, [r7, #20]
 311 008a 0322     		movs	r2, #3
 312 008c 5242     		rsbs	r2, r2, #0
 313 008e 1A60     		str	r2, [r3]
 355:..\..\..\..\..\..\Software\uCOS-III\Ports\ARM-Cortex-M0\Generic\GNU/os_cpu_c.c ****     *(--p_stk) = (CPU_STK)0x11111111uL;                         /* R11                             
 314              		.loc 1 355 0
 315 0090 7B69     		ldr	r3, [r7, #20]
 316 0092 043B     		subs	r3, r3, #4
 317 0094 7B61     		str	r3, [r7, #20]
 318 0096 7B69     		ldr	r3, [r7, #20]
 319 0098 1C4A     		ldr	r2, .L11+16
 320 009a 1A60     		str	r2, [r3]
 356:..\..\..\..\..\..\Software\uCOS-III\Ports\ARM-Cortex-M0\Generic\GNU/os_cpu_c.c ****     *(--p_stk) = (CPU_STK)0x10101010uL;                         /* R10                             
 321              		.loc 1 356 0
 322 009c 7B69     		ldr	r3, [r7, #20]
 323 009e 043B     		subs	r3, r3, #4
 324 00a0 7B61     		str	r3, [r7, #20]
 325 00a2 7B69     		ldr	r3, [r7, #20]
 326 00a4 1A4A     		ldr	r2, .L11+20
 327 00a6 1A60     		str	r2, [r3]
 357:..\..\..\..\..\..\Software\uCOS-III\Ports\ARM-Cortex-M0\Generic\GNU/os_cpu_c.c ****     *(--p_stk) = (CPU_STK)0x09090909uL;                         /* R9                              
ARM GAS  C:\Users\EDULU~1.DES\AppData\Local\Temp\ccgbquJH.s 			page 13


 328              		.loc 1 357 0
 329 00a8 7B69     		ldr	r3, [r7, #20]
 330 00aa 043B     		subs	r3, r3, #4
 331 00ac 7B61     		str	r3, [r7, #20]
 332 00ae 7B69     		ldr	r3, [r7, #20]
 333 00b0 184A     		ldr	r2, .L11+24
 334 00b2 1A60     		str	r2, [r3]
 358:..\..\..\..\..\..\Software\uCOS-III\Ports\ARM-Cortex-M0\Generic\GNU/os_cpu_c.c ****     *(--p_stk) = (CPU_STK)0x08080808uL;                         /* R8                              
 335              		.loc 1 358 0
 336 00b4 7B69     		ldr	r3, [r7, #20]
 337 00b6 043B     		subs	r3, r3, #4
 338 00b8 7B61     		str	r3, [r7, #20]
 339 00ba 7B69     		ldr	r3, [r7, #20]
 340 00bc 164A     		ldr	r2, .L11+28
 341 00be 1A60     		str	r2, [r3]
 359:..\..\..\..\..\..\Software\uCOS-III\Ports\ARM-Cortex-M0\Generic\GNU/os_cpu_c.c ****     *(--p_stk) = (CPU_STK)0x07070707uL;                         /* R7                              
 342              		.loc 1 359 0
 343 00c0 7B69     		ldr	r3, [r7, #20]
 344 00c2 043B     		subs	r3, r3, #4
 345 00c4 7B61     		str	r3, [r7, #20]
 346 00c6 7B69     		ldr	r3, [r7, #20]
 347 00c8 144A     		ldr	r2, .L11+32
 348 00ca 1A60     		str	r2, [r3]
 360:..\..\..\..\..\..\Software\uCOS-III\Ports\ARM-Cortex-M0\Generic\GNU/os_cpu_c.c ****     *(--p_stk) = (CPU_STK)0x06060606uL;                         /* R6                              
 349              		.loc 1 360 0
 350 00cc 7B69     		ldr	r3, [r7, #20]
 351 00ce 043B     		subs	r3, r3, #4
 352 00d0 7B61     		str	r3, [r7, #20]
 353 00d2 7B69     		ldr	r3, [r7, #20]
 354 00d4 124A     		ldr	r2, .L11+36
 355 00d6 1A60     		str	r2, [r3]
 361:..\..\..\..\..\..\Software\uCOS-III\Ports\ARM-Cortex-M0\Generic\GNU/os_cpu_c.c ****     *(--p_stk) = (CPU_STK)0x05050505uL;                         /* R5                              
 356              		.loc 1 361 0
 357 00d8 7B69     		ldr	r3, [r7, #20]
 358 00da 043B     		subs	r3, r3, #4
 359 00dc 7B61     		str	r3, [r7, #20]
 360 00de 7B69     		ldr	r3, [r7, #20]
 361 00e0 104A     		ldr	r2, .L11+40
 362 00e2 1A60     		str	r2, [r3]
 362:..\..\..\..\..\..\Software\uCOS-III\Ports\ARM-Cortex-M0\Generic\GNU/os_cpu_c.c ****     *(--p_stk) = (CPU_STK)0x04040404uL;                         /* R4                              
 363              		.loc 1 362 0
 364 00e4 7B69     		ldr	r3, [r7, #20]
 365 00e6 043B     		subs	r3, r3, #4
 366 00e8 7B61     		str	r3, [r7, #20]
 367 00ea 7B69     		ldr	r3, [r7, #20]
 368 00ec 0E4A     		ldr	r2, .L11+44
 369 00ee 1A60     		str	r2, [r3]
 363:..\..\..\..\..\..\Software\uCOS-III\Ports\ARM-Cortex-M0\Generic\GNU/os_cpu_c.c **** 
 364:..\..\..\..\..\..\Software\uCOS-III\Ports\ARM-Cortex-M0\Generic\GNU/os_cpu_c.c ****     return (p_stk);
 370              		.loc 1 364 0
 371 00f0 7B69     		ldr	r3, [r7, #20]
 365:..\..\..\..\..\..\Software\uCOS-III\Ports\ARM-Cortex-M0\Generic\GNU/os_cpu_c.c **** }
 372              		.loc 1 365 0
 373 00f2 1800     		movs	r0, r3
 374 00f4 BD46     		mov	sp, r7
 375 00f6 06B0     		add	sp, sp, #24
 376              		@ sp needed
ARM GAS  C:\Users\EDULU~1.DES\AppData\Local\Temp\ccgbquJH.s 			page 14


 377 00f8 80BD     		pop	{r7, pc}
 378              	.L12:
 379 00fa C046     		.align	2
 380              	.L11:
 381 00fc 00000000 		.word	OS_TaskReturn
 382 0100 12121212 		.word	303174162
 383 0104 03030303 		.word	50529027
 384 0108 02020202 		.word	33686018
 385 010c 11111111 		.word	286331153
 386 0110 10101010 		.word	269488144
 387 0114 09090909 		.word	151587081
 388 0118 08080808 		.word	134744072
 389 011c 07070707 		.word	117901063
 390 0120 06060606 		.word	101058054
 391 0124 05050505 		.word	84215045
 392 0128 04040404 		.word	67372036
 393              		.cfi_endproc
 394              	.LFE7:
 395              		.size	OSTaskStkInit, .-OSTaskStkInit
 396              		.section	.text.OSTaskSwHook,"ax",%progbits
 397              		.align	2
 398              		.global	OSTaskSwHook
 399              		.code	16
 400              		.thumb_func
 401              		.type	OSTaskSwHook, %function
 402              	OSTaskSwHook:
 403              	.LFB8:
 366:..\..\..\..\..\..\Software\uCOS-III\Ports\ARM-Cortex-M0\Generic\GNU/os_cpu_c.c **** 
 367:..\..\..\..\..\..\Software\uCOS-III\Ports\ARM-Cortex-M0\Generic\GNU/os_cpu_c.c **** 
 368:..\..\..\..\..\..\Software\uCOS-III\Ports\ARM-Cortex-M0\Generic\GNU/os_cpu_c.c **** /*
 369:..\..\..\..\..\..\Software\uCOS-III\Ports\ARM-Cortex-M0\Generic\GNU/os_cpu_c.c **** ***************************************************************************************************
 370:..\..\..\..\..\..\Software\uCOS-III\Ports\ARM-Cortex-M0\Generic\GNU/os_cpu_c.c **** *                                           TASK SWITCH HOOK
 371:..\..\..\..\..\..\Software\uCOS-III\Ports\ARM-Cortex-M0\Generic\GNU/os_cpu_c.c **** *
 372:..\..\..\..\..\..\Software\uCOS-III\Ports\ARM-Cortex-M0\Generic\GNU/os_cpu_c.c **** * Description: This function is called when a task switch is performed.  This allows you to perform
 373:..\..\..\..\..\..\Software\uCOS-III\Ports\ARM-Cortex-M0\Generic\GNU/os_cpu_c.c **** *              operations during a context switch.
 374:..\..\..\..\..\..\Software\uCOS-III\Ports\ARM-Cortex-M0\Generic\GNU/os_cpu_c.c **** *
 375:..\..\..\..\..\..\Software\uCOS-III\Ports\ARM-Cortex-M0\Generic\GNU/os_cpu_c.c **** * Arguments  : None.
 376:..\..\..\..\..\..\Software\uCOS-III\Ports\ARM-Cortex-M0\Generic\GNU/os_cpu_c.c **** *
 377:..\..\..\..\..\..\Software\uCOS-III\Ports\ARM-Cortex-M0\Generic\GNU/os_cpu_c.c **** * Note(s)    : 1) Interrupts are disabled during this call.
 378:..\..\..\..\..\..\Software\uCOS-III\Ports\ARM-Cortex-M0\Generic\GNU/os_cpu_c.c **** *              2) It is assumed that the global pointer 'OSTCBHighRdyPtr' points to the TCB of the 
 379:..\..\..\..\..\..\Software\uCOS-III\Ports\ARM-Cortex-M0\Generic\GNU/os_cpu_c.c **** *                 that will be 'switched in' (i.e. the highest priority task) and, 'OSTCBCurPtr' po
 380:..\..\..\..\..\..\Software\uCOS-III\Ports\ARM-Cortex-M0\Generic\GNU/os_cpu_c.c **** *                 to the task being switched out (i.e. the preempted task).
 381:..\..\..\..\..\..\Software\uCOS-III\Ports\ARM-Cortex-M0\Generic\GNU/os_cpu_c.c **** ***************************************************************************************************
 382:..\..\..\..\..\..\Software\uCOS-III\Ports\ARM-Cortex-M0\Generic\GNU/os_cpu_c.c **** */
 383:..\..\..\..\..\..\Software\uCOS-III\Ports\ARM-Cortex-M0\Generic\GNU/os_cpu_c.c **** 
 384:..\..\..\..\..\..\Software\uCOS-III\Ports\ARM-Cortex-M0\Generic\GNU/os_cpu_c.c **** void  OSTaskSwHook (void)
 385:..\..\..\..\..\..\Software\uCOS-III\Ports\ARM-Cortex-M0\Generic\GNU/os_cpu_c.c **** {
 404              		.loc 1 385 0
 405              		.cfi_startproc
 406              		@ args = 0, pretend = 0, frame = 8
 407              		@ frame_needed = 1, uses_anonymous_args = 0
 408 0000 80B5     		push	{r7, lr}
 409              		.cfi_def_cfa_offset 8
 410              		.cfi_offset 7, -8
 411              		.cfi_offset 14, -4
 412 0002 82B0     		sub	sp, sp, #8
 413              		.cfi_def_cfa_offset 16
ARM GAS  C:\Users\EDULU~1.DES\AppData\Local\Temp\ccgbquJH.s 			page 15


 414 0004 00AF     		add	r7, sp, #0
 415              		.cfi_def_cfa_register 7
 386:..\..\..\..\..\..\Software\uCOS-III\Ports\ARM-Cortex-M0\Generic\GNU/os_cpu_c.c **** #if OS_CFG_TASK_PROFILE_EN > 0u
 387:..\..\..\..\..\..\Software\uCOS-III\Ports\ARM-Cortex-M0\Generic\GNU/os_cpu_c.c ****     CPU_TS  ts;
 388:..\..\..\..\..\..\Software\uCOS-III\Ports\ARM-Cortex-M0\Generic\GNU/os_cpu_c.c **** #endif
 389:..\..\..\..\..\..\Software\uCOS-III\Ports\ARM-Cortex-M0\Generic\GNU/os_cpu_c.c **** #ifdef  CPU_CFG_INT_DIS_MEAS_EN
 390:..\..\..\..\..\..\Software\uCOS-III\Ports\ARM-Cortex-M0\Generic\GNU/os_cpu_c.c ****     CPU_TS  int_dis_time;
 391:..\..\..\..\..\..\Software\uCOS-III\Ports\ARM-Cortex-M0\Generic\GNU/os_cpu_c.c **** #endif
 392:..\..\..\..\..\..\Software\uCOS-III\Ports\ARM-Cortex-M0\Generic\GNU/os_cpu_c.c **** #if (OS_CFG_TASK_STK_REDZONE_EN == DEF_ENABLED)
 393:..\..\..\..\..\..\Software\uCOS-III\Ports\ARM-Cortex-M0\Generic\GNU/os_cpu_c.c ****     CPU_BOOLEAN  stk_status;
 394:..\..\..\..\..\..\Software\uCOS-III\Ports\ARM-Cortex-M0\Generic\GNU/os_cpu_c.c **** #endif
 395:..\..\..\..\..\..\Software\uCOS-III\Ports\ARM-Cortex-M0\Generic\GNU/os_cpu_c.c **** 
 396:..\..\..\..\..\..\Software\uCOS-III\Ports\ARM-Cortex-M0\Generic\GNU/os_cpu_c.c **** #if OS_CFG_APP_HOOKS_EN > 0u
 397:..\..\..\..\..\..\Software\uCOS-III\Ports\ARM-Cortex-M0\Generic\GNU/os_cpu_c.c ****     if (OS_AppTaskSwHookPtr != (OS_APP_HOOK_VOID)0) {
 398:..\..\..\..\..\..\Software\uCOS-III\Ports\ARM-Cortex-M0\Generic\GNU/os_cpu_c.c ****         (*OS_AppTaskSwHookPtr)();
 399:..\..\..\..\..\..\Software\uCOS-III\Ports\ARM-Cortex-M0\Generic\GNU/os_cpu_c.c ****     }
 400:..\..\..\..\..\..\Software\uCOS-III\Ports\ARM-Cortex-M0\Generic\GNU/os_cpu_c.c **** #endif
 401:..\..\..\..\..\..\Software\uCOS-III\Ports\ARM-Cortex-M0\Generic\GNU/os_cpu_c.c **** 
 402:..\..\..\..\..\..\Software\uCOS-III\Ports\ARM-Cortex-M0\Generic\GNU/os_cpu_c.c **** #if (defined(TRACE_CFG_EN) && (TRACE_CFG_EN > 0u))
 403:..\..\..\..\..\..\Software\uCOS-III\Ports\ARM-Cortex-M0\Generic\GNU/os_cpu_c.c ****     TRACE_OS_TASK_SWITCHED_IN(OSTCBHighRdyPtr);                 /* Record the event.               
 404:..\..\..\..\..\..\Software\uCOS-III\Ports\ARM-Cortex-M0\Generic\GNU/os_cpu_c.c **** #endif
 405:..\..\..\..\..\..\Software\uCOS-III\Ports\ARM-Cortex-M0\Generic\GNU/os_cpu_c.c **** 
 406:..\..\..\..\..\..\Software\uCOS-III\Ports\ARM-Cortex-M0\Generic\GNU/os_cpu_c.c **** #if OS_CFG_TASK_PROFILE_EN > 0u
 407:..\..\..\..\..\..\Software\uCOS-III\Ports\ARM-Cortex-M0\Generic\GNU/os_cpu_c.c ****     ts = OS_TS_GET();
 408:..\..\..\..\..\..\Software\uCOS-III\Ports\ARM-Cortex-M0\Generic\GNU/os_cpu_c.c ****     if (OSTCBCurPtr != OSTCBHighRdyPtr) {
 409:..\..\..\..\..\..\Software\uCOS-III\Ports\ARM-Cortex-M0\Generic\GNU/os_cpu_c.c ****         OSTCBCurPtr->CyclesDelta  = ts - OSTCBCurPtr->CyclesStart;
 410:..\..\..\..\..\..\Software\uCOS-III\Ports\ARM-Cortex-M0\Generic\GNU/os_cpu_c.c ****         OSTCBCurPtr->CyclesTotal += (OS_CYCLES)OSTCBCurPtr->CyclesDelta;
 411:..\..\..\..\..\..\Software\uCOS-III\Ports\ARM-Cortex-M0\Generic\GNU/os_cpu_c.c ****     }
 412:..\..\..\..\..\..\Software\uCOS-III\Ports\ARM-Cortex-M0\Generic\GNU/os_cpu_c.c **** 
 413:..\..\..\..\..\..\Software\uCOS-III\Ports\ARM-Cortex-M0\Generic\GNU/os_cpu_c.c ****     OSTCBHighRdyPtr->CyclesStart = ts;
 414:..\..\..\..\..\..\Software\uCOS-III\Ports\ARM-Cortex-M0\Generic\GNU/os_cpu_c.c **** #endif
 415:..\..\..\..\..\..\Software\uCOS-III\Ports\ARM-Cortex-M0\Generic\GNU/os_cpu_c.c **** 
 416:..\..\..\..\..\..\Software\uCOS-III\Ports\ARM-Cortex-M0\Generic\GNU/os_cpu_c.c **** #ifdef  CPU_CFG_INT_DIS_MEAS_EN
 417:..\..\..\..\..\..\Software\uCOS-III\Ports\ARM-Cortex-M0\Generic\GNU/os_cpu_c.c ****     int_dis_time = CPU_IntDisMeasMaxCurReset();                 /* Keep track of per-task interrupt
 416              		.loc 1 417 0
 417 0006 FFF7FEFF 		bl	CPU_IntDisMeasMaxCurReset
 418 000a 0300     		movs	r3, r0
 419 000c 7B60     		str	r3, [r7, #4]
 418:..\..\..\..\..\..\Software\uCOS-III\Ports\ARM-Cortex-M0\Generic\GNU/os_cpu_c.c ****     if (OSTCBCurPtr->IntDisTimeMax < int_dis_time) {
 420              		.loc 1 418 0
 421 000e 074B     		ldr	r3, .L16
 422 0010 1B68     		ldr	r3, [r3]
 423 0012 DA6E     		ldr	r2, [r3, #108]
 424 0014 7B68     		ldr	r3, [r7, #4]
 425 0016 9A42     		cmp	r2, r3
 426 0018 03D2     		bcs	.L15
 419:..\..\..\..\..\..\Software\uCOS-III\Ports\ARM-Cortex-M0\Generic\GNU/os_cpu_c.c ****         OSTCBCurPtr->IntDisTimeMax = int_dis_time;
 427              		.loc 1 419 0
 428 001a 044B     		ldr	r3, .L16
 429 001c 1B68     		ldr	r3, [r3]
 430 001e 7A68     		ldr	r2, [r7, #4]
 431 0020 DA66     		str	r2, [r3, #108]
 432              	.L15:
 420:..\..\..\..\..\..\Software\uCOS-III\Ports\ARM-Cortex-M0\Generic\GNU/os_cpu_c.c ****     }
 421:..\..\..\..\..\..\Software\uCOS-III\Ports\ARM-Cortex-M0\Generic\GNU/os_cpu_c.c **** #endif
 422:..\..\..\..\..\..\Software\uCOS-III\Ports\ARM-Cortex-M0\Generic\GNU/os_cpu_c.c **** 
 423:..\..\..\..\..\..\Software\uCOS-III\Ports\ARM-Cortex-M0\Generic\GNU/os_cpu_c.c **** #if OS_CFG_SCHED_LOCK_TIME_MEAS_EN > 0u
ARM GAS  C:\Users\EDULU~1.DES\AppData\Local\Temp\ccgbquJH.s 			page 16


 424:..\..\..\..\..\..\Software\uCOS-III\Ports\ARM-Cortex-M0\Generic\GNU/os_cpu_c.c ****                                                                 /* Keep track of per-task scheduler
 425:..\..\..\..\..\..\Software\uCOS-III\Ports\ARM-Cortex-M0\Generic\GNU/os_cpu_c.c ****     if (OSTCBCurPtr->SchedLockTimeMax < OSSchedLockTimeMaxCur) {
 426:..\..\..\..\..\..\Software\uCOS-III\Ports\ARM-Cortex-M0\Generic\GNU/os_cpu_c.c ****         OSTCBCurPtr->SchedLockTimeMax = OSSchedLockTimeMaxCur;
 427:..\..\..\..\..\..\Software\uCOS-III\Ports\ARM-Cortex-M0\Generic\GNU/os_cpu_c.c ****     }
 428:..\..\..\..\..\..\Software\uCOS-III\Ports\ARM-Cortex-M0\Generic\GNU/os_cpu_c.c ****     OSSchedLockTimeMaxCur = (CPU_TS)0;                          /* Reset the per-task value        
 429:..\..\..\..\..\..\Software\uCOS-III\Ports\ARM-Cortex-M0\Generic\GNU/os_cpu_c.c **** #endif
 430:..\..\..\..\..\..\Software\uCOS-III\Ports\ARM-Cortex-M0\Generic\GNU/os_cpu_c.c **** 
 431:..\..\..\..\..\..\Software\uCOS-III\Ports\ARM-Cortex-M0\Generic\GNU/os_cpu_c.c **** #if (OS_CFG_TASK_STK_REDZONE_EN == DEF_ENABLED)
 432:..\..\..\..\..\..\Software\uCOS-III\Ports\ARM-Cortex-M0\Generic\GNU/os_cpu_c.c ****                                                                 /* Check if stack overflowed.      
 433:..\..\..\..\..\..\Software\uCOS-III\Ports\ARM-Cortex-M0\Generic\GNU/os_cpu_c.c ****     stk_status = OSTaskStkRedzoneChk(DEF_NULL);
 434:..\..\..\..\..\..\Software\uCOS-III\Ports\ARM-Cortex-M0\Generic\GNU/os_cpu_c.c ****     if (stk_status != DEF_OK) {
 435:..\..\..\..\..\..\Software\uCOS-III\Ports\ARM-Cortex-M0\Generic\GNU/os_cpu_c.c ****         OSRedzoneHitHook(OSTCBCurPtr);
 436:..\..\..\..\..\..\Software\uCOS-III\Ports\ARM-Cortex-M0\Generic\GNU/os_cpu_c.c ****     }
 437:..\..\..\..\..\..\Software\uCOS-III\Ports\ARM-Cortex-M0\Generic\GNU/os_cpu_c.c **** #endif
 438:..\..\..\..\..\..\Software\uCOS-III\Ports\ARM-Cortex-M0\Generic\GNU/os_cpu_c.c **** }
 433              		.loc 1 438 0
 434 0022 C046     		nop
 435 0024 BD46     		mov	sp, r7
 436 0026 02B0     		add	sp, sp, #8
 437              		@ sp needed
 438 0028 80BD     		pop	{r7, pc}
 439              	.L17:
 440 002a C046     		.align	2
 441              	.L16:
 442 002c 00000000 		.word	OSTCBCurPtr
 443              		.cfi_endproc
 444              	.LFE8:
 445              		.size	OSTaskSwHook, .-OSTaskSwHook
 446              		.section	.text.OSTimeTickHook,"ax",%progbits
 447              		.align	2
 448              		.global	OSTimeTickHook
 449              		.code	16
 450              		.thumb_func
 451              		.type	OSTimeTickHook, %function
 452              	OSTimeTickHook:
 453              	.LFB9:
 439:..\..\..\..\..\..\Software\uCOS-III\Ports\ARM-Cortex-M0\Generic\GNU/os_cpu_c.c **** 
 440:..\..\..\..\..\..\Software\uCOS-III\Ports\ARM-Cortex-M0\Generic\GNU/os_cpu_c.c **** 
 441:..\..\..\..\..\..\Software\uCOS-III\Ports\ARM-Cortex-M0\Generic\GNU/os_cpu_c.c **** /*
 442:..\..\..\..\..\..\Software\uCOS-III\Ports\ARM-Cortex-M0\Generic\GNU/os_cpu_c.c **** ***************************************************************************************************
 443:..\..\..\..\..\..\Software\uCOS-III\Ports\ARM-Cortex-M0\Generic\GNU/os_cpu_c.c **** *                                              TICK HOOK
 444:..\..\..\..\..\..\Software\uCOS-III\Ports\ARM-Cortex-M0\Generic\GNU/os_cpu_c.c **** *
 445:..\..\..\..\..\..\Software\uCOS-III\Ports\ARM-Cortex-M0\Generic\GNU/os_cpu_c.c **** * Description: This function is called every tick.
 446:..\..\..\..\..\..\Software\uCOS-III\Ports\ARM-Cortex-M0\Generic\GNU/os_cpu_c.c **** *
 447:..\..\..\..\..\..\Software\uCOS-III\Ports\ARM-Cortex-M0\Generic\GNU/os_cpu_c.c **** * Arguments  : None.
 448:..\..\..\..\..\..\Software\uCOS-III\Ports\ARM-Cortex-M0\Generic\GNU/os_cpu_c.c **** *
 449:..\..\..\..\..\..\Software\uCOS-III\Ports\ARM-Cortex-M0\Generic\GNU/os_cpu_c.c **** * Note(s)    : 1) This function is assumed to be called from the Tick ISR.
 450:..\..\..\..\..\..\Software\uCOS-III\Ports\ARM-Cortex-M0\Generic\GNU/os_cpu_c.c **** ***************************************************************************************************
 451:..\..\..\..\..\..\Software\uCOS-III\Ports\ARM-Cortex-M0\Generic\GNU/os_cpu_c.c **** */
 452:..\..\..\..\..\..\Software\uCOS-III\Ports\ARM-Cortex-M0\Generic\GNU/os_cpu_c.c **** 
 453:..\..\..\..\..\..\Software\uCOS-III\Ports\ARM-Cortex-M0\Generic\GNU/os_cpu_c.c **** void  OSTimeTickHook (void)
 454:..\..\..\..\..\..\Software\uCOS-III\Ports\ARM-Cortex-M0\Generic\GNU/os_cpu_c.c **** {
 454              		.loc 1 454 0
 455              		.cfi_startproc
 456              		@ args = 0, pretend = 0, frame = 0
 457              		@ frame_needed = 1, uses_anonymous_args = 0
 458 0000 80B5     		push	{r7, lr}
ARM GAS  C:\Users\EDULU~1.DES\AppData\Local\Temp\ccgbquJH.s 			page 17


 459              		.cfi_def_cfa_offset 8
 460              		.cfi_offset 7, -8
 461              		.cfi_offset 14, -4
 462 0002 00AF     		add	r7, sp, #0
 463              		.cfi_def_cfa_register 7
 455:..\..\..\..\..\..\Software\uCOS-III\Ports\ARM-Cortex-M0\Generic\GNU/os_cpu_c.c **** #if OS_CFG_APP_HOOKS_EN > 0u
 456:..\..\..\..\..\..\Software\uCOS-III\Ports\ARM-Cortex-M0\Generic\GNU/os_cpu_c.c ****     if (OS_AppTimeTickHookPtr != (OS_APP_HOOK_VOID)0) {
 457:..\..\..\..\..\..\Software\uCOS-III\Ports\ARM-Cortex-M0\Generic\GNU/os_cpu_c.c ****         (*OS_AppTimeTickHookPtr)();
 458:..\..\..\..\..\..\Software\uCOS-III\Ports\ARM-Cortex-M0\Generic\GNU/os_cpu_c.c ****     }
 459:..\..\..\..\..\..\Software\uCOS-III\Ports\ARM-Cortex-M0\Generic\GNU/os_cpu_c.c **** #endif
 460:..\..\..\..\..\..\Software\uCOS-III\Ports\ARM-Cortex-M0\Generic\GNU/os_cpu_c.c **** }
 464              		.loc 1 460 0
 465 0004 C046     		nop
 466 0006 BD46     		mov	sp, r7
 467              		@ sp needed
 468 0008 80BD     		pop	{r7, pc}
 469              		.cfi_endproc
 470              	.LFE9:
 471              		.size	OSTimeTickHook, .-OSTimeTickHook
 472              		.section	.text.SysTick_Handler,"ax",%progbits
 473              		.align	2
 474              		.global	SysTick_Handler
 475              		.code	16
 476              		.thumb_func
 477              		.type	SysTick_Handler, %function
 478              	SysTick_Handler:
 479              	.LFB10:
 461:..\..\..\..\..\..\Software\uCOS-III\Ports\ARM-Cortex-M0\Generic\GNU/os_cpu_c.c **** 
 462:..\..\..\..\..\..\Software\uCOS-III\Ports\ARM-Cortex-M0\Generic\GNU/os_cpu_c.c **** 
 463:..\..\..\..\..\..\Software\uCOS-III\Ports\ARM-Cortex-M0\Generic\GNU/os_cpu_c.c **** /*
 464:..\..\..\..\..\..\Software\uCOS-III\Ports\ARM-Cortex-M0\Generic\GNU/os_cpu_c.c **** ***************************************************************************************************
 465:..\..\..\..\..\..\Software\uCOS-III\Ports\ARM-Cortex-M0\Generic\GNU/os_cpu_c.c **** *                                          SYS TICK HANDLER
 466:..\..\..\..\..\..\Software\uCOS-III\Ports\ARM-Cortex-M0\Generic\GNU/os_cpu_c.c **** *
 467:..\..\..\..\..\..\Software\uCOS-III\Ports\ARM-Cortex-M0\Generic\GNU/os_cpu_c.c **** * Description: Handle the system tick (SysTick) interrupt, which is used to generate the uC/OS-II t
 468:..\..\..\..\..\..\Software\uCOS-III\Ports\ARM-Cortex-M0\Generic\GNU/os_cpu_c.c **** *              interrupt.
 469:..\..\..\..\..\..\Software\uCOS-III\Ports\ARM-Cortex-M0\Generic\GNU/os_cpu_c.c **** *
 470:..\..\..\..\..\..\Software\uCOS-III\Ports\ARM-Cortex-M0\Generic\GNU/os_cpu_c.c **** * Arguments  : None.
 471:..\..\..\..\..\..\Software\uCOS-III\Ports\ARM-Cortex-M0\Generic\GNU/os_cpu_c.c **** *
 472:..\..\..\..\..\..\Software\uCOS-III\Ports\ARM-Cortex-M0\Generic\GNU/os_cpu_c.c **** * Note(s)    : 1) This function MUST be placed on entry 15 of the Cortex-M0 vector table.
 473:..\..\..\..\..\..\Software\uCOS-III\Ports\ARM-Cortex-M0\Generic\GNU/os_cpu_c.c **** ***************************************************************************************************
 474:..\..\..\..\..\..\Software\uCOS-III\Ports\ARM-Cortex-M0\Generic\GNU/os_cpu_c.c **** */
 475:..\..\..\..\..\..\Software\uCOS-III\Ports\ARM-Cortex-M0\Generic\GNU/os_cpu_c.c **** 
 476:..\..\..\..\..\..\Software\uCOS-III\Ports\ARM-Cortex-M0\Generic\GNU/os_cpu_c.c **** void  SysTick_Handler (void)
 477:..\..\..\..\..\..\Software\uCOS-III\Ports\ARM-Cortex-M0\Generic\GNU/os_cpu_c.c **** {
 480              		.loc 1 477 0
 481              		.cfi_startproc
 482              		@ args = 0, pretend = 0, frame = 8
 483              		@ frame_needed = 1, uses_anonymous_args = 0
 484 0000 80B5     		push	{r7, lr}
 485              		.cfi_def_cfa_offset 8
 486              		.cfi_offset 7, -8
 487              		.cfi_offset 14, -4
 488 0002 82B0     		sub	sp, sp, #8
 489              		.cfi_def_cfa_offset 16
 490 0004 00AF     		add	r7, sp, #0
 491              		.cfi_def_cfa_register 7
 478:..\..\..\..\..\..\Software\uCOS-III\Ports\ARM-Cortex-M0\Generic\GNU/os_cpu_c.c ****     CPU_SR_ALLOC();
ARM GAS  C:\Users\EDULU~1.DES\AppData\Local\Temp\ccgbquJH.s 			page 18


 492              		.loc 1 478 0
 493 0006 0023     		movs	r3, #0
 494 0008 7B60     		str	r3, [r7, #4]
 479:..\..\..\..\..\..\Software\uCOS-III\Ports\ARM-Cortex-M0\Generic\GNU/os_cpu_c.c **** 
 480:..\..\..\..\..\..\Software\uCOS-III\Ports\ARM-Cortex-M0\Generic\GNU/os_cpu_c.c **** 
 481:..\..\..\..\..\..\Software\uCOS-III\Ports\ARM-Cortex-M0\Generic\GNU/os_cpu_c.c ****     CPU_CRITICAL_ENTER();
 495              		.loc 1 481 0
 496 000a FFF7FEFF 		bl	CPU_SR_Save
 497 000e 0300     		movs	r3, r0
 498 0010 7B60     		str	r3, [r7, #4]
 499 0012 FFF7FEFF 		bl	CPU_IntDisMeasStart
 482:..\..\..\..\..\..\Software\uCOS-III\Ports\ARM-Cortex-M0\Generic\GNU/os_cpu_c.c ****     OSIntEnter();                                               /* Tell uC/OS-III that we are start
 500              		.loc 1 482 0
 501 0016 FFF7FEFF 		bl	OSIntEnter
 483:..\..\..\..\..\..\Software\uCOS-III\Ports\ARM-Cortex-M0\Generic\GNU/os_cpu_c.c ****     CPU_CRITICAL_EXIT();
 502              		.loc 1 483 0
 503 001a FFF7FEFF 		bl	CPU_IntDisMeasStop
 504 001e 7B68     		ldr	r3, [r7, #4]
 505 0020 1800     		movs	r0, r3
 506 0022 FFF7FEFF 		bl	CPU_SR_Restore
 484:..\..\..\..\..\..\Software\uCOS-III\Ports\ARM-Cortex-M0\Generic\GNU/os_cpu_c.c **** 
 485:..\..\..\..\..\..\Software\uCOS-III\Ports\ARM-Cortex-M0\Generic\GNU/os_cpu_c.c ****     OSTimeTick();                                               /* Call uC/OS-III's OSTimeTick()   
 507              		.loc 1 485 0
 508 0026 FFF7FEFF 		bl	OSTimeTick
 486:..\..\..\..\..\..\Software\uCOS-III\Ports\ARM-Cortex-M0\Generic\GNU/os_cpu_c.c **** 
 487:..\..\..\..\..\..\Software\uCOS-III\Ports\ARM-Cortex-M0\Generic\GNU/os_cpu_c.c ****     OSIntExit();                                                /* Tell uC/OS-III that we are leavi
 509              		.loc 1 487 0
 510 002a FFF7FEFF 		bl	OSIntExit
 488:..\..\..\..\..\..\Software\uCOS-III\Ports\ARM-Cortex-M0\Generic\GNU/os_cpu_c.c **** }
 511              		.loc 1 488 0
 512 002e C046     		nop
 513 0030 BD46     		mov	sp, r7
 514 0032 02B0     		add	sp, sp, #8
 515              		@ sp needed
 516 0034 80BD     		pop	{r7, pc}
 517              		.cfi_endproc
 518              	.LFE10:
 519              		.size	SysTick_Handler, .-SysTick_Handler
 520              		.global	__aeabi_uidiv
 521              		.section	.text.OS_CPU_SysTickInit,"ax",%progbits
 522              		.align	2
 523              		.global	OS_CPU_SysTickInit
 524              		.code	16
 525              		.thumb_func
 526              		.type	OS_CPU_SysTickInit, %function
 527              	OS_CPU_SysTickInit:
 528              	.LFB11:
 489:..\..\..\..\..\..\Software\uCOS-III\Ports\ARM-Cortex-M0\Generic\GNU/os_cpu_c.c **** 
 490:..\..\..\..\..\..\Software\uCOS-III\Ports\ARM-Cortex-M0\Generic\GNU/os_cpu_c.c **** 
 491:..\..\..\..\..\..\Software\uCOS-III\Ports\ARM-Cortex-M0\Generic\GNU/os_cpu_c.c **** /*
 492:..\..\..\..\..\..\Software\uCOS-III\Ports\ARM-Cortex-M0\Generic\GNU/os_cpu_c.c **** ***************************************************************************************************
 493:..\..\..\..\..\..\Software\uCOS-III\Ports\ARM-Cortex-M0\Generic\GNU/os_cpu_c.c **** *                                         INITIALIZE SYS TICK
 494:..\..\..\..\..\..\Software\uCOS-III\Ports\ARM-Cortex-M0\Generic\GNU/os_cpu_c.c **** *
 495:..\..\..\..\..\..\Software\uCOS-III\Ports\ARM-Cortex-M0\Generic\GNU/os_cpu_c.c **** * Description: Initialize the SysTick.
 496:..\..\..\..\..\..\Software\uCOS-III\Ports\ARM-Cortex-M0\Generic\GNU/os_cpu_c.c **** *
 497:..\..\..\..\..\..\Software\uCOS-III\Ports\ARM-Cortex-M0\Generic\GNU/os_cpu_c.c **** * Arguments  : cpu_freq         CPU clock frequency.
 498:..\..\..\..\..\..\Software\uCOS-III\Ports\ARM-Cortex-M0\Generic\GNU/os_cpu_c.c **** *
ARM GAS  C:\Users\EDULU~1.DES\AppData\Local\Temp\ccgbquJH.s 			page 19


 499:..\..\..\..\..\..\Software\uCOS-III\Ports\ARM-Cortex-M0\Generic\GNU/os_cpu_c.c **** * Note(s)    : 1) This function MUST be called after OSStart() & after processor initialization.
 500:..\..\..\..\..\..\Software\uCOS-III\Ports\ARM-Cortex-M0\Generic\GNU/os_cpu_c.c **** ***************************************************************************************************
 501:..\..\..\..\..\..\Software\uCOS-III\Ports\ARM-Cortex-M0\Generic\GNU/os_cpu_c.c **** */
 502:..\..\..\..\..\..\Software\uCOS-III\Ports\ARM-Cortex-M0\Generic\GNU/os_cpu_c.c **** 
 503:..\..\..\..\..\..\Software\uCOS-III\Ports\ARM-Cortex-M0\Generic\GNU/os_cpu_c.c **** void  OS_CPU_SysTickInit (CPU_INT32U  cpu_freq)
 504:..\..\..\..\..\..\Software\uCOS-III\Ports\ARM-Cortex-M0\Generic\GNU/os_cpu_c.c **** {
 529              		.loc 1 504 0
 530              		.cfi_startproc
 531              		@ args = 0, pretend = 0, frame = 16
 532              		@ frame_needed = 1, uses_anonymous_args = 0
 533 0000 80B5     		push	{r7, lr}
 534              		.cfi_def_cfa_offset 8
 535              		.cfi_offset 7, -8
 536              		.cfi_offset 14, -4
 537 0002 84B0     		sub	sp, sp, #16
 538              		.cfi_def_cfa_offset 24
 539 0004 00AF     		add	r7, sp, #0
 540              		.cfi_def_cfa_register 7
 541 0006 7860     		str	r0, [r7, #4]
 505:..\..\..\..\..\..\Software\uCOS-III\Ports\ARM-Cortex-M0\Generic\GNU/os_cpu_c.c ****     CPU_INT32U  prio;
 506:..\..\..\..\..\..\Software\uCOS-III\Ports\ARM-Cortex-M0\Generic\GNU/os_cpu_c.c ****     CPU_INT32U  cnts;
 507:..\..\..\..\..\..\Software\uCOS-III\Ports\ARM-Cortex-M0\Generic\GNU/os_cpu_c.c **** 
 508:..\..\..\..\..\..\Software\uCOS-III\Ports\ARM-Cortex-M0\Generic\GNU/os_cpu_c.c **** 
 509:..\..\..\..\..\..\Software\uCOS-III\Ports\ARM-Cortex-M0\Generic\GNU/os_cpu_c.c ****     cnts = (cpu_freq / (CPU_INT32U)OSCfg_TickRate_Hz);          /* Determine nbr SysTick cnts betwe
 542              		.loc 1 509 0
 543 0008 124B     		ldr	r3, .L21
 544 000a 1B68     		ldr	r3, [r3]
 545 000c 1900     		movs	r1, r3
 546 000e 7868     		ldr	r0, [r7, #4]
 547 0010 FFF7FEFF 		bl	__aeabi_uidiv
 548 0014 0300     		movs	r3, r0
 549 0016 FB60     		str	r3, [r7, #12]
 510:..\..\..\..\..\..\Software\uCOS-III\Ports\ARM-Cortex-M0\Generic\GNU/os_cpu_c.c **** 
 511:..\..\..\..\..\..\Software\uCOS-III\Ports\ARM-Cortex-M0\Generic\GNU/os_cpu_c.c ****     CPU_REG_NVIC_ST_RELOAD = cnts - 1u;
 550              		.loc 1 511 0
 551 0018 0F4B     		ldr	r3, .L21+4
 552 001a FA68     		ldr	r2, [r7, #12]
 553 001c 013A     		subs	r2, r2, #1
 554 001e 1A60     		str	r2, [r3]
 512:..\..\..\..\..\..\Software\uCOS-III\Ports\ARM-Cortex-M0\Generic\GNU/os_cpu_c.c **** 
 513:..\..\..\..\..\..\Software\uCOS-III\Ports\ARM-Cortex-M0\Generic\GNU/os_cpu_c.c ****                                                                 /* Set SysTick handler prio.       
 514:..\..\..\..\..\..\Software\uCOS-III\Ports\ARM-Cortex-M0\Generic\GNU/os_cpu_c.c ****     prio                  =  CPU_REG_NVIC_SHPRI3;
 555              		.loc 1 514 0
 556 0020 0E4B     		ldr	r3, .L21+8
 557 0022 1B68     		ldr	r3, [r3]
 558 0024 BB60     		str	r3, [r7, #8]
 515:..\..\..\..\..\..\Software\uCOS-III\Ports\ARM-Cortex-M0\Generic\GNU/os_cpu_c.c ****     prio                 &=  0x00FFFFFFu;
 559              		.loc 1 515 0
 560 0026 BB68     		ldr	r3, [r7, #8]
 561 0028 1B02     		lsls	r3, r3, #8
 562 002a 1B0A     		lsrs	r3, r3, #8
 563 002c BB60     		str	r3, [r7, #8]
 516:..\..\..\..\..\..\Software\uCOS-III\Ports\ARM-Cortex-M0\Generic\GNU/os_cpu_c.c ****     prio                 |= (OS_CPU_CFG_SYSTICK_PRIO << 24u);
 517:..\..\..\..\..\..\Software\uCOS-III\Ports\ARM-Cortex-M0\Generic\GNU/os_cpu_c.c **** 
 518:..\..\..\..\..\..\Software\uCOS-III\Ports\ARM-Cortex-M0\Generic\GNU/os_cpu_c.c ****     CPU_REG_NVIC_SHPRI3   = prio;
 564              		.loc 1 518 0
 565 002e 0B4B     		ldr	r3, .L21+8
ARM GAS  C:\Users\EDULU~1.DES\AppData\Local\Temp\ccgbquJH.s 			page 20


 566 0030 BA68     		ldr	r2, [r7, #8]
 567 0032 1A60     		str	r2, [r3]
 519:..\..\..\..\..\..\Software\uCOS-III\Ports\ARM-Cortex-M0\Generic\GNU/os_cpu_c.c **** 
 520:..\..\..\..\..\..\Software\uCOS-III\Ports\ARM-Cortex-M0\Generic\GNU/os_cpu_c.c ****                                                                 /* Enable timer.                   
 521:..\..\..\..\..\..\Software\uCOS-III\Ports\ARM-Cortex-M0\Generic\GNU/os_cpu_c.c ****     CPU_REG_NVIC_ST_CTRL |= CPU_REG_NVIC_ST_CTRL_CLKSOURCE |
 568              		.loc 1 521 0
 569 0034 0A4B     		ldr	r3, .L21+12
 570 0036 0A4A     		ldr	r2, .L21+12
 571 0038 1268     		ldr	r2, [r2]
 572 003a 0521     		movs	r1, #5
 573 003c 0A43     		orrs	r2, r1
 574 003e 1A60     		str	r2, [r3]
 522:..\..\..\..\..\..\Software\uCOS-III\Ports\ARM-Cortex-M0\Generic\GNU/os_cpu_c.c ****                             CPU_REG_NVIC_ST_CTRL_ENABLE;
 523:..\..\..\..\..\..\Software\uCOS-III\Ports\ARM-Cortex-M0\Generic\GNU/os_cpu_c.c ****                                                                 /* Enable timer interrupt.         
 524:..\..\..\..\..\..\Software\uCOS-III\Ports\ARM-Cortex-M0\Generic\GNU/os_cpu_c.c ****     CPU_REG_NVIC_ST_CTRL |= CPU_REG_NVIC_ST_CTRL_TICKINT;
 575              		.loc 1 524 0
 576 0040 074B     		ldr	r3, .L21+12
 577 0042 074A     		ldr	r2, .L21+12
 578 0044 1268     		ldr	r2, [r2]
 579 0046 0221     		movs	r1, #2
 580 0048 0A43     		orrs	r2, r1
 581 004a 1A60     		str	r2, [r3]
 525:..\..\..\..\..\..\Software\uCOS-III\Ports\ARM-Cortex-M0\Generic\GNU/os_cpu_c.c **** }
 582              		.loc 1 525 0
 583 004c C046     		nop
 584 004e BD46     		mov	sp, r7
 585 0050 04B0     		add	sp, sp, #16
 586              		@ sp needed
 587 0052 80BD     		pop	{r7, pc}
 588              	.L22:
 589              		.align	2
 590              	.L21:
 591 0054 00000000 		.word	OSCfg_TickRate_Hz
 592 0058 14E000E0 		.word	-536813548
 593 005c 20ED00E0 		.word	-536810208
 594 0060 10E000E0 		.word	-536813552
 595              		.cfi_endproc
 596              	.LFE11:
 597              		.size	OS_CPU_SysTickInit, .-OS_CPU_SysTickInit
 598              		.text
 599              	.Letext0:
 600              		.file 2 "..\\..\\..\\..\\..\\..\\Software\\uC-CPU\\ARM-Cortex-M0\\GNU/cpu.h"
 601              		.file 3 "..\\..\\..\\..\\..\\..\\Software\\uC-CPU/cpu_core.h"
 602              		.file 4 "..\\..\\..\\..\\..\\..\\Software\\uCOS-III\\Source/os_type.h"
 603              		.file 5 "..\\..\\..\\..\\..\\..\\Software\\uCOS-III\\Ports\\ARM-Cortex-M0\\Generic\\GNU\\../../../
 604              		.file 6 "..\\..\\..\\..\\..\\..\\Software\\uCOS-III\\Ports\\ARM-Cortex-M0\\Generic\\GNU/os_cpu.h"