ARM GAS  C:\Users\EDULU~1.DES\AppData\Local\Temp\ccYz4yx3.s 			page 1


   1              		.syntax unified
   2              		.cpu cortex-m0
   3              		.fpu softvfp
   4              		.eabi_attribute 20, 1
   5              		.eabi_attribute 21, 1
   6              		.eabi_attribute 23, 3
   7              		.eabi_attribute 24, 1
   8              		.eabi_attribute 25, 1
   9              		.eabi_attribute 26, 1
  10              		.eabi_attribute 30, 6
  11              		.eabi_attribute 34, 0
  12              		.eabi_attribute 18, 4
  13              		.thumb
  14              		.syntax unified
  15              		.file	"os_core.c"
  16              		.text
  17              	.Ltext0:
  18              		.cfi_sections	.debug_frame
  19              		.section	.text.OSInit,"ax",%progbits
  20              		.align	2
  21              		.global	OSInit
  22              		.code	16
  23              		.thumb_func
  24              		.type	OSInit, %function
  25              	OSInit:
  26              	.LFB1:
  27              		.file 1 "..\\..\\..\\..\\..\\..\\Software\\uCOS-III\\Source\\os_core.c"
   1:..\..\..\..\..\..\Software\uCOS-III\Source/os_core.c **** /*
   2:..\..\..\..\..\..\Software\uCOS-III\Source/os_core.c **** ***************************************************************************************************
   3:..\..\..\..\..\..\Software\uCOS-III\Source/os_core.c **** *                                                      uC/OS-III
   4:..\..\..\..\..\..\Software\uCOS-III\Source/os_core.c **** *                                                 The Real-Time Kernel
   5:..\..\..\..\..\..\Software\uCOS-III\Source/os_core.c **** *
   6:..\..\..\..\..\..\Software\uCOS-III\Source/os_core.c **** *                                  (c) Copyright 2009-2012; Micrium, Inc.; Weston, FL
   7:..\..\..\..\..\..\Software\uCOS-III\Source/os_core.c **** *                           All rights reserved.  Protected by international copyright laws.
   8:..\..\..\..\..\..\Software\uCOS-III\Source/os_core.c **** *
   9:..\..\..\..\..\..\Software\uCOS-III\Source/os_core.c **** *                                                    CORE FUNCTIONS
  10:..\..\..\..\..\..\Software\uCOS-III\Source/os_core.c **** *
  11:..\..\..\..\..\..\Software\uCOS-III\Source/os_core.c **** * File    : OS_CORE.C
  12:..\..\..\..\..\..\Software\uCOS-III\Source/os_core.c **** * By      : JJL
  13:..\..\..\..\..\..\Software\uCOS-III\Source/os_core.c **** * Version : V3.03.01
  14:..\..\..\..\..\..\Software\uCOS-III\Source/os_core.c **** *
  15:..\..\..\..\..\..\Software\uCOS-III\Source/os_core.c **** * LICENSING TERMS:
  16:..\..\..\..\..\..\Software\uCOS-III\Source/os_core.c **** * ---------------
  17:..\..\..\..\..\..\Software\uCOS-III\Source/os_core.c **** *           uC/OS-III is provided in source form for FREE short-term evaluation, for educational us
  18:..\..\..\..\..\..\Software\uCOS-III\Source/os_core.c **** *           for peaceful research.  If you plan or intend to use uC/OS-III in a commercial applicat
  19:..\..\..\..\..\..\Software\uCOS-III\Source/os_core.c **** *           product then, you need to contact Micrium to properly license uC/OS-III for its use in 
  20:..\..\..\..\..\..\Software\uCOS-III\Source/os_core.c **** *           application/product.   We provide ALL the source code for your convenience and to help 
  21:..\..\..\..\..\..\Software\uCOS-III\Source/os_core.c **** *           experience uC/OS-III.  The fact that the source is provided does NOT mean that you can 
  22:..\..\..\..\..\..\Software\uCOS-III\Source/os_core.c **** *           it commercially without paying a licensing fee.
  23:..\..\..\..\..\..\Software\uCOS-III\Source/os_core.c **** *
  24:..\..\..\..\..\..\Software\uCOS-III\Source/os_core.c **** *           Knowledge of the source code may NOT be used to develop a similar product.
  25:..\..\..\..\..\..\Software\uCOS-III\Source/os_core.c **** *
  26:..\..\..\..\..\..\Software\uCOS-III\Source/os_core.c **** *           Please help us continue to provide the embedded community with the finest software avai
  27:..\..\..\..\..\..\Software\uCOS-III\Source/os_core.c **** *           Your honesty is greatly appreciated.
  28:..\..\..\..\..\..\Software\uCOS-III\Source/os_core.c **** *
  29:..\..\..\..\..\..\Software\uCOS-III\Source/os_core.c **** *           You can contact us at www.micrium.com, or by phone at +1 (954) 217-2036.
  30:..\..\..\..\..\..\Software\uCOS-III\Source/os_core.c **** ***************************************************************************************************
ARM GAS  C:\Users\EDULU~1.DES\AppData\Local\Temp\ccYz4yx3.s 			page 2


  31:..\..\..\..\..\..\Software\uCOS-III\Source/os_core.c **** */
  32:..\..\..\..\..\..\Software\uCOS-III\Source/os_core.c **** 
  33:..\..\..\..\..\..\Software\uCOS-III\Source/os_core.c **** #define  MICRIUM_SOURCE
  34:..\..\..\..\..\..\Software\uCOS-III\Source/os_core.c **** #include <os.h>
  35:..\..\..\..\..\..\Software\uCOS-III\Source/os_core.c **** 
  36:..\..\..\..\..\..\Software\uCOS-III\Source/os_core.c **** #ifdef VSC_INCLUDE_SOURCE_FILE_NAMES
  37:..\..\..\..\..\..\Software\uCOS-III\Source/os_core.c **** const  CPU_CHAR  *os_core__c = "$Id: $";
  38:..\..\..\..\..\..\Software\uCOS-III\Source/os_core.c **** #endif
  39:..\..\..\..\..\..\Software\uCOS-III\Source/os_core.c **** 
  40:..\..\..\..\..\..\Software\uCOS-III\Source/os_core.c **** /*
  41:..\..\..\..\..\..\Software\uCOS-III\Source/os_core.c **** ***************************************************************************************************
  42:..\..\..\..\..\..\Software\uCOS-III\Source/os_core.c **** *                                                    INITIALIZATION
  43:..\..\..\..\..\..\Software\uCOS-III\Source/os_core.c **** *
  44:..\..\..\..\..\..\Software\uCOS-III\Source/os_core.c **** * Description: This function is used to initialize the internals of uC/OS-III and MUST be called pr
  45:..\..\..\..\..\..\Software\uCOS-III\Source/os_core.c **** *              creating any uC/OS-III object and, prior to calling OS_Start().
  46:..\..\..\..\..\..\Software\uCOS-III\Source/os_core.c **** *
  47:..\..\..\..\..\..\Software\uCOS-III\Source/os_core.c **** * Arguments  : p_err         is a pointer to a variable that will contain an error code returned by
  48:..\..\..\..\..\..\Software\uCOS-III\Source/os_core.c **** *
  49:..\..\..\..\..\..\Software\uCOS-III\Source/os_core.c **** *                                OS_ERR_NONE    Initialization was successful
  50:..\..\..\..\..\..\Software\uCOS-III\Source/os_core.c **** *                                Other          Other OS_ERR_xxx depending on the sub-functions cal
  51:..\..\..\..\..\..\Software\uCOS-III\Source/os_core.c **** * Returns    : none
  52:..\..\..\..\..\..\Software\uCOS-III\Source/os_core.c **** ***************************************************************************************************
  53:..\..\..\..\..\..\Software\uCOS-III\Source/os_core.c **** */
  54:..\..\..\..\..\..\Software\uCOS-III\Source/os_core.c **** 
  55:..\..\..\..\..\..\Software\uCOS-III\Source/os_core.c **** void  OSInit (OS_ERR  *p_err)
  56:..\..\..\..\..\..\Software\uCOS-III\Source/os_core.c **** {
  28              		.loc 1 56 0
  29              		.cfi_startproc
  30              		@ args = 0, pretend = 0, frame = 16
  31              		@ frame_needed = 1, uses_anonymous_args = 0
  32 0000 80B5     		push	{r7, lr}
  33              		.cfi_def_cfa_offset 8
  34              		.cfi_offset 7, -8
  35              		.cfi_offset 14, -4
  36 0002 84B0     		sub	sp, sp, #16
  37              		.cfi_def_cfa_offset 24
  38 0004 00AF     		add	r7, sp, #0
  39              		.cfi_def_cfa_register 7
  40 0006 7860     		str	r0, [r7, #4]
  57:..\..\..\..\..\..\Software\uCOS-III\Source/os_core.c ****     CPU_STK      *p_stk;
  58:..\..\..\..\..\..\Software\uCOS-III\Source/os_core.c ****     CPU_STK_SIZE  size;
  59:..\..\..\..\..\..\Software\uCOS-III\Source/os_core.c **** 
  60:..\..\..\..\..\..\Software\uCOS-III\Source/os_core.c **** 
  61:..\..\..\..\..\..\Software\uCOS-III\Source/os_core.c **** 
  62:..\..\..\..\..\..\Software\uCOS-III\Source/os_core.c **** #ifdef OS_SAFETY_CRITICAL
  63:..\..\..\..\..\..\Software\uCOS-III\Source/os_core.c ****     if (p_err == (OS_ERR *)0) {
  64:..\..\..\..\..\..\Software\uCOS-III\Source/os_core.c ****         OS_SAFETY_CRITICAL_EXCEPTION();
  65:..\..\..\..\..\..\Software\uCOS-III\Source/os_core.c ****         return;
  66:..\..\..\..\..\..\Software\uCOS-III\Source/os_core.c ****     }
  67:..\..\..\..\..\..\Software\uCOS-III\Source/os_core.c **** #endif
  68:..\..\..\..\..\..\Software\uCOS-III\Source/os_core.c **** 
  69:..\..\..\..\..\..\Software\uCOS-III\Source/os_core.c ****     OSInitHook();                                           /* Call port specific initialization co
  41              		.loc 1 69 0
  42 0008 FFF7FEFF 		bl	OSInitHook
  70:..\..\..\..\..\..\Software\uCOS-III\Source/os_core.c **** 
  71:..\..\..\..\..\..\Software\uCOS-III\Source/os_core.c ****     OSIntNestingCtr                 = (OS_NESTING_CTR)0;    /* Clear the interrupt nesting counter 
  43              		.loc 1 71 0
ARM GAS  C:\Users\EDULU~1.DES\AppData\Local\Temp\ccYz4yx3.s 			page 3


  44 000c 3D4B     		ldr	r3, .L18
  45 000e 0022     		movs	r2, #0
  46 0010 1A70     		strb	r2, [r3]
  72:..\..\..\..\..\..\Software\uCOS-III\Source/os_core.c **** 
  73:..\..\..\..\..\..\Software\uCOS-III\Source/os_core.c ****     OSRunning                       =  OS_STATE_OS_STOPPED; /* Indicate that multitasking not start
  47              		.loc 1 73 0
  48 0012 3D4B     		ldr	r3, .L18+4
  49 0014 0022     		movs	r2, #0
  50 0016 1A70     		strb	r2, [r3]
  74:..\..\..\..\..\..\Software\uCOS-III\Source/os_core.c **** 
  75:..\..\..\..\..\..\Software\uCOS-III\Source/os_core.c ****     OSSchedLockNestingCtr           = (OS_NESTING_CTR)0;    /* Clear the scheduling lock counter   
  51              		.loc 1 75 0
  52 0018 3C4B     		ldr	r3, .L18+8
  53 001a 0022     		movs	r2, #0
  54 001c 1A70     		strb	r2, [r3]
  76:..\..\..\..\..\..\Software\uCOS-III\Source/os_core.c **** 
  77:..\..\..\..\..\..\Software\uCOS-III\Source/os_core.c ****     OSTCBCurPtr                     = (OS_TCB *)0;          /* Initialize OS_TCB pointers to a know
  55              		.loc 1 77 0
  56 001e 3C4B     		ldr	r3, .L18+12
  57 0020 0022     		movs	r2, #0
  58 0022 1A60     		str	r2, [r3]
  78:..\..\..\..\..\..\Software\uCOS-III\Source/os_core.c ****     OSTCBHighRdyPtr                 = (OS_TCB *)0;
  59              		.loc 1 78 0
  60 0024 3B4B     		ldr	r3, .L18+16
  61 0026 0022     		movs	r2, #0
  62 0028 1A60     		str	r2, [r3]
  79:..\..\..\..\..\..\Software\uCOS-III\Source/os_core.c **** 
  80:..\..\..\..\..\..\Software\uCOS-III\Source/os_core.c ****     OSPrioCur                       = (OS_PRIO)0;           /* Initialize priority variables to a k
  63              		.loc 1 80 0
  64 002a 3B4B     		ldr	r3, .L18+20
  65 002c 0022     		movs	r2, #0
  66 002e 1A70     		strb	r2, [r3]
  81:..\..\..\..\..\..\Software\uCOS-III\Source/os_core.c ****     OSPrioHighRdy                   = (OS_PRIO)0;
  67              		.loc 1 81 0
  68 0030 3A4B     		ldr	r3, .L18+24
  69 0032 0022     		movs	r2, #0
  70 0034 1A70     		strb	r2, [r3]
  82:..\..\..\..\..\..\Software\uCOS-III\Source/os_core.c ****     OSPrioSaved                     = (OS_PRIO)0;
  71              		.loc 1 82 0
  72 0036 3A4B     		ldr	r3, .L18+28
  73 0038 0022     		movs	r2, #0
  74 003a 1A70     		strb	r2, [r3]
  83:..\..\..\..\..\..\Software\uCOS-III\Source/os_core.c **** 
  84:..\..\..\..\..\..\Software\uCOS-III\Source/os_core.c **** #if OS_CFG_SCHED_LOCK_TIME_MEAS_EN > 0u
  85:..\..\..\..\..\..\Software\uCOS-III\Source/os_core.c ****     OSSchedLockTimeBegin            = (CPU_TS)0;
  86:..\..\..\..\..\..\Software\uCOS-III\Source/os_core.c ****     OSSchedLockTimeMax              = (CPU_TS)0;
  87:..\..\..\..\..\..\Software\uCOS-III\Source/os_core.c ****     OSSchedLockTimeMaxCur           = (CPU_TS)0;
  88:..\..\..\..\..\..\Software\uCOS-III\Source/os_core.c **** #endif
  89:..\..\..\..\..\..\Software\uCOS-III\Source/os_core.c **** 
  90:..\..\..\..\..\..\Software\uCOS-III\Source/os_core.c **** #ifdef OS_SAFETY_CRITICAL_IEC61508
  91:..\..\..\..\..\..\Software\uCOS-III\Source/os_core.c ****     OSSafetyCriticalStartFlag       =  DEF_FALSE;
  92:..\..\..\..\..\..\Software\uCOS-III\Source/os_core.c **** #endif
  93:..\..\..\..\..\..\Software\uCOS-III\Source/os_core.c **** 
  94:..\..\..\..\..\..\Software\uCOS-III\Source/os_core.c **** #if OS_CFG_SCHED_ROUND_ROBIN_EN > 0u
  95:..\..\..\..\..\..\Software\uCOS-III\Source/os_core.c ****     OSSchedRoundRobinEn             = DEF_FALSE;
  96:..\..\..\..\..\..\Software\uCOS-III\Source/os_core.c ****     OSSchedRoundRobinDfltTimeQuanta = OSCfg_TickRate_Hz / 10u;
  97:..\..\..\..\..\..\Software\uCOS-III\Source/os_core.c **** #endif
ARM GAS  C:\Users\EDULU~1.DES\AppData\Local\Temp\ccYz4yx3.s 			page 4


  98:..\..\..\..\..\..\Software\uCOS-III\Source/os_core.c **** 
  99:..\..\..\..\..\..\Software\uCOS-III\Source/os_core.c ****     if (OSCfg_ISRStkSize > (CPU_STK_SIZE)0) {
  75              		.loc 1 99 0
  76 003c 394B     		ldr	r3, .L18+32
  77 003e 1B68     		ldr	r3, [r3]
  78 0040 002B     		cmp	r3, #0
  79 0042 15D0     		beq	.L2
 100:..\..\..\..\..\..\Software\uCOS-III\Source/os_core.c ****         p_stk = OSCfg_ISRStkBasePtr;                        /* Clear exception stack for stack chec
  80              		.loc 1 100 0
  81 0044 384B     		ldr	r3, .L18+36
  82 0046 1B68     		ldr	r3, [r3]
  83 0048 FB60     		str	r3, [r7, #12]
 101:..\..\..\..\..\..\Software\uCOS-III\Source/os_core.c ****         if (p_stk != (CPU_STK *)0) {
  84              		.loc 1 101 0
  85 004a FB68     		ldr	r3, [r7, #12]
  86 004c 002B     		cmp	r3, #0
  87 004e 0FD0     		beq	.L2
 102:..\..\..\..\..\..\Software\uCOS-III\Source/os_core.c ****             size  = OSCfg_ISRStkSize;
  88              		.loc 1 102 0
  89 0050 344B     		ldr	r3, .L18+32
  90 0052 1B68     		ldr	r3, [r3]
  91 0054 BB60     		str	r3, [r7, #8]
 103:..\..\..\..\..\..\Software\uCOS-III\Source/os_core.c ****             while (size > (CPU_STK_SIZE)0) {
  92              		.loc 1 103 0
  93 0056 08E0     		b	.L3
  94              	.L4:
 104:..\..\..\..\..\..\Software\uCOS-III\Source/os_core.c ****                 size--;
  95              		.loc 1 104 0
  96 0058 BB68     		ldr	r3, [r7, #8]
  97 005a 013B     		subs	r3, r3, #1
  98 005c BB60     		str	r3, [r7, #8]
 105:..\..\..\..\..\..\Software\uCOS-III\Source/os_core.c ****                *p_stk = (CPU_STK)0;
  99              		.loc 1 105 0
 100 005e FB68     		ldr	r3, [r7, #12]
 101 0060 0022     		movs	r2, #0
 102 0062 1A60     		str	r2, [r3]
 106:..\..\..\..\..\..\Software\uCOS-III\Source/os_core.c ****                 p_stk++;
 103              		.loc 1 106 0
 104 0064 FB68     		ldr	r3, [r7, #12]
 105 0066 0433     		adds	r3, r3, #4
 106 0068 FB60     		str	r3, [r7, #12]
 107              	.L3:
 103:..\..\..\..\..\..\Software\uCOS-III\Source/os_core.c ****                 size--;
 108              		.loc 1 103 0
 109 006a BB68     		ldr	r3, [r7, #8]
 110 006c 002B     		cmp	r3, #0
 111 006e F3D1     		bne	.L4
 112              	.L2:
 107:..\..\..\..\..\..\Software\uCOS-III\Source/os_core.c ****             }
 108:..\..\..\..\..\..\Software\uCOS-III\Source/os_core.c ****         }
 109:..\..\..\..\..\..\Software\uCOS-III\Source/os_core.c ****     }
 110:..\..\..\..\..\..\Software\uCOS-III\Source/os_core.c **** 
 111:..\..\..\..\..\..\Software\uCOS-III\Source/os_core.c **** #if OS_CFG_APP_HOOKS_EN > 0u
 112:..\..\..\..\..\..\Software\uCOS-III\Source/os_core.c ****     OS_AppTaskCreateHookPtr = (OS_APP_HOOK_TCB )0;          /* Clear application hook pointers     
 113:..\..\..\..\..\..\Software\uCOS-III\Source/os_core.c ****     OS_AppTaskDelHookPtr    = (OS_APP_HOOK_TCB )0;
 114:..\..\..\..\..\..\Software\uCOS-III\Source/os_core.c ****     OS_AppTaskReturnHookPtr = (OS_APP_HOOK_TCB )0;
 115:..\..\..\..\..\..\Software\uCOS-III\Source/os_core.c **** 
ARM GAS  C:\Users\EDULU~1.DES\AppData\Local\Temp\ccYz4yx3.s 			page 5


 116:..\..\..\..\..\..\Software\uCOS-III\Source/os_core.c ****     OS_AppIdleTaskHookPtr   = (OS_APP_HOOK_VOID)0;
 117:..\..\..\..\..\..\Software\uCOS-III\Source/os_core.c ****     OS_AppStatTaskHookPtr   = (OS_APP_HOOK_VOID)0;
 118:..\..\..\..\..\..\Software\uCOS-III\Source/os_core.c ****     OS_AppTaskSwHookPtr     = (OS_APP_HOOK_VOID)0;
 119:..\..\..\..\..\..\Software\uCOS-III\Source/os_core.c ****     OS_AppTimeTickHookPtr   = (OS_APP_HOOK_VOID)0;
 120:..\..\..\..\..\..\Software\uCOS-III\Source/os_core.c **** #endif
 121:..\..\..\..\..\..\Software\uCOS-III\Source/os_core.c **** 
 122:..\..\..\..\..\..\Software\uCOS-III\Source/os_core.c **** #if OS_CFG_TASK_REG_TBL_SIZE > 0u
 123:..\..\..\..\..\..\Software\uCOS-III\Source/os_core.c ****     OSTaskRegNextAvailID    = (OS_REG_ID)0;
 113              		.loc 1 123 0
 114 0070 2E4B     		ldr	r3, .L18+40
 115 0072 0022     		movs	r2, #0
 116 0074 1A70     		strb	r2, [r3]
 124:..\..\..\..\..\..\Software\uCOS-III\Source/os_core.c **** #endif
 125:..\..\..\..\..\..\Software\uCOS-III\Source/os_core.c **** 
 126:..\..\..\..\..\..\Software\uCOS-III\Source/os_core.c ****     OS_PrioInit();                                          /* Initialize the priority bitmap table
 117              		.loc 1 126 0
 118 0076 FFF7FEFF 		bl	OS_PrioInit
 127:..\..\..\..\..\..\Software\uCOS-III\Source/os_core.c **** 
 128:..\..\..\..\..\..\Software\uCOS-III\Source/os_core.c ****     OS_RdyListInit();                                       /* Initialize the Ready List           
 119              		.loc 1 128 0
 120 007a FFF7FEFF 		bl	OS_RdyListInit
 129:..\..\..\..\..\..\Software\uCOS-III\Source/os_core.c **** 
 130:..\..\..\..\..\..\Software\uCOS-III\Source/os_core.c ****     
 131:..\..\..\..\..\..\Software\uCOS-III\Source/os_core.c **** #if OS_CFG_FLAG_EN > 0u                                     /* Initialize the Event Flag module    
 132:..\..\..\..\..\..\Software\uCOS-III\Source/os_core.c ****     OS_FlagInit(p_err);
 133:..\..\..\..\..\..\Software\uCOS-III\Source/os_core.c ****     if (*p_err != OS_ERR_NONE) {
 134:..\..\..\..\..\..\Software\uCOS-III\Source/os_core.c ****         return;
 135:..\..\..\..\..\..\Software\uCOS-III\Source/os_core.c ****     }
 136:..\..\..\..\..\..\Software\uCOS-III\Source/os_core.c **** #endif
 137:..\..\..\..\..\..\Software\uCOS-III\Source/os_core.c **** 
 138:..\..\..\..\..\..\Software\uCOS-III\Source/os_core.c **** 
 139:..\..\..\..\..\..\Software\uCOS-III\Source/os_core.c **** #if OS_CFG_MEM_EN > 0u                                      /* Initialize the Memory Manager module
 140:..\..\..\..\..\..\Software\uCOS-III\Source/os_core.c ****     OS_MemInit(p_err);
 141:..\..\..\..\..\..\Software\uCOS-III\Source/os_core.c ****     if (*p_err != OS_ERR_NONE) {
 142:..\..\..\..\..\..\Software\uCOS-III\Source/os_core.c ****         return;
 143:..\..\..\..\..\..\Software\uCOS-III\Source/os_core.c ****     }
 144:..\..\..\..\..\..\Software\uCOS-III\Source/os_core.c **** #endif
 145:..\..\..\..\..\..\Software\uCOS-III\Source/os_core.c **** 
 146:..\..\..\..\..\..\Software\uCOS-III\Source/os_core.c **** 
 147:..\..\..\..\..\..\Software\uCOS-III\Source/os_core.c **** #if (OS_MSG_EN) > 0u                                        /* Initialize the free list of OS_MSGs 
 148:..\..\..\..\..\..\Software\uCOS-III\Source/os_core.c ****     OS_MsgPoolInit(p_err);
 149:..\..\..\..\..\..\Software\uCOS-III\Source/os_core.c ****     if (*p_err != OS_ERR_NONE) {
 150:..\..\..\..\..\..\Software\uCOS-III\Source/os_core.c ****         return;
 151:..\..\..\..\..\..\Software\uCOS-III\Source/os_core.c ****     }
 152:..\..\..\..\..\..\Software\uCOS-III\Source/os_core.c **** #endif
 153:..\..\..\..\..\..\Software\uCOS-III\Source/os_core.c **** 
 154:..\..\..\..\..\..\Software\uCOS-III\Source/os_core.c **** 
 155:..\..\..\..\..\..\Software\uCOS-III\Source/os_core.c **** #if OS_CFG_MUTEX_EN > 0u                                    /* Initialize the Mutex Manager module 
 156:..\..\..\..\..\..\Software\uCOS-III\Source/os_core.c ****     OS_MutexInit(p_err);
 157:..\..\..\..\..\..\Software\uCOS-III\Source/os_core.c ****     if (*p_err != OS_ERR_NONE) {
 158:..\..\..\..\..\..\Software\uCOS-III\Source/os_core.c ****         return;
 159:..\..\..\..\..\..\Software\uCOS-III\Source/os_core.c ****     }
 160:..\..\..\..\..\..\Software\uCOS-III\Source/os_core.c **** #endif
 161:..\..\..\..\..\..\Software\uCOS-III\Source/os_core.c **** 
 162:..\..\..\..\..\..\Software\uCOS-III\Source/os_core.c **** 
 163:..\..\..\..\..\..\Software\uCOS-III\Source/os_core.c **** #if OS_CFG_Q_EN > 0u
 164:..\..\..\..\..\..\Software\uCOS-III\Source/os_core.c ****     OS_QInit(p_err);                                        /* Initialize the Message Queue Manager
ARM GAS  C:\Users\EDULU~1.DES\AppData\Local\Temp\ccYz4yx3.s 			page 6


 165:..\..\..\..\..\..\Software\uCOS-III\Source/os_core.c ****     if (*p_err != OS_ERR_NONE) {
 166:..\..\..\..\..\..\Software\uCOS-III\Source/os_core.c ****         return;
 167:..\..\..\..\..\..\Software\uCOS-III\Source/os_core.c ****     }
 168:..\..\..\..\..\..\Software\uCOS-III\Source/os_core.c **** #endif
 169:..\..\..\..\..\..\Software\uCOS-III\Source/os_core.c **** 
 170:..\..\..\..\..\..\Software\uCOS-III\Source/os_core.c **** 
 171:..\..\..\..\..\..\Software\uCOS-III\Source/os_core.c **** #if OS_CFG_SEM_EN > 0u                                      /* Initialize the Semaphore Manager mod
 172:..\..\..\..\..\..\Software\uCOS-III\Source/os_core.c ****     OS_SemInit(p_err);
 121              		.loc 1 172 0
 122 007e 7B68     		ldr	r3, [r7, #4]
 123 0080 1800     		movs	r0, r3
 124 0082 FFF7FEFF 		bl	OS_SemInit
 173:..\..\..\..\..\..\Software\uCOS-III\Source/os_core.c ****     if (*p_err != OS_ERR_NONE) {
 125              		.loc 1 173 0
 126 0086 7B68     		ldr	r3, [r7, #4]
 127 0088 1B88     		ldrh	r3, [r3]
 128 008a 002B     		cmp	r3, #0
 129 008c 2CD1     		bne	.L12
 174:..\..\..\..\..\..\Software\uCOS-III\Source/os_core.c ****         return;
 175:..\..\..\..\..\..\Software\uCOS-III\Source/os_core.c ****     }
 176:..\..\..\..\..\..\Software\uCOS-III\Source/os_core.c **** #endif
 177:..\..\..\..\..\..\Software\uCOS-III\Source/os_core.c **** 
 178:..\..\..\..\..\..\Software\uCOS-III\Source/os_core.c **** 
 179:..\..\..\..\..\..\Software\uCOS-III\Source/os_core.c **** #if defined(OS_CFG_TLS_TBL_SIZE) && (OS_CFG_TLS_TBL_SIZE > 0u)
 180:..\..\..\..\..\..\Software\uCOS-III\Source/os_core.c ****     OS_TLS_Init(p_err);                                     /* Initialize Task Local Storage, befor
 181:..\..\..\..\..\..\Software\uCOS-III\Source/os_core.c ****     if (*p_err != OS_ERR_NONE) {
 182:..\..\..\..\..\..\Software\uCOS-III\Source/os_core.c ****         return;
 183:..\..\..\..\..\..\Software\uCOS-III\Source/os_core.c ****     }
 184:..\..\..\..\..\..\Software\uCOS-III\Source/os_core.c **** #endif
 185:..\..\..\..\..\..\Software\uCOS-III\Source/os_core.c **** 
 186:..\..\..\..\..\..\Software\uCOS-III\Source/os_core.c **** 
 187:..\..\..\..\..\..\Software\uCOS-III\Source/os_core.c ****     OS_TaskInit(p_err);                                     /* Initialize the task manager         
 130              		.loc 1 187 0
 131 008e 7B68     		ldr	r3, [r7, #4]
 132 0090 1800     		movs	r0, r3
 133 0092 FFF7FEFF 		bl	OS_TaskInit
 188:..\..\..\..\..\..\Software\uCOS-III\Source/os_core.c ****     if (*p_err != OS_ERR_NONE) {
 134              		.loc 1 188 0
 135 0096 7B68     		ldr	r3, [r7, #4]
 136 0098 1B88     		ldrh	r3, [r3]
 137 009a 002B     		cmp	r3, #0
 138 009c 26D1     		bne	.L13
 189:..\..\..\..\..\..\Software\uCOS-III\Source/os_core.c ****         return;
 190:..\..\..\..\..\..\Software\uCOS-III\Source/os_core.c ****     }
 191:..\..\..\..\..\..\Software\uCOS-III\Source/os_core.c **** 
 192:..\..\..\..\..\..\Software\uCOS-III\Source/os_core.c **** 
 193:..\..\..\..\..\..\Software\uCOS-III\Source/os_core.c **** #if OS_CFG_ISR_POST_DEFERRED_EN > 0u
 194:..\..\..\..\..\..\Software\uCOS-III\Source/os_core.c ****     OS_IntQTaskInit(p_err);                                 /* Initialize the Interrupt Queue Handl
 195:..\..\..\..\..\..\Software\uCOS-III\Source/os_core.c ****     if (*p_err != OS_ERR_NONE) {
 196:..\..\..\..\..\..\Software\uCOS-III\Source/os_core.c ****         return;
 197:..\..\..\..\..\..\Software\uCOS-III\Source/os_core.c ****     }
 198:..\..\..\..\..\..\Software\uCOS-III\Source/os_core.c **** #endif
 199:..\..\..\..\..\..\Software\uCOS-III\Source/os_core.c **** 
 200:..\..\..\..\..\..\Software\uCOS-III\Source/os_core.c ****     
 201:..\..\..\..\..\..\Software\uCOS-III\Source/os_core.c ****     OS_IdleTaskInit(p_err);                                 /* Initialize the Idle Task            
 139              		.loc 1 201 0
 140 009e 7B68     		ldr	r3, [r7, #4]
ARM GAS  C:\Users\EDULU~1.DES\AppData\Local\Temp\ccYz4yx3.s 			page 7


 141 00a0 1800     		movs	r0, r3
 142 00a2 FFF7FEFF 		bl	OS_IdleTaskInit
 202:..\..\..\..\..\..\Software\uCOS-III\Source/os_core.c ****     if (*p_err != OS_ERR_NONE) {
 143              		.loc 1 202 0
 144 00a6 7B68     		ldr	r3, [r7, #4]
 145 00a8 1B88     		ldrh	r3, [r3]
 146 00aa 002B     		cmp	r3, #0
 147 00ac 20D1     		bne	.L14
 203:..\..\..\..\..\..\Software\uCOS-III\Source/os_core.c ****         return;
 204:..\..\..\..\..\..\Software\uCOS-III\Source/os_core.c ****     }
 205:..\..\..\..\..\..\Software\uCOS-III\Source/os_core.c **** 
 206:..\..\..\..\..\..\Software\uCOS-III\Source/os_core.c **** 
 207:..\..\..\..\..\..\Software\uCOS-III\Source/os_core.c ****     OS_TickTaskInit(p_err);                                 /* Initialize the Tick Task            
 148              		.loc 1 207 0
 149 00ae 7B68     		ldr	r3, [r7, #4]
 150 00b0 1800     		movs	r0, r3
 151 00b2 FFF7FEFF 		bl	OS_TickTaskInit
 208:..\..\..\..\..\..\Software\uCOS-III\Source/os_core.c ****     if (*p_err != OS_ERR_NONE) {
 152              		.loc 1 208 0
 153 00b6 7B68     		ldr	r3, [r7, #4]
 154 00b8 1B88     		ldrh	r3, [r3]
 155 00ba 002B     		cmp	r3, #0
 156 00bc 1AD1     		bne	.L15
 209:..\..\..\..\..\..\Software\uCOS-III\Source/os_core.c ****         return;
 210:..\..\..\..\..\..\Software\uCOS-III\Source/os_core.c ****     }
 211:..\..\..\..\..\..\Software\uCOS-III\Source/os_core.c **** 
 212:..\..\..\..\..\..\Software\uCOS-III\Source/os_core.c **** 
 213:..\..\..\..\..\..\Software\uCOS-III\Source/os_core.c **** #if OS_CFG_STAT_TASK_EN > 0u                                /* Initialize the Statistic Task       
 214:..\..\..\..\..\..\Software\uCOS-III\Source/os_core.c ****     OS_StatTaskInit(p_err);
 157              		.loc 1 214 0
 158 00be 7B68     		ldr	r3, [r7, #4]
 159 00c0 1800     		movs	r0, r3
 160 00c2 FFF7FEFF 		bl	OS_StatTaskInit
 215:..\..\..\..\..\..\Software\uCOS-III\Source/os_core.c ****     if (*p_err != OS_ERR_NONE) {
 161              		.loc 1 215 0
 162 00c6 7B68     		ldr	r3, [r7, #4]
 163 00c8 1B88     		ldrh	r3, [r3]
 164 00ca 002B     		cmp	r3, #0
 165 00cc 14D1     		bne	.L16
 216:..\..\..\..\..\..\Software\uCOS-III\Source/os_core.c ****         return;
 217:..\..\..\..\..\..\Software\uCOS-III\Source/os_core.c ****     }
 218:..\..\..\..\..\..\Software\uCOS-III\Source/os_core.c **** #endif
 219:..\..\..\..\..\..\Software\uCOS-III\Source/os_core.c **** 
 220:..\..\..\..\..\..\Software\uCOS-III\Source/os_core.c **** 
 221:..\..\..\..\..\..\Software\uCOS-III\Source/os_core.c **** #if OS_CFG_TMR_EN > 0u                                      /* Initialize the Timer Manager module 
 222:..\..\..\..\..\..\Software\uCOS-III\Source/os_core.c ****     OS_TmrInit(p_err);
 166              		.loc 1 222 0
 167 00ce 7B68     		ldr	r3, [r7, #4]
 168 00d0 1800     		movs	r0, r3
 169 00d2 FFF7FEFF 		bl	OS_TmrInit
 223:..\..\..\..\..\..\Software\uCOS-III\Source/os_core.c ****     if (*p_err != OS_ERR_NONE) {
 170              		.loc 1 223 0
 171 00d6 7B68     		ldr	r3, [r7, #4]
 172 00d8 1B88     		ldrh	r3, [r3]
 173 00da 002B     		cmp	r3, #0
 174 00dc 0ED1     		bne	.L17
 224:..\..\..\..\..\..\Software\uCOS-III\Source/os_core.c ****         return;
ARM GAS  C:\Users\EDULU~1.DES\AppData\Local\Temp\ccYz4yx3.s 			page 8


 225:..\..\..\..\..\..\Software\uCOS-III\Source/os_core.c ****     }
 226:..\..\..\..\..\..\Software\uCOS-III\Source/os_core.c **** #endif
 227:..\..\..\..\..\..\Software\uCOS-III\Source/os_core.c **** 
 228:..\..\..\..\..\..\Software\uCOS-III\Source/os_core.c **** 
 229:..\..\..\..\..\..\Software\uCOS-III\Source/os_core.c **** #if OS_CFG_DBG_EN > 0u
 230:..\..\..\..\..\..\Software\uCOS-III\Source/os_core.c ****     OS_Dbg_Init();
 175              		.loc 1 230 0
 176 00de FFF7FEFF 		bl	OS_Dbg_Init
 231:..\..\..\..\..\..\Software\uCOS-III\Source/os_core.c **** #endif
 232:..\..\..\..\..\..\Software\uCOS-III\Source/os_core.c **** 
 233:..\..\..\..\..\..\Software\uCOS-III\Source/os_core.c **** 
 234:..\..\..\..\..\..\Software\uCOS-III\Source/os_core.c ****     OSCfg_Init();
 177              		.loc 1 234 0
 178 00e2 FFF7FEFF 		bl	OSCfg_Init
 179 00e6 0AE0     		b	.L1
 180              	.L12:
 174:..\..\..\..\..\..\Software\uCOS-III\Source/os_core.c ****     }
 181              		.loc 1 174 0
 182 00e8 C046     		nop
 183 00ea 08E0     		b	.L1
 184              	.L13:
 189:..\..\..\..\..\..\Software\uCOS-III\Source/os_core.c ****     }
 185              		.loc 1 189 0
 186 00ec C046     		nop
 187 00ee 06E0     		b	.L1
 188              	.L14:
 203:..\..\..\..\..\..\Software\uCOS-III\Source/os_core.c ****     }
 189              		.loc 1 203 0
 190 00f0 C046     		nop
 191 00f2 04E0     		b	.L1
 192              	.L15:
 209:..\..\..\..\..\..\Software\uCOS-III\Source/os_core.c ****     }
 193              		.loc 1 209 0
 194 00f4 C046     		nop
 195 00f6 02E0     		b	.L1
 196              	.L16:
 216:..\..\..\..\..\..\Software\uCOS-III\Source/os_core.c ****     }
 197              		.loc 1 216 0
 198 00f8 C046     		nop
 199 00fa 00E0     		b	.L1
 200              	.L17:
 224:..\..\..\..\..\..\Software\uCOS-III\Source/os_core.c ****     }
 201              		.loc 1 224 0
 202 00fc C046     		nop
 203              	.L1:
 235:..\..\..\..\..\..\Software\uCOS-III\Source/os_core.c **** }
 204              		.loc 1 235 0
 205 00fe BD46     		mov	sp, r7
 206 0100 04B0     		add	sp, sp, #16
 207              		@ sp needed
 208 0102 80BD     		pop	{r7, pc}
 209              	.L19:
 210              		.align	2
 211              	.L18:
 212 0104 00000000 		.word	OSIntNestingCtr
 213 0108 00000000 		.word	OSRunning
 214 010c 00000000 		.word	OSSchedLockNestingCtr
ARM GAS  C:\Users\EDULU~1.DES\AppData\Local\Temp\ccYz4yx3.s 			page 9


 215 0110 00000000 		.word	OSTCBCurPtr
 216 0114 00000000 		.word	OSTCBHighRdyPtr
 217 0118 00000000 		.word	OSPrioCur
 218 011c 00000000 		.word	OSPrioHighRdy
 219 0120 00000000 		.word	OSPrioSaved
 220 0124 00000000 		.word	OSCfg_ISRStkSize
 221 0128 00000000 		.word	OSCfg_ISRStkBasePtr
 222 012c 00000000 		.word	OSTaskRegNextAvailID
 223              		.cfi_endproc
 224              	.LFE1:
 225              		.size	OSInit, .-OSInit
 226              		.section	.text.OSIntEnter,"ax",%progbits
 227              		.align	2
 228              		.global	OSIntEnter
 229              		.code	16
 230              		.thumb_func
 231              		.type	OSIntEnter, %function
 232              	OSIntEnter:
 233              	.LFB2:
 236:..\..\..\..\..\..\Software\uCOS-III\Source/os_core.c **** 
 237:..\..\..\..\..\..\Software\uCOS-III\Source/os_core.c **** /*$PAGE*/
 238:..\..\..\..\..\..\Software\uCOS-III\Source/os_core.c **** /*
 239:..\..\..\..\..\..\Software\uCOS-III\Source/os_core.c **** ***************************************************************************************************
 240:..\..\..\..\..\..\Software\uCOS-III\Source/os_core.c **** *                                                      ENTER ISR
 241:..\..\..\..\..\..\Software\uCOS-III\Source/os_core.c **** *
 242:..\..\..\..\..\..\Software\uCOS-III\Source/os_core.c **** * Description: This function is used to notify uC/OS-III that you are about to service an interrupt
 243:..\..\..\..\..\..\Software\uCOS-III\Source/os_core.c **** *              (ISR).  This allows uC/OS-III to keep track of interrupt nesting and thus only perfo
 244:..\..\..\..\..\..\Software\uCOS-III\Source/os_core.c **** *              the last nested ISR.
 245:..\..\..\..\..\..\Software\uCOS-III\Source/os_core.c **** *
 246:..\..\..\..\..\..\Software\uCOS-III\Source/os_core.c **** * Arguments  : none
 247:..\..\..\..\..\..\Software\uCOS-III\Source/os_core.c **** *
 248:..\..\..\..\..\..\Software\uCOS-III\Source/os_core.c **** * Returns    : none
 249:..\..\..\..\..\..\Software\uCOS-III\Source/os_core.c **** *
 250:..\..\..\..\..\..\Software\uCOS-III\Source/os_core.c **** * Note(s)    : 1) This function MUST be called with interrupts already disabled
 251:..\..\..\..\..\..\Software\uCOS-III\Source/os_core.c **** *
 252:..\..\..\..\..\..\Software\uCOS-III\Source/os_core.c **** *              2) Your ISR can directly increment 'OSIntNestingCtr' without calling this function b
 253:..\..\..\..\..\..\Software\uCOS-III\Source/os_core.c **** *                 been declared 'global', the port is actually considered part of the OS and thus i
 254:..\..\..\..\..\..\Software\uCOS-III\Source/os_core.c **** *                 uC/OS-III variables.
 255:..\..\..\..\..\..\Software\uCOS-III\Source/os_core.c **** *
 256:..\..\..\..\..\..\Software\uCOS-III\Source/os_core.c **** *              3) You MUST still call OSIntExit() even though you increment 'OSIntNestingCtr' direc
 257:..\..\..\..\..\..\Software\uCOS-III\Source/os_core.c **** *
 258:..\..\..\..\..\..\Software\uCOS-III\Source/os_core.c **** *              4) You MUST invoke OSIntEnter() and OSIntExit() in pair.  In other words, for every 
 259:..\..\..\..\..\..\Software\uCOS-III\Source/os_core.c **** *                 (or direct increment to OSIntNestingCtr) at the beginning of the ISR you MUST hav
 260:..\..\..\..\..\..\Software\uCOS-III\Source/os_core.c **** *                 at the end of the ISR.
 261:..\..\..\..\..\..\Software\uCOS-III\Source/os_core.c **** *
 262:..\..\..\..\..\..\Software\uCOS-III\Source/os_core.c **** *              5) You are allowed to nest interrupts up to 250 levels deep.
 263:..\..\..\..\..\..\Software\uCOS-III\Source/os_core.c **** ***************************************************************************************************
 264:..\..\..\..\..\..\Software\uCOS-III\Source/os_core.c **** */
 265:..\..\..\..\..\..\Software\uCOS-III\Source/os_core.c **** 
 266:..\..\..\..\..\..\Software\uCOS-III\Source/os_core.c **** void  OSIntEnter (void)
 267:..\..\..\..\..\..\Software\uCOS-III\Source/os_core.c **** {
 234              		.loc 1 267 0
 235              		.cfi_startproc
 236              		@ args = 0, pretend = 0, frame = 0
 237              		@ frame_needed = 1, uses_anonymous_args = 0
 238 0000 80B5     		push	{r7, lr}
 239              		.cfi_def_cfa_offset 8
ARM GAS  C:\Users\EDULU~1.DES\AppData\Local\Temp\ccYz4yx3.s 			page 10


 240              		.cfi_offset 7, -8
 241              		.cfi_offset 14, -4
 242 0002 00AF     		add	r7, sp, #0
 243              		.cfi_def_cfa_register 7
 268:..\..\..\..\..\..\Software\uCOS-III\Source/os_core.c ****     if (OSRunning != OS_STATE_OS_RUNNING) {                 /* Is OS running?                      
 244              		.loc 1 268 0
 245 0004 094B     		ldr	r3, .L26
 246 0006 1B78     		ldrb	r3, [r3]
 247 0008 012B     		cmp	r3, #1
 248 000a 0AD1     		bne	.L24
 269:..\..\..\..\..\..\Software\uCOS-III\Source/os_core.c ****         return;                                             /* No                                  
 270:..\..\..\..\..\..\Software\uCOS-III\Source/os_core.c ****     }
 271:..\..\..\..\..\..\Software\uCOS-III\Source/os_core.c **** 
 272:..\..\..\..\..\..\Software\uCOS-III\Source/os_core.c ****     if (OSIntNestingCtr >= (OS_NESTING_CTR)250u) {          /* Have we nested past 250 levels?     
 249              		.loc 1 272 0
 250 000c 084B     		ldr	r3, .L26+4
 251 000e 1B78     		ldrb	r3, [r3]
 252 0010 F92B     		cmp	r3, #249
 253 0012 08D8     		bhi	.L25
 273:..\..\..\..\..\..\Software\uCOS-III\Source/os_core.c ****         return;                                             /* Yes                                 
 274:..\..\..\..\..\..\Software\uCOS-III\Source/os_core.c ****     }
 275:..\..\..\..\..\..\Software\uCOS-III\Source/os_core.c **** 
 276:..\..\..\..\..\..\Software\uCOS-III\Source/os_core.c ****     OSIntNestingCtr++;                                      /* Increment ISR nesting level         
 254              		.loc 1 276 0
 255 0014 064B     		ldr	r3, .L26+4
 256 0016 1B78     		ldrb	r3, [r3]
 257 0018 0133     		adds	r3, r3, #1
 258 001a DAB2     		uxtb	r2, r3
 259 001c 044B     		ldr	r3, .L26+4
 260 001e 1A70     		strb	r2, [r3]
 261 0020 02E0     		b	.L20
 262              	.L24:
 269:..\..\..\..\..\..\Software\uCOS-III\Source/os_core.c ****         return;                                             /* No                                  
 263              		.loc 1 269 0
 264 0022 C046     		nop
 265 0024 00E0     		b	.L20
 266              	.L25:
 273:..\..\..\..\..\..\Software\uCOS-III\Source/os_core.c ****         return;                                             /* Yes                                 
 267              		.loc 1 273 0
 268 0026 C046     		nop
 269              	.L20:
 277:..\..\..\..\..\..\Software\uCOS-III\Source/os_core.c **** }
 270              		.loc 1 277 0
 271 0028 BD46     		mov	sp, r7
 272              		@ sp needed
 273 002a 80BD     		pop	{r7, pc}
 274              	.L27:
 275              		.align	2
 276              	.L26:
 277 002c 00000000 		.word	OSRunning
 278 0030 00000000 		.word	OSIntNestingCtr
 279              		.cfi_endproc
 280              	.LFE2:
 281              		.size	OSIntEnter, .-OSIntEnter
 282              		.section	.text.OSIntExit,"ax",%progbits
 283              		.align	2
 284              		.global	OSIntExit
ARM GAS  C:\Users\EDULU~1.DES\AppData\Local\Temp\ccYz4yx3.s 			page 11


 285              		.code	16
 286              		.thumb_func
 287              		.type	OSIntExit, %function
 288              	OSIntExit:
 289              	.LFB3:
 278:..\..\..\..\..\..\Software\uCOS-III\Source/os_core.c **** 
 279:..\..\..\..\..\..\Software\uCOS-III\Source/os_core.c **** /*$PAGE*/
 280:..\..\..\..\..\..\Software\uCOS-III\Source/os_core.c **** /*
 281:..\..\..\..\..\..\Software\uCOS-III\Source/os_core.c **** ***************************************************************************************************
 282:..\..\..\..\..\..\Software\uCOS-III\Source/os_core.c **** *                                                       EXIT ISR
 283:..\..\..\..\..\..\Software\uCOS-III\Source/os_core.c **** *
 284:..\..\..\..\..\..\Software\uCOS-III\Source/os_core.c **** * Description: This function is used to notify uC/OS-III that you have completed servicing an ISR. 
 285:..\..\..\..\..\..\Software\uCOS-III\Source/os_core.c **** *              ISR has completed, uC/OS-III will call the scheduler to determine whether a new, hig
 286:..\..\..\..\..\..\Software\uCOS-III\Source/os_core.c **** *              ready to run.
 287:..\..\..\..\..\..\Software\uCOS-III\Source/os_core.c **** *
 288:..\..\..\..\..\..\Software\uCOS-III\Source/os_core.c **** * Arguments  : none
 289:..\..\..\..\..\..\Software\uCOS-III\Source/os_core.c **** *
 290:..\..\..\..\..\..\Software\uCOS-III\Source/os_core.c **** * Returns    : none
 291:..\..\..\..\..\..\Software\uCOS-III\Source/os_core.c **** *
 292:..\..\..\..\..\..\Software\uCOS-III\Source/os_core.c **** * Note(s)    : 1) You MUST invoke OSIntEnter() and OSIntExit() in pair.  In other words, for every 
 293:..\..\..\..\..\..\Software\uCOS-III\Source/os_core.c **** *                 (or direct increment to OSIntNestingCtr) at the beginning of the ISR you MUST hav
 294:..\..\..\..\..\..\Software\uCOS-III\Source/os_core.c **** *                 at the end of the ISR.
 295:..\..\..\..\..\..\Software\uCOS-III\Source/os_core.c **** *
 296:..\..\..\..\..\..\Software\uCOS-III\Source/os_core.c **** *              2) Rescheduling is prevented when the scheduler is locked (see OSSchedLock())
 297:..\..\..\..\..\..\Software\uCOS-III\Source/os_core.c **** ***************************************************************************************************
 298:..\..\..\..\..\..\Software\uCOS-III\Source/os_core.c **** */
 299:..\..\..\..\..\..\Software\uCOS-III\Source/os_core.c **** 
 300:..\..\..\..\..\..\Software\uCOS-III\Source/os_core.c **** void  OSIntExit (void)
 301:..\..\..\..\..\..\Software\uCOS-III\Source/os_core.c **** {
 290              		.loc 1 301 0
 291              		.cfi_startproc
 292              		@ args = 0, pretend = 0, frame = 8
 293              		@ frame_needed = 1, uses_anonymous_args = 0
 294 0000 80B5     		push	{r7, lr}
 295              		.cfi_def_cfa_offset 8
 296              		.cfi_offset 7, -8
 297              		.cfi_offset 14, -4
 298 0002 82B0     		sub	sp, sp, #8
 299              		.cfi_def_cfa_offset 16
 300 0004 00AF     		add	r7, sp, #0
 301              		.cfi_def_cfa_register 7
 302:..\..\..\..\..\..\Software\uCOS-III\Source/os_core.c ****     CPU_SR_ALLOC();
 302              		.loc 1 302 0
 303 0006 0023     		movs	r3, #0
 304 0008 7B60     		str	r3, [r7, #4]
 303:..\..\..\..\..\..\Software\uCOS-III\Source/os_core.c **** 
 304:..\..\..\..\..\..\Software\uCOS-III\Source/os_core.c **** 
 305:..\..\..\..\..\..\Software\uCOS-III\Source/os_core.c **** 
 306:..\..\..\..\..\..\Software\uCOS-III\Source/os_core.c ****     if (OSRunning != OS_STATE_OS_RUNNING) {                 /* Has the OS started?                 
 305              		.loc 1 306 0
 306 000a 2A4B     		ldr	r3, .L36
 307 000c 1B78     		ldrb	r3, [r3]
 308 000e 012B     		cmp	r3, #1
 309 0010 4CD1     		bne	.L35
 307:..\..\..\..\..\..\Software\uCOS-III\Source/os_core.c ****         return;                                             /* No                                  
 308:..\..\..\..\..\..\Software\uCOS-III\Source/os_core.c ****     }
 309:..\..\..\..\..\..\Software\uCOS-III\Source/os_core.c **** 
ARM GAS  C:\Users\EDULU~1.DES\AppData\Local\Temp\ccYz4yx3.s 			page 12


 310:..\..\..\..\..\..\Software\uCOS-III\Source/os_core.c ****     CPU_INT_DIS();
 310              		.loc 1 310 0
 311 0012 FFF7FEFF 		bl	CPU_SR_Save
 312 0016 0300     		movs	r3, r0
 313 0018 7B60     		str	r3, [r7, #4]
 311:..\..\..\..\..\..\Software\uCOS-III\Source/os_core.c ****     if (OSIntNestingCtr == (OS_NESTING_CTR)0) {             /* Prevent OSIntNestingCtr from wrappin
 314              		.loc 1 311 0
 315 001a 274B     		ldr	r3, .L36+4
 316 001c 1B78     		ldrb	r3, [r3]
 317 001e 002B     		cmp	r3, #0
 318 0020 04D1     		bne	.L31
 312:..\..\..\..\..\..\Software\uCOS-III\Source/os_core.c ****         CPU_INT_EN();
 319              		.loc 1 312 0
 320 0022 7B68     		ldr	r3, [r7, #4]
 321 0024 1800     		movs	r0, r3
 322 0026 FFF7FEFF 		bl	CPU_SR_Restore
 313:..\..\..\..\..\..\Software\uCOS-III\Source/os_core.c ****         return;
 323              		.loc 1 313 0
 324 002a 40E0     		b	.L28
 325              	.L31:
 314:..\..\..\..\..\..\Software\uCOS-III\Source/os_core.c ****     }
 315:..\..\..\..\..\..\Software\uCOS-III\Source/os_core.c ****     OSIntNestingCtr--;
 326              		.loc 1 315 0
 327 002c 224B     		ldr	r3, .L36+4
 328 002e 1B78     		ldrb	r3, [r3]
 329 0030 013B     		subs	r3, r3, #1
 330 0032 DAB2     		uxtb	r2, r3
 331 0034 204B     		ldr	r3, .L36+4
 332 0036 1A70     		strb	r2, [r3]
 316:..\..\..\..\..\..\Software\uCOS-III\Source/os_core.c ****     if (OSIntNestingCtr > (OS_NESTING_CTR)0) {              /* ISRs still nested?                  
 333              		.loc 1 316 0
 334 0038 1F4B     		ldr	r3, .L36+4
 335 003a 1B78     		ldrb	r3, [r3]
 336 003c 002B     		cmp	r3, #0
 337 003e 04D0     		beq	.L32
 317:..\..\..\..\..\..\Software\uCOS-III\Source/os_core.c ****         CPU_INT_EN();                                       /* Yes                                 
 338              		.loc 1 317 0
 339 0040 7B68     		ldr	r3, [r7, #4]
 340 0042 1800     		movs	r0, r3
 341 0044 FFF7FEFF 		bl	CPU_SR_Restore
 318:..\..\..\..\..\..\Software\uCOS-III\Source/os_core.c ****         return;
 342              		.loc 1 318 0
 343 0048 31E0     		b	.L28
 344              	.L32:
 319:..\..\..\..\..\..\Software\uCOS-III\Source/os_core.c ****     }
 320:..\..\..\..\..\..\Software\uCOS-III\Source/os_core.c **** 
 321:..\..\..\..\..\..\Software\uCOS-III\Source/os_core.c ****     if (OSSchedLockNestingCtr > (OS_NESTING_CTR)0) {        /* Scheduler still locked?             
 345              		.loc 1 321 0
 346 004a 1C4B     		ldr	r3, .L36+8
 347 004c 1B78     		ldrb	r3, [r3]
 348 004e 002B     		cmp	r3, #0
 349 0050 04D0     		beq	.L33
 322:..\..\..\..\..\..\Software\uCOS-III\Source/os_core.c ****         CPU_INT_EN();                                       /* Yes                                 
 350              		.loc 1 322 0
 351 0052 7B68     		ldr	r3, [r7, #4]
 352 0054 1800     		movs	r0, r3
 353 0056 FFF7FEFF 		bl	CPU_SR_Restore
ARM GAS  C:\Users\EDULU~1.DES\AppData\Local\Temp\ccYz4yx3.s 			page 13


 323:..\..\..\..\..\..\Software\uCOS-III\Source/os_core.c ****         return;
 354              		.loc 1 323 0
 355 005a 28E0     		b	.L28
 356              	.L33:
 324:..\..\..\..\..\..\Software\uCOS-III\Source/os_core.c ****     }
 325:..\..\..\..\..\..\Software\uCOS-III\Source/os_core.c **** 
 326:..\..\..\..\..\..\Software\uCOS-III\Source/os_core.c ****     OSPrioHighRdy   = OS_PrioGetHighest();                  /* Find highest priority               
 357              		.loc 1 326 0
 358 005c FFF7FEFF 		bl	OS_PrioGetHighest
 359 0060 0300     		movs	r3, r0
 360 0062 1A00     		movs	r2, r3
 361 0064 164B     		ldr	r3, .L36+12
 362 0066 1A70     		strb	r2, [r3]
 327:..\..\..\..\..\..\Software\uCOS-III\Source/os_core.c ****     OSTCBHighRdyPtr = OSRdyList[OSPrioHighRdy].HeadPtr;     /* Get highest priority task ready-to-r
 363              		.loc 1 327 0
 364 0068 154B     		ldr	r3, .L36+12
 365 006a 1B78     		ldrb	r3, [r3]
 366 006c 1900     		movs	r1, r3
 367 006e 154A     		ldr	r2, .L36+16
 368 0070 0B00     		movs	r3, r1
 369 0072 5B00     		lsls	r3, r3, #1
 370 0074 5B18     		adds	r3, r3, r1
 371 0076 9B00     		lsls	r3, r3, #2
 372 0078 9A58     		ldr	r2, [r3, r2]
 373 007a 134B     		ldr	r3, .L36+20
 374 007c 1A60     		str	r2, [r3]
 328:..\..\..\..\..\..\Software\uCOS-III\Source/os_core.c ****     if (OSTCBHighRdyPtr == OSTCBCurPtr) {                   /* Current task still the highest prior
 375              		.loc 1 328 0
 376 007e 124B     		ldr	r3, .L36+20
 377 0080 1A68     		ldr	r2, [r3]
 378 0082 124B     		ldr	r3, .L36+24
 379 0084 1B68     		ldr	r3, [r3]
 380 0086 9A42     		cmp	r2, r3
 381 0088 04D1     		bne	.L34
 329:..\..\..\..\..\..\Software\uCOS-III\Source/os_core.c ****         CPU_INT_EN();                                       /* Yes                                 
 382              		.loc 1 329 0
 383 008a 7B68     		ldr	r3, [r7, #4]
 384 008c 1800     		movs	r0, r3
 385 008e FFF7FEFF 		bl	CPU_SR_Restore
 330:..\..\..\..\..\..\Software\uCOS-III\Source/os_core.c ****         return;
 386              		.loc 1 330 0
 387 0092 0CE0     		b	.L28
 388              	.L34:
 331:..\..\..\..\..\..\Software\uCOS-III\Source/os_core.c ****     }
 332:..\..\..\..\..\..\Software\uCOS-III\Source/os_core.c **** 
 333:..\..\..\..\..\..\Software\uCOS-III\Source/os_core.c **** #if OS_CFG_TASK_PROFILE_EN > 0u
 334:..\..\..\..\..\..\Software\uCOS-III\Source/os_core.c ****     OSTCBHighRdyPtr->CtxSwCtr++;                            /* Inc. # of context switches for this 
 335:..\..\..\..\..\..\Software\uCOS-III\Source/os_core.c **** #endif
 336:..\..\..\..\..\..\Software\uCOS-III\Source/os_core.c ****     OSTaskCtxSwCtr++;                                       /* Keep track of the total number of ct
 389              		.loc 1 336 0
 390 0094 0E4B     		ldr	r3, .L36+28
 391 0096 1B68     		ldr	r3, [r3]
 392 0098 5A1C     		adds	r2, r3, #1
 393 009a 0D4B     		ldr	r3, .L36+28
 394 009c 1A60     		str	r2, [r3]
 337:..\..\..\..\..\..\Software\uCOS-III\Source/os_core.c **** 
 338:..\..\..\..\..\..\Software\uCOS-III\Source/os_core.c **** #if defined(OS_CFG_TLS_TBL_SIZE) && (OS_CFG_TLS_TBL_SIZE > 0u)
ARM GAS  C:\Users\EDULU~1.DES\AppData\Local\Temp\ccYz4yx3.s 			page 14


 339:..\..\..\..\..\..\Software\uCOS-III\Source/os_core.c ****     OS_TLS_TaskSw();
 340:..\..\..\..\..\..\Software\uCOS-III\Source/os_core.c **** #endif
 341:..\..\..\..\..\..\Software\uCOS-III\Source/os_core.c **** 
 342:..\..\..\..\..\..\Software\uCOS-III\Source/os_core.c ****     OSIntCtxSw();                                           /* Perform interrupt level ctx switch  
 395              		.loc 1 342 0
 396 009e FFF7FEFF 		bl	OSIntCtxSw
 343:..\..\..\..\..\..\Software\uCOS-III\Source/os_core.c ****     CPU_INT_EN();
 397              		.loc 1 343 0
 398 00a2 7B68     		ldr	r3, [r7, #4]
 399 00a4 1800     		movs	r0, r3
 400 00a6 FFF7FEFF 		bl	CPU_SR_Restore
 401 00aa 00E0     		b	.L28
 402              	.L35:
 307:..\..\..\..\..\..\Software\uCOS-III\Source/os_core.c ****     }
 403              		.loc 1 307 0
 404 00ac C046     		nop
 405              	.L28:
 344:..\..\..\..\..\..\Software\uCOS-III\Source/os_core.c **** }
 406              		.loc 1 344 0
 407 00ae BD46     		mov	sp, r7
 408 00b0 02B0     		add	sp, sp, #8
 409              		@ sp needed
 410 00b2 80BD     		pop	{r7, pc}
 411              	.L37:
 412              		.align	2
 413              	.L36:
 414 00b4 00000000 		.word	OSRunning
 415 00b8 00000000 		.word	OSIntNestingCtr
 416 00bc 00000000 		.word	OSSchedLockNestingCtr
 417 00c0 00000000 		.word	OSPrioHighRdy
 418 00c4 00000000 		.word	OSRdyList
 419 00c8 00000000 		.word	OSTCBHighRdyPtr
 420 00cc 00000000 		.word	OSTCBCurPtr
 421 00d0 00000000 		.word	OSTaskCtxSwCtr
 422              		.cfi_endproc
 423              	.LFE3:
 424              		.size	OSIntExit, .-OSIntExit
 425              		.section	.text.OSSched,"ax",%progbits
 426              		.align	2
 427              		.global	OSSched
 428              		.code	16
 429              		.thumb_func
 430              		.type	OSSched, %function
 431              	OSSched:
 432              	.LFB4:
 345:..\..\..\..\..\..\Software\uCOS-III\Source/os_core.c **** 
 346:..\..\..\..\..\..\Software\uCOS-III\Source/os_core.c **** /*$PAGE*/
 347:..\..\..\..\..\..\Software\uCOS-III\Source/os_core.c **** /*
 348:..\..\..\..\..\..\Software\uCOS-III\Source/os_core.c **** ***************************************************************************************************
 349:..\..\..\..\..\..\Software\uCOS-III\Source/os_core.c **** *                                    INDICATE THAT IT'S NO LONGER SAFE TO CREATE OBJECTS
 350:..\..\..\..\..\..\Software\uCOS-III\Source/os_core.c **** *
 351:..\..\..\..\..\..\Software\uCOS-III\Source/os_core.c **** * Description: This function is called by the application code to indicate that all initialization 
 352:..\..\..\..\..\..\Software\uCOS-III\Source/os_core.c **** *              and that kernel objects are no longer allowed to be created.
 353:..\..\..\..\..\..\Software\uCOS-III\Source/os_core.c **** *
 354:..\..\..\..\..\..\Software\uCOS-III\Source/os_core.c **** * Arguments  : none
 355:..\..\..\..\..\..\Software\uCOS-III\Source/os_core.c **** *
 356:..\..\..\..\..\..\Software\uCOS-III\Source/os_core.c **** * Returns    : none
ARM GAS  C:\Users\EDULU~1.DES\AppData\Local\Temp\ccYz4yx3.s 			page 15


 357:..\..\..\..\..\..\Software\uCOS-III\Source/os_core.c **** *
 358:..\..\..\..\..\..\Software\uCOS-III\Source/os_core.c **** * Note(s)    : none
 359:..\..\..\..\..\..\Software\uCOS-III\Source/os_core.c **** ***************************************************************************************************
 360:..\..\..\..\..\..\Software\uCOS-III\Source/os_core.c **** */
 361:..\..\..\..\..\..\Software\uCOS-III\Source/os_core.c **** 
 362:..\..\..\..\..\..\Software\uCOS-III\Source/os_core.c **** #ifdef OS_SAFETY_CRITICAL_IEC61508
 363:..\..\..\..\..\..\Software\uCOS-III\Source/os_core.c **** void  OSSafetyCriticalStart (void)
 364:..\..\..\..\..\..\Software\uCOS-III\Source/os_core.c **** {
 365:..\..\..\..\..\..\Software\uCOS-III\Source/os_core.c ****     OSSafetyCriticalStartFlag = DEF_TRUE;
 366:..\..\..\..\..\..\Software\uCOS-III\Source/os_core.c **** }
 367:..\..\..\..\..\..\Software\uCOS-III\Source/os_core.c **** 
 368:..\..\..\..\..\..\Software\uCOS-III\Source/os_core.c **** #endif
 369:..\..\..\..\..\..\Software\uCOS-III\Source/os_core.c **** 
 370:..\..\..\..\..\..\Software\uCOS-III\Source/os_core.c **** /*$PAGE*/
 371:..\..\..\..\..\..\Software\uCOS-III\Source/os_core.c **** /*
 372:..\..\..\..\..\..\Software\uCOS-III\Source/os_core.c **** ***************************************************************************************************
 373:..\..\..\..\..\..\Software\uCOS-III\Source/os_core.c **** *                                                      SCHEDULER
 374:..\..\..\..\..\..\Software\uCOS-III\Source/os_core.c **** *
 375:..\..\..\..\..\..\Software\uCOS-III\Source/os_core.c **** * Description: This function is called by other uC/OS-III services to determine whether a new, high
 376:..\..\..\..\..\..\Software\uCOS-III\Source/os_core.c **** *              been made ready to run.  This function is invoked by TASK level code and is not used
 377:..\..\..\..\..\..\Software\uCOS-III\Source/os_core.c **** *              from ISRs (see OSIntExit() for ISR rescheduling).
 378:..\..\..\..\..\..\Software\uCOS-III\Source/os_core.c **** *
 379:..\..\..\..\..\..\Software\uCOS-III\Source/os_core.c **** * Arguments  : none
 380:..\..\..\..\..\..\Software\uCOS-III\Source/os_core.c **** *
 381:..\..\..\..\..\..\Software\uCOS-III\Source/os_core.c **** * Returns    : none
 382:..\..\..\..\..\..\Software\uCOS-III\Source/os_core.c **** *
 383:..\..\..\..\..\..\Software\uCOS-III\Source/os_core.c **** * Note(s)    : 1) Rescheduling is prevented when the scheduler is locked (see OSSchedLock())
 384:..\..\..\..\..\..\Software\uCOS-III\Source/os_core.c **** ***************************************************************************************************
 385:..\..\..\..\..\..\Software\uCOS-III\Source/os_core.c **** */
 386:..\..\..\..\..\..\Software\uCOS-III\Source/os_core.c **** 
 387:..\..\..\..\..\..\Software\uCOS-III\Source/os_core.c **** void  OSSched (void)
 388:..\..\..\..\..\..\Software\uCOS-III\Source/os_core.c **** {
 433              		.loc 1 388 0
 434              		.cfi_startproc
 435              		@ args = 0, pretend = 0, frame = 8
 436              		@ frame_needed = 1, uses_anonymous_args = 0
 437 0000 80B5     		push	{r7, lr}
 438              		.cfi_def_cfa_offset 8
 439              		.cfi_offset 7, -8
 440              		.cfi_offset 14, -4
 441 0002 82B0     		sub	sp, sp, #8
 442              		.cfi_def_cfa_offset 16
 443 0004 00AF     		add	r7, sp, #0
 444              		.cfi_def_cfa_register 7
 389:..\..\..\..\..\..\Software\uCOS-III\Source/os_core.c ****     CPU_SR_ALLOC();
 445              		.loc 1 389 0
 446 0006 0023     		movs	r3, #0
 447 0008 7B60     		str	r3, [r7, #4]
 390:..\..\..\..\..\..\Software\uCOS-III\Source/os_core.c **** 
 391:..\..\..\..\..\..\Software\uCOS-III\Source/os_core.c **** 
 392:..\..\..\..\..\..\Software\uCOS-III\Source/os_core.c **** 
 393:..\..\..\..\..\..\Software\uCOS-III\Source/os_core.c ****     if (OSIntNestingCtr > (OS_NESTING_CTR)0) {              /* ISRs still nested?                  
 448              		.loc 1 393 0
 449 000a 1D4B     		ldr	r3, .L45
 450 000c 1B78     		ldrb	r3, [r3]
 451 000e 002B     		cmp	r3, #0
 452 0010 2FD1     		bne	.L43
ARM GAS  C:\Users\EDULU~1.DES\AppData\Local\Temp\ccYz4yx3.s 			page 16


 394:..\..\..\..\..\..\Software\uCOS-III\Source/os_core.c ****         return;                                             /* Yes ... only schedule when no nested
 395:..\..\..\..\..\..\Software\uCOS-III\Source/os_core.c ****     }
 396:..\..\..\..\..\..\Software\uCOS-III\Source/os_core.c **** 
 397:..\..\..\..\..\..\Software\uCOS-III\Source/os_core.c ****     if (OSSchedLockNestingCtr > (OS_NESTING_CTR)0) {        /* Scheduler locked?                   
 453              		.loc 1 397 0
 454 0012 1C4B     		ldr	r3, .L45+4
 455 0014 1B78     		ldrb	r3, [r3]
 456 0016 002B     		cmp	r3, #0
 457 0018 2DD1     		bne	.L44
 398:..\..\..\..\..\..\Software\uCOS-III\Source/os_core.c ****         return;                                             /* Yes                                 
 399:..\..\..\..\..\..\Software\uCOS-III\Source/os_core.c ****     }
 400:..\..\..\..\..\..\Software\uCOS-III\Source/os_core.c **** 
 401:..\..\..\..\..\..\Software\uCOS-III\Source/os_core.c ****     CPU_INT_DIS();
 458              		.loc 1 401 0
 459 001a FFF7FEFF 		bl	CPU_SR_Save
 460 001e 0300     		movs	r3, r0
 461 0020 7B60     		str	r3, [r7, #4]
 402:..\..\..\..\..\..\Software\uCOS-III\Source/os_core.c ****     OSPrioHighRdy   = OS_PrioGetHighest();                  /* Find the highest priority ready     
 462              		.loc 1 402 0
 463 0022 FFF7FEFF 		bl	OS_PrioGetHighest
 464 0026 0300     		movs	r3, r0
 465 0028 1A00     		movs	r2, r3
 466 002a 174B     		ldr	r3, .L45+8
 467 002c 1A70     		strb	r2, [r3]
 403:..\..\..\..\..\..\Software\uCOS-III\Source/os_core.c ****     OSTCBHighRdyPtr = OSRdyList[OSPrioHighRdy].HeadPtr;
 468              		.loc 1 403 0
 469 002e 164B     		ldr	r3, .L45+8
 470 0030 1B78     		ldrb	r3, [r3]
 471 0032 1900     		movs	r1, r3
 472 0034 154A     		ldr	r2, .L45+12
 473 0036 0B00     		movs	r3, r1
 474 0038 5B00     		lsls	r3, r3, #1
 475 003a 5B18     		adds	r3, r3, r1
 476 003c 9B00     		lsls	r3, r3, #2
 477 003e 9A58     		ldr	r2, [r3, r2]
 478 0040 134B     		ldr	r3, .L45+16
 479 0042 1A60     		str	r2, [r3]
 404:..\..\..\..\..\..\Software\uCOS-III\Source/os_core.c ****     if (OSTCBHighRdyPtr == OSTCBCurPtr) {                   /* Current task is still highest priori
 480              		.loc 1 404 0
 481 0044 124B     		ldr	r3, .L45+16
 482 0046 1A68     		ldr	r2, [r3]
 483 0048 124B     		ldr	r3, .L45+20
 484 004a 1B68     		ldr	r3, [r3]
 485 004c 9A42     		cmp	r2, r3
 486 004e 04D1     		bne	.L42
 405:..\..\..\..\..\..\Software\uCOS-III\Source/os_core.c ****         CPU_INT_EN();                                       /* Yes ... no need to context switch   
 487              		.loc 1 405 0
 488 0050 7B68     		ldr	r3, [r7, #4]
 489 0052 1800     		movs	r0, r3
 490 0054 FFF7FEFF 		bl	CPU_SR_Restore
 406:..\..\..\..\..\..\Software\uCOS-III\Source/os_core.c ****         return;
 491              		.loc 1 406 0
 492 0058 0EE0     		b	.L38
 493              	.L42:
 407:..\..\..\..\..\..\Software\uCOS-III\Source/os_core.c ****     }
 408:..\..\..\..\..\..\Software\uCOS-III\Source/os_core.c **** 
 409:..\..\..\..\..\..\Software\uCOS-III\Source/os_core.c **** #if OS_CFG_TASK_PROFILE_EN > 0u
ARM GAS  C:\Users\EDULU~1.DES\AppData\Local\Temp\ccYz4yx3.s 			page 17


 410:..\..\..\..\..\..\Software\uCOS-III\Source/os_core.c ****     OSTCBHighRdyPtr->CtxSwCtr++;                            /* Inc. # of context switches to this t
 411:..\..\..\..\..\..\Software\uCOS-III\Source/os_core.c **** #endif
 412:..\..\..\..\..\..\Software\uCOS-III\Source/os_core.c ****     OSTaskCtxSwCtr++;                                       /* Increment context switch counter    
 494              		.loc 1 412 0
 495 005a 0F4B     		ldr	r3, .L45+24
 496 005c 1B68     		ldr	r3, [r3]
 497 005e 5A1C     		adds	r2, r3, #1
 498 0060 0D4B     		ldr	r3, .L45+24
 499 0062 1A60     		str	r2, [r3]
 413:..\..\..\..\..\..\Software\uCOS-III\Source/os_core.c **** 
 414:..\..\..\..\..\..\Software\uCOS-III\Source/os_core.c **** #if defined(OS_CFG_TLS_TBL_SIZE) && (OS_CFG_TLS_TBL_SIZE > 0u)
 415:..\..\..\..\..\..\Software\uCOS-III\Source/os_core.c ****     OS_TLS_TaskSw();
 416:..\..\..\..\..\..\Software\uCOS-III\Source/os_core.c **** #endif
 417:..\..\..\..\..\..\Software\uCOS-III\Source/os_core.c **** 
 418:..\..\..\..\..\..\Software\uCOS-III\Source/os_core.c ****     OS_TASK_SW();                                           /* Perform a task level context switch 
 500              		.loc 1 418 0
 501 0064 FFF7FEFF 		bl	OSCtxSw
 419:..\..\..\..\..\..\Software\uCOS-III\Source/os_core.c ****     CPU_INT_EN();
 502              		.loc 1 419 0
 503 0068 7B68     		ldr	r3, [r7, #4]
 504 006a 1800     		movs	r0, r3
 505 006c FFF7FEFF 		bl	CPU_SR_Restore
 506 0070 02E0     		b	.L38
 507              	.L43:
 394:..\..\..\..\..\..\Software\uCOS-III\Source/os_core.c ****     }
 508              		.loc 1 394 0
 509 0072 C046     		nop
 510 0074 00E0     		b	.L38
 511              	.L44:
 398:..\..\..\..\..\..\Software\uCOS-III\Source/os_core.c ****     }
 512              		.loc 1 398 0
 513 0076 C046     		nop
 514              	.L38:
 420:..\..\..\..\..\..\Software\uCOS-III\Source/os_core.c **** }
 515              		.loc 1 420 0
 516 0078 BD46     		mov	sp, r7
 517 007a 02B0     		add	sp, sp, #8
 518              		@ sp needed
 519 007c 80BD     		pop	{r7, pc}
 520              	.L46:
 521 007e C046     		.align	2
 522              	.L45:
 523 0080 00000000 		.word	OSIntNestingCtr
 524 0084 00000000 		.word	OSSchedLockNestingCtr
 525 0088 00000000 		.word	OSPrioHighRdy
 526 008c 00000000 		.word	OSRdyList
 527 0090 00000000 		.word	OSTCBHighRdyPtr
 528 0094 00000000 		.word	OSTCBCurPtr
 529 0098 00000000 		.word	OSTaskCtxSwCtr
 530              		.cfi_endproc
 531              	.LFE4:
 532              		.size	OSSched, .-OSSched
 533              		.section	.text.OSSchedLock,"ax",%progbits
 534              		.align	2
 535              		.global	OSSchedLock
 536              		.code	16
 537              		.thumb_func
ARM GAS  C:\Users\EDULU~1.DES\AppData\Local\Temp\ccYz4yx3.s 			page 18


 538              		.type	OSSchedLock, %function
 539              	OSSchedLock:
 540              	.LFB5:
 421:..\..\..\..\..\..\Software\uCOS-III\Source/os_core.c **** 
 422:..\..\..\..\..\..\Software\uCOS-III\Source/os_core.c **** /*$PAGE*/
 423:..\..\..\..\..\..\Software\uCOS-III\Source/os_core.c **** /*
 424:..\..\..\..\..\..\Software\uCOS-III\Source/os_core.c **** ***************************************************************************************************
 425:..\..\..\..\..\..\Software\uCOS-III\Source/os_core.c **** *                                                 PREVENT SCHEDULING
 426:..\..\..\..\..\..\Software\uCOS-III\Source/os_core.c **** *
 427:..\..\..\..\..\..\Software\uCOS-III\Source/os_core.c **** * Description: This function is used to prevent rescheduling from taking place.  This allows your a
 428:..\..\..\..\..\..\Software\uCOS-III\Source/os_core.c **** *              context switches until you are ready to permit context switching.
 429:..\..\..\..\..\..\Software\uCOS-III\Source/os_core.c **** *
 430:..\..\..\..\..\..\Software\uCOS-III\Source/os_core.c **** * Arguments  : p_err     is a pointer to a variable that will receive an error code:
 431:..\..\..\..\..\..\Software\uCOS-III\Source/os_core.c **** *
 432:..\..\..\..\..\..\Software\uCOS-III\Source/os_core.c **** *                            OS_ERR_NONE                 The scheduler is locked
 433:..\..\..\..\..\..\Software\uCOS-III\Source/os_core.c **** *                            OS_ERR_LOCK_NESTING_OVF     If you attempted to nest call to this func
 434:..\..\..\..\..\..\Software\uCOS-III\Source/os_core.c **** *                            OS_ERR_OS_NOT_RUNNING       If uC/OS-III is not running yet.
 435:..\..\..\..\..\..\Software\uCOS-III\Source/os_core.c **** *                            OS_ERR_SCHED_LOCK_ISR       If you called this function from an ISR.
 436:..\..\..\..\..\..\Software\uCOS-III\Source/os_core.c **** *
 437:..\..\..\..\..\..\Software\uCOS-III\Source/os_core.c **** * Returns    : none
 438:..\..\..\..\..\..\Software\uCOS-III\Source/os_core.c **** *
 439:..\..\..\..\..\..\Software\uCOS-III\Source/os_core.c **** * Note(s)    : 1) You MUST invoke OSSchedLock() and OSSchedUnlock() in pair.  In other words, for e
 440:..\..\..\..\..\..\Software\uCOS-III\Source/os_core.c **** *                 call to OSSchedLock() you MUST have a call to OSSchedUnlock().
 441:..\..\..\..\..\..\Software\uCOS-III\Source/os_core.c **** ***************************************************************************************************
 442:..\..\..\..\..\..\Software\uCOS-III\Source/os_core.c **** */
 443:..\..\..\..\..\..\Software\uCOS-III\Source/os_core.c **** 
 444:..\..\..\..\..\..\Software\uCOS-III\Source/os_core.c **** void  OSSchedLock (OS_ERR  *p_err)
 445:..\..\..\..\..\..\Software\uCOS-III\Source/os_core.c **** {
 541              		.loc 1 445 0
 542              		.cfi_startproc
 543              		@ args = 0, pretend = 0, frame = 16
 544              		@ frame_needed = 1, uses_anonymous_args = 0
 545 0000 80B5     		push	{r7, lr}
 546              		.cfi_def_cfa_offset 8
 547              		.cfi_offset 7, -8
 548              		.cfi_offset 14, -4
 549 0002 84B0     		sub	sp, sp, #16
 550              		.cfi_def_cfa_offset 24
 551 0004 00AF     		add	r7, sp, #0
 552              		.cfi_def_cfa_register 7
 553 0006 7860     		str	r0, [r7, #4]
 446:..\..\..\..\..\..\Software\uCOS-III\Source/os_core.c ****     CPU_SR_ALLOC();
 554              		.loc 1 446 0
 555 0008 0023     		movs	r3, #0
 556 000a FB60     		str	r3, [r7, #12]
 447:..\..\..\..\..\..\Software\uCOS-III\Source/os_core.c **** 
 448:..\..\..\..\..\..\Software\uCOS-III\Source/os_core.c **** 
 449:..\..\..\..\..\..\Software\uCOS-III\Source/os_core.c **** 
 450:..\..\..\..\..\..\Software\uCOS-III\Source/os_core.c **** #ifdef OS_SAFETY_CRITICAL
 451:..\..\..\..\..\..\Software\uCOS-III\Source/os_core.c ****     if (p_err == (OS_ERR *)0) {
 452:..\..\..\..\..\..\Software\uCOS-III\Source/os_core.c ****         OS_SAFETY_CRITICAL_EXCEPTION();
 453:..\..\..\..\..\..\Software\uCOS-III\Source/os_core.c ****         return;
 454:..\..\..\..\..\..\Software\uCOS-III\Source/os_core.c ****     }
 455:..\..\..\..\..\..\Software\uCOS-III\Source/os_core.c **** #endif
 456:..\..\..\..\..\..\Software\uCOS-III\Source/os_core.c **** 
 457:..\..\..\..\..\..\Software\uCOS-III\Source/os_core.c **** #if OS_CFG_CALLED_FROM_ISR_CHK_EN > 0u
 458:..\..\..\..\..\..\Software\uCOS-III\Source/os_core.c ****     if (OSIntNestingCtr > (OS_NESTING_CTR)0) {              /* Not allowed to call from an ISR     
ARM GAS  C:\Users\EDULU~1.DES\AppData\Local\Temp\ccYz4yx3.s 			page 19


 557              		.loc 1 458 0
 558 000c 174B     		ldr	r3, .L52
 559 000e 1B78     		ldrb	r3, [r3]
 560 0010 002B     		cmp	r3, #0
 561 0012 03D0     		beq	.L48
 459:..\..\..\..\..\..\Software\uCOS-III\Source/os_core.c ****        *p_err = OS_ERR_SCHED_LOCK_ISR;
 562              		.loc 1 459 0
 563 0014 7B68     		ldr	r3, [r7, #4]
 564 0016 164A     		ldr	r2, .L52+4
 565 0018 1A80     		strh	r2, [r3]
 460:..\..\..\..\..\..\Software\uCOS-III\Source/os_core.c ****         return;
 566              		.loc 1 460 0
 567 001a 24E0     		b	.L47
 568              	.L48:
 461:..\..\..\..\..\..\Software\uCOS-III\Source/os_core.c ****     }
 462:..\..\..\..\..\..\Software\uCOS-III\Source/os_core.c **** #endif
 463:..\..\..\..\..\..\Software\uCOS-III\Source/os_core.c **** 
 464:..\..\..\..\..\..\Software\uCOS-III\Source/os_core.c ****     if (OSRunning != OS_STATE_OS_RUNNING) {                 /* Make sure multitasking is running   
 569              		.loc 1 464 0
 570 001c 154B     		ldr	r3, .L52+8
 571 001e 1B78     		ldrb	r3, [r3]
 572 0020 012B     		cmp	r3, #1
 573 0022 03D0     		beq	.L50
 465:..\..\..\..\..\..\Software\uCOS-III\Source/os_core.c ****        *p_err = OS_ERR_OS_NOT_RUNNING;
 574              		.loc 1 465 0
 575 0024 7B68     		ldr	r3, [r7, #4]
 576 0026 144A     		ldr	r2, .L52+12
 577 0028 1A80     		strh	r2, [r3]
 466:..\..\..\..\..\..\Software\uCOS-III\Source/os_core.c ****         return;
 578              		.loc 1 466 0
 579 002a 1CE0     		b	.L47
 580              	.L50:
 467:..\..\..\..\..\..\Software\uCOS-III\Source/os_core.c ****     }
 468:..\..\..\..\..\..\Software\uCOS-III\Source/os_core.c **** 
 469:..\..\..\..\..\..\Software\uCOS-III\Source/os_core.c ****     if (OSSchedLockNestingCtr >= (OS_NESTING_CTR)250u) {    /* Prevent OSSchedLockNestingCtr overfl
 581              		.loc 1 469 0
 582 002c 134B     		ldr	r3, .L52+16
 583 002e 1B78     		ldrb	r3, [r3]
 584 0030 F92B     		cmp	r3, #249
 585 0032 03D9     		bls	.L51
 470:..\..\..\..\..\..\Software\uCOS-III\Source/os_core.c ****        *p_err = OS_ERR_LOCK_NESTING_OVF;
 586              		.loc 1 470 0
 587 0034 7B68     		ldr	r3, [r7, #4]
 588 0036 124A     		ldr	r2, .L52+20
 589 0038 1A80     		strh	r2, [r3]
 471:..\..\..\..\..\..\Software\uCOS-III\Source/os_core.c ****         return;
 590              		.loc 1 471 0
 591 003a 14E0     		b	.L47
 592              	.L51:
 472:..\..\..\..\..\..\Software\uCOS-III\Source/os_core.c ****     }
 473:..\..\..\..\..\..\Software\uCOS-III\Source/os_core.c **** 
 474:..\..\..\..\..\..\Software\uCOS-III\Source/os_core.c ****     CPU_CRITICAL_ENTER();
 593              		.loc 1 474 0
 594 003c FFF7FEFF 		bl	CPU_SR_Save
 595 0040 0300     		movs	r3, r0
 596 0042 FB60     		str	r3, [r7, #12]
 597 0044 FFF7FEFF 		bl	CPU_IntDisMeasStart
ARM GAS  C:\Users\EDULU~1.DES\AppData\Local\Temp\ccYz4yx3.s 			page 20


 475:..\..\..\..\..\..\Software\uCOS-III\Source/os_core.c ****     OSSchedLockNestingCtr++;                                /* Increment lock nesting level        
 598              		.loc 1 475 0
 599 0048 0C4B     		ldr	r3, .L52+16
 600 004a 1B78     		ldrb	r3, [r3]
 601 004c 0133     		adds	r3, r3, #1
 602 004e DAB2     		uxtb	r2, r3
 603 0050 0A4B     		ldr	r3, .L52+16
 604 0052 1A70     		strb	r2, [r3]
 476:..\..\..\..\..\..\Software\uCOS-III\Source/os_core.c **** #if OS_CFG_SCHED_LOCK_TIME_MEAS_EN > 0u
 477:..\..\..\..\..\..\Software\uCOS-III\Source/os_core.c ****     OS_SchedLockTimeMeasStart();
 478:..\..\..\..\..\..\Software\uCOS-III\Source/os_core.c **** #endif
 479:..\..\..\..\..\..\Software\uCOS-III\Source/os_core.c ****     CPU_CRITICAL_EXIT();
 605              		.loc 1 479 0
 606 0054 FFF7FEFF 		bl	CPU_IntDisMeasStop
 607 0058 FB68     		ldr	r3, [r7, #12]
 608 005a 1800     		movs	r0, r3
 609 005c FFF7FEFF 		bl	CPU_SR_Restore
 480:..\..\..\..\..\..\Software\uCOS-III\Source/os_core.c ****    *p_err = OS_ERR_NONE;
 610              		.loc 1 480 0
 611 0060 7B68     		ldr	r3, [r7, #4]
 612 0062 0022     		movs	r2, #0
 613 0064 1A80     		strh	r2, [r3]
 614              	.L47:
 481:..\..\..\..\..\..\Software\uCOS-III\Source/os_core.c **** }
 615              		.loc 1 481 0
 616 0066 BD46     		mov	sp, r7
 617 0068 04B0     		add	sp, sp, #16
 618              		@ sp needed
 619 006a 80BD     		pop	{r7, pc}
 620              	.L53:
 621              		.align	2
 622              	.L52:
 623 006c 00000000 		.word	OSIntNestingCtr
 624 0070 626D0000 		.word	28002
 625 0074 00000000 		.word	OSRunning
 626 0078 895E0000 		.word	24201
 627 007c 00000000 		.word	OSSchedLockNestingCtr
 628 0080 09520000 		.word	21001
 629              		.cfi_endproc
 630              	.LFE5:
 631              		.size	OSSchedLock, .-OSSchedLock
 632              		.section	.text.OSSchedUnlock,"ax",%progbits
 633              		.align	2
 634              		.global	OSSchedUnlock
 635              		.code	16
 636              		.thumb_func
 637              		.type	OSSchedUnlock, %function
 638              	OSSchedUnlock:
 639              	.LFB6:
 482:..\..\..\..\..\..\Software\uCOS-III\Source/os_core.c **** 
 483:..\..\..\..\..\..\Software\uCOS-III\Source/os_core.c **** /*$PAGE*/
 484:..\..\..\..\..\..\Software\uCOS-III\Source/os_core.c **** /*
 485:..\..\..\..\..\..\Software\uCOS-III\Source/os_core.c **** ***************************************************************************************************
 486:..\..\..\..\..\..\Software\uCOS-III\Source/os_core.c **** *                                                  ENABLE SCHEDULING
 487:..\..\..\..\..\..\Software\uCOS-III\Source/os_core.c **** *
 488:..\..\..\..\..\..\Software\uCOS-III\Source/os_core.c **** * Description: This function is used to re-allow rescheduling.
 489:..\..\..\..\..\..\Software\uCOS-III\Source/os_core.c **** *
ARM GAS  C:\Users\EDULU~1.DES\AppData\Local\Temp\ccYz4yx3.s 			page 21


 490:..\..\..\..\..\..\Software\uCOS-III\Source/os_core.c **** * Arguments  : p_err     is a pointer to a variable that will contain an error code returned by thi
 491:..\..\..\..\..\..\Software\uCOS-III\Source/os_core.c **** *
 492:..\..\..\..\..\..\Software\uCOS-III\Source/os_core.c **** *                            OS_ERR_NONE
 493:..\..\..\..\..\..\Software\uCOS-III\Source/os_core.c **** *                            OS_ERR_OS_NOT_RUNNING       The scheduler has been enabled
 494:..\..\..\..\..\..\Software\uCOS-III\Source/os_core.c **** *                            OS_ERR_SCHED_LOCKED         The scheduler is still locked, still neste
 495:..\..\..\..\..\..\Software\uCOS-III\Source/os_core.c **** *                            OS_ERR_SCHED_NOT_LOCKED     The scheduler was not locked
 496:..\..\..\..\..\..\Software\uCOS-III\Source/os_core.c **** *                            OS_ERR_SCHED_UNLOCK_ISR     If you called this function from an ISR.
 497:..\..\..\..\..\..\Software\uCOS-III\Source/os_core.c **** *
 498:..\..\..\..\..\..\Software\uCOS-III\Source/os_core.c **** * Returns    : none
 499:..\..\..\..\..\..\Software\uCOS-III\Source/os_core.c **** *
 500:..\..\..\..\..\..\Software\uCOS-III\Source/os_core.c **** * Note(s)    : 1) You MUST invoke OSSchedLock() and OSSchedUnlock() in pair.  In other words, for e
 501:..\..\..\..\..\..\Software\uCOS-III\Source/os_core.c **** *                 OSSchedLock() you MUST have a call to OSSchedUnlock().
 502:..\..\..\..\..\..\Software\uCOS-III\Source/os_core.c **** ***************************************************************************************************
 503:..\..\..\..\..\..\Software\uCOS-III\Source/os_core.c **** */
 504:..\..\..\..\..\..\Software\uCOS-III\Source/os_core.c **** 
 505:..\..\..\..\..\..\Software\uCOS-III\Source/os_core.c **** void  OSSchedUnlock (OS_ERR  *p_err)
 506:..\..\..\..\..\..\Software\uCOS-III\Source/os_core.c **** {
 640              		.loc 1 506 0
 641              		.cfi_startproc
 642              		@ args = 0, pretend = 0, frame = 16
 643              		@ frame_needed = 1, uses_anonymous_args = 0
 644 0000 80B5     		push	{r7, lr}
 645              		.cfi_def_cfa_offset 8
 646              		.cfi_offset 7, -8
 647              		.cfi_offset 14, -4
 648 0002 84B0     		sub	sp, sp, #16
 649              		.cfi_def_cfa_offset 24
 650 0004 00AF     		add	r7, sp, #0
 651              		.cfi_def_cfa_register 7
 652 0006 7860     		str	r0, [r7, #4]
 507:..\..\..\..\..\..\Software\uCOS-III\Source/os_core.c ****     CPU_SR_ALLOC();
 653              		.loc 1 507 0
 654 0008 0023     		movs	r3, #0
 655 000a FB60     		str	r3, [r7, #12]
 508:..\..\..\..\..\..\Software\uCOS-III\Source/os_core.c **** 
 509:..\..\..\..\..\..\Software\uCOS-III\Source/os_core.c **** 
 510:..\..\..\..\..\..\Software\uCOS-III\Source/os_core.c **** 
 511:..\..\..\..\..\..\Software\uCOS-III\Source/os_core.c **** #ifdef OS_SAFETY_CRITICAL
 512:..\..\..\..\..\..\Software\uCOS-III\Source/os_core.c ****     if (p_err == (OS_ERR *)0) {
 513:..\..\..\..\..\..\Software\uCOS-III\Source/os_core.c ****         OS_SAFETY_CRITICAL_EXCEPTION();
 514:..\..\..\..\..\..\Software\uCOS-III\Source/os_core.c ****         return;
 515:..\..\..\..\..\..\Software\uCOS-III\Source/os_core.c ****     }
 516:..\..\..\..\..\..\Software\uCOS-III\Source/os_core.c **** #endif
 517:..\..\..\..\..\..\Software\uCOS-III\Source/os_core.c **** 
 518:..\..\..\..\..\..\Software\uCOS-III\Source/os_core.c **** #if OS_CFG_CALLED_FROM_ISR_CHK_EN > 0u
 519:..\..\..\..\..\..\Software\uCOS-III\Source/os_core.c ****     if (OSIntNestingCtr > (OS_NESTING_CTR)0) {              /* Not allowed to call from an ISR     
 656              		.loc 1 519 0
 657 000c 1F4B     		ldr	r3, .L60
 658 000e 1B78     		ldrb	r3, [r3]
 659 0010 002B     		cmp	r3, #0
 660 0012 03D0     		beq	.L55
 520:..\..\..\..\..\..\Software\uCOS-III\Source/os_core.c ****        *p_err = OS_ERR_SCHED_UNLOCK_ISR;
 661              		.loc 1 520 0
 662 0014 7B68     		ldr	r3, [r7, #4]
 663 0016 1E4A     		ldr	r2, .L60+4
 664 0018 1A80     		strh	r2, [r3]
 521:..\..\..\..\..\..\Software\uCOS-III\Source/os_core.c ****         return;
ARM GAS  C:\Users\EDULU~1.DES\AppData\Local\Temp\ccYz4yx3.s 			page 22


 665              		.loc 1 521 0
 666 001a 34E0     		b	.L54
 667              	.L55:
 522:..\..\..\..\..\..\Software\uCOS-III\Source/os_core.c ****     }
 523:..\..\..\..\..\..\Software\uCOS-III\Source/os_core.c **** #endif
 524:..\..\..\..\..\..\Software\uCOS-III\Source/os_core.c **** 
 525:..\..\..\..\..\..\Software\uCOS-III\Source/os_core.c ****     if (OSRunning != OS_STATE_OS_RUNNING) {                 /* Make sure multitasking is running   
 668              		.loc 1 525 0
 669 001c 1D4B     		ldr	r3, .L60+8
 670 001e 1B78     		ldrb	r3, [r3]
 671 0020 012B     		cmp	r3, #1
 672 0022 03D0     		beq	.L57
 526:..\..\..\..\..\..\Software\uCOS-III\Source/os_core.c ****        *p_err = OS_ERR_OS_NOT_RUNNING;
 673              		.loc 1 526 0
 674 0024 7B68     		ldr	r3, [r7, #4]
 675 0026 1C4A     		ldr	r2, .L60+12
 676 0028 1A80     		strh	r2, [r3]
 527:..\..\..\..\..\..\Software\uCOS-III\Source/os_core.c ****         return;
 677              		.loc 1 527 0
 678 002a 2CE0     		b	.L54
 679              	.L57:
 528:..\..\..\..\..\..\Software\uCOS-III\Source/os_core.c ****     }
 529:..\..\..\..\..\..\Software\uCOS-III\Source/os_core.c **** 
 530:..\..\..\..\..\..\Software\uCOS-III\Source/os_core.c ****     if (OSSchedLockNestingCtr == (OS_NESTING_CTR)0) {       /* See if the scheduler is locked      
 680              		.loc 1 530 0
 681 002c 1B4B     		ldr	r3, .L60+16
 682 002e 1B78     		ldrb	r3, [r3]
 683 0030 002B     		cmp	r3, #0
 684 0032 03D1     		bne	.L58
 531:..\..\..\..\..\..\Software\uCOS-III\Source/os_core.c ****        *p_err = OS_ERR_SCHED_NOT_LOCKED;
 685              		.loc 1 531 0
 686 0034 7B68     		ldr	r3, [r7, #4]
 687 0036 1A4A     		ldr	r2, .L60+20
 688 0038 1A80     		strh	r2, [r3]
 532:..\..\..\..\..\..\Software\uCOS-III\Source/os_core.c ****         return;
 689              		.loc 1 532 0
 690 003a 24E0     		b	.L54
 691              	.L58:
 533:..\..\..\..\..\..\Software\uCOS-III\Source/os_core.c ****     }
 534:..\..\..\..\..\..\Software\uCOS-III\Source/os_core.c **** 
 535:..\..\..\..\..\..\Software\uCOS-III\Source/os_core.c ****     CPU_CRITICAL_ENTER();
 692              		.loc 1 535 0
 693 003c FFF7FEFF 		bl	CPU_SR_Save
 694 0040 0300     		movs	r3, r0
 695 0042 FB60     		str	r3, [r7, #12]
 696 0044 FFF7FEFF 		bl	CPU_IntDisMeasStart
 536:..\..\..\..\..\..\Software\uCOS-III\Source/os_core.c ****     OSSchedLockNestingCtr--;                                /* Decrement lock nesting level        
 697              		.loc 1 536 0
 698 0048 144B     		ldr	r3, .L60+16
 699 004a 1B78     		ldrb	r3, [r3]
 700 004c 013B     		subs	r3, r3, #1
 701 004e DAB2     		uxtb	r2, r3
 702 0050 124B     		ldr	r3, .L60+16
 703 0052 1A70     		strb	r2, [r3]
 537:..\..\..\..\..\..\Software\uCOS-III\Source/os_core.c ****     if (OSSchedLockNestingCtr > (OS_NESTING_CTR)0) {
 704              		.loc 1 537 0
 705 0054 114B     		ldr	r3, .L60+16
ARM GAS  C:\Users\EDULU~1.DES\AppData\Local\Temp\ccYz4yx3.s 			page 23


 706 0056 1B78     		ldrb	r3, [r3]
 707 0058 002B     		cmp	r3, #0
 708 005a 09D0     		beq	.L59
 538:..\..\..\..\..\..\Software\uCOS-III\Source/os_core.c ****         CPU_CRITICAL_EXIT();                                /* Scheduler is still locked           
 709              		.loc 1 538 0
 710 005c FFF7FEFF 		bl	CPU_IntDisMeasStop
 711 0060 FB68     		ldr	r3, [r7, #12]
 712 0062 1800     		movs	r0, r3
 713 0064 FFF7FEFF 		bl	CPU_SR_Restore
 539:..\..\..\..\..\..\Software\uCOS-III\Source/os_core.c ****        *p_err = OS_ERR_SCHED_LOCKED;
 714              		.loc 1 539 0
 715 0068 7B68     		ldr	r3, [r7, #4]
 716 006a 0E4A     		ldr	r2, .L60+24
 717 006c 1A80     		strh	r2, [r3]
 540:..\..\..\..\..\..\Software\uCOS-III\Source/os_core.c ****         return;
 718              		.loc 1 540 0
 719 006e 0AE0     		b	.L54
 720              	.L59:
 541:..\..\..\..\..\..\Software\uCOS-III\Source/os_core.c ****     }
 542:..\..\..\..\..\..\Software\uCOS-III\Source/os_core.c **** 
 543:..\..\..\..\..\..\Software\uCOS-III\Source/os_core.c **** #if OS_CFG_SCHED_LOCK_TIME_MEAS_EN > 0u
 544:..\..\..\..\..\..\Software\uCOS-III\Source/os_core.c ****     OS_SchedLockTimeMeasStop();
 545:..\..\..\..\..\..\Software\uCOS-III\Source/os_core.c **** #endif
 546:..\..\..\..\..\..\Software\uCOS-III\Source/os_core.c **** 
 547:..\..\..\..\..\..\Software\uCOS-III\Source/os_core.c ****     CPU_CRITICAL_EXIT();                                    /* Scheduler should be re-enabled      
 721              		.loc 1 547 0
 722 0070 FFF7FEFF 		bl	CPU_IntDisMeasStop
 723 0074 FB68     		ldr	r3, [r7, #12]
 724 0076 1800     		movs	r0, r3
 725 0078 FFF7FEFF 		bl	CPU_SR_Restore
 548:..\..\..\..\..\..\Software\uCOS-III\Source/os_core.c ****     OSSched();                                              /* Run the scheduler                   
 726              		.loc 1 548 0
 727 007c FFF7FEFF 		bl	OSSched
 549:..\..\..\..\..\..\Software\uCOS-III\Source/os_core.c ****    *p_err = OS_ERR_NONE;
 728              		.loc 1 549 0
 729 0080 7B68     		ldr	r3, [r7, #4]
 730 0082 0022     		movs	r2, #0
 731 0084 1A80     		strh	r2, [r3]
 732              	.L54:
 550:..\..\..\..\..\..\Software\uCOS-III\Source/os_core.c **** }
 733              		.loc 1 550 0
 734 0086 BD46     		mov	sp, r7
 735 0088 04B0     		add	sp, sp, #16
 736              		@ sp needed
 737 008a 80BD     		pop	{r7, pc}
 738              	.L61:
 739              		.align	2
 740              	.L60:
 741 008c 00000000 		.word	OSIntNestingCtr
 742 0090 656D0000 		.word	28005
 743 0094 00000000 		.word	OSRunning
 744 0098 895E0000 		.word	24201
 745 009c 00000000 		.word	OSSchedLockNestingCtr
 746 00a0 646D0000 		.word	28004
 747 00a4 636D0000 		.word	28003
 748              		.cfi_endproc
 749              	.LFE6:
ARM GAS  C:\Users\EDULU~1.DES\AppData\Local\Temp\ccYz4yx3.s 			page 24


 750              		.size	OSSchedUnlock, .-OSSchedUnlock
 751              		.section	.text.OSStart,"ax",%progbits
 752              		.align	2
 753              		.global	OSStart
 754              		.code	16
 755              		.thumb_func
 756              		.type	OSStart, %function
 757              	OSStart:
 758              	.LFB7:
 551:..\..\..\..\..\..\Software\uCOS-III\Source/os_core.c **** 
 552:..\..\..\..\..\..\Software\uCOS-III\Source/os_core.c **** /*$PAGE*/
 553:..\..\..\..\..\..\Software\uCOS-III\Source/os_core.c **** /*
 554:..\..\..\..\..\..\Software\uCOS-III\Source/os_core.c **** ***************************************************************************************************
 555:..\..\..\..\..\..\Software\uCOS-III\Source/os_core.c **** *                                      CONFIGURE ROUND-ROBIN SCHEDULING PARAMETERS
 556:..\..\..\..\..\..\Software\uCOS-III\Source/os_core.c **** *
 557:..\..\..\..\..\..\Software\uCOS-III\Source/os_core.c **** * Description: This function is called to change the round-robin scheduling parameters.
 558:..\..\..\..\..\..\Software\uCOS-III\Source/os_core.c **** *
 559:..\..\..\..\..\..\Software\uCOS-III\Source/os_core.c **** * Arguments  : en                determines whether round-robin will be enabled (when DEF_EN) or no
 560:..\..\..\..\..\..\Software\uCOS-III\Source/os_core.c **** *
 561:..\..\..\..\..\..\Software\uCOS-III\Source/os_core.c **** *              dflt_time_quanta  default number of ticks between time slices.  0 means assumes OSCf
 562:..\..\..\..\..\..\Software\uCOS-III\Source/os_core.c **** *
 563:..\..\..\..\..\..\Software\uCOS-III\Source/os_core.c **** *              p_err             is a pointer to a variable that will contain an error code returne
 564:..\..\..\..\..\..\Software\uCOS-III\Source/os_core.c **** *
 565:..\..\..\..\..\..\Software\uCOS-III\Source/os_core.c **** *                                    OS_ERR_NONE    The call was successful
 566:..\..\..\..\..\..\Software\uCOS-III\Source/os_core.c **** *
 567:..\..\..\..\..\..\Software\uCOS-III\Source/os_core.c **** * Returns    : none
 568:..\..\..\..\..\..\Software\uCOS-III\Source/os_core.c **** ***************************************************************************************************
 569:..\..\..\..\..\..\Software\uCOS-III\Source/os_core.c **** */
 570:..\..\..\..\..\..\Software\uCOS-III\Source/os_core.c **** 
 571:..\..\..\..\..\..\Software\uCOS-III\Source/os_core.c **** #if OS_CFG_SCHED_ROUND_ROBIN_EN > 0u
 572:..\..\..\..\..\..\Software\uCOS-III\Source/os_core.c **** void  OSSchedRoundRobinCfg (CPU_BOOLEAN   en,
 573:..\..\..\..\..\..\Software\uCOS-III\Source/os_core.c ****                             OS_TICK       dflt_time_quanta,
 574:..\..\..\..\..\..\Software\uCOS-III\Source/os_core.c ****                             OS_ERR       *p_err)
 575:..\..\..\..\..\..\Software\uCOS-III\Source/os_core.c **** {
 576:..\..\..\..\..\..\Software\uCOS-III\Source/os_core.c ****     CPU_SR_ALLOC();
 577:..\..\..\..\..\..\Software\uCOS-III\Source/os_core.c **** 
 578:..\..\..\..\..\..\Software\uCOS-III\Source/os_core.c **** 
 579:..\..\..\..\..\..\Software\uCOS-III\Source/os_core.c **** 
 580:..\..\..\..\..\..\Software\uCOS-III\Source/os_core.c **** #ifdef OS_SAFETY_CRITICAL
 581:..\..\..\..\..\..\Software\uCOS-III\Source/os_core.c ****     if (p_err == (OS_ERR *)0) {
 582:..\..\..\..\..\..\Software\uCOS-III\Source/os_core.c ****         OS_SAFETY_CRITICAL_EXCEPTION();
 583:..\..\..\..\..\..\Software\uCOS-III\Source/os_core.c ****         return;
 584:..\..\..\..\..\..\Software\uCOS-III\Source/os_core.c ****     }
 585:..\..\..\..\..\..\Software\uCOS-III\Source/os_core.c **** #endif
 586:..\..\..\..\..\..\Software\uCOS-III\Source/os_core.c **** 
 587:..\..\..\..\..\..\Software\uCOS-III\Source/os_core.c ****     CPU_CRITICAL_ENTER();
 588:..\..\..\..\..\..\Software\uCOS-III\Source/os_core.c ****     if (en != DEF_ENABLED) {
 589:..\..\..\..\..\..\Software\uCOS-III\Source/os_core.c ****         OSSchedRoundRobinEn = DEF_DISABLED;
 590:..\..\..\..\..\..\Software\uCOS-III\Source/os_core.c ****     } else {
 591:..\..\..\..\..\..\Software\uCOS-III\Source/os_core.c ****         OSSchedRoundRobinEn = DEF_ENABLED;
 592:..\..\..\..\..\..\Software\uCOS-III\Source/os_core.c ****     }
 593:..\..\..\..\..\..\Software\uCOS-III\Source/os_core.c **** 
 594:..\..\..\..\..\..\Software\uCOS-III\Source/os_core.c ****     if (dflt_time_quanta > (OS_TICK)0) {
 595:..\..\..\..\..\..\Software\uCOS-III\Source/os_core.c ****         OSSchedRoundRobinDfltTimeQuanta = dflt_time_quanta;
 596:..\..\..\..\..\..\Software\uCOS-III\Source/os_core.c ****     } else {
 597:..\..\..\..\..\..\Software\uCOS-III\Source/os_core.c ****         OSSchedRoundRobinDfltTimeQuanta = (OS_TICK)(OSCfg_TickRate_Hz / (OS_RATE_HZ)10);
 598:..\..\..\..\..\..\Software\uCOS-III\Source/os_core.c ****     }
ARM GAS  C:\Users\EDULU~1.DES\AppData\Local\Temp\ccYz4yx3.s 			page 25


 599:..\..\..\..\..\..\Software\uCOS-III\Source/os_core.c ****     CPU_CRITICAL_EXIT();
 600:..\..\..\..\..\..\Software\uCOS-III\Source/os_core.c ****    *p_err = OS_ERR_NONE;
 601:..\..\..\..\..\..\Software\uCOS-III\Source/os_core.c **** }
 602:..\..\..\..\..\..\Software\uCOS-III\Source/os_core.c **** #endif
 603:..\..\..\..\..\..\Software\uCOS-III\Source/os_core.c **** 
 604:..\..\..\..\..\..\Software\uCOS-III\Source/os_core.c **** /*$PAGE*/
 605:..\..\..\..\..\..\Software\uCOS-III\Source/os_core.c **** /*
 606:..\..\..\..\..\..\Software\uCOS-III\Source/os_core.c **** ***************************************************************************************************
 607:..\..\..\..\..\..\Software\uCOS-III\Source/os_core.c **** *                                    YIELD CPU WHEN TASK NO LONGER NEEDS THE TIME SLICE
 608:..\..\..\..\..\..\Software\uCOS-III\Source/os_core.c **** *
 609:..\..\..\..\..\..\Software\uCOS-III\Source/os_core.c **** * Description: This function is called to give up the CPU when it is done executing before its time
 610:..\..\..\..\..\..\Software\uCOS-III\Source/os_core.c **** *
 611:..\..\..\..\..\..\Software\uCOS-III\Source/os_core.c **** * Argument(s): p_err      is a pointer to a variable that will contain an error code returned by th
 612:..\..\..\..\..\..\Software\uCOS-III\Source/os_core.c **** *
 613:..\..\..\..\..\..\Software\uCOS-III\Source/os_core.c **** *                             OS_ERR_NONE                   The call was successful
 614:..\..\..\..\..\..\Software\uCOS-III\Source/os_core.c **** *                             OS_ERR_ROUND_ROBIN_1          Only 1 task at this priority, nothing t
 615:..\..\..\..\..\..\Software\uCOS-III\Source/os_core.c **** *                             OS_ERR_ROUND_ROBIN_DISABLED   Round Robin is not enabled
 616:..\..\..\..\..\..\Software\uCOS-III\Source/os_core.c **** *                             OS_ERR_SCHED_LOCKED           The scheduler has been locked
 617:..\..\..\..\..\..\Software\uCOS-III\Source/os_core.c **** *                             OS_ERR_YIELD_ISR              Can't be called from an ISR
 618:..\..\..\..\..\..\Software\uCOS-III\Source/os_core.c **** *
 619:..\..\..\..\..\..\Software\uCOS-III\Source/os_core.c **** * Returns    : none
 620:..\..\..\..\..\..\Software\uCOS-III\Source/os_core.c **** *
 621:..\..\..\..\..\..\Software\uCOS-III\Source/os_core.c **** * Note(s)    : 1) This function MUST be called from a task.
 622:..\..\..\..\..\..\Software\uCOS-III\Source/os_core.c **** ***************************************************************************************************
 623:..\..\..\..\..\..\Software\uCOS-III\Source/os_core.c **** */
 624:..\..\..\..\..\..\Software\uCOS-III\Source/os_core.c **** 
 625:..\..\..\..\..\..\Software\uCOS-III\Source/os_core.c **** #if OS_CFG_SCHED_ROUND_ROBIN_EN > 0u
 626:..\..\..\..\..\..\Software\uCOS-III\Source/os_core.c **** void  OSSchedRoundRobinYield (OS_ERR  *p_err)
 627:..\..\..\..\..\..\Software\uCOS-III\Source/os_core.c **** {
 628:..\..\..\..\..\..\Software\uCOS-III\Source/os_core.c ****     OS_RDY_LIST  *p_rdy_list;
 629:..\..\..\..\..\..\Software\uCOS-III\Source/os_core.c ****     OS_TCB       *p_tcb;
 630:..\..\..\..\..\..\Software\uCOS-III\Source/os_core.c ****     CPU_SR_ALLOC();
 631:..\..\..\..\..\..\Software\uCOS-III\Source/os_core.c **** 
 632:..\..\..\..\..\..\Software\uCOS-III\Source/os_core.c **** 
 633:..\..\..\..\..\..\Software\uCOS-III\Source/os_core.c **** 
 634:..\..\..\..\..\..\Software\uCOS-III\Source/os_core.c **** #ifdef OS_SAFETY_CRITICAL
 635:..\..\..\..\..\..\Software\uCOS-III\Source/os_core.c ****     if (p_err == (OS_ERR *)0) {
 636:..\..\..\..\..\..\Software\uCOS-III\Source/os_core.c ****         OS_SAFETY_CRITICAL_EXCEPTION();
 637:..\..\..\..\..\..\Software\uCOS-III\Source/os_core.c ****         return;
 638:..\..\..\..\..\..\Software\uCOS-III\Source/os_core.c ****     }
 639:..\..\..\..\..\..\Software\uCOS-III\Source/os_core.c **** #endif
 640:..\..\..\..\..\..\Software\uCOS-III\Source/os_core.c **** 
 641:..\..\..\..\..\..\Software\uCOS-III\Source/os_core.c **** #if OS_CFG_CALLED_FROM_ISR_CHK_EN > 0u
 642:..\..\..\..\..\..\Software\uCOS-III\Source/os_core.c ****     if (OSIntNestingCtr > (OS_NESTING_CTR)0) {              /* Can't call this function from an ISR
 643:..\..\..\..\..\..\Software\uCOS-III\Source/os_core.c ****        *p_err = OS_ERR_YIELD_ISR;
 644:..\..\..\..\..\..\Software\uCOS-III\Source/os_core.c ****         return;
 645:..\..\..\..\..\..\Software\uCOS-III\Source/os_core.c ****     }
 646:..\..\..\..\..\..\Software\uCOS-III\Source/os_core.c **** #endif
 647:..\..\..\..\..\..\Software\uCOS-III\Source/os_core.c **** 
 648:..\..\..\..\..\..\Software\uCOS-III\Source/os_core.c ****     if (OSSchedLockNestingCtr > (OS_NESTING_CTR)0) {        /* Can't yield if the scheduler is lock
 649:..\..\..\..\..\..\Software\uCOS-III\Source/os_core.c ****        *p_err = OS_ERR_SCHED_LOCKED;
 650:..\..\..\..\..\..\Software\uCOS-III\Source/os_core.c ****         return;
 651:..\..\..\..\..\..\Software\uCOS-III\Source/os_core.c ****     }
 652:..\..\..\..\..\..\Software\uCOS-III\Source/os_core.c **** 
 653:..\..\..\..\..\..\Software\uCOS-III\Source/os_core.c ****     if (OSSchedRoundRobinEn != DEF_TRUE) {                  /* Make sure round-robin has been enabl
 654:..\..\..\..\..\..\Software\uCOS-III\Source/os_core.c ****        *p_err = OS_ERR_ROUND_ROBIN_DISABLED;
 655:..\..\..\..\..\..\Software\uCOS-III\Source/os_core.c ****         return;
ARM GAS  C:\Users\EDULU~1.DES\AppData\Local\Temp\ccYz4yx3.s 			page 26


 656:..\..\..\..\..\..\Software\uCOS-III\Source/os_core.c ****     }
 657:..\..\..\..\..\..\Software\uCOS-III\Source/os_core.c **** 
 658:..\..\..\..\..\..\Software\uCOS-III\Source/os_core.c ****     CPU_CRITICAL_ENTER();
 659:..\..\..\..\..\..\Software\uCOS-III\Source/os_core.c ****     p_rdy_list = &OSRdyList[OSPrioCur];                     /* Can't yield if it's the only task at
 660:..\..\..\..\..\..\Software\uCOS-III\Source/os_core.c ****     if (p_rdy_list->NbrEntries < (OS_OBJ_QTY)2) {
 661:..\..\..\..\..\..\Software\uCOS-III\Source/os_core.c ****         CPU_CRITICAL_EXIT();
 662:..\..\..\..\..\..\Software\uCOS-III\Source/os_core.c ****        *p_err = OS_ERR_ROUND_ROBIN_1;
 663:..\..\..\..\..\..\Software\uCOS-III\Source/os_core.c ****         return;
 664:..\..\..\..\..\..\Software\uCOS-III\Source/os_core.c ****     }
 665:..\..\..\..\..\..\Software\uCOS-III\Source/os_core.c **** 
 666:..\..\..\..\..\..\Software\uCOS-III\Source/os_core.c ****     OS_RdyListMoveHeadToTail(p_rdy_list);                   /* Move current OS_TCB to the end of th
 667:..\..\..\..\..\..\Software\uCOS-III\Source/os_core.c ****     p_tcb = p_rdy_list->HeadPtr;                            /* Point to new OS_TCB at head of the l
 668:..\..\..\..\..\..\Software\uCOS-III\Source/os_core.c ****     if (p_tcb->TimeQuanta == (OS_TICK)0) {                  /* See if we need to use the default ti
 669:..\..\..\..\..\..\Software\uCOS-III\Source/os_core.c ****         p_tcb->TimeQuantaCtr = OSSchedRoundRobinDfltTimeQuanta;
 670:..\..\..\..\..\..\Software\uCOS-III\Source/os_core.c ****     } else {
 671:..\..\..\..\..\..\Software\uCOS-III\Source/os_core.c ****         p_tcb->TimeQuantaCtr = p_tcb->TimeQuanta;           /* Load time slice counter with new tim
 672:..\..\..\..\..\..\Software\uCOS-III\Source/os_core.c ****     }
 673:..\..\..\..\..\..\Software\uCOS-III\Source/os_core.c **** 
 674:..\..\..\..\..\..\Software\uCOS-III\Source/os_core.c ****     CPU_CRITICAL_EXIT();
 675:..\..\..\..\..\..\Software\uCOS-III\Source/os_core.c **** 
 676:..\..\..\..\..\..\Software\uCOS-III\Source/os_core.c ****     OSSched();                                              /* Run new task                        
 677:..\..\..\..\..\..\Software\uCOS-III\Source/os_core.c ****    *p_err = OS_ERR_NONE;
 678:..\..\..\..\..\..\Software\uCOS-III\Source/os_core.c **** }
 679:..\..\..\..\..\..\Software\uCOS-III\Source/os_core.c **** #endif
 680:..\..\..\..\..\..\Software\uCOS-III\Source/os_core.c **** 
 681:..\..\..\..\..\..\Software\uCOS-III\Source/os_core.c **** /*$PAGE*/
 682:..\..\..\..\..\..\Software\uCOS-III\Source/os_core.c **** /*
 683:..\..\..\..\..\..\Software\uCOS-III\Source/os_core.c **** ***************************************************************************************************
 684:..\..\..\..\..\..\Software\uCOS-III\Source/os_core.c **** *                                                 START MULTITASKING
 685:..\..\..\..\..\..\Software\uCOS-III\Source/os_core.c **** *
 686:..\..\..\..\..\..\Software\uCOS-III\Source/os_core.c **** * Description: This function is used to start the multitasking process which lets uC/OS-III manages
 687:..\..\..\..\..\..\Software\uCOS-III\Source/os_core.c **** *              created.  Before you can call OSStart(), you MUST have called OSInit() and you MUST 
 688:..\..\..\..\..\..\Software\uCOS-III\Source/os_core.c **** *              one application task.
 689:..\..\..\..\..\..\Software\uCOS-III\Source/os_core.c **** *
 690:..\..\..\..\..\..\Software\uCOS-III\Source/os_core.c **** * Argument(s): p_err      is a pointer to a variable that will contain an error code returned by th
 691:..\..\..\..\..\..\Software\uCOS-III\Source/os_core.c **** *
 692:..\..\..\..\..\..\Software\uCOS-III\Source/os_core.c **** *                             OS_ERR_FATAL_RETURN    OS was running and OSStart() returned.
 693:..\..\..\..\..\..\Software\uCOS-III\Source/os_core.c **** *                             OS_ERR_OS_RUNNING      OS is already running, OSStart() has no effect
 694:..\..\..\..\..\..\Software\uCOS-III\Source/os_core.c **** *
 695:..\..\..\..\..\..\Software\uCOS-III\Source/os_core.c **** * Returns    : none
 696:..\..\..\..\..\..\Software\uCOS-III\Source/os_core.c **** *
 697:..\..\..\..\..\..\Software\uCOS-III\Source/os_core.c **** * Note(s)    : 1) OSStartHighRdy() MUST:
 698:..\..\..\..\..\..\Software\uCOS-III\Source/os_core.c **** *                 a) Call OSTaskSwHook() then,
 699:..\..\..\..\..\..\Software\uCOS-III\Source/os_core.c **** *                 b) Load the context of the task pointed to by OSTCBHighRdyPtr.
 700:..\..\..\..\..\..\Software\uCOS-III\Source/os_core.c **** *                 c) Execute the task.
 701:..\..\..\..\..\..\Software\uCOS-III\Source/os_core.c **** *
 702:..\..\..\..\..\..\Software\uCOS-III\Source/os_core.c **** *              2) OSStart() is not supposed to return.  If it does, that would be considered a fata
 703:..\..\..\..\..\..\Software\uCOS-III\Source/os_core.c **** ***************************************************************************************************
 704:..\..\..\..\..\..\Software\uCOS-III\Source/os_core.c **** */
 705:..\..\..\..\..\..\Software\uCOS-III\Source/os_core.c **** 
 706:..\..\..\..\..\..\Software\uCOS-III\Source/os_core.c **** void  OSStart (OS_ERR  *p_err)
 707:..\..\..\..\..\..\Software\uCOS-III\Source/os_core.c **** {
 759              		.loc 1 707 0
 760              		.cfi_startproc
 761              		@ args = 0, pretend = 0, frame = 8
 762              		@ frame_needed = 1, uses_anonymous_args = 0
 763 0000 80B5     		push	{r7, lr}
ARM GAS  C:\Users\EDULU~1.DES\AppData\Local\Temp\ccYz4yx3.s 			page 27


 764              		.cfi_def_cfa_offset 8
 765              		.cfi_offset 7, -8
 766              		.cfi_offset 14, -4
 767 0002 82B0     		sub	sp, sp, #8
 768              		.cfi_def_cfa_offset 16
 769 0004 00AF     		add	r7, sp, #0
 770              		.cfi_def_cfa_register 7
 771 0006 7860     		str	r0, [r7, #4]
 708:..\..\..\..\..\..\Software\uCOS-III\Source/os_core.c **** #ifdef OS_SAFETY_CRITICAL
 709:..\..\..\..\..\..\Software\uCOS-III\Source/os_core.c ****     if (p_err == (OS_ERR *)0) {
 710:..\..\..\..\..\..\Software\uCOS-III\Source/os_core.c ****         OS_SAFETY_CRITICAL_EXCEPTION();
 711:..\..\..\..\..\..\Software\uCOS-III\Source/os_core.c ****         return;
 712:..\..\..\..\..\..\Software\uCOS-III\Source/os_core.c ****     }
 713:..\..\..\..\..\..\Software\uCOS-III\Source/os_core.c **** #endif
 714:..\..\..\..\..\..\Software\uCOS-III\Source/os_core.c **** 
 715:..\..\..\..\..\..\Software\uCOS-III\Source/os_core.c ****     if (OSRunning == OS_STATE_OS_STOPPED) {
 772              		.loc 1 715 0
 773 0008 164B     		ldr	r3, .L66
 774 000a 1B78     		ldrb	r3, [r3]
 775 000c 002B     		cmp	r3, #0
 776 000e 21D1     		bne	.L63
 716:..\..\..\..\..\..\Software\uCOS-III\Source/os_core.c ****         OSPrioHighRdy   = OS_PrioGetHighest();              /* Find the highest priority           
 777              		.loc 1 716 0
 778 0010 FFF7FEFF 		bl	OS_PrioGetHighest
 779 0014 0300     		movs	r3, r0
 780 0016 1A00     		movs	r2, r3
 781 0018 134B     		ldr	r3, .L66+4
 782 001a 1A70     		strb	r2, [r3]
 717:..\..\..\..\..\..\Software\uCOS-III\Source/os_core.c ****         OSPrioCur       = OSPrioHighRdy;
 783              		.loc 1 717 0
 784 001c 124B     		ldr	r3, .L66+4
 785 001e 1A78     		ldrb	r2, [r3]
 786 0020 124B     		ldr	r3, .L66+8
 787 0022 1A70     		strb	r2, [r3]
 718:..\..\..\..\..\..\Software\uCOS-III\Source/os_core.c ****         OSTCBHighRdyPtr = OSRdyList[OSPrioHighRdy].HeadPtr;
 788              		.loc 1 718 0
 789 0024 104B     		ldr	r3, .L66+4
 790 0026 1B78     		ldrb	r3, [r3]
 791 0028 1900     		movs	r1, r3
 792 002a 114A     		ldr	r2, .L66+12
 793 002c 0B00     		movs	r3, r1
 794 002e 5B00     		lsls	r3, r3, #1
 795 0030 5B18     		adds	r3, r3, r1
 796 0032 9B00     		lsls	r3, r3, #2
 797 0034 9A58     		ldr	r2, [r3, r2]
 798 0036 0F4B     		ldr	r3, .L66+16
 799 0038 1A60     		str	r2, [r3]
 719:..\..\..\..\..\..\Software\uCOS-III\Source/os_core.c ****         OSTCBCurPtr     = OSTCBHighRdyPtr;
 800              		.loc 1 719 0
 801 003a 0E4B     		ldr	r3, .L66+16
 802 003c 1A68     		ldr	r2, [r3]
 803 003e 0E4B     		ldr	r3, .L66+20
 804 0040 1A60     		str	r2, [r3]
 720:..\..\..\..\..\..\Software\uCOS-III\Source/os_core.c ****         OSRunning       = OS_STATE_OS_RUNNING;
 805              		.loc 1 720 0
 806 0042 084B     		ldr	r3, .L66
 807 0044 0122     		movs	r2, #1
ARM GAS  C:\Users\EDULU~1.DES\AppData\Local\Temp\ccYz4yx3.s 			page 28


 808 0046 1A70     		strb	r2, [r3]
 721:..\..\..\..\..\..\Software\uCOS-III\Source/os_core.c ****         OSStartHighRdy();                                   /* Execute target specific code to star
 809              		.loc 1 721 0
 810 0048 FFF7FEFF 		bl	OSStartHighRdy
 722:..\..\..\..\..\..\Software\uCOS-III\Source/os_core.c ****        *p_err           = OS_ERR_FATAL_RETURN;              /* OSStart() is not supposed to return 
 811              		.loc 1 722 0
 812 004c 7B68     		ldr	r3, [r7, #4]
 813 004e 0B4A     		ldr	r2, .L66+24
 814 0050 1A80     		strh	r2, [r3]
 723:..\..\..\..\..\..\Software\uCOS-III\Source/os_core.c ****     } else {
 724:..\..\..\..\..\..\Software\uCOS-III\Source/os_core.c ****        *p_err           = OS_ERR_OS_RUNNING;                /* OS is already running               
 725:..\..\..\..\..\..\Software\uCOS-III\Source/os_core.c ****     }
 726:..\..\..\..\..\..\Software\uCOS-III\Source/os_core.c **** }
 815              		.loc 1 726 0
 816 0052 02E0     		b	.L65
 817              	.L63:
 724:..\..\..\..\..\..\Software\uCOS-III\Source/os_core.c ****     }
 818              		.loc 1 724 0
 819 0054 7B68     		ldr	r3, [r7, #4]
 820 0056 0A4A     		ldr	r2, .L66+28
 821 0058 1A80     		strh	r2, [r3]
 822              	.L65:
 823              		.loc 1 726 0
 824 005a C046     		nop
 825 005c BD46     		mov	sp, r7
 826 005e 02B0     		add	sp, sp, #8
 827              		@ sp needed
 828 0060 80BD     		pop	{r7, pc}
 829              	.L67:
 830 0062 C046     		.align	2
 831              	.L66:
 832 0064 00000000 		.word	OSRunning
 833 0068 00000000 		.word	OSPrioHighRdy
 834 006c 00000000 		.word	OSPrioCur
 835 0070 00000000 		.word	OSRdyList
 836 0074 00000000 		.word	OSTCBHighRdyPtr
 837 0078 00000000 		.word	OSTCBCurPtr
 838 007c 993A0000 		.word	15001
 839 0080 8A5E0000 		.word	24202
 840              		.cfi_endproc
 841              	.LFE7:
 842              		.size	OSStart, .-OSStart
 843              		.section	.text.OSVersion,"ax",%progbits
 844              		.align	2
 845              		.global	OSVersion
 846              		.code	16
 847              		.thumb_func
 848              		.type	OSVersion, %function
 849              	OSVersion:
 850              	.LFB8:
 727:..\..\..\..\..\..\Software\uCOS-III\Source/os_core.c **** 
 728:..\..\..\..\..\..\Software\uCOS-III\Source/os_core.c **** /*$PAGE*/
 729:..\..\..\..\..\..\Software\uCOS-III\Source/os_core.c **** /*
 730:..\..\..\..\..\..\Software\uCOS-III\Source/os_core.c **** ***************************************************************************************************
 731:..\..\..\..\..\..\Software\uCOS-III\Source/os_core.c **** *                                                    GET VERSION
 732:..\..\..\..\..\..\Software\uCOS-III\Source/os_core.c **** *
 733:..\..\..\..\..\..\Software\uCOS-III\Source/os_core.c **** * Description: This function is used to return the version number of uC/OS-III.  The returned value
ARM GAS  C:\Users\EDULU~1.DES\AppData\Local\Temp\ccYz4yx3.s 			page 29


 734:..\..\..\..\..\..\Software\uCOS-III\Source/os_core.c **** *              uC/OS-III's version number multiplied by 10000.  In other words, version 3.01.02 wou
 735:..\..\..\..\..\..\Software\uCOS-III\Source/os_core.c **** *
 736:..\..\..\..\..\..\Software\uCOS-III\Source/os_core.c **** * Arguments  : p_err   is a pointer to a variable that will receive an error code.  However, OSVers
 737:..\..\..\..\..\..\Software\uCOS-III\Source/os_core.c **** *                      variable to
 738:..\..\..\..\..\..\Software\uCOS-III\Source/os_core.c **** *
 739:..\..\..\..\..\..\Software\uCOS-III\Source/os_core.c **** *                         OS_ERR_NONE
 740:..\..\..\..\..\..\Software\uCOS-III\Source/os_core.c **** *
 741:..\..\..\..\..\..\Software\uCOS-III\Source/os_core.c **** * Returns    : The version number of uC/OS-III multiplied by 10000.
 742:..\..\..\..\..\..\Software\uCOS-III\Source/os_core.c **** ***************************************************************************************************
 743:..\..\..\..\..\..\Software\uCOS-III\Source/os_core.c **** */
 744:..\..\..\..\..\..\Software\uCOS-III\Source/os_core.c **** 
 745:..\..\..\..\..\..\Software\uCOS-III\Source/os_core.c **** CPU_INT16U  OSVersion (OS_ERR  *p_err)
 746:..\..\..\..\..\..\Software\uCOS-III\Source/os_core.c **** {
 851              		.loc 1 746 0
 852              		.cfi_startproc
 853              		@ args = 0, pretend = 0, frame = 8
 854              		@ frame_needed = 1, uses_anonymous_args = 0
 855 0000 80B5     		push	{r7, lr}
 856              		.cfi_def_cfa_offset 8
 857              		.cfi_offset 7, -8
 858              		.cfi_offset 14, -4
 859 0002 82B0     		sub	sp, sp, #8
 860              		.cfi_def_cfa_offset 16
 861 0004 00AF     		add	r7, sp, #0
 862              		.cfi_def_cfa_register 7
 863 0006 7860     		str	r0, [r7, #4]
 747:..\..\..\..\..\..\Software\uCOS-III\Source/os_core.c **** #ifdef OS_SAFETY_CRITICAL
 748:..\..\..\..\..\..\Software\uCOS-III\Source/os_core.c ****     if (p_err == (OS_ERR *)0) {
 749:..\..\..\..\..\..\Software\uCOS-III\Source/os_core.c ****         OS_SAFETY_CRITICAL_EXCEPTION();
 750:..\..\..\..\..\..\Software\uCOS-III\Source/os_core.c ****         return ((CPU_INT16U)0u);
 751:..\..\..\..\..\..\Software\uCOS-III\Source/os_core.c ****     }
 752:..\..\..\..\..\..\Software\uCOS-III\Source/os_core.c **** #endif
 753:..\..\..\..\..\..\Software\uCOS-III\Source/os_core.c **** 
 754:..\..\..\..\..\..\Software\uCOS-III\Source/os_core.c ****    *p_err = OS_ERR_NONE;
 864              		.loc 1 754 0
 865 0008 7B68     		ldr	r3, [r7, #4]
 866 000a 0022     		movs	r2, #0
 867 000c 1A80     		strh	r2, [r3]
 755:..\..\..\..\..\..\Software\uCOS-III\Source/os_core.c ****     return (OS_VERSION);
 868              		.loc 1 755 0
 869 000e 024B     		ldr	r3, .L70
 756:..\..\..\..\..\..\Software\uCOS-III\Source/os_core.c **** }
 870              		.loc 1 756 0
 871 0010 1800     		movs	r0, r3
 872 0012 BD46     		mov	sp, r7
 873 0014 02B0     		add	sp, sp, #8
 874              		@ sp needed
 875 0016 80BD     		pop	{r7, pc}
 876              	.L71:
 877              		.align	2
 878              	.L70:
 879 0018 5D760000 		.word	30301
 880              		.cfi_endproc
 881              	.LFE8:
 882              		.size	OSVersion, .-OSVersion
 883              		.section	.text.OS_IdleTask,"ax",%progbits
 884              		.align	2
ARM GAS  C:\Users\EDULU~1.DES\AppData\Local\Temp\ccYz4yx3.s 			page 30


 885              		.global	OS_IdleTask
 886              		.code	16
 887              		.thumb_func
 888              		.type	OS_IdleTask, %function
 889              	OS_IdleTask:
 890              	.LFB9:
 757:..\..\..\..\..\..\Software\uCOS-III\Source/os_core.c **** 
 758:..\..\..\..\..\..\Software\uCOS-III\Source/os_core.c **** /*$PAGE*/
 759:..\..\..\..\..\..\Software\uCOS-III\Source/os_core.c **** /*
 760:..\..\..\..\..\..\Software\uCOS-III\Source/os_core.c **** ***************************************************************************************************
 761:..\..\..\..\..\..\Software\uCOS-III\Source/os_core.c **** *                                                      IDLE TASK
 762:..\..\..\..\..\..\Software\uCOS-III\Source/os_core.c **** *
 763:..\..\..\..\..\..\Software\uCOS-III\Source/os_core.c **** * Description: This task is internal to uC/OS-III and executes whenever no other higher priority ta
 764:..\..\..\..\..\..\Software\uCOS-III\Source/os_core.c **** *              they are ALL waiting for event(s) to occur.
 765:..\..\..\..\..\..\Software\uCOS-III\Source/os_core.c **** *
 766:..\..\..\..\..\..\Software\uCOS-III\Source/os_core.c **** * Arguments  : p_arg    is an argument passed to the task when the task is created.
 767:..\..\..\..\..\..\Software\uCOS-III\Source/os_core.c **** *
 768:..\..\..\..\..\..\Software\uCOS-III\Source/os_core.c **** * Returns    : none
 769:..\..\..\..\..\..\Software\uCOS-III\Source/os_core.c **** *
 770:..\..\..\..\..\..\Software\uCOS-III\Source/os_core.c **** * Note(s)    : 1) This function is INTERNAL to uC/OS-III and your application MUST NOT call it.
 771:..\..\..\..\..\..\Software\uCOS-III\Source/os_core.c **** *
 772:..\..\..\..\..\..\Software\uCOS-III\Source/os_core.c **** *              2) OSIdleTaskHook() is called after the critical section to ensure that interrupts w
 773:..\..\..\..\..\..\Software\uCOS-III\Source/os_core.c **** *                 least a few instructions.  On some processors (ex. Philips XA), enabling and then
 774:..\..\..\..\..\..\Software\uCOS-III\Source/os_core.c **** *                 doesn't allow the processor enough time to have interrupts enabled before they we
 775:..\..\..\..\..\..\Software\uCOS-III\Source/os_core.c **** *                 uC/OS-III would thus never recognize interrupts.
 776:..\..\..\..\..\..\Software\uCOS-III\Source/os_core.c **** *
 777:..\..\..\..\..\..\Software\uCOS-III\Source/os_core.c **** *              3) This hook has been added to allow you to do such things as STOP the CPU to conser
 778:..\..\..\..\..\..\Software\uCOS-III\Source/os_core.c **** ***************************************************************************************************
 779:..\..\..\..\..\..\Software\uCOS-III\Source/os_core.c **** */
 780:..\..\..\..\..\..\Software\uCOS-III\Source/os_core.c **** 
 781:..\..\..\..\..\..\Software\uCOS-III\Source/os_core.c **** void  OS_IdleTask (void  *p_arg)
 782:..\..\..\..\..\..\Software\uCOS-III\Source/os_core.c **** {
 891              		.loc 1 782 0
 892              		.cfi_startproc
 893              		@ args = 0, pretend = 0, frame = 16
 894              		@ frame_needed = 1, uses_anonymous_args = 0
 895 0000 80B5     		push	{r7, lr}
 896              		.cfi_def_cfa_offset 8
 897              		.cfi_offset 7, -8
 898              		.cfi_offset 14, -4
 899 0002 84B0     		sub	sp, sp, #16
 900              		.cfi_def_cfa_offset 24
 901 0004 00AF     		add	r7, sp, #0
 902              		.cfi_def_cfa_register 7
 903 0006 7860     		str	r0, [r7, #4]
 783:..\..\..\..\..\..\Software\uCOS-III\Source/os_core.c ****     CPU_SR_ALLOC();
 904              		.loc 1 783 0
 905 0008 0023     		movs	r3, #0
 906 000a FB60     		str	r3, [r7, #12]
 907              	.L73:
 784:..\..\..\..\..\..\Software\uCOS-III\Source/os_core.c **** 
 785:..\..\..\..\..\..\Software\uCOS-III\Source/os_core.c **** 
 786:..\..\..\..\..\..\Software\uCOS-III\Source/os_core.c **** 
 787:..\..\..\..\..\..\Software\uCOS-III\Source/os_core.c ****     p_arg = p_arg;                                          /* Prevent compiler warning for not usi
 788:..\..\..\..\..\..\Software\uCOS-III\Source/os_core.c **** 
 789:..\..\..\..\..\..\Software\uCOS-III\Source/os_core.c ****     while (DEF_ON) {
 790:..\..\..\..\..\..\Software\uCOS-III\Source/os_core.c ****         CPU_CRITICAL_ENTER();
ARM GAS  C:\Users\EDULU~1.DES\AppData\Local\Temp\ccYz4yx3.s 			page 31


 908              		.loc 1 790 0 discriminator 1
 909 000c FFF7FEFF 		bl	CPU_SR_Save
 910 0010 0300     		movs	r3, r0
 911 0012 FB60     		str	r3, [r7, #12]
 912 0014 FFF7FEFF 		bl	CPU_IntDisMeasStart
 791:..\..\..\..\..\..\Software\uCOS-III\Source/os_core.c ****         OSIdleTaskCtr++;
 913              		.loc 1 791 0 discriminator 1
 914 0018 094B     		ldr	r3, .L74
 915 001a 1B68     		ldr	r3, [r3]
 916 001c 5A1C     		adds	r2, r3, #1
 917 001e 084B     		ldr	r3, .L74
 918 0020 1A60     		str	r2, [r3]
 792:..\..\..\..\..\..\Software\uCOS-III\Source/os_core.c **** #if OS_CFG_STAT_TASK_EN > 0u
 793:..\..\..\..\..\..\Software\uCOS-III\Source/os_core.c ****         OSStatTaskCtr++;
 919              		.loc 1 793 0 discriminator 1
 920 0022 084B     		ldr	r3, .L74+4
 921 0024 1B68     		ldr	r3, [r3]
 922 0026 5A1C     		adds	r2, r3, #1
 923 0028 064B     		ldr	r3, .L74+4
 924 002a 1A60     		str	r2, [r3]
 794:..\..\..\..\..\..\Software\uCOS-III\Source/os_core.c **** #endif
 795:..\..\..\..\..\..\Software\uCOS-III\Source/os_core.c ****         CPU_CRITICAL_EXIT();
 925              		.loc 1 795 0 discriminator 1
 926 002c FFF7FEFF 		bl	CPU_IntDisMeasStop
 927 0030 FB68     		ldr	r3, [r7, #12]
 928 0032 1800     		movs	r0, r3
 929 0034 FFF7FEFF 		bl	CPU_SR_Restore
 796:..\..\..\..\..\..\Software\uCOS-III\Source/os_core.c **** 
 797:..\..\..\..\..\..\Software\uCOS-III\Source/os_core.c ****         OSIdleTaskHook();                                   /* Call user definable HOOK            
 930              		.loc 1 797 0 discriminator 1
 931 0038 FFF7FEFF 		bl	OSIdleTaskHook
 798:..\..\..\..\..\..\Software\uCOS-III\Source/os_core.c ****     }
 932              		.loc 1 798 0 discriminator 1
 933 003c E6E7     		b	.L73
 934              	.L75:
 935 003e C046     		.align	2
 936              	.L74:
 937 0040 00000000 		.word	OSIdleTaskCtr
 938 0044 00000000 		.word	OSStatTaskCtr
 939              		.cfi_endproc
 940              	.LFE9:
 941              		.size	OS_IdleTask, .-OS_IdleTask
 942              		.section	.rodata
 943              		.align	2
 944              	.LC47:
 945 0000 75432F4F 		.ascii	"uC/OS-III Idle Task\000"
 945      532D4949 
 945      49204964 
 945      6C652054 
 945      61736B00 
 946              		.section	.text.OS_IdleTaskInit,"ax",%progbits
 947              		.align	2
 948              		.global	OS_IdleTaskInit
 949              		.code	16
 950              		.thumb_func
 951              		.type	OS_IdleTaskInit, %function
 952              	OS_IdleTaskInit:
ARM GAS  C:\Users\EDULU~1.DES\AppData\Local\Temp\ccYz4yx3.s 			page 32


 953              	.LFB10:
 799:..\..\..\..\..\..\Software\uCOS-III\Source/os_core.c **** }
 800:..\..\..\..\..\..\Software\uCOS-III\Source/os_core.c **** 
 801:..\..\..\..\..\..\Software\uCOS-III\Source/os_core.c **** /*$PAGE*/
 802:..\..\..\..\..\..\Software\uCOS-III\Source/os_core.c **** /*
 803:..\..\..\..\..\..\Software\uCOS-III\Source/os_core.c **** ***************************************************************************************************
 804:..\..\..\..\..\..\Software\uCOS-III\Source/os_core.c **** *                                               INITIALIZE THE IDLE TASK
 805:..\..\..\..\..\..\Software\uCOS-III\Source/os_core.c **** *
 806:..\..\..\..\..\..\Software\uCOS-III\Source/os_core.c **** * Description: This function initializes the idle task
 807:..\..\..\..\..\..\Software\uCOS-III\Source/os_core.c **** *
 808:..\..\..\..\..\..\Software\uCOS-III\Source/os_core.c **** * Arguments  : p_err    is a pointer to a variable that will contain an error code returned by this
 809:..\..\..\..\..\..\Software\uCOS-III\Source/os_core.c **** *
 810:..\..\..\..\..\..\Software\uCOS-III\Source/os_core.c **** * Returns    : none
 811:..\..\..\..\..\..\Software\uCOS-III\Source/os_core.c **** *
 812:..\..\..\..\..\..\Software\uCOS-III\Source/os_core.c **** * Note(s)    : 1) This function is INTERNAL to uC/OS-III and your application MUST NOT call it.
 813:..\..\..\..\..\..\Software\uCOS-III\Source/os_core.c **** ***************************************************************************************************
 814:..\..\..\..\..\..\Software\uCOS-III\Source/os_core.c **** */
 815:..\..\..\..\..\..\Software\uCOS-III\Source/os_core.c **** 
 816:..\..\..\..\..\..\Software\uCOS-III\Source/os_core.c **** void  OS_IdleTaskInit (OS_ERR  *p_err)
 817:..\..\..\..\..\..\Software\uCOS-III\Source/os_core.c **** {
 954              		.loc 1 817 0
 955              		.cfi_startproc
 956              		@ args = 0, pretend = 0, frame = 8
 957              		@ frame_needed = 1, uses_anonymous_args = 0
 958 0000 F0B5     		push	{r4, r5, r6, r7, lr}
 959              		.cfi_def_cfa_offset 20
 960              		.cfi_offset 4, -20
 961              		.cfi_offset 5, -16
 962              		.cfi_offset 6, -12
 963              		.cfi_offset 7, -8
 964              		.cfi_offset 14, -4
 965 0002 8DB0     		sub	sp, sp, #52
 966              		.cfi_def_cfa_offset 72
 967 0004 0AAF     		add	r7, sp, #40
 968              		.cfi_def_cfa 7, 32
 969 0006 7860     		str	r0, [r7, #4]
 818:..\..\..\..\..\..\Software\uCOS-III\Source/os_core.c **** #ifdef OS_SAFETY_CRITICAL
 819:..\..\..\..\..\..\Software\uCOS-III\Source/os_core.c ****     if (p_err == (OS_ERR *)0) {
 820:..\..\..\..\..\..\Software\uCOS-III\Source/os_core.c ****         OS_SAFETY_CRITICAL_EXCEPTION();
 821:..\..\..\..\..\..\Software\uCOS-III\Source/os_core.c ****         return;
 822:..\..\..\..\..\..\Software\uCOS-III\Source/os_core.c ****     }
 823:..\..\..\..\..\..\Software\uCOS-III\Source/os_core.c **** #endif
 824:..\..\..\..\..\..\Software\uCOS-III\Source/os_core.c **** 
 825:..\..\..\..\..\..\Software\uCOS-III\Source/os_core.c ****     OSIdleTaskCtr = (OS_IDLE_CTR)0;
 970              		.loc 1 825 0
 971 0008 124B     		ldr	r3, .L77
 972 000a 0022     		movs	r2, #0
 973 000c 1A60     		str	r2, [r3]
 826:..\..\..\..\..\..\Software\uCOS-III\Source/os_core.c ****                                                             /* ---------------- CREATE THE IDLE TAS
 827:..\..\..\..\..\..\Software\uCOS-III\Source/os_core.c ****     OSTaskCreate((OS_TCB     *)&OSIdleTaskTCB,
 974              		.loc 1 827 0
 975 000e 124B     		ldr	r3, .L77+4
 976 0010 1A68     		ldr	r2, [r3]
 977 0012 124B     		ldr	r3, .L77+8
 978 0014 1968     		ldr	r1, [r3]
 979 0016 124B     		ldr	r3, .L77+12
 980 0018 1B68     		ldr	r3, [r3]
ARM GAS  C:\Users\EDULU~1.DES\AppData\Local\Temp\ccYz4yx3.s 			page 33


 981 001a 124E     		ldr	r6, .L77+16
 982 001c 124D     		ldr	r5, .L77+20
 983 001e 134C     		ldr	r4, .L77+24
 984 0020 7868     		ldr	r0, [r7, #4]
 985 0022 0890     		str	r0, [sp, #32]
 986 0024 0B20     		movs	r0, #11
 987 0026 0790     		str	r0, [sp, #28]
 988 0028 0020     		movs	r0, #0
 989 002a 0690     		str	r0, [sp, #24]
 990 002c 0020     		movs	r0, #0
 991 002e 0590     		str	r0, [sp, #20]
 992 0030 0020     		movs	r0, #0
 993 0032 0490     		str	r0, [sp, #16]
 994 0034 0393     		str	r3, [sp, #12]
 995 0036 0291     		str	r1, [sp, #8]
 996 0038 0192     		str	r2, [sp, #4]
 997 003a 1F23     		movs	r3, #31
 998 003c 0093     		str	r3, [sp]
 999 003e 0023     		movs	r3, #0
 1000 0040 3200     		movs	r2, r6
 1001 0042 2900     		movs	r1, r5
 1002 0044 2000     		movs	r0, r4
 1003 0046 FFF7FEFF 		bl	OSTaskCreate
 828:..\..\..\..\..\..\Software\uCOS-III\Source/os_core.c ****                  (CPU_CHAR   *)((void *)"uC/OS-III Idle Task"),
 829:..\..\..\..\..\..\Software\uCOS-III\Source/os_core.c ****                  (OS_TASK_PTR)OS_IdleTask,
 830:..\..\..\..\..\..\Software\uCOS-III\Source/os_core.c ****                  (void       *)0,
 831:..\..\..\..\..\..\Software\uCOS-III\Source/os_core.c ****                  (OS_PRIO     )(OS_CFG_PRIO_MAX - 1u),
 832:..\..\..\..\..\..\Software\uCOS-III\Source/os_core.c ****                  (CPU_STK    *)OSCfg_IdleTaskStkBasePtr,
 833:..\..\..\..\..\..\Software\uCOS-III\Source/os_core.c ****                  (CPU_STK_SIZE)OSCfg_IdleTaskStkLimit,
 834:..\..\..\..\..\..\Software\uCOS-III\Source/os_core.c ****                  (CPU_STK_SIZE)OSCfg_IdleTaskStkSize,
 835:..\..\..\..\..\..\Software\uCOS-III\Source/os_core.c ****                  (OS_MSG_QTY  )0u,
 836:..\..\..\..\..\..\Software\uCOS-III\Source/os_core.c ****                  (OS_TICK     )0u,
 837:..\..\..\..\..\..\Software\uCOS-III\Source/os_core.c ****                  (void       *)0,
 838:..\..\..\..\..\..\Software\uCOS-III\Source/os_core.c ****                  (OS_OPT      )(OS_OPT_TASK_STK_CHK | OS_OPT_TASK_STK_CLR | OS_OPT_TASK_NO_TLS),
 839:..\..\..\..\..\..\Software\uCOS-III\Source/os_core.c ****                  (OS_ERR     *)p_err);
 840:..\..\..\..\..\..\Software\uCOS-III\Source/os_core.c **** }
 1004              		.loc 1 840 0
 1005 004a C046     		nop
 1006 004c BD46     		mov	sp, r7
 1007 004e 03B0     		add	sp, sp, #12
 1008              		@ sp needed
 1009 0050 F0BD     		pop	{r4, r5, r6, r7, pc}
 1010              	.L78:
 1011 0052 C046     		.align	2
 1012              	.L77:
 1013 0054 00000000 		.word	OSIdleTaskCtr
 1014 0058 00000000 		.word	OSCfg_IdleTaskStkBasePtr
 1015 005c 00000000 		.word	OSCfg_IdleTaskStkLimit
 1016 0060 00000000 		.word	OSCfg_IdleTaskStkSize
 1017 0064 00000000 		.word	OS_IdleTask
 1018 0068 00000000 		.word	.LC47
 1019 006c 00000000 		.word	OSIdleTaskTCB
 1020              		.cfi_endproc
 1021              	.LFE10:
 1022              		.size	OS_IdleTaskInit, .-OS_IdleTaskInit
 1023              		.section	.text.OS_Pend,"ax",%progbits
 1024              		.align	2
ARM GAS  C:\Users\EDULU~1.DES\AppData\Local\Temp\ccYz4yx3.s 			page 34


 1025              		.global	OS_Pend
 1026              		.code	16
 1027              		.thumb_func
 1028              		.type	OS_Pend, %function
 1029              	OS_Pend:
 1030              	.LFB11:
 841:..\..\..\..\..\..\Software\uCOS-III\Source/os_core.c **** 
 842:..\..\..\..\..\..\Software\uCOS-III\Source/os_core.c **** /*$PAGE*/
 843:..\..\..\..\..\..\Software\uCOS-III\Source/os_core.c **** /*
 844:..\..\..\..\..\..\Software\uCOS-III\Source/os_core.c **** ***************************************************************************************************
 845:..\..\..\..\..\..\Software\uCOS-III\Source/os_core.c **** *                                             BLOCK A TASK PENDING ON EVENT
 846:..\..\..\..\..\..\Software\uCOS-III\Source/os_core.c **** *
 847:..\..\..\..\..\..\Software\uCOS-III\Source/os_core.c **** * Description: This function is called to place a task in the blocked state waiting for an event to
 848:..\..\..\..\..\..\Software\uCOS-III\Source/os_core.c **** *              exist because it is common to a number of OSxxxPend() services.
 849:..\..\..\..\..\..\Software\uCOS-III\Source/os_core.c **** *
 850:..\..\..\..\..\..\Software\uCOS-III\Source/os_core.c **** * Arguments  : p_pend_data    is a pointer to an object used to link the task being blocked to the 
 851:..\..\..\..\..\..\Software\uCOS-III\Source/os_core.c **** *              -----------    pending on the desired object.
 852:..\..\..\..\..\..\Software\uCOS-III\Source/os_core.c **** 
 853:..\..\..\..\..\..\Software\uCOS-III\Source/os_core.c **** *              p_obj          is a pointer to the object to pend on.  If there are no object used t
 854:..\..\..\..\..\..\Software\uCOS-III\Source/os_core.c **** *              -----          the caller must pass a NULL pointer.
 855:..\..\..\..\..\..\Software\uCOS-III\Source/os_core.c **** *
 856:..\..\..\..\..\..\Software\uCOS-III\Source/os_core.c **** *              pending_on     Specifies what the task will be pending on:
 857:..\..\..\..\..\..\Software\uCOS-III\Source/os_core.c **** *
 858:..\..\..\..\..\..\Software\uCOS-III\Source/os_core.c **** *                                 OS_TASK_PEND_ON_FLAG
 859:..\..\..\..\..\..\Software\uCOS-III\Source/os_core.c **** *                                 OS_TASK_PEND_ON_TASK_Q     <- No object (pending for a message se
 860:..\..\..\..\..\..\Software\uCOS-III\Source/os_core.c **** *                                 OS_TASK_PEND_ON_MUTEX
 861:..\..\..\..\..\..\Software\uCOS-III\Source/os_core.c **** *                                 OS_TASK_PEND_ON_Q
 862:..\..\..\..\..\..\Software\uCOS-III\Source/os_core.c **** *                                 OS_TASK_PEND_ON_SEM
 863:..\..\..\..\..\..\Software\uCOS-III\Source/os_core.c **** *                                 OS_TASK_PEND_ON_TASK_SEM   <- No object (pending on a signal sent
 864:..\..\..\..\..\..\Software\uCOS-III\Source/os_core.c **** *
 865:..\..\..\..\..\..\Software\uCOS-III\Source/os_core.c **** *              timeout        Is the amount of time the task will wait for the event to occur.
 866:..\..\..\..\..\..\Software\uCOS-III\Source/os_core.c **** *
 867:..\..\..\..\..\..\Software\uCOS-III\Source/os_core.c **** * Returns    : none
 868:..\..\..\..\..\..\Software\uCOS-III\Source/os_core.c **** *
 869:..\..\..\..\..\..\Software\uCOS-III\Source/os_core.c **** * Note(s)    : 1) This function is INTERNAL to uC/OS-III and your application MUST NOT call it.
 870:..\..\..\..\..\..\Software\uCOS-III\Source/os_core.c **** ***************************************************************************************************
 871:..\..\..\..\..\..\Software\uCOS-III\Source/os_core.c **** */
 872:..\..\..\..\..\..\Software\uCOS-III\Source/os_core.c **** 
 873:..\..\..\..\..\..\Software\uCOS-III\Source/os_core.c **** void  OS_Pend (OS_PEND_DATA  *p_pend_data,
 874:..\..\..\..\..\..\Software\uCOS-III\Source/os_core.c ****                OS_PEND_OBJ   *p_obj,
 875:..\..\..\..\..\..\Software\uCOS-III\Source/os_core.c ****                OS_STATE       pending_on,
 876:..\..\..\..\..\..\Software\uCOS-III\Source/os_core.c ****                OS_TICK        timeout)
 877:..\..\..\..\..\..\Software\uCOS-III\Source/os_core.c **** {
 1031              		.loc 1 877 0
 1032              		.cfi_startproc
 1033              		@ args = 0, pretend = 0, frame = 24
 1034              		@ frame_needed = 1, uses_anonymous_args = 0
 1035 0000 80B5     		push	{r7, lr}
 1036              		.cfi_def_cfa_offset 8
 1037              		.cfi_offset 7, -8
 1038              		.cfi_offset 14, -4
 1039 0002 86B0     		sub	sp, sp, #24
 1040              		.cfi_def_cfa_offset 32
 1041 0004 00AF     		add	r7, sp, #0
 1042              		.cfi_def_cfa_register 7
 1043 0006 F860     		str	r0, [r7, #12]
 1044 0008 B960     		str	r1, [r7, #8]
ARM GAS  C:\Users\EDULU~1.DES\AppData\Local\Temp\ccYz4yx3.s 			page 35


 1045 000a 3B60     		str	r3, [r7]
 1046 000c FB1D     		adds	r3, r7, #7
 1047 000e 1A70     		strb	r2, [r3]
 878:..\..\..\..\..\..\Software\uCOS-III\Source/os_core.c ****     OS_PEND_LIST  *p_pend_list;
 879:..\..\..\..\..\..\Software\uCOS-III\Source/os_core.c **** 
 880:..\..\..\..\..\..\Software\uCOS-III\Source/os_core.c **** 
 881:..\..\..\..\..\..\Software\uCOS-III\Source/os_core.c **** 
 882:..\..\..\..\..\..\Software\uCOS-III\Source/os_core.c ****     OSTCBCurPtr->PendOn     = pending_on;                    /* Resource not available, wait until 
 1048              		.loc 1 882 0
 1049 0010 1D4B     		ldr	r3, .L82
 1050 0012 1B68     		ldr	r3, [r3]
 1051 0014 FA1D     		adds	r2, r7, #7
 1052 0016 3421     		movs	r1, #52
 1053 0018 1278     		ldrb	r2, [r2]
 1054 001a 5A54     		strb	r2, [r3, r1]
 883:..\..\..\..\..\..\Software\uCOS-III\Source/os_core.c ****     OSTCBCurPtr->PendStatus = OS_STATUS_PEND_OK;
 1055              		.loc 1 883 0
 1056 001c 1A4B     		ldr	r3, .L82
 1057 001e 1B68     		ldr	r3, [r3]
 1058 0020 3522     		movs	r2, #53
 1059 0022 0021     		movs	r1, #0
 1060 0024 9954     		strb	r1, [r3, r2]
 884:..\..\..\..\..\..\Software\uCOS-III\Source/os_core.c **** 
 885:..\..\..\..\..\..\Software\uCOS-III\Source/os_core.c ****     OS_TaskBlock(OSTCBCurPtr,                                /* Block the task and add it to the ti
 1061              		.loc 1 885 0
 1062 0026 184B     		ldr	r3, .L82
 1063 0028 1B68     		ldr	r3, [r3]
 1064 002a 3A68     		ldr	r2, [r7]
 1065 002c 1100     		movs	r1, r2
 1066 002e 1800     		movs	r0, r3
 1067 0030 FFF7FEFF 		bl	OS_TaskBlock
 886:..\..\..\..\..\..\Software\uCOS-III\Source/os_core.c ****                  timeout);
 887:..\..\..\..\..\..\Software\uCOS-III\Source/os_core.c **** 
 888:..\..\..\..\..\..\Software\uCOS-III\Source/os_core.c ****     if (p_obj != (OS_PEND_OBJ *)0) {                         /* Add the current task to the pend li
 1068              		.loc 1 888 0
 1069 0034 BB68     		ldr	r3, [r7, #8]
 1070 0036 002B     		cmp	r3, #0
 1071 0038 13D0     		beq	.L80
 889:..\..\..\..\..\..\Software\uCOS-III\Source/os_core.c ****         p_pend_list             = &p_obj->PendList;          /* ... if there is an object to pend o
 1072              		.loc 1 889 0
 1073 003a BB68     		ldr	r3, [r7, #8]
 1074 003c 0833     		adds	r3, r3, #8
 1075 003e 7B61     		str	r3, [r7, #20]
 890:..\..\..\..\..\..\Software\uCOS-III\Source/os_core.c ****         p_pend_data->PendObjPtr = p_obj;                     /* Save the pointer to the object pend
 1076              		.loc 1 890 0
 1077 0040 FB68     		ldr	r3, [r7, #12]
 1078 0042 BA68     		ldr	r2, [r7, #8]
 1079 0044 DA60     		str	r2, [r3, #12]
 891:..\..\..\..\..\..\Software\uCOS-III\Source/os_core.c ****         OS_PendDataInit((OS_TCB       *)OSTCBCurPtr,         /* Initialize the remaining field     
 1080              		.loc 1 891 0
 1081 0046 104B     		ldr	r3, .L82
 1082 0048 1B68     		ldr	r3, [r3]
 1083 004a F968     		ldr	r1, [r7, #12]
 1084 004c 0122     		movs	r2, #1
 1085 004e 1800     		movs	r0, r3
 1086 0050 FFF7FEFF 		bl	OS_PendDataInit
 892:..\..\..\..\..\..\Software\uCOS-III\Source/os_core.c ****                         (OS_PEND_DATA *)p_pend_data,
ARM GAS  C:\Users\EDULU~1.DES\AppData\Local\Temp\ccYz4yx3.s 			page 36


 893:..\..\..\..\..\..\Software\uCOS-III\Source/os_core.c ****                         (OS_OBJ_QTY    )1);
 894:..\..\..\..\..\..\Software\uCOS-III\Source/os_core.c ****         OS_PendListInsertPrio(p_pend_list,                   /* Insert in the pend list in priority
 1087              		.loc 1 894 0
 1088 0054 FA68     		ldr	r2, [r7, #12]
 1089 0056 7B69     		ldr	r3, [r7, #20]
 1090 0058 1100     		movs	r1, r2
 1091 005a 1800     		movs	r0, r3
 1092 005c FFF7FEFF 		bl	OS_PendListInsertPrio
 1093 0060 07E0     		b	.L81
 1094              	.L80:
 895:..\..\..\..\..\..\Software\uCOS-III\Source/os_core.c ****                               p_pend_data);
 896:..\..\..\..\..\..\Software\uCOS-III\Source/os_core.c ****     } else {
 897:..\..\..\..\..\..\Software\uCOS-III\Source/os_core.c ****         OSTCBCurPtr->PendDataTblEntries = (OS_OBJ_QTY    )0; /* If no object being pended on the cl
 1095              		.loc 1 897 0
 1096 0062 094B     		ldr	r3, .L82
 1097 0064 1B68     		ldr	r3, [r3]
 1098 0066 0022     		movs	r2, #0
 1099 0068 DA87     		strh	r2, [r3, #62]
 898:..\..\..\..\..\..\Software\uCOS-III\Source/os_core.c ****         OSTCBCurPtr->PendDataTblPtr     = (OS_PEND_DATA *)0; /* ... in the TCB                     
 1100              		.loc 1 898 0
 1101 006a 074B     		ldr	r3, .L82
 1102 006c 1B68     		ldr	r3, [r3]
 1103 006e 0022     		movs	r2, #0
 1104 0070 1A63     		str	r2, [r3, #48]
 1105              	.L81:
 899:..\..\..\..\..\..\Software\uCOS-III\Source/os_core.c ****     }
 900:..\..\..\..\..\..\Software\uCOS-III\Source/os_core.c **** #if OS_CFG_DBG_EN > 0u
 901:..\..\..\..\..\..\Software\uCOS-III\Source/os_core.c ****     OS_PendDbgNameAdd(p_obj,
 1106              		.loc 1 901 0
 1107 0072 054B     		ldr	r3, .L82
 1108 0074 1A68     		ldr	r2, [r3]
 1109 0076 BB68     		ldr	r3, [r7, #8]
 1110 0078 1100     		movs	r1, r2
 1111 007a 1800     		movs	r0, r3
 1112 007c FFF7FEFF 		bl	OS_PendDbgNameAdd
 902:..\..\..\..\..\..\Software\uCOS-III\Source/os_core.c ****                       OSTCBCurPtr);
 903:..\..\..\..\..\..\Software\uCOS-III\Source/os_core.c **** #endif
 904:..\..\..\..\..\..\Software\uCOS-III\Source/os_core.c **** }
 1113              		.loc 1 904 0
 1114 0080 C046     		nop
 1115 0082 BD46     		mov	sp, r7
 1116 0084 06B0     		add	sp, sp, #24
 1117              		@ sp needed
 1118 0086 80BD     		pop	{r7, pc}
 1119              	.L83:
 1120              		.align	2
 1121              	.L82:
 1122 0088 00000000 		.word	OSTCBCurPtr
 1123              		.cfi_endproc
 1124              	.LFE11:
 1125              		.size	OS_Pend, .-OS_Pend
 1126              		.section	.text.OS_PendAbort,"ax",%progbits
 1127              		.align	2
 1128              		.global	OS_PendAbort
 1129              		.code	16
 1130              		.thumb_func
 1131              		.type	OS_PendAbort, %function
ARM GAS  C:\Users\EDULU~1.DES\AppData\Local\Temp\ccYz4yx3.s 			page 37


 1132              	OS_PendAbort:
 1133              	.LFB12:
 905:..\..\..\..\..\..\Software\uCOS-III\Source/os_core.c **** 
 906:..\..\..\..\..\..\Software\uCOS-III\Source/os_core.c **** /*$PAGE*/
 907:..\..\..\..\..\..\Software\uCOS-III\Source/os_core.c **** /*
 908:..\..\..\..\..\..\Software\uCOS-III\Source/os_core.c **** ***************************************************************************************************
 909:..\..\..\..\..\..\Software\uCOS-III\Source/os_core.c **** *                                                     ABORT PENDING
 910:..\..\..\..\..\..\Software\uCOS-III\Source/os_core.c **** *
 911:..\..\..\..\..\..\Software\uCOS-III\Source/os_core.c **** * Description: This function is called by OSxxxPendAbort() functions to abort pending on an event.
 912:..\..\..\..\..\..\Software\uCOS-III\Source/os_core.c **** *
 913:..\..\..\..\..\..\Software\uCOS-III\Source/os_core.c **** * Arguments  : p_obj          Is a pointer to the object to pend abort.
 914:..\..\..\..\..\..\Software\uCOS-III\Source/os_core.c **** *              -----
 915:..\..\..\..\..\..\Software\uCOS-III\Source/os_core.c **** *
 916:..\..\..\..\..\..\Software\uCOS-III\Source/os_core.c **** *              p_tcb          Is a pointer to the OS_TCB of the task that we'll abort the pend for
 917:..\..\..\..\..\..\Software\uCOS-III\Source/os_core.c **** *              -----
 918:..\..\..\..\..\..\Software\uCOS-III\Source/os_core.c **** *
 919:..\..\..\..\..\..\Software\uCOS-III\Source/os_core.c **** *              ts             The is a timestamp as to when the pend abort occurred
 920:..\..\..\..\..\..\Software\uCOS-III\Source/os_core.c **** *
 921:..\..\..\..\..\..\Software\uCOS-III\Source/os_core.c **** * Returns    : none
 922:..\..\..\..\..\..\Software\uCOS-III\Source/os_core.c **** *
 923:..\..\..\..\..\..\Software\uCOS-III\Source/os_core.c **** * Note(s)    : 1) This function is INTERNAL to uC/OS-III and your application MUST NOT call it.
 924:..\..\..\..\..\..\Software\uCOS-III\Source/os_core.c **** ***************************************************************************************************
 925:..\..\..\..\..\..\Software\uCOS-III\Source/os_core.c **** */
 926:..\..\..\..\..\..\Software\uCOS-III\Source/os_core.c **** 
 927:..\..\..\..\..\..\Software\uCOS-III\Source/os_core.c **** void  OS_PendAbort (OS_PEND_OBJ  *p_obj,
 928:..\..\..\..\..\..\Software\uCOS-III\Source/os_core.c ****                     OS_TCB       *p_tcb,
 929:..\..\..\..\..\..\Software\uCOS-III\Source/os_core.c ****                     CPU_TS        ts)
 930:..\..\..\..\..\..\Software\uCOS-III\Source/os_core.c **** {
 1134              		.loc 1 930 0
 1135              		.cfi_startproc
 1136              		@ args = 0, pretend = 0, frame = 16
 1137              		@ frame_needed = 1, uses_anonymous_args = 0
 1138 0000 80B5     		push	{r7, lr}
 1139              		.cfi_def_cfa_offset 8
 1140              		.cfi_offset 7, -8
 1141              		.cfi_offset 14, -4
 1142 0002 84B0     		sub	sp, sp, #16
 1143              		.cfi_def_cfa_offset 24
 1144 0004 00AF     		add	r7, sp, #0
 1145              		.cfi_def_cfa_register 7
 1146 0006 F860     		str	r0, [r7, #12]
 1147 0008 B960     		str	r1, [r7, #8]
 1148 000a 7A60     		str	r2, [r7, #4]
 931:..\..\..\..\..\..\Software\uCOS-III\Source/os_core.c ****     switch (p_tcb->TaskState) {
 1149              		.loc 1 931 0
 1150 000c BB68     		ldr	r3, [r7, #8]
 1151 000e 3622     		movs	r2, #54
 1152 0010 9B5C     		ldrb	r3, [r3, r2]
 1153 0012 072B     		cmp	r3, #7
 1154 0014 50D8     		bhi	.L95
 1155 0016 9A00     		lsls	r2, r3, #2
 1156 0018 2B4B     		ldr	r3, .L97
 1157 001a D318     		adds	r3, r2, r3
 1158 001c 1B68     		ldr	r3, [r3]
 1159 001e 9F46     		mov	pc, r3
 1160              		.section	.rodata
 1161              		.align	2
ARM GAS  C:\Users\EDULU~1.DES\AppData\Local\Temp\ccYz4yx3.s 			page 38


 1162              	.L87:
 1163 0014 BC000000 		.word	.L96
 1164 0018 BC000000 		.word	.L96
 1165 001c 20000000 		.word	.L88
 1166 0020 20000000 		.word	.L88
 1167 0024 BC000000 		.word	.L96
 1168 0028 BC000000 		.word	.L96
 1169 002c 6C000000 		.word	.L89
 1170 0030 6C000000 		.word	.L89
 1171              		.section	.text.OS_PendAbort
 1172              	.L88:
 932:..\..\..\..\..\..\Software\uCOS-III\Source/os_core.c ****         case OS_TASK_STATE_RDY:                             /* Cannot Pend Abort a task that is rea
 933:..\..\..\..\..\..\Software\uCOS-III\Source/os_core.c ****         case OS_TASK_STATE_DLY:                             /* Cannot Pend Abort a task that is del
 934:..\..\..\..\..\..\Software\uCOS-III\Source/os_core.c ****         case OS_TASK_STATE_SUSPENDED:                       /* Cannot Pend Abort a suspended task  
 935:..\..\..\..\..\..\Software\uCOS-III\Source/os_core.c ****         case OS_TASK_STATE_DLY_SUSPENDED:                   /* Cannot Pend Abort a suspended task t
 936:..\..\..\..\..\..\Software\uCOS-III\Source/os_core.c ****              break;
 937:..\..\..\..\..\..\Software\uCOS-III\Source/os_core.c **** 
 938:..\..\..\..\..\..\Software\uCOS-III\Source/os_core.c ****         case OS_TASK_STATE_PEND:
 939:..\..\..\..\..\..\Software\uCOS-III\Source/os_core.c ****         case OS_TASK_STATE_PEND_TIMEOUT:
 940:..\..\..\..\..\..\Software\uCOS-III\Source/os_core.c ****              if (p_tcb->PendOn == OS_TASK_PEND_ON_MULTI) {
 1173              		.loc 1 940 0
 1174 0020 BB68     		ldr	r3, [r7, #8]
 1175 0022 3422     		movs	r2, #52
 1176 0024 9B5C     		ldrb	r3, [r3, r2]
 1177 0026 032B     		cmp	r3, #3
 1178 0028 05D1     		bne	.L91
 941:..\..\..\..\..\..\Software\uCOS-III\Source/os_core.c ****                  OS_PendAbort1(p_obj,                            /* Indicate which object was pend 
 1179              		.loc 1 941 0
 1180 002a 7A68     		ldr	r2, [r7, #4]
 1181 002c B968     		ldr	r1, [r7, #8]
 1182 002e FB68     		ldr	r3, [r7, #12]
 1183 0030 1800     		movs	r0, r3
 1184 0032 FFF7FEFF 		bl	OS_PendAbort1
 1185              	.L91:
 942:..\..\..\..\..\..\Software\uCOS-III\Source/os_core.c ****                                p_tcb,
 943:..\..\..\..\..\..\Software\uCOS-III\Source/os_core.c ****                                ts);
 944:..\..\..\..\..\..\Software\uCOS-III\Source/os_core.c ****              }
 945:..\..\..\..\..\..\Software\uCOS-III\Source/os_core.c **** #if (OS_MSG_EN > 0u)
 946:..\..\..\..\..\..\Software\uCOS-III\Source/os_core.c ****              p_tcb->MsgPtr     = (void      *)0;
 947:..\..\..\..\..\..\Software\uCOS-III\Source/os_core.c ****              p_tcb->MsgSize    = (OS_MSG_SIZE)0u;
 948:..\..\..\..\..\..\Software\uCOS-III\Source/os_core.c **** #endif
 949:..\..\..\..\..\..\Software\uCOS-III\Source/os_core.c ****              p_tcb->TS         = ts;
 1186              		.loc 1 949 0
 1187 0036 BB68     		ldr	r3, [r7, #8]
 1188 0038 7A68     		ldr	r2, [r7, #4]
 1189 003a 1A64     		str	r2, [r3, #64]
 950:..\..\..\..\..\..\Software\uCOS-III\Source/os_core.c ****              if (p_obj != (OS_PEND_OBJ *)0) {
 1190              		.loc 1 950 0
 1191 003c FB68     		ldr	r3, [r7, #12]
 1192 003e 002B     		cmp	r3, #0
 1193 0040 03D0     		beq	.L92
 951:..\..\..\..\..\..\Software\uCOS-III\Source/os_core.c ****                  OS_PendListRemove(p_tcb);                       /* Remove task from all pend lists
 1194              		.loc 1 951 0
 1195 0042 BB68     		ldr	r3, [r7, #8]
 1196 0044 1800     		movs	r0, r3
 1197 0046 FFF7FEFF 		bl	OS_PendListRemove
 1198              	.L92:
ARM GAS  C:\Users\EDULU~1.DES\AppData\Local\Temp\ccYz4yx3.s 			page 39


 952:..\..\..\..\..\..\Software\uCOS-III\Source/os_core.c ****              }
 953:..\..\..\..\..\..\Software\uCOS-III\Source/os_core.c ****              OS_TaskRdy(p_tcb);
 1199              		.loc 1 953 0
 1200 004a BB68     		ldr	r3, [r7, #8]
 1201 004c 1800     		movs	r0, r3
 1202 004e FFF7FEFF 		bl	OS_TaskRdy
 954:..\..\..\..\..\..\Software\uCOS-III\Source/os_core.c ****              p_tcb->TaskState  = OS_TASK_STATE_RDY;              /* Task will be ready             
 1203              		.loc 1 954 0
 1204 0052 BB68     		ldr	r3, [r7, #8]
 1205 0054 3622     		movs	r2, #54
 1206 0056 0021     		movs	r1, #0
 1207 0058 9954     		strb	r1, [r3, r2]
 955:..\..\..\..\..\..\Software\uCOS-III\Source/os_core.c ****              p_tcb->PendStatus = OS_STATUS_PEND_ABORT;           /* Indicate pend was aborted      
 1208              		.loc 1 955 0
 1209 005a BB68     		ldr	r3, [r7, #8]
 1210 005c 3522     		movs	r2, #53
 1211 005e 0121     		movs	r1, #1
 1212 0060 9954     		strb	r1, [r3, r2]
 956:..\..\..\..\..\..\Software\uCOS-III\Source/os_core.c ****              p_tcb->PendOn     = OS_TASK_PEND_ON_NOTHING;        /* Indicate no longer pending     
 1213              		.loc 1 956 0
 1214 0062 BB68     		ldr	r3, [r7, #8]
 1215 0064 3422     		movs	r2, #52
 1216 0066 0021     		movs	r1, #0
 1217 0068 9954     		strb	r1, [r3, r2]
 957:..\..\..\..\..\..\Software\uCOS-III\Source/os_core.c ****              break;
 1218              		.loc 1 957 0
 1219 006a 28E0     		b	.L90
 1220              	.L89:
 958:..\..\..\..\..\..\Software\uCOS-III\Source/os_core.c **** 
 959:..\..\..\..\..\..\Software\uCOS-III\Source/os_core.c ****         case OS_TASK_STATE_PEND_SUSPENDED:
 960:..\..\..\..\..\..\Software\uCOS-III\Source/os_core.c ****         case OS_TASK_STATE_PEND_TIMEOUT_SUSPENDED:
 961:..\..\..\..\..\..\Software\uCOS-III\Source/os_core.c ****              if (p_tcb->PendOn == OS_TASK_PEND_ON_MULTI) {
 1221              		.loc 1 961 0
 1222 006c BB68     		ldr	r3, [r7, #8]
 1223 006e 3422     		movs	r2, #52
 1224 0070 9B5C     		ldrb	r3, [r3, r2]
 1225 0072 032B     		cmp	r3, #3
 1226 0074 05D1     		bne	.L93
 962:..\..\..\..\..\..\Software\uCOS-III\Source/os_core.c ****                  OS_PendAbort1(p_obj,                            /* Indicate which object was pend 
 1227              		.loc 1 962 0
 1228 0076 7A68     		ldr	r2, [r7, #4]
 1229 0078 B968     		ldr	r1, [r7, #8]
 1230 007a FB68     		ldr	r3, [r7, #12]
 1231 007c 1800     		movs	r0, r3
 1232 007e FFF7FEFF 		bl	OS_PendAbort1
 1233              	.L93:
 963:..\..\..\..\..\..\Software\uCOS-III\Source/os_core.c ****                                p_tcb,
 964:..\..\..\..\..\..\Software\uCOS-III\Source/os_core.c ****                                ts);
 965:..\..\..\..\..\..\Software\uCOS-III\Source/os_core.c ****              }
 966:..\..\..\..\..\..\Software\uCOS-III\Source/os_core.c **** #if (OS_MSG_EN > 0u)
 967:..\..\..\..\..\..\Software\uCOS-III\Source/os_core.c ****              p_tcb->MsgPtr     = (void      *)0;
 968:..\..\..\..\..\..\Software\uCOS-III\Source/os_core.c ****              p_tcb->MsgSize    = (OS_MSG_SIZE)0u;
 969:..\..\..\..\..\..\Software\uCOS-III\Source/os_core.c **** #endif
 970:..\..\..\..\..\..\Software\uCOS-III\Source/os_core.c ****              p_tcb->TS         = ts;
 1234              		.loc 1 970 0
 1235 0082 BB68     		ldr	r3, [r7, #8]
 1236 0084 7A68     		ldr	r2, [r7, #4]
ARM GAS  C:\Users\EDULU~1.DES\AppData\Local\Temp\ccYz4yx3.s 			page 40


 1237 0086 1A64     		str	r2, [r3, #64]
 971:..\..\..\..\..\..\Software\uCOS-III\Source/os_core.c ****              if (p_obj != (OS_PEND_OBJ *)0) {
 1238              		.loc 1 971 0
 1239 0088 FB68     		ldr	r3, [r7, #12]
 1240 008a 002B     		cmp	r3, #0
 1241 008c 03D0     		beq	.L94
 972:..\..\..\..\..\..\Software\uCOS-III\Source/os_core.c ****                  OS_PendListRemove(p_tcb);                       /* Remove task from all pend lists
 1242              		.loc 1 972 0
 1243 008e BB68     		ldr	r3, [r7, #8]
 1244 0090 1800     		movs	r0, r3
 1245 0092 FFF7FEFF 		bl	OS_PendListRemove
 1246              	.L94:
 973:..\..\..\..\..\..\Software\uCOS-III\Source/os_core.c ****              }
 974:..\..\..\..\..\..\Software\uCOS-III\Source/os_core.c ****              OS_TickListRemove(p_tcb);                           /* Cancel the timeout             
 1247              		.loc 1 974 0
 1248 0096 BB68     		ldr	r3, [r7, #8]
 1249 0098 1800     		movs	r0, r3
 1250 009a FFF7FEFF 		bl	OS_TickListRemove
 975:..\..\..\..\..\..\Software\uCOS-III\Source/os_core.c ****              p_tcb->TaskState  = OS_TASK_STATE_SUSPENDED;        /* Pend Aborted task is still susp
 1251              		.loc 1 975 0
 1252 009e BB68     		ldr	r3, [r7, #8]
 1253 00a0 3622     		movs	r2, #54
 1254 00a2 0421     		movs	r1, #4
 1255 00a4 9954     		strb	r1, [r3, r2]
 976:..\..\..\..\..\..\Software\uCOS-III\Source/os_core.c ****              p_tcb->PendStatus = OS_STATUS_PEND_ABORT;           /* Indicate pend was aborted      
 1256              		.loc 1 976 0
 1257 00a6 BB68     		ldr	r3, [r7, #8]
 1258 00a8 3522     		movs	r2, #53
 1259 00aa 0121     		movs	r1, #1
 1260 00ac 9954     		strb	r1, [r3, r2]
 977:..\..\..\..\..\..\Software\uCOS-III\Source/os_core.c ****              p_tcb->PendOn     = OS_TASK_PEND_ON_NOTHING;        /* Indicate no longer pending     
 1261              		.loc 1 977 0
 1262 00ae BB68     		ldr	r3, [r7, #8]
 1263 00b0 3422     		movs	r2, #52
 1264 00b2 0021     		movs	r1, #0
 1265 00b4 9954     		strb	r1, [r3, r2]
 978:..\..\..\..\..\..\Software\uCOS-III\Source/os_core.c ****              break;
 1266              		.loc 1 978 0
 1267 00b6 02E0     		b	.L90
 1268              	.L95:
 979:..\..\..\..\..\..\Software\uCOS-III\Source/os_core.c **** 
 980:..\..\..\..\..\..\Software\uCOS-III\Source/os_core.c ****         default:
 981:..\..\..\..\..\..\Software\uCOS-III\Source/os_core.c ****              break;
 1269              		.loc 1 981 0
 1270 00b8 C046     		nop
 1271 00ba 00E0     		b	.L90
 1272              	.L96:
 936:..\..\..\..\..\..\Software\uCOS-III\Source/os_core.c **** 
 1273              		.loc 1 936 0
 1274 00bc C046     		nop
 1275              	.L90:
 982:..\..\..\..\..\..\Software\uCOS-III\Source/os_core.c ****     }
 983:..\..\..\..\..\..\Software\uCOS-III\Source/os_core.c **** }
 1276              		.loc 1 983 0
 1277 00be C046     		nop
 1278 00c0 BD46     		mov	sp, r7
 1279 00c2 04B0     		add	sp, sp, #16
ARM GAS  C:\Users\EDULU~1.DES\AppData\Local\Temp\ccYz4yx3.s 			page 41


 1280              		@ sp needed
 1281 00c4 80BD     		pop	{r7, pc}
 1282              	.L98:
 1283 00c6 C046     		.align	2
 1284              	.L97:
 1285 00c8 14000000 		.word	.L87
 1286              		.cfi_endproc
 1287              	.LFE12:
 1288              		.size	OS_PendAbort, .-OS_PendAbort
 1289              		.section	.text.OS_PendAbort1,"ax",%progbits
 1290              		.align	2
 1291              		.global	OS_PendAbort1
 1292              		.code	16
 1293              		.thumb_func
 1294              		.type	OS_PendAbort1, %function
 1295              	OS_PendAbort1:
 1296              	.LFB13:
 984:..\..\..\..\..\..\Software\uCOS-III\Source/os_core.c **** 
 985:..\..\..\..\..\..\Software\uCOS-III\Source/os_core.c **** /*$PAGE*/
 986:..\..\..\..\..\..\Software\uCOS-III\Source/os_core.c **** /*
 987:..\..\..\..\..\..\Software\uCOS-III\Source/os_core.c **** ***************************************************************************************************
 988:..\..\..\..\..\..\Software\uCOS-III\Source/os_core.c **** *                                           PEND ABORT A TASK PENDING ON MULTIPLE OBJECTS
 989:..\..\..\..\..\..\Software\uCOS-III\Source/os_core.c **** *
 990:..\..\..\..\..\..\Software\uCOS-III\Source/os_core.c **** * Description: This function is called when a task is pending on multiple objects and one of the ob
 991:..\..\..\..\..\..\Software\uCOS-III\Source/os_core.c **** *              aborted.  This function needs to indicate to the caller which object was pend aborte
 992:..\..\..\..\..\..\Software\uCOS-III\Source/os_core.c **** *              address of the object in the OS_PEND_DATA table corresponding to the pend aborted ob
 993:..\..\..\..\..\..\Software\uCOS-III\Source/os_core.c **** *
 994:..\..\..\..\..\..\Software\uCOS-III\Source/os_core.c **** *              For example, if the task pends on six (6) objects, the address of those 6 objects ar
 995:..\..\..\..\..\..\Software\uCOS-III\Source/os_core.c **** *              .PendObjPtr field of the OS_PEND_DATA table as shown below.  Note that the .PendData
 996:..\..\..\..\..\..\Software\uCOS-III\Source/os_core.c **** *              OS_TCB would be set to six (6) in this case.  As shown, when the pend call returns b
 997:..\..\..\..\..\..\Software\uCOS-III\Source/os_core.c **** *              aborted 'Obj C' then, only the one entry contains the .RdyObjPtr filled in data and 
 998:..\..\..\..\..\..\Software\uCOS-III\Source/os_core.c **** *              contains NULL pointers and zero data.
 999:..\..\..\..\..\..\Software\uCOS-III\Source/os_core.c **** *
1000:..\..\..\..\..\..\Software\uCOS-III\Source/os_core.c **** *              You should note that the NULL pointers are zero data values are actually filled in b
1001:..\..\..\..\..\..\Software\uCOS-III\Source/os_core.c **** *
1002:..\..\..\..\..\..\Software\uCOS-III\Source/os_core.c **** *
1003:..\..\..\..\..\..\Software\uCOS-III\Source/os_core.c **** *                                           .PendObjPtr    .RdyObjPtr     .RdyMsgPtr     .RdyMsgSiz
1004:..\..\..\..\..\..\Software\uCOS-III\Source/os_core.c **** *                                         +--------------+--------------+--------------+-----------
1005:..\..\..\..\..\..\Software\uCOS-III\Source/os_core.c **** *              p_tcb->PendDataTblPtr  ->  |  Obj A       |  0           | 0            | 0         
1006:..\..\..\..\..\..\Software\uCOS-III\Source/os_core.c **** *                                         +--------------+--------------+--------------+-----------
1007:..\..\..\..\..\..\Software\uCOS-III\Source/os_core.c **** *                                         |  Obj B       |  0           | 0            | 0         
1008:..\..\..\..\..\..\Software\uCOS-III\Source/os_core.c **** *                                         +--------------+--------------+--------------+-----------
1009:..\..\..\..\..\..\Software\uCOS-III\Source/os_core.c **** *                                         |  Obj C       |  Obj C       | 0            | 0         
1010:..\..\..\..\..\..\Software\uCOS-III\Source/os_core.c **** *                                         +--------------+--------------+--------------+-----------
1011:..\..\..\..\..\..\Software\uCOS-III\Source/os_core.c **** *                                         |  Obj D       |  0           | 0            | 0         
1012:..\..\..\..\..\..\Software\uCOS-III\Source/os_core.c **** *                                         +--------------+--------------+--------------+-----------
1013:..\..\..\..\..\..\Software\uCOS-III\Source/os_core.c **** *                                         |  Obj E       |  0           | 0            | 0         
1014:..\..\..\..\..\..\Software\uCOS-III\Source/os_core.c **** *                                         +--------------+--------------+--------------+-----------
1015:..\..\..\..\..\..\Software\uCOS-III\Source/os_core.c **** *                                         |  Obj F       |  0           | 0            | 0         
1016:..\..\..\..\..\..\Software\uCOS-III\Source/os_core.c **** *                                         +--------------+--------------+--------------+-----------
1017:..\..\..\..\..\..\Software\uCOS-III\Source/os_core.c **** *
1018:..\..\..\..\..\..\Software\uCOS-III\Source/os_core.c **** *
1019:..\..\..\..\..\..\Software\uCOS-III\Source/os_core.c **** * Arguments  : p_obj        is a pointer to the object being pend aborted to
1020:..\..\..\..\..\..\Software\uCOS-III\Source/os_core.c **** *              -----
1021:..\..\..\..\..\..\Software\uCOS-III\Source/os_core.c **** *
1022:..\..\..\..\..\..\Software\uCOS-III\Source/os_core.c **** *              p_tcb        is a pointer to the OS_TCB of the task that we'll abort he pend for
1023:..\..\..\..\..\..\Software\uCOS-III\Source/os_core.c **** *              -----
ARM GAS  C:\Users\EDULU~1.DES\AppData\Local\Temp\ccYz4yx3.s 			page 42


1024:..\..\..\..\..\..\Software\uCOS-III\Source/os_core.c **** *
1025:..\..\..\..\..\..\Software\uCOS-III\Source/os_core.c **** *              ts           is the time stamp of when the pend abort occurred
1026:..\..\..\..\..\..\Software\uCOS-III\Source/os_core.c **** *
1027:..\..\..\..\..\..\Software\uCOS-III\Source/os_core.c **** * Returns    : none
1028:..\..\..\..\..\..\Software\uCOS-III\Source/os_core.c **** *
1029:..\..\..\..\..\..\Software\uCOS-III\Source/os_core.c **** * Note(s)    : 1) This function is INTERNAL to uC/OS-III and your application MUST NOT call it.
1030:..\..\..\..\..\..\Software\uCOS-III\Source/os_core.c **** ***************************************************************************************************
1031:..\..\..\..\..\..\Software\uCOS-III\Source/os_core.c **** */
1032:..\..\..\..\..\..\Software\uCOS-III\Source/os_core.c **** 
1033:..\..\..\..\..\..\Software\uCOS-III\Source/os_core.c **** void  OS_PendAbort1 (OS_PEND_OBJ  *p_obj,
1034:..\..\..\..\..\..\Software\uCOS-III\Source/os_core.c ****                      OS_TCB       *p_tcb,
1035:..\..\..\..\..\..\Software\uCOS-III\Source/os_core.c ****                      CPU_TS        ts)
1036:..\..\..\..\..\..\Software\uCOS-III\Source/os_core.c **** {
 1297              		.loc 1 1036 0
 1298              		.cfi_startproc
 1299              		@ args = 0, pretend = 0, frame = 24
 1300              		@ frame_needed = 1, uses_anonymous_args = 0
 1301 0000 80B5     		push	{r7, lr}
 1302              		.cfi_def_cfa_offset 8
 1303              		.cfi_offset 7, -8
 1304              		.cfi_offset 14, -4
 1305 0002 86B0     		sub	sp, sp, #24
 1306              		.cfi_def_cfa_offset 32
 1307 0004 00AF     		add	r7, sp, #0
 1308              		.cfi_def_cfa_register 7
 1309 0006 F860     		str	r0, [r7, #12]
 1310 0008 B960     		str	r1, [r7, #8]
 1311 000a 7A60     		str	r2, [r7, #4]
1037:..\..\..\..\..\..\Software\uCOS-III\Source/os_core.c ****     OS_OBJ_QTY      n_pend_list;                                    /* Number of pend lists        
1038:..\..\..\..\..\..\Software\uCOS-III\Source/os_core.c ****     OS_PEND_DATA   *p_pend_data;
1039:..\..\..\..\..\..\Software\uCOS-III\Source/os_core.c **** 
1040:..\..\..\..\..\..\Software\uCOS-III\Source/os_core.c **** 
1041:..\..\..\..\..\..\Software\uCOS-III\Source/os_core.c **** 
1042:..\..\..\..\..\..\Software\uCOS-III\Source/os_core.c ****     p_pend_data = p_tcb->PendDataTblPtr;                            /* Point to the first OS_PEND_D
 1312              		.loc 1 1042 0
 1313 000c BB68     		ldr	r3, [r7, #8]
 1314 000e 1B6B     		ldr	r3, [r3, #48]
 1315 0010 3B61     		str	r3, [r7, #16]
1043:..\..\..\..\..\..\Software\uCOS-III\Source/os_core.c ****     n_pend_list = p_tcb->PendDataTblEntries;                        /* Get number of entries in the
 1316              		.loc 1 1043 0
 1317 0012 1623     		movs	r3, #22
 1318 0014 FB18     		adds	r3, r7, r3
 1319 0016 BA68     		ldr	r2, [r7, #8]
 1320 0018 D28F     		ldrh	r2, [r2, #62]
 1321 001a 1A80     		strh	r2, [r3]
1044:..\..\..\..\..\..\Software\uCOS-III\Source/os_core.c **** 
1045:..\..\..\..\..\..\Software\uCOS-III\Source/os_core.c ****     while (n_pend_list > (OS_OBJ_QTY)0) {                           /* Mark posted object in OS_PEN
 1322              		.loc 1 1045 0
 1323 001c 15E0     		b	.L100
 1324              	.L103:
1046:..\..\..\..\..\..\Software\uCOS-III\Source/os_core.c ****         if (p_obj == p_pend_data->PendObjPtr) {                     /* Did we find the object pend 
 1325              		.loc 1 1046 0
 1326 001e 3B69     		ldr	r3, [r7, #16]
 1327 0020 DA68     		ldr	r2, [r3, #12]
 1328 0022 FB68     		ldr	r3, [r7, #12]
 1329 0024 9A42     		cmp	r2, r3
 1330 0026 06D1     		bne	.L101
ARM GAS  C:\Users\EDULU~1.DES\AppData\Local\Temp\ccYz4yx3.s 			page 43


1047:..\..\..\..\..\..\Software\uCOS-III\Source/os_core.c ****             p_pend_data->RdyObjPtr = p_obj;                         /* Yes, indicate the object in 
 1331              		.loc 1 1047 0
 1332 0028 3B69     		ldr	r3, [r7, #16]
 1333 002a FA68     		ldr	r2, [r7, #12]
 1334 002c 1A61     		str	r2, [r3, #16]
1048:..\..\..\..\..\..\Software\uCOS-III\Source/os_core.c ****             p_pend_data->RdyTS     = ts;                            /*      save the timestamp of t
 1335              		.loc 1 1048 0
 1336 002e 3B69     		ldr	r3, [r7, #16]
 1337 0030 7A68     		ldr	r2, [r7, #4]
 1338 0032 DA61     		str	r2, [r3, #28]
1049:..\..\..\..\..\..\Software\uCOS-III\Source/os_core.c ****             break;
 1339              		.loc 1 1049 0
 1340 0034 0EE0     		b	.L102
 1341              	.L101:
1050:..\..\..\..\..\..\Software\uCOS-III\Source/os_core.c ****         }
1051:..\..\..\..\..\..\Software\uCOS-III\Source/os_core.c ****         p_pend_data++;
 1342              		.loc 1 1051 0
 1343 0036 3B69     		ldr	r3, [r7, #16]
 1344 0038 2033     		adds	r3, r3, #32
 1345 003a 3B61     		str	r3, [r7, #16]
1052:..\..\..\..\..\..\Software\uCOS-III\Source/os_core.c ****         n_pend_list--;
 1346              		.loc 1 1052 0
 1347 003c 1623     		movs	r3, #22
 1348 003e FB18     		adds	r3, r7, r3
 1349 0040 1A88     		ldrh	r2, [r3]
 1350 0042 1623     		movs	r3, #22
 1351 0044 FB18     		adds	r3, r7, r3
 1352 0046 013A     		subs	r2, r2, #1
 1353 0048 1A80     		strh	r2, [r3]
 1354              	.L100:
1045:..\..\..\..\..\..\Software\uCOS-III\Source/os_core.c ****         if (p_obj == p_pend_data->PendObjPtr) {                     /* Did we find the object pend 
 1355              		.loc 1 1045 0
 1356 004a 1623     		movs	r3, #22
 1357 004c FB18     		adds	r3, r7, r3
 1358 004e 1B88     		ldrh	r3, [r3]
 1359 0050 002B     		cmp	r3, #0
 1360 0052 E4D1     		bne	.L103
 1361              	.L102:
1053:..\..\..\..\..\..\Software\uCOS-III\Source/os_core.c ****     }
1054:..\..\..\..\..\..\Software\uCOS-III\Source/os_core.c **** }
 1362              		.loc 1 1054 0
 1363 0054 C046     		nop
 1364 0056 BD46     		mov	sp, r7
 1365 0058 06B0     		add	sp, sp, #24
 1366              		@ sp needed
 1367 005a 80BD     		pop	{r7, pc}
 1368              		.cfi_endproc
 1369              	.LFE13:
 1370              		.size	OS_PendAbort1, .-OS_PendAbort1
 1371              		.section	.text.OS_PendDataInit,"ax",%progbits
 1372              		.align	2
 1373              		.global	OS_PendDataInit
 1374              		.code	16
 1375              		.thumb_func
 1376              		.type	OS_PendDataInit, %function
 1377              	OS_PendDataInit:
 1378              	.LFB14:
ARM GAS  C:\Users\EDULU~1.DES\AppData\Local\Temp\ccYz4yx3.s 			page 44


1055:..\..\..\..\..\..\Software\uCOS-III\Source/os_core.c **** 
1056:..\..\..\..\..\..\Software\uCOS-III\Source/os_core.c **** /*$PAGE*/
1057:..\..\..\..\..\..\Software\uCOS-III\Source/os_core.c **** /*
1058:..\..\..\..\..\..\Software\uCOS-III\Source/os_core.c **** ***************************************************************************************************
1059:..\..\..\..\..\..\Software\uCOS-III\Source/os_core.c **** *                                              INITIALIZE A WAIT LIST TABLE
1060:..\..\..\..\..\..\Software\uCOS-III\Source/os_core.c **** *
1061:..\..\..\..\..\..\Software\uCOS-III\Source/os_core.c **** * Description: This function is called to initialize the fields of a table of OS_PEND_DATA entries.
1062:..\..\..\..\..\..\Software\uCOS-III\Source/os_core.c **** *              the .PendObjPtr field of each entry in the table is set by the caller and thus will 
1063:..\..\..\..\..\..\Software\uCOS-III\Source/os_core.c **** *              this function.
1064:..\..\..\..\..\..\Software\uCOS-III\Source/os_core.c **** *
1065:..\..\..\..\..\..\Software\uCOS-III\Source/os_core.c **** * Arguments  : p_tcb              is a pointer to the TCB of the task that we want to pend abort.
1066:..\..\..\..\..\..\Software\uCOS-III\Source/os_core.c **** *              -----
1067:..\..\..\..\..\..\Software\uCOS-III\Source/os_core.c **** *
1068:..\..\..\..\..\..\Software\uCOS-III\Source/os_core.c **** *              p_pend_data_tbl    is a pointer to a table (see below) of OS_PEND_DATA elements to i
1069:..\..\..\..\..\..\Software\uCOS-III\Source/os_core.c **** *              ---------------
1070:..\..\..\..\..\..\Software\uCOS-III\Source/os_core.c **** *
1071:..\..\..\..\..\..\Software\uCOS-III\Source/os_core.c **** *                                  .PendObjPtr .RdyObjPtr .RdyMsgPtr .RdyMsgSize .RdyTS .TCBPtr .Ne
1072:..\..\..\..\..\..\Software\uCOS-III\Source/os_core.c **** *                                 +-----------+----------+----------+-----------+------+-------+---
1073:..\..\..\..\..\..\Software\uCOS-III\Source/os_core.c **** *               p_pend_data_tbl-> |     ?     |  0       | 0        | 0         | 0    | p_tcb | 0 
1074:..\..\..\..\..\..\Software\uCOS-III\Source/os_core.c **** *                                 +-----------+----------+----------+-----------+------+-------+---
1075:..\..\..\..\..\..\Software\uCOS-III\Source/os_core.c **** *                                 |     ?     |  0       | 0        | 0         | 0    | p_tcb | 0 
1076:..\..\..\..\..\..\Software\uCOS-III\Source/os_core.c **** *                                 +-----------+----------+----------+-----------+------+-------+---
1077:..\..\..\..\..\..\Software\uCOS-III\Source/os_core.c **** *                                 |     ?     |  0       | 0        | 0         | 0    | p_tcb | 0 
1078:..\..\..\..\..\..\Software\uCOS-III\Source/os_core.c **** *                                 +-----------+----------+----------+-----------+------+-------+---
1079:..\..\..\..\..\..\Software\uCOS-III\Source/os_core.c **** *                                 |     ?     |  0       | 0        | 0         | 0    | p_tcb | 0 
1080:..\..\..\..\..\..\Software\uCOS-III\Source/os_core.c **** *                                 +-----------+----------+----------+-----------+------+-------+---
1081:..\..\..\..\..\..\Software\uCOS-III\Source/os_core.c **** *                                 |     ?     |  0       | 0        | 0         | 0    | p_tcb | 0 
1082:..\..\..\..\..\..\Software\uCOS-III\Source/os_core.c **** *                                 +-----------+----------+----------+-----------+------+-------+---
1083:..\..\..\..\..\..\Software\uCOS-III\Source/os_core.c **** *                                 |     ?     |  0       | 0        | 0         | 0    | p_tcb | 0 
1084:..\..\..\..\..\..\Software\uCOS-III\Source/os_core.c **** *                                 +-----------+----------+----------+-----------+------+-------+---
1085:..\..\..\..\..\..\Software\uCOS-III\Source/os_core.c **** *
1086:..\..\..\..\..\..\Software\uCOS-III\Source/os_core.c **** *              tbl_size           is the size of the table in number of entries
1087:..\..\..\..\..\..\Software\uCOS-III\Source/os_core.c **** *
1088:..\..\..\..\..\..\Software\uCOS-III\Source/os_core.c **** * Returns    : none
1089:..\..\..\..\..\..\Software\uCOS-III\Source/os_core.c **** *
1090:..\..\..\..\..\..\Software\uCOS-III\Source/os_core.c **** * Note(s)    : 1) This function is INTERNAL to uC/OS-III and your application must not call it.
1091:..\..\..\..\..\..\Software\uCOS-III\Source/os_core.c **** *
1092:..\..\..\..\..\..\Software\uCOS-III\Source/os_core.c **** *              2) It's possible for the table to be of size 1 when multi-pend is not used
1093:..\..\..\..\..\..\Software\uCOS-III\Source/os_core.c **** *
1094:..\..\..\..\..\..\Software\uCOS-III\Source/os_core.c **** *              3) Note that the .PendObjPtr is NOT touched because it's assumed to be set by the ca
1095:..\..\..\..\..\..\Software\uCOS-III\Source/os_core.c **** ***************************************************************************************************
1096:..\..\..\..\..\..\Software\uCOS-III\Source/os_core.c **** */
1097:..\..\..\..\..\..\Software\uCOS-III\Source/os_core.c **** 
1098:..\..\..\..\..\..\Software\uCOS-III\Source/os_core.c **** void  OS_PendDataInit (OS_TCB        *p_tcb,
1099:..\..\..\..\..\..\Software\uCOS-III\Source/os_core.c ****                        OS_PEND_DATA  *p_pend_data_tbl,
1100:..\..\..\..\..\..\Software\uCOS-III\Source/os_core.c ****                        OS_OBJ_QTY     tbl_size)
1101:..\..\..\..\..\..\Software\uCOS-III\Source/os_core.c **** {
 1379              		.loc 1 1101 0
 1380              		.cfi_startproc
 1381              		@ args = 0, pretend = 0, frame = 24
 1382              		@ frame_needed = 1, uses_anonymous_args = 0
 1383 0000 80B5     		push	{r7, lr}
 1384              		.cfi_def_cfa_offset 8
 1385              		.cfi_offset 7, -8
 1386              		.cfi_offset 14, -4
 1387 0002 86B0     		sub	sp, sp, #24
 1388              		.cfi_def_cfa_offset 32
ARM GAS  C:\Users\EDULU~1.DES\AppData\Local\Temp\ccYz4yx3.s 			page 45


 1389 0004 00AF     		add	r7, sp, #0
 1390              		.cfi_def_cfa_register 7
 1391 0006 F860     		str	r0, [r7, #12]
 1392 0008 B960     		str	r1, [r7, #8]
 1393 000a BB1D     		adds	r3, r7, #6
 1394 000c 1A80     		strh	r2, [r3]
1102:..\..\..\..\..\..\Software\uCOS-III\Source/os_core.c ****     OS_OBJ_QTY  i;
1103:..\..\..\..\..\..\Software\uCOS-III\Source/os_core.c **** 
1104:..\..\..\..\..\..\Software\uCOS-III\Source/os_core.c **** 
1105:..\..\..\..\..\..\Software\uCOS-III\Source/os_core.c **** 
1106:..\..\..\..\..\..\Software\uCOS-III\Source/os_core.c ****     p_tcb->PendDataTblEntries = tbl_size;                   /* Link the TCB to the beginning of the
 1395              		.loc 1 1106 0
 1396 000e FB68     		ldr	r3, [r7, #12]
 1397 0010 BA1D     		adds	r2, r7, #6
 1398 0012 1288     		ldrh	r2, [r2]
 1399 0014 DA87     		strh	r2, [r3, #62]
1107:..\..\..\..\..\..\Software\uCOS-III\Source/os_core.c ****     p_tcb->PendDataTblPtr     = p_pend_data_tbl;
 1400              		.loc 1 1107 0
 1401 0016 FB68     		ldr	r3, [r7, #12]
 1402 0018 BA68     		ldr	r2, [r7, #8]
 1403 001a 1A63     		str	r2, [r3, #48]
1108:..\..\..\..\..\..\Software\uCOS-III\Source/os_core.c **** 
1109:..\..\..\..\..\..\Software\uCOS-III\Source/os_core.c ****     for (i = 0u; i < tbl_size; i++) {
 1404              		.loc 1 1109 0
 1405 001c 1623     		movs	r3, #22
 1406 001e FB18     		adds	r3, r7, r3
 1407 0020 0022     		movs	r2, #0
 1408 0022 1A80     		strh	r2, [r3]
 1409 0024 1EE0     		b	.L105
 1410              	.L106:
1110:..\..\..\..\..\..\Software\uCOS-III\Source/os_core.c ****         p_pend_data_tbl->NextPtr    = (OS_PEND_DATA *)0;    /* Initialize all the fields           
 1411              		.loc 1 1110 0 discriminator 3
 1412 0026 BB68     		ldr	r3, [r7, #8]
 1413 0028 0022     		movs	r2, #0
 1414 002a 5A60     		str	r2, [r3, #4]
1111:..\..\..\..\..\..\Software\uCOS-III\Source/os_core.c ****         p_pend_data_tbl->PrevPtr    = (OS_PEND_DATA *)0;
 1415              		.loc 1 1111 0 discriminator 3
 1416 002c BB68     		ldr	r3, [r7, #8]
 1417 002e 0022     		movs	r2, #0
 1418 0030 1A60     		str	r2, [r3]
1112:..\..\..\..\..\..\Software\uCOS-III\Source/os_core.c ****         p_pend_data_tbl->RdyObjPtr  = (OS_PEND_OBJ  *)0;
 1419              		.loc 1 1112 0 discriminator 3
 1420 0032 BB68     		ldr	r3, [r7, #8]
 1421 0034 0022     		movs	r2, #0
 1422 0036 1A61     		str	r2, [r3, #16]
1113:..\..\..\..\..\..\Software\uCOS-III\Source/os_core.c ****         p_pend_data_tbl->RdyMsgPtr  = (void         *)0;
 1423              		.loc 1 1113 0 discriminator 3
 1424 0038 BB68     		ldr	r3, [r7, #8]
 1425 003a 0022     		movs	r2, #0
 1426 003c 5A61     		str	r2, [r3, #20]
1114:..\..\..\..\..\..\Software\uCOS-III\Source/os_core.c ****         p_pend_data_tbl->RdyMsgSize = (OS_MSG_SIZE   )0;
 1427              		.loc 1 1114 0 discriminator 3
 1428 003e BB68     		ldr	r3, [r7, #8]
 1429 0040 0022     		movs	r2, #0
 1430 0042 1A83     		strh	r2, [r3, #24]
1115:..\..\..\..\..\..\Software\uCOS-III\Source/os_core.c ****         p_pend_data_tbl->RdyTS      = (CPU_TS        )0;
 1431              		.loc 1 1115 0 discriminator 3
ARM GAS  C:\Users\EDULU~1.DES\AppData\Local\Temp\ccYz4yx3.s 			page 46


 1432 0044 BB68     		ldr	r3, [r7, #8]
 1433 0046 0022     		movs	r2, #0
 1434 0048 DA61     		str	r2, [r3, #28]
1116:..\..\..\..\..\..\Software\uCOS-III\Source/os_core.c ****         p_pend_data_tbl->TCBPtr     = p_tcb;                /* Every entry points back to the TCB o
 1435              		.loc 1 1116 0 discriminator 3
 1436 004a BB68     		ldr	r3, [r7, #8]
 1437 004c FA68     		ldr	r2, [r7, #12]
 1438 004e 9A60     		str	r2, [r3, #8]
1117:..\..\..\..\..\..\Software\uCOS-III\Source/os_core.c ****         p_pend_data_tbl++;
 1439              		.loc 1 1117 0 discriminator 3
 1440 0050 BB68     		ldr	r3, [r7, #8]
 1441 0052 2033     		adds	r3, r3, #32
 1442 0054 BB60     		str	r3, [r7, #8]
1109:..\..\..\..\..\..\Software\uCOS-III\Source/os_core.c ****         p_pend_data_tbl->NextPtr    = (OS_PEND_DATA *)0;    /* Initialize all the fields           
 1443              		.loc 1 1109 0 discriminator 3
 1444 0056 1623     		movs	r3, #22
 1445 0058 FB18     		adds	r3, r7, r3
 1446 005a 1A88     		ldrh	r2, [r3]
 1447 005c 1623     		movs	r3, #22
 1448 005e FB18     		adds	r3, r7, r3
 1449 0060 0132     		adds	r2, r2, #1
 1450 0062 1A80     		strh	r2, [r3]
 1451              	.L105:
1109:..\..\..\..\..\..\Software\uCOS-III\Source/os_core.c ****         p_pend_data_tbl->NextPtr    = (OS_PEND_DATA *)0;    /* Initialize all the fields           
 1452              		.loc 1 1109 0 is_stmt 0 discriminator 1
 1453 0064 1623     		movs	r3, #22
 1454 0066 FA18     		adds	r2, r7, r3
 1455 0068 BB1D     		adds	r3, r7, #6
 1456 006a 1288     		ldrh	r2, [r2]
 1457 006c 1B88     		ldrh	r3, [r3]
 1458 006e 9A42     		cmp	r2, r3
 1459 0070 D9D3     		bcc	.L106
1118:..\..\..\..\..\..\Software\uCOS-III\Source/os_core.c ****     }
1119:..\..\..\..\..\..\Software\uCOS-III\Source/os_core.c **** }
 1460              		.loc 1 1119 0 is_stmt 1
 1461 0072 C046     		nop
 1462 0074 BD46     		mov	sp, r7
 1463 0076 06B0     		add	sp, sp, #24
 1464              		@ sp needed
 1465 0078 80BD     		pop	{r7, pc}
 1466              		.cfi_endproc
 1467              	.LFE14:
 1468              		.size	OS_PendDataInit, .-OS_PendDataInit
 1469 007a C046     		.section	.rodata
 1470              		.align	2
 1471              	.LC52:
 1472 0034 5461736B 		.ascii	"Task Q\000"
 1472      205100
 1473 003b 00       		.align	2
 1474              	.LC54:
 1475 003c 5461736B 		.ascii	"Task Sem\000"
 1475      2053656D 
 1475      00
 1476 0045 000000   		.align	2
 1477              	.LC56:
 1478 0048 2000     		.ascii	" \000"
 1479              		.section	.text.OS_PendDbgNameAdd,"ax",%progbits
ARM GAS  C:\Users\EDULU~1.DES\AppData\Local\Temp\ccYz4yx3.s 			page 47


 1480              		.align	2
 1481              		.global	OS_PendDbgNameAdd
 1482              		.code	16
 1483              		.thumb_func
 1484              		.type	OS_PendDbgNameAdd, %function
 1485              	OS_PendDbgNameAdd:
 1486              	.LFB15:
1120:..\..\..\..\..\..\Software\uCOS-III\Source/os_core.c **** 
1121:..\..\..\..\..\..\Software\uCOS-III\Source/os_core.c **** /*$PAGE*/
1122:..\..\..\..\..\..\Software\uCOS-III\Source/os_core.c **** /*
1123:..\..\..\..\..\..\Software\uCOS-III\Source/os_core.c **** ***************************************************************************************************
1124:..\..\..\..\..\..\Software\uCOS-III\Source/os_core.c **** *                                     ADD/REMOVE DEBUG NAMES TO PENDED OBJECT AND OS_TCB
1125:..\..\..\..\..\..\Software\uCOS-III\Source/os_core.c **** *
1126:..\..\..\..\..\..\Software\uCOS-III\Source/os_core.c **** * Description: These functions are used to add pointers to ASCII 'names' of objects so they can eas
1127:..\..\..\..\..\..\Software\uCOS-III\Source/os_core.c **** *              using a kernel aware tool.
1128:..\..\..\..\..\..\Software\uCOS-III\Source/os_core.c **** *
1129:..\..\..\..\..\..\Software\uCOS-III\Source/os_core.c **** * Arguments  : p_obj              is a pointer to the object being pended on
1130:..\..\..\..\..\..\Software\uCOS-III\Source/os_core.c **** *
1131:..\..\..\..\..\..\Software\uCOS-III\Source/os_core.c **** *              p_tcb              is a pointer to the OS_TCB of the task pending on the object
1132:..\..\..\..\..\..\Software\uCOS-III\Source/os_core.c **** *
1133:..\..\..\..\..\..\Software\uCOS-III\Source/os_core.c **** * Returns    : none
1134:..\..\..\..\..\..\Software\uCOS-III\Source/os_core.c **** *
1135:..\..\..\..\..\..\Software\uCOS-III\Source/os_core.c **** * Note(s)    : 1) These functions are INTERNAL to uC/OS-III and your application must not call it.
1136:..\..\..\..\..\..\Software\uCOS-III\Source/os_core.c **** ***************************************************************************************************
1137:..\..\..\..\..\..\Software\uCOS-III\Source/os_core.c **** */
1138:..\..\..\..\..\..\Software\uCOS-III\Source/os_core.c **** 
1139:..\..\..\..\..\..\Software\uCOS-III\Source/os_core.c **** 
1140:..\..\..\..\..\..\Software\uCOS-III\Source/os_core.c **** #if OS_CFG_DBG_EN > 0u
1141:..\..\..\..\..\..\Software\uCOS-III\Source/os_core.c **** void  OS_PendDbgNameAdd (OS_PEND_OBJ  *p_obj,
1142:..\..\..\..\..\..\Software\uCOS-III\Source/os_core.c ****                          OS_TCB       *p_tcb)
1143:..\..\..\..\..\..\Software\uCOS-III\Source/os_core.c **** {
 1487              		.loc 1 1143 0
 1488              		.cfi_startproc
 1489              		@ args = 0, pretend = 0, frame = 24
 1490              		@ frame_needed = 1, uses_anonymous_args = 0
 1491 0000 80B5     		push	{r7, lr}
 1492              		.cfi_def_cfa_offset 8
 1493              		.cfi_offset 7, -8
 1494              		.cfi_offset 14, -4
 1495 0002 86B0     		sub	sp, sp, #24
 1496              		.cfi_def_cfa_offset 32
 1497 0004 00AF     		add	r7, sp, #0
 1498              		.cfi_def_cfa_register 7
 1499 0006 7860     		str	r0, [r7, #4]
 1500 0008 3960     		str	r1, [r7]
1144:..\..\..\..\..\..\Software\uCOS-III\Source/os_core.c ****     OS_PEND_LIST  *p_pend_list;
1145:..\..\..\..\..\..\Software\uCOS-III\Source/os_core.c ****     OS_PEND_DATA  *p_pend_data;
1146:..\..\..\..\..\..\Software\uCOS-III\Source/os_core.c ****     OS_TCB        *p_tcb1;
1147:..\..\..\..\..\..\Software\uCOS-III\Source/os_core.c **** 
1148:..\..\..\..\..\..\Software\uCOS-III\Source/os_core.c **** 
1149:..\..\..\..\..\..\Software\uCOS-III\Source/os_core.c ****     if (p_obj != (OS_PEND_OBJ *)0) {
 1501              		.loc 1 1149 0
 1502 000a 7B68     		ldr	r3, [r7, #4]
 1503 000c 002B     		cmp	r3, #0
 1504 000e 11D0     		beq	.L108
1150:..\..\..\..\..\..\Software\uCOS-III\Source/os_core.c ****         p_tcb->DbgNamePtr =  p_obj->NamePtr;                /* Task pending on this object ... save
 1505              		.loc 1 1150 0
ARM GAS  C:\Users\EDULU~1.DES\AppData\Local\Temp\ccYz4yx3.s 			page 48


 1506 0010 7B68     		ldr	r3, [r7, #4]
 1507 0012 5A68     		ldr	r2, [r3, #4]
 1508 0014 3B68     		ldr	r3, [r7]
 1509 0016 9A67     		str	r2, [r3, #120]
1151:..\..\..\..\..\..\Software\uCOS-III\Source/os_core.c ****         p_pend_list       = &p_obj->PendList;               /* Find name of HP task pending on this
 1510              		.loc 1 1151 0
 1511 0018 7B68     		ldr	r3, [r7, #4]
 1512 001a 0833     		adds	r3, r3, #8
 1513 001c 7B61     		str	r3, [r7, #20]
1152:..\..\..\..\..\..\Software\uCOS-III\Source/os_core.c ****         p_pend_data       =  p_pend_list->HeadPtr;
 1514              		.loc 1 1152 0
 1515 001e 7B69     		ldr	r3, [r7, #20]
 1516 0020 1B68     		ldr	r3, [r3]
 1517 0022 3B61     		str	r3, [r7, #16]
1153:..\..\..\..\..\..\Software\uCOS-III\Source/os_core.c ****         p_tcb1            =  p_pend_data->TCBPtr;
 1518              		.loc 1 1153 0
 1519 0024 3B69     		ldr	r3, [r7, #16]
 1520 0026 9B68     		ldr	r3, [r3, #8]
 1521 0028 FB60     		str	r3, [r7, #12]
1154:..\..\..\..\..\..\Software\uCOS-III\Source/os_core.c ****         p_obj->DbgNamePtr = p_tcb1->NamePtr;                /* ... Save in object                  
 1522              		.loc 1 1154 0
 1523 002a FB68     		ldr	r3, [r7, #12]
 1524 002c 1A6A     		ldr	r2, [r3, #32]
 1525 002e 7B68     		ldr	r3, [r7, #4]
 1526 0030 DA61     		str	r2, [r3, #28]
1155:..\..\..\..\..\..\Software\uCOS-III\Source/os_core.c ****     } else {
1156:..\..\..\..\..\..\Software\uCOS-III\Source/os_core.c ****         switch (p_tcb->PendOn) {
1157:..\..\..\..\..\..\Software\uCOS-III\Source/os_core.c ****             case OS_TASK_PEND_ON_TASK_Q:
1158:..\..\..\..\..\..\Software\uCOS-III\Source/os_core.c ****                  p_tcb->DbgNamePtr = (CPU_CHAR *)((void *)"Task Q");
1159:..\..\..\..\..\..\Software\uCOS-III\Source/os_core.c ****                  break;
1160:..\..\..\..\..\..\Software\uCOS-III\Source/os_core.c **** 
1161:..\..\..\..\..\..\Software\uCOS-III\Source/os_core.c ****             case OS_TASK_PEND_ON_TASK_SEM:
1162:..\..\..\..\..\..\Software\uCOS-III\Source/os_core.c ****                  p_tcb->DbgNamePtr = (CPU_CHAR *)((void *)"Task Sem");
1163:..\..\..\..\..\..\Software\uCOS-III\Source/os_core.c ****                  break;
1164:..\..\..\..\..\..\Software\uCOS-III\Source/os_core.c **** 
1165:..\..\..\..\..\..\Software\uCOS-III\Source/os_core.c ****             default:
1166:..\..\..\..\..\..\Software\uCOS-III\Source/os_core.c ****                  p_tcb->DbgNamePtr = (CPU_CHAR *)((void *)" ");
1167:..\..\..\..\..\..\Software\uCOS-III\Source/os_core.c ****                  break;
1168:..\..\..\..\..\..\Software\uCOS-III\Source/os_core.c ****         }
1169:..\..\..\..\..\..\Software\uCOS-III\Source/os_core.c ****     }
1170:..\..\..\..\..\..\Software\uCOS-III\Source/os_core.c **** }
 1527              		.loc 1 1170 0
 1528 0032 13E0     		b	.L114
 1529              	.L108:
1156:..\..\..\..\..\..\Software\uCOS-III\Source/os_core.c ****             case OS_TASK_PEND_ON_TASK_Q:
 1530              		.loc 1 1156 0
 1531 0034 3B68     		ldr	r3, [r7]
 1532 0036 3422     		movs	r2, #52
 1533 0038 9B5C     		ldrb	r3, [r3, r2]
 1534 003a 022B     		cmp	r3, #2
 1535 003c 02D0     		beq	.L111
 1536 003e 072B     		cmp	r3, #7
 1537 0040 04D0     		beq	.L112
 1538 0042 07E0     		b	.L113
 1539              	.L111:
1158:..\..\..\..\..\..\Software\uCOS-III\Source/os_core.c ****                  break;
 1540              		.loc 1 1158 0
ARM GAS  C:\Users\EDULU~1.DES\AppData\Local\Temp\ccYz4yx3.s 			page 49


 1541 0044 3B68     		ldr	r3, [r7]
 1542 0046 074A     		ldr	r2, .L115
 1543 0048 9A67     		str	r2, [r3, #120]
1159:..\..\..\..\..\..\Software\uCOS-III\Source/os_core.c **** 
 1544              		.loc 1 1159 0
 1545 004a 07E0     		b	.L109
 1546              	.L112:
1162:..\..\..\..\..\..\Software\uCOS-III\Source/os_core.c ****                  break;
 1547              		.loc 1 1162 0
 1548 004c 3B68     		ldr	r3, [r7]
 1549 004e 064A     		ldr	r2, .L115+4
 1550 0050 9A67     		str	r2, [r3, #120]
1163:..\..\..\..\..\..\Software\uCOS-III\Source/os_core.c **** 
 1551              		.loc 1 1163 0
 1552 0052 03E0     		b	.L109
 1553              	.L113:
1166:..\..\..\..\..\..\Software\uCOS-III\Source/os_core.c ****                  break;
 1554              		.loc 1 1166 0
 1555 0054 3B68     		ldr	r3, [r7]
 1556 0056 054A     		ldr	r2, .L115+8
 1557 0058 9A67     		str	r2, [r3, #120]
1167:..\..\..\..\..\..\Software\uCOS-III\Source/os_core.c ****         }
 1558              		.loc 1 1167 0
 1559 005a C046     		nop
 1560              	.L109:
 1561              	.L114:
 1562              		.loc 1 1170 0
 1563 005c C046     		nop
 1564 005e BD46     		mov	sp, r7
 1565 0060 06B0     		add	sp, sp, #24
 1566              		@ sp needed
 1567 0062 80BD     		pop	{r7, pc}
 1568              	.L116:
 1569              		.align	2
 1570              	.L115:
 1571 0064 34000000 		.word	.LC52
 1572 0068 3C000000 		.word	.LC54
 1573 006c 48000000 		.word	.LC56
 1574              		.cfi_endproc
 1575              	.LFE15:
 1576              		.size	OS_PendDbgNameAdd, .-OS_PendDbgNameAdd
 1577              		.section	.text.OS_PendDbgNameRemove,"ax",%progbits
 1578              		.align	2
 1579              		.global	OS_PendDbgNameRemove
 1580              		.code	16
 1581              		.thumb_func
 1582              		.type	OS_PendDbgNameRemove, %function
 1583              	OS_PendDbgNameRemove:
 1584              	.LFB16:
1171:..\..\..\..\..\..\Software\uCOS-III\Source/os_core.c **** 
1172:..\..\..\..\..\..\Software\uCOS-III\Source/os_core.c **** 
1173:..\..\..\..\..\..\Software\uCOS-III\Source/os_core.c **** 
1174:..\..\..\..\..\..\Software\uCOS-III\Source/os_core.c **** void  OS_PendDbgNameRemove (OS_PEND_OBJ  *p_obj,
1175:..\..\..\..\..\..\Software\uCOS-III\Source/os_core.c ****                             OS_TCB       *p_tcb)
1176:..\..\..\..\..\..\Software\uCOS-III\Source/os_core.c **** {
 1585              		.loc 1 1176 0
 1586              		.cfi_startproc
ARM GAS  C:\Users\EDULU~1.DES\AppData\Local\Temp\ccYz4yx3.s 			page 50


 1587              		@ args = 0, pretend = 0, frame = 24
 1588              		@ frame_needed = 1, uses_anonymous_args = 0
 1589 0000 80B5     		push	{r7, lr}
 1590              		.cfi_def_cfa_offset 8
 1591              		.cfi_offset 7, -8
 1592              		.cfi_offset 14, -4
 1593 0002 86B0     		sub	sp, sp, #24
 1594              		.cfi_def_cfa_offset 32
 1595 0004 00AF     		add	r7, sp, #0
 1596              		.cfi_def_cfa_register 7
 1597 0006 7860     		str	r0, [r7, #4]
 1598 0008 3960     		str	r1, [r7]
1177:..\..\..\..\..\..\Software\uCOS-III\Source/os_core.c ****     OS_PEND_LIST  *p_pend_list;
1178:..\..\..\..\..\..\Software\uCOS-III\Source/os_core.c ****     OS_PEND_DATA  *p_pend_data;
1179:..\..\..\..\..\..\Software\uCOS-III\Source/os_core.c ****     OS_TCB        *p_tcb1;
1180:..\..\..\..\..\..\Software\uCOS-III\Source/os_core.c **** 
1181:..\..\..\..\..\..\Software\uCOS-III\Source/os_core.c **** 
1182:..\..\..\..\..\..\Software\uCOS-III\Source/os_core.c ****     p_tcb->DbgNamePtr = (CPU_CHAR *)((void *)" ");          /* Remove name of object pended on for 
 1599              		.loc 1 1182 0
 1600 000a 3B68     		ldr	r3, [r7]
 1601 000c 0C4A     		ldr	r2, .L121
 1602 000e 9A67     		str	r2, [r3, #120]
1183:..\..\..\..\..\..\Software\uCOS-III\Source/os_core.c ****     p_pend_list       = &p_obj->PendList;
 1603              		.loc 1 1183 0
 1604 0010 7B68     		ldr	r3, [r7, #4]
 1605 0012 0833     		adds	r3, r3, #8
 1606 0014 7B61     		str	r3, [r7, #20]
1184:..\..\..\..\..\..\Software\uCOS-III\Source/os_core.c ****     p_pend_data       =  p_pend_list->HeadPtr;
 1607              		.loc 1 1184 0
 1608 0016 7B69     		ldr	r3, [r7, #20]
 1609 0018 1B68     		ldr	r3, [r3]
 1610 001a 3B61     		str	r3, [r7, #16]
1185:..\..\..\..\..\..\Software\uCOS-III\Source/os_core.c ****     if (p_pend_data  != (OS_PEND_DATA *)0) {
 1611              		.loc 1 1185 0
 1612 001c 3B69     		ldr	r3, [r7, #16]
 1613 001e 002B     		cmp	r3, #0
 1614 0020 07D0     		beq	.L118
1186:..\..\..\..\..\..\Software\uCOS-III\Source/os_core.c ****         p_tcb1            = p_pend_data->TCBPtr;
 1615              		.loc 1 1186 0
 1616 0022 3B69     		ldr	r3, [r7, #16]
 1617 0024 9B68     		ldr	r3, [r3, #8]
 1618 0026 FB60     		str	r3, [r7, #12]
1187:..\..\..\..\..\..\Software\uCOS-III\Source/os_core.c ****         p_obj->DbgNamePtr = p_tcb1->NamePtr;
 1619              		.loc 1 1187 0
 1620 0028 FB68     		ldr	r3, [r7, #12]
 1621 002a 1A6A     		ldr	r2, [r3, #32]
 1622 002c 7B68     		ldr	r3, [r7, #4]
 1623 002e DA61     		str	r2, [r3, #28]
1188:..\..\..\..\..\..\Software\uCOS-III\Source/os_core.c ****     } else {
1189:..\..\..\..\..\..\Software\uCOS-III\Source/os_core.c ****         p_obj->DbgNamePtr = (CPU_CHAR *)((void *)" ");      /* No other task pending on object     
1190:..\..\..\..\..\..\Software\uCOS-III\Source/os_core.c ****     }
1191:..\..\..\..\..\..\Software\uCOS-III\Source/os_core.c **** }
 1624              		.loc 1 1191 0
 1625 0030 02E0     		b	.L120
 1626              	.L118:
1189:..\..\..\..\..\..\Software\uCOS-III\Source/os_core.c ****     }
 1627              		.loc 1 1189 0
ARM GAS  C:\Users\EDULU~1.DES\AppData\Local\Temp\ccYz4yx3.s 			page 51


 1628 0032 7B68     		ldr	r3, [r7, #4]
 1629 0034 024A     		ldr	r2, .L121
 1630 0036 DA61     		str	r2, [r3, #28]
 1631              	.L120:
 1632              		.loc 1 1191 0
 1633 0038 C046     		nop
 1634 003a BD46     		mov	sp, r7
 1635 003c 06B0     		add	sp, sp, #24
 1636              		@ sp needed
 1637 003e 80BD     		pop	{r7, pc}
 1638              	.L122:
 1639              		.align	2
 1640              	.L121:
 1641 0040 48000000 		.word	.LC56
 1642              		.cfi_endproc
 1643              	.LFE16:
 1644              		.size	OS_PendDbgNameRemove, .-OS_PendDbgNameRemove
 1645              		.section	.text.OS_PendListChangePrio,"ax",%progbits
 1646              		.align	2
 1647              		.global	OS_PendListChangePrio
 1648              		.code	16
 1649              		.thumb_func
 1650              		.type	OS_PendListChangePrio, %function
 1651              	OS_PendListChangePrio:
 1652              	.LFB17:
1192:..\..\..\..\..\..\Software\uCOS-III\Source/os_core.c **** #endif
1193:..\..\..\..\..\..\Software\uCOS-III\Source/os_core.c **** 
1194:..\..\..\..\..\..\Software\uCOS-III\Source/os_core.c **** /*$PAGE*/
1195:..\..\..\..\..\..\Software\uCOS-III\Source/os_core.c **** /*
1196:..\..\..\..\..\..\Software\uCOS-III\Source/os_core.c **** ***************************************************************************************************
1197:..\..\..\..\..\..\Software\uCOS-III\Source/os_core.c **** *                               CHANGE THE PRIORITY OF A TASK WAITING IN ONE OR MORE PEND LISTS
1198:..\..\..\..\..\..\Software\uCOS-III\Source/os_core.c **** *
1199:..\..\..\..\..\..\Software\uCOS-III\Source/os_core.c **** * Description: This function is called to change the position of a task waiting in one or more pend
1200:..\..\..\..\..\..\Software\uCOS-III\Source/os_core.c **** *              task can be waiting on multiple objects then each pend list needs to be updated.  Sp
1201:..\..\..\..\..\..\Software\uCOS-III\Source/os_core.c **** *              task can be the highest priority task waiting on one pend list, the lowest priority 
1202:..\..\..\..\..\..\Software\uCOS-III\Source/os_core.c **** *              another pend list or somewhere else in another pend list.  Because of this, we need 
1203:..\..\..\..\..\..\Software\uCOS-III\Source/os_core.c **** *              each of those pend lists individually.
1204:..\..\..\..\..\..\Software\uCOS-III\Source/os_core.c **** *
1205:..\..\..\..\..\..\Software\uCOS-III\Source/os_core.c **** *              The drawing below shows an example of a task (OS_TCB) that belongs to 3 separate pen
1206:..\..\..\..\..\..\Software\uCOS-III\Source/os_core.c **** *              pend list can contain multiple tasks (the .PrevPtr and .NextPtr show a '?' to indica
1207:..\..\..\..\..\..\Software\uCOS-III\Source/os_core.c **** *              contains a pointer (.PendDataTblPtr) to the first entry in the list of pend lists.
1208:..\..\..\..\..\..\Software\uCOS-III\Source/os_core.c **** *
1209:..\..\..\..\..\..\Software\uCOS-III\Source/os_core.c **** *                                                                                                  
1210:..\..\..\..\..\..\Software\uCOS-III\Source/os_core.c **** *                                                                                                  
1211:..\..\..\..\..\..\Software\uCOS-III\Source/os_core.c **** *                                                                                                  
1212:..\..\..\..\..\..\Software\uCOS-III\Source/os_core.c **** *                                                                                                  
1213:..\..\..\..\..\..\Software\uCOS-III\Source/os_core.c **** *                                                                                                  
1214:..\..\..\..\..\..\Software\uCOS-III\Source/os_core.c **** *                                      Point to first entry in the OS_PEND_DATA table (i.e. [0])   
1215:..\..\..\..\..\..\Software\uCOS-III\Source/os_core.c **** *                                          /-----------------------------<-------------------------
1216:..\..\..\..\..\..\Software\uCOS-III\Source/os_core.c **** *                                          |                                                       
1217:..\..\..\..\..\..\Software\uCOS-III\Source/os_core.c **** *                                          |                                                       
1218:..\..\..\..\..\..\Software\uCOS-III\Source/os_core.c **** *              OS_PEND_LIST                |                                                       
1219:..\..\..\..\..\..\Software\uCOS-III\Source/os_core.c **** *              +------------+              |                                                       
1220:..\..\..\..\..\..\Software\uCOS-III\Source/os_core.c **** *              | TailPtr    |              |                                                       
1221:..\..\..\..\..\..\Software\uCOS-III\Source/os_core.c **** *              +------------+              |                                                       
1222:..\..\..\..\..\..\Software\uCOS-III\Source/os_core.c **** *              | HeadPtr    |              |                                                       
1223:..\..\..\..\..\..\Software\uCOS-III\Source/os_core.c **** *              +------------+              |                                        /---------->---
ARM GAS  C:\Users\EDULU~1.DES\AppData\Local\Temp\ccYz4yx3.s 			page 52


1224:..\..\..\..\..\..\Software\uCOS-III\Source/os_core.c **** *              | NbrEntries |              |                                        |              
1225:..\..\..\..\..\..\Software\uCOS-III\Source/os_core.c **** *              +------------+     [0]      V   OS_PEND_DATA                         |              
1226:..\..\..\..\..\..\Software\uCOS-III\Source/os_core.c **** *                                     +---------+------------+-------+---------+--------+---------+
1227:..\..\..\..\..\..\Software\uCOS-III\Source/os_core.c **** *                             ? <---- | PrevPtr | PendObjPtr |       |         | TCBPtr | NextPtr |
1228:..\..\..\..\..\..\Software\uCOS-III\Source/os_core.c **** *                                     +---------+------------+-------+---------+--------+---------+
1229:..\..\..\..\..\..\Software\uCOS-III\Source/os_core.c **** *                                                                                                  
1230:..\..\..\..\..\..\Software\uCOS-III\Source/os_core.c **** *                                                                                                  
1231:..\..\..\..\..\..\Software\uCOS-III\Source/os_core.c **** *                                                                                                  
1232:..\..\..\..\..\..\Software\uCOS-III\Source/os_core.c **** *                                                                                                  
1233:..\..\..\..\..\..\Software\uCOS-III\Source/os_core.c **** *                                                                                                  
1234:..\..\..\..\..\..\Software\uCOS-III\Source/os_core.c **** *              OS_PEND_LIST                                                                Point ba
1235:..\..\..\..\..\..\Software\uCOS-III\Source/os_core.c **** *              +------------+                                                                      
1236:..\..\..\..\..\..\Software\uCOS-III\Source/os_core.c **** *              | TailPtr    |                                                                      
1237:..\..\..\..\..\..\Software\uCOS-III\Source/os_core.c **** *              +------------+                                                                      
1238:..\..\..\..\..\..\Software\uCOS-III\Source/os_core.c **** *              | HeadPtr    |                                                                      
1239:..\..\..\..\..\..\Software\uCOS-III\Source/os_core.c **** *              +------------+                                                      /----------->---
1240:..\..\..\..\..\..\Software\uCOS-III\Source/os_core.c **** *              | NbrEntries |                                                      |               
1241:..\..\..\..\..\..\Software\uCOS-III\Source/os_core.c **** *              +------------+     [1]          OS_PEND_DATA                        |               
1242:..\..\..\..\..\..\Software\uCOS-III\Source/os_core.c **** *                                     +---------+------------+-------+---------+--------+---------+
1243:..\..\..\..\..\..\Software\uCOS-III\Source/os_core.c **** *                             ? <---- | PrevPtr | PendObjPtr |       |         | TCBPtr | NextPtr |
1244:..\..\..\..\..\..\Software\uCOS-III\Source/os_core.c **** *                                     +---------+------------+-------+---------+--------+---------+
1245:..\..\..\..\..\..\Software\uCOS-III\Source/os_core.c **** *                                                                                                  
1246:..\..\..\..\..\..\Software\uCOS-III\Source/os_core.c **** *                                                                                                  
1247:..\..\..\..\..\..\Software\uCOS-III\Source/os_core.c **** *                                                                                                  
1248:..\..\..\..\..\..\Software\uCOS-III\Source/os_core.c **** *                                                                                                  
1249:..\..\..\..\..\..\Software\uCOS-III\Source/os_core.c **** *                                                                                                  
1250:..\..\..\..\..\..\Software\uCOS-III\Source/os_core.c **** *              OS_PEND_LIST                                                                        
1251:..\..\..\..\..\..\Software\uCOS-III\Source/os_core.c **** *              +------------+                                                                      
1252:..\..\..\..\..\..\Software\uCOS-III\Source/os_core.c **** *              | TailPtr    |                                                                      
1253:..\..\..\..\..\..\Software\uCOS-III\Source/os_core.c **** *              +------------+                                                                      
1254:..\..\..\..\..\..\Software\uCOS-III\Source/os_core.c **** *              | HeadPtr    |                                                                      
1255:..\..\..\..\..\..\Software\uCOS-III\Source/os_core.c **** *              +------------+                                                      /----------->---
1256:..\..\..\..\..\..\Software\uCOS-III\Source/os_core.c **** *              | NbrEntries |                                                      |
1257:..\..\..\..\..\..\Software\uCOS-III\Source/os_core.c **** *              +------------+     [2]          OS_PEND_DATA                        |
1258:..\..\..\..\..\..\Software\uCOS-III\Source/os_core.c **** *                                     +---------+------------+-------+---------+--------+---------+
1259:..\..\..\..\..\..\Software\uCOS-III\Source/os_core.c **** *                             ? <---- | PrevPtr | PendObjPtr |       |         | TCBPtr | NextPtr |
1260:..\..\..\..\..\..\Software\uCOS-III\Source/os_core.c **** *                                     +---------+------------+-------+---------+--------+---------+
1261:..\..\..\..\..\..\Software\uCOS-III\Source/os_core.c **** *
1262:..\..\..\..\..\..\Software\uCOS-III\Source/os_core.c **** *
1263:..\..\..\..\..\..\Software\uCOS-III\Source/os_core.c **** * Arguments  : p_tcb       is a pointer to the TCB of the task to move
1264:..\..\..\..\..\..\Software\uCOS-III\Source/os_core.c **** *              -----
1265:..\..\..\..\..\..\Software\uCOS-III\Source/os_core.c **** *
1266:..\..\..\..\..\..\Software\uCOS-III\Source/os_core.c **** *              prio_new    is the new priority for the task
1267:..\..\..\..\..\..\Software\uCOS-III\Source/os_core.c **** *
1268:..\..\..\..\..\..\Software\uCOS-III\Source/os_core.c **** * Returns    : none
1269:..\..\..\..\..\..\Software\uCOS-III\Source/os_core.c **** *
1270:..\..\..\..\..\..\Software\uCOS-III\Source/os_core.c **** * Note(s)    : 1) This function is INTERNAL to uC/OS-III and your application MUST NOT call it.
1271:..\..\..\..\..\..\Software\uCOS-III\Source/os_core.c **** *
1272:..\..\..\..\..\..\Software\uCOS-III\Source/os_core.c **** *              2) It's assumed that the TCB contains the NEW priority in its .Prio field.
1273:..\..\..\..\..\..\Software\uCOS-III\Source/os_core.c **** ***************************************************************************************************
1274:..\..\..\..\..\..\Software\uCOS-III\Source/os_core.c **** */
1275:..\..\..\..\..\..\Software\uCOS-III\Source/os_core.c **** 
1276:..\..\..\..\..\..\Software\uCOS-III\Source/os_core.c **** void  OS_PendListChangePrio (OS_TCB   *p_tcb,
1277:..\..\..\..\..\..\Software\uCOS-III\Source/os_core.c ****                              OS_PRIO   prio_new)
1278:..\..\..\..\..\..\Software\uCOS-III\Source/os_core.c **** {
 1653              		.loc 1 1278 0
 1654              		.cfi_startproc
ARM GAS  C:\Users\EDULU~1.DES\AppData\Local\Temp\ccYz4yx3.s 			page 53


 1655              		@ args = 0, pretend = 0, frame = 24
 1656              		@ frame_needed = 1, uses_anonymous_args = 0
 1657 0000 80B5     		push	{r7, lr}
 1658              		.cfi_def_cfa_offset 8
 1659              		.cfi_offset 7, -8
 1660              		.cfi_offset 14, -4
 1661 0002 86B0     		sub	sp, sp, #24
 1662              		.cfi_def_cfa_offset 32
 1663 0004 00AF     		add	r7, sp, #0
 1664              		.cfi_def_cfa_register 7
 1665 0006 7860     		str	r0, [r7, #4]
 1666 0008 0A00     		movs	r2, r1
 1667 000a FB1C     		adds	r3, r7, #3
 1668 000c 1A70     		strb	r2, [r3]
1279:..\..\..\..\..\..\Software\uCOS-III\Source/os_core.c ****     OS_OBJ_QTY      n_pend_list;                                    /* Number of pend lists        
1280:..\..\..\..\..\..\Software\uCOS-III\Source/os_core.c ****     OS_PEND_DATA   *p_pend_data;
1281:..\..\..\..\..\..\Software\uCOS-III\Source/os_core.c ****     OS_PEND_LIST   *p_pend_list;
1282:..\..\..\..\..\..\Software\uCOS-III\Source/os_core.c ****     OS_PEND_OBJ    *p_obj;
1283:..\..\..\..\..\..\Software\uCOS-III\Source/os_core.c **** 
1284:..\..\..\..\..\..\Software\uCOS-III\Source/os_core.c **** 
1285:..\..\..\..\..\..\Software\uCOS-III\Source/os_core.c ****     p_tcb->Prio = prio_new;
 1669              		.loc 1 1285 0
 1670 000e 7B68     		ldr	r3, [r7, #4]
 1671 0010 FA1C     		adds	r2, r7, #3
 1672 0012 3721     		movs	r1, #55
 1673 0014 1278     		ldrb	r2, [r2]
 1674 0016 5A54     		strb	r2, [r3, r1]
1286:..\..\..\..\..\..\Software\uCOS-III\Source/os_core.c ****     p_pend_data = p_tcb->PendDataTblPtr;                            /* Point to first wait list ent
 1675              		.loc 1 1286 0
 1676 0018 7B68     		ldr	r3, [r7, #4]
 1677 001a 1B6B     		ldr	r3, [r3, #48]
 1678 001c 3B61     		str	r3, [r7, #16]
1287:..\..\..\..\..\..\Software\uCOS-III\Source/os_core.c ****     n_pend_list = p_tcb->PendDataTblEntries;                        /* Get the number of pend list 
 1679              		.loc 1 1287 0
 1680 001e 1623     		movs	r3, #22
 1681 0020 FB18     		adds	r3, r7, r3
 1682 0022 7A68     		ldr	r2, [r7, #4]
 1683 0024 D28F     		ldrh	r2, [r2, #62]
 1684 0026 1A80     		strh	r2, [r3]
1288:..\..\..\..\..\..\Software\uCOS-III\Source/os_core.c **** 
1289:..\..\..\..\..\..\Software\uCOS-III\Source/os_core.c ****     while (n_pend_list > 0u) {
 1685              		.loc 1 1289 0
 1686 0028 1FE0     		b	.L124
 1687              	.L126:
1290:..\..\..\..\..\..\Software\uCOS-III\Source/os_core.c ****         p_obj       =  p_pend_data->PendObjPtr;                     /* Get pointer to pend list    
 1688              		.loc 1 1290 0
 1689 002a 3B69     		ldr	r3, [r7, #16]
 1690 002c DB68     		ldr	r3, [r3, #12]
 1691 002e FB60     		str	r3, [r7, #12]
1291:..\..\..\..\..\..\Software\uCOS-III\Source/os_core.c ****         p_pend_list = &p_obj->PendList;
 1692              		.loc 1 1291 0
 1693 0030 FB68     		ldr	r3, [r7, #12]
 1694 0032 0833     		adds	r3, r3, #8
 1695 0034 BB60     		str	r3, [r7, #8]
1292:..\..\..\..\..\..\Software\uCOS-III\Source/os_core.c ****         if (p_pend_list->NbrEntries > 1u) {                         /* Only move if multiple entrie
 1696              		.loc 1 1292 0
 1697 0036 BB68     		ldr	r3, [r7, #8]
ARM GAS  C:\Users\EDULU~1.DES\AppData\Local\Temp\ccYz4yx3.s 			page 54


 1698 0038 1B89     		ldrh	r3, [r3, #8]
 1699 003a 012B     		cmp	r3, #1
 1700 003c 0BD9     		bls	.L125
1293:..\..\..\..\..\..\Software\uCOS-III\Source/os_core.c ****             OS_PendListRemove1(p_pend_list,                         /* Remove entry from current po
 1701              		.loc 1 1293 0
 1702 003e 3A69     		ldr	r2, [r7, #16]
 1703 0040 BB68     		ldr	r3, [r7, #8]
 1704 0042 1100     		movs	r1, r2
 1705 0044 1800     		movs	r0, r3
 1706 0046 FFF7FEFF 		bl	OS_PendListRemove1
1294:..\..\..\..\..\..\Software\uCOS-III\Source/os_core.c ****                                p_pend_data);
1295:..\..\..\..\..\..\Software\uCOS-III\Source/os_core.c ****             OS_PendListInsertPrio(p_pend_list,                      /* INSERT it back in the list  
 1707              		.loc 1 1295 0
 1708 004a 3A69     		ldr	r2, [r7, #16]
 1709 004c BB68     		ldr	r3, [r7, #8]
 1710 004e 1100     		movs	r1, r2
 1711 0050 1800     		movs	r0, r3
 1712 0052 FFF7FEFF 		bl	OS_PendListInsertPrio
 1713              	.L125:
1296:..\..\..\..\..\..\Software\uCOS-III\Source/os_core.c ****                                   p_pend_data);
1297:..\..\..\..\..\..\Software\uCOS-III\Source/os_core.c ****         }
1298:..\..\..\..\..\..\Software\uCOS-III\Source/os_core.c ****         p_pend_data++;                                              /* Point to next wait list     
 1714              		.loc 1 1298 0
 1715 0056 3B69     		ldr	r3, [r7, #16]
 1716 0058 2033     		adds	r3, r3, #32
 1717 005a 3B61     		str	r3, [r7, #16]
1299:..\..\..\..\..\..\Software\uCOS-III\Source/os_core.c ****         n_pend_list--;
 1718              		.loc 1 1299 0
 1719 005c 1623     		movs	r3, #22
 1720 005e FB18     		adds	r3, r7, r3
 1721 0060 1A88     		ldrh	r2, [r3]
 1722 0062 1623     		movs	r3, #22
 1723 0064 FB18     		adds	r3, r7, r3
 1724 0066 013A     		subs	r2, r2, #1
 1725 0068 1A80     		strh	r2, [r3]
 1726              	.L124:
1289:..\..\..\..\..\..\Software\uCOS-III\Source/os_core.c ****         p_obj       =  p_pend_data->PendObjPtr;                     /* Get pointer to pend list    
 1727              		.loc 1 1289 0
 1728 006a 1623     		movs	r3, #22
 1729 006c FB18     		adds	r3, r7, r3
 1730 006e 1B88     		ldrh	r3, [r3]
 1731 0070 002B     		cmp	r3, #0
 1732 0072 DAD1     		bne	.L126
1300:..\..\..\..\..\..\Software\uCOS-III\Source/os_core.c ****     }
1301:..\..\..\..\..\..\Software\uCOS-III\Source/os_core.c **** }
 1733              		.loc 1 1301 0
 1734 0074 C046     		nop
 1735 0076 BD46     		mov	sp, r7
 1736 0078 06B0     		add	sp, sp, #24
 1737              		@ sp needed
 1738 007a 80BD     		pop	{r7, pc}
 1739              		.cfi_endproc
 1740              	.LFE17:
 1741              		.size	OS_PendListChangePrio, .-OS_PendListChangePrio
 1742              		.section	.text.OS_PendListInit,"ax",%progbits
 1743              		.align	2
 1744              		.global	OS_PendListInit
ARM GAS  C:\Users\EDULU~1.DES\AppData\Local\Temp\ccYz4yx3.s 			page 55


 1745              		.code	16
 1746              		.thumb_func
 1747              		.type	OS_PendListInit, %function
 1748              	OS_PendListInit:
 1749              	.LFB18:
1302:..\..\..\..\..\..\Software\uCOS-III\Source/os_core.c **** 
1303:..\..\..\..\..\..\Software\uCOS-III\Source/os_core.c **** /*$PAGE*/
1304:..\..\..\..\..\..\Software\uCOS-III\Source/os_core.c **** /*
1305:..\..\..\..\..\..\Software\uCOS-III\Source/os_core.c **** ***************************************************************************************************
1306:..\..\..\..\..\..\Software\uCOS-III\Source/os_core.c **** *                                                INITIALIZE A WAIT LIST
1307:..\..\..\..\..\..\Software\uCOS-III\Source/os_core.c **** *
1308:..\..\..\..\..\..\Software\uCOS-III\Source/os_core.c **** * Description: This function is called to initialize the fields of an OS_PEND_LIST.
1309:..\..\..\..\..\..\Software\uCOS-III\Source/os_core.c **** *
1310:..\..\..\..\..\..\Software\uCOS-III\Source/os_core.c **** * Arguments  : p_pend_list   is a pointer to an OS_PEND_LIST
1311:..\..\..\..\..\..\Software\uCOS-III\Source/os_core.c **** *              -----------
1312:..\..\..\..\..\..\Software\uCOS-III\Source/os_core.c **** *
1313:..\..\..\..\..\..\Software\uCOS-III\Source/os_core.c **** * Returns    : none
1314:..\..\..\..\..\..\Software\uCOS-III\Source/os_core.c **** *
1315:..\..\..\..\..\..\Software\uCOS-III\Source/os_core.c **** * Note(s)    : 1) This function is INTERNAL to uC/OS-III and your application must not call it.
1316:..\..\..\..\..\..\Software\uCOS-III\Source/os_core.c **** ***************************************************************************************************
1317:..\..\..\..\..\..\Software\uCOS-III\Source/os_core.c **** */
1318:..\..\..\..\..\..\Software\uCOS-III\Source/os_core.c **** 
1319:..\..\..\..\..\..\Software\uCOS-III\Source/os_core.c **** void  OS_PendListInit (OS_PEND_LIST  *p_pend_list)
1320:..\..\..\..\..\..\Software\uCOS-III\Source/os_core.c **** {
 1750              		.loc 1 1320 0
 1751              		.cfi_startproc
 1752              		@ args = 0, pretend = 0, frame = 8
 1753              		@ frame_needed = 1, uses_anonymous_args = 0
 1754 0000 80B5     		push	{r7, lr}
 1755              		.cfi_def_cfa_offset 8
 1756              		.cfi_offset 7, -8
 1757              		.cfi_offset 14, -4
 1758 0002 82B0     		sub	sp, sp, #8
 1759              		.cfi_def_cfa_offset 16
 1760 0004 00AF     		add	r7, sp, #0
 1761              		.cfi_def_cfa_register 7
 1762 0006 7860     		str	r0, [r7, #4]
1321:..\..\..\..\..\..\Software\uCOS-III\Source/os_core.c ****     p_pend_list->HeadPtr    = (OS_PEND_DATA *)0;
 1763              		.loc 1 1321 0
 1764 0008 7B68     		ldr	r3, [r7, #4]
 1765 000a 0022     		movs	r2, #0
 1766 000c 1A60     		str	r2, [r3]
1322:..\..\..\..\..\..\Software\uCOS-III\Source/os_core.c ****     p_pend_list->TailPtr    = (OS_PEND_DATA *)0;
 1767              		.loc 1 1322 0
 1768 000e 7B68     		ldr	r3, [r7, #4]
 1769 0010 0022     		movs	r2, #0
 1770 0012 5A60     		str	r2, [r3, #4]
1323:..\..\..\..\..\..\Software\uCOS-III\Source/os_core.c ****     p_pend_list->NbrEntries = (OS_OBJ_QTY    )0;
 1771              		.loc 1 1323 0
 1772 0014 7B68     		ldr	r3, [r7, #4]
 1773 0016 0022     		movs	r2, #0
 1774 0018 1A81     		strh	r2, [r3, #8]
1324:..\..\..\..\..\..\Software\uCOS-III\Source/os_core.c **** }
 1775              		.loc 1 1324 0
 1776 001a C046     		nop
 1777 001c BD46     		mov	sp, r7
 1778 001e 02B0     		add	sp, sp, #8
ARM GAS  C:\Users\EDULU~1.DES\AppData\Local\Temp\ccYz4yx3.s 			page 56


 1779              		@ sp needed
 1780 0020 80BD     		pop	{r7, pc}
 1781              		.cfi_endproc
 1782              	.LFE18:
 1783              		.size	OS_PendListInit, .-OS_PendListInit
 1784 0022 C046     		.section	.text.OS_PendListInsertHead,"ax",%progbits
 1785              		.align	2
 1786              		.global	OS_PendListInsertHead
 1787              		.code	16
 1788              		.thumb_func
 1789              		.type	OS_PendListInsertHead, %function
 1790              	OS_PendListInsertHead:
 1791              	.LFB19:
1325:..\..\..\..\..\..\Software\uCOS-III\Source/os_core.c **** 
1326:..\..\..\..\..\..\Software\uCOS-III\Source/os_core.c **** /*$PAGE*/
1327:..\..\..\..\..\..\Software\uCOS-III\Source/os_core.c **** /*
1328:..\..\..\..\..\..\Software\uCOS-III\Source/os_core.c **** ***************************************************************************************************
1329:..\..\..\..\..\..\Software\uCOS-III\Source/os_core.c **** *                                     INSERT PEND DATA AT THE BEGINNING OF A WAIT LIST
1330:..\..\..\..\..\..\Software\uCOS-III\Source/os_core.c **** *
1331:..\..\..\..\..\..\Software\uCOS-III\Source/os_core.c **** * Description: This function is called to place an OS_PEND_DATA entry at the beginning of a linked 
1332:..\..\..\..\..\..\Software\uCOS-III\Source/os_core.c **** *
1333:..\..\..\..\..\..\Software\uCOS-III\Source/os_core.c **** *              CASE 0: Insert in an empty list.
1334:..\..\..\..\..\..\Software\uCOS-III\Source/os_core.c **** *
1335:..\..\..\..\..\..\Software\uCOS-III\Source/os_core.c **** *                     OS_PEND_LIST
1336:..\..\..\..\..\..\Software\uCOS-III\Source/os_core.c **** *                     +--------------+
1337:..\..\..\..\..\..\Software\uCOS-III\Source/os_core.c **** *                     | TailPtr      |-> 0
1338:..\..\..\..\..\..\Software\uCOS-III\Source/os_core.c **** *                     +--------------+
1339:..\..\..\..\..\..\Software\uCOS-III\Source/os_core.c **** *                     | HeadPtr      |-> 0
1340:..\..\..\..\..\..\Software\uCOS-III\Source/os_core.c **** *                     +--------------+
1341:..\..\..\..\..\..\Software\uCOS-III\Source/os_core.c **** *                     | NbrEntries=0 |
1342:..\..\..\..\..\..\Software\uCOS-III\Source/os_core.c **** *                     +--------------+
1343:..\..\..\..\..\..\Software\uCOS-III\Source/os_core.c **** *
1344:..\..\..\..\..\..\Software\uCOS-III\Source/os_core.c **** *
1345:..\..\..\..\..\..\Software\uCOS-III\Source/os_core.c **** *
1346:..\..\..\..\..\..\Software\uCOS-III\Source/os_core.c **** *              CASE 1: Insert BEFORE the current head of list
1347:..\..\..\..\..\..\Software\uCOS-III\Source/os_core.c **** *
1348:..\..\..\..\..\..\Software\uCOS-III\Source/os_core.c **** *                     OS_PEND_LIST
1349:..\..\..\..\..\..\Software\uCOS-III\Source/os_core.c **** *                     +--------------+         OS_PEND_DATA
1350:..\..\..\..\..\..\Software\uCOS-III\Source/os_core.c **** *                     | TailPtr      |--+---> +------------+
1351:..\..\..\..\..\..\Software\uCOS-III\Source/os_core.c **** *                     +--------------+  |     | NextPtr    |->0
1352:..\..\..\..\..\..\Software\uCOS-III\Source/os_core.c **** *                     | HeadPtr      |--/     +------------+
1353:..\..\..\..\..\..\Software\uCOS-III\Source/os_core.c **** *                     +--------------+     0<-| PrevPtr    |
1354:..\..\..\..\..\..\Software\uCOS-III\Source/os_core.c **** *                     | NbrEntries=1 |        +------------+
1355:..\..\..\..\..\..\Software\uCOS-III\Source/os_core.c **** *                     +--------------+        |            |
1356:..\..\..\..\..\..\Software\uCOS-III\Source/os_core.c **** *                                             +------------+
1357:..\..\..\..\..\..\Software\uCOS-III\Source/os_core.c **** *                                             |            |
1358:..\..\..\..\..\..\Software\uCOS-III\Source/os_core.c **** *                                             +------------+
1359:..\..\..\..\..\..\Software\uCOS-III\Source/os_core.c **** *
1360:..\..\..\..\..\..\Software\uCOS-III\Source/os_core.c **** *
1361:..\..\..\..\..\..\Software\uCOS-III\Source/os_core.c **** * Arguments  : p_pend_list    is a pointer to a wait list found inside an object.  The OS_PEND_DATA
1362:..\..\..\..\..\..\Software\uCOS-III\Source/os_core.c **** *              -----------    inserted at the head of the list.
1363:..\..\..\..\..\..\Software\uCOS-III\Source/os_core.c **** *
1364:..\..\..\..\..\..\Software\uCOS-III\Source/os_core.c **** *              p_pend_data    is a pointer to the OS_PEND_DATA entry to add to the list
1365:..\..\..\..\..\..\Software\uCOS-III\Source/os_core.c **** *              -----------
1366:..\..\..\..\..\..\Software\uCOS-III\Source/os_core.c **** *
1367:..\..\..\..\..\..\Software\uCOS-III\Source/os_core.c **** * Returns    : none
1368:..\..\..\..\..\..\Software\uCOS-III\Source/os_core.c **** *
ARM GAS  C:\Users\EDULU~1.DES\AppData\Local\Temp\ccYz4yx3.s 			page 57


1369:..\..\..\..\..\..\Software\uCOS-III\Source/os_core.c **** * Note(s)    : 1) This function is INTERNAL to uC/OS-III and your application MUST NOT call it.
1370:..\..\..\..\..\..\Software\uCOS-III\Source/os_core.c **** ***************************************************************************************************
1371:..\..\..\..\..\..\Software\uCOS-III\Source/os_core.c **** */
1372:..\..\..\..\..\..\Software\uCOS-III\Source/os_core.c **** 
1373:..\..\..\..\..\..\Software\uCOS-III\Source/os_core.c **** void  OS_PendListInsertHead (OS_PEND_LIST  *p_pend_list,
1374:..\..\..\..\..\..\Software\uCOS-III\Source/os_core.c ****                              OS_PEND_DATA  *p_pend_data)
1375:..\..\..\..\..\..\Software\uCOS-III\Source/os_core.c **** {
 1792              		.loc 1 1375 0
 1793              		.cfi_startproc
 1794              		@ args = 0, pretend = 0, frame = 16
 1795              		@ frame_needed = 1, uses_anonymous_args = 0
 1796 0000 80B5     		push	{r7, lr}
 1797              		.cfi_def_cfa_offset 8
 1798              		.cfi_offset 7, -8
 1799              		.cfi_offset 14, -4
 1800 0002 84B0     		sub	sp, sp, #16
 1801              		.cfi_def_cfa_offset 24
 1802 0004 00AF     		add	r7, sp, #0
 1803              		.cfi_def_cfa_register 7
 1804 0006 7860     		str	r0, [r7, #4]
 1805 0008 3960     		str	r1, [r7]
1376:..\..\..\..\..\..\Software\uCOS-III\Source/os_core.c ****     OS_PEND_DATA  *p_pend_data_next;
1377:..\..\..\..\..\..\Software\uCOS-III\Source/os_core.c **** 
1378:..\..\..\..\..\..\Software\uCOS-III\Source/os_core.c **** 
1379:..\..\..\..\..\..\Software\uCOS-III\Source/os_core.c **** 
1380:..\..\..\..\..\..\Software\uCOS-III\Source/os_core.c ****     p_pend_list->NbrEntries++;                              /* One more entry in the list          
 1806              		.loc 1 1380 0
 1807 000a 7B68     		ldr	r3, [r7, #4]
 1808 000c 1B89     		ldrh	r3, [r3, #8]
 1809 000e 0133     		adds	r3, r3, #1
 1810 0010 9AB2     		uxth	r2, r3
 1811 0012 7B68     		ldr	r3, [r7, #4]
 1812 0014 1A81     		strh	r2, [r3, #8]
1381:..\..\..\..\..\..\Software\uCOS-III\Source/os_core.c ****     p_pend_data->NextPtr  = p_pend_list->HeadPtr;           /* Adjust new entry's links            
 1813              		.loc 1 1381 0
 1814 0016 7B68     		ldr	r3, [r7, #4]
 1815 0018 1A68     		ldr	r2, [r3]
 1816 001a 3B68     		ldr	r3, [r7]
 1817 001c 5A60     		str	r2, [r3, #4]
1382:..\..\..\..\..\..\Software\uCOS-III\Source/os_core.c ****     p_pend_data->PrevPtr  = (OS_PEND_DATA  *)0;
 1818              		.loc 1 1382 0
 1819 001e 3B68     		ldr	r3, [r7]
 1820 0020 0022     		movs	r2, #0
 1821 0022 1A60     		str	r2, [r3]
1383:..\..\..\..\..\..\Software\uCOS-III\Source/os_core.c ****     p_pend_data_next      = p_pend_list->HeadPtr;           /* Adjust old head of list's links     
 1822              		.loc 1 1383 0
 1823 0024 7B68     		ldr	r3, [r7, #4]
 1824 0026 1B68     		ldr	r3, [r3]
 1825 0028 FB60     		str	r3, [r7, #12]
1384:..\..\..\..\..\..\Software\uCOS-III\Source/os_core.c ****     if (p_pend_data_next != (OS_PEND_DATA *)0) {            /* See if we already have a head to rep
 1826              		.loc 1 1384 0
 1827 002a FB68     		ldr	r3, [r7, #12]
 1828 002c 002B     		cmp	r3, #0
 1829 002e 02D0     		beq	.L129
1385:..\..\..\..\..\..\Software\uCOS-III\Source/os_core.c ****         p_pend_data_next->PrevPtr = p_pend_data;            /* Yes, point to new entry             
 1830              		.loc 1 1385 0
 1831 0030 FB68     		ldr	r3, [r7, #12]
ARM GAS  C:\Users\EDULU~1.DES\AppData\Local\Temp\ccYz4yx3.s 			page 58


 1832 0032 3A68     		ldr	r2, [r7]
 1833 0034 1A60     		str	r2, [r3]
 1834              	.L129:
1386:..\..\..\..\..\..\Software\uCOS-III\Source/os_core.c ****     }
1387:..\..\..\..\..\..\Software\uCOS-III\Source/os_core.c ****     p_pend_list->HeadPtr = p_pend_data;                     /* We have a new list head             
 1835              		.loc 1 1387 0
 1836 0036 7B68     		ldr	r3, [r7, #4]
 1837 0038 3A68     		ldr	r2, [r7]
 1838 003a 1A60     		str	r2, [r3]
1388:..\..\..\..\..\..\Software\uCOS-III\Source/os_core.c ****     if (p_pend_list->NbrEntries == 1u) {
 1839              		.loc 1 1388 0
 1840 003c 7B68     		ldr	r3, [r7, #4]
 1841 003e 1B89     		ldrh	r3, [r3, #8]
 1842 0040 012B     		cmp	r3, #1
 1843 0042 02D1     		bne	.L131
1389:..\..\..\..\..\..\Software\uCOS-III\Source/os_core.c ****         p_pend_list->TailPtr = p_pend_data;
 1844              		.loc 1 1389 0
 1845 0044 7B68     		ldr	r3, [r7, #4]
 1846 0046 3A68     		ldr	r2, [r7]
 1847 0048 5A60     		str	r2, [r3, #4]
 1848              	.L131:
1390:..\..\..\..\..\..\Software\uCOS-III\Source/os_core.c ****     }
1391:..\..\..\..\..\..\Software\uCOS-III\Source/os_core.c **** }
 1849              		.loc 1 1391 0
 1850 004a C046     		nop
 1851 004c BD46     		mov	sp, r7
 1852 004e 04B0     		add	sp, sp, #16
 1853              		@ sp needed
 1854 0050 80BD     		pop	{r7, pc}
 1855              		.cfi_endproc
 1856              	.LFE19:
 1857              		.size	OS_PendListInsertHead, .-OS_PendListInsertHead
 1858 0052 C046     		.section	.text.OS_PendListInsertPrio,"ax",%progbits
 1859              		.align	2
 1860              		.global	OS_PendListInsertPrio
 1861              		.code	16
 1862              		.thumb_func
 1863              		.type	OS_PendListInsertPrio, %function
 1864              	OS_PendListInsertPrio:
 1865              	.LFB20:
1392:..\..\..\..\..\..\Software\uCOS-III\Source/os_core.c **** 
1393:..\..\..\..\..\..\Software\uCOS-III\Source/os_core.c **** /*$PAGE*/
1394:..\..\..\..\..\..\Software\uCOS-III\Source/os_core.c **** /*
1395:..\..\..\..\..\..\Software\uCOS-III\Source/os_core.c **** ***************************************************************************************************
1396:..\..\..\..\..\..\Software\uCOS-III\Source/os_core.c **** *                                   INSERT PEND DATA BASED ON IT'S PRIORITY IN A LIST
1397:..\..\..\..\..\..\Software\uCOS-III\Source/os_core.c **** *
1398:..\..\..\..\..\..\Software\uCOS-III\Source/os_core.c **** * Description: This function is called to place an OS_PEND_DATA entry in a linked list based on its
1399:..\..\..\..\..\..\Software\uCOS-III\Source/os_core.c **** *              highest priority being placed at the head of the list.  It's assumed that the OS_PEN
1400:..\..\..\..\..\..\Software\uCOS-III\Source/os_core.c **** *              insert points to the TCB of the task being inserted.  The TCB is also assumed to con
1401:..\..\..\..\..\..\Software\uCOS-III\Source/os_core.c **** *              of the task in its .Prio field.
1402:..\..\..\..\..\..\Software\uCOS-III\Source/os_core.c **** *
1403:..\..\..\..\..\..\Software\uCOS-III\Source/os_core.c **** *              CASE 0: Insert in an empty list.
1404:..\..\..\..\..\..\Software\uCOS-III\Source/os_core.c **** *
1405:..\..\..\..\..\..\Software\uCOS-III\Source/os_core.c **** *                     OS_PEND_LIST
1406:..\..\..\..\..\..\Software\uCOS-III\Source/os_core.c **** *                     +---------------+
1407:..\..\..\..\..\..\Software\uCOS-III\Source/os_core.c **** *                     | TailPtr       |-> 0
1408:..\..\..\..\..\..\Software\uCOS-III\Source/os_core.c **** *                     +---------------+
ARM GAS  C:\Users\EDULU~1.DES\AppData\Local\Temp\ccYz4yx3.s 			page 59


1409:..\..\..\..\..\..\Software\uCOS-III\Source/os_core.c **** *                     | HeadPtr       |-> 0
1410:..\..\..\..\..\..\Software\uCOS-III\Source/os_core.c **** *                     +---------------+
1411:..\..\..\..\..\..\Software\uCOS-III\Source/os_core.c **** *                     | NbrEntries=0  |
1412:..\..\..\..\..\..\Software\uCOS-III\Source/os_core.c **** *                     +---------------+
1413:..\..\..\..\..\..\Software\uCOS-III\Source/os_core.c **** *
1414:..\..\..\..\..\..\Software\uCOS-III\Source/os_core.c **** *
1415:..\..\..\..\..\..\Software\uCOS-III\Source/os_core.c **** *
1416:..\..\..\..\..\..\Software\uCOS-III\Source/os_core.c **** *              CASE 1: Insert BEFORE or AFTER an OS_TCB
1417:..\..\..\..\..\..\Software\uCOS-III\Source/os_core.c **** *
1418:..\..\..\..\..\..\Software\uCOS-III\Source/os_core.c **** *                     OS_PEND_LIST
1419:..\..\..\..\..\..\Software\uCOS-III\Source/os_core.c **** *                     +--------------+         OS_PEND_DATA
1420:..\..\..\..\..\..\Software\uCOS-III\Source/os_core.c **** *                     | TailPtr      |--+---> +------------+
1421:..\..\..\..\..\..\Software\uCOS-III\Source/os_core.c **** *                     +--------------+  |     | NextPtr    |->0
1422:..\..\..\..\..\..\Software\uCOS-III\Source/os_core.c **** *                     | HeadPtr      |--/     +------------+
1423:..\..\..\..\..\..\Software\uCOS-III\Source/os_core.c **** *                     +--------------+     0<-| PrevPtr    |
1424:..\..\..\..\..\..\Software\uCOS-III\Source/os_core.c **** *                     | NbrEntries=1 |        +------------+
1425:..\..\..\..\..\..\Software\uCOS-III\Source/os_core.c **** *                     +--------------+        |            |
1426:..\..\..\..\..\..\Software\uCOS-III\Source/os_core.c **** *                                             +------------+
1427:..\..\..\..\..\..\Software\uCOS-III\Source/os_core.c **** *                                             |            |
1428:..\..\..\..\..\..\Software\uCOS-III\Source/os_core.c **** *                                             +------------+
1429:..\..\..\..\..\..\Software\uCOS-III\Source/os_core.c **** *
1430:..\..\..\..\..\..\Software\uCOS-III\Source/os_core.c **** *
1431:..\..\..\..\..\..\Software\uCOS-III\Source/os_core.c **** *                     OS_PEND_LIST
1432:..\..\..\..\..\..\Software\uCOS-III\Source/os_core.c **** *                     +--------------+
1433:..\..\..\..\..\..\Software\uCOS-III\Source/os_core.c **** *                     | TailPtr      |-----------------------------------------------+
1434:..\..\..\..\..\..\Software\uCOS-III\Source/os_core.c **** *                     +--------------+         OS_PEND_DATA         OS_PEND_DATA     |    OS_PEND_D
1435:..\..\..\..\..\..\Software\uCOS-III\Source/os_core.c **** *                     | HeadPtr      |------> +------------+       +------------+    +-> +---------
1436:..\..\..\..\..\..\Software\uCOS-III\Source/os_core.c **** *                     +--------------+        | NextPtr    |------>| NextPtr    | ...... | NextPtr 
1437:..\..\..\..\..\..\Software\uCOS-III\Source/os_core.c **** *                     | NbrEntries=N |        +------------+       +------------+        +---------
1438:..\..\..\..\..\..\Software\uCOS-III\Source/os_core.c **** *                     +--------------+     0<-| PrevPtr    |<------| PrevPtr    | ...... | PrevPtr 
1439:..\..\..\..\..\..\Software\uCOS-III\Source/os_core.c **** *                                             +------------+       +------------+        +---------
1440:..\..\..\..\..\..\Software\uCOS-III\Source/os_core.c **** *                                             |            |       |            |        |         
1441:..\..\..\..\..\..\Software\uCOS-III\Source/os_core.c **** *                                             +------------+       +------------+        +---------
1442:..\..\..\..\..\..\Software\uCOS-III\Source/os_core.c **** *                                             |            |       |            |        |         
1443:..\..\..\..\..\..\Software\uCOS-III\Source/os_core.c **** *                                             +------------+       +------------+        +---------
1444:..\..\..\..\..\..\Software\uCOS-III\Source/os_core.c **** *
1445:..\..\..\..\..\..\Software\uCOS-III\Source/os_core.c **** *
1446:..\..\..\..\..\..\Software\uCOS-III\Source/os_core.c **** * Arguments  : p_pend_list    is a pointer to the OS_PEND_LIST where the OS_PEND_DATA entry will be
1447:..\..\..\..\..\..\Software\uCOS-III\Source/os_core.c **** *              -----------
1448:..\..\..\..\..\..\Software\uCOS-III\Source/os_core.c **** *
1449:..\..\..\..\..\..\Software\uCOS-III\Source/os_core.c **** *              p_pend_data    is the OS_PEND_DATA to insert in the list
1450:..\..\..\..\..\..\Software\uCOS-III\Source/os_core.c **** *              -----------
1451:..\..\..\..\..\..\Software\uCOS-III\Source/os_core.c **** *
1452:..\..\..\..\..\..\Software\uCOS-III\Source/os_core.c **** * Returns    : none
1453:..\..\..\..\..\..\Software\uCOS-III\Source/os_core.c **** *
1454:..\..\..\..\..\..\Software\uCOS-III\Source/os_core.c **** * Note(s)    : 1) This function is INTERNAL to uC/OS-III and your application MUST NOT call it.
1455:..\..\..\..\..\..\Software\uCOS-III\Source/os_core.c **** *
1456:..\..\..\..\..\..\Software\uCOS-III\Source/os_core.c **** *              2) 'p_pend_data->TCBPtr->Prio' contains the priority of the TCB associated with the 
1457:..\..\..\..\..\..\Software\uCOS-III\Source/os_core.c **** *                 We can compare this priority with the priority of other entries in the list.
1458:..\..\..\..\..\..\Software\uCOS-III\Source/os_core.c **** ***************************************************************************************************
1459:..\..\..\..\..\..\Software\uCOS-III\Source/os_core.c **** */
1460:..\..\..\..\..\..\Software\uCOS-III\Source/os_core.c **** 
1461:..\..\..\..\..\..\Software\uCOS-III\Source/os_core.c **** void  OS_PendListInsertPrio (OS_PEND_LIST  *p_pend_list,
1462:..\..\..\..\..\..\Software\uCOS-III\Source/os_core.c ****                              OS_PEND_DATA  *p_pend_data)
1463:..\..\..\..\..\..\Software\uCOS-III\Source/os_core.c **** {
 1866              		.loc 1 1463 0
 1867              		.cfi_startproc
ARM GAS  C:\Users\EDULU~1.DES\AppData\Local\Temp\ccYz4yx3.s 			page 60


 1868              		@ args = 0, pretend = 0, frame = 32
 1869              		@ frame_needed = 1, uses_anonymous_args = 0
 1870 0000 80B5     		push	{r7, lr}
 1871              		.cfi_def_cfa_offset 8
 1872              		.cfi_offset 7, -8
 1873              		.cfi_offset 14, -4
 1874 0002 88B0     		sub	sp, sp, #32
 1875              		.cfi_def_cfa_offset 40
 1876 0004 00AF     		add	r7, sp, #0
 1877              		.cfi_def_cfa_register 7
 1878 0006 7860     		str	r0, [r7, #4]
 1879 0008 3960     		str	r1, [r7]
1464:..\..\..\..\..\..\Software\uCOS-III\Source/os_core.c ****     OS_PRIO        prio;
1465:..\..\..\..\..\..\Software\uCOS-III\Source/os_core.c ****     OS_TCB        *p_tcb;
1466:..\..\..\..\..\..\Software\uCOS-III\Source/os_core.c ****     OS_TCB        *p_tcb_next;
1467:..\..\..\..\..\..\Software\uCOS-III\Source/os_core.c ****     OS_PEND_DATA  *p_pend_data_prev;
1468:..\..\..\..\..\..\Software\uCOS-III\Source/os_core.c ****     OS_PEND_DATA  *p_pend_data_next;
1469:..\..\..\..\..\..\Software\uCOS-III\Source/os_core.c **** 
1470:..\..\..\..\..\..\Software\uCOS-III\Source/os_core.c **** 
1471:..\..\..\..\..\..\Software\uCOS-III\Source/os_core.c **** 
1472:..\..\..\..\..\..\Software\uCOS-III\Source/os_core.c ****     p_tcb = p_pend_data->TCBPtr;                                      /* Obtain the priority of the
 1880              		.loc 1 1472 0
 1881 000a 3B68     		ldr	r3, [r7]
 1882 000c 9B68     		ldr	r3, [r3, #8]
 1883 000e BB61     		str	r3, [r7, #24]
1473:..\..\..\..\..\..\Software\uCOS-III\Source/os_core.c ****     prio  = p_tcb->Prio;
 1884              		.loc 1 1473 0
 1885 0010 1723     		movs	r3, #23
 1886 0012 FB18     		adds	r3, r7, r3
 1887 0014 BA69     		ldr	r2, [r7, #24]
 1888 0016 3721     		movs	r1, #55
 1889 0018 525C     		ldrb	r2, [r2, r1]
 1890 001a 1A70     		strb	r2, [r3]
1474:..\..\..\..\..\..\Software\uCOS-III\Source/os_core.c ****     if (p_pend_list->NbrEntries == (OS_OBJ_QTY)0) {                   /* CASE 0: Insert when there 
 1891              		.loc 1 1474 0
 1892 001c 7B68     		ldr	r3, [r7, #4]
 1893 001e 1B89     		ldrh	r3, [r3, #8]
 1894 0020 002B     		cmp	r3, #0
 1895 0022 0FD1     		bne	.L133
1475:..\..\..\..\..\..\Software\uCOS-III\Source/os_core.c ****         p_pend_list->NbrEntries = (OS_OBJ_QTY)1;                      /*         This is the first 
 1896              		.loc 1 1475 0
 1897 0024 7B68     		ldr	r3, [r7, #4]
 1898 0026 0122     		movs	r2, #1
 1899 0028 1A81     		strh	r2, [r3, #8]
1476:..\..\..\..\..\..\Software\uCOS-III\Source/os_core.c ****         p_pend_data->NextPtr    = (OS_PEND_DATA *)0;                  /*         No other OS_PEND_D
 1900              		.loc 1 1476 0
 1901 002a 3B68     		ldr	r3, [r7]
 1902 002c 0022     		movs	r2, #0
 1903 002e 5A60     		str	r2, [r3, #4]
1477:..\..\..\..\..\..\Software\uCOS-III\Source/os_core.c ****         p_pend_data->PrevPtr    = (OS_PEND_DATA *)0;
 1904              		.loc 1 1477 0
 1905 0030 3B68     		ldr	r3, [r7]
 1906 0032 0022     		movs	r2, #0
 1907 0034 1A60     		str	r2, [r3]
1478:..\..\..\..\..\..\Software\uCOS-III\Source/os_core.c ****         p_pend_list->HeadPtr    = p_pend_data;                        /*                           
 1908              		.loc 1 1478 0
 1909 0036 7B68     		ldr	r3, [r7, #4]
ARM GAS  C:\Users\EDULU~1.DES\AppData\Local\Temp\ccYz4yx3.s 			page 61


 1910 0038 3A68     		ldr	r2, [r7]
 1911 003a 1A60     		str	r2, [r3]
1479:..\..\..\..\..\..\Software\uCOS-III\Source/os_core.c ****         p_pend_list->TailPtr    = p_pend_data;
 1912              		.loc 1 1479 0
 1913 003c 7B68     		ldr	r3, [r7, #4]
 1914 003e 3A68     		ldr	r2, [r7]
 1915 0040 5A60     		str	r2, [r3, #4]
1480:..\..\..\..\..\..\Software\uCOS-III\Source/os_core.c ****     } else {
1481:..\..\..\..\..\..\Software\uCOS-III\Source/os_core.c ****         p_pend_list->NbrEntries++;                                    /* CASE 1: One more OS_PEND_D
1482:..\..\..\..\..\..\Software\uCOS-III\Source/os_core.c ****         p_pend_data_next = p_pend_list->HeadPtr;
1483:..\..\..\..\..\..\Software\uCOS-III\Source/os_core.c ****         while (p_pend_data_next != (OS_PEND_DATA *)0) {               /*         Find the position 
1484:..\..\..\..\..\..\Software\uCOS-III\Source/os_core.c ****             p_tcb_next   = p_pend_data_next->TCBPtr;
1485:..\..\..\..\..\..\Software\uCOS-III\Source/os_core.c ****             if (prio < p_tcb_next->Prio) {
1486:..\..\..\..\..\..\Software\uCOS-III\Source/os_core.c ****                 break;                                                /*         Found! ... insert 
1487:..\..\..\..\..\..\Software\uCOS-III\Source/os_core.c ****             } else {
1488:..\..\..\..\..\..\Software\uCOS-III\Source/os_core.c ****                 p_pend_data_next = p_pend_data_next->NextPtr;         /*         Not Found, follow 
1489:..\..\..\..\..\..\Software\uCOS-III\Source/os_core.c ****             }
1490:..\..\..\..\..\..\Software\uCOS-III\Source/os_core.c ****         }
1491:..\..\..\..\..\..\Software\uCOS-III\Source/os_core.c ****         if (p_pend_data_next == (OS_PEND_DATA *)0) {                  /*         TCB to insert is l
1492:..\..\..\..\..\..\Software\uCOS-III\Source/os_core.c ****             p_pend_data->NextPtr      = (OS_PEND_DATA *)0;            /*         ... insert at the 
1493:..\..\..\..\..\..\Software\uCOS-III\Source/os_core.c ****             p_pend_data_prev          = p_pend_list->TailPtr;
1494:..\..\..\..\..\..\Software\uCOS-III\Source/os_core.c ****             p_pend_data->PrevPtr      = p_pend_data_prev;
1495:..\..\..\..\..\..\Software\uCOS-III\Source/os_core.c ****             p_pend_data_prev->NextPtr = p_pend_data;
1496:..\..\..\..\..\..\Software\uCOS-III\Source/os_core.c ****             p_pend_list->TailPtr      = p_pend_data;
1497:..\..\..\..\..\..\Software\uCOS-III\Source/os_core.c ****         } else {
1498:..\..\..\..\..\..\Software\uCOS-III\Source/os_core.c ****             if (p_pend_data_next->PrevPtr == (OS_PEND_DATA *)0) {     /*         Is new TCB highest
1499:..\..\..\..\..\..\Software\uCOS-III\Source/os_core.c ****                 p_pend_data_next->PrevPtr  = p_pend_data;             /*         Yes, insert as new
1500:..\..\..\..\..\..\Software\uCOS-III\Source/os_core.c ****                 p_pend_data->PrevPtr       = (OS_PEND_DATA *)0;
1501:..\..\..\..\..\..\Software\uCOS-III\Source/os_core.c ****                 p_pend_data->NextPtr       = p_pend_data_next;
1502:..\..\..\..\..\..\Software\uCOS-III\Source/os_core.c ****                 p_pend_list->HeadPtr       = p_pend_data;
1503:..\..\..\..\..\..\Software\uCOS-III\Source/os_core.c ****             } else {
1504:..\..\..\..\..\..\Software\uCOS-III\Source/os_core.c ****                 p_pend_data_prev           = p_pend_data_next->PrevPtr;/*        No,  insert in bet
1505:..\..\..\..\..\..\Software\uCOS-III\Source/os_core.c ****                 p_pend_data->PrevPtr       = p_pend_data_prev;
1506:..\..\..\..\..\..\Software\uCOS-III\Source/os_core.c ****                 p_pend_data->NextPtr       = p_pend_data_next;
1507:..\..\..\..\..\..\Software\uCOS-III\Source/os_core.c ****                 p_pend_data_prev->NextPtr  = p_pend_data;
1508:..\..\..\..\..\..\Software\uCOS-III\Source/os_core.c ****                 p_pend_data_next->PrevPtr  = p_pend_data;
1509:..\..\..\..\..\..\Software\uCOS-III\Source/os_core.c ****             }
1510:..\..\..\..\..\..\Software\uCOS-III\Source/os_core.c ****         }
1511:..\..\..\..\..\..\Software\uCOS-III\Source/os_core.c ****     }
1512:..\..\..\..\..\..\Software\uCOS-III\Source/os_core.c **** }
 1916              		.loc 1 1512 0
 1917 0042 4FE0     		b	.L142
 1918              	.L133:
1481:..\..\..\..\..\..\Software\uCOS-III\Source/os_core.c ****         p_pend_data_next = p_pend_list->HeadPtr;
 1919              		.loc 1 1481 0
 1920 0044 7B68     		ldr	r3, [r7, #4]
 1921 0046 1B89     		ldrh	r3, [r3, #8]
 1922 0048 0133     		adds	r3, r3, #1
 1923 004a 9AB2     		uxth	r2, r3
 1924 004c 7B68     		ldr	r3, [r7, #4]
 1925 004e 1A81     		strh	r2, [r3, #8]
1482:..\..\..\..\..\..\Software\uCOS-III\Source/os_core.c ****         while (p_pend_data_next != (OS_PEND_DATA *)0) {               /*         Find the position 
 1926              		.loc 1 1482 0
 1927 0050 7B68     		ldr	r3, [r7, #4]
 1928 0052 1B68     		ldr	r3, [r3]
 1929 0054 FB61     		str	r3, [r7, #28]
1483:..\..\..\..\..\..\Software\uCOS-III\Source/os_core.c ****             p_tcb_next   = p_pend_data_next->TCBPtr;
ARM GAS  C:\Users\EDULU~1.DES\AppData\Local\Temp\ccYz4yx3.s 			page 62


 1930              		.loc 1 1483 0
 1931 0056 0DE0     		b	.L135
 1932              	.L138:
1484:..\..\..\..\..\..\Software\uCOS-III\Source/os_core.c ****             if (prio < p_tcb_next->Prio) {
 1933              		.loc 1 1484 0
 1934 0058 FB69     		ldr	r3, [r7, #28]
 1935 005a 9B68     		ldr	r3, [r3, #8]
 1936 005c 3B61     		str	r3, [r7, #16]
1485:..\..\..\..\..\..\Software\uCOS-III\Source/os_core.c ****                 break;                                                /*         Found! ... insert 
 1937              		.loc 1 1485 0
 1938 005e 3B69     		ldr	r3, [r7, #16]
 1939 0060 3722     		movs	r2, #55
 1940 0062 9B5C     		ldrb	r3, [r3, r2]
 1941 0064 1722     		movs	r2, #23
 1942 0066 BA18     		adds	r2, r7, r2
 1943 0068 1278     		ldrb	r2, [r2]
 1944 006a 9A42     		cmp	r2, r3
 1945 006c 06D3     		bcc	.L141
1488:..\..\..\..\..\..\Software\uCOS-III\Source/os_core.c ****             }
 1946              		.loc 1 1488 0
 1947 006e FB69     		ldr	r3, [r7, #28]
 1948 0070 5B68     		ldr	r3, [r3, #4]
 1949 0072 FB61     		str	r3, [r7, #28]
 1950              	.L135:
1483:..\..\..\..\..\..\Software\uCOS-III\Source/os_core.c ****             p_tcb_next   = p_pend_data_next->TCBPtr;
 1951              		.loc 1 1483 0
 1952 0074 FB69     		ldr	r3, [r7, #28]
 1953 0076 002B     		cmp	r3, #0
 1954 0078 EED1     		bne	.L138
 1955 007a 00E0     		b	.L137
 1956              	.L141:
1486:..\..\..\..\..\..\Software\uCOS-III\Source/os_core.c ****             } else {
 1957              		.loc 1 1486 0
 1958 007c C046     		nop
 1959              	.L137:
1491:..\..\..\..\..\..\Software\uCOS-III\Source/os_core.c ****             p_pend_data->NextPtr      = (OS_PEND_DATA *)0;            /*         ... insert at the 
 1960              		.loc 1 1491 0
 1961 007e FB69     		ldr	r3, [r7, #28]
 1962 0080 002B     		cmp	r3, #0
 1963 0082 0FD1     		bne	.L139
1492:..\..\..\..\..\..\Software\uCOS-III\Source/os_core.c ****             p_pend_data_prev          = p_pend_list->TailPtr;
 1964              		.loc 1 1492 0
 1965 0084 3B68     		ldr	r3, [r7]
 1966 0086 0022     		movs	r2, #0
 1967 0088 5A60     		str	r2, [r3, #4]
1493:..\..\..\..\..\..\Software\uCOS-III\Source/os_core.c ****             p_pend_data->PrevPtr      = p_pend_data_prev;
 1968              		.loc 1 1493 0
 1969 008a 7B68     		ldr	r3, [r7, #4]
 1970 008c 5B68     		ldr	r3, [r3, #4]
 1971 008e FB60     		str	r3, [r7, #12]
1494:..\..\..\..\..\..\Software\uCOS-III\Source/os_core.c ****             p_pend_data_prev->NextPtr = p_pend_data;
 1972              		.loc 1 1494 0
 1973 0090 3B68     		ldr	r3, [r7]
 1974 0092 FA68     		ldr	r2, [r7, #12]
 1975 0094 1A60     		str	r2, [r3]
1495:..\..\..\..\..\..\Software\uCOS-III\Source/os_core.c ****             p_pend_list->TailPtr      = p_pend_data;
 1976              		.loc 1 1495 0
ARM GAS  C:\Users\EDULU~1.DES\AppData\Local\Temp\ccYz4yx3.s 			page 63


 1977 0096 FB68     		ldr	r3, [r7, #12]
 1978 0098 3A68     		ldr	r2, [r7]
 1979 009a 5A60     		str	r2, [r3, #4]
1496:..\..\..\..\..\..\Software\uCOS-III\Source/os_core.c ****         } else {
 1980              		.loc 1 1496 0
 1981 009c 7B68     		ldr	r3, [r7, #4]
 1982 009e 3A68     		ldr	r2, [r7]
 1983 00a0 5A60     		str	r2, [r3, #4]
 1984              		.loc 1 1512 0
 1985 00a2 1FE0     		b	.L142
 1986              	.L139:
1498:..\..\..\..\..\..\Software\uCOS-III\Source/os_core.c ****                 p_pend_data_next->PrevPtr  = p_pend_data;             /*         Yes, insert as new
 1987              		.loc 1 1498 0
 1988 00a4 FB69     		ldr	r3, [r7, #28]
 1989 00a6 1B68     		ldr	r3, [r3]
 1990 00a8 002B     		cmp	r3, #0
 1991 00aa 0CD1     		bne	.L140
1499:..\..\..\..\..\..\Software\uCOS-III\Source/os_core.c ****                 p_pend_data->PrevPtr       = (OS_PEND_DATA *)0;
 1992              		.loc 1 1499 0
 1993 00ac FB69     		ldr	r3, [r7, #28]
 1994 00ae 3A68     		ldr	r2, [r7]
 1995 00b0 1A60     		str	r2, [r3]
1500:..\..\..\..\..\..\Software\uCOS-III\Source/os_core.c ****                 p_pend_data->NextPtr       = p_pend_data_next;
 1996              		.loc 1 1500 0
 1997 00b2 3B68     		ldr	r3, [r7]
 1998 00b4 0022     		movs	r2, #0
 1999 00b6 1A60     		str	r2, [r3]
1501:..\..\..\..\..\..\Software\uCOS-III\Source/os_core.c ****                 p_pend_list->HeadPtr       = p_pend_data;
 2000              		.loc 1 1501 0
 2001 00b8 3B68     		ldr	r3, [r7]
 2002 00ba FA69     		ldr	r2, [r7, #28]
 2003 00bc 5A60     		str	r2, [r3, #4]
1502:..\..\..\..\..\..\Software\uCOS-III\Source/os_core.c ****             } else {
 2004              		.loc 1 1502 0
 2005 00be 7B68     		ldr	r3, [r7, #4]
 2006 00c0 3A68     		ldr	r2, [r7]
 2007 00c2 1A60     		str	r2, [r3]
 2008              		.loc 1 1512 0
 2009 00c4 0EE0     		b	.L142
 2010              	.L140:
1504:..\..\..\..\..\..\Software\uCOS-III\Source/os_core.c ****                 p_pend_data->PrevPtr       = p_pend_data_prev;
 2011              		.loc 1 1504 0
 2012 00c6 FB69     		ldr	r3, [r7, #28]
 2013 00c8 1B68     		ldr	r3, [r3]
 2014 00ca FB60     		str	r3, [r7, #12]
1505:..\..\..\..\..\..\Software\uCOS-III\Source/os_core.c ****                 p_pend_data->NextPtr       = p_pend_data_next;
 2015              		.loc 1 1505 0
 2016 00cc 3B68     		ldr	r3, [r7]
 2017 00ce FA68     		ldr	r2, [r7, #12]
 2018 00d0 1A60     		str	r2, [r3]
1506:..\..\..\..\..\..\Software\uCOS-III\Source/os_core.c ****                 p_pend_data_prev->NextPtr  = p_pend_data;
 2019              		.loc 1 1506 0
 2020 00d2 3B68     		ldr	r3, [r7]
 2021 00d4 FA69     		ldr	r2, [r7, #28]
 2022 00d6 5A60     		str	r2, [r3, #4]
1507:..\..\..\..\..\..\Software\uCOS-III\Source/os_core.c ****                 p_pend_data_next->PrevPtr  = p_pend_data;
 2023              		.loc 1 1507 0
ARM GAS  C:\Users\EDULU~1.DES\AppData\Local\Temp\ccYz4yx3.s 			page 64


 2024 00d8 FB68     		ldr	r3, [r7, #12]
 2025 00da 3A68     		ldr	r2, [r7]
 2026 00dc 5A60     		str	r2, [r3, #4]
1508:..\..\..\..\..\..\Software\uCOS-III\Source/os_core.c ****             }
 2027              		.loc 1 1508 0
 2028 00de FB69     		ldr	r3, [r7, #28]
 2029 00e0 3A68     		ldr	r2, [r7]
 2030 00e2 1A60     		str	r2, [r3]
 2031              	.L142:
 2032              		.loc 1 1512 0
 2033 00e4 C046     		nop
 2034 00e6 BD46     		mov	sp, r7
 2035 00e8 08B0     		add	sp, sp, #32
 2036              		@ sp needed
 2037 00ea 80BD     		pop	{r7, pc}
 2038              		.cfi_endproc
 2039              	.LFE20:
 2040              		.size	OS_PendListInsertPrio, .-OS_PendListInsertPrio
 2041              		.section	.text.OS_PendListRemove,"ax",%progbits
 2042              		.align	2
 2043              		.global	OS_PendListRemove
 2044              		.code	16
 2045              		.thumb_func
 2046              		.type	OS_PendListRemove, %function
 2047              	OS_PendListRemove:
 2048              	.LFB21:
1513:..\..\..\..\..\..\Software\uCOS-III\Source/os_core.c **** 
1514:..\..\..\..\..\..\Software\uCOS-III\Source/os_core.c **** /*$PAGE*/
1515:..\..\..\..\..\..\Software\uCOS-III\Source/os_core.c **** /*
1516:..\..\..\..\..\..\Software\uCOS-III\Source/os_core.c **** ***************************************************************************************************
1517:..\..\..\..\..\..\Software\uCOS-III\Source/os_core.c **** *                           REMOVE TASK FROM PEND LIST(s) KNOWING ONLY WHICH TCB TO REMOVE
1518:..\..\..\..\..\..\Software\uCOS-III\Source/os_core.c **** *
1519:..\..\..\..\..\..\Software\uCOS-III\Source/os_core.c **** * Description: This function is called to remove a task from a pend list knowing only the TCB of th
1520:..\..\..\..\..\..\Software\uCOS-III\Source/os_core.c **** *
1521:..\..\..\..\..\..\Software\uCOS-III\Source/os_core.c **** *
1522:..\..\..\..\..\..\Software\uCOS-III\Source/os_core.c **** *              CASE 0: OS_PEND_DATA list is empty, nothing to do.
1523:..\..\..\..\..\..\Software\uCOS-III\Source/os_core.c **** *
1524:..\..\..\..\..\..\Software\uCOS-III\Source/os_core.c **** *              CASE 1: Only 1 OS_PEND_DATA in the list.
1525:..\..\..\..\..\..\Software\uCOS-III\Source/os_core.c **** *
1526:..\..\..\..\..\..\Software\uCOS-III\Source/os_core.c **** *                     OS_PEND_LIST
1527:..\..\..\..\..\..\Software\uCOS-III\Source/os_core.c **** *                     +--------------+         OS_PEND_DATA
1528:..\..\..\..\..\..\Software\uCOS-III\Source/os_core.c **** *                     | TailPtr      |--+---> +------------+
1529:..\..\..\..\..\..\Software\uCOS-III\Source/os_core.c **** *                     +--------------+  |     | NextPtr    |->0
1530:..\..\..\..\..\..\Software\uCOS-III\Source/os_core.c **** *                     | HeadPtr      |--/     +------------+
1531:..\..\..\..\..\..\Software\uCOS-III\Source/os_core.c **** *                     +--------------+     0<-| PrevPtr    |
1532:..\..\..\..\..\..\Software\uCOS-III\Source/os_core.c **** *                     | NbrEntries=1 |        +------------+
1533:..\..\..\..\..\..\Software\uCOS-III\Source/os_core.c **** *                     +--------------+        |            |
1534:..\..\..\..\..\..\Software\uCOS-III\Source/os_core.c **** *                                             +------------+
1535:..\..\..\..\..\..\Software\uCOS-III\Source/os_core.c **** *                                             |            |
1536:..\..\..\..\..\..\Software\uCOS-III\Source/os_core.c **** *                                             +------------+
1537:..\..\..\..\..\..\Software\uCOS-III\Source/os_core.c **** *
