ARM GAS  C:\Users\EDULU~1.DES\AppData\Local\Temp\ccJfFrhb.s 			page 1


   1              		.syntax unified
   2              		.cpu cortex-m0
   3              		.fpu softvfp
   4              		.eabi_attribute 20, 1
   5              		.eabi_attribute 21, 1
   6              		.eabi_attribute 23, 3
   7              		.eabi_attribute 24, 1
   8              		.eabi_attribute 25, 1
   9              		.eabi_attribute 26, 1
  10              		.eabi_attribute 30, 6
  11              		.eabi_attribute 34, 0
  12              		.eabi_attribute 18, 4
  13              		.thumb
  14              		.syntax unified
  15              		.file	"os_prio.c"
  16              		.text
  17              	.Ltext0:
  18              		.cfi_sections	.debug_frame
  19              		.comm	OSPrioTbl,4,4
  20              		.section	.text.OS_PrioInit,"ax",%progbits
  21              		.align	2
  22              		.global	OS_PrioInit
  23              		.code	16
  24              		.thumb_func
  25              		.type	OS_PrioInit, %function
  26              	OS_PrioInit:
  27              	.LFB1:
  28              		.file 1 "..\\..\\..\\..\\..\\..\\Software\\uCOS-III\\Source\\os_prio.c"
   1:..\..\..\..\..\..\Software\uCOS-III\Source/os_prio.c **** /*
   2:..\..\..\..\..\..\Software\uCOS-III\Source/os_prio.c **** ***************************************************************************************************
   3:..\..\..\..\..\..\Software\uCOS-III\Source/os_prio.c **** *                                                      uC/OS-III
   4:..\..\..\..\..\..\Software\uCOS-III\Source/os_prio.c **** *                                                 The Real-Time Kernel
   5:..\..\..\..\..\..\Software\uCOS-III\Source/os_prio.c **** *
   6:..\..\..\..\..\..\Software\uCOS-III\Source/os_prio.c **** *                                  (c) Copyright 2009-2012; Micrium, Inc.; Weston, FL
   7:..\..\..\..\..\..\Software\uCOS-III\Source/os_prio.c **** *                           All rights reserved.  Protected by international copyright laws.
   8:..\..\..\..\..\..\Software\uCOS-III\Source/os_prio.c **** *
   9:..\..\..\..\..\..\Software\uCOS-III\Source/os_prio.c **** *                                                 PRIORITY MANAGEMENT
  10:..\..\..\..\..\..\Software\uCOS-III\Source/os_prio.c **** *
  11:..\..\..\..\..\..\Software\uCOS-III\Source/os_prio.c **** * File    : OS_PRIO.C
  12:..\..\..\..\..\..\Software\uCOS-III\Source/os_prio.c **** * By      : JJL
  13:..\..\..\..\..\..\Software\uCOS-III\Source/os_prio.c **** * Version : V3.03.01
  14:..\..\..\..\..\..\Software\uCOS-III\Source/os_prio.c **** *
  15:..\..\..\..\..\..\Software\uCOS-III\Source/os_prio.c **** * LICENSING TERMS:
  16:..\..\..\..\..\..\Software\uCOS-III\Source/os_prio.c **** * ---------------
  17:..\..\..\..\..\..\Software\uCOS-III\Source/os_prio.c **** *           uC/OS-III is provided in source form for FREE short-term evaluation, for educational us
  18:..\..\..\..\..\..\Software\uCOS-III\Source/os_prio.c **** *           for peaceful research.  If you plan or intend to use uC/OS-III in a commercial applicat
  19:..\..\..\..\..\..\Software\uCOS-III\Source/os_prio.c **** *           product then, you need to contact Micrium to properly license uC/OS-III for its use in 
  20:..\..\..\..\..\..\Software\uCOS-III\Source/os_prio.c **** *           application/product.   We provide ALL the source code for your convenience and to help 
  21:..\..\..\..\..\..\Software\uCOS-III\Source/os_prio.c **** *           experience uC/OS-III.  The fact that the source is provided does NOT mean that you can 
  22:..\..\..\..\..\..\Software\uCOS-III\Source/os_prio.c **** *           it commercially without paying a licensing fee.
  23:..\..\..\..\..\..\Software\uCOS-III\Source/os_prio.c **** *
  24:..\..\..\..\..\..\Software\uCOS-III\Source/os_prio.c **** *           Knowledge of the source code may NOT be used to develop a similar product.
  25:..\..\..\..\..\..\Software\uCOS-III\Source/os_prio.c **** *
  26:..\..\..\..\..\..\Software\uCOS-III\Source/os_prio.c **** *           Please help us continue to provide the embedded community with the finest software avai
  27:..\..\..\..\..\..\Software\uCOS-III\Source/os_prio.c **** *           Your honesty is greatly appreciated.
  28:..\..\..\..\..\..\Software\uCOS-III\Source/os_prio.c **** *
  29:..\..\..\..\..\..\Software\uCOS-III\Source/os_prio.c **** *           You can contact us at www.micrium.com, or by phone at +1 (954) 217-2036.
ARM GAS  C:\Users\EDULU~1.DES\AppData\Local\Temp\ccJfFrhb.s 			page 2


  30:..\..\..\..\..\..\Software\uCOS-III\Source/os_prio.c **** ***************************************************************************************************
  31:..\..\..\..\..\..\Software\uCOS-III\Source/os_prio.c **** */
  32:..\..\..\..\..\..\Software\uCOS-III\Source/os_prio.c **** 
  33:..\..\..\..\..\..\Software\uCOS-III\Source/os_prio.c **** #define  MICRIUM_SOURCE
  34:..\..\..\..\..\..\Software\uCOS-III\Source/os_prio.c **** #include <os.h>
  35:..\..\..\..\..\..\Software\uCOS-III\Source/os_prio.c **** 
  36:..\..\..\..\..\..\Software\uCOS-III\Source/os_prio.c **** #ifdef VSC_INCLUDE_SOURCE_FILE_NAMES
  37:..\..\..\..\..\..\Software\uCOS-III\Source/os_prio.c **** const  CPU_CHAR  *os_prio__c = "$Id: $";
  38:..\..\..\..\..\..\Software\uCOS-III\Source/os_prio.c **** #endif
  39:..\..\..\..\..\..\Software\uCOS-III\Source/os_prio.c **** 
  40:..\..\..\..\..\..\Software\uCOS-III\Source/os_prio.c **** 
  41:..\..\..\..\..\..\Software\uCOS-III\Source/os_prio.c **** CPU_DATA   OSPrioTbl[OS_PRIO_TBL_SIZE];                     /* Declare the array local to this file
  42:..\..\..\..\..\..\Software\uCOS-III\Source/os_prio.c ****                                                             /* ... optimization.  In other words, t
  43:..\..\..\..\..\..\Software\uCOS-III\Source/os_prio.c ****                                                             /* ... table to be located in fast memo
  44:..\..\..\..\..\..\Software\uCOS-III\Source/os_prio.c **** 
  45:..\..\..\..\..\..\Software\uCOS-III\Source/os_prio.c **** /*
  46:..\..\..\..\..\..\Software\uCOS-III\Source/os_prio.c **** ***************************************************************************************************
  47:..\..\..\..\..\..\Software\uCOS-III\Source/os_prio.c **** *                                               INITIALIZE THE PRIORITY LIST
  48:..\..\..\..\..\..\Software\uCOS-III\Source/os_prio.c **** *
  49:..\..\..\..\..\..\Software\uCOS-III\Source/os_prio.c **** * Description: This function is called by uC/OS-III to initialize the list of ready priorities.
  50:..\..\..\..\..\..\Software\uCOS-III\Source/os_prio.c **** *
  51:..\..\..\..\..\..\Software\uCOS-III\Source/os_prio.c **** * Arguments  : none
  52:..\..\..\..\..\..\Software\uCOS-III\Source/os_prio.c **** *
  53:..\..\..\..\..\..\Software\uCOS-III\Source/os_prio.c **** * Returns    : none
  54:..\..\..\..\..\..\Software\uCOS-III\Source/os_prio.c **** *
  55:..\..\..\..\..\..\Software\uCOS-III\Source/os_prio.c **** * Note       : This function is INTERNAL to uC/OS-III and your application should not call it.
  56:..\..\..\..\..\..\Software\uCOS-III\Source/os_prio.c **** ***************************************************************************************************
  57:..\..\..\..\..\..\Software\uCOS-III\Source/os_prio.c **** */
  58:..\..\..\..\..\..\Software\uCOS-III\Source/os_prio.c **** 
  59:..\..\..\..\..\..\Software\uCOS-III\Source/os_prio.c **** void  OS_PrioInit (void)
  60:..\..\..\..\..\..\Software\uCOS-III\Source/os_prio.c **** {
  29              		.loc 1 60 0
  30              		.cfi_startproc
  31              		@ args = 0, pretend = 0, frame = 8
  32              		@ frame_needed = 1, uses_anonymous_args = 0
  33 0000 80B5     		push	{r7, lr}
  34              		.cfi_def_cfa_offset 8
  35              		.cfi_offset 7, -8
  36              		.cfi_offset 14, -4
  37 0002 82B0     		sub	sp, sp, #8
  38              		.cfi_def_cfa_offset 16
  39 0004 00AF     		add	r7, sp, #0
  40              		.cfi_def_cfa_register 7
  61:..\..\..\..\..\..\Software\uCOS-III\Source/os_prio.c ****     CPU_DATA  i;
  62:..\..\..\..\..\..\Software\uCOS-III\Source/os_prio.c **** 
  63:..\..\..\..\..\..\Software\uCOS-III\Source/os_prio.c **** 
  64:..\..\..\..\..\..\Software\uCOS-III\Source/os_prio.c ****                                                             /* Clear the bitmap table ... no task i
  65:..\..\..\..\..\..\Software\uCOS-III\Source/os_prio.c ****     for (i = 0u; i < OS_PRIO_TBL_SIZE; i++) {
  41              		.loc 1 65 0
  42 0006 0023     		movs	r3, #0
  43 0008 7B60     		str	r3, [r7, #4]
  44 000a 07E0     		b	.L2
  45              	.L3:
  66:..\..\..\..\..\..\Software\uCOS-III\Source/os_prio.c ****          OSPrioTbl[i] = (CPU_DATA)0;
  46              		.loc 1 66 0 discriminator 3
  47 000c 074B     		ldr	r3, .L4
  48 000e 7A68     		ldr	r2, [r7, #4]
ARM GAS  C:\Users\EDULU~1.DES\AppData\Local\Temp\ccJfFrhb.s 			page 3


  49 0010 9200     		lsls	r2, r2, #2
  50 0012 0021     		movs	r1, #0
  51 0014 D150     		str	r1, [r2, r3]
  65:..\..\..\..\..\..\Software\uCOS-III\Source/os_prio.c ****          OSPrioTbl[i] = (CPU_DATA)0;
  52              		.loc 1 65 0 discriminator 3
  53 0016 7B68     		ldr	r3, [r7, #4]
  54 0018 0133     		adds	r3, r3, #1
  55 001a 7B60     		str	r3, [r7, #4]
  56              	.L2:
  65:..\..\..\..\..\..\Software\uCOS-III\Source/os_prio.c ****          OSPrioTbl[i] = (CPU_DATA)0;
  57              		.loc 1 65 0 is_stmt 0 discriminator 1
  58 001c 7B68     		ldr	r3, [r7, #4]
  59 001e 002B     		cmp	r3, #0
  60 0020 F4D0     		beq	.L3
  67:..\..\..\..\..\..\Software\uCOS-III\Source/os_prio.c ****     }
  68:..\..\..\..\..\..\Software\uCOS-III\Source/os_prio.c **** }
  61              		.loc 1 68 0 is_stmt 1
  62 0022 C046     		nop
  63 0024 BD46     		mov	sp, r7
  64 0026 02B0     		add	sp, sp, #8
  65              		@ sp needed
  66 0028 80BD     		pop	{r7, pc}
  67              	.L5:
  68 002a C046     		.align	2
  69              	.L4:
  70 002c 00000000 		.word	OSPrioTbl
  71              		.cfi_endproc
  72              	.LFE1:
  73              		.size	OS_PrioInit, .-OS_PrioInit
  74              		.section	.text.OS_PrioGetHighest,"ax",%progbits
  75              		.align	2
  76              		.global	OS_PrioGetHighest
  77              		.code	16
  78              		.thumb_func
  79              		.type	OS_PrioGetHighest, %function
  80              	OS_PrioGetHighest:
  81              	.LFB2:
  69:..\..\..\..\..\..\Software\uCOS-III\Source/os_prio.c **** 
  70:..\..\..\..\..\..\Software\uCOS-III\Source/os_prio.c **** /*
  71:..\..\..\..\..\..\Software\uCOS-III\Source/os_prio.c **** ***************************************************************************************************
  72:..\..\..\..\..\..\Software\uCOS-III\Source/os_prio.c **** *                                           GET HIGHEST PRIORITY TASK WAITING
  73:..\..\..\..\..\..\Software\uCOS-III\Source/os_prio.c **** *
  74:..\..\..\..\..\..\Software\uCOS-III\Source/os_prio.c **** * Description: This function is called by other uC/OS-III services to determine the highest priorit
  75:..\..\..\..\..\..\Software\uCOS-III\Source/os_prio.c **** *              waiting on the event.
  76:..\..\..\..\..\..\Software\uCOS-III\Source/os_prio.c **** *
  77:..\..\..\..\..\..\Software\uCOS-III\Source/os_prio.c **** * Arguments  : none
  78:..\..\..\..\..\..\Software\uCOS-III\Source/os_prio.c **** *
  79:..\..\..\..\..\..\Software\uCOS-III\Source/os_prio.c **** * Returns    : The priority of the Highest Priority Task (HPT) waiting for the event
  80:..\..\..\..\..\..\Software\uCOS-III\Source/os_prio.c **** *
  81:..\..\..\..\..\..\Software\uCOS-III\Source/os_prio.c **** * Note(s)    : 1) This function is INTERNAL to uC/OS-III and your application MUST NOT call it.
  82:..\..\..\..\..\..\Software\uCOS-III\Source/os_prio.c **** ***************************************************************************************************
  83:..\..\..\..\..\..\Software\uCOS-III\Source/os_prio.c **** */
  84:..\..\..\..\..\..\Software\uCOS-III\Source/os_prio.c **** 
  85:..\..\..\..\..\..\Software\uCOS-III\Source/os_prio.c **** OS_PRIO  OS_PrioGetHighest (void)
  86:..\..\..\..\..\..\Software\uCOS-III\Source/os_prio.c **** {
  82              		.loc 1 86 0
  83              		.cfi_startproc
ARM GAS  C:\Users\EDULU~1.DES\AppData\Local\Temp\ccJfFrhb.s 			page 4


  84              		@ args = 0, pretend = 0, frame = 8
  85              		@ frame_needed = 1, uses_anonymous_args = 0
  86 0000 80B5     		push	{r7, lr}
  87              		.cfi_def_cfa_offset 8
  88              		.cfi_offset 7, -8
  89              		.cfi_offset 14, -4
  90 0002 82B0     		sub	sp, sp, #8
  91              		.cfi_def_cfa_offset 16
  92 0004 00AF     		add	r7, sp, #0
  93              		.cfi_def_cfa_register 7
  87:..\..\..\..\..\..\Software\uCOS-III\Source/os_prio.c ****     CPU_DATA  *p_tbl;
  88:..\..\..\..\..\..\Software\uCOS-III\Source/os_prio.c ****     OS_PRIO    prio;
  89:..\..\..\..\..\..\Software\uCOS-III\Source/os_prio.c **** 
  90:..\..\..\..\..\..\Software\uCOS-III\Source/os_prio.c **** 
  91:..\..\..\..\..\..\Software\uCOS-III\Source/os_prio.c ****     prio  = (OS_PRIO)0;
  94              		.loc 1 91 0
  95 0006 FB1C     		adds	r3, r7, #3
  96 0008 0022     		movs	r2, #0
  97 000a 1A70     		strb	r2, [r3]
  92:..\..\..\..\..\..\Software\uCOS-III\Source/os_prio.c ****     p_tbl = &OSPrioTbl[0];
  98              		.loc 1 92 0
  99 000c 104B     		ldr	r3, .L10
 100 000e 7B60     		str	r3, [r7, #4]
  93:..\..\..\..\..\..\Software\uCOS-III\Source/os_prio.c ****     while (*p_tbl == (CPU_DATA)0) {                         /* Search the bitmap table for the high
 101              		.loc 1 93 0
 102 0010 07E0     		b	.L7
 103              	.L8:
  94:..\..\..\..\..\..\Software\uCOS-III\Source/os_prio.c ****         prio += DEF_INT_CPU_NBR_BITS;                       /* Compute the step of each CPU_DATA en
 104              		.loc 1 94 0
 105 0012 FB1C     		adds	r3, r7, #3
 106 0014 FA1C     		adds	r2, r7, #3
 107 0016 1278     		ldrb	r2, [r2]
 108 0018 2032     		adds	r2, r2, #32
 109 001a 1A70     		strb	r2, [r3]
  95:..\..\..\..\..\..\Software\uCOS-III\Source/os_prio.c ****         p_tbl++;
 110              		.loc 1 95 0
 111 001c 7B68     		ldr	r3, [r7, #4]
 112 001e 0433     		adds	r3, r3, #4
 113 0020 7B60     		str	r3, [r7, #4]
 114              	.L7:
  93:..\..\..\..\..\..\Software\uCOS-III\Source/os_prio.c ****     while (*p_tbl == (CPU_DATA)0) {                         /* Search the bitmap table for the high
 115              		.loc 1 93 0
 116 0022 7B68     		ldr	r3, [r7, #4]
 117 0024 1B68     		ldr	r3, [r3]
 118 0026 002B     		cmp	r3, #0
 119 0028 F3D0     		beq	.L8
  96:..\..\..\..\..\..\Software\uCOS-III\Source/os_prio.c ****     }
  97:..\..\..\..\..\..\Software\uCOS-III\Source/os_prio.c ****     prio += (OS_PRIO)CPU_CntLeadZeros(*p_tbl);              /* Find the position of the first bit s
 120              		.loc 1 97 0
 121 002a 7B68     		ldr	r3, [r7, #4]
 122 002c 1B68     		ldr	r3, [r3]
 123 002e 1800     		movs	r0, r3
 124 0030 FFF7FEFF 		bl	CPU_CntLeadZeros
 125 0034 0300     		movs	r3, r0
 126 0036 D9B2     		uxtb	r1, r3
 127 0038 FB1C     		adds	r3, r7, #3
 128 003a FA1C     		adds	r2, r7, #3
ARM GAS  C:\Users\EDULU~1.DES\AppData\Local\Temp\ccJfFrhb.s 			page 5


 129 003c 1278     		ldrb	r2, [r2]
 130 003e 8A18     		adds	r2, r1, r2
 131 0040 1A70     		strb	r2, [r3]
  98:..\..\..\..\..\..\Software\uCOS-III\Source/os_prio.c ****     return (prio);
 132              		.loc 1 98 0
 133 0042 FB1C     		adds	r3, r7, #3
 134 0044 1B78     		ldrb	r3, [r3]
  99:..\..\..\..\..\..\Software\uCOS-III\Source/os_prio.c **** }
 135              		.loc 1 99 0
 136 0046 1800     		movs	r0, r3
 137 0048 BD46     		mov	sp, r7
 138 004a 02B0     		add	sp, sp, #8
 139              		@ sp needed
 140 004c 80BD     		pop	{r7, pc}
 141              	.L11:
 142 004e C046     		.align	2
 143              	.L10:
 144 0050 00000000 		.word	OSPrioTbl
 145              		.cfi_endproc
 146              	.LFE2:
 147              		.size	OS_PrioGetHighest, .-OS_PrioGetHighest
 148              		.section	.text.OS_PrioInsert,"ax",%progbits
 149              		.align	2
 150              		.global	OS_PrioInsert
 151              		.code	16
 152              		.thumb_func
 153              		.type	OS_PrioInsert, %function
 154              	OS_PrioInsert:
 155              	.LFB3:
 100:..\..\..\..\..\..\Software\uCOS-III\Source/os_prio.c **** 
 101:..\..\..\..\..\..\Software\uCOS-III\Source/os_prio.c **** /*
 102:..\..\..\..\..\..\Software\uCOS-III\Source/os_prio.c **** ***************************************************************************************************
 103:..\..\..\..\..\..\Software\uCOS-III\Source/os_prio.c **** *                                                  INSERT PRIORITY
 104:..\..\..\..\..\..\Software\uCOS-III\Source/os_prio.c **** *
 105:..\..\..\..\..\..\Software\uCOS-III\Source/os_prio.c **** * Description: This function is called to insert a priority in the priority table.
 106:..\..\..\..\..\..\Software\uCOS-III\Source/os_prio.c **** *
 107:..\..\..\..\..\..\Software\uCOS-III\Source/os_prio.c **** * Arguments  : prio     is the priority to insert
 108:..\..\..\..\..\..\Software\uCOS-III\Source/os_prio.c **** *
 109:..\..\..\..\..\..\Software\uCOS-III\Source/os_prio.c **** * Returns    : none
 110:..\..\..\..\..\..\Software\uCOS-III\Source/os_prio.c **** *
 111:..\..\..\..\..\..\Software\uCOS-III\Source/os_prio.c **** * Note(s)    : 1) This function is INTERNAL to uC/OS-III and your application MUST NOT call it.
 112:..\..\..\..\..\..\Software\uCOS-III\Source/os_prio.c **** ***************************************************************************************************
 113:..\..\..\..\..\..\Software\uCOS-III\Source/os_prio.c **** */
 114:..\..\..\..\..\..\Software\uCOS-III\Source/os_prio.c **** 
 115:..\..\..\..\..\..\Software\uCOS-III\Source/os_prio.c **** void  OS_PrioInsert (OS_PRIO  prio)
 116:..\..\..\..\..\..\Software\uCOS-III\Source/os_prio.c **** {
 156              		.loc 1 116 0
 157              		.cfi_startproc
 158              		@ args = 0, pretend = 0, frame = 24
 159              		@ frame_needed = 1, uses_anonymous_args = 0
 160 0000 80B5     		push	{r7, lr}
 161              		.cfi_def_cfa_offset 8
 162              		.cfi_offset 7, -8
 163              		.cfi_offset 14, -4
 164 0002 86B0     		sub	sp, sp, #24
 165              		.cfi_def_cfa_offset 32
 166 0004 00AF     		add	r7, sp, #0
ARM GAS  C:\Users\EDULU~1.DES\AppData\Local\Temp\ccJfFrhb.s 			page 6


 167              		.cfi_def_cfa_register 7
 168 0006 0200     		movs	r2, r0
 169 0008 FB1D     		adds	r3, r7, #7
 170 000a 1A70     		strb	r2, [r3]
 117:..\..\..\..\..\..\Software\uCOS-III\Source/os_prio.c ****     CPU_DATA  bit;
 118:..\..\..\..\..\..\Software\uCOS-III\Source/os_prio.c ****     CPU_DATA  bit_nbr;
 119:..\..\..\..\..\..\Software\uCOS-III\Source/os_prio.c ****     OS_PRIO   ix;
 120:..\..\..\..\..\..\Software\uCOS-III\Source/os_prio.c **** 
 121:..\..\..\..\..\..\Software\uCOS-III\Source/os_prio.c **** 
 122:..\..\..\..\..\..\Software\uCOS-III\Source/os_prio.c ****     ix             = prio / DEF_INT_CPU_NBR_BITS;
 171              		.loc 1 122 0
 172 000c 1723     		movs	r3, #23
 173 000e FB18     		adds	r3, r7, r3
 174 0010 FA1D     		adds	r2, r7, #7
 175 0012 1278     		ldrb	r2, [r2]
 176 0014 5209     		lsrs	r2, r2, #5
 177 0016 1A70     		strb	r2, [r3]
 123:..\..\..\..\..\..\Software\uCOS-III\Source/os_prio.c ****     bit_nbr        = (CPU_DATA)prio & (DEF_INT_CPU_NBR_BITS - 1u);
 178              		.loc 1 123 0
 179 0018 FB1D     		adds	r3, r7, #7
 180 001a 1B78     		ldrb	r3, [r3]
 181 001c 1F22     		movs	r2, #31
 182 001e 1340     		ands	r3, r2
 183 0020 3B61     		str	r3, [r7, #16]
 124:..\..\..\..\..\..\Software\uCOS-III\Source/os_prio.c ****     bit            = 1u;
 184              		.loc 1 124 0
 185 0022 0123     		movs	r3, #1
 186 0024 FB60     		str	r3, [r7, #12]
 125:..\..\..\..\..\..\Software\uCOS-III\Source/os_prio.c ****     bit          <<= (DEF_INT_CPU_NBR_BITS - 1u) - bit_nbr;
 187              		.loc 1 125 0
 188 0026 3B69     		ldr	r3, [r7, #16]
 189 0028 1F22     		movs	r2, #31
 190 002a D31A     		subs	r3, r2, r3
 191 002c FA68     		ldr	r2, [r7, #12]
 192 002e 9A40     		lsls	r2, r2, r3
 193 0030 1300     		movs	r3, r2
 194 0032 FB60     		str	r3, [r7, #12]
 126:..\..\..\..\..\..\Software\uCOS-III\Source/os_prio.c ****     OSPrioTbl[ix] |= bit;
 195              		.loc 1 126 0
 196 0034 1723     		movs	r3, #23
 197 0036 FB18     		adds	r3, r7, r3
 198 0038 1A78     		ldrb	r2, [r3]
 199 003a 1723     		movs	r3, #23
 200 003c FB18     		adds	r3, r7, r3
 201 003e 1978     		ldrb	r1, [r3]
 202 0040 054B     		ldr	r3, .L13
 203 0042 8900     		lsls	r1, r1, #2
 204 0044 C958     		ldr	r1, [r1, r3]
 205 0046 FB68     		ldr	r3, [r7, #12]
 206 0048 1943     		orrs	r1, r3
 207 004a 034B     		ldr	r3, .L13
 208 004c 9200     		lsls	r2, r2, #2
 209 004e D150     		str	r1, [r2, r3]
 127:..\..\..\..\..\..\Software\uCOS-III\Source/os_prio.c **** }
 210              		.loc 1 127 0
 211 0050 C046     		nop
 212 0052 BD46     		mov	sp, r7
ARM GAS  C:\Users\EDULU~1.DES\AppData\Local\Temp\ccJfFrhb.s 			page 7


 213 0054 06B0     		add	sp, sp, #24
 214              		@ sp needed
 215 0056 80BD     		pop	{r7, pc}
 216              	.L14:
 217              		.align	2
 218              	.L13:
 219 0058 00000000 		.word	OSPrioTbl
 220              		.cfi_endproc
 221              	.LFE3:
 222              		.size	OS_PrioInsert, .-OS_PrioInsert
 223              		.section	.text.OS_PrioRemove,"ax",%progbits
 224              		.align	2
 225              		.global	OS_PrioRemove
 226              		.code	16
 227              		.thumb_func
 228              		.type	OS_PrioRemove, %function
 229              	OS_PrioRemove:
 230              	.LFB4:
 128:..\..\..\..\..\..\Software\uCOS-III\Source/os_prio.c **** 
 129:..\..\..\..\..\..\Software\uCOS-III\Source/os_prio.c **** /*
 130:..\..\..\..\..\..\Software\uCOS-III\Source/os_prio.c **** ***************************************************************************************************
 131:..\..\..\..\..\..\Software\uCOS-III\Source/os_prio.c **** *                                                   REMOVE PRIORITY
 132:..\..\..\..\..\..\Software\uCOS-III\Source/os_prio.c **** *
 133:..\..\..\..\..\..\Software\uCOS-III\Source/os_prio.c **** * Description: This function is called to remove a priority in the priority table.
 134:..\..\..\..\..\..\Software\uCOS-III\Source/os_prio.c **** *
 135:..\..\..\..\..\..\Software\uCOS-III\Source/os_prio.c **** * Arguments  : prio     is the priority to remove
 136:..\..\..\..\..\..\Software\uCOS-III\Source/os_prio.c **** *
 137:..\..\..\..\..\..\Software\uCOS-III\Source/os_prio.c **** * Returns    : none
 138:..\..\..\..\..\..\Software\uCOS-III\Source/os_prio.c **** *
 139:..\..\..\..\..\..\Software\uCOS-III\Source/os_prio.c **** * Note(s)    : 1) This function is INTERNAL to uC/OS-III and your application MUST NOT call it.
 140:..\..\..\..\..\..\Software\uCOS-III\Source/os_prio.c **** ***************************************************************************************************
 141:..\..\..\..\..\..\Software\uCOS-III\Source/os_prio.c **** */
 142:..\..\..\..\..\..\Software\uCOS-III\Source/os_prio.c **** 
 143:..\..\..\..\..\..\Software\uCOS-III\Source/os_prio.c **** void  OS_PrioRemove (OS_PRIO  prio)
 144:..\..\..\..\..\..\Software\uCOS-III\Source/os_prio.c **** {
 231              		.loc 1 144 0
 232              		.cfi_startproc
 233              		@ args = 0, pretend = 0, frame = 24
 234              		@ frame_needed = 1, uses_anonymous_args = 0
 235 0000 80B5     		push	{r7, lr}
 236              		.cfi_def_cfa_offset 8
 237              		.cfi_offset 7, -8
 238              		.cfi_offset 14, -4
 239 0002 86B0     		sub	sp, sp, #24
 240              		.cfi_def_cfa_offset 32
 241 0004 00AF     		add	r7, sp, #0
 242              		.cfi_def_cfa_register 7
 243 0006 0200     		movs	r2, r0
 244 0008 FB1D     		adds	r3, r7, #7
 245 000a 1A70     		strb	r2, [r3]
 145:..\..\..\..\..\..\Software\uCOS-III\Source/os_prio.c ****     CPU_DATA  bit;
 146:..\..\..\..\..\..\Software\uCOS-III\Source/os_prio.c ****     CPU_DATA  bit_nbr;
 147:..\..\..\..\..\..\Software\uCOS-III\Source/os_prio.c ****     OS_PRIO   ix;
 148:..\..\..\..\..\..\Software\uCOS-III\Source/os_prio.c **** 
 149:..\..\..\..\..\..\Software\uCOS-III\Source/os_prio.c **** 
 150:..\..\..\..\..\..\Software\uCOS-III\Source/os_prio.c ****     ix             = prio / DEF_INT_CPU_NBR_BITS;
 246              		.loc 1 150 0
ARM GAS  C:\Users\EDULU~1.DES\AppData\Local\Temp\ccJfFrhb.s 			page 8


 247 000c 1723     		movs	r3, #23
 248 000e FB18     		adds	r3, r7, r3
 249 0010 FA1D     		adds	r2, r7, #7
 250 0012 1278     		ldrb	r2, [r2]
 251 0014 5209     		lsrs	r2, r2, #5
 252 0016 1A70     		strb	r2, [r3]
 151:..\..\..\..\..\..\Software\uCOS-III\Source/os_prio.c ****     bit_nbr        = (CPU_DATA)prio & (DEF_INT_CPU_NBR_BITS - 1u);
 253              		.loc 1 151 0
 254 0018 FB1D     		adds	r3, r7, #7
 255 001a 1B78     		ldrb	r3, [r3]
 256 001c 1F22     		movs	r2, #31
 257 001e 1340     		ands	r3, r2
 258 0020 3B61     		str	r3, [r7, #16]
 152:..\..\..\..\..\..\Software\uCOS-III\Source/os_prio.c ****     bit            = 1u;
 259              		.loc 1 152 0
 260 0022 0123     		movs	r3, #1
 261 0024 FB60     		str	r3, [r7, #12]
 153:..\..\..\..\..\..\Software\uCOS-III\Source/os_prio.c ****     bit          <<= (DEF_INT_CPU_NBR_BITS - 1u) - bit_nbr;
 262              		.loc 1 153 0
 263 0026 3B69     		ldr	r3, [r7, #16]
 264 0028 1F22     		movs	r2, #31
 265 002a D31A     		subs	r3, r2, r3
 266 002c FA68     		ldr	r2, [r7, #12]
 267 002e 9A40     		lsls	r2, r2, r3
 268 0030 1300     		movs	r3, r2
 269 0032 FB60     		str	r3, [r7, #12]
 154:..\..\..\..\..\..\Software\uCOS-III\Source/os_prio.c ****     OSPrioTbl[ix] &= ~bit;
 270              		.loc 1 154 0
 271 0034 1723     		movs	r3, #23
 272 0036 FB18     		adds	r3, r7, r3
 273 0038 1A78     		ldrb	r2, [r3]
 274 003a 1723     		movs	r3, #23
 275 003c FB18     		adds	r3, r7, r3
 276 003e 1978     		ldrb	r1, [r3]
 277 0040 064B     		ldr	r3, .L16
 278 0042 8900     		lsls	r1, r1, #2
 279 0044 CB58     		ldr	r3, [r1, r3]
 280 0046 F968     		ldr	r1, [r7, #12]
 281 0048 C943     		mvns	r1, r1
 282 004a 1940     		ands	r1, r3
 283 004c 034B     		ldr	r3, .L16
 284 004e 9200     		lsls	r2, r2, #2
 285 0050 D150     		str	r1, [r2, r3]
 155:..\..\..\..\..\..\Software\uCOS-III\Source/os_prio.c **** }
 286              		.loc 1 155 0
 287 0052 C046     		nop
 288 0054 BD46     		mov	sp, r7
 289 0056 06B0     		add	sp, sp, #24
 290              		@ sp needed
 291 0058 80BD     		pop	{r7, pc}
 292              	.L17:
 293 005a C046     		.align	2
 294              	.L16:
 295 005c 00000000 		.word	OSPrioTbl
 296              		.cfi_endproc
 297              	.LFE4:
 298              		.size	OS_PrioRemove, .-OS_PrioRemove
ARM GAS  C:\Users\EDULU~1.DES\AppData\Local\Temp\ccJfFrhb.s 			page 9


 299              		.text
 300              	.Letext0:
 301              		.file 2 "..\\..\\..\\..\\..\\..\\Software\\uC-CPU\\ARM-Cortex-M0\\GNU/cpu.h"
 302              		.file 3 "..\\..\\..\\..\\..\\..\\Software\\uCOS-III\\Source/os_type.h"