ARM GAS  C:\Users\EDULU~1.DES\AppData\Local\Temp\ccsKkxps.s 			page 1


   1              		.syntax unified
   2              		.cpu cortex-m0
   3              		.fpu softvfp
   4              		.eabi_attribute 20, 1
   5              		.eabi_attribute 21, 1
   6              		.eabi_attribute 23, 3
   7              		.eabi_attribute 24, 1
   8              		.eabi_attribute 25, 1
   9              		.eabi_attribute 26, 1
  10              		.eabi_attribute 30, 6
  11              		.eabi_attribute 34, 0
  12              		.eabi_attribute 18, 4
  13              		.thumb
  14              		.syntax unified
  15              		.file	"os_stat.c"
  16              		.text
  17              	.Ltext0:
  18              		.cfi_sections	.debug_frame
  19              		.section	.text.OSStatReset,"ax",%progbits
  20              		.align	2
  21              		.global	OSStatReset
  22              		.code	16
  23              		.thumb_func
  24              		.type	OSStatReset, %function
  25              	OSStatReset:
  26              	.LFB1:
  27              		.file 1 "..\\..\\..\\..\\..\\..\\Software\\uCOS-III\\Source\\os_stat.c"
   1:..\..\..\..\..\..\Software\uCOS-III\Source/os_stat.c **** /*
   2:..\..\..\..\..\..\Software\uCOS-III\Source/os_stat.c **** ***************************************************************************************************
   3:..\..\..\..\..\..\Software\uCOS-III\Source/os_stat.c **** *                                                      uC/OS-III
   4:..\..\..\..\..\..\Software\uCOS-III\Source/os_stat.c **** *                                                 The Real-Time Kernel
   5:..\..\..\..\..\..\Software\uCOS-III\Source/os_stat.c **** *
   6:..\..\..\..\..\..\Software\uCOS-III\Source/os_stat.c **** *                                  (c) Copyright 2009-2012; Micrium, Inc.; Weston, FL
   7:..\..\..\..\..\..\Software\uCOS-III\Source/os_stat.c **** *                           All rights reserved.  Protected by international copyright laws.
   8:..\..\..\..\..\..\Software\uCOS-III\Source/os_stat.c **** *
   9:..\..\..\..\..\..\Software\uCOS-III\Source/os_stat.c **** *                                                  STATISTICS MODULE
  10:..\..\..\..\..\..\Software\uCOS-III\Source/os_stat.c **** *
  11:..\..\..\..\..\..\Software\uCOS-III\Source/os_stat.c **** * File    : OS_STAT.C
  12:..\..\..\..\..\..\Software\uCOS-III\Source/os_stat.c **** * By      : JJL
  13:..\..\..\..\..\..\Software\uCOS-III\Source/os_stat.c **** * Version : V3.03.01
  14:..\..\..\..\..\..\Software\uCOS-III\Source/os_stat.c **** *
  15:..\..\..\..\..\..\Software\uCOS-III\Source/os_stat.c **** * LICENSING TERMS:
  16:..\..\..\..\..\..\Software\uCOS-III\Source/os_stat.c **** * ---------------
  17:..\..\..\..\..\..\Software\uCOS-III\Source/os_stat.c **** *           uC/OS-III is provided in source form for FREE short-term evaluation, for educational us
  18:..\..\..\..\..\..\Software\uCOS-III\Source/os_stat.c **** *           for peaceful research.  If you plan or intend to use uC/OS-III in a commercial applicat
  19:..\..\..\..\..\..\Software\uCOS-III\Source/os_stat.c **** *           product then, you need to contact Micrium to properly license uC/OS-III for its use in 
  20:..\..\..\..\..\..\Software\uCOS-III\Source/os_stat.c **** *           application/product.   We provide ALL the source code for your convenience and to help 
  21:..\..\..\..\..\..\Software\uCOS-III\Source/os_stat.c **** *           experience uC/OS-III.  The fact that the source is provided does NOT mean that you can 
  22:..\..\..\..\..\..\Software\uCOS-III\Source/os_stat.c **** *           it commercially without paying a licensing fee.
  23:..\..\..\..\..\..\Software\uCOS-III\Source/os_stat.c **** *
  24:..\..\..\..\..\..\Software\uCOS-III\Source/os_stat.c **** *           Knowledge of the source code may NOT be used to develop a similar product.
  25:..\..\..\..\..\..\Software\uCOS-III\Source/os_stat.c **** *
  26:..\..\..\..\..\..\Software\uCOS-III\Source/os_stat.c **** *           Please help us continue to provide the embedded community with the finest software avai
  27:..\..\..\..\..\..\Software\uCOS-III\Source/os_stat.c **** *           Your honesty is greatly appreciated.
  28:..\..\..\..\..\..\Software\uCOS-III\Source/os_stat.c **** *
  29:..\..\..\..\..\..\Software\uCOS-III\Source/os_stat.c **** *           You can contact us at www.micrium.com, or by phone at +1 (954) 217-2036.
  30:..\..\..\..\..\..\Software\uCOS-III\Source/os_stat.c **** ***************************************************************************************************
ARM GAS  C:\Users\EDULU~1.DES\AppData\Local\Temp\ccsKkxps.s 			page 2


  31:..\..\..\..\..\..\Software\uCOS-III\Source/os_stat.c **** */
  32:..\..\..\..\..\..\Software\uCOS-III\Source/os_stat.c **** 
  33:..\..\..\..\..\..\Software\uCOS-III\Source/os_stat.c **** #define  MICRIUM_SOURCE
  34:..\..\..\..\..\..\Software\uCOS-III\Source/os_stat.c **** #include <os.h>
  35:..\..\..\..\..\..\Software\uCOS-III\Source/os_stat.c **** 
  36:..\..\..\..\..\..\Software\uCOS-III\Source/os_stat.c **** #ifdef VSC_INCLUDE_SOURCE_FILE_NAMES
  37:..\..\..\..\..\..\Software\uCOS-III\Source/os_stat.c **** const  CPU_CHAR  *os_stat__c = "$Id: $";
  38:..\..\..\..\..\..\Software\uCOS-III\Source/os_stat.c **** #endif
  39:..\..\..\..\..\..\Software\uCOS-III\Source/os_stat.c **** 
  40:..\..\..\..\..\..\Software\uCOS-III\Source/os_stat.c **** 
  41:..\..\..\..\..\..\Software\uCOS-III\Source/os_stat.c **** #if OS_CFG_STAT_TASK_EN > 0u
  42:..\..\..\..\..\..\Software\uCOS-III\Source/os_stat.c **** 
  43:..\..\..\..\..\..\Software\uCOS-III\Source/os_stat.c **** /*
  44:..\..\..\..\..\..\Software\uCOS-III\Source/os_stat.c **** ***************************************************************************************************
  45:..\..\..\..\..\..\Software\uCOS-III\Source/os_stat.c **** *                                                   RESET STATISTICS
  46:..\..\..\..\..\..\Software\uCOS-III\Source/os_stat.c **** *
  47:..\..\..\..\..\..\Software\uCOS-III\Source/os_stat.c **** * Description: This function is called by your application to reset the statistics.
  48:..\..\..\..\..\..\Software\uCOS-III\Source/os_stat.c **** *
  49:..\..\..\..\..\..\Software\uCOS-III\Source/os_stat.c **** * Argument(s): p_err      is a pointer to a variable that will contain an error code returned by th
  50:..\..\..\..\..\..\Software\uCOS-III\Source/os_stat.c **** *
  51:..\..\..\..\..\..\Software\uCOS-III\Source/os_stat.c **** *                             OS_ERR_NONE
  52:..\..\..\..\..\..\Software\uCOS-III\Source/os_stat.c **** *
  53:..\..\..\..\..\..\Software\uCOS-III\Source/os_stat.c **** * Returns    : none
  54:..\..\..\..\..\..\Software\uCOS-III\Source/os_stat.c **** ***************************************************************************************************
  55:..\..\..\..\..\..\Software\uCOS-III\Source/os_stat.c **** */
  56:..\..\..\..\..\..\Software\uCOS-III\Source/os_stat.c **** 
  57:..\..\..\..\..\..\Software\uCOS-III\Source/os_stat.c **** void  OSStatReset (OS_ERR  *p_err)
  58:..\..\..\..\..\..\Software\uCOS-III\Source/os_stat.c **** {
  28              		.loc 1 58 0
  29              		.cfi_startproc
  30              		@ args = 0, pretend = 0, frame = 16
  31              		@ frame_needed = 1, uses_anonymous_args = 0
  32 0000 80B5     		push	{r7, lr}
  33              		.cfi_def_cfa_offset 8
  34              		.cfi_offset 7, -8
  35              		.cfi_offset 14, -4
  36 0002 84B0     		sub	sp, sp, #16
  37              		.cfi_def_cfa_offset 24
  38 0004 00AF     		add	r7, sp, #0
  39              		.cfi_def_cfa_register 7
  40 0006 7860     		str	r0, [r7, #4]
  59:..\..\..\..\..\..\Software\uCOS-III\Source/os_stat.c **** #if (OS_CFG_DBG_EN > 0u)
  60:..\..\..\..\..\..\Software\uCOS-III\Source/os_stat.c ****     OS_TCB      *p_tcb;
  61:..\..\..\..\..\..\Software\uCOS-III\Source/os_stat.c **** #if (OS_MSG_EN > 0u)
  62:..\..\..\..\..\..\Software\uCOS-III\Source/os_stat.c ****     OS_MSG_Q    *p_msg_q;
  63:..\..\..\..\..\..\Software\uCOS-III\Source/os_stat.c **** #endif
  64:..\..\..\..\..\..\Software\uCOS-III\Source/os_stat.c **** #if (OS_CFG_Q_EN > 0u)
  65:..\..\..\..\..\..\Software\uCOS-III\Source/os_stat.c ****     OS_Q        *p_q;
  66:..\..\..\..\..\..\Software\uCOS-III\Source/os_stat.c **** #endif
  67:..\..\..\..\..\..\Software\uCOS-III\Source/os_stat.c **** #endif
  68:..\..\..\..\..\..\Software\uCOS-III\Source/os_stat.c ****     CPU_SR_ALLOC();
  41              		.loc 1 68 0
  42 0008 0023     		movs	r3, #0
  43 000a BB60     		str	r3, [r7, #8]
  69:..\..\..\..\..\..\Software\uCOS-III\Source/os_stat.c **** 
  70:..\..\..\..\..\..\Software\uCOS-III\Source/os_stat.c **** 
  71:..\..\..\..\..\..\Software\uCOS-III\Source/os_stat.c **** 
ARM GAS  C:\Users\EDULU~1.DES\AppData\Local\Temp\ccsKkxps.s 			page 3


  72:..\..\..\..\..\..\Software\uCOS-III\Source/os_stat.c **** #ifdef OS_SAFETY_CRITICAL
  73:..\..\..\..\..\..\Software\uCOS-III\Source/os_stat.c ****     if (p_err == (OS_ERR *)0) {
  74:..\..\..\..\..\..\Software\uCOS-III\Source/os_stat.c ****         OS_SAFETY_CRITICAL_EXCEPTION();
  75:..\..\..\..\..\..\Software\uCOS-III\Source/os_stat.c ****         return;
  76:..\..\..\..\..\..\Software\uCOS-III\Source/os_stat.c ****     }
  77:..\..\..\..\..\..\Software\uCOS-III\Source/os_stat.c **** #endif
  78:..\..\..\..\..\..\Software\uCOS-III\Source/os_stat.c **** 
  79:..\..\..\..\..\..\Software\uCOS-III\Source/os_stat.c ****     CPU_CRITICAL_ENTER();
  44              		.loc 1 79 0
  45 000c FFF7FEFF 		bl	CPU_SR_Save
  46 0010 0300     		movs	r3, r0
  47 0012 BB60     		str	r3, [r7, #8]
  48 0014 FFF7FEFF 		bl	CPU_IntDisMeasStart
  80:..\..\..\..\..\..\Software\uCOS-III\Source/os_stat.c **** #if OS_CFG_ISR_POST_DEFERRED_EN > 0u
  81:..\..\..\..\..\..\Software\uCOS-III\Source/os_stat.c ****     OSIntQTaskTimeMax     = (CPU_TS    )0;                  /* Reset the task execution times      
  82:..\..\..\..\..\..\Software\uCOS-III\Source/os_stat.c ****     OSIntQNbrEntriesMax   = (OS_OBJ_QTY)0;                  /* Reset the queue maximum number of en
  83:..\..\..\..\..\..\Software\uCOS-III\Source/os_stat.c **** #endif
  84:..\..\..\..\..\..\Software\uCOS-III\Source/os_stat.c **** 
  85:..\..\..\..\..\..\Software\uCOS-III\Source/os_stat.c **** #if OS_CFG_STAT_TASK_EN > 0u
  86:..\..\..\..\..\..\Software\uCOS-III\Source/os_stat.c ****     OSStatTaskCPUUsageMax = 0u;
  49              		.loc 1 86 0
  50 0018 224B     		ldr	r3, .L4
  51 001a 0022     		movs	r2, #0
  52 001c 1A80     		strh	r2, [r3]
  87:..\..\..\..\..\..\Software\uCOS-III\Source/os_stat.c ****     OSStatTaskTimeMax     = (CPU_TS)0;
  53              		.loc 1 87 0
  54 001e 224B     		ldr	r3, .L4+4
  55 0020 0022     		movs	r2, #0
  56 0022 1A60     		str	r2, [r3]
  88:..\..\..\..\..\..\Software\uCOS-III\Source/os_stat.c **** #endif
  89:..\..\..\..\..\..\Software\uCOS-III\Source/os_stat.c **** 
  90:..\..\..\..\..\..\Software\uCOS-III\Source/os_stat.c ****     OSTickTaskTimeMax     = (CPU_TS)0;
  57              		.loc 1 90 0
  58 0024 214B     		ldr	r3, .L4+8
  59 0026 0022     		movs	r2, #0
  60 0028 1A60     		str	r2, [r3]
  91:..\..\..\..\..\..\Software\uCOS-III\Source/os_stat.c **** 
  92:..\..\..\..\..\..\Software\uCOS-III\Source/os_stat.c **** #if OS_CFG_TMR_EN > 0u
  93:..\..\..\..\..\..\Software\uCOS-III\Source/os_stat.c ****     OSTmrTaskTimeMax      = (CPU_TS)0;
  61              		.loc 1 93 0
  62 002a 214B     		ldr	r3, .L4+12
  63 002c 0022     		movs	r2, #0
  64 002e 1A60     		str	r2, [r3]
  94:..\..\..\..\..\..\Software\uCOS-III\Source/os_stat.c **** #endif
  95:..\..\..\..\..\..\Software\uCOS-III\Source/os_stat.c **** 
  96:..\..\..\..\..\..\Software\uCOS-III\Source/os_stat.c **** #ifdef CPU_CFG_INT_DIS_MEAS_EN
  97:..\..\..\..\..\..\Software\uCOS-III\Source/os_stat.c ****     OSIntDisTimeMax       = (CPU_TS)0;                      /* Reset the maximum interrupt disable 
  65              		.loc 1 97 0
  66 0030 204B     		ldr	r3, .L4+16
  67 0032 0022     		movs	r2, #0
  68 0034 1A60     		str	r2, [r3]
  98:..\..\..\..\..\..\Software\uCOS-III\Source/os_stat.c **** #endif
  99:..\..\..\..\..\..\Software\uCOS-III\Source/os_stat.c **** 
 100:..\..\..\..\..\..\Software\uCOS-III\Source/os_stat.c **** #if OS_CFG_SCHED_LOCK_TIME_MEAS_EN > 0u
 101:..\..\..\..\..\..\Software\uCOS-III\Source/os_stat.c ****     OSSchedLockTimeMax    = (CPU_TS)0;                      /* Reset the maximum scheduler lock tim
 102:..\..\..\..\..\..\Software\uCOS-III\Source/os_stat.c **** #endif
 103:..\..\..\..\..\..\Software\uCOS-III\Source/os_stat.c **** 
ARM GAS  C:\Users\EDULU~1.DES\AppData\Local\Temp\ccsKkxps.s 			page 4


 104:..\..\..\..\..\..\Software\uCOS-III\Source/os_stat.c **** #if OS_MSG_EN > 0u
 105:..\..\..\..\..\..\Software\uCOS-III\Source/os_stat.c ****     OSMsgPool.NbrUsedMax  = 0u;
 106:..\..\..\..\..\..\Software\uCOS-III\Source/os_stat.c **** #endif
 107:..\..\..\..\..\..\Software\uCOS-III\Source/os_stat.c ****     CPU_CRITICAL_EXIT();
  69              		.loc 1 107 0
  70 0036 FFF7FEFF 		bl	CPU_IntDisMeasStop
  71 003a BB68     		ldr	r3, [r7, #8]
  72 003c 1800     		movs	r0, r3
  73 003e FFF7FEFF 		bl	CPU_SR_Restore
 108:..\..\..\..\..\..\Software\uCOS-III\Source/os_stat.c **** 
 109:..\..\..\..\..\..\Software\uCOS-III\Source/os_stat.c **** #if OS_CFG_DBG_EN > 0u
 110:..\..\..\..\..\..\Software\uCOS-III\Source/os_stat.c ****     CPU_CRITICAL_ENTER();
  74              		.loc 1 110 0
  75 0042 FFF7FEFF 		bl	CPU_SR_Save
  76 0046 0300     		movs	r3, r0
  77 0048 BB60     		str	r3, [r7, #8]
  78 004a FFF7FEFF 		bl	CPU_IntDisMeasStart
 111:..\..\..\..\..\..\Software\uCOS-III\Source/os_stat.c ****     p_tcb = OSTaskDbgListPtr;
  79              		.loc 1 111 0
  80 004e 1A4B     		ldr	r3, .L4+20
  81 0050 1B68     		ldr	r3, [r3]
  82 0052 FB60     		str	r3, [r7, #12]
 112:..\..\..\..\..\..\Software\uCOS-III\Source/os_stat.c ****     CPU_CRITICAL_EXIT();
  83              		.loc 1 112 0
  84 0054 FFF7FEFF 		bl	CPU_IntDisMeasStop
  85 0058 BB68     		ldr	r3, [r7, #8]
  86 005a 1800     		movs	r0, r3
  87 005c FFF7FEFF 		bl	CPU_SR_Restore
 113:..\..\..\..\..\..\Software\uCOS-III\Source/os_stat.c ****     while (p_tcb != (OS_TCB *)0) {                          /* Reset per-Task statistics           
  88              		.loc 1 113 0
  89 0060 11E0     		b	.L2
  90              	.L3:
 114:..\..\..\..\..\..\Software\uCOS-III\Source/os_stat.c ****         CPU_CRITICAL_ENTER();
  91              		.loc 1 114 0
  92 0062 FFF7FEFF 		bl	CPU_SR_Save
  93 0066 0300     		movs	r3, r0
  94 0068 BB60     		str	r3, [r7, #8]
  95 006a FFF7FEFF 		bl	CPU_IntDisMeasStart
 115:..\..\..\..\..\..\Software\uCOS-III\Source/os_stat.c **** 
 116:..\..\..\..\..\..\Software\uCOS-III\Source/os_stat.c **** #ifdef CPU_CFG_INT_DIS_MEAS_EN
 117:..\..\..\..\..\..\Software\uCOS-III\Source/os_stat.c ****         p_tcb->IntDisTimeMax    = (CPU_TS      )0;
  96              		.loc 1 117 0
  97 006e FB68     		ldr	r3, [r7, #12]
  98 0070 0022     		movs	r2, #0
  99 0072 DA66     		str	r2, [r3, #108]
 118:..\..\..\..\..\..\Software\uCOS-III\Source/os_stat.c **** #endif
 119:..\..\..\..\..\..\Software\uCOS-III\Source/os_stat.c **** 
 120:..\..\..\..\..\..\Software\uCOS-III\Source/os_stat.c **** #if OS_CFG_SCHED_LOCK_TIME_MEAS_EN > 0u
 121:..\..\..\..\..\..\Software\uCOS-III\Source/os_stat.c ****         p_tcb->SchedLockTimeMax = (CPU_TS      )0;
 122:..\..\..\..\..\..\Software\uCOS-III\Source/os_stat.c **** #endif
 123:..\..\..\..\..\..\Software\uCOS-III\Source/os_stat.c **** 
 124:..\..\..\..\..\..\Software\uCOS-III\Source/os_stat.c **** #if OS_CFG_TASK_PROFILE_EN > 0u
 125:..\..\..\..\..\..\Software\uCOS-III\Source/os_stat.c **** #if OS_CFG_TASK_Q_EN > 0u
 126:..\..\..\..\..\..\Software\uCOS-III\Source/os_stat.c ****         p_tcb->MsgQPendTimeMax  = (CPU_TS      )0;
 127:..\..\..\..\..\..\Software\uCOS-III\Source/os_stat.c **** #endif
 128:..\..\..\..\..\..\Software\uCOS-III\Source/os_stat.c ****         p_tcb->SemPendTimeMax   = (CPU_TS      )0;
 129:..\..\..\..\..\..\Software\uCOS-III\Source/os_stat.c ****         p_tcb->CtxSwCtr         = (OS_CTR      )0;
ARM GAS  C:\Users\EDULU~1.DES\AppData\Local\Temp\ccsKkxps.s 			page 5


 130:..\..\..\..\..\..\Software\uCOS-III\Source/os_stat.c ****         p_tcb->CPUUsage         = (OS_CPU_USAGE)0;
 131:..\..\..\..\..\..\Software\uCOS-III\Source/os_stat.c ****         p_tcb->CPUUsageMax      = (OS_CPU_USAGE)0;
 132:..\..\..\..\..\..\Software\uCOS-III\Source/os_stat.c ****         p_tcb->CyclesTotal      = (OS_CYCLES   )0;
 133:..\..\..\..\..\..\Software\uCOS-III\Source/os_stat.c ****         p_tcb->CyclesTotalPrev  = (OS_CYCLES   )0;
 134:..\..\..\..\..\..\Software\uCOS-III\Source/os_stat.c ****         p_tcb->CyclesStart      =  OS_TS_GET();
 135:..\..\..\..\..\..\Software\uCOS-III\Source/os_stat.c **** #endif
 136:..\..\..\..\..\..\Software\uCOS-III\Source/os_stat.c **** 
 137:..\..\..\..\..\..\Software\uCOS-III\Source/os_stat.c **** #if OS_CFG_TASK_Q_EN > 0u
 138:..\..\..\..\..\..\Software\uCOS-III\Source/os_stat.c ****         p_msg_q                 = &p_tcb->MsgQ;
 139:..\..\..\..\..\..\Software\uCOS-III\Source/os_stat.c ****         p_msg_q->NbrEntriesMax  = (OS_MSG_QTY  )0;
 140:..\..\..\..\..\..\Software\uCOS-III\Source/os_stat.c **** #endif
 141:..\..\..\..\..\..\Software\uCOS-III\Source/os_stat.c ****         p_tcb                   = p_tcb->DbgNextPtr;
 100              		.loc 1 141 0
 101 0074 FB68     		ldr	r3, [r7, #12]
 102 0076 5B6F     		ldr	r3, [r3, #116]
 103 0078 FB60     		str	r3, [r7, #12]
 142:..\..\..\..\..\..\Software\uCOS-III\Source/os_stat.c ****         CPU_CRITICAL_EXIT();
 104              		.loc 1 142 0
 105 007a FFF7FEFF 		bl	CPU_IntDisMeasStop
 106 007e BB68     		ldr	r3, [r7, #8]
 107 0080 1800     		movs	r0, r3
 108 0082 FFF7FEFF 		bl	CPU_SR_Restore
 109              	.L2:
 113:..\..\..\..\..\..\Software\uCOS-III\Source/os_stat.c ****         CPU_CRITICAL_ENTER();
 110              		.loc 1 113 0
 111 0086 FB68     		ldr	r3, [r7, #12]
 112 0088 002B     		cmp	r3, #0
 113 008a EAD1     		bne	.L3
 143:..\..\..\..\..\..\Software\uCOS-III\Source/os_stat.c ****     }
 144:..\..\..\..\..\..\Software\uCOS-III\Source/os_stat.c **** #endif
 145:..\..\..\..\..\..\Software\uCOS-III\Source/os_stat.c **** 
 146:..\..\..\..\..\..\Software\uCOS-III\Source/os_stat.c **** #if (OS_CFG_Q_EN > 0u) && (OS_CFG_DBG_EN > 0u)
 147:..\..\..\..\..\..\Software\uCOS-III\Source/os_stat.c ****     CPU_CRITICAL_ENTER();
 148:..\..\..\..\..\..\Software\uCOS-III\Source/os_stat.c ****     p_q = OSQDbgListPtr;
 149:..\..\..\..\..\..\Software\uCOS-III\Source/os_stat.c ****     CPU_CRITICAL_EXIT();
 150:..\..\..\..\..\..\Software\uCOS-III\Source/os_stat.c ****     while (p_q != (OS_Q *)0) {                              /* Reset message queues statistics     
 151:..\..\..\..\..\..\Software\uCOS-III\Source/os_stat.c ****         CPU_CRITICAL_ENTER();
 152:..\..\..\..\..\..\Software\uCOS-III\Source/os_stat.c ****         p_msg_q                = &p_q->MsgQ;
 153:..\..\..\..\..\..\Software\uCOS-III\Source/os_stat.c ****         p_msg_q->NbrEntriesMax = (OS_MSG_QTY)0;
 154:..\..\..\..\..\..\Software\uCOS-III\Source/os_stat.c ****         p_q                    = p_q->DbgNextPtr;
 155:..\..\..\..\..\..\Software\uCOS-III\Source/os_stat.c ****         CPU_CRITICAL_EXIT();
 156:..\..\..\..\..\..\Software\uCOS-III\Source/os_stat.c ****     }
 157:..\..\..\..\..\..\Software\uCOS-III\Source/os_stat.c **** #endif
 158:..\..\..\..\..\..\Software\uCOS-III\Source/os_stat.c **** 
 159:..\..\..\..\..\..\Software\uCOS-III\Source/os_stat.c ****     OS_TickListResetPeak();                                 /* Reset tick wheel statistics         
 114              		.loc 1 159 0
 115 008c FFF7FEFF 		bl	OS_TickListResetPeak
 160:..\..\..\..\..\..\Software\uCOS-III\Source/os_stat.c **** 
 161:..\..\..\..\..\..\Software\uCOS-III\Source/os_stat.c **** #if OS_CFG_TMR_EN > 0u
 162:..\..\..\..\..\..\Software\uCOS-III\Source/os_stat.c ****     OS_TmrResetPeak();
 116              		.loc 1 162 0
 117 0090 FFF7FEFF 		bl	OS_TmrResetPeak
 163:..\..\..\..\..\..\Software\uCOS-III\Source/os_stat.c **** #endif
 164:..\..\..\..\..\..\Software\uCOS-III\Source/os_stat.c **** 
 165:..\..\..\..\..\..\Software\uCOS-III\Source/os_stat.c **** 
 166:..\..\..\..\..\..\Software\uCOS-III\Source/os_stat.c ****    *p_err = OS_ERR_NONE;
 118              		.loc 1 166 0
ARM GAS  C:\Users\EDULU~1.DES\AppData\Local\Temp\ccsKkxps.s 			page 6


 119 0094 7B68     		ldr	r3, [r7, #4]
 120 0096 0022     		movs	r2, #0
 121 0098 1A80     		strh	r2, [r3]
 167:..\..\..\..\..\..\Software\uCOS-III\Source/os_stat.c **** }
 122              		.loc 1 167 0
 123 009a C046     		nop
 124 009c BD46     		mov	sp, r7
 125 009e 04B0     		add	sp, sp, #16
 126              		@ sp needed
 127 00a0 80BD     		pop	{r7, pc}
 128              	.L5:
 129 00a2 C046     		.align	2
 130              	.L4:
 131 00a4 00000000 		.word	OSStatTaskCPUUsageMax
 132 00a8 00000000 		.word	OSStatTaskTimeMax
 133 00ac 00000000 		.word	OSTickTaskTimeMax
 134 00b0 00000000 		.word	OSTmrTaskTimeMax
 135 00b4 00000000 		.word	OSIntDisTimeMax
 136 00b8 00000000 		.word	OSTaskDbgListPtr
 137              		.cfi_endproc
 138              	.LFE1:
 139              		.size	OSStatReset, .-OSStatReset
 140              		.global	__aeabi_uidiv
 141              		.section	.text.OSStatTaskCPUUsageInit,"ax",%progbits
 142              		.align	2
 143              		.global	OSStatTaskCPUUsageInit
 144              		.code	16
 145              		.thumb_func
 146              		.type	OSStatTaskCPUUsageInit, %function
 147              	OSStatTaskCPUUsageInit:
 148              	.LFB2:
 168:..\..\..\..\..\..\Software\uCOS-III\Source/os_stat.c **** 
 169:..\..\..\..\..\..\Software\uCOS-III\Source/os_stat.c **** /*$PAGE*/
 170:..\..\..\..\..\..\Software\uCOS-III\Source/os_stat.c **** /*
 171:..\..\..\..\..\..\Software\uCOS-III\Source/os_stat.c **** ***************************************************************************************************
 172:..\..\..\..\..\..\Software\uCOS-III\Source/os_stat.c **** *                                                DETERMINE THE CPU CAPACITY
 173:..\..\..\..\..\..\Software\uCOS-III\Source/os_stat.c **** *
 174:..\..\..\..\..\..\Software\uCOS-III\Source/os_stat.c **** * Description: This function is called by your application to establish CPU usage by first determin
 175:..\..\..\..\..\..\Software\uCOS-III\Source/os_stat.c **** *              counter would count to in 1/10 second if no other tasks were to execute during that 
 176:..\..\..\..\..\..\Software\uCOS-III\Source/os_stat.c **** *              then determined by a low priority task which keeps track of this 32-bit counter ever
 177:..\..\..\..\..\..\Software\uCOS-III\Source/os_stat.c **** *              time, with other tasks running.  CPU usage is determined by:
 178:..\..\..\..\..\..\Software\uCOS-III\Source/os_stat.c **** *
 179:..\..\..\..\..\..\Software\uCOS-III\Source/os_stat.c **** *                                             OS_Stat_IdleCtr
 180:..\..\..\..\..\..\Software\uCOS-III\Source/os_stat.c **** *                 CPU Usage (%) = 100 * (1 - ------------------)
 181:..\..\..\..\..\..\Software\uCOS-III\Source/os_stat.c **** *                                            OS_Stat_IdleCtrMax
 182:..\..\..\..\..\..\Software\uCOS-III\Source/os_stat.c **** *
 183:..\..\..\..\..\..\Software\uCOS-III\Source/os_stat.c **** * Argument(s): p_err      is a pointer to a variable that will contain an error code returned by th
 184:..\..\..\..\..\..\Software\uCOS-III\Source/os_stat.c **** *
 185:..\..\..\..\..\..\Software\uCOS-III\Source/os_stat.c **** *                             OS_ERR_NONE
 186:..\..\..\..\..\..\Software\uCOS-III\Source/os_stat.c **** *
 187:..\..\..\..\..\..\Software\uCOS-III\Source/os_stat.c **** * Returns    : none
 188:..\..\..\..\..\..\Software\uCOS-III\Source/os_stat.c **** ***************************************************************************************************
 189:..\..\..\..\..\..\Software\uCOS-III\Source/os_stat.c **** */
 190:..\..\..\..\..\..\Software\uCOS-III\Source/os_stat.c **** 
 191:..\..\..\..\..\..\Software\uCOS-III\Source/os_stat.c **** void  OSStatTaskCPUUsageInit (OS_ERR  *p_err)
 192:..\..\..\..\..\..\Software\uCOS-III\Source/os_stat.c **** {
 149              		.loc 1 192 0
ARM GAS  C:\Users\EDULU~1.DES\AppData\Local\Temp\ccsKkxps.s 			page 7


 150              		.cfi_startproc
 151              		@ args = 0, pretend = 0, frame = 24
 152              		@ frame_needed = 1, uses_anonymous_args = 0
 153 0000 80B5     		push	{r7, lr}
 154              		.cfi_def_cfa_offset 8
 155              		.cfi_offset 7, -8
 156              		.cfi_offset 14, -4
 157 0002 86B0     		sub	sp, sp, #24
 158              		.cfi_def_cfa_offset 32
 159 0004 00AF     		add	r7, sp, #0
 160              		.cfi_def_cfa_register 7
 161 0006 7860     		str	r0, [r7, #4]
 193:..\..\..\..\..\..\Software\uCOS-III\Source/os_stat.c ****     OS_ERR   err;
 194:..\..\..\..\..\..\Software\uCOS-III\Source/os_stat.c ****     OS_TICK  dly;
 195:..\..\..\..\..\..\Software\uCOS-III\Source/os_stat.c ****     CPU_SR_ALLOC();
 162              		.loc 1 195 0
 163 0008 0023     		movs	r3, #0
 164 000a 3B61     		str	r3, [r7, #16]
 196:..\..\..\..\..\..\Software\uCOS-III\Source/os_stat.c **** 
 197:..\..\..\..\..\..\Software\uCOS-III\Source/os_stat.c **** 
 198:..\..\..\..\..\..\Software\uCOS-III\Source/os_stat.c **** 
 199:..\..\..\..\..\..\Software\uCOS-III\Source/os_stat.c **** #ifdef OS_SAFETY_CRITICAL
 200:..\..\..\..\..\..\Software\uCOS-III\Source/os_stat.c ****     if (p_err == (OS_ERR *)0) {
 201:..\..\..\..\..\..\Software\uCOS-III\Source/os_stat.c ****         OS_SAFETY_CRITICAL_EXCEPTION();
 202:..\..\..\..\..\..\Software\uCOS-III\Source/os_stat.c ****         return;
 203:..\..\..\..\..\..\Software\uCOS-III\Source/os_stat.c ****     }
 204:..\..\..\..\..\..\Software\uCOS-III\Source/os_stat.c **** #endif
 205:..\..\..\..\..\..\Software\uCOS-III\Source/os_stat.c **** 
 206:..\..\..\..\..\..\Software\uCOS-III\Source/os_stat.c **** #if (OS_CFG_TMR_EN > 0u)
 207:..\..\..\..\..\..\Software\uCOS-III\Source/os_stat.c ****     OSTaskSuspend(&OSTmrTaskTCB, &err);
 165              		.loc 1 207 0
 166 000c 0E23     		movs	r3, #14
 167 000e FA18     		adds	r2, r7, r3
 168 0010 414B     		ldr	r3, .L14
 169 0012 1100     		movs	r1, r2
 170 0014 1800     		movs	r0, r3
 171 0016 FFF7FEFF 		bl	OSTaskSuspend
 208:..\..\..\..\..\..\Software\uCOS-III\Source/os_stat.c ****     if (err != OS_ERR_NONE) {
 172              		.loc 1 208 0
 173 001a 0E23     		movs	r3, #14
 174 001c FB18     		adds	r3, r7, r3
 175 001e 1B88     		ldrh	r3, [r3]
 176 0020 002B     		cmp	r3, #0
 177 0022 05D0     		beq	.L7
 209:..\..\..\..\..\..\Software\uCOS-III\Source/os_stat.c ****        *p_err = err;
 178              		.loc 1 209 0
 179 0024 0E23     		movs	r3, #14
 180 0026 FB18     		adds	r3, r7, r3
 181 0028 1A88     		ldrh	r2, [r3]
 182 002a 7B68     		ldr	r3, [r7, #4]
 183 002c 1A80     		strh	r2, [r3]
 210:..\..\..\..\..\..\Software\uCOS-III\Source/os_stat.c ****         return;
 184              		.loc 1 210 0
 185 002e 6FE0     		b	.L6
 186              	.L7:
 211:..\..\..\..\..\..\Software\uCOS-III\Source/os_stat.c ****     }
 212:..\..\..\..\..\..\Software\uCOS-III\Source/os_stat.c **** #endif
ARM GAS  C:\Users\EDULU~1.DES\AppData\Local\Temp\ccsKkxps.s 			page 8


 213:..\..\..\..\..\..\Software\uCOS-III\Source/os_stat.c **** 
 214:..\..\..\..\..\..\Software\uCOS-III\Source/os_stat.c ****     OSTimeDly((OS_TICK )2,                                  /* Synchronize with clock tick         
 187              		.loc 1 214 0
 188 0030 0E23     		movs	r3, #14
 189 0032 FB18     		adds	r3, r7, r3
 190 0034 1A00     		movs	r2, r3
 191 0036 0021     		movs	r1, #0
 192 0038 0220     		movs	r0, #2
 193 003a FFF7FEFF 		bl	OSTimeDly
 215:..\..\..\..\..\..\Software\uCOS-III\Source/os_stat.c ****               (OS_OPT  )OS_OPT_TIME_DLY,
 216:..\..\..\..\..\..\Software\uCOS-III\Source/os_stat.c ****               (OS_ERR *)&err);
 217:..\..\..\..\..\..\Software\uCOS-III\Source/os_stat.c ****     if (err != OS_ERR_NONE) {
 194              		.loc 1 217 0
 195 003e 0E23     		movs	r3, #14
 196 0040 FB18     		adds	r3, r7, r3
 197 0042 1B88     		ldrh	r3, [r3]
 198 0044 002B     		cmp	r3, #0
 199 0046 05D0     		beq	.L9
 218:..\..\..\..\..\..\Software\uCOS-III\Source/os_stat.c ****        *p_err = err;
 200              		.loc 1 218 0
 201 0048 0E23     		movs	r3, #14
 202 004a FB18     		adds	r3, r7, r3
 203 004c 1A88     		ldrh	r2, [r3]
 204 004e 7B68     		ldr	r3, [r7, #4]
 205 0050 1A80     		strh	r2, [r3]
 219:..\..\..\..\..\..\Software\uCOS-III\Source/os_stat.c ****         return;
 206              		.loc 1 219 0
 207 0052 5DE0     		b	.L6
 208              	.L9:
 220:..\..\..\..\..\..\Software\uCOS-III\Source/os_stat.c ****     }
 221:..\..\..\..\..\..\Software\uCOS-III\Source/os_stat.c ****     CPU_CRITICAL_ENTER();
 209              		.loc 1 221 0
 210 0054 FFF7FEFF 		bl	CPU_SR_Save
 211 0058 0300     		movs	r3, r0
 212 005a 3B61     		str	r3, [r7, #16]
 213 005c FFF7FEFF 		bl	CPU_IntDisMeasStart
 222:..\..\..\..\..\..\Software\uCOS-III\Source/os_stat.c ****     OSStatTaskCtr = (OS_TICK)0;                             /* Clear idle counter                  
 214              		.loc 1 222 0
 215 0060 2E4B     		ldr	r3, .L14+4
 216 0062 0022     		movs	r2, #0
 217 0064 1A60     		str	r2, [r3]
 223:..\..\..\..\..\..\Software\uCOS-III\Source/os_stat.c ****     CPU_CRITICAL_EXIT();
 218              		.loc 1 223 0
 219 0066 FFF7FEFF 		bl	CPU_IntDisMeasStop
 220 006a 3B69     		ldr	r3, [r7, #16]
 221 006c 1800     		movs	r0, r3
 222 006e FFF7FEFF 		bl	CPU_SR_Restore
 224:..\..\..\..\..\..\Software\uCOS-III\Source/os_stat.c **** 
 225:..\..\..\..\..\..\Software\uCOS-III\Source/os_stat.c ****     dly = (OS_TICK)0;
 223              		.loc 1 225 0
 224 0072 0023     		movs	r3, #0
 225 0074 7B61     		str	r3, [r7, #20]
 226:..\..\..\..\..\..\Software\uCOS-III\Source/os_stat.c ****     if (OSCfg_TickRate_Hz > OSCfg_StatTaskRate_Hz) {
 226              		.loc 1 226 0
 227 0076 2A4B     		ldr	r3, .L14+8
 228 0078 1A68     		ldr	r2, [r3]
 229 007a 2A4B     		ldr	r3, .L14+12
ARM GAS  C:\Users\EDULU~1.DES\AppData\Local\Temp\ccsKkxps.s 			page 9


 230 007c 1B68     		ldr	r3, [r3]
 231 007e 9A42     		cmp	r2, r3
 232 0080 09D9     		bls	.L10
 227:..\..\..\..\..\..\Software\uCOS-III\Source/os_stat.c ****         dly = (OS_TICK)(OSCfg_TickRate_Hz / OSCfg_StatTaskRate_Hz);
 233              		.loc 1 227 0
 234 0082 274B     		ldr	r3, .L14+8
 235 0084 1A68     		ldr	r2, [r3]
 236 0086 274B     		ldr	r3, .L14+12
 237 0088 1B68     		ldr	r3, [r3]
 238 008a 1900     		movs	r1, r3
 239 008c 1000     		movs	r0, r2
 240 008e FFF7FEFF 		bl	__aeabi_uidiv
 241 0092 0300     		movs	r3, r0
 242 0094 7B61     		str	r3, [r7, #20]
 243              	.L10:
 228:..\..\..\..\..\..\Software\uCOS-III\Source/os_stat.c ****     }
 229:..\..\..\..\..\..\Software\uCOS-III\Source/os_stat.c ****     if (dly == (OS_TICK)0) {
 244              		.loc 1 229 0
 245 0096 7B69     		ldr	r3, [r7, #20]
 246 0098 002B     		cmp	r3, #0
 247 009a 07D1     		bne	.L11
 230:..\..\..\..\..\..\Software\uCOS-III\Source/os_stat.c ****         dly =  (OS_TICK)(OSCfg_TickRate_Hz / (OS_RATE_HZ)10);
 248              		.loc 1 230 0
 249 009c 204B     		ldr	r3, .L14+8
 250 009e 1B68     		ldr	r3, [r3]
 251 00a0 0A21     		movs	r1, #10
 252 00a2 1800     		movs	r0, r3
 253 00a4 FFF7FEFF 		bl	__aeabi_uidiv
 254 00a8 0300     		movs	r3, r0
 255 00aa 7B61     		str	r3, [r7, #20]
 256              	.L11:
 231:..\..\..\..\..\..\Software\uCOS-III\Source/os_stat.c ****     }
 232:..\..\..\..\..\..\Software\uCOS-III\Source/os_stat.c **** 
 233:..\..\..\..\..\..\Software\uCOS-III\Source/os_stat.c ****     OSTimeDly(dly,                                          /* Determine MAX. idle counter value   
 257              		.loc 1 233 0
 258 00ac 0E23     		movs	r3, #14
 259 00ae FA18     		adds	r2, r7, r3
 260 00b0 7B69     		ldr	r3, [r7, #20]
 261 00b2 0021     		movs	r1, #0
 262 00b4 1800     		movs	r0, r3
 263 00b6 FFF7FEFF 		bl	OSTimeDly
 234:..\..\..\..\..\..\Software\uCOS-III\Source/os_stat.c ****               OS_OPT_TIME_DLY,
 235:..\..\..\..\..\..\Software\uCOS-III\Source/os_stat.c ****               &err);
 236:..\..\..\..\..\..\Software\uCOS-III\Source/os_stat.c **** 
 237:..\..\..\..\..\..\Software\uCOS-III\Source/os_stat.c **** #if (OS_CFG_TMR_EN > 0u)
 238:..\..\..\..\..\..\Software\uCOS-III\Source/os_stat.c ****     OSTaskResume(&OSTmrTaskTCB, &err);
 264              		.loc 1 238 0
 265 00ba 0E23     		movs	r3, #14
 266 00bc FA18     		adds	r2, r7, r3
 267 00be 164B     		ldr	r3, .L14
 268 00c0 1100     		movs	r1, r2
 269 00c2 1800     		movs	r0, r3
 270 00c4 FFF7FEFF 		bl	OSTaskResume
 239:..\..\..\..\..\..\Software\uCOS-III\Source/os_stat.c ****     if (err != OS_ERR_NONE) {
 271              		.loc 1 239 0
 272 00c8 0E23     		movs	r3, #14
 273 00ca FB18     		adds	r3, r7, r3
ARM GAS  C:\Users\EDULU~1.DES\AppData\Local\Temp\ccsKkxps.s 			page 10


 274 00cc 1B88     		ldrh	r3, [r3]
 275 00ce 002B     		cmp	r3, #0
 276 00d0 05D0     		beq	.L12
 240:..\..\..\..\..\..\Software\uCOS-III\Source/os_stat.c ****        *p_err = err;
 277              		.loc 1 240 0
 278 00d2 0E23     		movs	r3, #14
 279 00d4 FB18     		adds	r3, r7, r3
 280 00d6 1A88     		ldrh	r2, [r3]
 281 00d8 7B68     		ldr	r3, [r7, #4]
 282 00da 1A80     		strh	r2, [r3]
 241:..\..\..\..\..\..\Software\uCOS-III\Source/os_stat.c ****         return;
 283              		.loc 1 241 0
 284 00dc 18E0     		b	.L6
 285              	.L12:
 242:..\..\..\..\..\..\Software\uCOS-III\Source/os_stat.c ****     }
 243:..\..\..\..\..\..\Software\uCOS-III\Source/os_stat.c **** #endif
 244:..\..\..\..\..\..\Software\uCOS-III\Source/os_stat.c **** 
 245:..\..\..\..\..\..\Software\uCOS-III\Source/os_stat.c ****     CPU_CRITICAL_ENTER();
 286              		.loc 1 245 0
 287 00de FFF7FEFF 		bl	CPU_SR_Save
 288 00e2 0300     		movs	r3, r0
 289 00e4 3B61     		str	r3, [r7, #16]
 290 00e6 FFF7FEFF 		bl	CPU_IntDisMeasStart
 246:..\..\..\..\..\..\Software\uCOS-III\Source/os_stat.c ****     OSStatTaskTimeMax = (CPU_TS)0;
 291              		.loc 1 246 0
 292 00ea 0F4B     		ldr	r3, .L14+16
 293 00ec 0022     		movs	r2, #0
 294 00ee 1A60     		str	r2, [r3]
 247:..\..\..\..\..\..\Software\uCOS-III\Source/os_stat.c **** 
 248:..\..\..\..\..\..\Software\uCOS-III\Source/os_stat.c ****     OSStatTaskCtrMax  = OSStatTaskCtr;                      /* Store maximum idle counter count    
 295              		.loc 1 248 0
 296 00f0 0A4B     		ldr	r3, .L14+4
 297 00f2 1A68     		ldr	r2, [r3]
 298 00f4 0D4B     		ldr	r3, .L14+20
 299 00f6 1A60     		str	r2, [r3]
 249:..\..\..\..\..\..\Software\uCOS-III\Source/os_stat.c ****     OSStatTaskRdy     = OS_STATE_RDY;
 300              		.loc 1 249 0
 301 00f8 0D4B     		ldr	r3, .L14+24
 302 00fa 0122     		movs	r2, #1
 303 00fc 1A70     		strb	r2, [r3]
 250:..\..\..\..\..\..\Software\uCOS-III\Source/os_stat.c ****     CPU_CRITICAL_EXIT();
 304              		.loc 1 250 0
 305 00fe FFF7FEFF 		bl	CPU_IntDisMeasStop
 306 0102 3B69     		ldr	r3, [r7, #16]
 307 0104 1800     		movs	r0, r3
 308 0106 FFF7FEFF 		bl	CPU_SR_Restore
 251:..\..\..\..\..\..\Software\uCOS-III\Source/os_stat.c ****    *p_err             = OS_ERR_NONE;
 309              		.loc 1 251 0
 310 010a 7B68     		ldr	r3, [r7, #4]
 311 010c 0022     		movs	r2, #0
 312 010e 1A80     		strh	r2, [r3]
 313              	.L6:
 252:..\..\..\..\..\..\Software\uCOS-III\Source/os_stat.c **** }
 314              		.loc 1 252 0
 315 0110 BD46     		mov	sp, r7
 316 0112 06B0     		add	sp, sp, #24
 317              		@ sp needed
ARM GAS  C:\Users\EDULU~1.DES\AppData\Local\Temp\ccsKkxps.s 			page 11


 318 0114 80BD     		pop	{r7, pc}
 319              	.L15:
 320 0116 C046     		.align	2
 321              	.L14:
 322 0118 00000000 		.word	OSTmrTaskTCB
 323 011c 00000000 		.word	OSStatTaskCtr
 324 0120 00000000 		.word	OSCfg_TickRate_Hz
 325 0124 00000000 		.word	OSCfg_StatTaskRate_Hz
 326 0128 00000000 		.word	OSStatTaskTimeMax
 327 012c 00000000 		.word	OSStatTaskCtrMax
 328 0130 00000000 		.word	OSStatTaskRdy
 329              		.cfi_endproc
 330              	.LFE2:
 331              		.size	OSStatTaskCPUUsageInit, .-OSStatTaskCPUUsageInit
 332              		.section	.text.OS_StatTask,"ax",%progbits
 333              		.align	2
 334              		.global	OS_StatTask
 335              		.code	16
 336              		.thumb_func
 337              		.type	OS_StatTask, %function
 338              	OS_StatTask:
 339              	.LFB3:
 253:..\..\..\..\..\..\Software\uCOS-III\Source/os_stat.c **** 
 254:..\..\..\..\..\..\Software\uCOS-III\Source/os_stat.c **** /*$PAGE*/
 255:..\..\..\..\..\..\Software\uCOS-III\Source/os_stat.c **** /*
 256:..\..\..\..\..\..\Software\uCOS-III\Source/os_stat.c **** ***************************************************************************************************
 257:..\..\..\..\..\..\Software\uCOS-III\Source/os_stat.c **** *                                                    STATISTICS TASK
 258:..\..\..\..\..\..\Software\uCOS-III\Source/os_stat.c **** *
 259:..\..\..\..\..\..\Software\uCOS-III\Source/os_stat.c **** * Description: This task is internal to uC/OS-III and is used to compute some statistics about the 
 260:..\..\..\..\..\..\Software\uCOS-III\Source/os_stat.c **** *              environment.  Specifically, OS_StatTask() computes the CPU usage.  CPU usage is dete
 261:..\..\..\..\..\..\Software\uCOS-III\Source/os_stat.c **** *
 262:..\..\..\..\..\..\Software\uCOS-III\Source/os_stat.c **** *                                                   OSStatTaskCtr
 263:..\..\..\..\..\..\Software\uCOS-III\Source/os_stat.c **** *                 OSStatTaskCPUUsage = 100 * (1 - ------------------)     (units are in %)
 264:..\..\..\..\..\..\Software\uCOS-III\Source/os_stat.c **** *                                                  OSStatTaskCtrMax
 265:..\..\..\..\..\..\Software\uCOS-III\Source/os_stat.c **** *
 266:..\..\..\..\..\..\Software\uCOS-III\Source/os_stat.c **** * Arguments  : p_arg     this pointer is not used at this time.
 267:..\..\..\..\..\..\Software\uCOS-III\Source/os_stat.c **** *
 268:..\..\..\..\..\..\Software\uCOS-III\Source/os_stat.c **** * Returns    : none
 269:..\..\..\..\..\..\Software\uCOS-III\Source/os_stat.c **** *
 270:..\..\..\..\..\..\Software\uCOS-III\Source/os_stat.c **** * Note(s)    : 1) This task runs at a priority level higher than the idle task.
 271:..\..\..\..\..\..\Software\uCOS-III\Source/os_stat.c **** *
 272:..\..\..\..\..\..\Software\uCOS-III\Source/os_stat.c **** *              2) You can disable this task by setting the configuration #define OS_CFG_STAT_TASK_E
 273:..\..\..\..\..\..\Software\uCOS-III\Source/os_stat.c **** *
 274:..\..\..\..\..\..\Software\uCOS-III\Source/os_stat.c **** *              3) You MUST have at least a delay of 2/10 seconds to allow for the system to establi
 275:..\..\..\..\..\..\Software\uCOS-III\Source/os_stat.c **** *                 for the idle counter.
 276:..\..\..\..\..\..\Software\uCOS-III\Source/os_stat.c **** *
 277:..\..\..\..\..\..\Software\uCOS-III\Source/os_stat.c **** *              4) This function is INTERNAL to uC/OS-III and your application should not call it.
 278:..\..\..\..\..\..\Software\uCOS-III\Source/os_stat.c **** ***************************************************************************************************
 279:..\..\..\..\..\..\Software\uCOS-III\Source/os_stat.c **** */
 280:..\..\..\..\..\..\Software\uCOS-III\Source/os_stat.c **** 
 281:..\..\..\..\..\..\Software\uCOS-III\Source/os_stat.c **** void  OS_StatTask (void  *p_arg)
 282:..\..\..\..\..\..\Software\uCOS-III\Source/os_stat.c **** {
 340              		.loc 1 282 0
 341              		.cfi_startproc
 342              		@ args = 0, pretend = 0, frame = 48
 343              		@ frame_needed = 1, uses_anonymous_args = 0
 344 0000 80B5     		push	{r7, lr}
ARM GAS  C:\Users\EDULU~1.DES\AppData\Local\Temp\ccsKkxps.s 			page 12


 345              		.cfi_def_cfa_offset 8
 346              		.cfi_offset 7, -8
 347              		.cfi_offset 14, -4
 348 0002 8CB0     		sub	sp, sp, #48
 349              		.cfi_def_cfa_offset 56
 350 0004 00AF     		add	r7, sp, #0
 351              		.cfi_def_cfa_register 7
 352 0006 7860     		str	r0, [r7, #4]
 283:..\..\..\..\..\..\Software\uCOS-III\Source/os_stat.c **** #if OS_CFG_DBG_EN > 0u
 284:..\..\..\..\..\..\Software\uCOS-III\Source/os_stat.c **** #if OS_CFG_TASK_PROFILE_EN > 0u
 285:..\..\..\..\..\..\Software\uCOS-III\Source/os_stat.c ****     OS_CPU_USAGE usage;
 286:..\..\..\..\..\..\Software\uCOS-III\Source/os_stat.c ****     OS_CYCLES    cycles_total;
 287:..\..\..\..\..\..\Software\uCOS-III\Source/os_stat.c ****     OS_CYCLES    cycles_div;
 288:..\..\..\..\..\..\Software\uCOS-III\Source/os_stat.c ****     OS_CYCLES    cycles_mult;
 289:..\..\..\..\..\..\Software\uCOS-III\Source/os_stat.c ****     OS_CYCLES    cycles_max;
 290:..\..\..\..\..\..\Software\uCOS-III\Source/os_stat.c **** #endif
 291:..\..\..\..\..\..\Software\uCOS-III\Source/os_stat.c ****     OS_TCB      *p_tcb;
 292:..\..\..\..\..\..\Software\uCOS-III\Source/os_stat.c **** #endif
 293:..\..\..\..\..\..\Software\uCOS-III\Source/os_stat.c ****     OS_TICK      ctr_max;
 294:..\..\..\..\..\..\Software\uCOS-III\Source/os_stat.c ****     OS_TICK      ctr_mult;
 295:..\..\..\..\..\..\Software\uCOS-III\Source/os_stat.c ****     OS_TICK      ctr_div;
 296:..\..\..\..\..\..\Software\uCOS-III\Source/os_stat.c ****     OS_ERR       err;
 297:..\..\..\..\..\..\Software\uCOS-III\Source/os_stat.c ****     OS_TICK      dly;
 298:..\..\..\..\..\..\Software\uCOS-III\Source/os_stat.c ****     CPU_TS       ts_start;
 299:..\..\..\..\..\..\Software\uCOS-III\Source/os_stat.c ****     CPU_TS       ts_end;
 300:..\..\..\..\..\..\Software\uCOS-III\Source/os_stat.c ****     CPU_SR_ALLOC();
 353              		.loc 1 300 0
 354 0008 0023     		movs	r3, #0
 355 000a FB61     		str	r3, [r7, #28]
 301:..\..\..\..\..\..\Software\uCOS-III\Source/os_stat.c **** 
 302:..\..\..\..\..\..\Software\uCOS-III\Source/os_stat.c **** 
 303:..\..\..\..\..\..\Software\uCOS-III\Source/os_stat.c **** 
 304:..\..\..\..\..\..\Software\uCOS-III\Source/os_stat.c ****     p_arg = p_arg;                                          /* Prevent compiler warning for not usi
 305:..\..\..\..\..\..\Software\uCOS-III\Source/os_stat.c ****     while (OSStatTaskRdy != DEF_TRUE) {
 356              		.loc 1 305 0
 357 000c 08E0     		b	.L17
 358              	.L18:
 306:..\..\..\..\..\..\Software\uCOS-III\Source/os_stat.c ****         OSTimeDly(2u * OSCfg_StatTaskRate_Hz,               /* Wait until statistic task is ready  
 359              		.loc 1 306 0
 360 000e 7A4B     		ldr	r3, .L33
 361 0010 1B68     		ldr	r3, [r3]
 362 0012 5B00     		lsls	r3, r3, #1
 363 0014 0E22     		movs	r2, #14
 364 0016 BA18     		adds	r2, r7, r2
 365 0018 0021     		movs	r1, #0
 366 001a 1800     		movs	r0, r3
 367 001c FFF7FEFF 		bl	OSTimeDly
 368              	.L17:
 305:..\..\..\..\..\..\Software\uCOS-III\Source/os_stat.c ****         OSTimeDly(2u * OSCfg_StatTaskRate_Hz,               /* Wait until statistic task is ready  
 369              		.loc 1 305 0
 370 0020 764B     		ldr	r3, .L33+4
 371 0022 1B78     		ldrb	r3, [r3]
 372 0024 012B     		cmp	r3, #1
 373 0026 F2D1     		bne	.L18
 307:..\..\..\..\..\..\Software\uCOS-III\Source/os_stat.c ****                   OS_OPT_TIME_DLY,
 308:..\..\..\..\..\..\Software\uCOS-III\Source/os_stat.c ****                   &err);
 309:..\..\..\..\..\..\Software\uCOS-III\Source/os_stat.c ****     }
ARM GAS  C:\Users\EDULU~1.DES\AppData\Local\Temp\ccsKkxps.s 			page 13


 310:..\..\..\..\..\..\Software\uCOS-III\Source/os_stat.c ****     OSStatReset(&err);                                      /* Reset statistics                    
 374              		.loc 1 310 0
 375 0028 0E23     		movs	r3, #14
 376 002a FB18     		adds	r3, r7, r3
 377 002c 1800     		movs	r0, r3
 378 002e FFF7FEFF 		bl	OSStatReset
 311:..\..\..\..\..\..\Software\uCOS-III\Source/os_stat.c **** 
 312:..\..\..\..\..\..\Software\uCOS-III\Source/os_stat.c ****     dly = (OS_TICK)0;                                       /* Compute statistic task sleep delay  
 379              		.loc 1 312 0
 380 0032 0023     		movs	r3, #0
 381 0034 3B62     		str	r3, [r7, #32]
 313:..\..\..\..\..\..\Software\uCOS-III\Source/os_stat.c ****     if (OSCfg_TickRate_Hz > OSCfg_StatTaskRate_Hz) {
 382              		.loc 1 313 0
 383 0036 724B     		ldr	r3, .L33+8
 384 0038 1A68     		ldr	r2, [r3]
 385 003a 6F4B     		ldr	r3, .L33
 386 003c 1B68     		ldr	r3, [r3]
 387 003e 9A42     		cmp	r2, r3
 388 0040 09D9     		bls	.L19
 314:..\..\..\..\..\..\Software\uCOS-III\Source/os_stat.c ****         dly = (OS_TICK)(OSCfg_TickRate_Hz / OSCfg_StatTaskRate_Hz);
 389              		.loc 1 314 0
 390 0042 6F4B     		ldr	r3, .L33+8
 391 0044 1A68     		ldr	r2, [r3]
 392 0046 6C4B     		ldr	r3, .L33
 393 0048 1B68     		ldr	r3, [r3]
 394 004a 1900     		movs	r1, r3
 395 004c 1000     		movs	r0, r2
 396 004e FFF7FEFF 		bl	__aeabi_uidiv
 397 0052 0300     		movs	r3, r0
 398 0054 3B62     		str	r3, [r7, #32]
 399              	.L19:
 315:..\..\..\..\..\..\Software\uCOS-III\Source/os_stat.c ****     }
 316:..\..\..\..\..\..\Software\uCOS-III\Source/os_stat.c ****     if (dly == (OS_TICK)0) {
 400              		.loc 1 316 0
 401 0056 3B6A     		ldr	r3, [r7, #32]
 402 0058 002B     		cmp	r3, #0
 403 005a 07D1     		bne	.L20
 317:..\..\..\..\..\..\Software\uCOS-III\Source/os_stat.c ****         dly =  (OS_TICK)(OSCfg_TickRate_Hz / (OS_RATE_HZ)10);
 404              		.loc 1 317 0
 405 005c 684B     		ldr	r3, .L33+8
 406 005e 1B68     		ldr	r3, [r3]
 407 0060 0A21     		movs	r1, #10
 408 0062 1800     		movs	r0, r3
 409 0064 FFF7FEFF 		bl	__aeabi_uidiv
 410 0068 0300     		movs	r3, r0
 411 006a 3B62     		str	r3, [r7, #32]
 412              	.L20:
 318:..\..\..\..\..\..\Software\uCOS-III\Source/os_stat.c ****     }
 319:..\..\..\..\..\..\Software\uCOS-III\Source/os_stat.c **** 
 320:..\..\..\..\..\..\Software\uCOS-III\Source/os_stat.c ****     while (DEF_ON) {
 321:..\..\..\..\..\..\Software\uCOS-III\Source/os_stat.c ****         ts_start        = OS_TS_GET();
 413              		.loc 1 321 0
 414 006c FFF7FEFF 		bl	CPU_TS_TmrRd
 415 0070 0300     		movs	r3, r0
 416 0072 BB61     		str	r3, [r7, #24]
 322:..\..\..\..\..\..\Software\uCOS-III\Source/os_stat.c **** #ifdef  CPU_CFG_INT_DIS_MEAS_EN
 323:..\..\..\..\..\..\Software\uCOS-III\Source/os_stat.c ****         OSIntDisTimeMax = CPU_IntDisMeasMaxGet();
ARM GAS  C:\Users\EDULU~1.DES\AppData\Local\Temp\ccsKkxps.s 			page 14


 417              		.loc 1 323 0
 418 0074 FFF7FEFF 		bl	CPU_IntDisMeasMaxGet
 419 0078 0200     		movs	r2, r0
 420 007a 624B     		ldr	r3, .L33+12
 421 007c 1A60     		str	r2, [r3]
 324:..\..\..\..\..\..\Software\uCOS-III\Source/os_stat.c **** #endif
 325:..\..\..\..\..\..\Software\uCOS-III\Source/os_stat.c **** 
 326:..\..\..\..\..\..\Software\uCOS-III\Source/os_stat.c ****         CPU_CRITICAL_ENTER();                               /* ----------------- OVERALL CPU USAGE 
 422              		.loc 1 326 0
 423 007e FFF7FEFF 		bl	CPU_SR_Save
 424 0082 0300     		movs	r3, r0
 425 0084 FB61     		str	r3, [r7, #28]
 426 0086 FFF7FEFF 		bl	CPU_IntDisMeasStart
 327:..\..\..\..\..\..\Software\uCOS-III\Source/os_stat.c ****         OSStatTaskCtrRun   = OSStatTaskCtr;                 /* Obtain the of the stat counter for t
 427              		.loc 1 327 0
 428 008a 5F4B     		ldr	r3, .L33+16
 429 008c 1A68     		ldr	r2, [r3]
 430 008e 5F4B     		ldr	r3, .L33+20
 431 0090 1A60     		str	r2, [r3]
 328:..\..\..\..\..\..\Software\uCOS-III\Source/os_stat.c ****         OSStatTaskCtr      = (OS_TICK)0;                    /* Reset the stat counter for the next 
 432              		.loc 1 328 0
 433 0092 5D4B     		ldr	r3, .L33+16
 434 0094 0022     		movs	r2, #0
 435 0096 1A60     		str	r2, [r3]
 329:..\..\..\..\..\..\Software\uCOS-III\Source/os_stat.c ****         CPU_CRITICAL_EXIT();
 436              		.loc 1 329 0
 437 0098 FFF7FEFF 		bl	CPU_IntDisMeasStop
 438 009c FB69     		ldr	r3, [r7, #28]
 439 009e 1800     		movs	r0, r3
 440 00a0 FFF7FEFF 		bl	CPU_SR_Restore
 330:..\..\..\..\..\..\Software\uCOS-III\Source/os_stat.c **** 
 331:..\..\..\..\..\..\Software\uCOS-III\Source/os_stat.c ****         if (OSStatTaskCtrMax > OSStatTaskCtrRun) {          /* Compute CPU Usage with best resoluti
 441              		.loc 1 331 0
 442 00a4 5A4B     		ldr	r3, .L33+24
 443 00a6 1A68     		ldr	r2, [r3]
 444 00a8 584B     		ldr	r3, .L33+20
 445 00aa 1B68     		ldr	r3, [r3]
 446 00ac 9A42     		cmp	r2, r3
 447 00ae 4FD9     		bls	.L21
 332:..\..\..\..\..\..\Software\uCOS-III\Source/os_stat.c ****             if (OSStatTaskCtrMax < 400000u) {                                        /*            
 448              		.loc 1 332 0
 449 00b0 574B     		ldr	r3, .L33+24
 450 00b2 1B68     		ldr	r3, [r3]
 451 00b4 574A     		ldr	r2, .L33+28
 452 00b6 9342     		cmp	r3, r2
 453 00b8 04D8     		bhi	.L22
 333:..\..\..\..\..\..\Software\uCOS-III\Source/os_stat.c ****                 ctr_mult = 10000u;
 454              		.loc 1 333 0
 455 00ba 574B     		ldr	r3, .L33+32
 456 00bc BB62     		str	r3, [r7, #40]
 334:..\..\..\..\..\..\Software\uCOS-III\Source/os_stat.c ****                 ctr_div  =     1u;
 457              		.loc 1 334 0
 458 00be 0123     		movs	r3, #1
 459 00c0 7B62     		str	r3, [r7, #36]
 460 00c2 23E0     		b	.L23
 461              	.L22:
 335:..\..\..\..\..\..\Software\uCOS-III\Source/os_stat.c ****             } else if (OSStatTaskCtrMax <   4000000u) {                              /*      400,00
ARM GAS  C:\Users\EDULU~1.DES\AppData\Local\Temp\ccsKkxps.s 			page 15


 462              		.loc 1 335 0
 463 00c4 524B     		ldr	r3, .L33+24
 464 00c6 1B68     		ldr	r3, [r3]
 465 00c8 544A     		ldr	r2, .L33+36
 466 00ca 9342     		cmp	r3, r2
 467 00cc 05D8     		bhi	.L24
 336:..\..\..\..\..\..\Software\uCOS-III\Source/os_stat.c ****                 ctr_mult =  1000u;
 468              		.loc 1 336 0
 469 00ce FA23     		movs	r3, #250
 470 00d0 9B00     		lsls	r3, r3, #2
 471 00d2 BB62     		str	r3, [r7, #40]
 337:..\..\..\..\..\..\Software\uCOS-III\Source/os_stat.c ****                 ctr_div  =    10u;
 472              		.loc 1 337 0
 473 00d4 0A23     		movs	r3, #10
 474 00d6 7B62     		str	r3, [r7, #36]
 475 00d8 18E0     		b	.L23
 476              	.L24:
 338:..\..\..\..\..\..\Software\uCOS-III\Source/os_stat.c ****             } else if (OSStatTaskCtrMax <  40000000u) {                              /*    4,000,00
 477              		.loc 1 338 0
 478 00da 4D4B     		ldr	r3, .L33+24
 479 00dc 1B68     		ldr	r3, [r3]
 480 00de 504A     		ldr	r2, .L33+40
 481 00e0 9342     		cmp	r3, r2
 482 00e2 04D8     		bhi	.L25
 339:..\..\..\..\..\..\Software\uCOS-III\Source/os_stat.c ****                 ctr_mult =   100u;
 483              		.loc 1 339 0
 484 00e4 6423     		movs	r3, #100
 485 00e6 BB62     		str	r3, [r7, #40]
 340:..\..\..\..\..\..\Software\uCOS-III\Source/os_stat.c ****                 ctr_div  =   100u;
 486              		.loc 1 340 0
 487 00e8 6423     		movs	r3, #100
 488 00ea 7B62     		str	r3, [r7, #36]
 489 00ec 0EE0     		b	.L23
 490              	.L25:
 341:..\..\..\..\..\..\Software\uCOS-III\Source/os_stat.c ****             } else if (OSStatTaskCtrMax < 400000000u) {                              /*   40,000,00
 491              		.loc 1 341 0
 492 00ee 484B     		ldr	r3, .L33+24
 493 00f0 1B68     		ldr	r3, [r3]
 494 00f2 4C4A     		ldr	r2, .L33+44
 495 00f4 9342     		cmp	r3, r2
 496 00f6 05D8     		bhi	.L26
 342:..\..\..\..\..\..\Software\uCOS-III\Source/os_stat.c ****                 ctr_mult =    10u;
 497              		.loc 1 342 0
 498 00f8 0A23     		movs	r3, #10
 499 00fa BB62     		str	r3, [r7, #40]
 343:..\..\..\..\..\..\Software\uCOS-III\Source/os_stat.c ****                 ctr_div  =  1000u;
 500              		.loc 1 343 0
 501 00fc FA23     		movs	r3, #250
 502 00fe 9B00     		lsls	r3, r3, #2
 503 0100 7B62     		str	r3, [r7, #36]
 504 0102 03E0     		b	.L23
 505              	.L26:
 344:..\..\..\..\..\..\Software\uCOS-III\Source/os_stat.c ****             } else {                                                                 /*  400,000,00
 345:..\..\..\..\..\..\Software\uCOS-III\Source/os_stat.c ****                 ctr_mult =     1u;
 506              		.loc 1 345 0
 507 0104 0123     		movs	r3, #1
 508 0106 BB62     		str	r3, [r7, #40]
ARM GAS  C:\Users\EDULU~1.DES\AppData\Local\Temp\ccsKkxps.s 			page 16


 346:..\..\..\..\..\..\Software\uCOS-III\Source/os_stat.c ****                 ctr_div  = 10000u;
 509              		.loc 1 346 0
 510 0108 434B     		ldr	r3, .L33+32
 511 010a 7B62     		str	r3, [r7, #36]
 512              	.L23:
 347:..\..\..\..\..\..\Software\uCOS-III\Source/os_stat.c ****             }
 348:..\..\..\..\..\..\Software\uCOS-III\Source/os_stat.c ****             ctr_max            = OSStatTaskCtrMax / ctr_div;
 513              		.loc 1 348 0
 514 010c 404B     		ldr	r3, .L33+24
 515 010e 1B68     		ldr	r3, [r3]
 516 0110 796A     		ldr	r1, [r7, #36]
 517 0112 1800     		movs	r0, r3
 518 0114 FFF7FEFF 		bl	__aeabi_uidiv
 519 0118 0300     		movs	r3, r0
 520 011a 7B61     		str	r3, [r7, #20]
 349:..\..\..\..\..\..\Software\uCOS-III\Source/os_stat.c ****             OSStatTaskCPUUsage = (OS_CPU_USAGE)((OS_TICK)10000u - ctr_mult * OSStatTaskCtrRun / ctr
 521              		.loc 1 349 0
 522 011c 3B4B     		ldr	r3, .L33+20
 523 011e 1B68     		ldr	r3, [r3]
 524 0120 BA6A     		ldr	r2, [r7, #40]
 525 0122 5343     		muls	r3, r2
 526 0124 7969     		ldr	r1, [r7, #20]
 527 0126 1800     		movs	r0, r3
 528 0128 FFF7FEFF 		bl	__aeabi_uidiv
 529 012c 0300     		movs	r3, r0
 530 012e 9BB2     		uxth	r3, r3
 531 0130 394A     		ldr	r2, .L33+32
 532 0132 D31A     		subs	r3, r2, r3
 533 0134 9AB2     		uxth	r2, r3
 534 0136 3C4B     		ldr	r3, .L33+48
 535 0138 1A80     		strh	r2, [r3]
 350:..\..\..\..\..\..\Software\uCOS-III\Source/os_stat.c ****             if (OSStatTaskCPUUsageMax < OSStatTaskCPUUsage) {
 536              		.loc 1 350 0
 537 013a 3C4B     		ldr	r3, .L33+52
 538 013c 1A88     		ldrh	r2, [r3]
 539 013e 3A4B     		ldr	r3, .L33+48
 540 0140 1B88     		ldrh	r3, [r3]
 541 0142 9A42     		cmp	r2, r3
 542 0144 07D2     		bcs	.L28
 351:..\..\..\..\..\..\Software\uCOS-III\Source/os_stat.c ****                 OSStatTaskCPUUsageMax = OSStatTaskCPUUsage;
 543              		.loc 1 351 0
 544 0146 384B     		ldr	r3, .L33+48
 545 0148 1A88     		ldrh	r2, [r3]
 546 014a 384B     		ldr	r3, .L33+52
 547 014c 1A80     		strh	r2, [r3]
 548 014e 02E0     		b	.L28
 549              	.L21:
 352:..\..\..\..\..\..\Software\uCOS-III\Source/os_stat.c ****             }
 353:..\..\..\..\..\..\Software\uCOS-III\Source/os_stat.c ****         } else {
 354:..\..\..\..\..\..\Software\uCOS-III\Source/os_stat.c ****             OSStatTaskCPUUsage = (OS_CPU_USAGE)10000u;
 550              		.loc 1 354 0
 551 0150 354B     		ldr	r3, .L33+48
 552 0152 314A     		ldr	r2, .L33+32
 553 0154 1A80     		strh	r2, [r3]
 554              	.L28:
 355:..\..\..\..\..\..\Software\uCOS-III\Source/os_stat.c ****         }
 356:..\..\..\..\..\..\Software\uCOS-III\Source/os_stat.c **** 
ARM GAS  C:\Users\EDULU~1.DES\AppData\Local\Temp\ccsKkxps.s 			page 17


 357:..\..\..\..\..\..\Software\uCOS-III\Source/os_stat.c ****         OSStatTaskHook();                                   /* Invoke user definable hook          
 555              		.loc 1 357 0
 556 0156 FFF7FEFF 		bl	OSStatTaskHook
 358:..\..\..\..\..\..\Software\uCOS-III\Source/os_stat.c **** 
 359:..\..\..\..\..\..\Software\uCOS-III\Source/os_stat.c **** 
 360:..\..\..\..\..\..\Software\uCOS-III\Source/os_stat.c **** #if OS_CFG_DBG_EN > 0u
 361:..\..\..\..\..\..\Software\uCOS-III\Source/os_stat.c **** #if OS_CFG_TASK_PROFILE_EN > 0u
 362:..\..\..\..\..\..\Software\uCOS-III\Source/os_stat.c ****         cycles_total = (OS_CYCLES)0;
 363:..\..\..\..\..\..\Software\uCOS-III\Source/os_stat.c **** 
 364:..\..\..\..\..\..\Software\uCOS-III\Source/os_stat.c ****         CPU_CRITICAL_ENTER();
 365:..\..\..\..\..\..\Software\uCOS-III\Source/os_stat.c ****         p_tcb = OSTaskDbgListPtr;
 366:..\..\..\..\..\..\Software\uCOS-III\Source/os_stat.c ****         CPU_CRITICAL_EXIT();
 367:..\..\..\..\..\..\Software\uCOS-III\Source/os_stat.c ****         while (p_tcb != (OS_TCB *)0) {                      /* ----------------- TOTAL CYCLES COUNT
 368:..\..\..\..\..\..\Software\uCOS-III\Source/os_stat.c ****             OS_CRITICAL_ENTER();
 369:..\..\..\..\..\..\Software\uCOS-III\Source/os_stat.c ****             p_tcb->CyclesTotalPrev =  p_tcb->CyclesTotal;   /* Save accumulated # cycles into a tem
 370:..\..\..\..\..\..\Software\uCOS-III\Source/os_stat.c ****             p_tcb->CyclesTotal     = (OS_CYCLES)0;          /* Reset total cycles for task for next
 371:..\..\..\..\..\..\Software\uCOS-III\Source/os_stat.c ****             OS_CRITICAL_EXIT();
 372:..\..\..\..\..\..\Software\uCOS-III\Source/os_stat.c **** 
 373:..\..\..\..\..\..\Software\uCOS-III\Source/os_stat.c ****             cycles_total          += p_tcb->CyclesTotalPrev;/* Perform sum of all task # cycles    
 374:..\..\..\..\..\..\Software\uCOS-III\Source/os_stat.c **** 
 375:..\..\..\..\..\..\Software\uCOS-III\Source/os_stat.c ****             CPU_CRITICAL_ENTER();
 376:..\..\..\..\..\..\Software\uCOS-III\Source/os_stat.c ****             p_tcb                  = p_tcb->DbgNextPtr;
 377:..\..\..\..\..\..\Software\uCOS-III\Source/os_stat.c ****             CPU_CRITICAL_EXIT();
 378:..\..\..\..\..\..\Software\uCOS-III\Source/os_stat.c ****         }
 379:..\..\..\..\..\..\Software\uCOS-III\Source/os_stat.c **** #endif
 380:..\..\..\..\..\..\Software\uCOS-III\Source/os_stat.c **** 
 381:..\..\..\..\..\..\Software\uCOS-III\Source/os_stat.c **** 
 382:..\..\..\..\..\..\Software\uCOS-III\Source/os_stat.c **** #if OS_CFG_TASK_PROFILE_EN > 0u
 383:..\..\..\..\..\..\Software\uCOS-III\Source/os_stat.c ****                                                             /* ------------- INDIVIDUAL TASK CPU US
 384:..\..\..\..\..\..\Software\uCOS-III\Source/os_stat.c ****         if (cycles_total > (OS_CYCLES)0u) {                                          /* 'cycles_tot
 385:..\..\..\..\..\..\Software\uCOS-III\Source/os_stat.c ****             if (cycles_total < 400000u) {                                            /*            
 386:..\..\..\..\..\..\Software\uCOS-III\Source/os_stat.c ****                 cycles_mult = 10000u;
 387:..\..\..\..\..\..\Software\uCOS-III\Source/os_stat.c ****                 cycles_div  =     1u;
 388:..\..\..\..\..\..\Software\uCOS-III\Source/os_stat.c ****             } else if (cycles_total <   4000000u) {                                  /*      400,00
 389:..\..\..\..\..\..\Software\uCOS-III\Source/os_stat.c ****                 cycles_mult =  1000u;
 390:..\..\..\..\..\..\Software\uCOS-III\Source/os_stat.c ****                 cycles_div  =    10u;
 391:..\..\..\..\..\..\Software\uCOS-III\Source/os_stat.c ****             } else if (cycles_total <  40000000u) {                                  /*    4,000,00
 392:..\..\..\..\..\..\Software\uCOS-III\Source/os_stat.c ****                 cycles_mult =   100u;
 393:..\..\..\..\..\..\Software\uCOS-III\Source/os_stat.c ****                 cycles_div  =   100u;
 394:..\..\..\..\..\..\Software\uCOS-III\Source/os_stat.c ****             } else if (cycles_total < 400000000u) {                                  /*   40,000,00
 395:..\..\..\..\..\..\Software\uCOS-III\Source/os_stat.c ****                 cycles_mult =    10u;
 396:..\..\..\..\..\..\Software\uCOS-III\Source/os_stat.c ****                 cycles_div  =  1000u;
 397:..\..\..\..\..\..\Software\uCOS-III\Source/os_stat.c ****             } else {                                                                 /*  400,000,00
 398:..\..\..\..\..\..\Software\uCOS-III\Source/os_stat.c ****                 cycles_mult =     1u;
 399:..\..\..\..\..\..\Software\uCOS-III\Source/os_stat.c ****                 cycles_div  = 10000u;
 400:..\..\..\..\..\..\Software\uCOS-III\Source/os_stat.c ****             }
 401:..\..\..\..\..\..\Software\uCOS-III\Source/os_stat.c ****             cycles_max  = cycles_total / cycles_div;
 402:..\..\..\..\..\..\Software\uCOS-III\Source/os_stat.c ****         } else {
 403:..\..\..\..\..\..\Software\uCOS-III\Source/os_stat.c ****             cycles_mult = 0u;
 404:..\..\..\..\..\..\Software\uCOS-III\Source/os_stat.c ****             cycles_max  = 1u;
 405:..\..\..\..\..\..\Software\uCOS-III\Source/os_stat.c ****         }
 406:..\..\..\..\..\..\Software\uCOS-III\Source/os_stat.c **** #endif
 407:..\..\..\..\..\..\Software\uCOS-III\Source/os_stat.c ****         CPU_CRITICAL_ENTER();
 557              		.loc 1 407 0
 558 015a FFF7FEFF 		bl	CPU_SR_Save
 559 015e 0300     		movs	r3, r0
 560 0160 FB61     		str	r3, [r7, #28]
ARM GAS  C:\Users\EDULU~1.DES\AppData\Local\Temp\ccsKkxps.s 			page 18


 561 0162 FFF7FEFF 		bl	CPU_IntDisMeasStart
 408:..\..\..\..\..\..\Software\uCOS-III\Source/os_stat.c ****         p_tcb = OSTaskDbgListPtr;
 562              		.loc 1 408 0
 563 0166 324B     		ldr	r3, .L33+56
 564 0168 1B68     		ldr	r3, [r3]
 565 016a FB62     		str	r3, [r7, #44]
 409:..\..\..\..\..\..\Software\uCOS-III\Source/os_stat.c ****         CPU_CRITICAL_EXIT();
 566              		.loc 1 409 0
 567 016c FFF7FEFF 		bl	CPU_IntDisMeasStop
 568 0170 FB69     		ldr	r3, [r7, #28]
 569 0172 1800     		movs	r0, r3
 570 0174 FFF7FEFF 		bl	CPU_SR_Restore
 410:..\..\..\..\..\..\Software\uCOS-III\Source/os_stat.c ****         while (p_tcb != (OS_TCB *)0) {
 571              		.loc 1 410 0
 572 0178 19E0     		b	.L29
 573              	.L30:
 411:..\..\..\..\..\..\Software\uCOS-III\Source/os_stat.c **** #if OS_CFG_TASK_PROFILE_EN > 0u                             /* Compute execution time of each task 
 412:..\..\..\..\..\..\Software\uCOS-III\Source/os_stat.c ****             usage = (OS_CPU_USAGE)(cycles_mult * p_tcb->CyclesTotalPrev / cycles_max);
 413:..\..\..\..\..\..\Software\uCOS-III\Source/os_stat.c ****             if (usage > 10000u) {
 414:..\..\..\..\..\..\Software\uCOS-III\Source/os_stat.c ****                 usage = 10000u;
 415:..\..\..\..\..\..\Software\uCOS-III\Source/os_stat.c ****             }
 416:..\..\..\..\..\..\Software\uCOS-III\Source/os_stat.c ****             p_tcb->CPUUsage = usage;
 417:..\..\..\..\..\..\Software\uCOS-III\Source/os_stat.c ****             if (p_tcb->CPUUsageMax < usage) {               /* Detect peak CPU usage               
 418:..\..\..\..\..\..\Software\uCOS-III\Source/os_stat.c ****                 p_tcb->CPUUsageMax = usage;
 419:..\..\..\..\..\..\Software\uCOS-III\Source/os_stat.c ****             }
 420:..\..\..\..\..\..\Software\uCOS-III\Source/os_stat.c **** #endif
 421:..\..\..\..\..\..\Software\uCOS-III\Source/os_stat.c **** 
 422:..\..\..\..\..\..\Software\uCOS-III\Source/os_stat.c **** #if OS_CFG_STAT_TASK_STK_CHK_EN > 0u
 423:..\..\..\..\..\..\Software\uCOS-III\Source/os_stat.c ****             OSTaskStkChk( p_tcb,                            /* Compute stack usage of active tasks 
 574              		.loc 1 423 0
 575 017a FB6A     		ldr	r3, [r7, #44]
 576 017c 6833     		adds	r3, r3, #104
 577 017e 1900     		movs	r1, r3
 578 0180 FB6A     		ldr	r3, [r7, #44]
 579 0182 6433     		adds	r3, r3, #100
 580 0184 1A00     		movs	r2, r3
 581 0186 0E23     		movs	r3, #14
 582 0188 FB18     		adds	r3, r7, r3
 583 018a F86A     		ldr	r0, [r7, #44]
 584 018c FFF7FEFF 		bl	OSTaskStkChk
 424:..\..\..\..\..\..\Software\uCOS-III\Source/os_stat.c ****                          &p_tcb->StkFree,
 425:..\..\..\..\..\..\Software\uCOS-III\Source/os_stat.c ****                          &p_tcb->StkUsed,
 426:..\..\..\..\..\..\Software\uCOS-III\Source/os_stat.c ****                          &err);
 427:..\..\..\..\..\..\Software\uCOS-III\Source/os_stat.c **** #endif
 428:..\..\..\..\..\..\Software\uCOS-III\Source/os_stat.c **** 
 429:..\..\..\..\..\..\Software\uCOS-III\Source/os_stat.c ****             CPU_CRITICAL_ENTER();
 585              		.loc 1 429 0
 586 0190 FFF7FEFF 		bl	CPU_SR_Save
 587 0194 0300     		movs	r3, r0
 588 0196 FB61     		str	r3, [r7, #28]
 589 0198 FFF7FEFF 		bl	CPU_IntDisMeasStart
 430:..\..\..\..\..\..\Software\uCOS-III\Source/os_stat.c ****             p_tcb = p_tcb->DbgNextPtr;
 590              		.loc 1 430 0
 591 019c FB6A     		ldr	r3, [r7, #44]
 592 019e 5B6F     		ldr	r3, [r3, #116]
 593 01a0 FB62     		str	r3, [r7, #44]
 431:..\..\..\..\..\..\Software\uCOS-III\Source/os_stat.c ****             CPU_CRITICAL_EXIT();
ARM GAS  C:\Users\EDULU~1.DES\AppData\Local\Temp\ccsKkxps.s 			page 19


 594              		.loc 1 431 0
 595 01a2 FFF7FEFF 		bl	CPU_IntDisMeasStop
 596 01a6 FB69     		ldr	r3, [r7, #28]
 597 01a8 1800     		movs	r0, r3
 598 01aa FFF7FEFF 		bl	CPU_SR_Restore
 599              	.L29:
 410:..\..\..\..\..\..\Software\uCOS-III\Source/os_stat.c **** #if OS_CFG_TASK_PROFILE_EN > 0u                             /* Compute execution time of each task 
 600              		.loc 1 410 0
 601 01ae FB6A     		ldr	r3, [r7, #44]
 602 01b0 002B     		cmp	r3, #0
 603 01b2 E2D1     		bne	.L30
 432:..\..\..\..\..\..\Software\uCOS-III\Source/os_stat.c ****         }
 433:..\..\..\..\..\..\Software\uCOS-III\Source/os_stat.c **** #endif
 434:..\..\..\..\..\..\Software\uCOS-III\Source/os_stat.c **** 
 435:..\..\..\..\..\..\Software\uCOS-III\Source/os_stat.c ****         if (OSStatResetFlag == DEF_TRUE) {                  /* Check if need to reset statistics   
 604              		.loc 1 435 0
 605 01b4 1F4B     		ldr	r3, .L33+60
 606 01b6 1B78     		ldrb	r3, [r3]
 607 01b8 012B     		cmp	r3, #1
 608 01ba 07D1     		bne	.L31
 436:..\..\..\..\..\..\Software\uCOS-III\Source/os_stat.c ****             OSStatResetFlag  = DEF_FALSE;
 609              		.loc 1 436 0
 610 01bc 1D4B     		ldr	r3, .L33+60
 611 01be 0022     		movs	r2, #0
 612 01c0 1A70     		strb	r2, [r3]
 437:..\..\..\..\..\..\Software\uCOS-III\Source/os_stat.c ****             OSStatReset(&err);
 613              		.loc 1 437 0
 614 01c2 0E23     		movs	r3, #14
 615 01c4 FB18     		adds	r3, r7, r3
 616 01c6 1800     		movs	r0, r3
 617 01c8 FFF7FEFF 		bl	OSStatReset
 618              	.L31:
 438:..\..\..\..\..\..\Software\uCOS-III\Source/os_stat.c ****         }
 439:..\..\..\..\..\..\Software\uCOS-III\Source/os_stat.c **** 
 440:..\..\..\..\..\..\Software\uCOS-III\Source/os_stat.c ****         ts_end = OS_TS_GET() - ts_start;                    /* Measure execution time of statistic 
 619              		.loc 1 440 0
 620 01cc FFF7FEFF 		bl	CPU_TS_TmrRd
 621 01d0 0200     		movs	r2, r0
 622 01d2 BB69     		ldr	r3, [r7, #24]
 623 01d4 D31A     		subs	r3, r2, r3
 624 01d6 3B61     		str	r3, [r7, #16]
 441:..\..\..\..\..\..\Software\uCOS-III\Source/os_stat.c ****         if (OSStatTaskTimeMax < ts_end) {
 625              		.loc 1 441 0
 626 01d8 174B     		ldr	r3, .L33+64
 627 01da 1A68     		ldr	r2, [r3]
 628 01dc 3B69     		ldr	r3, [r7, #16]
 629 01de 9A42     		cmp	r2, r3
 630 01e0 02D2     		bcs	.L32
 442:..\..\..\..\..\..\Software\uCOS-III\Source/os_stat.c ****             OSStatTaskTimeMax = ts_end;
 631              		.loc 1 442 0
 632 01e2 154B     		ldr	r3, .L33+64
 633 01e4 3A69     		ldr	r2, [r7, #16]
 634 01e6 1A60     		str	r2, [r3]
 635              	.L32:
 443:..\..\..\..\..\..\Software\uCOS-III\Source/os_stat.c ****         }
 444:..\..\..\..\..\..\Software\uCOS-III\Source/os_stat.c **** 
 445:..\..\..\..\..\..\Software\uCOS-III\Source/os_stat.c ****         OSTimeDly(dly,
ARM GAS  C:\Users\EDULU~1.DES\AppData\Local\Temp\ccsKkxps.s 			page 20


 636              		.loc 1 445 0
 637 01e8 0E23     		movs	r3, #14
 638 01ea FA18     		adds	r2, r7, r3
 639 01ec 3B6A     		ldr	r3, [r7, #32]
 640 01ee 0021     		movs	r1, #0
 641 01f0 1800     		movs	r0, r3
 642 01f2 FFF7FEFF 		bl	OSTimeDly
 446:..\..\..\..\..\..\Software\uCOS-III\Source/os_stat.c ****                   OS_OPT_TIME_DLY,
 447:..\..\..\..\..\..\Software\uCOS-III\Source/os_stat.c ****                   &err);
 448:..\..\..\..\..\..\Software\uCOS-III\Source/os_stat.c ****     }
 643              		.loc 1 448 0
 644 01f6 39E7     		b	.L20
 645              	.L34:
 646              		.align	2
 647              	.L33:
 648 01f8 00000000 		.word	OSCfg_StatTaskRate_Hz
 649 01fc 00000000 		.word	OSStatTaskRdy
 650 0200 00000000 		.word	OSCfg_TickRate_Hz
 651 0204 00000000 		.word	OSIntDisTimeMax
 652 0208 00000000 		.word	OSStatTaskCtr
 653 020c 00000000 		.word	OSStatTaskCtrRun
 654 0210 00000000 		.word	OSStatTaskCtrMax
 655 0214 7F1A0600 		.word	399999
 656 0218 10270000 		.word	10000
 657 021c FF083D00 		.word	3999999
 658 0220 FF596202 		.word	39999999
 659 0224 FF83D717 		.word	399999999
 660 0228 00000000 		.word	OSStatTaskCPUUsage
 661 022c 00000000 		.word	OSStatTaskCPUUsageMax
 662 0230 00000000 		.word	OSTaskDbgListPtr
 663 0234 00000000 		.word	OSStatResetFlag
 664 0238 00000000 		.word	OSStatTaskTimeMax
 665              		.cfi_endproc
 666              	.LFE3:
 667              		.size	OS_StatTask, .-OS_StatTask
 668              		.section	.rodata
 669              		.align	2
 670              	.LC36:
 671 0000 75432F4F 		.ascii	"uC/OS-III Stat Task\000"
 671      532D4949 
 671      49205374 
 671      61742054 
 671      61736B00 
 672              		.section	.text.OS_StatTaskInit,"ax",%progbits
 673              		.align	2
 674              		.global	OS_StatTaskInit
 675              		.code	16
 676              		.thumb_func
 677              		.type	OS_StatTaskInit, %function
 678              	OS_StatTaskInit:
 679              	.LFB4:
 449:..\..\..\..\..\..\Software\uCOS-III\Source/os_stat.c **** }
 450:..\..\..\..\..\..\Software\uCOS-III\Source/os_stat.c **** 
 451:..\..\..\..\..\..\Software\uCOS-III\Source/os_stat.c **** /*$PAGE*/
 452:..\..\..\..\..\..\Software\uCOS-III\Source/os_stat.c **** /*
 453:..\..\..\..\..\..\Software\uCOS-III\Source/os_stat.c **** ***************************************************************************************************
 454:..\..\..\..\..\..\Software\uCOS-III\Source/os_stat.c **** *                                              INITIALIZE THE STATISTICS
ARM GAS  C:\Users\EDULU~1.DES\AppData\Local\Temp\ccsKkxps.s 			page 21


 455:..\..\..\..\..\..\Software\uCOS-III\Source/os_stat.c **** *
 456:..\..\..\..\..\..\Software\uCOS-III\Source/os_stat.c **** * Description: This function is called by OSInit() to initialize the statistic task.
 457:..\..\..\..\..\..\Software\uCOS-III\Source/os_stat.c **** *
 458:..\..\..\..\..\..\Software\uCOS-III\Source/os_stat.c **** * Argument(s): p_err     is a pointer to a variable that will contain an error code returned by thi
 459:..\..\..\..\..\..\Software\uCOS-III\Source/os_stat.c **** *
 460:..\..\..\..\..\..\Software\uCOS-III\Source/os_stat.c **** *                            OS_ERR_STK_INVALID       If you specified a NULL stack pointer during 
 461:..\..\..\..\..\..\Software\uCOS-III\Source/os_stat.c **** *                            OS_ERR_STK_SIZE_INVALID  If you didn't specify a large enough stack.
 462:..\..\..\..\..\..\Software\uCOS-III\Source/os_stat.c **** *                            OS_ERR_PRIO_INVALID      If you specified a priority for the statistic
 463:..\..\..\..\..\..\Software\uCOS-III\Source/os_stat.c **** *                                                     lower (i.e. higher number) than the idle task
 464:..\..\..\..\..\..\Software\uCOS-III\Source/os_stat.c **** *                            OS_ERR_xxx               An error code returned by OSTaskCreate()
 465:..\..\..\..\..\..\Software\uCOS-III\Source/os_stat.c **** *
 466:..\..\..\..\..\..\Software\uCOS-III\Source/os_stat.c **** * Returns    : none
 467:..\..\..\..\..\..\Software\uCOS-III\Source/os_stat.c **** *
 468:..\..\..\..\..\..\Software\uCOS-III\Source/os_stat.c **** * Note(s)    : This function is INTERNAL to uC/OS-III and your application should not call it.
 469:..\..\..\..\..\..\Software\uCOS-III\Source/os_stat.c **** ***************************************************************************************************
 470:..\..\..\..\..\..\Software\uCOS-III\Source/os_stat.c **** */
 471:..\..\..\..\..\..\Software\uCOS-III\Source/os_stat.c **** 
 472:..\..\..\..\..\..\Software\uCOS-III\Source/os_stat.c **** void  OS_StatTaskInit (OS_ERR  *p_err)
 473:..\..\..\..\..\..\Software\uCOS-III\Source/os_stat.c **** {
 680              		.loc 1 473 0
 681              		.cfi_startproc
 682              		@ args = 0, pretend = 0, frame = 8
 683              		@ frame_needed = 1, uses_anonymous_args = 0
 684 0000 F0B5     		push	{r4, r5, r6, r7, lr}
 685              		.cfi_def_cfa_offset 20
 686              		.cfi_offset 4, -20
 687              		.cfi_offset 5, -16
 688              		.cfi_offset 6, -12
 689              		.cfi_offset 7, -8
 690              		.cfi_offset 14, -4
 691 0002 8DB0     		sub	sp, sp, #52
 692              		.cfi_def_cfa_offset 72
 693 0004 0AAF     		add	r7, sp, #40
 694              		.cfi_def_cfa 7, 32
 695 0006 7860     		str	r0, [r7, #4]
 474:..\..\..\..\..\..\Software\uCOS-III\Source/os_stat.c **** #ifdef OS_SAFETY_CRITICAL
 475:..\..\..\..\..\..\Software\uCOS-III\Source/os_stat.c ****     if (p_err == (OS_ERR *)0) {
 476:..\..\..\..\..\..\Software\uCOS-III\Source/os_stat.c ****         OS_SAFETY_CRITICAL_EXCEPTION();
 477:..\..\..\..\..\..\Software\uCOS-III\Source/os_stat.c ****         return;
 478:..\..\..\..\..\..\Software\uCOS-III\Source/os_stat.c ****     }
 479:..\..\..\..\..\..\Software\uCOS-III\Source/os_stat.c **** #endif
 480:..\..\..\..\..\..\Software\uCOS-III\Source/os_stat.c **** 
 481:..\..\..\..\..\..\Software\uCOS-III\Source/os_stat.c ****     OSStatTaskCtr    = (OS_TICK)0;
 696              		.loc 1 481 0
 697 0008 254B     		ldr	r3, .L40
 698 000a 0022     		movs	r2, #0
 699 000c 1A60     		str	r2, [r3]
 482:..\..\..\..\..\..\Software\uCOS-III\Source/os_stat.c ****     OSStatTaskCtrRun = (OS_TICK)0;
 700              		.loc 1 482 0
 701 000e 254B     		ldr	r3, .L40+4
 702 0010 0022     		movs	r2, #0
 703 0012 1A60     		str	r2, [r3]
 483:..\..\..\..\..\..\Software\uCOS-III\Source/os_stat.c ****     OSStatTaskCtrMax = (OS_TICK)0;
 704              		.loc 1 483 0
 705 0014 244B     		ldr	r3, .L40+8
 706 0016 0022     		movs	r2, #0
 707 0018 1A60     		str	r2, [r3]
ARM GAS  C:\Users\EDULU~1.DES\AppData\Local\Temp\ccsKkxps.s 			page 22


 484:..\..\..\..\..\..\Software\uCOS-III\Source/os_stat.c ****     OSStatTaskRdy    = OS_STATE_NOT_RDY;                    /* Statistic task is not ready         
 708              		.loc 1 484 0
 709 001a 244B     		ldr	r3, .L40+12
 710 001c 0022     		movs	r2, #0
 711 001e 1A70     		strb	r2, [r3]
 485:..\..\..\..\..\..\Software\uCOS-III\Source/os_stat.c ****     OSStatResetFlag  = DEF_FALSE;
 712              		.loc 1 485 0
 713 0020 234B     		ldr	r3, .L40+16
 714 0022 0022     		movs	r2, #0
 715 0024 1A70     		strb	r2, [r3]
 486:..\..\..\..\..\..\Software\uCOS-III\Source/os_stat.c **** 
 487:..\..\..\..\..\..\Software\uCOS-III\Source/os_stat.c ****                                                             /* ---------------- CREATE THE STAT TAS
 488:..\..\..\..\..\..\Software\uCOS-III\Source/os_stat.c ****     if (OSCfg_StatTaskStkBasePtr == (CPU_STK *)0) {
 716              		.loc 1 488 0
 717 0026 234B     		ldr	r3, .L40+20
 718 0028 1B68     		ldr	r3, [r3]
 719 002a 002B     		cmp	r3, #0
 720 002c 03D1     		bne	.L36
 489:..\..\..\..\..\..\Software\uCOS-III\Source/os_stat.c ****        *p_err = OS_ERR_STAT_STK_INVALID;
 721              		.loc 1 489 0
 722 002e 7B68     		ldr	r3, [r7, #4]
 723 0030 214A     		ldr	r2, .L40+24
 724 0032 1A80     		strh	r2, [r3]
 490:..\..\..\..\..\..\Software\uCOS-III\Source/os_stat.c ****         return;
 725              		.loc 1 490 0
 726 0034 31E0     		b	.L35
 727              	.L36:
 491:..\..\..\..\..\..\Software\uCOS-III\Source/os_stat.c ****     }
 492:..\..\..\..\..\..\Software\uCOS-III\Source/os_stat.c **** 
 493:..\..\..\..\..\..\Software\uCOS-III\Source/os_stat.c ****     if (OSCfg_StatTaskStkSize < OSCfg_StkSizeMin) {
 728              		.loc 1 493 0
 729 0036 214B     		ldr	r3, .L40+28
 730 0038 1A68     		ldr	r2, [r3]
 731 003a 214B     		ldr	r3, .L40+32
 732 003c 1B68     		ldr	r3, [r3]
 733 003e 9A42     		cmp	r2, r3
 734 0040 03D2     		bcs	.L38
 494:..\..\..\..\..\..\Software\uCOS-III\Source/os_stat.c ****        *p_err = OS_ERR_STAT_STK_SIZE_INVALID;
 735              		.loc 1 494 0
 736 0042 7B68     		ldr	r3, [r7, #4]
 737 0044 1F4A     		ldr	r2, .L40+36
 738 0046 1A80     		strh	r2, [r3]
 495:..\..\..\..\..\..\Software\uCOS-III\Source/os_stat.c ****         return;
 739              		.loc 1 495 0
 740 0048 27E0     		b	.L35
 741              	.L38:
 496:..\..\..\..\..\..\Software\uCOS-III\Source/os_stat.c ****     }
 497:..\..\..\..\..\..\Software\uCOS-III\Source/os_stat.c **** 
 498:..\..\..\..\..\..\Software\uCOS-III\Source/os_stat.c ****     if (OSCfg_StatTaskPrio >= (OS_CFG_PRIO_MAX - 1u)) {
 742              		.loc 1 498 0
 743 004a 1F4B     		ldr	r3, .L40+40
 744 004c 1B78     		ldrb	r3, [r3]
 745 004e 1E2B     		cmp	r3, #30
 746 0050 03D9     		bls	.L39
 499:..\..\..\..\..\..\Software\uCOS-III\Source/os_stat.c ****        *p_err = OS_ERR_STAT_PRIO_INVALID;
 747              		.loc 1 499 0
 748 0052 7B68     		ldr	r3, [r7, #4]
ARM GAS  C:\Users\EDULU~1.DES\AppData\Local\Temp\ccsKkxps.s 			page 23


 749 0054 1D4A     		ldr	r2, .L40+44
 750 0056 1A80     		strh	r2, [r3]
 500:..\..\..\..\..\..\Software\uCOS-III\Source/os_stat.c ****         return;
 751              		.loc 1 500 0
 752 0058 1FE0     		b	.L35
 753              	.L39:
 501:..\..\..\..\..\..\Software\uCOS-III\Source/os_stat.c ****     }
 502:..\..\..\..\..\..\Software\uCOS-III\Source/os_stat.c **** 
 503:..\..\..\..\..\..\Software\uCOS-III\Source/os_stat.c ****     OSTaskCreate((OS_TCB     *)&OSStatTaskTCB,
 754              		.loc 1 503 0
 755 005a 1B4B     		ldr	r3, .L40+40
 756 005c 1A78     		ldrb	r2, [r3]
 757 005e 154B     		ldr	r3, .L40+20
 758 0060 1968     		ldr	r1, [r3]
 759 0062 1B4B     		ldr	r3, .L40+48
 760 0064 1868     		ldr	r0, [r3]
 761 0066 154B     		ldr	r3, .L40+28
 762 0068 1B68     		ldr	r3, [r3]
 763 006a 1A4C     		ldr	r4, .L40+52
 764 006c A446     		mov	ip, r4
 765 006e 1A4E     		ldr	r6, .L40+56
 766 0070 1A4D     		ldr	r5, .L40+60
 767 0072 7C68     		ldr	r4, [r7, #4]
 768 0074 0894     		str	r4, [sp, #32]
 769 0076 0324     		movs	r4, #3
 770 0078 0794     		str	r4, [sp, #28]
 771 007a 0024     		movs	r4, #0
 772 007c 0694     		str	r4, [sp, #24]
 773 007e 0024     		movs	r4, #0
 774 0080 0594     		str	r4, [sp, #20]
 775 0082 0024     		movs	r4, #0
 776 0084 0494     		str	r4, [sp, #16]
 777 0086 0393     		str	r3, [sp, #12]
 778 0088 0290     		str	r0, [sp, #8]
 779 008a 0191     		str	r1, [sp, #4]
 780 008c 0092     		str	r2, [sp]
 781 008e 0023     		movs	r3, #0
 782 0090 6246     		mov	r2, ip
 783 0092 3100     		movs	r1, r6
 784 0094 2800     		movs	r0, r5
 785 0096 FFF7FEFF 		bl	OSTaskCreate
 786              	.L35:
 504:..\..\..\..\..\..\Software\uCOS-III\Source/os_stat.c ****                  (CPU_CHAR   *)((void *)"uC/OS-III Stat Task"),
 505:..\..\..\..\..\..\Software\uCOS-III\Source/os_stat.c ****                  (OS_TASK_PTR )OS_StatTask,
 506:..\..\..\..\..\..\Software\uCOS-III\Source/os_stat.c ****                  (void       *)0,
 507:..\..\..\..\..\..\Software\uCOS-III\Source/os_stat.c ****                  (OS_PRIO     )OSCfg_StatTaskPrio,
 508:..\..\..\..\..\..\Software\uCOS-III\Source/os_stat.c ****                  (CPU_STK    *)OSCfg_StatTaskStkBasePtr,
 509:..\..\..\..\..\..\Software\uCOS-III\Source/os_stat.c ****                  (CPU_STK_SIZE)OSCfg_StatTaskStkLimit,
 510:..\..\..\..\..\..\Software\uCOS-III\Source/os_stat.c ****                  (CPU_STK_SIZE)OSCfg_StatTaskStkSize,
 511:..\..\..\..\..\..\Software\uCOS-III\Source/os_stat.c ****                  (OS_MSG_QTY  )0,
 512:..\..\..\..\..\..\Software\uCOS-III\Source/os_stat.c ****                  (OS_TICK     )0,
 513:..\..\..\..\..\..\Software\uCOS-III\Source/os_stat.c ****                  (void       *)0,
 514:..\..\..\..\..\..\Software\uCOS-III\Source/os_stat.c ****                  (OS_OPT      )(OS_OPT_TASK_STK_CHK | OS_OPT_TASK_STK_CLR),
 515:..\..\..\..\..\..\Software\uCOS-III\Source/os_stat.c ****                  (OS_ERR     *)p_err);
 516:..\..\..\..\..\..\Software\uCOS-III\Source/os_stat.c **** }
 787              		.loc 1 516 0
 788 009a BD46     		mov	sp, r7
ARM GAS  C:\Users\EDULU~1.DES\AppData\Local\Temp\ccsKkxps.s 			page 24


 789 009c 03B0     		add	sp, sp, #12
 790              		@ sp needed
 791 009e F0BD     		pop	{r4, r5, r6, r7, pc}
 792              	.L41:
 793              		.align	2
 794              	.L40:
 795 00a0 00000000 		.word	OSStatTaskCtr
 796 00a4 00000000 		.word	OSStatTaskCtrRun
 797 00a8 00000000 		.word	OSStatTaskCtrMax
 798 00ac 00000000 		.word	OSStatTaskRdy
 799 00b0 00000000 		.word	OSStatResetFlag
 800 00b4 00000000 		.word	OSCfg_StatTaskStkBasePtr
 801 00b8 2B6E0000 		.word	28203
 802 00bc 00000000 		.word	OSCfg_StatTaskStkSize
 803 00c0 00000000 		.word	OSCfg_StkSizeMin
 804 00c4 2C6E0000 		.word	28204
 805 00c8 00000000 		.word	OSCfg_StatTaskPrio
 806 00cc 2A6E0000 		.word	28202
 807 00d0 00000000 		.word	OSCfg_StatTaskStkLimit
 808 00d4 00000000 		.word	OS_StatTask
 809 00d8 00000000 		.word	.LC36
 810 00dc 00000000 		.word	OSStatTaskTCB
 811              		.cfi_endproc
 812              	.LFE4:
 813              		.size	OS_StatTaskInit, .-OS_StatTaskInit
 814              		.text
 815              	.Letext0:
 816              		.file 2 "..\\..\\..\\..\\..\\..\\Software\\uC-CPU\\ARM-Cortex-M0\\GNU/cpu.h"
 817              		.file 3 "..\\..\\..\\..\\..\\..\\Software\\uC-CPU/cpu_core.h"
 818              		.file 4 "..\\..\\..\\..\\..\\..\\Software\\uCOS-III\\Source/os_type.h"
 819              		.file 5 "..\\..\\..\\..\\..\\..\\Software\\uCOS-III\\Source/os.h"