ARM GAS  C:\Users\EDULU~1.DES\AppData\Local\Temp\ccAw7IE5.s 			page 1


   1              		.syntax unified
   2              		.cpu cortex-m0
   3              		.fpu softvfp
   4              		.eabi_attribute 20, 1
   5              		.eabi_attribute 21, 1
   6              		.eabi_attribute 23, 3
   7              		.eabi_attribute 24, 1
   8              		.eabi_attribute 25, 1
   9              		.eabi_attribute 26, 1
  10              		.eabi_attribute 30, 6
  11              		.eabi_attribute 34, 0
  12              		.eabi_attribute 18, 4
  13              		.thumb
  14              		.syntax unified
  15              		.file	"os_time.c"
  16              		.text
  17              	.Ltext0:
  18              		.cfi_sections	.debug_frame
  19              		.section	.text.OSTimeDly,"ax",%progbits
  20              		.align	2
  21              		.global	OSTimeDly
  22              		.code	16
  23              		.thumb_func
  24              		.type	OSTimeDly, %function
  25              	OSTimeDly:
  26              	.LFB1:
  27              		.file 1 "..\\..\\..\\..\\..\\..\\Software\\uCOS-III\\Source\\os_time.c"
   1:..\..\..\..\..\..\Software\uCOS-III\Source/os_time.c **** /*
   2:..\..\..\..\..\..\Software\uCOS-III\Source/os_time.c **** ***************************************************************************************************
   3:..\..\..\..\..\..\Software\uCOS-III\Source/os_time.c **** *                                                      uC/OS-III
   4:..\..\..\..\..\..\Software\uCOS-III\Source/os_time.c **** *                                                 The Real-Time Kernel
   5:..\..\..\..\..\..\Software\uCOS-III\Source/os_time.c **** *
   6:..\..\..\..\..\..\Software\uCOS-III\Source/os_time.c **** *                                  (c) Copyright 2009-2012; Micrium, Inc.; Weston, FL
   7:..\..\..\..\..\..\Software\uCOS-III\Source/os_time.c **** *                           All rights reserved.  Protected by international copyright laws.
   8:..\..\..\..\..\..\Software\uCOS-III\Source/os_time.c **** *
   9:..\..\..\..\..\..\Software\uCOS-III\Source/os_time.c **** *                                                   TIME MANAGEMENT
  10:..\..\..\..\..\..\Software\uCOS-III\Source/os_time.c **** *
  11:..\..\..\..\..\..\Software\uCOS-III\Source/os_time.c **** * File    : OS_TIME.C
  12:..\..\..\..\..\..\Software\uCOS-III\Source/os_time.c **** * By      : JJL
  13:..\..\..\..\..\..\Software\uCOS-III\Source/os_time.c **** * Version : V3.03.01
  14:..\..\..\..\..\..\Software\uCOS-III\Source/os_time.c **** *
  15:..\..\..\..\..\..\Software\uCOS-III\Source/os_time.c **** * LICENSING TERMS:
  16:..\..\..\..\..\..\Software\uCOS-III\Source/os_time.c **** * ---------------
  17:..\..\..\..\..\..\Software\uCOS-III\Source/os_time.c **** *           uC/OS-III is provided in source form for FREE short-term evaluation, for educational us
  18:..\..\..\..\..\..\Software\uCOS-III\Source/os_time.c **** *           for peaceful research.  If you plan or intend to use uC/OS-III in a commercial applicat
  19:..\..\..\..\..\..\Software\uCOS-III\Source/os_time.c **** *           product then, you need to contact Micrium to properly license uC/OS-III for its use in 
  20:..\..\..\..\..\..\Software\uCOS-III\Source/os_time.c **** *           application/product.   We provide ALL the source code for your convenience and to help 
  21:..\..\..\..\..\..\Software\uCOS-III\Source/os_time.c **** *           experience uC/OS-III.  The fact that the source is provided does NOT mean that you can 
  22:..\..\..\..\..\..\Software\uCOS-III\Source/os_time.c **** *           it commercially without paying a licensing fee.
  23:..\..\..\..\..\..\Software\uCOS-III\Source/os_time.c **** *
  24:..\..\..\..\..\..\Software\uCOS-III\Source/os_time.c **** *           Knowledge of the source code may NOT be used to develop a similar product.
  25:..\..\..\..\..\..\Software\uCOS-III\Source/os_time.c **** *
  26:..\..\..\..\..\..\Software\uCOS-III\Source/os_time.c **** *           Please help us continue to provide the embedded community with the finest software avai
  27:..\..\..\..\..\..\Software\uCOS-III\Source/os_time.c **** *           Your honesty is greatly appreciated.
  28:..\..\..\..\..\..\Software\uCOS-III\Source/os_time.c **** *
  29:..\..\..\..\..\..\Software\uCOS-III\Source/os_time.c **** *           You can contact us at www.micrium.com, or by phone at +1 (954) 217-2036.
  30:..\..\..\..\..\..\Software\uCOS-III\Source/os_time.c **** ***************************************************************************************************
ARM GAS  C:\Users\EDULU~1.DES\AppData\Local\Temp\ccAw7IE5.s 			page 2


  31:..\..\..\..\..\..\Software\uCOS-III\Source/os_time.c **** */
  32:..\..\..\..\..\..\Software\uCOS-III\Source/os_time.c **** 
  33:..\..\..\..\..\..\Software\uCOS-III\Source/os_time.c **** #define  MICRIUM_SOURCE
  34:..\..\..\..\..\..\Software\uCOS-III\Source/os_time.c **** #include <os.h>
  35:..\..\..\..\..\..\Software\uCOS-III\Source/os_time.c **** 
  36:..\..\..\..\..\..\Software\uCOS-III\Source/os_time.c **** #ifdef VSC_INCLUDE_SOURCE_FILE_NAMES
  37:..\..\..\..\..\..\Software\uCOS-III\Source/os_time.c **** const  CPU_CHAR  *os_time__c = "$Id: $";
  38:..\..\..\..\..\..\Software\uCOS-III\Source/os_time.c **** #endif
  39:..\..\..\..\..\..\Software\uCOS-III\Source/os_time.c **** 
  40:..\..\..\..\..\..\Software\uCOS-III\Source/os_time.c **** /*
  41:..\..\..\..\..\..\Software\uCOS-III\Source/os_time.c **** ***************************************************************************************************
  42:..\..\..\..\..\..\Software\uCOS-III\Source/os_time.c **** *                                                  DELAY TASK 'n' TICKS
  43:..\..\..\..\..\..\Software\uCOS-III\Source/os_time.c **** *
  44:..\..\..\..\..\..\Software\uCOS-III\Source/os_time.c **** * Description: This function is called to delay execution of the currently running task until the s
  45:..\..\..\..\..\..\Software\uCOS-III\Source/os_time.c **** *              system ticks expires.  This, of course, directly equates to delaying the current tas
  46:..\..\..\..\..\..\Software\uCOS-III\Source/os_time.c **** *              expire.  No delay will result if the specified delay is 0.  If the specified delay i
  47:..\..\..\..\..\..\Software\uCOS-III\Source/os_time.c **** *              then, a context switch will result.
  48:..\..\..\..\..\..\Software\uCOS-III\Source/os_time.c **** *
  49:..\..\..\..\..\..\Software\uCOS-III\Source/os_time.c **** * Arguments  : dly       is a value in 'clock ticks' that the task will either delay for or, the ta
  50:..\..\..\..\..\..\Software\uCOS-III\Source/os_time.c **** *                        of the tick counter (OSTickCtr).  Note that specifying 0 means the task is
  51:..\..\..\..\..\..\Software\uCOS-III\Source/os_time.c **** *
  52:..\..\..\..\..\..\Software\uCOS-III\Source/os_time.c **** *                        depending on the option argument, the task will wake up when OSTickCtr rea
  53:..\..\..\..\..\..\Software\uCOS-III\Source/os_time.c **** *
  54:..\..\..\..\..\..\Software\uCOS-III\Source/os_time.c **** *                            OS_OPT_TIME_DLY      : OSTickCtr + dly
  55:..\..\..\..\..\..\Software\uCOS-III\Source/os_time.c **** *                            OS_OPT_TIME_TIMEOUT  : OSTickCtr + dly
  56:..\..\..\..\..\..\Software\uCOS-III\Source/os_time.c **** *                            OS_OPT_TIME_MATCH    : dly
  57:..\..\..\..\..\..\Software\uCOS-III\Source/os_time.c **** *                            OS_OPT_TIME_PERIODIC : OSTCBCurPtr->TickCtrPrev + dly
  58:..\..\..\..\..\..\Software\uCOS-III\Source/os_time.c **** *
  59:..\..\..\..\..\..\Software\uCOS-III\Source/os_time.c **** *              opt       specifies whether 'dly' represents absolute or relative time; default opti
  60:..\..\..\..\..\..\Software\uCOS-III\Source/os_time.c **** *
  61:..\..\..\..\..\..\Software\uCOS-III\Source/os_time.c **** *                        *** OS_OPT_TIME_DLY        specifies a relative time from the current valu
  62:..\..\..\..\..\..\Software\uCOS-III\Source/os_time.c **** *                            OS_OPT_TIME_TIMEOUT    same as OS_OPT_TIME_DLY.
  63:..\..\..\..\..\..\Software\uCOS-III\Source/os_time.c **** *                            OS_OPT_TIME_MATCH      indicates that 'dly' specifies the absolute val
  64:..\..\..\..\..\..\Software\uCOS-III\Source/os_time.c **** *                                                   must reach before the task will be resumed.
  65:..\..\..\..\..\..\Software\uCOS-III\Source/os_time.c **** *                            OS_OPT_TIME_PERIODIC   indicates that 'dly' specifies the periodic val
  66:..\..\..\..\..\..\Software\uCOS-III\Source/os_time.c **** *                                                   must reach before the task will be resumed.
  67:..\..\..\..\..\..\Software\uCOS-III\Source/os_time.c **** *
  68:..\..\..\..\..\..\Software\uCOS-III\Source/os_time.c **** *              p_err     is a pointer to a variable that will contain an error code from this call.
  69:..\..\..\..\..\..\Software\uCOS-III\Source/os_time.c **** *
  70:..\..\..\..\..\..\Software\uCOS-III\Source/os_time.c **** *                            OS_ERR_NONE            the call was successful and the delay occurred.
  71:..\..\..\..\..\..\Software\uCOS-III\Source/os_time.c **** *                            OS_ERR_OPT_INVALID     if you specified an invalid option for this fun
  72:..\..\..\..\..\..\Software\uCOS-III\Source/os_time.c **** *                            OS_ERR_SCHED_LOCKED    can't delay when the scheduler is locked.
  73:..\..\..\..\..\..\Software\uCOS-III\Source/os_time.c **** *                            OS_ERR_TIME_DLY_ISR    if you called this function from an ISR.
  74:..\..\..\..\..\..\Software\uCOS-III\Source/os_time.c **** *                            OS_ERR_TIME_ZERO_DLY   if you specified a delay of zero.
  75:..\..\..\..\..\..\Software\uCOS-III\Source/os_time.c **** *
  76:..\..\..\..\..\..\Software\uCOS-III\Source/os_time.c **** * Returns    : none
  77:..\..\..\..\..\..\Software\uCOS-III\Source/os_time.c **** ***************************************************************************************************
  78:..\..\..\..\..\..\Software\uCOS-III\Source/os_time.c **** */
  79:..\..\..\..\..\..\Software\uCOS-III\Source/os_time.c **** 
  80:..\..\..\..\..\..\Software\uCOS-III\Source/os_time.c **** void  OSTimeDly (OS_TICK   dly,
  81:..\..\..\..\..\..\Software\uCOS-III\Source/os_time.c ****                  OS_OPT    opt,
  82:..\..\..\..\..\..\Software\uCOS-III\Source/os_time.c ****                  OS_ERR   *p_err)
  83:..\..\..\..\..\..\Software\uCOS-III\Source/os_time.c **** {
  28              		.loc 1 83 0
  29              		.cfi_startproc
  30              		@ args = 0, pretend = 0, frame = 24
  31              		@ frame_needed = 1, uses_anonymous_args = 0
ARM GAS  C:\Users\EDULU~1.DES\AppData\Local\Temp\ccAw7IE5.s 			page 3


  32 0000 90B5     		push	{r4, r7, lr}
  33              		.cfi_def_cfa_offset 12
  34              		.cfi_offset 4, -12
  35              		.cfi_offset 7, -8
  36              		.cfi_offset 14, -4
  37 0002 87B0     		sub	sp, sp, #28
  38              		.cfi_def_cfa_offset 40
  39 0004 00AF     		add	r7, sp, #0
  40              		.cfi_def_cfa_register 7
  41 0006 F860     		str	r0, [r7, #12]
  42 0008 7A60     		str	r2, [r7, #4]
  43 000a 0A23     		movs	r3, #10
  44 000c FB18     		adds	r3, r7, r3
  45 000e 0A1C     		adds	r2, r1, #0
  46 0010 1A80     		strh	r2, [r3]
  84:..\..\..\..\..\..\Software\uCOS-III\Source/os_time.c ****     CPU_SR_ALLOC();
  47              		.loc 1 84 0
  48 0012 0023     		movs	r3, #0
  49 0014 7B61     		str	r3, [r7, #20]
  85:..\..\..\..\..\..\Software\uCOS-III\Source/os_time.c **** 
  86:..\..\..\..\..\..\Software\uCOS-III\Source/os_time.c **** 
  87:..\..\..\..\..\..\Software\uCOS-III\Source/os_time.c **** 
  88:..\..\..\..\..\..\Software\uCOS-III\Source/os_time.c **** #ifdef OS_SAFETY_CRITICAL
  89:..\..\..\..\..\..\Software\uCOS-III\Source/os_time.c ****     if (p_err == (OS_ERR *)0) {
  90:..\..\..\..\..\..\Software\uCOS-III\Source/os_time.c ****         OS_SAFETY_CRITICAL_EXCEPTION();
  91:..\..\..\..\..\..\Software\uCOS-III\Source/os_time.c ****         return;
  92:..\..\..\..\..\..\Software\uCOS-III\Source/os_time.c ****     }
  93:..\..\..\..\..\..\Software\uCOS-III\Source/os_time.c **** #endif
  94:..\..\..\..\..\..\Software\uCOS-III\Source/os_time.c **** 
  95:..\..\..\..\..\..\Software\uCOS-III\Source/os_time.c **** #if OS_CFG_CALLED_FROM_ISR_CHK_EN > 0u
  96:..\..\..\..\..\..\Software\uCOS-III\Source/os_time.c ****     if (OSIntNestingCtr > (OS_NESTING_CTR)0u) {             /* Not allowed to call from an ISR     
  50              		.loc 1 96 0
  51 0016 2F4B     		ldr	r3, .L14
  52 0018 1B78     		ldrb	r3, [r3]
  53 001a 002B     		cmp	r3, #0
  54 001c 03D0     		beq	.L2
  97:..\..\..\..\..\..\Software\uCOS-III\Source/os_time.c ****        *p_err = OS_ERR_TIME_DLY_ISR;
  55              		.loc 1 97 0
  56 001e 7B68     		ldr	r3, [r7, #4]
  57 0020 2D4A     		ldr	r2, .L14+4
  58 0022 1A80     		strh	r2, [r3]
  98:..\..\..\..\..\..\Software\uCOS-III\Source/os_time.c ****         return;
  59              		.loc 1 98 0
  60 0024 52E0     		b	.L1
  61              	.L2:
  99:..\..\..\..\..\..\Software\uCOS-III\Source/os_time.c ****     }
 100:..\..\..\..\..\..\Software\uCOS-III\Source/os_time.c **** #endif
 101:..\..\..\..\..\..\Software\uCOS-III\Source/os_time.c **** 
 102:..\..\..\..\..\..\Software\uCOS-III\Source/os_time.c ****     if (OSSchedLockNestingCtr > (OS_NESTING_CTR)0u) {       /* Can't delay when the scheduler is lo
  62              		.loc 1 102 0
  63 0026 2D4B     		ldr	r3, .L14+8
  64 0028 1B78     		ldrb	r3, [r3]
  65 002a 002B     		cmp	r3, #0
  66 002c 03D0     		beq	.L4
 103:..\..\..\..\..\..\Software\uCOS-III\Source/os_time.c ****        *p_err = OS_ERR_SCHED_LOCKED;
  67              		.loc 1 103 0
  68 002e 7B68     		ldr	r3, [r7, #4]
ARM GAS  C:\Users\EDULU~1.DES\AppData\Local\Temp\ccAw7IE5.s 			page 4


  69 0030 2B4A     		ldr	r2, .L14+12
  70 0032 1A80     		strh	r2, [r3]
 104:..\..\..\..\..\..\Software\uCOS-III\Source/os_time.c ****         return;
  71              		.loc 1 104 0
  72 0034 4AE0     		b	.L1
  73              	.L4:
 105:..\..\..\..\..\..\Software\uCOS-III\Source/os_time.c ****     }
 106:..\..\..\..\..\..\Software\uCOS-III\Source/os_time.c **** 
 107:..\..\..\..\..\..\Software\uCOS-III\Source/os_time.c ****     switch (opt) {
  74              		.loc 1 107 0
  75 0036 0A23     		movs	r3, #10
  76 0038 FB18     		adds	r3, r7, r3
  77 003a 1B88     		ldrh	r3, [r3]
  78 003c 022B     		cmp	r3, #2
  79 003e 07D0     		beq	.L6
  80 0040 02DC     		bgt	.L7
  81 0042 002B     		cmp	r3, #0
  82 0044 04D0     		beq	.L6
  83 0046 0AE0     		b	.L5
  84              	.L7:
  85 0048 042B     		cmp	r3, #4
  86 004a 0CD0     		beq	.L12
  87 004c 082B     		cmp	r3, #8
  88 004e 06D1     		bne	.L5
  89              	.L6:
 108:..\..\..\..\..\..\Software\uCOS-III\Source/os_time.c ****         case OS_OPT_TIME_DLY:
 109:..\..\..\..\..\..\Software\uCOS-III\Source/os_time.c ****         case OS_OPT_TIME_TIMEOUT:
 110:..\..\..\..\..\..\Software\uCOS-III\Source/os_time.c ****         case OS_OPT_TIME_PERIODIC:
 111:..\..\..\..\..\..\Software\uCOS-III\Source/os_time.c ****              if (dly == (OS_TICK)0u) {                      /* 0 means no delay!                   
  90              		.loc 1 111 0
  91 0050 FB68     		ldr	r3, [r7, #12]
  92 0052 002B     		cmp	r3, #0
  93 0054 09D1     		bne	.L13
 112:..\..\..\..\..\..\Software\uCOS-III\Source/os_time.c ****                 *p_err = OS_ERR_TIME_ZERO_DLY;
  94              		.loc 1 112 0
  95 0056 7B68     		ldr	r3, [r7, #4]
  96 0058 224A     		ldr	r2, .L14+16
  97 005a 1A80     		strh	r2, [r3]
 113:..\..\..\..\..\..\Software\uCOS-III\Source/os_time.c ****                  return;
  98              		.loc 1 113 0
  99 005c 36E0     		b	.L1
 100              	.L5:
 114:..\..\..\..\..\..\Software\uCOS-III\Source/os_time.c ****              }
 115:..\..\..\..\..\..\Software\uCOS-III\Source/os_time.c ****              break;
 116:..\..\..\..\..\..\Software\uCOS-III\Source/os_time.c **** 
 117:..\..\..\..\..\..\Software\uCOS-III\Source/os_time.c ****         case OS_OPT_TIME_MATCH:
 118:..\..\..\..\..\..\Software\uCOS-III\Source/os_time.c ****              break;
 119:..\..\..\..\..\..\Software\uCOS-III\Source/os_time.c **** 
 120:..\..\..\..\..\..\Software\uCOS-III\Source/os_time.c ****         default:
 121:..\..\..\..\..\..\Software\uCOS-III\Source/os_time.c ****             *p_err = OS_ERR_OPT_INVALID;
 101              		.loc 1 121 0
 102 005e 7B68     		ldr	r3, [r7, #4]
 103 0060 214A     		ldr	r2, .L14+20
 104 0062 1A80     		strh	r2, [r3]
 122:..\..\..\..\..\..\Software\uCOS-III\Source/os_time.c ****              return;
 105              		.loc 1 122 0
 106 0064 32E0     		b	.L1
ARM GAS  C:\Users\EDULU~1.DES\AppData\Local\Temp\ccAw7IE5.s 			page 5


 107              	.L12:
 118:..\..\..\..\..\..\Software\uCOS-III\Source/os_time.c **** 
 108              		.loc 1 118 0
 109 0066 C046     		nop
 110 0068 00E0     		b	.L10
 111              	.L13:
 115:..\..\..\..\..\..\Software\uCOS-III\Source/os_time.c **** 
 112              		.loc 1 115 0
 113 006a C046     		nop
 114              	.L10:
 123:..\..\..\..\..\..\Software\uCOS-III\Source/os_time.c ****     }
 124:..\..\..\..\..\..\Software\uCOS-III\Source/os_time.c **** 
 125:..\..\..\..\..\..\Software\uCOS-III\Source/os_time.c ****     OS_CRITICAL_ENTER();
 115              		.loc 1 125 0
 116 006c FFF7FEFF 		bl	CPU_SR_Save
 117 0070 0300     		movs	r3, r0
 118 0072 7B61     		str	r3, [r7, #20]
 119 0074 FFF7FEFF 		bl	CPU_IntDisMeasStart
 126:..\..\..\..\..\..\Software\uCOS-III\Source/os_time.c ****     OSTCBCurPtr->TaskState = OS_TASK_STATE_DLY;
 120              		.loc 1 126 0
 121 0078 1C4B     		ldr	r3, .L14+24
 122 007a 1B68     		ldr	r3, [r3]
 123 007c 3622     		movs	r2, #54
 124 007e 0121     		movs	r1, #1
 125 0080 9954     		strb	r1, [r3, r2]
 127:..\..\..\..\..\..\Software\uCOS-III\Source/os_time.c ****     OS_TickListInsert(OSTCBCurPtr,
 126              		.loc 1 127 0
 127 0082 1A4B     		ldr	r3, .L14+24
 128 0084 1868     		ldr	r0, [r3]
 129 0086 7C68     		ldr	r4, [r7, #4]
 130 0088 0A23     		movs	r3, #10
 131 008a FB18     		adds	r3, r7, r3
 132 008c 1A88     		ldrh	r2, [r3]
 133 008e F968     		ldr	r1, [r7, #12]
 134 0090 2300     		movs	r3, r4
 135 0092 FFF7FEFF 		bl	OS_TickListInsert
 128:..\..\..\..\..\..\Software\uCOS-III\Source/os_time.c ****                       dly,
 129:..\..\..\..\..\..\Software\uCOS-III\Source/os_time.c ****                       opt,
 130:..\..\..\..\..\..\Software\uCOS-III\Source/os_time.c ****                       p_err);
 131:..\..\..\..\..\..\Software\uCOS-III\Source/os_time.c ****     if (*p_err != OS_ERR_NONE) {
 136              		.loc 1 131 0
 137 0096 7B68     		ldr	r3, [r7, #4]
 138 0098 1B88     		ldrh	r3, [r3]
 139 009a 002B     		cmp	r3, #0
 140 009c 06D0     		beq	.L11
 132:..\..\..\..\..\..\Software\uCOS-III\Source/os_time.c ****          OS_CRITICAL_EXIT_NO_SCHED();
 141              		.loc 1 132 0
 142 009e FFF7FEFF 		bl	CPU_IntDisMeasStop
 143 00a2 7B69     		ldr	r3, [r7, #20]
 144 00a4 1800     		movs	r0, r3
 145 00a6 FFF7FEFF 		bl	CPU_SR_Restore
 133:..\..\..\..\..\..\Software\uCOS-III\Source/os_time.c ****          return;
 146              		.loc 1 133 0
 147 00aa 0FE0     		b	.L1
 148              	.L11:
 134:..\..\..\..\..\..\Software\uCOS-III\Source/os_time.c ****     }
 135:..\..\..\..\..\..\Software\uCOS-III\Source/os_time.c ****     OS_RdyListRemove(OSTCBCurPtr);                          /* Remove current task from ready list 
ARM GAS  C:\Users\EDULU~1.DES\AppData\Local\Temp\ccAw7IE5.s 			page 6


 149              		.loc 1 135 0
 150 00ac 0F4B     		ldr	r3, .L14+24
 151 00ae 1B68     		ldr	r3, [r3]
 152 00b0 1800     		movs	r0, r3
 153 00b2 FFF7FEFF 		bl	OS_RdyListRemove
 136:..\..\..\..\..\..\Software\uCOS-III\Source/os_time.c ****     OS_CRITICAL_EXIT_NO_SCHED();
 154              		.loc 1 136 0
 155 00b6 FFF7FEFF 		bl	CPU_IntDisMeasStop
 156 00ba 7B69     		ldr	r3, [r7, #20]
 157 00bc 1800     		movs	r0, r3
 158 00be FFF7FEFF 		bl	CPU_SR_Restore
 137:..\..\..\..\..\..\Software\uCOS-III\Source/os_time.c ****     OSSched();                                              /* Find next task to run!              
 159              		.loc 1 137 0
 160 00c2 FFF7FEFF 		bl	OSSched
 138:..\..\..\..\..\..\Software\uCOS-III\Source/os_time.c ****    *p_err = OS_ERR_NONE;
 161              		.loc 1 138 0
 162 00c6 7B68     		ldr	r3, [r7, #4]
 163 00c8 0022     		movs	r2, #0
 164 00ca 1A80     		strh	r2, [r3]
 165              	.L1:
 139:..\..\..\..\..\..\Software\uCOS-III\Source/os_time.c **** }
 166              		.loc 1 139 0
 167 00cc BD46     		mov	sp, r7
 168 00ce 07B0     		add	sp, sp, #28
 169              		@ sp needed
 170 00d0 90BD     		pop	{r4, r7, pc}
 171              	.L15:
 172 00d2 C046     		.align	2
 173              	.L14:
 174 00d4 00000000 		.word	OSIntNestingCtr
 175 00d8 75720000 		.word	29301
 176 00dc 00000000 		.word	OSSchedLockNestingCtr
 177 00e0 636D0000 		.word	28003
 178 00e4 7E720000 		.word	29310
 179 00e8 255E0000 		.word	24101
 180 00ec 00000000 		.word	OSTCBCurPtr
 181              		.cfi_endproc
 182              	.LFE1:
 183              		.size	OSTimeDly, .-OSTimeDly
 184              		.global	__aeabi_uidiv
 185              		.section	.text.OSTimeDlyHMSM,"ax",%progbits
 186              		.align	2
 187              		.global	OSTimeDlyHMSM
 188              		.code	16
 189              		.thumb_func
 190              		.type	OSTimeDlyHMSM, %function
 191              	OSTimeDlyHMSM:
 192              	.LFB2:
 140:..\..\..\..\..\..\Software\uCOS-III\Source/os_time.c **** 
 141:..\..\..\..\..\..\Software\uCOS-III\Source/os_time.c **** /*$PAGE*/
 142:..\..\..\..\..\..\Software\uCOS-III\Source/os_time.c **** /*
 143:..\..\..\..\..\..\Software\uCOS-III\Source/os_time.c **** ***************************************************************************************************
 144:..\..\..\..\..\..\Software\uCOS-III\Source/os_time.c **** *                                             DELAY TASK FOR SPECIFIED TIME
 145:..\..\..\..\..\..\Software\uCOS-III\Source/os_time.c **** *
 146:..\..\..\..\..\..\Software\uCOS-III\Source/os_time.c **** * Description: This function is called to delay execution of the currently running task until some 
 147:..\..\..\..\..\..\Software\uCOS-III\Source/os_time.c **** *              call allows you to specify the delay time in HOURS, MINUTES, SECONDS and MILLISECOND
 148:..\..\..\..\..\..\Software\uCOS-III\Source/os_time.c **** *
ARM GAS  C:\Users\EDULU~1.DES\AppData\Local\Temp\ccAw7IE5.s 			page 7


 149:..\..\..\..\..\..\Software\uCOS-III\Source/os_time.c **** * Arguments  : hours     specifies the number of hours that the task will be delayed (max. is 999 i
 150:..\..\..\..\..\..\Software\uCOS-III\Source/os_time.c **** *                        1000 Hz or less otherwise, a higher value would overflow a 32-bit unsigned
 151:..\..\..\..\..\..\Software\uCOS-III\Source/os_time.c **** *
 152:..\..\..\..\..\..\Software\uCOS-III\Source/os_time.c **** *              minutes   specifies the number of minutes (max. 59 if 'opt' is OS_OPT_TIME_HMSM_STRI
 153:..\..\..\..\..\..\Software\uCOS-III\Source/os_time.c **** *
 154:..\..\..\..\..\..\Software\uCOS-III\Source/os_time.c **** *              seconds   specifies the number of seconds (max. 59 if 'opt' is OS_OPT_TIME_HMSM_STRI
 155:..\..\..\..\..\..\Software\uCOS-III\Source/os_time.c **** *
 156:..\..\..\..\..\..\Software\uCOS-III\Source/os_time.c **** *              milli     specifies the number of milliseconds (max. 999 if 'opt' is OS_OPT_TIME_HMS
 157:..\..\..\..\..\..\Software\uCOS-III\Source/os_time.c **** *
 158:..\..\..\..\..\..\Software\uCOS-III\Source/os_time.c **** *              opt       specifies time delay bit-field options logically OR'd; default options mar
 159:..\..\..\..\..\..\Software\uCOS-III\Source/os_time.c **** *
 160:..\..\..\..\..\..\Software\uCOS-III\Source/os_time.c **** *                        *** OS_OPT_TIME_DLY        specifies a relative time from the current valu
 161:..\..\..\..\..\..\Software\uCOS-III\Source/os_time.c **** *                            OS_OPT_TIME_TIMEOUT    same as OS_OPT_TIME_DLY.
 162:..\..\..\..\..\..\Software\uCOS-III\Source/os_time.c **** *                            OS_OPT_TIME_MATCH      indicates that the delay specifies the absolute
 163:..\..\..\..\..\..\Software\uCOS-III\Source/os_time.c **** *                                                   must reach before the task will be resumed.
 164:..\..\..\..\..\..\Software\uCOS-III\Source/os_time.c **** *                            OS_OPT_TIME_PERIODIC   indicates that the delay specifies the periodic
 165:..\..\..\..\..\..\Software\uCOS-III\Source/os_time.c **** *                                                   must reach before the task will be resumed.
 166:..\..\..\..\..\..\Software\uCOS-III\Source/os_time.c **** *
 167:..\..\..\..\..\..\Software\uCOS-III\Source/os_time.c **** *                        *** OS_OPT_TIME_HMSM_STRICT            strictly allow only hours        (0
 168:..\..\..\..\..\..\Software\uCOS-III\Source/os_time.c **** *                                                                                   minutes      (0
 169:..\..\..\..\..\..\Software\uCOS-III\Source/os_time.c **** *                                                                                   seconds      (0
 170:..\..\..\..\..\..\Software\uCOS-III\Source/os_time.c **** *                                                                                   milliseconds (0
 171:..\..\..\..\..\..\Software\uCOS-III\Source/os_time.c **** *                            OS_OPT_TIME_HMSM_NON_STRICT        allow any value of  hours        (0
 172:..\..\..\..\..\..\Software\uCOS-III\Source/os_time.c **** *                                                                                   minutes      (0
 173:..\..\..\..\..\..\Software\uCOS-III\Source/os_time.c **** *                                                                                   seconds      (0
 174:..\..\..\..\..\..\Software\uCOS-III\Source/os_time.c **** *                                                                                   milliseconds (0
 175:..\..\..\..\..\..\Software\uCOS-III\Source/os_time.c **** *
 176:..\..\..\..\..\..\Software\uCOS-III\Source/os_time.c **** *              p_err     is a pointer to a variable that will receive an error code from this call.
 177:..\..\..\..\..\..\Software\uCOS-III\Source/os_time.c **** *
 178:..\..\..\..\..\..\Software\uCOS-III\Source/os_time.c **** *                            OS_ERR_NONE                        If the function returns from the de
 179:..\..\..\..\..\..\Software\uCOS-III\Source/os_time.c **** *                            OS_ERR_OPT_INVALID                 If you specified an invalid option 
 180:..\..\..\..\..\..\Software\uCOS-III\Source/os_time.c **** *                            OS_ERR_SCHED_LOCKED                Can't delay when the scheduler is l
 181:..\..\..\..\..\..\Software\uCOS-III\Source/os_time.c **** *                            OS_ERR_TIME_DLY_ISR                If called from an ISR
 182:..\..\..\..\..\..\Software\uCOS-III\Source/os_time.c **** *                            OS_ERR_TIME_INVALID_HOURS          If you didn't specify a valid value
 183:..\..\..\..\..\..\Software\uCOS-III\Source/os_time.c **** *                            OS_ERR_TIME_INVALID_MINUTES        If you didn't specify a valid value
 184:..\..\..\..\..\..\Software\uCOS-III\Source/os_time.c **** *                            OS_ERR_TIME_INVALID_SECONDS        If you didn't specify a valid value
 185:..\..\..\..\..\..\Software\uCOS-III\Source/os_time.c **** *                            OS_ERR_TIME_INVALID_MILLISECONDS   If you didn't specify a valid value
 186:..\..\..\..\..\..\Software\uCOS-III\Source/os_time.c **** *                            OS_ERR_TIME_ZERO_DLY               If hours, minutes, seconds and mill
 187:..\..\..\..\..\..\Software\uCOS-III\Source/os_time.c **** *
 188:..\..\..\..\..\..\Software\uCOS-III\Source/os_time.c **** * Returns    : none
 189:..\..\..\..\..\..\Software\uCOS-III\Source/os_time.c **** *
 190:..\..\..\..\..\..\Software\uCOS-III\Source/os_time.c **** * Note(s)    : 1) The resolution on the milliseconds depends on the tick rate.  For example, you ca
 191:..\..\..\..\..\..\Software\uCOS-III\Source/os_time.c **** *                 if the ticker interrupts every 100 mS.  In this case, the delay would be set to 0
 192:..\..\..\..\..\..\Software\uCOS-III\Source/os_time.c **** *                 is rounded to the nearest tick.
 193:..\..\..\..\..\..\Software\uCOS-III\Source/os_time.c **** *
 194:..\..\..\..\..\..\Software\uCOS-III\Source/os_time.c **** *              2) Although this function allows you to delay a task for many, many hours, it's not 
 195:..\..\..\..\..\..\Software\uCOS-III\Source/os_time.c **** *                 a task to sleep for that long.
 196:..\..\..\..\..\..\Software\uCOS-III\Source/os_time.c **** ***************************************************************************************************
 197:..\..\..\..\..\..\Software\uCOS-III\Source/os_time.c **** */
 198:..\..\..\..\..\..\Software\uCOS-III\Source/os_time.c **** 
 199:..\..\..\..\..\..\Software\uCOS-III\Source/os_time.c **** #if OS_CFG_TIME_DLY_HMSM_EN > 0u
 200:..\..\..\..\..\..\Software\uCOS-III\Source/os_time.c **** void  OSTimeDlyHMSM (CPU_INT16U   hours,
 201:..\..\..\..\..\..\Software\uCOS-III\Source/os_time.c ****                      CPU_INT16U   minutes,
 202:..\..\..\..\..\..\Software\uCOS-III\Source/os_time.c ****                      CPU_INT16U   seconds,
 203:..\..\..\..\..\..\Software\uCOS-III\Source/os_time.c ****                      CPU_INT32U   milli,
 204:..\..\..\..\..\..\Software\uCOS-III\Source/os_time.c ****                      OS_OPT       opt,
 205:..\..\..\..\..\..\Software\uCOS-III\Source/os_time.c ****                      OS_ERR      *p_err)
ARM GAS  C:\Users\EDULU~1.DES\AppData\Local\Temp\ccAw7IE5.s 			page 8


 206:..\..\..\..\..\..\Software\uCOS-III\Source/os_time.c **** {
 193              		.loc 1 206 0
 194              		.cfi_startproc
 195              		@ args = 8, pretend = 0, frame = 32
 196              		@ frame_needed = 1, uses_anonymous_args = 0
 197 0000 90B5     		push	{r4, r7, lr}
 198              		.cfi_def_cfa_offset 12
 199              		.cfi_offset 4, -12
 200              		.cfi_offset 7, -8
 201              		.cfi_offset 14, -4
 202 0002 89B0     		sub	sp, sp, #36
 203              		.cfi_def_cfa_offset 48
 204 0004 00AF     		add	r7, sp, #0
 205              		.cfi_def_cfa_register 7
 206 0006 0400     		movs	r4, r0
 207 0008 0800     		movs	r0, r1
 208 000a 1100     		movs	r1, r2
 209 000c 7B60     		str	r3, [r7, #4]
 210 000e 0E23     		movs	r3, #14
 211 0010 FB18     		adds	r3, r7, r3
 212 0012 221C     		adds	r2, r4, #0
 213 0014 1A80     		strh	r2, [r3]
 214 0016 0C23     		movs	r3, #12
 215 0018 FB18     		adds	r3, r7, r3
 216 001a 021C     		adds	r2, r0, #0
 217 001c 1A80     		strh	r2, [r3]
 218 001e 0A23     		movs	r3, #10
 219 0020 FB18     		adds	r3, r7, r3
 220 0022 0A1C     		adds	r2, r1, #0
 221 0024 1A80     		strh	r2, [r3]
 207:..\..\..\..\..\..\Software\uCOS-III\Source/os_time.c **** #if OS_CFG_ARG_CHK_EN > 0u
 208:..\..\..\..\..\..\Software\uCOS-III\Source/os_time.c ****     CPU_BOOLEAN  opt_invalid;
 209:..\..\..\..\..\..\Software\uCOS-III\Source/os_time.c ****     CPU_BOOLEAN  opt_non_strict;
 210:..\..\..\..\..\..\Software\uCOS-III\Source/os_time.c **** #endif
 211:..\..\..\..\..\..\Software\uCOS-III\Source/os_time.c ****     OS_OPT       opt_time;
 212:..\..\..\..\..\..\Software\uCOS-III\Source/os_time.c ****     OS_RATE_HZ   tick_rate;
 213:..\..\..\..\..\..\Software\uCOS-III\Source/os_time.c ****     OS_TICK      ticks;
 214:..\..\..\..\..\..\Software\uCOS-III\Source/os_time.c ****     CPU_SR_ALLOC();
 222              		.loc 1 214 0
 223 0026 0023     		movs	r3, #0
 224 0028 FB61     		str	r3, [r7, #28]
 215:..\..\..\..\..\..\Software\uCOS-III\Source/os_time.c **** 
 216:..\..\..\..\..\..\Software\uCOS-III\Source/os_time.c **** 
 217:..\..\..\..\..\..\Software\uCOS-III\Source/os_time.c **** 
 218:..\..\..\..\..\..\Software\uCOS-III\Source/os_time.c **** #ifdef OS_SAFETY_CRITICAL
 219:..\..\..\..\..\..\Software\uCOS-III\Source/os_time.c ****     if (p_err == (OS_ERR *)0) {
 220:..\..\..\..\..\..\Software\uCOS-III\Source/os_time.c ****         OS_SAFETY_CRITICAL_EXCEPTION();
 221:..\..\..\..\..\..\Software\uCOS-III\Source/os_time.c ****         return;
 222:..\..\..\..\..\..\Software\uCOS-III\Source/os_time.c ****     }
 223:..\..\..\..\..\..\Software\uCOS-III\Source/os_time.c **** #endif
 224:..\..\..\..\..\..\Software\uCOS-III\Source/os_time.c **** 
 225:..\..\..\..\..\..\Software\uCOS-III\Source/os_time.c **** #if OS_CFG_CALLED_FROM_ISR_CHK_EN > 0u
 226:..\..\..\..\..\..\Software\uCOS-III\Source/os_time.c ****     if (OSIntNestingCtr > (OS_NESTING_CTR)0u) {             /* Not allowed to call from an ISR     
 225              		.loc 1 226 0
 226 002a 824B     		ldr	r3, .L39
 227 002c 1B78     		ldrb	r3, [r3]
 228 002e 002B     		cmp	r3, #0
ARM GAS  C:\Users\EDULU~1.DES\AppData\Local\Temp\ccAw7IE5.s 			page 9


 229 0030 03D0     		beq	.L17
 227:..\..\..\..\..\..\Software\uCOS-III\Source/os_time.c ****        *p_err = OS_ERR_TIME_DLY_ISR;
 230              		.loc 1 227 0
 231 0032 7B6B     		ldr	r3, [r7, #52]
 232 0034 804A     		ldr	r2, .L39+4
 233 0036 1A80     		strh	r2, [r3]
 228:..\..\..\..\..\..\Software\uCOS-III\Source/os_time.c ****         return;
 234              		.loc 1 228 0
 235 0038 F8E0     		b	.L16
 236              	.L17:
 229:..\..\..\..\..\..\Software\uCOS-III\Source/os_time.c ****     }
 230:..\..\..\..\..\..\Software\uCOS-III\Source/os_time.c **** #endif
 231:..\..\..\..\..\..\Software\uCOS-III\Source/os_time.c **** 
 232:..\..\..\..\..\..\Software\uCOS-III\Source/os_time.c ****     if (OSSchedLockNestingCtr > (OS_NESTING_CTR)0u) {       /* Can't delay when the scheduler is lo
 237              		.loc 1 232 0
 238 003a 804B     		ldr	r3, .L39+8
 239 003c 1B78     		ldrb	r3, [r3]
 240 003e 002B     		cmp	r3, #0
 241 0040 03D0     		beq	.L19
 233:..\..\..\..\..\..\Software\uCOS-III\Source/os_time.c ****        *p_err = OS_ERR_SCHED_LOCKED;
 242              		.loc 1 233 0
 243 0042 7B6B     		ldr	r3, [r7, #52]
 244 0044 7E4A     		ldr	r2, .L39+12
 245 0046 1A80     		strh	r2, [r3]
 234:..\..\..\..\..\..\Software\uCOS-III\Source/os_time.c ****         return;
 246              		.loc 1 234 0
 247 0048 F0E0     		b	.L16
 248              	.L19:
 235:..\..\..\..\..\..\Software\uCOS-III\Source/os_time.c ****     }
 236:..\..\..\..\..\..\Software\uCOS-III\Source/os_time.c **** 
 237:..\..\..\..\..\..\Software\uCOS-III\Source/os_time.c ****     opt_time = opt & OS_OPT_TIME_MASK;                      /* Retrieve time options only.         
 249              		.loc 1 237 0
 250 004a 1A23     		movs	r3, #26
 251 004c FB18     		adds	r3, r7, r3
 252 004e 3022     		movs	r2, #48
 253 0050 BA18     		adds	r2, r7, r2
 254 0052 1288     		ldrh	r2, [r2]
 255 0054 0E21     		movs	r1, #14
 256 0056 0A40     		ands	r2, r1
 257 0058 1A80     		strh	r2, [r3]
 238:..\..\..\..\..\..\Software\uCOS-III\Source/os_time.c ****     switch (opt_time) {
 258              		.loc 1 238 0
 259 005a 1A23     		movs	r3, #26
 260 005c FB18     		adds	r3, r7, r3
 261 005e 1B88     		ldrh	r3, [r3]
 262 0060 022B     		cmp	r3, #2
 263 0062 07D0     		beq	.L21
 264 0064 02DC     		bgt	.L22
 265 0066 002B     		cmp	r3, #0
 266 0068 04D0     		beq	.L21
 267 006a 19E0     		b	.L20
 268              	.L22:
 269 006c 042B     		cmp	r3, #4
 270 006e 1BD0     		beq	.L37
 271 0070 082B     		cmp	r3, #8
 272 0072 15D1     		bne	.L20
 273              	.L21:
ARM GAS  C:\Users\EDULU~1.DES\AppData\Local\Temp\ccAw7IE5.s 			page 10


 239:..\..\..\..\..\..\Software\uCOS-III\Source/os_time.c ****         case OS_OPT_TIME_DLY:
 240:..\..\..\..\..\..\Software\uCOS-III\Source/os_time.c ****         case OS_OPT_TIME_TIMEOUT:
 241:..\..\..\..\..\..\Software\uCOS-III\Source/os_time.c ****         case OS_OPT_TIME_PERIODIC:
 242:..\..\..\..\..\..\Software\uCOS-III\Source/os_time.c ****              if (milli == (CPU_INT32U)0u) {                 /* Make sure we didn't specify a 0 dela
 274              		.loc 1 242 0
 275 0074 7B68     		ldr	r3, [r7, #4]
 276 0076 002B     		cmp	r3, #0
 277 0078 18D1     		bne	.L38
 243:..\..\..\..\..\..\Software\uCOS-III\Source/os_time.c ****                  if (seconds == (CPU_INT16U)0u) {
 278              		.loc 1 243 0
 279 007a 0A23     		movs	r3, #10
 280 007c FB18     		adds	r3, r7, r3
 281 007e 1B88     		ldrh	r3, [r3]
 282 0080 002B     		cmp	r3, #0
 283 0082 13D1     		bne	.L38
 244:..\..\..\..\..\..\Software\uCOS-III\Source/os_time.c ****                      if (minutes == (CPU_INT16U)0u) {
 284              		.loc 1 244 0
 285 0084 0C23     		movs	r3, #12
 286 0086 FB18     		adds	r3, r7, r3
 287 0088 1B88     		ldrh	r3, [r3]
 288 008a 002B     		cmp	r3, #0
 289 008c 0ED1     		bne	.L38
 245:..\..\..\..\..\..\Software\uCOS-III\Source/os_time.c ****                          if (hours == (CPU_INT16U)0u) {
 290              		.loc 1 245 0
 291 008e 0E23     		movs	r3, #14
 292 0090 FB18     		adds	r3, r7, r3
 293 0092 1B88     		ldrh	r3, [r3]
 294 0094 002B     		cmp	r3, #0
 295 0096 09D1     		bne	.L38
 246:..\..\..\..\..\..\Software\uCOS-III\Source/os_time.c ****                             *p_err = OS_ERR_TIME_ZERO_DLY;
 296              		.loc 1 246 0
 297 0098 7B6B     		ldr	r3, [r7, #52]
 298 009a 6A4A     		ldr	r2, .L39+16
 299 009c 1A80     		strh	r2, [r3]
 247:..\..\..\..\..\..\Software\uCOS-III\Source/os_time.c ****                              return;
 300              		.loc 1 247 0
 301 009e C5E0     		b	.L16
 302              	.L20:
 248:..\..\..\..\..\..\Software\uCOS-III\Source/os_time.c ****                          }
 249:..\..\..\..\..\..\Software\uCOS-III\Source/os_time.c ****                      }
 250:..\..\..\..\..\..\Software\uCOS-III\Source/os_time.c ****                  }
 251:..\..\..\..\..\..\Software\uCOS-III\Source/os_time.c ****              }
 252:..\..\..\..\..\..\Software\uCOS-III\Source/os_time.c ****              break;
 253:..\..\..\..\..\..\Software\uCOS-III\Source/os_time.c **** 
 254:..\..\..\..\..\..\Software\uCOS-III\Source/os_time.c ****         case OS_OPT_TIME_MATCH:
 255:..\..\..\..\..\..\Software\uCOS-III\Source/os_time.c ****              break;
 256:..\..\..\..\..\..\Software\uCOS-III\Source/os_time.c **** 
 257:..\..\..\..\..\..\Software\uCOS-III\Source/os_time.c ****         default:
 258:..\..\..\..\..\..\Software\uCOS-III\Source/os_time.c ****             *p_err = OS_ERR_OPT_INVALID;
 303              		.loc 1 258 0
 304 00a0 7B6B     		ldr	r3, [r7, #52]
 305 00a2 694A     		ldr	r2, .L39+20
 306 00a4 1A80     		strh	r2, [r3]
 259:..\..\..\..\..\..\Software\uCOS-III\Source/os_time.c ****              return;
 307              		.loc 1 259 0
 308 00a6 C1E0     		b	.L16
 309              	.L37:
ARM GAS  C:\Users\EDULU~1.DES\AppData\Local\Temp\ccAw7IE5.s 			page 11


 255:..\..\..\..\..\..\Software\uCOS-III\Source/os_time.c **** 
 310              		.loc 1 255 0
 311 00a8 C046     		nop
 312 00aa 00E0     		b	.L25
 313              	.L38:
 252:..\..\..\..\..\..\Software\uCOS-III\Source/os_time.c **** 
 314              		.loc 1 252 0
 315 00ac C046     		nop
 316              	.L25:
 260:..\..\..\..\..\..\Software\uCOS-III\Source/os_time.c ****     }
 261:..\..\..\..\..\..\Software\uCOS-III\Source/os_time.c **** 
 262:..\..\..\..\..\..\Software\uCOS-III\Source/os_time.c **** #if OS_CFG_ARG_CHK_EN > 0u                                  /* Validate arguments to be within rang
 263:..\..\..\..\..\..\Software\uCOS-III\Source/os_time.c ****     opt_invalid = DEF_BIT_IS_SET_ANY(opt, ~OS_OPT_TIME_OPTS_MASK);
 317              		.loc 1 263 0
 318 00ae 3023     		movs	r3, #48
 319 00b0 FB18     		adds	r3, r7, r3
 320 00b2 1B88     		ldrh	r3, [r3]
 321 00b4 1E22     		movs	r2, #30
 322 00b6 9343     		bics	r3, r2
 323 00b8 5A1E     		subs	r2, r3, #1
 324 00ba 9341     		sbcs	r3, r3, r2
 325 00bc DAB2     		uxtb	r2, r3
 326 00be 1923     		movs	r3, #25
 327 00c0 FB18     		adds	r3, r7, r3
 328 00c2 1A70     		strb	r2, [r3]
 264:..\..\..\..\..\..\Software\uCOS-III\Source/os_time.c ****     if (opt_invalid == DEF_YES) {
 329              		.loc 1 264 0
 330 00c4 1923     		movs	r3, #25
 331 00c6 FB18     		adds	r3, r7, r3
 332 00c8 1B78     		ldrb	r3, [r3]
 333 00ca 012B     		cmp	r3, #1
 334 00cc 03D1     		bne	.L26
 265:..\..\..\..\..\..\Software\uCOS-III\Source/os_time.c ****        *p_err = OS_ERR_OPT_INVALID;
 335              		.loc 1 265 0
 336 00ce 7B6B     		ldr	r3, [r7, #52]
 337 00d0 5D4A     		ldr	r2, .L39+20
 338 00d2 1A80     		strh	r2, [r3]
 266:..\..\..\..\..\..\Software\uCOS-III\Source/os_time.c ****         return;
 339              		.loc 1 266 0
 340 00d4 AAE0     		b	.L16
 341              	.L26:
 267:..\..\..\..\..\..\Software\uCOS-III\Source/os_time.c ****     }
 268:..\..\..\..\..\..\Software\uCOS-III\Source/os_time.c **** 
 269:..\..\..\..\..\..\Software\uCOS-III\Source/os_time.c ****     opt_non_strict = DEF_BIT_IS_SET(opt, OS_OPT_TIME_HMSM_NON_STRICT);
 342              		.loc 1 269 0
 343 00d6 3023     		movs	r3, #48
 344 00d8 FB18     		adds	r3, r7, r3
 345 00da 1B88     		ldrh	r3, [r3]
 346 00dc 1022     		movs	r2, #16
 347 00de 1340     		ands	r3, r2
 348 00e0 01D0     		beq	.L27
 349              		.loc 1 269 0 is_stmt 0 discriminator 1
 350 00e2 0122     		movs	r2, #1
 351 00e4 00E0     		b	.L28
 352              	.L27:
 353              		.loc 1 269 0 discriminator 2
 354 00e6 0022     		movs	r2, #0
ARM GAS  C:\Users\EDULU~1.DES\AppData\Local\Temp\ccAw7IE5.s 			page 12


 355              	.L28:
 356              		.loc 1 269 0 discriminator 4
 357 00e8 1823     		movs	r3, #24
 358 00ea FB18     		adds	r3, r7, r3
 359 00ec 1A70     		strb	r2, [r3]
 270:..\..\..\..\..\..\Software\uCOS-III\Source/os_time.c ****     if (opt_non_strict != DEF_YES) {
 360              		.loc 1 270 0 is_stmt 1 discriminator 4
 361 00ee 1823     		movs	r3, #24
 362 00f0 FB18     		adds	r3, r7, r3
 363 00f2 1B78     		ldrb	r3, [r3]
 364 00f4 012B     		cmp	r3, #1
 365 00f6 22D0     		beq	.L29
 271:..\..\..\..\..\..\Software\uCOS-III\Source/os_time.c ****          if (milli   > (CPU_INT32U)999u) {
 366              		.loc 1 271 0
 367 00f8 7B68     		ldr	r3, [r7, #4]
 368 00fa 544A     		ldr	r2, .L39+24
 369 00fc 9342     		cmp	r3, r2
 370 00fe 03D9     		bls	.L30
 272:..\..\..\..\..\..\Software\uCOS-III\Source/os_time.c ****             *p_err = OS_ERR_TIME_INVALID_MILLISECONDS;
 371              		.loc 1 272 0
 372 0100 7B6B     		ldr	r3, [r7, #52]
 373 0102 534A     		ldr	r2, .L39+28
 374 0104 1A80     		strh	r2, [r3]
 273:..\..\..\..\..\..\Software\uCOS-III\Source/os_time.c ****              return;
 375              		.loc 1 273 0
 376 0106 91E0     		b	.L16
 377              	.L30:
 274:..\..\..\..\..\..\Software\uCOS-III\Source/os_time.c ****          }
 275:..\..\..\..\..\..\Software\uCOS-III\Source/os_time.c ****          if (seconds > (CPU_INT16U)59u) {
 378              		.loc 1 275 0
 379 0108 0A23     		movs	r3, #10
 380 010a FB18     		adds	r3, r7, r3
 381 010c 1B88     		ldrh	r3, [r3]
 382 010e 3B2B     		cmp	r3, #59
 383 0110 03D9     		bls	.L31
 276:..\..\..\..\..\..\Software\uCOS-III\Source/os_time.c ****             *p_err = OS_ERR_TIME_INVALID_SECONDS;
 384              		.loc 1 276 0
 385 0112 7B6B     		ldr	r3, [r7, #52]
 386 0114 4F4A     		ldr	r2, .L39+32
 387 0116 1A80     		strh	r2, [r3]
 277:..\..\..\..\..\..\Software\uCOS-III\Source/os_time.c ****              return;
 388              		.loc 1 277 0
 389 0118 88E0     		b	.L16
 390              	.L31:
 278:..\..\..\..\..\..\Software\uCOS-III\Source/os_time.c ****          }
 279:..\..\..\..\..\..\Software\uCOS-III\Source/os_time.c ****          if (minutes > (CPU_INT16U)59u) {
 391              		.loc 1 279 0
 392 011a 0C23     		movs	r3, #12
 393 011c FB18     		adds	r3, r7, r3
 394 011e 1B88     		ldrh	r3, [r3]
 395 0120 3B2B     		cmp	r3, #59
 396 0122 03D9     		bls	.L32
 280:..\..\..\..\..\..\Software\uCOS-III\Source/os_time.c ****             *p_err = OS_ERR_TIME_INVALID_MINUTES;
 397              		.loc 1 280 0
 398 0124 7B6B     		ldr	r3, [r7, #52]
 399 0126 4C4A     		ldr	r2, .L39+36
 400 0128 1A80     		strh	r2, [r3]
ARM GAS  C:\Users\EDULU~1.DES\AppData\Local\Temp\ccAw7IE5.s 			page 13


 281:..\..\..\..\..\..\Software\uCOS-III\Source/os_time.c ****              return;
 401              		.loc 1 281 0
 402 012a 7FE0     		b	.L16
 403              	.L32:
 282:..\..\..\..\..\..\Software\uCOS-III\Source/os_time.c ****          }
 283:..\..\..\..\..\..\Software\uCOS-III\Source/os_time.c ****          if (hours   > (CPU_INT16U)99u) {
 404              		.loc 1 283 0
 405 012c 0E23     		movs	r3, #14
 406 012e FB18     		adds	r3, r7, r3
 407 0130 1B88     		ldrh	r3, [r3]
 408 0132 632B     		cmp	r3, #99
 409 0134 17D9     		bls	.L33
 284:..\..\..\..\..\..\Software\uCOS-III\Source/os_time.c ****             *p_err = OS_ERR_TIME_INVALID_HOURS;
 410              		.loc 1 284 0
 411 0136 7B6B     		ldr	r3, [r7, #52]
 412 0138 484A     		ldr	r2, .L39+40
 413 013a 1A80     		strh	r2, [r3]
 285:..\..\..\..\..\..\Software\uCOS-III\Source/os_time.c ****              return;
 414              		.loc 1 285 0
 415 013c 76E0     		b	.L16
 416              	.L29:
 286:..\..\..\..\..\..\Software\uCOS-III\Source/os_time.c ****          }
 287:..\..\..\..\..\..\Software\uCOS-III\Source/os_time.c ****     } else {
 288:..\..\..\..\..\..\Software\uCOS-III\Source/os_time.c ****          if (minutes > (CPU_INT16U)9999u) {
 417              		.loc 1 288 0
 418 013e 0C23     		movs	r3, #12
 419 0140 FB18     		adds	r3, r7, r3
 420 0142 1B88     		ldrh	r3, [r3]
 421 0144 464A     		ldr	r2, .L39+44
 422 0146 9342     		cmp	r3, r2
 423 0148 03D9     		bls	.L34
 289:..\..\..\..\..\..\Software\uCOS-III\Source/os_time.c ****             *p_err = OS_ERR_TIME_INVALID_MINUTES;
 424              		.loc 1 289 0
 425 014a 7B6B     		ldr	r3, [r7, #52]
 426 014c 424A     		ldr	r2, .L39+36
 427 014e 1A80     		strh	r2, [r3]
 290:..\..\..\..\..\..\Software\uCOS-III\Source/os_time.c ****              return;
 428              		.loc 1 290 0
 429 0150 6CE0     		b	.L16
 430              	.L34:
 291:..\..\..\..\..\..\Software\uCOS-III\Source/os_time.c ****          }
 292:..\..\..\..\..\..\Software\uCOS-III\Source/os_time.c ****          if (hours   > (CPU_INT16U)999u) {
 431              		.loc 1 292 0
 432 0152 0E23     		movs	r3, #14
 433 0154 FB18     		adds	r3, r7, r3
 434 0156 1B88     		ldrh	r3, [r3]
 435 0158 3C4A     		ldr	r2, .L39+24
 436 015a 9342     		cmp	r3, r2
 437 015c 03D9     		bls	.L33
 293:..\..\..\..\..\..\Software\uCOS-III\Source/os_time.c ****             *p_err = OS_ERR_TIME_INVALID_HOURS;
 438              		.loc 1 293 0
 439 015e 7B6B     		ldr	r3, [r7, #52]
 440 0160 3E4A     		ldr	r2, .L39+40
 441 0162 1A80     		strh	r2, [r3]
 294:..\..\..\..\..\..\Software\uCOS-III\Source/os_time.c ****              return;
 442              		.loc 1 294 0
 443 0164 62E0     		b	.L16
ARM GAS  C:\Users\EDULU~1.DES\AppData\Local\Temp\ccAw7IE5.s 			page 14


 444              	.L33:
 295:..\..\..\..\..\..\Software\uCOS-III\Source/os_time.c ****          }
 296:..\..\..\..\..\..\Software\uCOS-III\Source/os_time.c ****     }
 297:..\..\..\..\..\..\Software\uCOS-III\Source/os_time.c **** #endif
 298:..\..\..\..\..\..\Software\uCOS-III\Source/os_time.c **** 
 299:..\..\..\..\..\..\Software\uCOS-III\Source/os_time.c ****                                                             /* Compute the total number of clock ti
 300:..\..\..\..\..\..\Software\uCOS-III\Source/os_time.c ****                                                             /* .. (rounded to the nearest tick)    
 301:..\..\..\..\..\..\Software\uCOS-III\Source/os_time.c ****     tick_rate = OSCfg_TickRate_Hz;
 445              		.loc 1 301 0
 446 0166 3F4B     		ldr	r3, .L39+48
 447 0168 1B68     		ldr	r3, [r3]
 448 016a 7B61     		str	r3, [r7, #20]
 302:..\..\..\..\..\..\Software\uCOS-III\Source/os_time.c ****     ticks     = ((OS_TICK)hours * (OS_TICK)3600u + (OS_TICK)minutes * (OS_TICK)60u + (OS_TICK)secon
 449              		.loc 1 302 0
 450 016c 0E23     		movs	r3, #14
 451 016e FB18     		adds	r3, r7, r3
 452 0170 1B88     		ldrh	r3, [r3]
 453 0172 E122     		movs	r2, #225
 454 0174 1201     		lsls	r2, r2, #4
 455 0176 5A43     		muls	r2, r3
 456 0178 1100     		movs	r1, r2
 457 017a 0C23     		movs	r3, #12
 458 017c FB18     		adds	r3, r7, r3
 459 017e 1A88     		ldrh	r2, [r3]
 460 0180 1300     		movs	r3, r2
 461 0182 1B01     		lsls	r3, r3, #4
 462 0184 9B1A     		subs	r3, r3, r2
 463 0186 9B00     		lsls	r3, r3, #2
 464 0188 CA18     		adds	r2, r1, r3
 465 018a 0A23     		movs	r3, #10
 466 018c FB18     		adds	r3, r7, r3
 467 018e 1B88     		ldrh	r3, [r3]
 468 0190 D318     		adds	r3, r2, r3
 469 0192 7A69     		ldr	r2, [r7, #20]
 470 0194 5A43     		muls	r2, r3
 471 0196 1400     		movs	r4, r2
 303:..\..\..\..\..\..\Software\uCOS-III\Source/os_time.c ****               + (tick_rate * ((OS_TICK)milli + (OS_TICK)500u / tick_rate)) / (OS_TICK)1000u;
 472              		.loc 1 303 0
 473 0198 7969     		ldr	r1, [r7, #20]
 474 019a FA23     		movs	r3, #250
 475 019c 5800     		lsls	r0, r3, #1
 476 019e FFF7FEFF 		bl	__aeabi_uidiv
 477 01a2 0300     		movs	r3, r0
 478 01a4 1A00     		movs	r2, r3
 479 01a6 7B68     		ldr	r3, [r7, #4]
 480 01a8 D318     		adds	r3, r2, r3
 481 01aa 7A69     		ldr	r2, [r7, #20]
 482 01ac 5A43     		muls	r2, r3
 483 01ae FA23     		movs	r3, #250
 484 01b0 9900     		lsls	r1, r3, #2
 485 01b2 1000     		movs	r0, r2
 486 01b4 FFF7FEFF 		bl	__aeabi_uidiv
 487 01b8 0300     		movs	r3, r0
 302:..\..\..\..\..\..\Software\uCOS-III\Source/os_time.c ****     ticks     = ((OS_TICK)hours * (OS_TICK)3600u + (OS_TICK)minutes * (OS_TICK)60u + (OS_TICK)secon
 488              		.loc 1 302 0
 489 01ba E318     		adds	r3, r4, r3
 490 01bc 3B61     		str	r3, [r7, #16]
ARM GAS  C:\Users\EDULU~1.DES\AppData\Local\Temp\ccAw7IE5.s 			page 15


 304:..\..\..\..\..\..\Software\uCOS-III\Source/os_time.c **** 
 305:..\..\..\..\..\..\Software\uCOS-III\Source/os_time.c ****     if (ticks > (OS_TICK)0u) {
 491              		.loc 1 305 0
 492 01be 3B69     		ldr	r3, [r7, #16]
 493 01c0 002B     		cmp	r3, #0
 494 01c2 30D0     		beq	.L35
 306:..\..\..\..\..\..\Software\uCOS-III\Source/os_time.c ****         OS_CRITICAL_ENTER();
 495              		.loc 1 306 0
 496 01c4 FFF7FEFF 		bl	CPU_SR_Save
 497 01c8 0300     		movs	r3, r0
 498 01ca FB61     		str	r3, [r7, #28]
 499 01cc FFF7FEFF 		bl	CPU_IntDisMeasStart
 307:..\..\..\..\..\..\Software\uCOS-III\Source/os_time.c ****         OSTCBCurPtr->TaskState = OS_TASK_STATE_DLY;
 500              		.loc 1 307 0
 501 01d0 254B     		ldr	r3, .L39+52
 502 01d2 1B68     		ldr	r3, [r3]
 503 01d4 3622     		movs	r2, #54
 504 01d6 0121     		movs	r1, #1
 505 01d8 9954     		strb	r1, [r3, r2]
 308:..\..\..\..\..\..\Software\uCOS-III\Source/os_time.c ****         OS_TickListInsert(OSTCBCurPtr,
 506              		.loc 1 308 0
 507 01da 234B     		ldr	r3, .L39+52
 508 01dc 1868     		ldr	r0, [r3]
 509 01de 7C6B     		ldr	r4, [r7, #52]
 510 01e0 1A23     		movs	r3, #26
 511 01e2 FB18     		adds	r3, r7, r3
 512 01e4 1A88     		ldrh	r2, [r3]
 513 01e6 3969     		ldr	r1, [r7, #16]
 514 01e8 2300     		movs	r3, r4
 515 01ea FFF7FEFF 		bl	OS_TickListInsert
 309:..\..\..\..\..\..\Software\uCOS-III\Source/os_time.c ****                           ticks,
 310:..\..\..\..\..\..\Software\uCOS-III\Source/os_time.c ****                           opt_time,
 311:..\..\..\..\..\..\Software\uCOS-III\Source/os_time.c ****                           p_err);
 312:..\..\..\..\..\..\Software\uCOS-III\Source/os_time.c ****         if (*p_err != OS_ERR_NONE) {
 516              		.loc 1 312 0
 517 01ee 7B6B     		ldr	r3, [r7, #52]
 518 01f0 1B88     		ldrh	r3, [r3]
 519 01f2 002B     		cmp	r3, #0
 520 01f4 06D0     		beq	.L36
 313:..\..\..\..\..\..\Software\uCOS-III\Source/os_time.c ****              OS_CRITICAL_EXIT_NO_SCHED();
 521              		.loc 1 313 0
 522 01f6 FFF7FEFF 		bl	CPU_IntDisMeasStop
 523 01fa FB69     		ldr	r3, [r7, #28]
 524 01fc 1800     		movs	r0, r3
 525 01fe FFF7FEFF 		bl	CPU_SR_Restore
 314:..\..\..\..\..\..\Software\uCOS-III\Source/os_time.c ****              return;
 526              		.loc 1 314 0
 527 0202 13E0     		b	.L16
 528              	.L36:
 315:..\..\..\..\..\..\Software\uCOS-III\Source/os_time.c ****         }
 316:..\..\..\..\..\..\Software\uCOS-III\Source/os_time.c ****         OS_RdyListRemove(OSTCBCurPtr);                      /* Remove current task from ready list 
 529              		.loc 1 316 0
 530 0204 184B     		ldr	r3, .L39+52
 531 0206 1B68     		ldr	r3, [r3]
 532 0208 1800     		movs	r0, r3
 533 020a FFF7FEFF 		bl	OS_RdyListRemove
 317:..\..\..\..\..\..\Software\uCOS-III\Source/os_time.c ****         OS_CRITICAL_EXIT_NO_SCHED();
ARM GAS  C:\Users\EDULU~1.DES\AppData\Local\Temp\ccAw7IE5.s 			page 16


 534              		.loc 1 317 0
 535 020e FFF7FEFF 		bl	CPU_IntDisMeasStop
 536 0212 FB69     		ldr	r3, [r7, #28]
 537 0214 1800     		movs	r0, r3
 538 0216 FFF7FEFF 		bl	CPU_SR_Restore
 318:..\..\..\..\..\..\Software\uCOS-III\Source/os_time.c ****         OSSched();                                          /* Find next task to run!              
 539              		.loc 1 318 0
 540 021a FFF7FEFF 		bl	OSSched
 319:..\..\..\..\..\..\Software\uCOS-III\Source/os_time.c ****        *p_err = OS_ERR_NONE;
 541              		.loc 1 319 0
 542 021e 7B6B     		ldr	r3, [r7, #52]
 543 0220 0022     		movs	r2, #0
 544 0222 1A80     		strh	r2, [r3]
 545 0224 02E0     		b	.L16
 546              	.L35:
 320:..\..\..\..\..\..\Software\uCOS-III\Source/os_time.c ****     } else {
 321:..\..\..\..\..\..\Software\uCOS-III\Source/os_time.c ****        *p_err = OS_ERR_TIME_ZERO_DLY;
 547              		.loc 1 321 0
 548 0226 7B6B     		ldr	r3, [r7, #52]
 549 0228 064A     		ldr	r2, .L39+16
 550 022a 1A80     		strh	r2, [r3]
 551              	.L16:
 322:..\..\..\..\..\..\Software\uCOS-III\Source/os_time.c ****     }
 323:..\..\..\..\..\..\Software\uCOS-III\Source/os_time.c **** }
 552              		.loc 1 323 0
 553 022c BD46     		mov	sp, r7
 554 022e 09B0     		add	sp, sp, #36
 555              		@ sp needed
 556 0230 90BD     		pop	{r4, r7, pc}
 557              	.L40:
 558 0232 C046     		.align	2
 559              	.L39:
 560 0234 00000000 		.word	OSIntNestingCtr
 561 0238 75720000 		.word	29301
 562 023c 00000000 		.word	OSSchedLockNestingCtr
 563 0240 636D0000 		.word	28003
 564 0244 7E720000 		.word	29310
 565 0248 255E0000 		.word	24101
 566 024c E7030000 		.word	999
 567 0250 7B720000 		.word	29307
 568 0254 7A720000 		.word	29306
 569 0258 79720000 		.word	29305
 570 025c 78720000 		.word	29304
 571 0260 0F270000 		.word	9999
 572 0264 00000000 		.word	OSCfg_TickRate_Hz
 573 0268 00000000 		.word	OSTCBCurPtr
 574              		.cfi_endproc
 575              	.LFE2:
 576              		.size	OSTimeDlyHMSM, .-OSTimeDlyHMSM
 577              		.section	.text.OSTimeGet,"ax",%progbits
 578              		.align	2
 579              		.global	OSTimeGet
 580              		.code	16
 581              		.thumb_func
 582              		.type	OSTimeGet, %function
 583              	OSTimeGet:
 584              	.LFB3:
ARM GAS  C:\Users\EDULU~1.DES\AppData\Local\Temp\ccAw7IE5.s 			page 17


 324:..\..\..\..\..\..\Software\uCOS-III\Source/os_time.c **** #endif
 325:..\..\..\..\..\..\Software\uCOS-III\Source/os_time.c **** /*$PAGE*/
 326:..\..\..\..\..\..\Software\uCOS-III\Source/os_time.c **** /*
 327:..\..\..\..\..\..\Software\uCOS-III\Source/os_time.c **** ***************************************************************************************************
 328:..\..\..\..\..\..\Software\uCOS-III\Source/os_time.c **** *                                                RESUME A DELAYED TASK
 329:..\..\..\..\..\..\Software\uCOS-III\Source/os_time.c **** *
 330:..\..\..\..\..\..\Software\uCOS-III\Source/os_time.c **** * Description: This function is used resume a task that has been delayed through a call to either O
 331:..\..\..\..\..\..\Software\uCOS-III\Source/os_time.c **** *              OSTimeDlyHMSM().  Note that cannot call this function to resume a task that is waiti
 332:..\..\..\..\..\..\Software\uCOS-III\Source/os_time.c **** *              with timeout.
 333:..\..\..\..\..\..\Software\uCOS-III\Source/os_time.c **** *
 334:..\..\..\..\..\..\Software\uCOS-III\Source/os_time.c **** * Arguments  : p_tcb    is a pointer to the TCB of the task to resume.
 335:..\..\..\..\..\..\Software\uCOS-III\Source/os_time.c **** *
 336:..\..\..\..\..\..\Software\uCOS-III\Source/os_time.c **** *              p_err    is a pointer to a variable that will receive an error code
 337:..\..\..\..\..\..\Software\uCOS-III\Source/os_time.c **** *
 338:..\..\..\..\..\..\Software\uCOS-III\Source/os_time.c **** *                           OS_ERR_NONE                  Task has been resumed
 339:..\..\..\..\..\..\Software\uCOS-III\Source/os_time.c **** *                           OS_ERR_STATE_INVALID         Task is in an invalid state
 340:..\..\..\..\..\..\Software\uCOS-III\Source/os_time.c **** *                           OS_ERR_TIME_DLY_RESUME_ISR   If called from an ISR
 341:..\..\..\..\..\..\Software\uCOS-III\Source/os_time.c **** *                           OS_ERR_TIME_NOT_DLY          Task is not waiting for time to expire
 342:..\..\..\..\..\..\Software\uCOS-III\Source/os_time.c **** *                           OS_ERR_TASK_SUSPENDED        Task cannot be resumed, it was suspended b
 343:..\..\..\..\..\..\Software\uCOS-III\Source/os_time.c **** *
 344:..\..\..\..\..\..\Software\uCOS-III\Source/os_time.c **** * Note(s)    : none
 345:..\..\..\..\..\..\Software\uCOS-III\Source/os_time.c **** ***************************************************************************************************
 346:..\..\..\..\..\..\Software\uCOS-III\Source/os_time.c **** */
 347:..\..\..\..\..\..\Software\uCOS-III\Source/os_time.c **** 
 348:..\..\..\..\..\..\Software\uCOS-III\Source/os_time.c **** #if OS_CFG_TIME_DLY_RESUME_EN > 0u
 349:..\..\..\..\..\..\Software\uCOS-III\Source/os_time.c **** void  OSTimeDlyResume (OS_TCB  *p_tcb,
 350:..\..\..\..\..\..\Software\uCOS-III\Source/os_time.c ****                        OS_ERR  *p_err)
 351:..\..\..\..\..\..\Software\uCOS-III\Source/os_time.c **** {
 352:..\..\..\..\..\..\Software\uCOS-III\Source/os_time.c ****     CPU_SR_ALLOC();
 353:..\..\..\..\..\..\Software\uCOS-III\Source/os_time.c **** 
 354:..\..\..\..\..\..\Software\uCOS-III\Source/os_time.c **** 
 355:..\..\..\..\..\..\Software\uCOS-III\Source/os_time.c **** 
 356:..\..\..\..\..\..\Software\uCOS-III\Source/os_time.c **** #ifdef OS_SAFETY_CRITICAL
 357:..\..\..\..\..\..\Software\uCOS-III\Source/os_time.c ****     if (p_err == (OS_ERR *)0) {
 358:..\..\..\..\..\..\Software\uCOS-III\Source/os_time.c ****         OS_SAFETY_CRITICAL_EXCEPTION();
 359:..\..\..\..\..\..\Software\uCOS-III\Source/os_time.c ****         return;
 360:..\..\..\..\..\..\Software\uCOS-III\Source/os_time.c ****     }
 361:..\..\..\..\..\..\Software\uCOS-III\Source/os_time.c **** #endif
 362:..\..\..\..\..\..\Software\uCOS-III\Source/os_time.c **** 
 363:..\..\..\..\..\..\Software\uCOS-III\Source/os_time.c **** #if OS_CFG_CALLED_FROM_ISR_CHK_EN > 0u
 364:..\..\..\..\..\..\Software\uCOS-III\Source/os_time.c ****     if (OSIntNestingCtr > (OS_NESTING_CTR)0u) {             /* Not allowed to call from an ISR     
 365:..\..\..\..\..\..\Software\uCOS-III\Source/os_time.c ****        *p_err = OS_ERR_TIME_DLY_RESUME_ISR;
 366:..\..\..\..\..\..\Software\uCOS-III\Source/os_time.c ****         return;
 367:..\..\..\..\..\..\Software\uCOS-III\Source/os_time.c ****     }
 368:..\..\..\..\..\..\Software\uCOS-III\Source/os_time.c **** #endif
 369:..\..\..\..\..\..\Software\uCOS-III\Source/os_time.c **** 
 370:..\..\..\..\..\..\Software\uCOS-III\Source/os_time.c **** #if OS_CFG_ARG_CHK_EN > 0u
 371:..\..\..\..\..\..\Software\uCOS-III\Source/os_time.c ****     if (p_tcb == (OS_TCB *)0) {                             /* Not possible for the running task to
 372:..\..\..\..\..\..\Software\uCOS-III\Source/os_time.c ****        *p_err = OS_ERR_TASK_NOT_DLY;
 373:..\..\..\..\..\..\Software\uCOS-III\Source/os_time.c ****         return;
 374:..\..\..\..\..\..\Software\uCOS-III\Source/os_time.c ****     }
 375:..\..\..\..\..\..\Software\uCOS-III\Source/os_time.c **** #endif
 376:..\..\..\..\..\..\Software\uCOS-III\Source/os_time.c **** 
 377:..\..\..\..\..\..\Software\uCOS-III\Source/os_time.c ****     CPU_CRITICAL_ENTER();
 378:..\..\..\..\..\..\Software\uCOS-III\Source/os_time.c ****     if (p_tcb == OSTCBCurPtr) {                             /* Not possible for the running task to
 379:..\..\..\..\..\..\Software\uCOS-III\Source/os_time.c ****        *p_err = OS_ERR_TASK_NOT_DLY;
 380:..\..\..\..\..\..\Software\uCOS-III\Source/os_time.c ****         CPU_CRITICAL_EXIT();
ARM GAS  C:\Users\EDULU~1.DES\AppData\Local\Temp\ccAw7IE5.s 			page 18


 381:..\..\..\..\..\..\Software\uCOS-III\Source/os_time.c ****         return;
 382:..\..\..\..\..\..\Software\uCOS-III\Source/os_time.c ****     }
 383:..\..\..\..\..\..\Software\uCOS-III\Source/os_time.c **** 
 384:..\..\..\..\..\..\Software\uCOS-III\Source/os_time.c ****     switch (p_tcb->TaskState) {
 385:..\..\..\..\..\..\Software\uCOS-III\Source/os_time.c ****         case OS_TASK_STATE_RDY:                             /* Cannot Abort delay if task is ready 
 386:..\..\..\..\..\..\Software\uCOS-III\Source/os_time.c ****              CPU_CRITICAL_EXIT();
 387:..\..\..\..\..\..\Software\uCOS-III\Source/os_time.c ****             *p_err = OS_ERR_TASK_NOT_DLY;
 388:..\..\..\..\..\..\Software\uCOS-III\Source/os_time.c ****              break;
 389:..\..\..\..\..\..\Software\uCOS-III\Source/os_time.c **** 
 390:..\..\..\..\..\..\Software\uCOS-III\Source/os_time.c ****         case OS_TASK_STATE_DLY:
 391:..\..\..\..\..\..\Software\uCOS-III\Source/os_time.c ****              OS_CRITICAL_ENTER_CPU_EXIT();
 392:..\..\..\..\..\..\Software\uCOS-III\Source/os_time.c ****              p_tcb->TaskState = OS_TASK_STATE_RDY;
 393:..\..\..\..\..\..\Software\uCOS-III\Source/os_time.c ****              OS_TickListRemove(p_tcb);                      /* Remove task from tick list          
 394:..\..\..\..\..\..\Software\uCOS-III\Source/os_time.c ****              OS_RdyListInsert(p_tcb);                       /* Add to ready list                   
 395:..\..\..\..\..\..\Software\uCOS-III\Source/os_time.c ****              OS_CRITICAL_EXIT_NO_SCHED();
 396:..\..\..\..\..\..\Software\uCOS-III\Source/os_time.c ****             *p_err = OS_ERR_NONE;
 397:..\..\..\..\..\..\Software\uCOS-III\Source/os_time.c ****              break;
 398:..\..\..\..\..\..\Software\uCOS-III\Source/os_time.c **** 
 399:..\..\..\..\..\..\Software\uCOS-III\Source/os_time.c ****         case OS_TASK_STATE_PEND:
 400:..\..\..\..\..\..\Software\uCOS-III\Source/os_time.c ****              CPU_CRITICAL_EXIT();
 401:..\..\..\..\..\..\Software\uCOS-III\Source/os_time.c ****             *p_err = OS_ERR_TASK_NOT_DLY;
 402:..\..\..\..\..\..\Software\uCOS-III\Source/os_time.c ****              break;
 403:..\..\..\..\..\..\Software\uCOS-III\Source/os_time.c **** 
 404:..\..\..\..\..\..\Software\uCOS-III\Source/os_time.c ****         case OS_TASK_STATE_PEND_TIMEOUT:
 405:..\..\..\..\..\..\Software\uCOS-III\Source/os_time.c ****              CPU_CRITICAL_EXIT();
 406:..\..\..\..\..\..\Software\uCOS-III\Source/os_time.c ****             *p_err = OS_ERR_TASK_NOT_DLY;
 407:..\..\..\..\..\..\Software\uCOS-III\Source/os_time.c ****              break;
 408:..\..\..\..\..\..\Software\uCOS-III\Source/os_time.c **** 
 409:..\..\..\..\..\..\Software\uCOS-III\Source/os_time.c ****         case OS_TASK_STATE_SUSPENDED:
 410:..\..\..\..\..\..\Software\uCOS-III\Source/os_time.c ****              CPU_CRITICAL_EXIT();
 411:..\..\..\..\..\..\Software\uCOS-III\Source/os_time.c ****             *p_err = OS_ERR_TASK_NOT_DLY;
 412:..\..\..\..\..\..\Software\uCOS-III\Source/os_time.c ****              break;
 413:..\..\..\..\..\..\Software\uCOS-III\Source/os_time.c **** 
 414:..\..\..\..\..\..\Software\uCOS-III\Source/os_time.c ****         case OS_TASK_STATE_DLY_SUSPENDED:
 415:..\..\..\..\..\..\Software\uCOS-III\Source/os_time.c ****              OS_CRITICAL_ENTER_CPU_EXIT();
 416:..\..\..\..\..\..\Software\uCOS-III\Source/os_time.c ****              p_tcb->TaskState = OS_TASK_STATE_SUSPENDED;
 417:..\..\..\..\..\..\Software\uCOS-III\Source/os_time.c ****              OS_TickListRemove(p_tcb);                      /* Remove task from tick list          
 418:..\..\..\..\..\..\Software\uCOS-III\Source/os_time.c ****              OS_CRITICAL_EXIT_NO_SCHED();
 419:..\..\..\..\..\..\Software\uCOS-III\Source/os_time.c ****             *p_err            = OS_ERR_TASK_SUSPENDED;
 420:..\..\..\..\..\..\Software\uCOS-III\Source/os_time.c ****              break;
 421:..\..\..\..\..\..\Software\uCOS-III\Source/os_time.c **** 
 422:..\..\..\..\..\..\Software\uCOS-III\Source/os_time.c ****         case OS_TASK_STATE_PEND_SUSPENDED:
 423:..\..\..\..\..\..\Software\uCOS-III\Source/os_time.c ****              CPU_CRITICAL_EXIT();
 424:..\..\..\..\..\..\Software\uCOS-III\Source/os_time.c ****             *p_err = OS_ERR_TASK_NOT_DLY;
 425:..\..\..\..\..\..\Software\uCOS-III\Source/os_time.c ****              break;
 426:..\..\..\..\..\..\Software\uCOS-III\Source/os_time.c **** 
 427:..\..\..\..\..\..\Software\uCOS-III\Source/os_time.c ****         case OS_TASK_STATE_PEND_TIMEOUT_SUSPENDED:
 428:..\..\..\..\..\..\Software\uCOS-III\Source/os_time.c ****              CPU_CRITICAL_EXIT();
 429:..\..\..\..\..\..\Software\uCOS-III\Source/os_time.c ****             *p_err = OS_ERR_TASK_NOT_DLY;
 430:..\..\..\..\..\..\Software\uCOS-III\Source/os_time.c ****              break;
 431:..\..\..\..\..\..\Software\uCOS-III\Source/os_time.c **** 
 432:..\..\..\..\..\..\Software\uCOS-III\Source/os_time.c ****         default:
 433:..\..\..\..\..\..\Software\uCOS-III\Source/os_time.c ****              CPU_CRITICAL_EXIT();
 434:..\..\..\..\..\..\Software\uCOS-III\Source/os_time.c ****             *p_err = OS_ERR_STATE_INVALID;
 435:..\..\..\..\..\..\Software\uCOS-III\Source/os_time.c ****              break;
 436:..\..\..\..\..\..\Software\uCOS-III\Source/os_time.c ****     }
 437:..\..\..\..\..\..\Software\uCOS-III\Source/os_time.c **** 
ARM GAS  C:\Users\EDULU~1.DES\AppData\Local\Temp\ccAw7IE5.s 			page 19


 438:..\..\..\..\..\..\Software\uCOS-III\Source/os_time.c ****     OSSched();
 439:..\..\..\..\..\..\Software\uCOS-III\Source/os_time.c **** }
 440:..\..\..\..\..\..\Software\uCOS-III\Source/os_time.c **** #endif
 441:..\..\..\..\..\..\Software\uCOS-III\Source/os_time.c **** /*$PAGE*/
 442:..\..\..\..\..\..\Software\uCOS-III\Source/os_time.c **** /*
 443:..\..\..\..\..\..\Software\uCOS-III\Source/os_time.c **** ***************************************************************************************************
 444:..\..\..\..\..\..\Software\uCOS-III\Source/os_time.c **** *                                               GET CURRENT SYSTEM TIME
 445:..\..\..\..\..\..\Software\uCOS-III\Source/os_time.c **** *
 446:..\..\..\..\..\..\Software\uCOS-III\Source/os_time.c **** * Description: This function is used by your application to obtain the current value of the counter
 447:..\..\..\..\..\..\Software\uCOS-III\Source/os_time.c **** *              the number of clock ticks.
 448:..\..\..\..\..\..\Software\uCOS-III\Source/os_time.c **** *
 449:..\..\..\..\..\..\Software\uCOS-III\Source/os_time.c **** * Arguments  : p_err    is a pointer to a variable that will receive an error code
 450:..\..\..\..\..\..\Software\uCOS-III\Source/os_time.c **** *
 451:..\..\..\..\..\..\Software\uCOS-III\Source/os_time.c **** *                           OS_ERR_NONE           If the call was successful
 452:..\..\..\..\..\..\Software\uCOS-III\Source/os_time.c **** *
 453:..\..\..\..\..\..\Software\uCOS-III\Source/os_time.c **** * Returns    : The current value of OSTickCtr
 454:..\..\..\..\..\..\Software\uCOS-III\Source/os_time.c **** ***************************************************************************************************
 455:..\..\..\..\..\..\Software\uCOS-III\Source/os_time.c **** */
 456:..\..\..\..\..\..\Software\uCOS-III\Source/os_time.c **** 
 457:..\..\..\..\..\..\Software\uCOS-III\Source/os_time.c **** OS_TICK  OSTimeGet (OS_ERR  *p_err)
 458:..\..\..\..\..\..\Software\uCOS-III\Source/os_time.c **** {
 585              		.loc 1 458 0
 586              		.cfi_startproc
 587              		@ args = 0, pretend = 0, frame = 16
 588              		@ frame_needed = 1, uses_anonymous_args = 0
 589 0000 80B5     		push	{r7, lr}
 590              		.cfi_def_cfa_offset 8
 591              		.cfi_offset 7, -8
 592              		.cfi_offset 14, -4
 593 0002 84B0     		sub	sp, sp, #16
 594              		.cfi_def_cfa_offset 24
 595 0004 00AF     		add	r7, sp, #0
 596              		.cfi_def_cfa_register 7
 597 0006 7860     		str	r0, [r7, #4]
 459:..\..\..\..\..\..\Software\uCOS-III\Source/os_time.c ****     OS_TICK  ticks;
 460:..\..\..\..\..\..\Software\uCOS-III\Source/os_time.c ****     CPU_SR_ALLOC();
 598              		.loc 1 460 0
 599 0008 0023     		movs	r3, #0
 600 000a FB60     		str	r3, [r7, #12]
 461:..\..\..\..\..\..\Software\uCOS-III\Source/os_time.c **** 
 462:..\..\..\..\..\..\Software\uCOS-III\Source/os_time.c **** 
 463:..\..\..\..\..\..\Software\uCOS-III\Source/os_time.c **** 
 464:..\..\..\..\..\..\Software\uCOS-III\Source/os_time.c **** #ifdef OS_SAFETY_CRITICAL
 465:..\..\..\..\..\..\Software\uCOS-III\Source/os_time.c ****     if (p_err == (OS_ERR *)0) {
 466:..\..\..\..\..\..\Software\uCOS-III\Source/os_time.c ****         OS_SAFETY_CRITICAL_EXCEPTION();
 467:..\..\..\..\..\..\Software\uCOS-III\Source/os_time.c ****         return ((OS_TICK)0);
 468:..\..\..\..\..\..\Software\uCOS-III\Source/os_time.c ****     }
 469:..\..\..\..\..\..\Software\uCOS-III\Source/os_time.c **** #endif
 470:..\..\..\..\..\..\Software\uCOS-III\Source/os_time.c **** 
 471:..\..\..\..\..\..\Software\uCOS-III\Source/os_time.c ****     CPU_CRITICAL_ENTER();
 601              		.loc 1 471 0
 602 000c FFF7FEFF 		bl	CPU_SR_Save
 603 0010 0300     		movs	r3, r0
 604 0012 FB60     		str	r3, [r7, #12]
 605 0014 FFF7FEFF 		bl	CPU_IntDisMeasStart
 472:..\..\..\..\..\..\Software\uCOS-III\Source/os_time.c ****     ticks = OSTickCtr;
 606              		.loc 1 472 0
ARM GAS  C:\Users\EDULU~1.DES\AppData\Local\Temp\ccAw7IE5.s 			page 20


 607 0018 084B     		ldr	r3, .L43
 608 001a 1B68     		ldr	r3, [r3]
 609 001c BB60     		str	r3, [r7, #8]
 473:..\..\..\..\..\..\Software\uCOS-III\Source/os_time.c ****     CPU_CRITICAL_EXIT();
 610              		.loc 1 473 0
 611 001e FFF7FEFF 		bl	CPU_IntDisMeasStop
 612 0022 FB68     		ldr	r3, [r7, #12]
 613 0024 1800     		movs	r0, r3
 614 0026 FFF7FEFF 		bl	CPU_SR_Restore
 474:..\..\..\..\..\..\Software\uCOS-III\Source/os_time.c ****    *p_err = OS_ERR_NONE;
 615              		.loc 1 474 0
 616 002a 7B68     		ldr	r3, [r7, #4]
 617 002c 0022     		movs	r2, #0
 618 002e 1A80     		strh	r2, [r3]
 475:..\..\..\..\..\..\Software\uCOS-III\Source/os_time.c ****     return (ticks);
 619              		.loc 1 475 0
 620 0030 BB68     		ldr	r3, [r7, #8]
 476:..\..\..\..\..\..\Software\uCOS-III\Source/os_time.c **** }
 621              		.loc 1 476 0
 622 0032 1800     		movs	r0, r3
 623 0034 BD46     		mov	sp, r7
 624 0036 04B0     		add	sp, sp, #16
 625              		@ sp needed
 626 0038 80BD     		pop	{r7, pc}
 627              	.L44:
 628 003a C046     		.align	2
 629              	.L43:
 630 003c 00000000 		.word	OSTickCtr
 631              		.cfi_endproc
 632              	.LFE3:
 633              		.size	OSTimeGet, .-OSTimeGet
 634              		.section	.text.OSTimeSet,"ax",%progbits
 635              		.align	2
 636              		.global	OSTimeSet
 637              		.code	16
 638              		.thumb_func
 639              		.type	OSTimeSet, %function
 640              	OSTimeSet:
 641              	.LFB4:
 477:..\..\..\..\..\..\Software\uCOS-III\Source/os_time.c **** 
 478:..\..\..\..\..\..\Software\uCOS-III\Source/os_time.c **** /*
 479:..\..\..\..\..\..\Software\uCOS-III\Source/os_time.c **** ***************************************************************************************************
 480:..\..\..\..\..\..\Software\uCOS-III\Source/os_time.c **** *                                                   SET SYSTEM CLOCK
 481:..\..\..\..\..\..\Software\uCOS-III\Source/os_time.c **** *
 482:..\..\..\..\..\..\Software\uCOS-III\Source/os_time.c **** * Description: This function sets the counter which keeps track of the number of clock ticks.
 483:..\..\..\..\..\..\Software\uCOS-III\Source/os_time.c **** *
 484:..\..\..\..\..\..\Software\uCOS-III\Source/os_time.c **** * Arguments  : ticks    is the desired tick value
 485:..\..\..\..\..\..\Software\uCOS-III\Source/os_time.c **** *
 486:..\..\..\..\..\..\Software\uCOS-III\Source/os_time.c **** *              p_err    is a pointer to a variable that will receive an error code
 487:..\..\..\..\..\..\Software\uCOS-III\Source/os_time.c **** *
 488:..\..\..\..\..\..\Software\uCOS-III\Source/os_time.c **** *                           OS_ERR_NONE           If the call was successful
 489:..\..\..\..\..\..\Software\uCOS-III\Source/os_time.c **** *
 490:..\..\..\..\..\..\Software\uCOS-III\Source/os_time.c **** * Returns    : none
 491:..\..\..\..\..\..\Software\uCOS-III\Source/os_time.c **** ***************************************************************************************************
 492:..\..\..\..\..\..\Software\uCOS-III\Source/os_time.c **** */
 493:..\..\..\..\..\..\Software\uCOS-III\Source/os_time.c **** 
 494:..\..\..\..\..\..\Software\uCOS-III\Source/os_time.c **** void  OSTimeSet (OS_TICK   ticks,
ARM GAS  C:\Users\EDULU~1.DES\AppData\Local\Temp\ccAw7IE5.s 			page 21


 495:..\..\..\..\..\..\Software\uCOS-III\Source/os_time.c ****                  OS_ERR   *p_err)
 496:..\..\..\..\..\..\Software\uCOS-III\Source/os_time.c **** {
 642              		.loc 1 496 0
 643              		.cfi_startproc
 644              		@ args = 0, pretend = 0, frame = 16
 645              		@ frame_needed = 1, uses_anonymous_args = 0
 646 0000 80B5     		push	{r7, lr}
 647              		.cfi_def_cfa_offset 8
 648              		.cfi_offset 7, -8
 649              		.cfi_offset 14, -4
 650 0002 84B0     		sub	sp, sp, #16
 651              		.cfi_def_cfa_offset 24
 652 0004 00AF     		add	r7, sp, #0
 653              		.cfi_def_cfa_register 7
 654 0006 7860     		str	r0, [r7, #4]
 655 0008 3960     		str	r1, [r7]
 497:..\..\..\..\..\..\Software\uCOS-III\Source/os_time.c ****     CPU_SR_ALLOC();
 656              		.loc 1 497 0
 657 000a 0023     		movs	r3, #0
 658 000c FB60     		str	r3, [r7, #12]
 498:..\..\..\..\..\..\Software\uCOS-III\Source/os_time.c **** 
 499:..\..\..\..\..\..\Software\uCOS-III\Source/os_time.c **** 
 500:..\..\..\..\..\..\Software\uCOS-III\Source/os_time.c **** 
 501:..\..\..\..\..\..\Software\uCOS-III\Source/os_time.c **** #ifdef OS_SAFETY_CRITICAL
 502:..\..\..\..\..\..\Software\uCOS-III\Source/os_time.c ****     if (p_err == (OS_ERR *)0) {
 503:..\..\..\..\..\..\Software\uCOS-III\Source/os_time.c ****         OS_SAFETY_CRITICAL_EXCEPTION();
 504:..\..\..\..\..\..\Software\uCOS-III\Source/os_time.c ****         return;
 505:..\..\..\..\..\..\Software\uCOS-III\Source/os_time.c ****     }
 506:..\..\..\..\..\..\Software\uCOS-III\Source/os_time.c **** #endif
 507:..\..\..\..\..\..\Software\uCOS-III\Source/os_time.c **** 
 508:..\..\..\..\..\..\Software\uCOS-III\Source/os_time.c ****     CPU_CRITICAL_ENTER();
 659              		.loc 1 508 0
 660 000e FFF7FEFF 		bl	CPU_SR_Save
 661 0012 0300     		movs	r3, r0
 662 0014 FB60     		str	r3, [r7, #12]
 663 0016 FFF7FEFF 		bl	CPU_IntDisMeasStart
 509:..\..\..\..\..\..\Software\uCOS-III\Source/os_time.c ****     OSTickCtr = ticks;
 664              		.loc 1 509 0
 665 001a 084B     		ldr	r3, .L46
 666 001c 7A68     		ldr	r2, [r7, #4]
 667 001e 1A60     		str	r2, [r3]
 510:..\..\..\..\..\..\Software\uCOS-III\Source/os_time.c ****     CPU_CRITICAL_EXIT();
 668              		.loc 1 510 0
 669 0020 FFF7FEFF 		bl	CPU_IntDisMeasStop
 670 0024 FB68     		ldr	r3, [r7, #12]
 671 0026 1800     		movs	r0, r3
 672 0028 FFF7FEFF 		bl	CPU_SR_Restore
 511:..\..\..\..\..\..\Software\uCOS-III\Source/os_time.c ****    *p_err     = OS_ERR_NONE;
 673              		.loc 1 511 0
 674 002c 3B68     		ldr	r3, [r7]
 675 002e 0022     		movs	r2, #0
 676 0030 1A80     		strh	r2, [r3]
 512:..\..\..\..\..\..\Software\uCOS-III\Source/os_time.c **** }
 677              		.loc 1 512 0
 678 0032 C046     		nop
 679 0034 BD46     		mov	sp, r7
 680 0036 04B0     		add	sp, sp, #16
ARM GAS  C:\Users\EDULU~1.DES\AppData\Local\Temp\ccAw7IE5.s 			page 22


 681              		@ sp needed
 682 0038 80BD     		pop	{r7, pc}
 683              	.L47:
 684 003a C046     		.align	2
 685              	.L46:
 686 003c 00000000 		.word	OSTickCtr
 687              		.cfi_endproc
 688              	.LFE4:
 689              		.size	OSTimeSet, .-OSTimeSet
 690              		.section	.text.OSTimeTick,"ax",%progbits
 691              		.align	2
 692              		.global	OSTimeTick
 693              		.code	16
 694              		.thumb_func
 695              		.type	OSTimeTick, %function
 696              	OSTimeTick:
 697              	.LFB5:
 513:..\..\..\..\..\..\Software\uCOS-III\Source/os_time.c **** 
 514:..\..\..\..\..\..\Software\uCOS-III\Source/os_time.c **** /*$PAGE*/
 515:..\..\..\..\..\..\Software\uCOS-III\Source/os_time.c **** /*
 516:..\..\..\..\..\..\Software\uCOS-III\Source/os_time.c **** ***************************************************************************************************
 517:..\..\..\..\..\..\Software\uCOS-III\Source/os_time.c **** *                                                 PROCESS SYSTEM TICK
 518:..\..\..\..\..\..\Software\uCOS-III\Source/os_time.c **** *
 519:..\..\..\..\..\..\Software\uCOS-III\Source/os_time.c **** * Description: This function is used to signal to uC/OS-III the occurrence of a 'system tick' (also
 520:..\..\..\..\..\..\Software\uCOS-III\Source/os_time.c **** *              'clock tick').  This function should be called by the tick ISR.
 521:..\..\..\..\..\..\Software\uCOS-III\Source/os_time.c **** *
 522:..\..\..\..\..\..\Software\uCOS-III\Source/os_time.c **** * Arguments  : none
 523:..\..\..\..\..\..\Software\uCOS-III\Source/os_time.c **** *
 524:..\..\..\..\..\..\Software\uCOS-III\Source/os_time.c **** * Returns    : none
 525:..\..\..\..\..\..\Software\uCOS-III\Source/os_time.c **** ***************************************************************************************************
 526:..\..\..\..\..\..\Software\uCOS-III\Source/os_time.c **** */
 527:..\..\..\..\..\..\Software\uCOS-III\Source/os_time.c **** 
 528:..\..\..\..\..\..\Software\uCOS-III\Source/os_time.c **** void  OSTimeTick (void)
 529:..\..\..\..\..\..\Software\uCOS-III\Source/os_time.c **** {
 698              		.loc 1 529 0
 699              		.cfi_startproc
 700              		@ args = 0, pretend = 0, frame = 8
 701              		@ frame_needed = 1, uses_anonymous_args = 0
 702 0000 80B5     		push	{r7, lr}
 703              		.cfi_def_cfa_offset 8
 704              		.cfi_offset 7, -8
 705              		.cfi_offset 14, -4
 706 0002 82B0     		sub	sp, sp, #8
 707              		.cfi_def_cfa_offset 16
 708 0004 00AF     		add	r7, sp, #0
 709              		.cfi_def_cfa_register 7
 530:..\..\..\..\..\..\Software\uCOS-III\Source/os_time.c ****     OS_ERR  err;
 531:..\..\..\..\..\..\Software\uCOS-III\Source/os_time.c **** #if OS_CFG_ISR_POST_DEFERRED_EN > 0u
 532:..\..\..\..\..\..\Software\uCOS-III\Source/os_time.c ****     CPU_TS  ts;
 533:..\..\..\..\..\..\Software\uCOS-III\Source/os_time.c **** #endif
 534:..\..\..\..\..\..\Software\uCOS-III\Source/os_time.c **** 
 535:..\..\..\..\..\..\Software\uCOS-III\Source/os_time.c **** 
 536:..\..\..\..\..\..\Software\uCOS-III\Source/os_time.c ****     OSTimeTickHook();                                       /* Call user definable hook            
 710              		.loc 1 536 0
 711 0006 FFF7FEFF 		bl	OSTimeTickHook
 537:..\..\..\..\..\..\Software\uCOS-III\Source/os_time.c **** 
 538:..\..\..\..\..\..\Software\uCOS-III\Source/os_time.c **** #if OS_CFG_ISR_POST_DEFERRED_EN > 0u
ARM GAS  C:\Users\EDULU~1.DES\AppData\Local\Temp\ccAw7IE5.s 			page 23


 539:..\..\..\..\..\..\Software\uCOS-III\Source/os_time.c **** 
 540:..\..\..\..\..\..\Software\uCOS-III\Source/os_time.c ****     ts = OS_TS_GET();                                       /* Get timestamp                       
 541:..\..\..\..\..\..\Software\uCOS-III\Source/os_time.c ****     OS_IntQPost((OS_OBJ_TYPE) OS_OBJ_TYPE_TICK,             /* Post to ISR queue                   
 542:..\..\..\..\..\..\Software\uCOS-III\Source/os_time.c ****                 (void      *)&OSRdyList[OSPrioCur],
 543:..\..\..\..\..\..\Software\uCOS-III\Source/os_time.c ****                 (void      *) 0,
 544:..\..\..\..\..\..\Software\uCOS-III\Source/os_time.c ****                 (OS_MSG_SIZE) 0u,
 545:..\..\..\..\..\..\Software\uCOS-III\Source/os_time.c ****                 (OS_FLAGS   ) 0u,
 546:..\..\..\..\..\..\Software\uCOS-III\Source/os_time.c ****                 (OS_OPT     ) 0u,
 547:..\..\..\..\..\..\Software\uCOS-III\Source/os_time.c ****                 (CPU_TS     ) ts,
 548:..\..\..\..\..\..\Software\uCOS-III\Source/os_time.c ****                 (OS_ERR    *)&err);
 549:..\..\..\..\..\..\Software\uCOS-III\Source/os_time.c **** 
 550:..\..\..\..\..\..\Software\uCOS-III\Source/os_time.c **** #else
 551:..\..\..\..\..\..\Software\uCOS-III\Source/os_time.c **** 
 552:..\..\..\..\..\..\Software\uCOS-III\Source/os_time.c ****    (void)OSTaskSemPost((OS_TCB *)&OSTickTaskTCB,            /* Signal tick task                    
 712              		.loc 1 552 0
 713 000a BA1D     		adds	r2, r7, #6
 714 000c 0D4B     		ldr	r3, .L51
 715 000e 0021     		movs	r1, #0
 716 0010 1800     		movs	r0, r3
 717 0012 FFF7FEFF 		bl	OSTaskSemPost
 553:..\..\..\..\..\..\Software\uCOS-III\Source/os_time.c ****                        (OS_OPT  ) OS_OPT_POST_NONE,
 554:..\..\..\..\..\..\Software\uCOS-III\Source/os_time.c ****                        (OS_ERR *)&err);
 555:..\..\..\..\..\..\Software\uCOS-III\Source/os_time.c **** 
 556:..\..\..\..\..\..\Software\uCOS-III\Source/os_time.c **** 
 557:..\..\..\..\..\..\Software\uCOS-III\Source/os_time.c **** #if OS_CFG_SCHED_ROUND_ROBIN_EN > 0u
 558:..\..\..\..\..\..\Software\uCOS-III\Source/os_time.c ****     OS_SchedRoundRobin(&OSRdyList[OSPrioCur]);
 559:..\..\..\..\..\..\Software\uCOS-III\Source/os_time.c **** #endif
 560:..\..\..\..\..\..\Software\uCOS-III\Source/os_time.c **** 
 561:..\..\..\..\..\..\Software\uCOS-III\Source/os_time.c **** #if OS_CFG_TMR_EN > 0u
 562:..\..\..\..\..\..\Software\uCOS-III\Source/os_time.c ****     OSTmrUpdateCtr--;
 718              		.loc 1 562 0
 719 0016 0C4B     		ldr	r3, .L51+4
 720 0018 1B68     		ldr	r3, [r3]
 721 001a 5A1E     		subs	r2, r3, #1
 722 001c 0A4B     		ldr	r3, .L51+4
 723 001e 1A60     		str	r2, [r3]
 563:..\..\..\..\..\..\Software\uCOS-III\Source/os_time.c ****     if (OSTmrUpdateCtr == (OS_CTR)0u) {
 724              		.loc 1 563 0
 725 0020 094B     		ldr	r3, .L51+4
 726 0022 1B68     		ldr	r3, [r3]
 727 0024 002B     		cmp	r3, #0
 728 0026 09D1     		bne	.L50
 564:..\..\..\..\..\..\Software\uCOS-III\Source/os_time.c ****         OSTmrUpdateCtr = OSTmrUpdateCnt;
 729              		.loc 1 564 0
 730 0028 084B     		ldr	r3, .L51+8
 731 002a 1A68     		ldr	r2, [r3]
 732 002c 064B     		ldr	r3, .L51+4
 733 002e 1A60     		str	r2, [r3]
 565:..\..\..\..\..\..\Software\uCOS-III\Source/os_time.c ****         OSTaskSemPost((OS_TCB *)&OSTmrTaskTCB,              /* Signal timer task                   
 734              		.loc 1 565 0
 735 0030 BA1D     		adds	r2, r7, #6
 736 0032 074B     		ldr	r3, .L51+12
 737 0034 0021     		movs	r1, #0
 738 0036 1800     		movs	r0, r3
 739 0038 FFF7FEFF 		bl	OSTaskSemPost
 740              	.L50:
 566:..\..\..\..\..\..\Software\uCOS-III\Source/os_time.c ****                       (OS_OPT  ) OS_OPT_POST_NONE,
ARM GAS  C:\Users\EDULU~1.DES\AppData\Local\Temp\ccAw7IE5.s 			page 24


 567:..\..\..\..\..\..\Software\uCOS-III\Source/os_time.c ****                       (OS_ERR *)&err);
 568:..\..\..\..\..\..\Software\uCOS-III\Source/os_time.c ****     }
 569:..\..\..\..\..\..\Software\uCOS-III\Source/os_time.c **** #endif
 570:..\..\..\..\..\..\Software\uCOS-III\Source/os_time.c **** 
 571:..\..\..\..\..\..\Software\uCOS-III\Source/os_time.c **** #endif
 572:..\..\..\..\..\..\Software\uCOS-III\Source/os_time.c **** }
 741              		.loc 1 572 0
 742 003c C046     		nop
 743 003e BD46     		mov	sp, r7
 744 0040 02B0     		add	sp, sp, #8
 745              		@ sp needed
 746 0042 80BD     		pop	{r7, pc}
 747              	.L52:
 748              		.align	2
 749              	.L51:
 750 0044 00000000 		.word	OSTickTaskTCB
 751 0048 00000000 		.word	OSTmrUpdateCtr
 752 004c 00000000 		.word	OSTmrUpdateCnt
 753 0050 00000000 		.word	OSTmrTaskTCB
 754              		.cfi_endproc
 755              	.LFE5:
 756              		.size	OSTimeTick, .-OSTimeTick
 757              		.text
 758              	.Letext0:
 759              		.file 2 "..\\..\\..\\..\\..\\..\\Software\\uC-CPU\\ARM-Cortex-M0\\GNU/cpu.h"
 760              		.file 3 "..\\..\\..\\..\\..\\..\\Software\\uC-CPU/cpu_core.h"
 761              		.file 4 "..\\..\\..\\..\\..\\..\\Software\\uCOS-III\\Source/os_type.h"
 762              		.file 5 "..\\..\\..\\..\\..\\..\\Software\\uCOS-III\\Source/os.h"