ARM GAS  C:\Users\EDULU~1.DES\AppData\Local\Temp\ccyhp2HA.s 			page 1


   1              		.syntax unified
   2              		.cpu cortex-m0
   3              		.fpu softvfp
   4              		.eabi_attribute 20, 1
   5              		.eabi_attribute 21, 1
   6              		.eabi_attribute 23, 3
   7              		.eabi_attribute 24, 1
   8              		.eabi_attribute 25, 1
   9              		.eabi_attribute 26, 1
  10              		.eabi_attribute 30, 6
  11              		.eabi_attribute 34, 0
  12              		.eabi_attribute 18, 4
  13              		.thumb
  14              		.syntax unified
  15              		.file	"os_task.c"
  16              		.text
  17              	.Ltext0:
  18              		.cfi_sections	.debug_frame
  19              		.section	.text.OSTaskChangePrio,"ax",%progbits
  20              		.align	2
  21              		.global	OSTaskChangePrio
  22              		.code	16
  23              		.thumb_func
  24              		.type	OSTaskChangePrio, %function
  25              	OSTaskChangePrio:
  26              	.LFB1:
  27              		.file 1 "..\\..\\..\\..\\..\\..\\Software\\uCOS-III\\Source\\os_task.c"
   1:..\..\..\..\..\..\Software\uCOS-III\Source/os_task.c **** /*
   2:..\..\..\..\..\..\Software\uCOS-III\Source/os_task.c **** ***************************************************************************************************
   3:..\..\..\..\..\..\Software\uCOS-III\Source/os_task.c **** *                                                      uC/OS-III
   4:..\..\..\..\..\..\Software\uCOS-III\Source/os_task.c **** *                                                 The Real-Time Kernel
   5:..\..\..\..\..\..\Software\uCOS-III\Source/os_task.c **** *
   6:..\..\..\..\..\..\Software\uCOS-III\Source/os_task.c **** *                                  (c) Copyright 2009-2012; Micrium, Inc.; Weston, FL
   7:..\..\..\..\..\..\Software\uCOS-III\Source/os_task.c **** *                           All rights reserved.  Protected by international copyright laws.
   8:..\..\..\..\..\..\Software\uCOS-III\Source/os_task.c **** *
   9:..\..\..\..\..\..\Software\uCOS-III\Source/os_task.c **** *                                                   TASK MANAGEMENT
  10:..\..\..\..\..\..\Software\uCOS-III\Source/os_task.c **** *
  11:..\..\..\..\..\..\Software\uCOS-III\Source/os_task.c **** * File    : OS_TASK.C
  12:..\..\..\..\..\..\Software\uCOS-III\Source/os_task.c **** * By      : JJL
  13:..\..\..\..\..\..\Software\uCOS-III\Source/os_task.c **** * Version : V3.03.01
  14:..\..\..\..\..\..\Software\uCOS-III\Source/os_task.c **** *
  15:..\..\..\..\..\..\Software\uCOS-III\Source/os_task.c **** * LICENSING TERMS:
  16:..\..\..\..\..\..\Software\uCOS-III\Source/os_task.c **** * ---------------
  17:..\..\..\..\..\..\Software\uCOS-III\Source/os_task.c **** *           uC/OS-III is provided in source form for FREE short-term evaluation, for educational us
  18:..\..\..\..\..\..\Software\uCOS-III\Source/os_task.c **** *           for peaceful research.  If you plan or intend to use uC/OS-III in a commercial applicat
  19:..\..\..\..\..\..\Software\uCOS-III\Source/os_task.c **** *           product then, you need to contact Micrium to properly license uC/OS-III for its use in 
  20:..\..\..\..\..\..\Software\uCOS-III\Source/os_task.c **** *           application/product.   We provide ALL the source code for your convenience and to help 
  21:..\..\..\..\..\..\Software\uCOS-III\Source/os_task.c **** *           experience uC/OS-III.  The fact that the source is provided does NOT mean that you can 
  22:..\..\..\..\..\..\Software\uCOS-III\Source/os_task.c **** *           it commercially without paying a licensing fee.
  23:..\..\..\..\..\..\Software\uCOS-III\Source/os_task.c **** *
  24:..\..\..\..\..\..\Software\uCOS-III\Source/os_task.c **** *           Knowledge of the source code may NOT be used to develop a similar product.
  25:..\..\..\..\..\..\Software\uCOS-III\Source/os_task.c **** *
  26:..\..\..\..\..\..\Software\uCOS-III\Source/os_task.c **** *           Please help us continue to provide the embedded community with the finest software avai
  27:..\..\..\..\..\..\Software\uCOS-III\Source/os_task.c **** *           Your honesty is greatly appreciated.
  28:..\..\..\..\..\..\Software\uCOS-III\Source/os_task.c **** *
  29:..\..\..\..\..\..\Software\uCOS-III\Source/os_task.c **** *           You can contact us at www.micrium.com, or by phone at +1 (954) 217-2036.
  30:..\..\..\..\..\..\Software\uCOS-III\Source/os_task.c **** ***************************************************************************************************
ARM GAS  C:\Users\EDULU~1.DES\AppData\Local\Temp\ccyhp2HA.s 			page 2


  31:..\..\..\..\..\..\Software\uCOS-III\Source/os_task.c **** */
  32:..\..\..\..\..\..\Software\uCOS-III\Source/os_task.c **** 
  33:..\..\..\..\..\..\Software\uCOS-III\Source/os_task.c **** #define  MICRIUM_SOURCE
  34:..\..\..\..\..\..\Software\uCOS-III\Source/os_task.c **** #include <os.h>
  35:..\..\..\..\..\..\Software\uCOS-III\Source/os_task.c **** 
  36:..\..\..\..\..\..\Software\uCOS-III\Source/os_task.c **** #ifdef VSC_INCLUDE_SOURCE_FILE_NAMES
  37:..\..\..\..\..\..\Software\uCOS-III\Source/os_task.c **** const  CPU_CHAR  *os_task__c = "$Id: $";
  38:..\..\..\..\..\..\Software\uCOS-III\Source/os_task.c **** #endif
  39:..\..\..\..\..\..\Software\uCOS-III\Source/os_task.c **** 
  40:..\..\..\..\..\..\Software\uCOS-III\Source/os_task.c **** /*
  41:..\..\..\..\..\..\Software\uCOS-III\Source/os_task.c **** ***************************************************************************************************
  42:..\..\..\..\..\..\Software\uCOS-III\Source/os_task.c **** *                                                CHANGE PRIORITY OF A TASK
  43:..\..\..\..\..\..\Software\uCOS-III\Source/os_task.c **** *
  44:..\..\..\..\..\..\Software\uCOS-III\Source/os_task.c **** * Description: This function allows you to change the priority of a task dynamically.  Note that th
  45:..\..\..\..\..\..\Software\uCOS-III\Source/os_task.c **** *              priority MUST be available.
  46:..\..\..\..\..\..\Software\uCOS-III\Source/os_task.c **** *
  47:..\..\..\..\..\..\Software\uCOS-III\Source/os_task.c **** * Arguments  : p_tcb      is the TCB of the tack to change the priority for
  48:..\..\..\..\..\..\Software\uCOS-III\Source/os_task.c **** *
  49:..\..\..\..\..\..\Software\uCOS-III\Source/os_task.c **** *              prio_new   is the new priority
  50:..\..\..\..\..\..\Software\uCOS-III\Source/os_task.c **** *
  51:..\..\..\..\..\..\Software\uCOS-III\Source/os_task.c **** *              p_err      is a pointer to an error code returned by this function:
  52:..\..\..\..\..\..\Software\uCOS-III\Source/os_task.c **** *
  53:..\..\..\..\..\..\Software\uCOS-III\Source/os_task.c **** *                             OS_ERR_NONE                 is the call was successful
  54:..\..\..\..\..\..\Software\uCOS-III\Source/os_task.c **** *                             OS_ERR_PRIO_INVALID         if the priority you specify is higher tha
  55:..\..\..\..\..\..\Software\uCOS-III\Source/os_task.c **** *                                                         (i.e. >= (OS_CFG_PRIO_MAX-1))
  56:..\..\..\..\..\..\Software\uCOS-III\Source/os_task.c **** *                             OS_ERR_STATE_INVALID        if the task is in an invalid state
  57:..\..\..\..\..\..\Software\uCOS-III\Source/os_task.c **** *                             OS_ERR_TASK_CHANGE_PRIO_ISR if you tried to change the task's priorit
  58:..\..\..\..\..\..\Software\uCOS-III\Source/os_task.c **** ***************************************************************************************************
  59:..\..\..\..\..\..\Software\uCOS-III\Source/os_task.c **** */
  60:..\..\..\..\..\..\Software\uCOS-III\Source/os_task.c **** 
  61:..\..\..\..\..\..\Software\uCOS-III\Source/os_task.c **** #if OS_CFG_TASK_CHANGE_PRIO_EN > 0u
  62:..\..\..\..\..\..\Software\uCOS-III\Source/os_task.c **** void  OSTaskChangePrio (OS_TCB   *p_tcb,
  63:..\..\..\..\..\..\Software\uCOS-III\Source/os_task.c ****                         OS_PRIO   prio_new,
  64:..\..\..\..\..\..\Software\uCOS-III\Source/os_task.c ****                         OS_ERR   *p_err)
  65:..\..\..\..\..\..\Software\uCOS-III\Source/os_task.c **** {
  28              		.loc 1 65 0
  29              		.cfi_startproc
  30              		@ args = 0, pretend = 0, frame = 24
  31              		@ frame_needed = 1, uses_anonymous_args = 0
  32 0000 80B5     		push	{r7, lr}
  33              		.cfi_def_cfa_offset 8
  34              		.cfi_offset 7, -8
  35              		.cfi_offset 14, -4
  36 0002 86B0     		sub	sp, sp, #24
  37              		.cfi_def_cfa_offset 32
  38 0004 00AF     		add	r7, sp, #0
  39              		.cfi_def_cfa_register 7
  40 0006 F860     		str	r0, [r7, #12]
  41 0008 7A60     		str	r2, [r7, #4]
  42 000a 0B23     		movs	r3, #11
  43 000c FB18     		adds	r3, r7, r3
  44 000e 0A1C     		adds	r2, r1, #0
  45 0010 1A70     		strb	r2, [r3]
  66:..\..\..\..\..\..\Software\uCOS-III\Source/os_task.c ****     CPU_BOOLEAN   self;
  67:..\..\..\..\..\..\Software\uCOS-III\Source/os_task.c ****     CPU_SR_ALLOC();
  46              		.loc 1 67 0
  47 0012 0023     		movs	r3, #0
ARM GAS  C:\Users\EDULU~1.DES\AppData\Local\Temp\ccyhp2HA.s 			page 3


  48 0014 3B61     		str	r3, [r7, #16]
  68:..\..\..\..\..\..\Software\uCOS-III\Source/os_task.c **** 
  69:..\..\..\..\..\..\Software\uCOS-III\Source/os_task.c **** 
  70:..\..\..\..\..\..\Software\uCOS-III\Source/os_task.c **** 
  71:..\..\..\..\..\..\Software\uCOS-III\Source/os_task.c **** #ifdef OS_SAFETY_CRITICAL
  72:..\..\..\..\..\..\Software\uCOS-III\Source/os_task.c ****     if (p_err == (OS_ERR *)0) {
  73:..\..\..\..\..\..\Software\uCOS-III\Source/os_task.c ****         OS_SAFETY_CRITICAL_EXCEPTION();
  74:..\..\..\..\..\..\Software\uCOS-III\Source/os_task.c ****         return;
  75:..\..\..\..\..\..\Software\uCOS-III\Source/os_task.c ****     }
  76:..\..\..\..\..\..\Software\uCOS-III\Source/os_task.c **** #endif
  77:..\..\..\..\..\..\Software\uCOS-III\Source/os_task.c **** 
  78:..\..\..\..\..\..\Software\uCOS-III\Source/os_task.c **** #if OS_CFG_CALLED_FROM_ISR_CHK_EN > 0u
  79:..\..\..\..\..\..\Software\uCOS-III\Source/os_task.c ****     if (OSIntNestingCtr > (OS_NESTING_CTR)0) {              /* ---------- CANNOT CREATE A TASK FROM
  49              		.loc 1 79 0
  50 0016 4B4B     		ldr	r3, .L21
  51 0018 1B78     		ldrb	r3, [r3]
  52 001a 002B     		cmp	r3, #0
  53 001c 03D0     		beq	.L2
  80:..\..\..\..\..\..\Software\uCOS-III\Source/os_task.c ****        *p_err = OS_ERR_TASK_CHANGE_PRIO_ISR;
  54              		.loc 1 80 0
  55 001e 7B68     		ldr	r3, [r7, #4]
  56 0020 494A     		ldr	r2, .L21+4
  57 0022 1A80     		strh	r2, [r3]
  81:..\..\..\..\..\..\Software\uCOS-III\Source/os_task.c ****         return;
  58              		.loc 1 81 0
  59 0024 8AE0     		b	.L1
  60              	.L2:
  82:..\..\..\..\..\..\Software\uCOS-III\Source/os_task.c ****     }
  83:..\..\..\..\..\..\Software\uCOS-III\Source/os_task.c **** #endif
  84:..\..\..\..\..\..\Software\uCOS-III\Source/os_task.c **** 
  85:..\..\..\..\..\..\Software\uCOS-III\Source/os_task.c **** #if OS_CFG_ISR_POST_DEFERRED_EN > 0u
  86:..\..\..\..\..\..\Software\uCOS-III\Source/os_task.c ****     if (prio_new == 0) {                                    /* Cannot set to IntQueue Task priority
  87:..\..\..\..\..\..\Software\uCOS-III\Source/os_task.c ****        *p_err = OS_ERR_PRIO_INVALID;
  88:..\..\..\..\..\..\Software\uCOS-III\Source/os_task.c ****         return;
  89:..\..\..\..\..\..\Software\uCOS-III\Source/os_task.c ****     }
  90:..\..\..\..\..\..\Software\uCOS-III\Source/os_task.c **** #endif
  91:..\..\..\..\..\..\Software\uCOS-III\Source/os_task.c **** 
  92:..\..\..\..\..\..\Software\uCOS-III\Source/os_task.c ****     if (prio_new >= (OS_CFG_PRIO_MAX - 1u)) {               /* Cannot set to Idle Task priority    
  61              		.loc 1 92 0
  62 0026 0B23     		movs	r3, #11
  63 0028 FB18     		adds	r3, r7, r3
  64 002a 1B78     		ldrb	r3, [r3]
  65 002c 1E2B     		cmp	r3, #30
  66 002e 03D9     		bls	.L4
  93:..\..\..\..\..\..\Software\uCOS-III\Source/os_task.c ****        *p_err = OS_ERR_PRIO_INVALID;
  67              		.loc 1 93 0
  68 0030 7B68     		ldr	r3, [r7, #4]
  69 0032 464A     		ldr	r2, .L21+8
  70 0034 1A80     		strh	r2, [r3]
  94:..\..\..\..\..\..\Software\uCOS-III\Source/os_task.c ****         return;
  71              		.loc 1 94 0
  72 0036 81E0     		b	.L1
  73              	.L4:
  95:..\..\..\..\..\..\Software\uCOS-III\Source/os_task.c ****     }
  96:..\..\..\..\..\..\Software\uCOS-III\Source/os_task.c **** 
  97:..\..\..\..\..\..\Software\uCOS-III\Source/os_task.c ****     if (p_tcb == (OS_TCB *)0) {                             /* See if want to change priority of 's
  74              		.loc 1 97 0
ARM GAS  C:\Users\EDULU~1.DES\AppData\Local\Temp\ccyhp2HA.s 			page 4


  75 0038 FB68     		ldr	r3, [r7, #12]
  76 003a 002B     		cmp	r3, #0
  77 003c 13D1     		bne	.L5
  98:..\..\..\..\..\..\Software\uCOS-III\Source/os_task.c ****         CPU_CRITICAL_ENTER();
  78              		.loc 1 98 0
  79 003e FFF7FEFF 		bl	CPU_SR_Save
  80 0042 0300     		movs	r3, r0
  81 0044 3B61     		str	r3, [r7, #16]
  82 0046 FFF7FEFF 		bl	CPU_IntDisMeasStart
  99:..\..\..\..\..\..\Software\uCOS-III\Source/os_task.c ****         p_tcb = OSTCBCurPtr;
  83              		.loc 1 99 0
  84 004a 414B     		ldr	r3, .L21+12
  85 004c 1B68     		ldr	r3, [r3]
  86 004e FB60     		str	r3, [r7, #12]
 100:..\..\..\..\..\..\Software\uCOS-III\Source/os_task.c ****         CPU_CRITICAL_EXIT();
  87              		.loc 1 100 0
  88 0050 FFF7FEFF 		bl	CPU_IntDisMeasStop
  89 0054 3B69     		ldr	r3, [r7, #16]
  90 0056 1800     		movs	r0, r3
  91 0058 FFF7FEFF 		bl	CPU_SR_Restore
 101:..\..\..\..\..\..\Software\uCOS-III\Source/os_task.c ****         self  = DEF_TRUE;
  92              		.loc 1 101 0
  93 005c 1723     		movs	r3, #23
  94 005e FB18     		adds	r3, r7, r3
  95 0060 0122     		movs	r2, #1
  96 0062 1A70     		strb	r2, [r3]
  97 0064 03E0     		b	.L6
  98              	.L5:
 102:..\..\..\..\..\..\Software\uCOS-III\Source/os_task.c ****     } else {
 103:..\..\..\..\..\..\Software\uCOS-III\Source/os_task.c ****         self  = DEF_FALSE;
  99              		.loc 1 103 0
 100 0066 1723     		movs	r3, #23
 101 0068 FB18     		adds	r3, r7, r3
 102 006a 0022     		movs	r2, #0
 103 006c 1A70     		strb	r2, [r3]
 104              	.L6:
 104:..\..\..\..\..\..\Software\uCOS-III\Source/os_task.c ****     }
 105:..\..\..\..\..\..\Software\uCOS-III\Source/os_task.c **** 
 106:..\..\..\..\..\..\Software\uCOS-III\Source/os_task.c ****     OS_CRITICAL_ENTER();
 105              		.loc 1 106 0
 106 006e FFF7FEFF 		bl	CPU_SR_Save
 107 0072 0300     		movs	r3, r0
 108 0074 3B61     		str	r3, [r7, #16]
 109 0076 FFF7FEFF 		bl	CPU_IntDisMeasStart
 107:..\..\..\..\..\..\Software\uCOS-III\Source/os_task.c ****     switch (p_tcb->TaskState) {
 110              		.loc 1 107 0
 111 007a FB68     		ldr	r3, [r7, #12]
 112 007c 3622     		movs	r2, #54
 113 007e 9B5C     		ldrb	r3, [r3, r2]
 114 0080 072B     		cmp	r3, #7
 115 0082 46D8     		bhi	.L7
 116 0084 9A00     		lsls	r2, r3, #2
 117 0086 334B     		ldr	r3, .L21+16
 118 0088 D318     		adds	r3, r2, r3
 119 008a 1B68     		ldr	r3, [r3]
 120 008c 9F46     		mov	pc, r3
 121              		.section	.rodata
ARM GAS  C:\Users\EDULU~1.DES\AppData\Local\Temp\ccyhp2HA.s 			page 5


 122              		.align	2
 123              	.L9:
 124 0000 8E000000 		.word	.L8
 125 0004 CC000000 		.word	.L10
 126 0008 DA000000 		.word	.L11
 127 000c DA000000 		.word	.L11
 128 0010 CC000000 		.word	.L10
 129 0014 CC000000 		.word	.L10
 130 0018 DA000000 		.word	.L11
 131 001c DA000000 		.word	.L11
 132              		.section	.text.OSTaskChangePrio
 133              	.L8:
 108:..\..\..\..\..\..\Software\uCOS-III\Source/os_task.c ****         case OS_TASK_STATE_RDY:
 109:..\..\..\..\..\..\Software\uCOS-III\Source/os_task.c ****              OS_RdyListRemove(p_tcb);                       /* Remove from current priority        
 134              		.loc 1 109 0
 135 008e FB68     		ldr	r3, [r7, #12]
 136 0090 1800     		movs	r0, r3
 137 0092 FFF7FEFF 		bl	OS_RdyListRemove
 110:..\..\..\..\..\..\Software\uCOS-III\Source/os_task.c ****              p_tcb->Prio = prio_new;                        /* Set new task priority               
 138              		.loc 1 110 0
 139 0096 FB68     		ldr	r3, [r7, #12]
 140 0098 0B22     		movs	r2, #11
 141 009a BA18     		adds	r2, r7, r2
 142 009c 3721     		movs	r1, #55
 143 009e 1278     		ldrb	r2, [r2]
 144 00a0 5A54     		strb	r2, [r3, r1]
 111:..\..\..\..\..\..\Software\uCOS-III\Source/os_task.c ****              OS_PrioInsert(p_tcb->Prio);
 145              		.loc 1 111 0
 146 00a2 FB68     		ldr	r3, [r7, #12]
 147 00a4 3722     		movs	r2, #55
 148 00a6 9B5C     		ldrb	r3, [r3, r2]
 149 00a8 1800     		movs	r0, r3
 150 00aa FFF7FEFF 		bl	OS_PrioInsert
 112:..\..\..\..\..\..\Software\uCOS-III\Source/os_task.c ****              if (self == DEF_TRUE) {
 151              		.loc 1 112 0
 152 00ae 1723     		movs	r3, #23
 153 00b0 FB18     		adds	r3, r7, r3
 154 00b2 1B78     		ldrb	r3, [r3]
 155 00b4 012B     		cmp	r3, #1
 156 00b6 04D1     		bne	.L12
 113:..\..\..\..\..\..\Software\uCOS-III\Source/os_task.c ****                  OS_RdyListInsertHead(p_tcb);
 157              		.loc 1 113 0
 158 00b8 FB68     		ldr	r3, [r7, #12]
 159 00ba 1800     		movs	r0, r3
 160 00bc FFF7FEFF 		bl	OS_RdyListInsertHead
 114:..\..\..\..\..\..\Software\uCOS-III\Source/os_task.c ****              } else {
 115:..\..\..\..\..\..\Software\uCOS-III\Source/os_task.c ****                  OS_RdyListInsertTail(p_tcb);
 116:..\..\..\..\..\..\Software\uCOS-III\Source/os_task.c ****              }
 117:..\..\..\..\..\..\Software\uCOS-III\Source/os_task.c ****              break;
 161              		.loc 1 117 0
 162 00c0 31E0     		b	.L14
 163              	.L12:
 115:..\..\..\..\..\..\Software\uCOS-III\Source/os_task.c ****              }
 164              		.loc 1 115 0
 165 00c2 FB68     		ldr	r3, [r7, #12]
 166 00c4 1800     		movs	r0, r3
 167 00c6 FFF7FEFF 		bl	OS_RdyListInsertTail
ARM GAS  C:\Users\EDULU~1.DES\AppData\Local\Temp\ccyhp2HA.s 			page 6


 168              		.loc 1 117 0
 169 00ca 2CE0     		b	.L14
 170              	.L10:
 118:..\..\..\..\..\..\Software\uCOS-III\Source/os_task.c **** 
 119:..\..\..\..\..\..\Software\uCOS-III\Source/os_task.c ****         case OS_TASK_STATE_DLY:                             /* Nothing to do except change the prio
 120:..\..\..\..\..\..\Software\uCOS-III\Source/os_task.c ****         case OS_TASK_STATE_SUSPENDED:
 121:..\..\..\..\..\..\Software\uCOS-III\Source/os_task.c ****         case OS_TASK_STATE_DLY_SUSPENDED:
 122:..\..\..\..\..\..\Software\uCOS-III\Source/os_task.c ****              p_tcb->Prio = prio_new;                        /* Set new task priority               
 171              		.loc 1 122 0
 172 00cc FB68     		ldr	r3, [r7, #12]
 173 00ce 0B22     		movs	r2, #11
 174 00d0 BA18     		adds	r2, r7, r2
 175 00d2 3721     		movs	r1, #55
 176 00d4 1278     		ldrb	r2, [r2]
 177 00d6 5A54     		strb	r2, [r3, r1]
 123:..\..\..\..\..\..\Software\uCOS-III\Source/os_task.c ****              break;
 178              		.loc 1 123 0
 179 00d8 25E0     		b	.L14
 180              	.L11:
 124:..\..\..\..\..\..\Software\uCOS-III\Source/os_task.c **** 
 125:..\..\..\..\..\..\Software\uCOS-III\Source/os_task.c ****         case OS_TASK_STATE_PEND:
 126:..\..\..\..\..\..\Software\uCOS-III\Source/os_task.c ****         case OS_TASK_STATE_PEND_TIMEOUT:
 127:..\..\..\..\..\..\Software\uCOS-III\Source/os_task.c ****         case OS_TASK_STATE_PEND_SUSPENDED:
 128:..\..\..\..\..\..\Software\uCOS-III\Source/os_task.c ****         case OS_TASK_STATE_PEND_TIMEOUT_SUSPENDED:
 129:..\..\..\..\..\..\Software\uCOS-III\Source/os_task.c ****              switch (p_tcb->PendOn) {                       /* What to do depends on what we are pe
 181              		.loc 1 129 0
 182 00da FB68     		ldr	r3, [r7, #12]
 183 00dc 3422     		movs	r2, #52
 184 00de 9B5C     		ldrb	r3, [r3, r2]
 185 00e0 072B     		cmp	r3, #7
 186 00e2 14D8     		bhi	.L20
 187 00e4 9A00     		lsls	r2, r3, #2
 188 00e6 1C4B     		ldr	r3, .L21+20
 189 00e8 D318     		adds	r3, r2, r3
 190 00ea 1B68     		ldr	r3, [r3]
 191 00ec 9F46     		mov	pc, r3
 192              		.section	.rodata
 193              		.align	2
 194              	.L17:
 195 0020 0E010000 		.word	.L20
 196 0024 EE000000 		.word	.L16
 197 0028 EE000000 		.word	.L16
 198 002c FC000000 		.word	.L18
 199 0030 FC000000 		.word	.L18
 200 0034 FC000000 		.word	.L18
 201 0038 FC000000 		.word	.L18
 202 003c EE000000 		.word	.L16
 203              		.section	.text.OSTaskChangePrio
 204              	.L16:
 130:..\..\..\..\..\..\Software\uCOS-III\Source/os_task.c ****                  case OS_TASK_PEND_ON_TASK_Q:               /* Nothing to do except change the prio
 131:..\..\..\..\..\..\Software\uCOS-III\Source/os_task.c ****                  case OS_TASK_PEND_ON_TASK_SEM:
 132:..\..\..\..\..\..\Software\uCOS-III\Source/os_task.c ****                  case OS_TASK_PEND_ON_FLAG:
 133:..\..\..\..\..\..\Software\uCOS-III\Source/os_task.c ****                       p_tcb->Prio = prio_new;               /* Set new task priority               
 205              		.loc 1 133 0
 206 00ee FB68     		ldr	r3, [r7, #12]
 207 00f0 0B22     		movs	r2, #11
 208 00f2 BA18     		adds	r2, r7, r2
ARM GAS  C:\Users\EDULU~1.DES\AppData\Local\Temp\ccyhp2HA.s 			page 7


 209 00f4 3721     		movs	r1, #55
 210 00f6 1278     		ldrb	r2, [r2]
 211 00f8 5A54     		strb	r2, [r3, r1]
 134:..\..\..\..\..\..\Software\uCOS-III\Source/os_task.c ****                       break;
 212              		.loc 1 134 0
 213 00fa 09E0     		b	.L19
 214              	.L18:
 135:..\..\..\..\..\..\Software\uCOS-III\Source/os_task.c **** 
 136:..\..\..\..\..\..\Software\uCOS-III\Source/os_task.c ****                  case OS_TASK_PEND_ON_MUTEX:
 137:..\..\..\..\..\..\Software\uCOS-III\Source/os_task.c ****                  case OS_TASK_PEND_ON_MULTI:
 138:..\..\..\..\..\..\Software\uCOS-III\Source/os_task.c ****                  case OS_TASK_PEND_ON_Q:
 139:..\..\..\..\..\..\Software\uCOS-III\Source/os_task.c ****                  case OS_TASK_PEND_ON_SEM:
 140:..\..\..\..\..\..\Software\uCOS-III\Source/os_task.c ****                       OS_PendListChangePrio(p_tcb,
 215              		.loc 1 140 0
 216 00fc 0B23     		movs	r3, #11
 217 00fe FB18     		adds	r3, r7, r3
 218 0100 1A78     		ldrb	r2, [r3]
 219 0102 FB68     		ldr	r3, [r7, #12]
 220 0104 1100     		movs	r1, r2
 221 0106 1800     		movs	r0, r3
 222 0108 FFF7FEFF 		bl	OS_PendListChangePrio
 141:..\..\..\..\..\..\Software\uCOS-III\Source/os_task.c ****                                             prio_new);
 142:..\..\..\..\..\..\Software\uCOS-III\Source/os_task.c ****                       break;
 223              		.loc 1 142 0
 224 010c 00E0     		b	.L19
 225              	.L20:
 143:..\..\..\..\..\..\Software\uCOS-III\Source/os_task.c **** 
 144:..\..\..\..\..\..\Software\uCOS-III\Source/os_task.c ****                  default:
 145:..\..\..\..\..\..\Software\uCOS-III\Source/os_task.c ****                       break;
 226              		.loc 1 145 0
 227 010e C046     		nop
 228              	.L19:
 146:..\..\..\..\..\..\Software\uCOS-III\Source/os_task.c ****             }
 147:..\..\..\..\..\..\Software\uCOS-III\Source/os_task.c ****              break;
 229              		.loc 1 147 0 discriminator 1
 230 0110 09E0     		b	.L14
 231              	.L7:
 148:..\..\..\..\..\..\Software\uCOS-III\Source/os_task.c **** 
 149:..\..\..\..\..\..\Software\uCOS-III\Source/os_task.c ****         default:
 150:..\..\..\..\..\..\Software\uCOS-III\Source/os_task.c ****              OS_CRITICAL_EXIT();
 232              		.loc 1 150 0
 233 0112 FFF7FEFF 		bl	CPU_IntDisMeasStop
 234 0116 3B69     		ldr	r3, [r7, #16]
 235 0118 1800     		movs	r0, r3
 236 011a FFF7FEFF 		bl	CPU_SR_Restore
 151:..\..\..\..\..\..\Software\uCOS-III\Source/os_task.c ****             *p_err = OS_ERR_STATE_INVALID;
 237              		.loc 1 151 0
 238 011e 7B68     		ldr	r3, [r7, #4]
 239 0120 0E4A     		ldr	r2, .L21+24
 240 0122 1A80     		strh	r2, [r3]
 152:..\..\..\..\..\..\Software\uCOS-III\Source/os_task.c ****              return;
 241              		.loc 1 152 0
 242 0124 0AE0     		b	.L1
 243              	.L14:
 153:..\..\..\..\..\..\Software\uCOS-III\Source/os_task.c ****     }
 154:..\..\..\..\..\..\Software\uCOS-III\Source/os_task.c **** 
 155:..\..\..\..\..\..\Software\uCOS-III\Source/os_task.c ****     OS_CRITICAL_EXIT_NO_SCHED();
ARM GAS  C:\Users\EDULU~1.DES\AppData\Local\Temp\ccyhp2HA.s 			page 8


 244              		.loc 1 155 0
 245 0126 FFF7FEFF 		bl	CPU_IntDisMeasStop
 246 012a 3B69     		ldr	r3, [r7, #16]
 247 012c 1800     		movs	r0, r3
 248 012e FFF7FEFF 		bl	CPU_SR_Restore
 156:..\..\..\..\..\..\Software\uCOS-III\Source/os_task.c **** 
 157:..\..\..\..\..\..\Software\uCOS-III\Source/os_task.c ****     OSSched();                                              /* Run highest priority task ready     
 249              		.loc 1 157 0
 250 0132 FFF7FEFF 		bl	OSSched
 158:..\..\..\..\..\..\Software\uCOS-III\Source/os_task.c **** 
 159:..\..\..\..\..\..\Software\uCOS-III\Source/os_task.c ****    *p_err = OS_ERR_NONE;
 251              		.loc 1 159 0
 252 0136 7B68     		ldr	r3, [r7, #4]
 253 0138 0022     		movs	r2, #0
 254 013a 1A80     		strh	r2, [r3]
 255              	.L1:
 160:..\..\..\..\..\..\Software\uCOS-III\Source/os_task.c **** }
 256              		.loc 1 160 0
 257 013c BD46     		mov	sp, r7
 258 013e 06B0     		add	sp, sp, #24
 259              		@ sp needed
 260 0140 80BD     		pop	{r7, pc}
 261              	.L22:
 262 0142 C046     		.align	2
 263              	.L21:
 264 0144 00000000 		.word	OSIntNestingCtr
 265 0148 49710000 		.word	29001
 266 014c 73620000 		.word	25203
 267 0150 00000000 		.word	OSTCBCurPtr
 268 0154 00000000 		.word	.L9
 269 0158 20000000 		.word	.L17
 270 015c 2D6E0000 		.word	28205
 271              		.cfi_endproc
 272              	.LFE1:
 273              		.size	OSTaskChangePrio, .-OSTaskChangePrio
 274              		.section	.text.OSTaskCreate,"ax",%progbits
 275              		.align	2
 276              		.global	OSTaskCreate
 277              		.code	16
 278              		.thumb_func
 279              		.type	OSTaskCreate, %function
 280              	OSTaskCreate:
 281              	.LFB2:
 161:..\..\..\..\..\..\Software\uCOS-III\Source/os_task.c **** #endif
 162:..\..\..\..\..\..\Software\uCOS-III\Source/os_task.c **** 
 163:..\..\..\..\..\..\Software\uCOS-III\Source/os_task.c **** /*$PAGE*/
 164:..\..\..\..\..\..\Software\uCOS-III\Source/os_task.c **** /*
 165:..\..\..\..\..\..\Software\uCOS-III\Source/os_task.c **** ***************************************************************************************************
 166:..\..\..\..\..\..\Software\uCOS-III\Source/os_task.c **** *                                                    CREATE A TASK
 167:..\..\..\..\..\..\Software\uCOS-III\Source/os_task.c **** *
 168:..\..\..\..\..\..\Software\uCOS-III\Source/os_task.c **** * Description: This function is used to have uC/OS-III manage the execution of a task.  Tasks can e
 169:..\..\..\..\..\..\Software\uCOS-III\Source/os_task.c **** *              prior to the start of multitasking or by a running task.  A task cannot be created b
 170:..\..\..\..\..\..\Software\uCOS-III\Source/os_task.c **** *
 171:..\..\..\..\..\..\Software\uCOS-III\Source/os_task.c **** * Arguments  : p_tcb          is a pointer to the task's TCB
 172:..\..\..\..\..\..\Software\uCOS-III\Source/os_task.c **** *
 173:..\..\..\..\..\..\Software\uCOS-III\Source/os_task.c **** *              p_name         is a pointer to an ASCII string to provide a name to the task.
 174:..\..\..\..\..\..\Software\uCOS-III\Source/os_task.c **** *
ARM GAS  C:\Users\EDULU~1.DES\AppData\Local\Temp\ccyhp2HA.s 			page 9


 175:..\..\..\..\..\..\Software\uCOS-III\Source/os_task.c **** *              p_task         is a pointer to the task's code
 176:..\..\..\..\..\..\Software\uCOS-III\Source/os_task.c **** *
 177:..\..\..\..\..\..\Software\uCOS-III\Source/os_task.c **** *              p_arg          is a pointer to an optional data area which can be used to pass param
 178:..\..\..\..\..\..\Software\uCOS-III\Source/os_task.c **** *                             the task when the task first executes.  Where the task is concerned i
 179:..\..\..\..\..\..\Software\uCOS-III\Source/os_task.c **** *                             it was invoked and passed the argument 'p_arg' as follows:
 180:..\..\..\..\..\..\Software\uCOS-III\Source/os_task.c **** *
 181:..\..\..\..\..\..\Software\uCOS-III\Source/os_task.c **** *                                 void Task (void *p_arg)
 182:..\..\..\..\..\..\Software\uCOS-III\Source/os_task.c **** *                                 {
 183:..\..\..\..\..\..\Software\uCOS-III\Source/os_task.c **** *                                     for (;;) {
 184:..\..\..\..\..\..\Software\uCOS-III\Source/os_task.c **** *                                         Task code;
 185:..\..\..\..\..\..\Software\uCOS-III\Source/os_task.c **** *                                     }
 186:..\..\..\..\..\..\Software\uCOS-III\Source/os_task.c **** *                                 }
 187:..\..\..\..\..\..\Software\uCOS-III\Source/os_task.c **** *
 188:..\..\..\..\..\..\Software\uCOS-III\Source/os_task.c **** *              prio           is the task's priority.  A unique priority MUST be assigned to each t
 189:..\..\..\..\..\..\Software\uCOS-III\Source/os_task.c **** *                             lower the number, the higher the priority.
 190:..\..\..\..\..\..\Software\uCOS-III\Source/os_task.c **** *
 191:..\..\..\..\..\..\Software\uCOS-III\Source/os_task.c **** *              p_stk_base     is a pointer to the base address of the stack (i.e. low address).
 192:..\..\..\..\..\..\Software\uCOS-III\Source/os_task.c **** *
 193:..\..\..\..\..\..\Software\uCOS-III\Source/os_task.c **** *              stk_limit      is the number of stack elements to set as 'watermark' limit for the s
 194:..\..\..\..\..\..\Software\uCOS-III\Source/os_task.c **** *                             represents the number of CPU_STK entries left before the stack is ful
 195:..\..\..\..\..\..\Software\uCOS-III\Source/os_task.c **** *                             specifying 10% of the 'stk_size' value indicates that the stack limit
 196:..\..\..\..\..\..\Software\uCOS-III\Source/os_task.c **** *                             when the stack reaches 90% full.
 197:..\..\..\..\..\..\Software\uCOS-III\Source/os_task.c **** *
 198:..\..\..\..\..\..\Software\uCOS-III\Source/os_task.c **** *              stk_size       is the size of the stack in number of elements.  If CPU_STK is set to
 199:..\..\..\..\..\..\Software\uCOS-III\Source/os_task.c **** *                             'stk_size' corresponds to the number of bytes available.  If CPU_STK 
 200:..\..\..\..\..\..\Software\uCOS-III\Source/os_task.c **** *                             CPU_INT16U, 'stk_size' contains the number of 16-bit entries availabl
 201:..\..\..\..\..\..\Software\uCOS-III\Source/os_task.c **** *                             CPU_STK is set to CPU_INT32U, 'stk_size' contains the number of 32-bi
 202:..\..\..\..\..\..\Software\uCOS-III\Source/os_task.c **** *                             available on the stack.
 203:..\..\..\..\..\..\Software\uCOS-III\Source/os_task.c **** *
 204:..\..\..\..\..\..\Software\uCOS-III\Source/os_task.c **** *              q_size         is the maximum number of messages that can be sent to the task
 205:..\..\..\..\..\..\Software\uCOS-III\Source/os_task.c **** *
 206:..\..\..\..\..\..\Software\uCOS-III\Source/os_task.c **** *              time_quanta    amount of time (in ticks) for time slice when round-robin between tas
 207:..\..\..\..\..\..\Software\uCOS-III\Source/os_task.c **** *                             the default.
 208:..\..\..\..\..\..\Software\uCOS-III\Source/os_task.c **** *
 209:..\..\..\..\..\..\Software\uCOS-III\Source/os_task.c **** *              p_ext          is a pointer to a user supplied memory location which is used as a TC
 210:..\..\..\..\..\..\Software\uCOS-III\Source/os_task.c **** *                             For example, this user memory can hold the contents of floating-point
 211:..\..\..\..\..\..\Software\uCOS-III\Source/os_task.c **** *                             during a context switch, the time each task takes to execute, the num
 212:..\..\..\..\..\..\Software\uCOS-III\Source/os_task.c **** *                             the task has been switched-in, etc.
 213:..\..\..\..\..\..\Software\uCOS-III\Source/os_task.c **** *
 214:..\..\..\..\..\..\Software\uCOS-III\Source/os_task.c **** *              opt            contains additional information (or options) about the behavior of th
 215:..\..\..\..\..\..\Software\uCOS-III\Source/os_task.c **** *                             See OS_OPT_TASK_xxx in OS.H.  Current choices are:
 216:..\..\..\..\..\..\Software\uCOS-III\Source/os_task.c **** *
 217:..\..\..\..\..\..\Software\uCOS-III\Source/os_task.c **** *                                 OS_OPT_TASK_NONE            No option selected
 218:..\..\..\..\..\..\Software\uCOS-III\Source/os_task.c **** *                                 OS_OPT_TASK_STK_CHK         Stack checking to be allowed for the 
 219:..\..\..\..\..\..\Software\uCOS-III\Source/os_task.c **** *                                 OS_OPT_TASK_STK_CLR         Clear the stack when the task is crea
 220:..\..\..\..\..\..\Software\uCOS-III\Source/os_task.c **** *                                 OS_OPT_TASK_SAVE_FP         If the CPU has floating-point registe
 221:..\..\..\..\..\..\Software\uCOS-III\Source/os_task.c **** *                                                             during a context switch.
 222:..\..\..\..\..\..\Software\uCOS-III\Source/os_task.c **** *                                 OS_OPT_TASK_NO_TLS          If the caller doesn't want or need TL
 223:..\..\..\..\..\..\Software\uCOS-III\Source/os_task.c **** *                                                             Storage) support for the task.  If yo
 224:..\..\..\..\..\..\Software\uCOS-III\Source/os_task.c **** *                                                             option, TLS will be supported by defa
 225:..\..\..\..\..\..\Software\uCOS-III\Source/os_task.c **** *
 226:..\..\..\..\..\..\Software\uCOS-III\Source/os_task.c **** *              p_err          is a pointer to an error code that will be set during this call.  The
 227:..\..\..\..\..\..\Software\uCOS-III\Source/os_task.c **** *                             to by 'p_err' can be:
 228:..\..\..\..\..\..\Software\uCOS-III\Source/os_task.c **** *
 229:..\..\..\..\..\..\Software\uCOS-III\Source/os_task.c **** *                                 OS_ERR_NONE                    if the function was successful.
 230:..\..\..\..\..\..\Software\uCOS-III\Source/os_task.c **** *                                 OS_ERR_ILLEGAL_CREATE_RUN_TIME if you are trying to create the ta
 231:..\..\..\..\..\..\Software\uCOS-III\Source/os_task.c **** *                                                                   OSSafetyCriticalStart().
ARM GAS  C:\Users\EDULU~1.DES\AppData\Local\Temp\ccyhp2HA.s 			page 10


 232:..\..\..\..\..\..\Software\uCOS-III\Source/os_task.c **** *                                 OS_ERR_NAME                    if 'p_name' is a NULL pointer
 233:..\..\..\..\..\..\Software\uCOS-III\Source/os_task.c **** *                                 OS_ERR_PRIO_INVALID            if the priority you specify is hig
 234:..\..\..\..\..\..\Software\uCOS-III\Source/os_task.c **** *                                                                   allowed (i.e. >= OS_CFG_PRIO_MA
 235:..\..\..\..\..\..\Software\uCOS-III\Source/os_task.c **** *                                                                if OS_CFG_ISR_POST_DEFERRED_EN is 
 236:..\..\..\..\..\..\Software\uCOS-III\Source/os_task.c **** *                                                                   to use priority 0 which is rese
 237:..\..\..\..\..\..\Software\uCOS-III\Source/os_task.c **** *                                 OS_ERR_STK_INVALID             if you specified a NULL pointer fo
 238:..\..\..\..\..\..\Software\uCOS-III\Source/os_task.c **** *                                 OS_ERR_STK_SIZE_INVALID        if you specified zero for the 'stk
 239:..\..\..\..\..\..\Software\uCOS-III\Source/os_task.c **** *                                 OS_ERR_STK_LIMIT_INVALID       if you specified a 'stk_limit' gre
 240:..\..\..\..\..\..\Software\uCOS-III\Source/os_task.c **** *                                                                   to 'stk_size'
 241:..\..\..\..\..\..\Software\uCOS-III\Source/os_task.c **** *                                 OS_ERR_TASK_CREATE_ISR         if you tried to create a task from
 242:..\..\..\..\..\..\Software\uCOS-III\Source/os_task.c **** *                                 OS_ERR_TASK_INVALID            if you specified a NULL pointer fo
 243:..\..\..\..\..\..\Software\uCOS-III\Source/os_task.c **** *                                 OS_ERR_TCB_INVALID             if you specified a NULL pointer fo
 244:..\..\..\..\..\..\Software\uCOS-III\Source/os_task.c **** *
 245:..\..\..\..\..\..\Software\uCOS-III\Source/os_task.c **** * Returns    : A pointer to the TCB of the task created.  This pointer must be used as an ID (i.e h
 246:..\..\..\..\..\..\Software\uCOS-III\Source/os_task.c **** ***************************************************************************************************
 247:..\..\..\..\..\..\Software\uCOS-III\Source/os_task.c **** */
 248:..\..\..\..\..\..\Software\uCOS-III\Source/os_task.c **** /*$PAGE*/
 249:..\..\..\..\..\..\Software\uCOS-III\Source/os_task.c **** void  OSTaskCreate (OS_TCB        *p_tcb,
 250:..\..\..\..\..\..\Software\uCOS-III\Source/os_task.c ****                     CPU_CHAR      *p_name,
 251:..\..\..\..\..\..\Software\uCOS-III\Source/os_task.c ****                     OS_TASK_PTR    p_task,
 252:..\..\..\..\..\..\Software\uCOS-III\Source/os_task.c ****                     void          *p_arg,
 253:..\..\..\..\..\..\Software\uCOS-III\Source/os_task.c ****                     OS_PRIO        prio,
 254:..\..\..\..\..\..\Software\uCOS-III\Source/os_task.c ****                     CPU_STK       *p_stk_base,
 255:..\..\..\..\..\..\Software\uCOS-III\Source/os_task.c ****                     CPU_STK_SIZE   stk_limit,
 256:..\..\..\..\..\..\Software\uCOS-III\Source/os_task.c ****                     CPU_STK_SIZE   stk_size,
 257:..\..\..\..\..\..\Software\uCOS-III\Source/os_task.c ****                     OS_MSG_QTY     q_size,
 258:..\..\..\..\..\..\Software\uCOS-III\Source/os_task.c ****                     OS_TICK        time_quanta,
 259:..\..\..\..\..\..\Software\uCOS-III\Source/os_task.c ****                     void          *p_ext,
 260:..\..\..\..\..\..\Software\uCOS-III\Source/os_task.c ****                     OS_OPT         opt,
 261:..\..\..\..\..\..\Software\uCOS-III\Source/os_task.c ****                     OS_ERR        *p_err)
 262:..\..\..\..\..\..\Software\uCOS-III\Source/os_task.c **** {
 282              		.loc 1 262 0
 283              		.cfi_startproc
 284              		@ args = 36, pretend = 0, frame = 40
 285              		@ frame_needed = 1, uses_anonymous_args = 0
 286 0000 90B5     		push	{r4, r7, lr}
 287              		.cfi_def_cfa_offset 12
 288              		.cfi_offset 4, -12
 289              		.cfi_offset 7, -8
 290              		.cfi_offset 14, -4
 291 0002 8DB0     		sub	sp, sp, #52
 292              		.cfi_def_cfa_offset 64
 293 0004 02AF     		add	r7, sp, #8
 294              		.cfi_def_cfa 7, 56
 295 0006 F860     		str	r0, [r7, #12]
 296 0008 B960     		str	r1, [r7, #8]
 297 000a 7A60     		str	r2, [r7, #4]
 298 000c 3B60     		str	r3, [r7]
 263:..\..\..\..\..\..\Software\uCOS-III\Source/os_task.c ****     CPU_STK_SIZE   i;
 264:..\..\..\..\..\..\Software\uCOS-III\Source/os_task.c **** #if OS_CFG_TASK_REG_TBL_SIZE > 0u
 265:..\..\..\..\..\..\Software\uCOS-III\Source/os_task.c ****     OS_REG_ID      reg_nbr;
 266:..\..\..\..\..\..\Software\uCOS-III\Source/os_task.c **** #endif
 267:..\..\..\..\..\..\Software\uCOS-III\Source/os_task.c **** #if defined(OS_CFG_TLS_TBL_SIZE) && (OS_CFG_TLS_TBL_SIZE > 0u)
 268:..\..\..\..\..\..\Software\uCOS-III\Source/os_task.c ****     OS_TLS_ID      id;
 269:..\..\..\..\..\..\Software\uCOS-III\Source/os_task.c **** #endif
 270:..\..\..\..\..\..\Software\uCOS-III\Source/os_task.c **** 
 271:..\..\..\..\..\..\Software\uCOS-III\Source/os_task.c ****     CPU_STK       *p_sp;
ARM GAS  C:\Users\EDULU~1.DES\AppData\Local\Temp\ccyhp2HA.s 			page 11


 272:..\..\..\..\..\..\Software\uCOS-III\Source/os_task.c ****     CPU_STK       *p_stk_limit;
 273:..\..\..\..\..\..\Software\uCOS-III\Source/os_task.c ****     CPU_SR_ALLOC();
 299              		.loc 1 273 0
 300 000e 0023     		movs	r3, #0
 301 0010 BB61     		str	r3, [r7, #24]
 274:..\..\..\..\..\..\Software\uCOS-III\Source/os_task.c **** 
 275:..\..\..\..\..\..\Software\uCOS-III\Source/os_task.c **** 
 276:..\..\..\..\..\..\Software\uCOS-III\Source/os_task.c **** 
 277:..\..\..\..\..\..\Software\uCOS-III\Source/os_task.c **** #ifdef OS_SAFETY_CRITICAL
 278:..\..\..\..\..\..\Software\uCOS-III\Source/os_task.c ****     if (p_err == (OS_ERR *)0) {
 279:..\..\..\..\..\..\Software\uCOS-III\Source/os_task.c ****         OS_SAFETY_CRITICAL_EXCEPTION();
 280:..\..\..\..\..\..\Software\uCOS-III\Source/os_task.c ****         return;
 281:..\..\..\..\..\..\Software\uCOS-III\Source/os_task.c ****     }
 282:..\..\..\..\..\..\Software\uCOS-III\Source/os_task.c **** #endif
 283:..\..\..\..\..\..\Software\uCOS-III\Source/os_task.c **** 
 284:..\..\..\..\..\..\Software\uCOS-III\Source/os_task.c **** #ifdef OS_SAFETY_CRITICAL_IEC61508
 285:..\..\..\..\..\..\Software\uCOS-III\Source/os_task.c ****     if (OSSafetyCriticalStartFlag == DEF_TRUE) {
 286:..\..\..\..\..\..\Software\uCOS-III\Source/os_task.c ****        *p_err = OS_ERR_ILLEGAL_CREATE_RUN_TIME;
 287:..\..\..\..\..\..\Software\uCOS-III\Source/os_task.c ****         return;
 288:..\..\..\..\..\..\Software\uCOS-III\Source/os_task.c ****     }
 289:..\..\..\..\..\..\Software\uCOS-III\Source/os_task.c **** #endif
 290:..\..\..\..\..\..\Software\uCOS-III\Source/os_task.c **** 
 291:..\..\..\..\..\..\Software\uCOS-III\Source/os_task.c **** #if OS_CFG_CALLED_FROM_ISR_CHK_EN > 0u
 292:..\..\..\..\..\..\Software\uCOS-III\Source/os_task.c ****     if (OSIntNestingCtr > (OS_NESTING_CTR)0) {              /* ---------- CANNOT CREATE A TASK FROM
 302              		.loc 1 292 0
 303 0012 794B     		ldr	r3, .L39
 304 0014 1B78     		ldrb	r3, [r3]
 305 0016 002B     		cmp	r3, #0
 306 0018 03D0     		beq	.L24
 293:..\..\..\..\..\..\Software\uCOS-III\Source/os_task.c ****        *p_err = OS_ERR_TASK_CREATE_ISR;
 307              		.loc 1 293 0
 308 001a BB6D     		ldr	r3, [r7, #88]
 309 001c 774A     		ldr	r2, .L39+4
 310 001e 1A80     		strh	r2, [r3]
 294:..\..\..\..\..\..\Software\uCOS-III\Source/os_task.c ****         return;
 311              		.loc 1 294 0
 312 0020 E6E0     		b	.L23
 313              	.L24:
 295:..\..\..\..\..\..\Software\uCOS-III\Source/os_task.c ****     }
 296:..\..\..\..\..\..\Software\uCOS-III\Source/os_task.c **** #endif
 297:..\..\..\..\..\..\Software\uCOS-III\Source/os_task.c **** 
 298:..\..\..\..\..\..\Software\uCOS-III\Source/os_task.c **** #if OS_CFG_ARG_CHK_EN > 0u                                  /* ---------------- VALIDATE ARGUMENTS 
 299:..\..\..\..\..\..\Software\uCOS-III\Source/os_task.c ****     if (p_tcb == (OS_TCB *)0) {                             /* User must supply a valid OS_TCB     
 314              		.loc 1 299 0
 315 0022 FB68     		ldr	r3, [r7, #12]
 316 0024 002B     		cmp	r3, #0
 317 0026 03D1     		bne	.L26
 300:..\..\..\..\..\..\Software\uCOS-III\Source/os_task.c ****        *p_err = OS_ERR_TCB_INVALID;
 318              		.loc 1 300 0
 319 0028 BB6D     		ldr	r3, [r7, #88]
 320 002a 754A     		ldr	r2, .L39+8
 321 002c 1A80     		strh	r2, [r3]
 301:..\..\..\..\..\..\Software\uCOS-III\Source/os_task.c ****         return;
 322              		.loc 1 301 0
 323 002e DFE0     		b	.L23
 324              	.L26:
 302:..\..\..\..\..\..\Software\uCOS-III\Source/os_task.c ****     }
ARM GAS  C:\Users\EDULU~1.DES\AppData\Local\Temp\ccyhp2HA.s 			page 12


 303:..\..\..\..\..\..\Software\uCOS-III\Source/os_task.c ****     if (p_task == (OS_TASK_PTR)0) {                         /* User must supply a valid task       
 325              		.loc 1 303 0
 326 0030 7B68     		ldr	r3, [r7, #4]
 327 0032 002B     		cmp	r3, #0
 328 0034 03D1     		bne	.L27
 304:..\..\..\..\..\..\Software\uCOS-III\Source/os_task.c ****        *p_err = OS_ERR_TASK_INVALID;
 329              		.loc 1 304 0
 330 0036 BB6D     		ldr	r3, [r7, #88]
 331 0038 724A     		ldr	r2, .L39+12
 332 003a 1A80     		strh	r2, [r3]
 305:..\..\..\..\..\..\Software\uCOS-III\Source/os_task.c ****         return;
 333              		.loc 1 305 0
 334 003c D8E0     		b	.L23
 335              	.L27:
 306:..\..\..\..\..\..\Software\uCOS-III\Source/os_task.c ****     }
 307:..\..\..\..\..\..\Software\uCOS-III\Source/os_task.c ****     if (p_stk_base == (CPU_STK *)0) {                       /* User must supply a valid stack base 
 336              		.loc 1 307 0
 337 003e FB6B     		ldr	r3, [r7, #60]
 338 0040 002B     		cmp	r3, #0
 339 0042 03D1     		bne	.L28
 308:..\..\..\..\..\..\Software\uCOS-III\Source/os_task.c ****        *p_err = OS_ERR_STK_INVALID;
 340              		.loc 1 308 0
 341 0044 BB6D     		ldr	r3, [r7, #88]
 342 0046 704A     		ldr	r2, .L39+16
 343 0048 1A80     		strh	r2, [r3]
 309:..\..\..\..\..\..\Software\uCOS-III\Source/os_task.c ****         return;
 344              		.loc 1 309 0
 345 004a D1E0     		b	.L23
 346              	.L28:
 310:..\..\..\..\..\..\Software\uCOS-III\Source/os_task.c ****     }
 311:..\..\..\..\..\..\Software\uCOS-III\Source/os_task.c ****     if (stk_size < OSCfg_StkSizeMin) {                      /* User must supply a valid minimum sta
 347              		.loc 1 311 0
 348 004c 6F4B     		ldr	r3, .L39+20
 349 004e 1B68     		ldr	r3, [r3]
 350 0050 7A6C     		ldr	r2, [r7, #68]
 351 0052 9A42     		cmp	r2, r3
 352 0054 03D2     		bcs	.L29
 312:..\..\..\..\..\..\Software\uCOS-III\Source/os_task.c ****        *p_err = OS_ERR_STK_SIZE_INVALID;
 353              		.loc 1 312 0
 354 0056 BB6D     		ldr	r3, [r7, #88]
 355 0058 6D4A     		ldr	r2, .L39+24
 356 005a 1A80     		strh	r2, [r3]
 313:..\..\..\..\..\..\Software\uCOS-III\Source/os_task.c ****         return;
 357              		.loc 1 313 0
 358 005c C8E0     		b	.L23
 359              	.L29:
 314:..\..\..\..\..\..\Software\uCOS-III\Source/os_task.c ****     }
 315:..\..\..\..\..\..\Software\uCOS-III\Source/os_task.c ****     if (stk_limit >= stk_size) {                            /* User must supply a valid stack limit
 360              		.loc 1 315 0
 361 005e 3A6C     		ldr	r2, [r7, #64]
 362 0060 7B6C     		ldr	r3, [r7, #68]
 363 0062 9A42     		cmp	r2, r3
 364 0064 03D3     		bcc	.L30
 316:..\..\..\..\..\..\Software\uCOS-III\Source/os_task.c ****        *p_err = OS_ERR_STK_LIMIT_INVALID;
 365              		.loc 1 316 0
 366 0066 BB6D     		ldr	r3, [r7, #88]
 367 0068 6A4A     		ldr	r2, .L39+28
ARM GAS  C:\Users\EDULU~1.DES\AppData\Local\Temp\ccyhp2HA.s 			page 13


 368 006a 1A80     		strh	r2, [r3]
 317:..\..\..\..\..\..\Software\uCOS-III\Source/os_task.c ****         return;
 369              		.loc 1 317 0
 370 006c C0E0     		b	.L23
 371              	.L30:
 318:..\..\..\..\..\..\Software\uCOS-III\Source/os_task.c ****     }
 319:..\..\..\..\..\..\Software\uCOS-III\Source/os_task.c ****     if (prio >= OS_CFG_PRIO_MAX) {                          /* Priority must be within 0 and OS_CFG
 372              		.loc 1 319 0
 373 006e 3823     		movs	r3, #56
 374 0070 FB18     		adds	r3, r7, r3
 375 0072 1B78     		ldrb	r3, [r3]
 376 0074 1F2B     		cmp	r3, #31
 377 0076 03D9     		bls	.L31
 320:..\..\..\..\..\..\Software\uCOS-III\Source/os_task.c ****        *p_err = OS_ERR_PRIO_INVALID;
 378              		.loc 1 320 0
 379 0078 BB6D     		ldr	r3, [r7, #88]
 380 007a 674A     		ldr	r2, .L39+32
 381 007c 1A80     		strh	r2, [r3]
 321:..\..\..\..\..\..\Software\uCOS-III\Source/os_task.c ****         return;
 382              		.loc 1 321 0
 383 007e B7E0     		b	.L23
 384              	.L31:
 322:..\..\..\..\..\..\Software\uCOS-III\Source/os_task.c ****     }
 323:..\..\..\..\..\..\Software\uCOS-III\Source/os_task.c **** #endif
 324:..\..\..\..\..\..\Software\uCOS-III\Source/os_task.c **** 
 325:..\..\..\..\..\..\Software\uCOS-III\Source/os_task.c **** #if OS_CFG_ISR_POST_DEFERRED_EN > 0u
 326:..\..\..\..\..\..\Software\uCOS-III\Source/os_task.c ****     if (prio == (OS_PRIO)0) {
 327:..\..\..\..\..\..\Software\uCOS-III\Source/os_task.c ****         if (p_tcb != &OSIntQTaskTCB) {
 328:..\..\..\..\..\..\Software\uCOS-III\Source/os_task.c ****            *p_err = OS_ERR_PRIO_INVALID;                    /* Not allowed to use priority 0       
 329:..\..\..\..\..\..\Software\uCOS-III\Source/os_task.c ****             return;
 330:..\..\..\..\..\..\Software\uCOS-III\Source/os_task.c ****         }
 331:..\..\..\..\..\..\Software\uCOS-III\Source/os_task.c ****     }
 332:..\..\..\..\..\..\Software\uCOS-III\Source/os_task.c **** #endif
 333:..\..\..\..\..\..\Software\uCOS-III\Source/os_task.c **** 
 334:..\..\..\..\..\..\Software\uCOS-III\Source/os_task.c ****     if (prio == (OS_CFG_PRIO_MAX - 1u)) {
 385              		.loc 1 334 0
 386 0080 3823     		movs	r3, #56
 387 0082 FB18     		adds	r3, r7, r3
 388 0084 1B78     		ldrb	r3, [r3]
 389 0086 1F2B     		cmp	r3, #31
 390 0088 07D1     		bne	.L32
 335:..\..\..\..\..\..\Software\uCOS-III\Source/os_task.c ****         if (p_tcb != &OSIdleTaskTCB) {
 391              		.loc 1 335 0
 392 008a FA68     		ldr	r2, [r7, #12]
 393 008c 634B     		ldr	r3, .L39+36
 394 008e 9A42     		cmp	r2, r3
 395 0090 03D0     		beq	.L32
 336:..\..\..\..\..\..\Software\uCOS-III\Source/os_task.c ****            *p_err = OS_ERR_PRIO_INVALID;                    /* Not allowed to use same priority as 
 396              		.loc 1 336 0
 397 0092 BB6D     		ldr	r3, [r7, #88]
 398 0094 604A     		ldr	r2, .L39+32
 399 0096 1A80     		strh	r2, [r3]
 337:..\..\..\..\..\..\Software\uCOS-III\Source/os_task.c ****             return;
 400              		.loc 1 337 0
 401 0098 AAE0     		b	.L23
 402              	.L32:
 338:..\..\..\..\..\..\Software\uCOS-III\Source/os_task.c ****         }
ARM GAS  C:\Users\EDULU~1.DES\AppData\Local\Temp\ccyhp2HA.s 			page 14


 339:..\..\..\..\..\..\Software\uCOS-III\Source/os_task.c ****     }
 340:..\..\..\..\..\..\Software\uCOS-III\Source/os_task.c **** 
 341:..\..\..\..\..\..\Software\uCOS-III\Source/os_task.c ****     OS_TaskInitTCB(p_tcb);                                  /* Initialize the TCB to default values
 403              		.loc 1 341 0
 404 009a FB68     		ldr	r3, [r7, #12]
 405 009c 1800     		movs	r0, r3
 406 009e FFF7FEFF 		bl	OS_TaskInitTCB
 342:..\..\..\..\..\..\Software\uCOS-III\Source/os_task.c **** 
 343:..\..\..\..\..\..\Software\uCOS-III\Source/os_task.c ****    *p_err = OS_ERR_NONE;
 407              		.loc 1 343 0
 408 00a2 BB6D     		ldr	r3, [r7, #88]
 409 00a4 0022     		movs	r2, #0
 410 00a6 1A80     		strh	r2, [r3]
 344:..\..\..\..\..\..\Software\uCOS-III\Source/os_task.c ****                                                             /* --------------- CLEAR THE TASK'S STA
 345:..\..\..\..\..\..\Software\uCOS-III\Source/os_task.c ****     if ((opt & OS_OPT_TASK_STK_CHK) != (OS_OPT)0) {         /* See if stack checking has been enabl
 411              		.loc 1 345 0
 412 00a8 5423     		movs	r3, #84
 413 00aa FB18     		adds	r3, r7, r3
 414 00ac 1B88     		ldrh	r3, [r3]
 415 00ae 0122     		movs	r2, #1
 416 00b0 1340     		ands	r3, r2
 417 00b2 17D0     		beq	.L33
 346:..\..\..\..\..\..\Software\uCOS-III\Source/os_task.c ****         if ((opt & OS_OPT_TASK_STK_CLR) != (OS_OPT)0) {     /* See if stack needs to be cleared    
 418              		.loc 1 346 0
 419 00b4 5423     		movs	r3, #84
 420 00b6 FB18     		adds	r3, r7, r3
 421 00b8 1B88     		ldrh	r3, [r3]
 422 00ba 0222     		movs	r2, #2
 423 00bc 1340     		ands	r3, r2
 424 00be 11D0     		beq	.L33
 347:..\..\..\..\..\..\Software\uCOS-III\Source/os_task.c ****             p_sp = p_stk_base;
 425              		.loc 1 347 0
 426 00c0 FB6B     		ldr	r3, [r7, #60]
 427 00c2 FB61     		str	r3, [r7, #28]
 348:..\..\..\..\..\..\Software\uCOS-III\Source/os_task.c ****             for (i = 0u; i < stk_size; i++) {               /* Stack grows from HIGH to LOW memory 
 428              		.loc 1 348 0
 429 00c4 0023     		movs	r3, #0
 430 00c6 7B62     		str	r3, [r7, #36]
 431 00c8 08E0     		b	.L34
 432              	.L35:
 349:..\..\..\..\..\..\Software\uCOS-III\Source/os_task.c ****                *p_sp = (CPU_STK)0;                          /* Clear from bottom of stack and up!  
 433              		.loc 1 349 0 discriminator 3
 434 00ca FB69     		ldr	r3, [r7, #28]
 435 00cc 0022     		movs	r2, #0
 436 00ce 1A60     		str	r2, [r3]
 350:..\..\..\..\..\..\Software\uCOS-III\Source/os_task.c ****                 p_sp++;
 437              		.loc 1 350 0 discriminator 3
 438 00d0 FB69     		ldr	r3, [r7, #28]
 439 00d2 0433     		adds	r3, r3, #4
 440 00d4 FB61     		str	r3, [r7, #28]
 348:..\..\..\..\..\..\Software\uCOS-III\Source/os_task.c ****             for (i = 0u; i < stk_size; i++) {               /* Stack grows from HIGH to LOW memory 
 441              		.loc 1 348 0 discriminator 3
 442 00d6 7B6A     		ldr	r3, [r7, #36]
 443 00d8 0133     		adds	r3, r3, #1
 444 00da 7B62     		str	r3, [r7, #36]
 445              	.L34:
 348:..\..\..\..\..\..\Software\uCOS-III\Source/os_task.c ****             for (i = 0u; i < stk_size; i++) {               /* Stack grows from HIGH to LOW memory 
ARM GAS  C:\Users\EDULU~1.DES\AppData\Local\Temp\ccyhp2HA.s 			page 15


 446              		.loc 1 348 0 is_stmt 0 discriminator 1
 447 00dc 7A6A     		ldr	r2, [r7, #36]
 448 00de 7B6C     		ldr	r3, [r7, #68]
 449 00e0 9A42     		cmp	r2, r3
 450 00e2 F2D3     		bcc	.L35
 451              	.L33:
 351:..\..\..\..\..\..\Software\uCOS-III\Source/os_task.c ****             }
 352:..\..\..\..\..\..\Software\uCOS-III\Source/os_task.c ****         }
 353:..\..\..\..\..\..\Software\uCOS-III\Source/os_task.c ****     }
 354:..\..\..\..\..\..\Software\uCOS-III\Source/os_task.c ****                                                             /* ------- INITIALIZE THE STACK FRAME O
 355:..\..\..\..\..\..\Software\uCOS-III\Source/os_task.c **** #if (CPU_CFG_STK_GROWTH == CPU_STK_GROWTH_HI_TO_LO)
 356:..\..\..\..\..\..\Software\uCOS-III\Source/os_task.c ****     p_stk_limit = p_stk_base + stk_limit;
 452              		.loc 1 356 0 is_stmt 1
 453 00e4 3B6C     		ldr	r3, [r7, #64]
 454 00e6 9B00     		lsls	r3, r3, #2
 455 00e8 FA6B     		ldr	r2, [r7, #60]
 456 00ea D318     		adds	r3, r2, r3
 457 00ec 7B61     		str	r3, [r7, #20]
 357:..\..\..\..\..\..\Software\uCOS-III\Source/os_task.c **** #else
 358:..\..\..\..\..\..\Software\uCOS-III\Source/os_task.c ****     p_stk_limit = p_stk_base + (stk_size - 1u) - stk_limit;
 359:..\..\..\..\..\..\Software\uCOS-III\Source/os_task.c **** #endif
 360:..\..\..\..\..\..\Software\uCOS-III\Source/os_task.c **** 
 361:..\..\..\..\..\..\Software\uCOS-III\Source/os_task.c ****     p_sp = OSTaskStkInit(p_task,
 458              		.loc 1 361 0
 459 00ee 7C69     		ldr	r4, [r7, #20]
 460 00f0 FA6B     		ldr	r2, [r7, #60]
 461 00f2 3968     		ldr	r1, [r7]
 462 00f4 7868     		ldr	r0, [r7, #4]
 463 00f6 5423     		movs	r3, #84
 464 00f8 FB18     		adds	r3, r7, r3
 465 00fa 1B88     		ldrh	r3, [r3]
 466 00fc 0193     		str	r3, [sp, #4]
 467 00fe 7B6C     		ldr	r3, [r7, #68]
 468 0100 0093     		str	r3, [sp]
 469 0102 2300     		movs	r3, r4
 470 0104 FFF7FEFF 		bl	OSTaskStkInit
 471 0108 0300     		movs	r3, r0
 472 010a FB61     		str	r3, [r7, #28]
 362:..\..\..\..\..\..\Software\uCOS-III\Source/os_task.c ****                          p_arg,
 363:..\..\..\..\..\..\Software\uCOS-III\Source/os_task.c ****                          p_stk_base,
 364:..\..\..\..\..\..\Software\uCOS-III\Source/os_task.c ****                          p_stk_limit,
 365:..\..\..\..\..\..\Software\uCOS-III\Source/os_task.c ****                          stk_size,
 366:..\..\..\..\..\..\Software\uCOS-III\Source/os_task.c ****                          opt);
 367:..\..\..\..\..\..\Software\uCOS-III\Source/os_task.c **** 
 368:..\..\..\..\..\..\Software\uCOS-III\Source/os_task.c ****                                                             /* -------------- INITIALIZE THE TCB FI
 369:..\..\..\..\..\..\Software\uCOS-III\Source/os_task.c ****     p_tcb->TaskEntryAddr = p_task;                          /* Save task entry point address       
 473              		.loc 1 369 0
 474 010c FB68     		ldr	r3, [r7, #12]
 475 010e 7A68     		ldr	r2, [r7, #4]
 476 0110 9A62     		str	r2, [r3, #40]
 370:..\..\..\..\..\..\Software\uCOS-III\Source/os_task.c ****     p_tcb->TaskEntryArg  = p_arg;                           /* Save task entry argument            
 477              		.loc 1 370 0
 478 0112 FB68     		ldr	r3, [r7, #12]
 479 0114 3A68     		ldr	r2, [r7]
 480 0116 DA62     		str	r2, [r3, #44]
 371:..\..\..\..\..\..\Software\uCOS-III\Source/os_task.c **** 
 372:..\..\..\..\..\..\Software\uCOS-III\Source/os_task.c ****     p_tcb->NamePtr       = p_name;                          /* Save task name                      
ARM GAS  C:\Users\EDULU~1.DES\AppData\Local\Temp\ccyhp2HA.s 			page 16


 481              		.loc 1 372 0
 482 0118 FB68     		ldr	r3, [r7, #12]
 483 011a BA68     		ldr	r2, [r7, #8]
 484 011c 1A62     		str	r2, [r3, #32]
 373:..\..\..\..\..\..\Software\uCOS-III\Source/os_task.c **** 
 374:..\..\..\..\..\..\Software\uCOS-III\Source/os_task.c ****     p_tcb->Prio          = prio;                            /* Save the task's priority            
 485              		.loc 1 374 0
 486 011e FB68     		ldr	r3, [r7, #12]
 487 0120 3822     		movs	r2, #56
 488 0122 BA18     		adds	r2, r7, r2
 489 0124 3721     		movs	r1, #55
 490 0126 1278     		ldrb	r2, [r2]
 491 0128 5A54     		strb	r2, [r3, r1]
 375:..\..\..\..\..\..\Software\uCOS-III\Source/os_task.c **** 
 376:..\..\..\..\..\..\Software\uCOS-III\Source/os_task.c ****     p_tcb->StkPtr        = p_sp;                            /* Save the new top-of-stack pointer   
 492              		.loc 1 376 0
 493 012a FB68     		ldr	r3, [r7, #12]
 494 012c FA69     		ldr	r2, [r7, #28]
 495 012e 1A60     		str	r2, [r3]
 377:..\..\..\..\..\..\Software\uCOS-III\Source/os_task.c ****     p_tcb->StkLimitPtr   = p_stk_limit;                     /* Save the stack limit pointer        
 496              		.loc 1 377 0
 497 0130 FB68     		ldr	r3, [r7, #12]
 498 0132 7A69     		ldr	r2, [r7, #20]
 499 0134 9A60     		str	r2, [r3, #8]
 378:..\..\..\..\..\..\Software\uCOS-III\Source/os_task.c **** 
 379:..\..\..\..\..\..\Software\uCOS-III\Source/os_task.c ****     p_tcb->TimeQuanta    = time_quanta;                     /* Save the #ticks for time slice (0 me
 500              		.loc 1 379 0
 501 0136 FB68     		ldr	r3, [r7, #12]
 502 0138 FA6C     		ldr	r2, [r7, #76]
 503 013a 5A65     		str	r2, [r3, #84]
 380:..\..\..\..\..\..\Software\uCOS-III\Source/os_task.c **** #if OS_CFG_SCHED_ROUND_ROBIN_EN > 0u
 381:..\..\..\..\..\..\Software\uCOS-III\Source/os_task.c ****     if (time_quanta == (OS_TICK)0) {
 382:..\..\..\..\..\..\Software\uCOS-III\Source/os_task.c ****         p_tcb->TimeQuantaCtr = OSSchedRoundRobinDfltTimeQuanta;
 383:..\..\..\..\..\..\Software\uCOS-III\Source/os_task.c ****     } else {
 384:..\..\..\..\..\..\Software\uCOS-III\Source/os_task.c ****         p_tcb->TimeQuantaCtr = time_quanta;
 385:..\..\..\..\..\..\Software\uCOS-III\Source/os_task.c ****     }
 386:..\..\..\..\..\..\Software\uCOS-III\Source/os_task.c **** #endif
 387:..\..\..\..\..\..\Software\uCOS-III\Source/os_task.c ****     p_tcb->ExtPtr        = p_ext;                           /* Save pointer to TCB extension       
 504              		.loc 1 387 0
 505 013c FB68     		ldr	r3, [r7, #12]
 506 013e 3A6D     		ldr	r2, [r7, #80]
 507 0140 5A60     		str	r2, [r3, #4]
 388:..\..\..\..\..\..\Software\uCOS-III\Source/os_task.c ****     p_tcb->StkBasePtr    = p_stk_base;                      /* Save pointer to the base address of 
 508              		.loc 1 388 0
 509 0142 FB68     		ldr	r3, [r7, #12]
 510 0144 FA6B     		ldr	r2, [r7, #60]
 511 0146 5A62     		str	r2, [r3, #36]
 389:..\..\..\..\..\..\Software\uCOS-III\Source/os_task.c ****     p_tcb->StkSize       = stk_size;                        /* Save the stack size (in number of CP
 512              		.loc 1 389 0
 513 0148 FB68     		ldr	r3, [r7, #12]
 514 014a 7A6C     		ldr	r2, [r7, #68]
 515 014c 9A63     		str	r2, [r3, #56]
 390:..\..\..\..\..\..\Software\uCOS-III\Source/os_task.c ****     p_tcb->Opt           = opt;                             /* Save task options                   
 516              		.loc 1 390 0
 517 014e FB68     		ldr	r3, [r7, #12]
 518 0150 5422     		movs	r2, #84
 519 0152 BA18     		adds	r2, r7, r2
ARM GAS  C:\Users\EDULU~1.DES\AppData\Local\Temp\ccyhp2HA.s 			page 17


 520 0154 1288     		ldrh	r2, [r2]
 521 0156 9A87     		strh	r2, [r3, #60]
 391:..\..\..\..\..\..\Software\uCOS-III\Source/os_task.c **** 
 392:..\..\..\..\..\..\Software\uCOS-III\Source/os_task.c **** #if OS_CFG_TASK_REG_TBL_SIZE > 0u
 393:..\..\..\..\..\..\Software\uCOS-III\Source/os_task.c ****     for (reg_nbr = 0u; reg_nbr < OS_CFG_TASK_REG_TBL_SIZE; reg_nbr++) {
 522              		.loc 1 393 0
 523 0158 2323     		movs	r3, #35
 524 015a FB18     		adds	r3, r7, r3
 525 015c 0022     		movs	r2, #0
 526 015e 1A70     		strb	r2, [r3]
 527 0160 10E0     		b	.L36
 528              	.L37:
 394:..\..\..\..\..\..\Software\uCOS-III\Source/os_task.c ****         p_tcb->RegTbl[reg_nbr] = (OS_REG)0;
 529              		.loc 1 394 0 discriminator 3
 530 0162 2323     		movs	r3, #35
 531 0164 FB18     		adds	r3, r7, r3
 532 0166 1B78     		ldrb	r3, [r3]
 533 0168 FA68     		ldr	r2, [r7, #12]
 534 016a 1633     		adds	r3, r3, #22
 535 016c 9B00     		lsls	r3, r3, #2
 536 016e D318     		adds	r3, r2, r3
 537 0170 0433     		adds	r3, r3, #4
 538 0172 0022     		movs	r2, #0
 539 0174 1A60     		str	r2, [r3]
 393:..\..\..\..\..\..\Software\uCOS-III\Source/os_task.c ****         p_tcb->RegTbl[reg_nbr] = (OS_REG)0;
 540              		.loc 1 393 0 discriminator 3
 541 0176 2323     		movs	r3, #35
 542 0178 FB18     		adds	r3, r7, r3
 543 017a 1A78     		ldrb	r2, [r3]
 544 017c 2323     		movs	r3, #35
 545 017e FB18     		adds	r3, r7, r3
 546 0180 0132     		adds	r2, r2, #1
 547 0182 1A70     		strb	r2, [r3]
 548              	.L36:
 393:..\..\..\..\..\..\Software\uCOS-III\Source/os_task.c ****         p_tcb->RegTbl[reg_nbr] = (OS_REG)0;
 549              		.loc 1 393 0 is_stmt 0 discriminator 1
 550 0184 2323     		movs	r3, #35
 551 0186 FB18     		adds	r3, r7, r3
 552 0188 1B78     		ldrb	r3, [r3]
 553 018a 002B     		cmp	r3, #0
 554 018c E9D0     		beq	.L37
 395:..\..\..\..\..\..\Software\uCOS-III\Source/os_task.c ****     }
 396:..\..\..\..\..\..\Software\uCOS-III\Source/os_task.c **** #endif
 397:..\..\..\..\..\..\Software\uCOS-III\Source/os_task.c **** 
 398:..\..\..\..\..\..\Software\uCOS-III\Source/os_task.c **** #if OS_CFG_TASK_Q_EN > 0u
 399:..\..\..\..\..\..\Software\uCOS-III\Source/os_task.c ****     OS_MsgQInit(&p_tcb->MsgQ,                               /* Initialize the task's message queue 
 400:..\..\..\..\..\..\Software\uCOS-III\Source/os_task.c ****                 q_size);
 401:..\..\..\..\..\..\Software\uCOS-III\Source/os_task.c **** #else
 402:..\..\..\..\..\..\Software\uCOS-III\Source/os_task.c ****     (void)&q_size;
 403:..\..\..\..\..\..\Software\uCOS-III\Source/os_task.c **** #endif
 404:..\..\..\..\..\..\Software\uCOS-III\Source/os_task.c **** 
 405:..\..\..\..\..\..\Software\uCOS-III\Source/os_task.c ****     OSTaskCreateHook(p_tcb);                                /* Call user defined hook              
 555              		.loc 1 405 0 is_stmt 1
 556 018e FB68     		ldr	r3, [r7, #12]
 557 0190 1800     		movs	r0, r3
 558 0192 FFF7FEFF 		bl	OSTaskCreateHook
 406:..\..\..\..\..\..\Software\uCOS-III\Source/os_task.c **** 
ARM GAS  C:\Users\EDULU~1.DES\AppData\Local\Temp\ccyhp2HA.s 			page 18


 407:..\..\..\..\..\..\Software\uCOS-III\Source/os_task.c **** #if defined(OS_CFG_TLS_TBL_SIZE) && (OS_CFG_TLS_TBL_SIZE > 0u)
 408:..\..\..\..\..\..\Software\uCOS-III\Source/os_task.c ****     for (id = 0u; id < OS_CFG_TLS_TBL_SIZE; id++) {
 409:..\..\..\..\..\..\Software\uCOS-III\Source/os_task.c ****         p_tcb->TLS_Tbl[id] = (OS_TLS)0;
 410:..\..\..\..\..\..\Software\uCOS-III\Source/os_task.c ****     }
 411:..\..\..\..\..\..\Software\uCOS-III\Source/os_task.c ****     OS_TLS_TaskCreate(p_tcb);                               /* Call TLS hook                       
 412:..\..\..\..\..\..\Software\uCOS-III\Source/os_task.c **** #endif
 413:..\..\..\..\..\..\Software\uCOS-III\Source/os_task.c ****                                                             /* --------------- ADD TASK TO READY LI
 414:..\..\..\..\..\..\Software\uCOS-III\Source/os_task.c ****     OS_CRITICAL_ENTER();
 559              		.loc 1 414 0
 560 0196 FFF7FEFF 		bl	CPU_SR_Save
 561 019a 0300     		movs	r3, r0
 562 019c BB61     		str	r3, [r7, #24]
 563 019e FFF7FEFF 		bl	CPU_IntDisMeasStart
 415:..\..\..\..\..\..\Software\uCOS-III\Source/os_task.c ****     OS_PrioInsert(p_tcb->Prio);
 564              		.loc 1 415 0
 565 01a2 FB68     		ldr	r3, [r7, #12]
 566 01a4 3722     		movs	r2, #55
 567 01a6 9B5C     		ldrb	r3, [r3, r2]
 568 01a8 1800     		movs	r0, r3
 569 01aa FFF7FEFF 		bl	OS_PrioInsert
 416:..\..\..\..\..\..\Software\uCOS-III\Source/os_task.c ****     OS_RdyListInsertTail(p_tcb);
 570              		.loc 1 416 0
 571 01ae FB68     		ldr	r3, [r7, #12]
 572 01b0 1800     		movs	r0, r3
 573 01b2 FFF7FEFF 		bl	OS_RdyListInsertTail
 417:..\..\..\..\..\..\Software\uCOS-III\Source/os_task.c **** 
 418:..\..\..\..\..\..\Software\uCOS-III\Source/os_task.c **** #if OS_CFG_DBG_EN > 0u
 419:..\..\..\..\..\..\Software\uCOS-III\Source/os_task.c ****     OS_TaskDbgListAdd(p_tcb);
 574              		.loc 1 419 0
 575 01b6 FB68     		ldr	r3, [r7, #12]
 576 01b8 1800     		movs	r0, r3
 577 01ba FFF7FEFF 		bl	OS_TaskDbgListAdd
 420:..\..\..\..\..\..\Software\uCOS-III\Source/os_task.c **** #endif
 421:..\..\..\..\..\..\Software\uCOS-III\Source/os_task.c **** 
 422:..\..\..\..\..\..\Software\uCOS-III\Source/os_task.c ****     OSTaskQty++;                                            /* Increment the #tasks counter        
 578              		.loc 1 422 0
 579 01be 184B     		ldr	r3, .L39+40
 580 01c0 1B88     		ldrh	r3, [r3]
 581 01c2 0133     		adds	r3, r3, #1
 582 01c4 9AB2     		uxth	r2, r3
 583 01c6 164B     		ldr	r3, .L39+40
 584 01c8 1A80     		strh	r2, [r3]
 423:..\..\..\..\..\..\Software\uCOS-III\Source/os_task.c **** 
 424:..\..\..\..\..\..\Software\uCOS-III\Source/os_task.c ****     if (OSRunning != OS_STATE_OS_RUNNING) {                 /* Return if multitasking has not start
 585              		.loc 1 424 0
 586 01ca 164B     		ldr	r3, .L39+44
 587 01cc 1B78     		ldrb	r3, [r3]
 588 01ce 012B     		cmp	r3, #1
 589 01d0 06D0     		beq	.L38
 425:..\..\..\..\..\..\Software\uCOS-III\Source/os_task.c ****         OS_CRITICAL_EXIT();
 590              		.loc 1 425 0
 591 01d2 FFF7FEFF 		bl	CPU_IntDisMeasStop
 592 01d6 BB69     		ldr	r3, [r7, #24]
 593 01d8 1800     		movs	r0, r3
 594 01da FFF7FEFF 		bl	CPU_SR_Restore
 426:..\..\..\..\..\..\Software\uCOS-III\Source/os_task.c ****         return;
 595              		.loc 1 426 0
ARM GAS  C:\Users\EDULU~1.DES\AppData\Local\Temp\ccyhp2HA.s 			page 19


 596 01de 07E0     		b	.L23
 597              	.L38:
 427:..\..\..\..\..\..\Software\uCOS-III\Source/os_task.c ****     }
 428:..\..\..\..\..\..\Software\uCOS-III\Source/os_task.c **** 
 429:..\..\..\..\..\..\Software\uCOS-III\Source/os_task.c ****     OS_CRITICAL_EXIT_NO_SCHED();
 598              		.loc 1 429 0
 599 01e0 FFF7FEFF 		bl	CPU_IntDisMeasStop
 600 01e4 BB69     		ldr	r3, [r7, #24]
 601 01e6 1800     		movs	r0, r3
 602 01e8 FFF7FEFF 		bl	CPU_SR_Restore
 430:..\..\..\..\..\..\Software\uCOS-III\Source/os_task.c **** 
 431:..\..\..\..\..\..\Software\uCOS-III\Source/os_task.c ****     OSSched();
 603              		.loc 1 431 0
 604 01ec FFF7FEFF 		bl	OSSched
 605              	.L23:
 432:..\..\..\..\..\..\Software\uCOS-III\Source/os_task.c **** }
 606              		.loc 1 432 0
 607 01f0 BD46     		mov	sp, r7
 608 01f2 0BB0     		add	sp, sp, #44
 609              		@ sp needed
 610 01f4 90BD     		pop	{r4, r7, pc}
 611              	.L40:
 612 01f6 C046     		.align	2
 613              	.L39:
 614 01f8 00000000 		.word	OSIntNestingCtr
 615 01fc 4A710000 		.word	29002
 616 0200 AD710000 		.word	29101
 617 0204 4F710000 		.word	29007
 618 0208 2F6E0000 		.word	28207
 619 020c 00000000 		.word	OSCfg_StkSizeMin
 620 0210 306E0000 		.word	28208
 621 0214 316E0000 		.word	28209
 622 0218 73620000 		.word	25203
 623 021c 00000000 		.word	OSIdleTaskTCB
 624 0220 00000000 		.word	OSTaskQty
 625 0224 00000000 		.word	OSRunning
 626              		.cfi_endproc
 627              	.LFE2:
 628              		.size	OSTaskCreate, .-OSTaskCreate
 629              		.section	.text.OSTaskRegGet,"ax",%progbits
 630              		.align	2
 631              		.global	OSTaskRegGet
 632              		.code	16
 633              		.thumb_func
 634              		.type	OSTaskRegGet, %function
 635              	OSTaskRegGet:
 636              	.LFB3:
 433:..\..\..\..\..\..\Software\uCOS-III\Source/os_task.c **** 
 434:..\..\..\..\..\..\Software\uCOS-III\Source/os_task.c **** /*$PAGE*/
 435:..\..\..\..\..\..\Software\uCOS-III\Source/os_task.c **** /*
 436:..\..\..\..\..\..\Software\uCOS-III\Source/os_task.c **** ***************************************************************************************************
 437:..\..\..\..\..\..\Software\uCOS-III\Source/os_task.c **** *                                                     DELETE A TASK
 438:..\..\..\..\..\..\Software\uCOS-III\Source/os_task.c **** *
 439:..\..\..\..\..\..\Software\uCOS-III\Source/os_task.c **** * Description: This function allows you to delete a task.  The calling task can delete itself by sp
 440:..\..\..\..\..\..\Software\uCOS-III\Source/os_task.c **** *              pointer for 'p_tcb'.  The deleted task is returned to the dormant state and can be r
 441:..\..\..\..\..\..\Software\uCOS-III\Source/os_task.c **** *              creating the deleted task again.
 442:..\..\..\..\..\..\Software\uCOS-III\Source/os_task.c **** *
ARM GAS  C:\Users\EDULU~1.DES\AppData\Local\Temp\ccyhp2HA.s 			page 20


 443:..\..\..\..\..\..\Software\uCOS-III\Source/os_task.c **** * Arguments  : p_tcb      is the TCB of the tack to delete
 444:..\..\..\..\..\..\Software\uCOS-III\Source/os_task.c **** *
 445:..\..\..\..\..\..\Software\uCOS-III\Source/os_task.c **** *              p_err      is a pointer to an error code returned by this function:
 446:..\..\..\..\..\..\Software\uCOS-III\Source/os_task.c **** *
 447:..\..\..\..\..\..\Software\uCOS-III\Source/os_task.c **** *                             OS_ERR_NONE                  if the call is successful
 448:..\..\..\..\..\..\Software\uCOS-III\Source/os_task.c **** *                             OS_ERR_STATE_INVALID         if the state of the task is invalid
 449:..\..\..\..\..\..\Software\uCOS-III\Source/os_task.c **** *                             OS_ERR_TASK_DEL_IDLE         if you attempted to delete uC/OS-III's i
 450:..\..\..\..\..\..\Software\uCOS-III\Source/os_task.c **** *                             OS_ERR_TASK_DEL_INVALID      if you attempted to delete uC/OS-III's I
 451:..\..\..\..\..\..\Software\uCOS-III\Source/os_task.c **** *                             OS_ERR_TASK_DEL_ISR          if you tried to delete a task from an IS
 452:..\..\..\..\..\..\Software\uCOS-III\Source/os_task.c **** *
 453:..\..\..\..\..\..\Software\uCOS-III\Source/os_task.c **** * Note(s)    : 1) 'p_err' gets set to OS_ERR_NONE before OSSched() to allow the returned error code
 454:..\..\..\..\..\..\Software\uCOS-III\Source/os_task.c **** *                 for a task that is deleting itself. In this case, 'p_err' MUST point to a global 
 455:..\..\..\..\..\..\Software\uCOS-III\Source/os_task.c **** *                 accessed by another task.
 456:..\..\..\..\..\..\Software\uCOS-III\Source/os_task.c **** ***************************************************************************************************
 457:..\..\..\..\..\..\Software\uCOS-III\Source/os_task.c **** */
 458:..\..\..\..\..\..\Software\uCOS-III\Source/os_task.c **** 
 459:..\..\..\..\..\..\Software\uCOS-III\Source/os_task.c **** #if OS_CFG_TASK_DEL_EN > 0u
 460:..\..\..\..\..\..\Software\uCOS-III\Source/os_task.c **** void  OSTaskDel (OS_TCB  *p_tcb,
 461:..\..\..\..\..\..\Software\uCOS-III\Source/os_task.c ****                  OS_ERR  *p_err)
 462:..\..\..\..\..\..\Software\uCOS-III\Source/os_task.c **** {
 463:..\..\..\..\..\..\Software\uCOS-III\Source/os_task.c ****     CPU_SR_ALLOC();
 464:..\..\..\..\..\..\Software\uCOS-III\Source/os_task.c **** 
 465:..\..\..\..\..\..\Software\uCOS-III\Source/os_task.c **** 
 466:..\..\..\..\..\..\Software\uCOS-III\Source/os_task.c **** 
 467:..\..\..\..\..\..\Software\uCOS-III\Source/os_task.c **** #ifdef OS_SAFETY_CRITICAL
 468:..\..\..\..\..\..\Software\uCOS-III\Source/os_task.c ****     if (p_err == (OS_ERR *)0) {
 469:..\..\..\..\..\..\Software\uCOS-III\Source/os_task.c ****         OS_SAFETY_CRITICAL_EXCEPTION();
 470:..\..\..\..\..\..\Software\uCOS-III\Source/os_task.c ****         return;
 471:..\..\..\..\..\..\Software\uCOS-III\Source/os_task.c ****     }
 472:..\..\..\..\..\..\Software\uCOS-III\Source/os_task.c **** #endif
 473:..\..\..\..\..\..\Software\uCOS-III\Source/os_task.c **** 
 474:..\..\..\..\..\..\Software\uCOS-III\Source/os_task.c **** #if OS_CFG_CALLED_FROM_ISR_CHK_EN > 0u
 475:..\..\..\..\..\..\Software\uCOS-III\Source/os_task.c ****     if (OSIntNestingCtr > (OS_NESTING_CTR)0) {              /* See if trying to delete from ISR    
 476:..\..\..\..\..\..\Software\uCOS-III\Source/os_task.c ****        *p_err = OS_ERR_TASK_DEL_ISR;
 477:..\..\..\..\..\..\Software\uCOS-III\Source/os_task.c ****         return;
 478:..\..\..\..\..\..\Software\uCOS-III\Source/os_task.c ****     }
 479:..\..\..\..\..\..\Software\uCOS-III\Source/os_task.c **** #endif
 480:..\..\..\..\..\..\Software\uCOS-III\Source/os_task.c **** 
 481:..\..\..\..\..\..\Software\uCOS-III\Source/os_task.c ****     if (p_tcb == &OSIdleTaskTCB) {                          /* Not allowed to delete the idle task 
 482:..\..\..\..\..\..\Software\uCOS-III\Source/os_task.c ****        *p_err = OS_ERR_TASK_DEL_IDLE;
 483:..\..\..\..\..\..\Software\uCOS-III\Source/os_task.c ****         return;
 484:..\..\..\..\..\..\Software\uCOS-III\Source/os_task.c ****     }
 485:..\..\..\..\..\..\Software\uCOS-III\Source/os_task.c **** 
 486:..\..\..\..\..\..\Software\uCOS-III\Source/os_task.c **** #if OS_CFG_ISR_POST_DEFERRED_EN > 0u
 487:..\..\..\..\..\..\Software\uCOS-III\Source/os_task.c ****     if (p_tcb == &OSIntQTaskTCB) {                          /* Cannot delete the ISR handler task  
 488:..\..\..\..\..\..\Software\uCOS-III\Source/os_task.c ****        *p_err = OS_ERR_TASK_DEL_INVALID;
 489:..\..\..\..\..\..\Software\uCOS-III\Source/os_task.c ****         return;
 490:..\..\..\..\..\..\Software\uCOS-III\Source/os_task.c ****     }
 491:..\..\..\..\..\..\Software\uCOS-III\Source/os_task.c **** #endif
 492:..\..\..\..\..\..\Software\uCOS-III\Source/os_task.c **** 
 493:..\..\..\..\..\..\Software\uCOS-III\Source/os_task.c ****     if (p_tcb == (OS_TCB *)0) {                             /* Delete 'Self'?                      
 494:..\..\..\..\..\..\Software\uCOS-III\Source/os_task.c ****         CPU_CRITICAL_ENTER();
 495:..\..\..\..\..\..\Software\uCOS-III\Source/os_task.c ****         p_tcb  = OSTCBCurPtr;                               /* Yes.                                
 496:..\..\..\..\..\..\Software\uCOS-III\Source/os_task.c ****         CPU_CRITICAL_EXIT();
 497:..\..\..\..\..\..\Software\uCOS-III\Source/os_task.c ****     }
 498:..\..\..\..\..\..\Software\uCOS-III\Source/os_task.c **** 
 499:..\..\..\..\..\..\Software\uCOS-III\Source/os_task.c ****     OS_CRITICAL_ENTER();
ARM GAS  C:\Users\EDULU~1.DES\AppData\Local\Temp\ccyhp2HA.s 			page 21


 500:..\..\..\..\..\..\Software\uCOS-III\Source/os_task.c ****     switch (p_tcb->TaskState) {
 501:..\..\..\..\..\..\Software\uCOS-III\Source/os_task.c ****         case OS_TASK_STATE_RDY:
 502:..\..\..\..\..\..\Software\uCOS-III\Source/os_task.c ****              OS_RdyListRemove(p_tcb);
 503:..\..\..\..\..\..\Software\uCOS-III\Source/os_task.c ****              break;
 504:..\..\..\..\..\..\Software\uCOS-III\Source/os_task.c **** 
 505:..\..\..\..\..\..\Software\uCOS-III\Source/os_task.c ****         case OS_TASK_STATE_SUSPENDED:
 506:..\..\..\..\..\..\Software\uCOS-III\Source/os_task.c ****              break;
 507:..\..\..\..\..\..\Software\uCOS-III\Source/os_task.c **** 
 508:..\..\..\..\..\..\Software\uCOS-III\Source/os_task.c ****         case OS_TASK_STATE_DLY:                             /* Task is only delayed, not on any wai
 509:..\..\..\..\..\..\Software\uCOS-III\Source/os_task.c ****         case OS_TASK_STATE_DLY_SUSPENDED:
 510:..\..\..\..\..\..\Software\uCOS-III\Source/os_task.c ****              OS_TickListRemove(p_tcb);
 511:..\..\..\..\..\..\Software\uCOS-III\Source/os_task.c ****              break;
 512:..\..\..\..\..\..\Software\uCOS-III\Source/os_task.c **** 
 513:..\..\..\..\..\..\Software\uCOS-III\Source/os_task.c ****         case OS_TASK_STATE_PEND:
 514:..\..\..\..\..\..\Software\uCOS-III\Source/os_task.c ****         case OS_TASK_STATE_PEND_SUSPENDED:
 515:..\..\..\..\..\..\Software\uCOS-III\Source/os_task.c ****         case OS_TASK_STATE_PEND_TIMEOUT:
 516:..\..\..\..\..\..\Software\uCOS-III\Source/os_task.c ****         case OS_TASK_STATE_PEND_TIMEOUT_SUSPENDED:
 517:..\..\..\..\..\..\Software\uCOS-III\Source/os_task.c ****              OS_TickListRemove(p_tcb);
 518:..\..\..\..\..\..\Software\uCOS-III\Source/os_task.c ****              switch (p_tcb->PendOn) {                       /* See what we are pending on          
 519:..\..\..\..\..\..\Software\uCOS-III\Source/os_task.c ****                  case OS_TASK_PEND_ON_NOTHING:
 520:..\..\..\..\..\..\Software\uCOS-III\Source/os_task.c ****                  case OS_TASK_PEND_ON_TASK_Q:               /* There is no wait list for these two 
 521:..\..\..\..\..\..\Software\uCOS-III\Source/os_task.c ****                  case OS_TASK_PEND_ON_TASK_SEM:
 522:..\..\..\..\..\..\Software\uCOS-III\Source/os_task.c ****                       break;
 523:..\..\..\..\..\..\Software\uCOS-III\Source/os_task.c **** 
 524:..\..\..\..\..\..\Software\uCOS-III\Source/os_task.c ****                  case OS_TASK_PEND_ON_FLAG:                 /* Remove from wait list               
 525:..\..\..\..\..\..\Software\uCOS-III\Source/os_task.c ****                  case OS_TASK_PEND_ON_MULTI:
 526:..\..\..\..\..\..\Software\uCOS-III\Source/os_task.c ****                  case OS_TASK_PEND_ON_MUTEX:
 527:..\..\..\..\..\..\Software\uCOS-III\Source/os_task.c ****                  case OS_TASK_PEND_ON_Q:
 528:..\..\..\..\..\..\Software\uCOS-III\Source/os_task.c ****                  case OS_TASK_PEND_ON_SEM:
 529:..\..\..\..\..\..\Software\uCOS-III\Source/os_task.c ****                       OS_PendListRemove(p_tcb);
 530:..\..\..\..\..\..\Software\uCOS-III\Source/os_task.c ****                       break;
 531:..\..\..\..\..\..\Software\uCOS-III\Source/os_task.c **** 
 532:..\..\..\..\..\..\Software\uCOS-III\Source/os_task.c ****                  default:
 533:..\..\..\..\..\..\Software\uCOS-III\Source/os_task.c ****                       break;
 534:..\..\..\..\..\..\Software\uCOS-III\Source/os_task.c ****              }
 535:..\..\..\..\..\..\Software\uCOS-III\Source/os_task.c ****              break;
 536:..\..\..\..\..\..\Software\uCOS-III\Source/os_task.c **** 
 537:..\..\..\..\..\..\Software\uCOS-III\Source/os_task.c ****         default:
 538:..\..\..\..\..\..\Software\uCOS-III\Source/os_task.c ****             OS_CRITICAL_EXIT();
 539:..\..\..\..\..\..\Software\uCOS-III\Source/os_task.c ****            *p_err = OS_ERR_STATE_INVALID;
 540:..\..\..\..\..\..\Software\uCOS-III\Source/os_task.c ****             return;
 541:..\..\..\..\..\..\Software\uCOS-III\Source/os_task.c ****     }
 542:..\..\..\..\..\..\Software\uCOS-III\Source/os_task.c **** 
 543:..\..\..\..\..\..\Software\uCOS-III\Source/os_task.c **** #if OS_CFG_TASK_Q_EN > 0u
 544:..\..\..\..\..\..\Software\uCOS-III\Source/os_task.c ****     (void)OS_MsgQFreeAll(&p_tcb->MsgQ);                     /* Free task's message queue messages  
 545:..\..\..\..\..\..\Software\uCOS-III\Source/os_task.c **** #endif
 546:..\..\..\..\..\..\Software\uCOS-III\Source/os_task.c **** 
 547:..\..\..\..\..\..\Software\uCOS-III\Source/os_task.c ****     OSTaskDelHook(p_tcb);                                   /* Call user defined hook              
 548:..\..\..\..\..\..\Software\uCOS-III\Source/os_task.c **** 
 549:..\..\..\..\..\..\Software\uCOS-III\Source/os_task.c **** #if defined(OS_CFG_TLS_TBL_SIZE) && (OS_CFG_TLS_TBL_SIZE > 0u)
 550:..\..\..\..\..\..\Software\uCOS-III\Source/os_task.c ****     OS_TLS_TaskDel(p_tcb);                                  /* Call TLS hook                       
 551:..\..\..\..\..\..\Software\uCOS-III\Source/os_task.c **** #endif
 552:..\..\..\..\..\..\Software\uCOS-III\Source/os_task.c **** 
 553:..\..\..\..\..\..\Software\uCOS-III\Source/os_task.c **** #if OS_CFG_DBG_EN > 0u
 554:..\..\..\..\..\..\Software\uCOS-III\Source/os_task.c ****     OS_TaskDbgListRemove(p_tcb);
 555:..\..\..\..\..\..\Software\uCOS-III\Source/os_task.c **** #endif
 556:..\..\..\..\..\..\Software\uCOS-III\Source/os_task.c ****     OSTaskQty--;                                            /* One less task being managed         
ARM GAS  C:\Users\EDULU~1.DES\AppData\Local\Temp\ccyhp2HA.s 			page 22


 557:..\..\..\..\..\..\Software\uCOS-III\Source/os_task.c **** 
 558:..\..\..\..\..\..\Software\uCOS-III\Source/os_task.c ****     OS_TaskInitTCB(p_tcb);                                  /* Initialize the TCB to default values
 559:..\..\..\..\..\..\Software\uCOS-III\Source/os_task.c ****     p_tcb->TaskState = (OS_STATE)OS_TASK_STATE_DEL;         /* Indicate that the task was deleted  
 560:..\..\..\..\..\..\Software\uCOS-III\Source/os_task.c **** 
 561:..\..\..\..\..\..\Software\uCOS-III\Source/os_task.c ****     OS_CRITICAL_EXIT_NO_SCHED();
 562:..\..\..\..\..\..\Software\uCOS-III\Source/os_task.c **** 
 563:..\..\..\..\..\..\Software\uCOS-III\Source/os_task.c ****    *p_err = OS_ERR_NONE;                                    /* See Note #1.                        
 564:..\..\..\..\..\..\Software\uCOS-III\Source/os_task.c **** 
 565:..\..\..\..\..\..\Software\uCOS-III\Source/os_task.c ****     OSSched();                                              /* Find new highest priority task      
 566:..\..\..\..\..\..\Software\uCOS-III\Source/os_task.c **** }
 567:..\..\..\..\..\..\Software\uCOS-III\Source/os_task.c **** #endif
 568:..\..\..\..\..\..\Software\uCOS-III\Source/os_task.c **** 
 569:..\..\..\..\..\..\Software\uCOS-III\Source/os_task.c **** /*$PAGE*/
 570:..\..\..\..\..\..\Software\uCOS-III\Source/os_task.c **** /*
 571:..\..\..\..\..\..\Software\uCOS-III\Source/os_task.c **** ***************************************************************************************************
 572:..\..\..\..\..\..\Software\uCOS-III\Source/os_task.c **** *                                                    FLUSH TASK's QUEUE
 573:..\..\..\..\..\..\Software\uCOS-III\Source/os_task.c **** *
 574:..\..\..\..\..\..\Software\uCOS-III\Source/os_task.c **** * Description: This function is used to flush the task's internal message queue.
 575:..\..\..\..\..\..\Software\uCOS-III\Source/os_task.c **** *
 576:..\..\..\..\..\..\Software\uCOS-III\Source/os_task.c **** * Arguments  : p_tcb       is a pointer to the task's OS_TCB.  Specifying a NULL pointer indicates 
 577:..\..\..\..\..\..\Software\uCOS-III\Source/os_task.c **** *                          flush the message queue of the calling task.
 578:..\..\..\..\..\..\Software\uCOS-III\Source/os_task.c **** *
 579:..\..\..\..\..\..\Software\uCOS-III\Source/os_task.c **** *              p_err       is a pointer to a variable that will contain an error code returned by t
 580:..\..\..\..\..\..\Software\uCOS-III\Source/os_task.c **** *
 581:..\..\..\..\..\..\Software\uCOS-III\Source/os_task.c **** *                              OS_ERR_NONE           upon success
 582:..\..\..\..\..\..\Software\uCOS-III\Source/os_task.c **** *                              OS_ERR_FLUSH_ISR      if you called this function from an ISR
 583:..\..\..\..\..\..\Software\uCOS-III\Source/os_task.c **** *
 584:..\..\..\..\..\..\Software\uCOS-III\Source/os_task.c **** * Returns     : The number of entries freed from the queue
 585:..\..\..\..\..\..\Software\uCOS-III\Source/os_task.c **** *
 586:..\..\..\..\..\..\Software\uCOS-III\Source/os_task.c **** * Note(s)     : 1) You should use this function with great care because, when to flush the queue, y
 587:..\..\..\..\..\..\Software\uCOS-III\Source/os_task.c **** *                  references to what the queue entries are pointing to and thus, you could cause '
 588:..\..\..\..\..\..\Software\uCOS-III\Source/os_task.c **** *                  other words, the data you are pointing to that's being referenced by the queue e
 589:..\..\..\..\..\..\Software\uCOS-III\Source/os_task.c **** *                  likely, need to be de-allocated (i.e. freed).
 590:..\..\..\..\..\..\Software\uCOS-III\Source/os_task.c **** ***************************************************************************************************
 591:..\..\..\..\..\..\Software\uCOS-III\Source/os_task.c **** */
 592:..\..\..\..\..\..\Software\uCOS-III\Source/os_task.c **** 
 593:..\..\..\..\..\..\Software\uCOS-III\Source/os_task.c **** #if OS_CFG_TASK_Q_EN > 0u
 594:..\..\..\..\..\..\Software\uCOS-III\Source/os_task.c **** OS_MSG_QTY  OSTaskQFlush (OS_TCB  *p_tcb,
 595:..\..\..\..\..\..\Software\uCOS-III\Source/os_task.c ****                           OS_ERR  *p_err)
 596:..\..\..\..\..\..\Software\uCOS-III\Source/os_task.c **** {
 597:..\..\..\..\..\..\Software\uCOS-III\Source/os_task.c ****     OS_MSG_QTY  entries;
 598:..\..\..\..\..\..\Software\uCOS-III\Source/os_task.c ****     CPU_SR_ALLOC();
 599:..\..\..\..\..\..\Software\uCOS-III\Source/os_task.c **** 
 600:..\..\..\..\..\..\Software\uCOS-III\Source/os_task.c **** 
 601:..\..\..\..\..\..\Software\uCOS-III\Source/os_task.c **** 
 602:..\..\..\..\..\..\Software\uCOS-III\Source/os_task.c **** #ifdef OS_SAFETY_CRITICAL
 603:..\..\..\..\..\..\Software\uCOS-III\Source/os_task.c ****     if (p_err == (OS_ERR *)0) {
 604:..\..\..\..\..\..\Software\uCOS-III\Source/os_task.c ****         OS_SAFETY_CRITICAL_EXCEPTION();
 605:..\..\..\..\..\..\Software\uCOS-III\Source/os_task.c ****         return ((OS_MSG_QTY)0);
 606:..\..\..\..\..\..\Software\uCOS-III\Source/os_task.c ****     }
 607:..\..\..\..\..\..\Software\uCOS-III\Source/os_task.c **** #endif
 608:..\..\..\..\..\..\Software\uCOS-III\Source/os_task.c **** 
 609:..\..\..\..\..\..\Software\uCOS-III\Source/os_task.c **** #if OS_CFG_CALLED_FROM_ISR_CHK_EN > 0u
 610:..\..\..\..\..\..\Software\uCOS-III\Source/os_task.c ****     if (OSIntNestingCtr > (OS_NESTING_CTR)0) {              /* Can't flush a message queue from an 
 611:..\..\..\..\..\..\Software\uCOS-III\Source/os_task.c ****        *p_err = OS_ERR_FLUSH_ISR;
 612:..\..\..\..\..\..\Software\uCOS-III\Source/os_task.c ****         return ((OS_MSG_QTY)0);
 613:..\..\..\..\..\..\Software\uCOS-III\Source/os_task.c ****     }
ARM GAS  C:\Users\EDULU~1.DES\AppData\Local\Temp\ccyhp2HA.s 			page 23


 614:..\..\..\..\..\..\Software\uCOS-III\Source/os_task.c **** #endif
 615:..\..\..\..\..\..\Software\uCOS-III\Source/os_task.c **** 
 616:..\..\..\..\..\..\Software\uCOS-III\Source/os_task.c ****     if (p_tcb == (OS_TCB *)0) {                             /* Flush message queue of calling task?
 617:..\..\..\..\..\..\Software\uCOS-III\Source/os_task.c ****         CPU_CRITICAL_ENTER();
 618:..\..\..\..\..\..\Software\uCOS-III\Source/os_task.c ****         p_tcb = OSTCBCurPtr;
 619:..\..\..\..\..\..\Software\uCOS-III\Source/os_task.c ****         CPU_CRITICAL_EXIT();
 620:..\..\..\..\..\..\Software\uCOS-III\Source/os_task.c ****     }
 621:..\..\..\..\..\..\Software\uCOS-III\Source/os_task.c **** 
 622:..\..\..\..\..\..\Software\uCOS-III\Source/os_task.c ****     OS_CRITICAL_ENTER();
 623:..\..\..\..\..\..\Software\uCOS-III\Source/os_task.c ****     entries = OS_MsgQFreeAll(&p_tcb->MsgQ);                 /* Return all OS_MSGs to the OS_MSG poo
 624:..\..\..\..\..\..\Software\uCOS-III\Source/os_task.c ****     OS_CRITICAL_EXIT();
 625:..\..\..\..\..\..\Software\uCOS-III\Source/os_task.c ****    *p_err   = OS_ERR_NONE;
 626:..\..\..\..\..\..\Software\uCOS-III\Source/os_task.c ****     return (entries);
 627:..\..\..\..\..\..\Software\uCOS-III\Source/os_task.c **** }
 628:..\..\..\..\..\..\Software\uCOS-III\Source/os_task.c **** #endif
 629:..\..\..\..\..\..\Software\uCOS-III\Source/os_task.c **** 
 630:..\..\..\..\..\..\Software\uCOS-III\Source/os_task.c **** /*$PAGE*/
 631:..\..\..\..\..\..\Software\uCOS-III\Source/os_task.c **** /*
 632:..\..\..\..\..\..\Software\uCOS-III\Source/os_task.c **** ***************************************************************************************************
 633:..\..\..\..\..\..\Software\uCOS-III\Source/os_task.c **** *                                                  WAIT FOR A MESSAGE
 634:..\..\..\..\..\..\Software\uCOS-III\Source/os_task.c **** *
 635:..\..\..\..\..\..\Software\uCOS-III\Source/os_task.c **** * Description: This function causes the current task to wait for a message to be posted to it.
 636:..\..\..\..\..\..\Software\uCOS-III\Source/os_task.c **** *
 637:..\..\..\..\..\..\Software\uCOS-III\Source/os_task.c **** * Arguments  : timeout       is an optional timeout period (in clock ticks).  If non-zero, your tas
 638:..\..\..\..\..\..\Software\uCOS-III\Source/os_task.c **** *                            message to arrive up to the amount of time specified by this argument.
 639:..\..\..\..\..\..\Software\uCOS-III\Source/os_task.c **** *                            If you specify 0, however, your task will wait forever or, until a mes
 640:..\..\..\..\..\..\Software\uCOS-III\Source/os_task.c **** *
 641:..\..\..\..\..\..\Software\uCOS-III\Source/os_task.c **** *              opt           determines whether the user wants to block if the task's queue is empt
 642:..\..\..\..\..\..\Software\uCOS-III\Source/os_task.c **** *
 643:..\..\..\..\..\..\Software\uCOS-III\Source/os_task.c **** *                                OS_OPT_PEND_BLOCKING
 644:..\..\..\..\..\..\Software\uCOS-III\Source/os_task.c **** *                                OS_OPT_PEND_NON_BLOCKING
 645:..\..\..\..\..\..\Software\uCOS-III\Source/os_task.c **** *
 646:..\..\..\..\..\..\Software\uCOS-III\Source/os_task.c **** *              p_msg_size    is a pointer to a variable that will receive the size of the message
 647:..\..\..\..\..\..\Software\uCOS-III\Source/os_task.c **** *
 648:..\..\..\..\..\..\Software\uCOS-III\Source/os_task.c **** *              p_ts          is a pointer to a variable that will receive the timestamp of when the
 649:..\..\..\..\..\..\Software\uCOS-III\Source/os_task.c **** *                            received.  If you pass a NULL pointer (i.e. (CPU_TS *)0) then you will
 650:..\..\..\..\..\..\Software\uCOS-III\Source/os_task.c **** *                            timestamp.  In other words, passing a NULL pointer is valid and indica
 651:..\..\..\..\..\..\Software\uCOS-III\Source/os_task.c **** *                            need the timestamp.
 652:..\..\..\..\..\..\Software\uCOS-III\Source/os_task.c **** *
 653:..\..\..\..\..\..\Software\uCOS-III\Source/os_task.c **** *              p_err         is a pointer to where an error message will be deposited.  Possible er
 654:..\..\..\..\..\..\Software\uCOS-III\Source/os_task.c **** *                            messages are:
 655:..\..\..\..\..\..\Software\uCOS-III\Source/os_task.c **** *
 656:..\..\..\..\..\..\Software\uCOS-III\Source/os_task.c **** *                                OS_ERR_NONE               The call was successful and your task re
 657:..\..\..\..\..\..\Software\uCOS-III\Source/os_task.c **** *                                OS_ERR_PEND_ABORT
 658:..\..\..\..\..\..\Software\uCOS-III\Source/os_task.c **** *                                OS_ERR_PEND_ISR           If you called this function from an ISR 
 659:..\..\..\..\..\..\Software\uCOS-III\Source/os_task.c **** *                                OS_ERR_PEND_WOULD_BLOCK   If you specified non-blocking but the qu
 660:..\..\..\..\..\..\Software\uCOS-III\Source/os_task.c **** *                                OS_ERR_Q_EMPTY
 661:..\..\..\..\..\..\Software\uCOS-III\Source/os_task.c **** *                                OS_ERR_SCHED_LOCKED       If the scheduler is locked
 662:..\..\..\..\..\..\Software\uCOS-III\Source/os_task.c **** *                                OS_ERR_TIMEOUT            A message was not received within the sp
 663:..\..\..\..\..\..\Software\uCOS-III\Source/os_task.c **** *                                                          would lead to a suspension.
 664:..\..\..\..\..\..\Software\uCOS-III\Source/os_task.c **** *
 665:..\..\..\..\..\..\Software\uCOS-III\Source/os_task.c **** * Returns    : A pointer to the message received or a NULL pointer upon error.
 666:..\..\..\..\..\..\Software\uCOS-III\Source/os_task.c **** *
 667:..\..\..\..\..\..\Software\uCOS-III\Source/os_task.c **** * Note(s)    : 1) It is possible to receive NULL pointers when there are no errors.
 668:..\..\..\..\..\..\Software\uCOS-III\Source/os_task.c **** ***************************************************************************************************
 669:..\..\..\..\..\..\Software\uCOS-III\Source/os_task.c **** */
 670:..\..\..\..\..\..\Software\uCOS-III\Source/os_task.c **** 
ARM GAS  C:\Users\EDULU~1.DES\AppData\Local\Temp\ccyhp2HA.s 			page 24


 671:..\..\..\..\..\..\Software\uCOS-III\Source/os_task.c **** #if OS_CFG_TASK_Q_EN > 0u
 672:..\..\..\..\..\..\Software\uCOS-III\Source/os_task.c **** void  *OSTaskQPend (OS_TICK       timeout,
 673:..\..\..\..\..\..\Software\uCOS-III\Source/os_task.c ****                     OS_OPT        opt,
 674:..\..\..\..\..\..\Software\uCOS-III\Source/os_task.c ****                     OS_MSG_SIZE  *p_msg_size,
 675:..\..\..\..\..\..\Software\uCOS-III\Source/os_task.c ****                     CPU_TS       *p_ts,
 676:..\..\..\..\..\..\Software\uCOS-III\Source/os_task.c ****                     OS_ERR       *p_err)
 677:..\..\..\..\..\..\Software\uCOS-III\Source/os_task.c **** {
 678:..\..\..\..\..\..\Software\uCOS-III\Source/os_task.c ****     OS_MSG_Q     *p_msg_q;
 679:..\..\..\..\..\..\Software\uCOS-III\Source/os_task.c ****     void         *p_void;
 680:..\..\..\..\..\..\Software\uCOS-III\Source/os_task.c ****     CPU_SR_ALLOC();
 681:..\..\..\..\..\..\Software\uCOS-III\Source/os_task.c **** 
 682:..\..\..\..\..\..\Software\uCOS-III\Source/os_task.c **** 
 683:..\..\..\..\..\..\Software\uCOS-III\Source/os_task.c **** 
 684:..\..\..\..\..\..\Software\uCOS-III\Source/os_task.c **** #ifdef OS_SAFETY_CRITICAL
 685:..\..\..\..\..\..\Software\uCOS-III\Source/os_task.c ****     if (p_err == (OS_ERR *)0) {
 686:..\..\..\..\..\..\Software\uCOS-III\Source/os_task.c ****         OS_SAFETY_CRITICAL_EXCEPTION();
 687:..\..\..\..\..\..\Software\uCOS-III\Source/os_task.c ****         return ((void *)0);
 688:..\..\..\..\..\..\Software\uCOS-III\Source/os_task.c ****     }
 689:..\..\..\..\..\..\Software\uCOS-III\Source/os_task.c **** #endif
 690:..\..\..\..\..\..\Software\uCOS-III\Source/os_task.c **** 
 691:..\..\..\..\..\..\Software\uCOS-III\Source/os_task.c **** #if OS_CFG_CALLED_FROM_ISR_CHK_EN > 0u
 692:..\..\..\..\..\..\Software\uCOS-III\Source/os_task.c ****     if (OSIntNestingCtr > (OS_NESTING_CTR)0) {              /* Can't Pend from an ISR              
 693:..\..\..\..\..\..\Software\uCOS-III\Source/os_task.c ****        *p_err = OS_ERR_PEND_ISR;
 694:..\..\..\..\..\..\Software\uCOS-III\Source/os_task.c ****         return ((void *)0);
 695:..\..\..\..\..\..\Software\uCOS-III\Source/os_task.c ****     }
 696:..\..\..\..\..\..\Software\uCOS-III\Source/os_task.c **** #endif
 697:..\..\..\..\..\..\Software\uCOS-III\Source/os_task.c **** 
 698:..\..\..\..\..\..\Software\uCOS-III\Source/os_task.c **** #if OS_CFG_ARG_CHK_EN > 0u                                  /* ---------------- VALIDATE ARGUMENTS 
 699:..\..\..\..\..\..\Software\uCOS-III\Source/os_task.c ****     if (p_msg_size == (OS_MSG_SIZE *)0) {                   /* User must supply a valid destination
 700:..\..\..\..\..\..\Software\uCOS-III\Source/os_task.c ****        *p_err = OS_ERR_PTR_INVALID;
 701:..\..\..\..\..\..\Software\uCOS-III\Source/os_task.c ****         return ((void *)0);
 702:..\..\..\..\..\..\Software\uCOS-III\Source/os_task.c ****     }
 703:..\..\..\..\..\..\Software\uCOS-III\Source/os_task.c ****     switch (opt) {                                          /* User must supply a valid option     
 704:..\..\..\..\..\..\Software\uCOS-III\Source/os_task.c ****         case OS_OPT_PEND_BLOCKING:
 705:..\..\..\..\..\..\Software\uCOS-III\Source/os_task.c ****         case OS_OPT_PEND_NON_BLOCKING:
 706:..\..\..\..\..\..\Software\uCOS-III\Source/os_task.c ****              break;
 707:..\..\..\..\..\..\Software\uCOS-III\Source/os_task.c **** 
 708:..\..\..\..\..\..\Software\uCOS-III\Source/os_task.c ****         default:
 709:..\..\..\..\..\..\Software\uCOS-III\Source/os_task.c ****             *p_err = OS_ERR_OPT_INVALID;
 710:..\..\..\..\..\..\Software\uCOS-III\Source/os_task.c ****              return ((void *)0);
 711:..\..\..\..\..\..\Software\uCOS-III\Source/os_task.c ****     }
 712:..\..\..\..\..\..\Software\uCOS-III\Source/os_task.c **** #endif
 713:..\..\..\..\..\..\Software\uCOS-III\Source/os_task.c **** 
 714:..\..\..\..\..\..\Software\uCOS-III\Source/os_task.c ****     if (p_ts != (CPU_TS *)0) {
 715:..\..\..\..\..\..\Software\uCOS-III\Source/os_task.c ****        *p_ts  = (CPU_TS  )0;                                /* Initialize the returned timestamp   
 716:..\..\..\..\..\..\Software\uCOS-III\Source/os_task.c ****     }
 717:..\..\..\..\..\..\Software\uCOS-III\Source/os_task.c **** 
 718:..\..\..\..\..\..\Software\uCOS-III\Source/os_task.c ****     CPU_CRITICAL_ENTER();
 719:..\..\..\..\..\..\Software\uCOS-III\Source/os_task.c ****     p_msg_q = &OSTCBCurPtr->MsgQ;                           /* Any message waiting in the message q
 720:..\..\..\..\..\..\Software\uCOS-III\Source/os_task.c ****     p_void  = OS_MsgQGet(p_msg_q,
 721:..\..\..\..\..\..\Software\uCOS-III\Source/os_task.c ****                          p_msg_size,
 722:..\..\..\..\..\..\Software\uCOS-III\Source/os_task.c ****                          p_ts,
 723:..\..\..\..\..\..\Software\uCOS-III\Source/os_task.c ****                          p_err);
 724:..\..\..\..\..\..\Software\uCOS-III\Source/os_task.c ****     if (*p_err == OS_ERR_NONE) {
 725:..\..\..\..\..\..\Software\uCOS-III\Source/os_task.c **** #if OS_CFG_TASK_PROFILE_EN > 0u
 726:..\..\..\..\..\..\Software\uCOS-III\Source/os_task.c ****         if (p_ts != (CPU_TS *)0) {
 727:..\..\..\..\..\..\Software\uCOS-III\Source/os_task.c ****             OSTCBCurPtr->MsgQPendTime = OS_TS_GET() - *p_ts;
ARM GAS  C:\Users\EDULU~1.DES\AppData\Local\Temp\ccyhp2HA.s 			page 25


 728:..\..\..\..\..\..\Software\uCOS-III\Source/os_task.c ****             if (OSTCBCurPtr->MsgQPendTimeMax < OSTCBCurPtr->MsgQPendTime) {
 729:..\..\..\..\..\..\Software\uCOS-III\Source/os_task.c ****                 OSTCBCurPtr->MsgQPendTimeMax = OSTCBCurPtr->MsgQPendTime;
 730:..\..\..\..\..\..\Software\uCOS-III\Source/os_task.c ****             }
 731:..\..\..\..\..\..\Software\uCOS-III\Source/os_task.c ****         }
 732:..\..\..\..\..\..\Software\uCOS-III\Source/os_task.c **** #endif
 733:..\..\..\..\..\..\Software\uCOS-III\Source/os_task.c ****         CPU_CRITICAL_EXIT();
 734:..\..\..\..\..\..\Software\uCOS-III\Source/os_task.c ****         return (p_void);                                    /* Yes, Return oldest message received 
 735:..\..\..\..\..\..\Software\uCOS-III\Source/os_task.c ****     }
 736:..\..\..\..\..\..\Software\uCOS-III\Source/os_task.c **** 
 737:..\..\..\..\..\..\Software\uCOS-III\Source/os_task.c ****     if ((opt & OS_OPT_PEND_NON_BLOCKING) != (OS_OPT)0) {    /* Caller wants to block if not availab
 738:..\..\..\..\..\..\Software\uCOS-III\Source/os_task.c ****        *p_err = OS_ERR_PEND_WOULD_BLOCK;                    /* No                                  
 739:..\..\..\..\..\..\Software\uCOS-III\Source/os_task.c ****         CPU_CRITICAL_EXIT();
 740:..\..\..\..\..\..\Software\uCOS-III\Source/os_task.c ****         return ((void *)0);
 741:..\..\..\..\..\..\Software\uCOS-III\Source/os_task.c ****     } else {                                                /* Yes                                 
 742:..\..\..\..\..\..\Software\uCOS-III\Source/os_task.c ****         if (OSSchedLockNestingCtr > (OS_NESTING_CTR)0) {    /*     Can't block when the scheduler i
 743:..\..\..\..\..\..\Software\uCOS-III\Source/os_task.c ****             CPU_CRITICAL_EXIT();
 744:..\..\..\..\..\..\Software\uCOS-III\Source/os_task.c ****            *p_err = OS_ERR_SCHED_LOCKED;
 745:..\..\..\..\..\..\Software\uCOS-III\Source/os_task.c ****             return ((void *)0);
 746:..\..\..\..\..\..\Software\uCOS-III\Source/os_task.c ****         }
 747:..\..\..\..\..\..\Software\uCOS-III\Source/os_task.c ****     }
 748:..\..\..\..\..\..\Software\uCOS-III\Source/os_task.c ****                                                             /* Lock the scheduler/re-enable interru
 749:..\..\..\..\..\..\Software\uCOS-III\Source/os_task.c ****     OS_CRITICAL_ENTER_CPU_EXIT();
 750:..\..\..\..\..\..\Software\uCOS-III\Source/os_task.c ****     OS_Pend((OS_PEND_DATA *)0,                              /* Block task pending on Message       
 751:..\..\..\..\..\..\Software\uCOS-III\Source/os_task.c ****             (OS_PEND_OBJ  *)0,
 752:..\..\..\..\..\..\Software\uCOS-III\Source/os_task.c ****             (OS_STATE      )OS_TASK_PEND_ON_TASK_Q,
 753:..\..\..\..\..\..\Software\uCOS-III\Source/os_task.c ****             (OS_TICK       )timeout);
 754:..\..\..\..\..\..\Software\uCOS-III\Source/os_task.c ****     OS_CRITICAL_EXIT_NO_SCHED();
 755:..\..\..\..\..\..\Software\uCOS-III\Source/os_task.c **** 
 756:..\..\..\..\..\..\Software\uCOS-III\Source/os_task.c ****     OSSched();                                              /* Find the next highest priority task 
 757:..\..\..\..\..\..\Software\uCOS-III\Source/os_task.c **** 
 758:..\..\..\..\..\..\Software\uCOS-III\Source/os_task.c ****     CPU_CRITICAL_ENTER();
 759:..\..\..\..\..\..\Software\uCOS-III\Source/os_task.c ****     switch (OSTCBCurPtr->PendStatus) {
 760:..\..\..\..\..\..\Software\uCOS-III\Source/os_task.c ****         case OS_STATUS_PEND_OK:                             /* Extract message from TCB (Put there 
 761:..\..\..\..\..\..\Software\uCOS-III\Source/os_task.c ****              p_void      = OSTCBCurPtr->MsgPtr;
 762:..\..\..\..\..\..\Software\uCOS-III\Source/os_task.c ****             *p_msg_size  = OSTCBCurPtr->MsgSize;
 763:..\..\..\..\..\..\Software\uCOS-III\Source/os_task.c ****              if (p_ts != (CPU_TS *)0) {
 764:..\..\..\..\..\..\Software\uCOS-III\Source/os_task.c ****                 *p_ts  = OSTCBCurPtr->TS;
 765:..\..\..\..\..\..\Software\uCOS-III\Source/os_task.c **** #if OS_CFG_TASK_PROFILE_EN > 0u
 766:..\..\..\..\..\..\Software\uCOS-III\Source/os_task.c ****                 OSTCBCurPtr->MsgQPendTime = OS_TS_GET() - OSTCBCurPtr->TS;
 767:..\..\..\..\..\..\Software\uCOS-III\Source/os_task.c ****                 if (OSTCBCurPtr->MsgQPendTimeMax < OSTCBCurPtr->MsgQPendTime) {
 768:..\..\..\..\..\..\Software\uCOS-III\Source/os_task.c ****                     OSTCBCurPtr->MsgQPendTimeMax = OSTCBCurPtr->MsgQPendTime;
 769:..\..\..\..\..\..\Software\uCOS-III\Source/os_task.c ****                 }
 770:..\..\..\..\..\..\Software\uCOS-III\Source/os_task.c **** #endif
 771:..\..\..\..\..\..\Software\uCOS-III\Source/os_task.c ****              }
 772:..\..\..\..\..\..\Software\uCOS-III\Source/os_task.c ****             *p_err = OS_ERR_NONE;
 773:..\..\..\..\..\..\Software\uCOS-III\Source/os_task.c ****              break;
 774:..\..\..\..\..\..\Software\uCOS-III\Source/os_task.c **** 
 775:..\..\..\..\..\..\Software\uCOS-III\Source/os_task.c ****         case OS_STATUS_PEND_ABORT:                          /* Indicate that we aborted            
 776:..\..\..\..\..\..\Software\uCOS-III\Source/os_task.c ****              p_void     = (void      *)0;
 777:..\..\..\..\..\..\Software\uCOS-III\Source/os_task.c ****             *p_msg_size = (OS_MSG_SIZE)0;
 778:..\..\..\..\..\..\Software\uCOS-III\Source/os_task.c ****              if (p_ts  != (CPU_TS *)0) {
 779:..\..\..\..\..\..\Software\uCOS-III\Source/os_task.c ****                 *p_ts   = (CPU_TS  )0;
 780:..\..\..\..\..\..\Software\uCOS-III\Source/os_task.c ****              }
 781:..\..\..\..\..\..\Software\uCOS-III\Source/os_task.c ****             *p_err      =  OS_ERR_PEND_ABORT;
 782:..\..\..\..\..\..\Software\uCOS-III\Source/os_task.c ****              break;
 783:..\..\..\..\..\..\Software\uCOS-III\Source/os_task.c **** 
 784:..\..\..\..\..\..\Software\uCOS-III\Source/os_task.c ****         case OS_STATUS_PEND_TIMEOUT:                        /* Indicate that we didn't get event wi
ARM GAS  C:\Users\EDULU~1.DES\AppData\Local\Temp\ccyhp2HA.s 			page 26


 785:..\..\..\..\..\..\Software\uCOS-III\Source/os_task.c ****         default:
 786:..\..\..\..\..\..\Software\uCOS-III\Source/os_task.c ****              p_void     = (void      *)0;
 787:..\..\..\..\..\..\Software\uCOS-III\Source/os_task.c ****             *p_msg_size = (OS_MSG_SIZE)0;
 788:..\..\..\..\..\..\Software\uCOS-III\Source/os_task.c ****              if (p_ts  != (CPU_TS *)0) {
 789:..\..\..\..\..\..\Software\uCOS-III\Source/os_task.c ****                 *p_ts   =  OSTCBCurPtr->TS;
 790:..\..\..\..\..\..\Software\uCOS-III\Source/os_task.c ****              }
 791:..\..\..\..\..\..\Software\uCOS-III\Source/os_task.c ****             *p_err      =  OS_ERR_TIMEOUT;
 792:..\..\..\..\..\..\Software\uCOS-III\Source/os_task.c ****              break;
 793:..\..\..\..\..\..\Software\uCOS-III\Source/os_task.c ****     }
 794:..\..\..\..\..\..\Software\uCOS-III\Source/os_task.c ****     CPU_CRITICAL_EXIT();
 795:..\..\..\..\..\..\Software\uCOS-III\Source/os_task.c ****     return (p_void);                                        /* Return received message             
 796:..\..\..\..\..\..\Software\uCOS-III\Source/os_task.c **** }
 797:..\..\..\..\..\..\Software\uCOS-III\Source/os_task.c **** #endif
 798:..\..\..\..\..\..\Software\uCOS-III\Source/os_task.c **** 
 799:..\..\..\..\..\..\Software\uCOS-III\Source/os_task.c **** /*$PAGE*/
 800:..\..\..\..\..\..\Software\uCOS-III\Source/os_task.c **** /*
 801:..\..\..\..\..\..\Software\uCOS-III\Source/os_task.c **** ***************************************************************************************************
 802:..\..\..\..\..\..\Software\uCOS-III\Source/os_task.c **** *                                              ABORT WAITING FOR A MESSAGE
 803:..\..\..\..\..\..\Software\uCOS-III\Source/os_task.c **** *
 804:..\..\..\..\..\..\Software\uCOS-III\Source/os_task.c **** * Description: This function aborts & readies the task specified.  This function should be used to 
 805:..\..\..\..\..\..\Software\uCOS-III\Source/os_task.c **** *              for a message, rather than to normally post the message to the task via OSTaskQPost(
 806:..\..\..\..\..\..\Software\uCOS-III\Source/os_task.c **** *
 807:..\..\..\..\..\..\Software\uCOS-III\Source/os_task.c **** * Arguments  : p_tcb     is a pointer to the task to pend abort
 808:..\..\..\..\..\..\Software\uCOS-III\Source/os_task.c **** *
 809:..\..\..\..\..\..\Software\uCOS-III\Source/os_task.c **** *              opt       provides options for this function:
 810:..\..\..\..\..\..\Software\uCOS-III\Source/os_task.c **** *
 811:..\..\..\..\..\..\Software\uCOS-III\Source/os_task.c **** *                            OS_OPT_POST_NONE         No option specified
 812:..\..\..\..\..\..\Software\uCOS-III\Source/os_task.c **** *                            OS_OPT_POST_NO_SCHED     Indicates that the scheduler will not be call
 813:..\..\..\..\..\..\Software\uCOS-III\Source/os_task.c **** *
 814:..\..\..\..\..\..\Software\uCOS-III\Source/os_task.c **** *              p_err     is a pointer to a variable that will contain an error code returned by thi
 815:..\..\..\..\..\..\Software\uCOS-III\Source/os_task.c **** *
 816:..\..\..\..\..\..\Software\uCOS-III\Source/os_task.c **** *                            OS_ERR_NONE              If the task was readied and informed of the a
 817:..\..\..\..\..\..\Software\uCOS-III\Source/os_task.c **** *                            OS_ERR_PEND_ABORT_ISR    If you called this function from an ISR
 818:..\..\..\..\..\..\Software\uCOS-III\Source/os_task.c **** *                            OS_ERR_PEND_ABORT_NONE   If task was not pending on a message and thus
 819:..\..\..\..\..\..\Software\uCOS-III\Source/os_task.c **** *                                                     abort.
 820:..\..\..\..\..\..\Software\uCOS-III\Source/os_task.c **** *                            OS_ERR_PEND_ABORT_SELF   If you passed a NULL pointer for 'p_tcb'
 821:..\..\..\..\..\..\Software\uCOS-III\Source/os_task.c **** *
 822:..\..\..\..\..\..\Software\uCOS-III\Source/os_task.c **** * Returns    : == DEF_FALSE   if task was not waiting for a message, or upon error.
 823:..\..\..\..\..\..\Software\uCOS-III\Source/os_task.c **** *              == DEF_TRUE    if task was waiting for a message and was readied and informed.
 824:..\..\..\..\..\..\Software\uCOS-III\Source/os_task.c **** ***************************************************************************************************
 825:..\..\..\..\..\..\Software\uCOS-III\Source/os_task.c **** */
 826:..\..\..\..\..\..\Software\uCOS-III\Source/os_task.c **** 
 827:..\..\..\..\..\..\Software\uCOS-III\Source/os_task.c **** #if (OS_CFG_TASK_Q_EN > 0u) && (OS_CFG_TASK_Q_PEND_ABORT_EN > 0u)
 828:..\..\..\..\..\..\Software\uCOS-III\Source/os_task.c **** CPU_BOOLEAN  OSTaskQPendAbort (OS_TCB  *p_tcb,
 829:..\..\..\..\..\..\Software\uCOS-III\Source/os_task.c ****                                OS_OPT   opt,
 830:..\..\..\..\..\..\Software\uCOS-III\Source/os_task.c ****                                OS_ERR  *p_err)
 831:..\..\..\..\..\..\Software\uCOS-III\Source/os_task.c **** {
 832:..\..\..\..\..\..\Software\uCOS-III\Source/os_task.c ****     CPU_TS         ts;
 833:..\..\..\..\..\..\Software\uCOS-III\Source/os_task.c ****     CPU_SR_ALLOC();
 834:..\..\..\..\..\..\Software\uCOS-III\Source/os_task.c **** 
 835:..\..\..\..\..\..\Software\uCOS-III\Source/os_task.c **** 
 836:..\..\..\..\..\..\Software\uCOS-III\Source/os_task.c **** 
 837:..\..\..\..\..\..\Software\uCOS-III\Source/os_task.c **** #ifdef OS_SAFETY_CRITICAL
 838:..\..\..\..\..\..\Software\uCOS-III\Source/os_task.c ****     if (p_err == (OS_ERR *)0) {
 839:..\..\..\..\..\..\Software\uCOS-III\Source/os_task.c ****         OS_SAFETY_CRITICAL_EXCEPTION();
 840:..\..\..\..\..\..\Software\uCOS-III\Source/os_task.c ****         return (DEF_FALSE);
 841:..\..\..\..\..\..\Software\uCOS-III\Source/os_task.c ****     }
ARM GAS  C:\Users\EDULU~1.DES\AppData\Local\Temp\ccyhp2HA.s 			page 27


 842:..\..\..\..\..\..\Software\uCOS-III\Source/os_task.c **** #endif
 843:..\..\..\..\..\..\Software\uCOS-III\Source/os_task.c **** 
 844:..\..\..\..\..\..\Software\uCOS-III\Source/os_task.c **** #if OS_CFG_CALLED_FROM_ISR_CHK_EN > 0u
 845:..\..\..\..\..\..\Software\uCOS-III\Source/os_task.c ****     if (OSIntNestingCtr > (OS_NESTING_CTR)0) {              /* See if called from ISR ...          
 846:..\..\..\..\..\..\Software\uCOS-III\Source/os_task.c ****        *p_err = OS_ERR_PEND_ABORT_ISR;                      /* ... can't Pend Abort from an ISR    
 847:..\..\..\..\..\..\Software\uCOS-III\Source/os_task.c ****         return (DEF_FALSE);
 848:..\..\..\..\..\..\Software\uCOS-III\Source/os_task.c ****     }
 849:..\..\..\..\..\..\Software\uCOS-III\Source/os_task.c **** #endif
 850:..\..\..\..\..\..\Software\uCOS-III\Source/os_task.c **** 
 851:..\..\..\..\..\..\Software\uCOS-III\Source/os_task.c **** #if OS_CFG_ARG_CHK_EN > 0u                                  /* ---------------- VALIDATE ARGUMENTS 
 852:..\..\..\..\..\..\Software\uCOS-III\Source/os_task.c ****     switch (opt) {                                          /* User must supply a valid option     
 853:..\..\..\..\..\..\Software\uCOS-III\Source/os_task.c ****         case OS_OPT_POST_NONE:
 854:..\..\..\..\..\..\Software\uCOS-III\Source/os_task.c ****         case OS_OPT_POST_NO_SCHED:
 855:..\..\..\..\..\..\Software\uCOS-III\Source/os_task.c ****              break;
 856:..\..\..\..\..\..\Software\uCOS-III\Source/os_task.c **** 
 857:..\..\..\..\..\..\Software\uCOS-III\Source/os_task.c ****         default:
 858:..\..\..\..\..\..\Software\uCOS-III\Source/os_task.c ****             *p_err = OS_ERR_OPT_INVALID;
 859:..\..\..\..\..\..\Software\uCOS-III\Source/os_task.c ****              return (DEF_FALSE);
 860:..\..\..\..\..\..\Software\uCOS-III\Source/os_task.c ****     }
 861:..\..\..\..\..\..\Software\uCOS-III\Source/os_task.c **** #endif
 862:..\..\..\..\..\..\Software\uCOS-III\Source/os_task.c **** 
 863:..\..\..\..\..\..\Software\uCOS-III\Source/os_task.c ****     CPU_CRITICAL_ENTER();
 864:..\..\..\..\..\..\Software\uCOS-III\Source/os_task.c **** #if OS_CFG_ARG_CHK_EN > 0u
 865:..\..\..\..\..\..\Software\uCOS-III\Source/os_task.c ****     if ((p_tcb == (OS_TCB *)0) ||                           /* Pend abort self?                    
 866:..\..\..\..\..\..\Software\uCOS-III\Source/os_task.c ****         (p_tcb == OSTCBCurPtr)) {
 867:..\..\..\..\..\..\Software\uCOS-III\Source/os_task.c ****         CPU_CRITICAL_EXIT();
 868:..\..\..\..\..\..\Software\uCOS-III\Source/os_task.c ****        *p_err = OS_ERR_PEND_ABORT_SELF;                     /* ... doesn't make sense              
 869:..\..\..\..\..\..\Software\uCOS-III\Source/os_task.c ****         return (DEF_FALSE);
 870:..\..\..\..\..\..\Software\uCOS-III\Source/os_task.c ****     }
 871:..\..\..\..\..\..\Software\uCOS-III\Source/os_task.c **** #endif
 872:..\..\..\..\..\..\Software\uCOS-III\Source/os_task.c **** 
 873:..\..\..\..\..\..\Software\uCOS-III\Source/os_task.c ****     if (p_tcb->PendOn != OS_TASK_PEND_ON_TASK_Q) {          /* Is task waiting for a message?      
 874:..\..\..\..\..\..\Software\uCOS-III\Source/os_task.c ****         CPU_CRITICAL_EXIT();                                /* No                                  
 875:..\..\..\..\..\..\Software\uCOS-III\Source/os_task.c ****        *p_err = OS_ERR_PEND_ABORT_NONE;
 876:..\..\..\..\..\..\Software\uCOS-III\Source/os_task.c ****         return (DEF_FALSE);
 877:..\..\..\..\..\..\Software\uCOS-III\Source/os_task.c ****     }
 878:..\..\..\..\..\..\Software\uCOS-III\Source/os_task.c **** 
 879:..\..\..\..\..\..\Software\uCOS-III\Source/os_task.c ****     OS_CRITICAL_ENTER_CPU_EXIT();
 880:..\..\..\..\..\..\Software\uCOS-III\Source/os_task.c ****     ts = OS_TS_GET();                                       /* Get timestamp of when the abort occu
 881:..\..\..\..\..\..\Software\uCOS-III\Source/os_task.c ****     OS_PendAbort((OS_PEND_OBJ *)0,                          /* Abort the pend                      
 882:..\..\..\..\..\..\Software\uCOS-III\Source/os_task.c ****                  p_tcb,
 883:..\..\..\..\..\..\Software\uCOS-III\Source/os_task.c ****                  ts);
 884:..\..\..\..\..\..\Software\uCOS-III\Source/os_task.c ****     OS_CRITICAL_EXIT_NO_SCHED();
 885:..\..\..\..\..\..\Software\uCOS-III\Source/os_task.c ****     if ((opt & OS_OPT_POST_NO_SCHED) == (OS_OPT)0) {
 886:..\..\..\..\..\..\Software\uCOS-III\Source/os_task.c ****         OSSched();                                          /* Run the scheduler                   
 887:..\..\..\..\..\..\Software\uCOS-III\Source/os_task.c ****     }
 888:..\..\..\..\..\..\Software\uCOS-III\Source/os_task.c ****    *p_err = OS_ERR_NONE;
 889:..\..\..\..\..\..\Software\uCOS-III\Source/os_task.c ****     return (DEF_TRUE);
 890:..\..\..\..\..\..\Software\uCOS-III\Source/os_task.c **** }
 891:..\..\..\..\..\..\Software\uCOS-III\Source/os_task.c **** #endif
 892:..\..\..\..\..\..\Software\uCOS-III\Source/os_task.c **** 
 893:..\..\..\..\..\..\Software\uCOS-III\Source/os_task.c **** /*$PAGE*/
 894:..\..\..\..\..\..\Software\uCOS-III\Source/os_task.c **** /*
 895:..\..\..\..\..\..\Software\uCOS-III\Source/os_task.c **** ***************************************************************************************************
 896:..\..\..\..\..\..\Software\uCOS-III\Source/os_task.c **** *                                               POST MESSAGE TO A TASK
 897:..\..\..\..\..\..\Software\uCOS-III\Source/os_task.c **** *
 898:..\..\..\..\..\..\Software\uCOS-III\Source/os_task.c **** * Description: This function sends a message to a task
ARM GAS  C:\Users\EDULU~1.DES\AppData\Local\Temp\ccyhp2HA.s 			page 28


 899:..\..\..\..\..\..\Software\uCOS-III\Source/os_task.c **** *
 900:..\..\..\..\..\..\Software\uCOS-III\Source/os_task.c **** * Arguments  : p_tcb      is a pointer to the TCB of the task receiving a message.  If you specify 
 901:..\..\..\..\..\..\Software\uCOS-III\Source/os_task.c **** *                         the message will be posted to the task's queue of the calling task.  In o
 902:..\..\..\..\..\..\Software\uCOS-III\Source/os_task.c **** *                         posting a message to yourself.
 903:..\..\..\..\..\..\Software\uCOS-III\Source/os_task.c **** *
 904:..\..\..\..\..\..\Software\uCOS-III\Source/os_task.c **** *              p_void     is a pointer to the message to send.
 905:..\..\..\..\..\..\Software\uCOS-III\Source/os_task.c **** *
 906:..\..\..\..\..\..\Software\uCOS-III\Source/os_task.c **** *              msg_size   is the size of the message sent (in #bytes)
 907:..\..\..\..\..\..\Software\uCOS-III\Source/os_task.c **** *
 908:..\..\..\..\..\..\Software\uCOS-III\Source/os_task.c **** *              opt        specifies whether the post will be FIFO or LIFO:
 909:..\..\..\..\..\..\Software\uCOS-III\Source/os_task.c **** *
 910:..\..\..\..\..\..\Software\uCOS-III\Source/os_task.c **** *                             OS_OPT_POST_FIFO       Post at the end   of the queue
 911:..\..\..\..\..\..\Software\uCOS-III\Source/os_task.c **** *                             OS_OPT_POST_LIFO       Post at the front of the queue
 912:..\..\..\..\..\..\Software\uCOS-III\Source/os_task.c **** *
 913:..\..\..\..\..\..\Software\uCOS-III\Source/os_task.c **** *                             OS_OPT_POST_NO_SCHED   Do not run the scheduler after the post
 914:..\..\..\..\..\..\Software\uCOS-III\Source/os_task.c **** *
 915:..\..\..\..\..\..\Software\uCOS-III\Source/os_task.c **** *                          Note(s): 1) OS_OPT_POST_NO_SCHED can be added with one of the other opti
 916:..\..\..\..\..\..\Software\uCOS-III\Source/os_task.c **** *
 917:..\..\..\..\..\..\Software\uCOS-III\Source/os_task.c **** *
 918:..\..\..\..\..\..\Software\uCOS-III\Source/os_task.c **** *              p_err      is a pointer to a variable that will hold the error code associated
 919:..\..\..\..\..\..\Software\uCOS-III\Source/os_task.c **** *                         with the outcome of this call.  Errors can be:
 920:..\..\..\..\..\..\Software\uCOS-III\Source/os_task.c **** *
 921:..\..\..\..\..\..\Software\uCOS-III\Source/os_task.c **** *                             OS_ERR_NONE            The call was successful and the message was se
 922:..\..\..\..\..\..\Software\uCOS-III\Source/os_task.c **** *                             OS_ERR_Q_MAX           If the queue is full
 923:..\..\..\..\..\..\Software\uCOS-III\Source/os_task.c **** *                             OS_ERR_MSG_POOL_EMPTY  If there are no more OS_MSGs available from th
 924:..\..\..\..\..\..\Software\uCOS-III\Source/os_task.c **** *
 925:..\..\..\..\..\..\Software\uCOS-III\Source/os_task.c **** * Returns    : none
 926:..\..\..\..\..\..\Software\uCOS-III\Source/os_task.c **** ***************************************************************************************************
 927:..\..\..\..\..\..\Software\uCOS-III\Source/os_task.c **** */
 928:..\..\..\..\..\..\Software\uCOS-III\Source/os_task.c **** 
 929:..\..\..\..\..\..\Software\uCOS-III\Source/os_task.c **** #if OS_CFG_TASK_Q_EN > 0u
 930:..\..\..\..\..\..\Software\uCOS-III\Source/os_task.c **** void  OSTaskQPost (OS_TCB       *p_tcb,
 931:..\..\..\..\..\..\Software\uCOS-III\Source/os_task.c ****                    void         *p_void,
 932:..\..\..\..\..\..\Software\uCOS-III\Source/os_task.c ****                    OS_MSG_SIZE   msg_size,
 933:..\..\..\..\..\..\Software\uCOS-III\Source/os_task.c ****                    OS_OPT        opt,
 934:..\..\..\..\..\..\Software\uCOS-III\Source/os_task.c ****                    OS_ERR       *p_err)
 935:..\..\..\..\..\..\Software\uCOS-III\Source/os_task.c **** {
 936:..\..\..\..\..\..\Software\uCOS-III\Source/os_task.c ****     CPU_TS   ts;
 937:..\..\..\..\..\..\Software\uCOS-III\Source/os_task.c **** 
 938:..\..\..\..\..\..\Software\uCOS-III\Source/os_task.c **** 
 939:..\..\..\..\..\..\Software\uCOS-III\Source/os_task.c **** 
 940:..\..\..\..\..\..\Software\uCOS-III\Source/os_task.c **** #ifdef OS_SAFETY_CRITICAL
 941:..\..\..\..\..\..\Software\uCOS-III\Source/os_task.c ****     if (p_err == (OS_ERR *)0) {
 942:..\..\..\..\..\..\Software\uCOS-III\Source/os_task.c ****         OS_SAFETY_CRITICAL_EXCEPTION();
 943:..\..\..\..\..\..\Software\uCOS-III\Source/os_task.c ****         return;
 944:..\..\..\..\..\..\Software\uCOS-III\Source/os_task.c ****     }
 945:..\..\..\..\..\..\Software\uCOS-III\Source/os_task.c **** #endif
 946:..\..\..\..\..\..\Software\uCOS-III\Source/os_task.c **** 
 947:..\..\..\..\..\..\Software\uCOS-III\Source/os_task.c **** #if OS_CFG_ARG_CHK_EN > 0u                                  /* ---------------- VALIDATE ARGUMENTS 
 948:..\..\..\..\..\..\Software\uCOS-III\Source/os_task.c ****     switch (opt) {                                          /* User must supply a valid option     
 949:..\..\..\..\..\..\Software\uCOS-III\Source/os_task.c ****         case OS_OPT_POST_FIFO:
 950:..\..\..\..\..\..\Software\uCOS-III\Source/os_task.c ****         case OS_OPT_POST_LIFO:
 951:..\..\..\..\..\..\Software\uCOS-III\Source/os_task.c ****         case OS_OPT_POST_FIFO | OS_OPT_POST_NO_SCHED:
 952:..\..\..\..\..\..\Software\uCOS-III\Source/os_task.c ****         case OS_OPT_POST_LIFO | OS_OPT_POST_NO_SCHED:
 953:..\..\..\..\..\..\Software\uCOS-III\Source/os_task.c ****              break;
 954:..\..\..\..\..\..\Software\uCOS-III\Source/os_task.c **** 
 955:..\..\..\..\..\..\Software\uCOS-III\Source/os_task.c ****         default:
ARM GAS  C:\Users\EDULU~1.DES\AppData\Local\Temp\ccyhp2HA.s 			page 29


 956:..\..\..\..\..\..\Software\uCOS-III\Source/os_task.c ****             *p_err = OS_ERR_OPT_INVALID;
 957:..\..\..\..\..\..\Software\uCOS-III\Source/os_task.c ****              return;
 958:..\..\..\..\..\..\Software\uCOS-III\Source/os_task.c ****     }
 959:..\..\..\..\..\..\Software\uCOS-III\Source/os_task.c **** #endif
 960:..\..\..\..\..\..\Software\uCOS-III\Source/os_task.c **** 
 961:..\..\..\..\..\..\Software\uCOS-III\Source/os_task.c ****     ts = OS_TS_GET();                                       /* Get timestamp                       
 962:..\..\..\..\..\..\Software\uCOS-III\Source/os_task.c **** 
 963:..\..\..\..\..\..\Software\uCOS-III\Source/os_task.c **** #if OS_CFG_ISR_POST_DEFERRED_EN > 0u
 964:..\..\..\..\..\..\Software\uCOS-III\Source/os_task.c ****     if (OSIntNestingCtr > (OS_NESTING_CTR)0) {
 965:..\..\..\..\..\..\Software\uCOS-III\Source/os_task.c ****         OS_IntQPost((OS_OBJ_TYPE)OS_OBJ_TYPE_TASK_MSG,      /* Post to ISR queue                   
 966:..\..\..\..\..\..\Software\uCOS-III\Source/os_task.c ****                     (void      *)p_tcb,
 967:..\..\..\..\..\..\Software\uCOS-III\Source/os_task.c ****                     (void      *)p_void,
 968:..\..\..\..\..\..\Software\uCOS-III\Source/os_task.c ****                     (OS_MSG_SIZE)msg_size,
 969:..\..\..\..\..\..\Software\uCOS-III\Source/os_task.c ****                     (OS_FLAGS   )0,
 970:..\..\..\..\..\..\Software\uCOS-III\Source/os_task.c ****                     (OS_OPT     )opt,
 971:..\..\..\..\..\..\Software\uCOS-III\Source/os_task.c ****                     (CPU_TS     )ts,
 972:..\..\..\..\..\..\Software\uCOS-III\Source/os_task.c ****                     (OS_ERR    *)p_err);
 973:..\..\..\..\..\..\Software\uCOS-III\Source/os_task.c ****         return;
 974:..\..\..\..\..\..\Software\uCOS-III\Source/os_task.c ****     }
 975:..\..\..\..\..\..\Software\uCOS-III\Source/os_task.c **** #endif
 976:..\..\..\..\..\..\Software\uCOS-III\Source/os_task.c **** 
 977:..\..\..\..\..\..\Software\uCOS-III\Source/os_task.c ****     OS_TaskQPost(p_tcb,
 978:..\..\..\..\..\..\Software\uCOS-III\Source/os_task.c ****                  p_void,
 979:..\..\..\..\..\..\Software\uCOS-III\Source/os_task.c ****                  msg_size,
 980:..\..\..\..\..\..\Software\uCOS-III\Source/os_task.c ****                  opt,
 981:..\..\..\..\..\..\Software\uCOS-III\Source/os_task.c ****                  ts,
 982:..\..\..\..\..\..\Software\uCOS-III\Source/os_task.c ****                  p_err);
 983:..\..\..\..\..\..\Software\uCOS-III\Source/os_task.c **** }
 984:..\..\..\..\..\..\Software\uCOS-III\Source/os_task.c **** #endif
 985:..\..\..\..\..\..\Software\uCOS-III\Source/os_task.c **** 
 986:..\..\..\..\..\..\Software\uCOS-III\Source/os_task.c **** /*$PAGE*/
 987:..\..\..\..\..\..\Software\uCOS-III\Source/os_task.c **** /*
 988:..\..\..\..\..\..\Software\uCOS-III\Source/os_task.c **** ***************************************************************************************************
 989:..\..\..\..\..\..\Software\uCOS-III\Source/os_task.c **** *                                       GET THE CURRENT VALUE OF A TASK REGISTER
 990:..\..\..\..\..\..\Software\uCOS-III\Source/os_task.c **** *
 991:..\..\..\..\..\..\Software\uCOS-III\Source/os_task.c **** * Description: This function is called to obtain the current value of a task register.  Task regist
 992:..\..\..\..\..\..\Software\uCOS-III\Source/os_task.c **** *              specific and can be used to store task specific values such as 'error numbers' (i.e.
 993:..\..\..\..\..\..\Software\uCOS-III\Source/os_task.c **** *              etc.
 994:..\..\..\..\..\..\Software\uCOS-III\Source/os_task.c **** *
 995:..\..\..\..\..\..\Software\uCOS-III\Source/os_task.c **** * Arguments  : p_tcb     is a pointer to the OS_TCB of the task you want to read the register from.
 996:..\..\..\..\..\..\Software\uCOS-III\Source/os_task.c **** *                        NULL pointer then you will get the register of the current task.
 997:..\..\..\..\..\..\Software\uCOS-III\Source/os_task.c **** *
 998:..\..\..\..\..\..\Software\uCOS-III\Source/os_task.c **** *              id        is the 'id' of the desired task variable.  Note that the 'id' must be less
 999:..\..\..\..\..\..\Software\uCOS-III\Source/os_task.c **** *                        OS_CFG_TASK_REG_TBL_SIZE
1000:..\..\..\..\..\..\Software\uCOS-III\Source/os_task.c **** *
1001:..\..\..\..\..\..\Software\uCOS-III\Source/os_task.c **** *              p_err     is a pointer to a variable that will hold an error code related to this ca
1002:..\..\..\..\..\..\Software\uCOS-III\Source/os_task.c **** *
1003:..\..\..\..\..\..\Software\uCOS-III\Source/os_task.c **** *                            OS_ERR_NONE            if the call was successful
1004:..\..\..\..\..\..\Software\uCOS-III\Source/os_task.c **** *                            OS_ERR_REG_ID_INVALID  if the 'id' is not between 0 and OS_CFG_TASK_RE
1005:..\..\..\..\..\..\Software\uCOS-III\Source/os_task.c **** *
1006:..\..\..\..\..\..\Software\uCOS-III\Source/os_task.c **** * Returns    : The current value of the task's register or 0 if an error is detected.
1007:..\..\..\..\..\..\Software\uCOS-III\Source/os_task.c **** ***************************************************************************************************
1008:..\..\..\..\..\..\Software\uCOS-III\Source/os_task.c **** */
1009:..\..\..\..\..\..\Software\uCOS-III\Source/os_task.c **** 
1010:..\..\..\..\..\..\Software\uCOS-III\Source/os_task.c **** #if OS_CFG_TASK_REG_TBL_SIZE > 0u
1011:..\..\..\..\..\..\Software\uCOS-III\Source/os_task.c **** OS_REG  OSTaskRegGet (OS_TCB     *p_tcb,
1012:..\..\..\..\..\..\Software\uCOS-III\Source/os_task.c ****                       OS_REG_ID   id,
ARM GAS  C:\Users\EDULU~1.DES\AppData\Local\Temp\ccyhp2HA.s 			page 30


1013:..\..\..\..\..\..\Software\uCOS-III\Source/os_task.c ****                       OS_ERR     *p_err)
1014:..\..\..\..\..\..\Software\uCOS-III\Source/os_task.c **** {
 637              		.loc 1 1014 0
 638              		.cfi_startproc
 639              		@ args = 0, pretend = 0, frame = 24
 640              		@ frame_needed = 1, uses_anonymous_args = 0
 641 0000 80B5     		push	{r7, lr}
 642              		.cfi_def_cfa_offset 8
 643              		.cfi_offset 7, -8
 644              		.cfi_offset 14, -4
 645 0002 86B0     		sub	sp, sp, #24
 646              		.cfi_def_cfa_offset 32
 647 0004 00AF     		add	r7, sp, #0
 648              		.cfi_def_cfa_register 7
 649 0006 F860     		str	r0, [r7, #12]
 650 0008 7A60     		str	r2, [r7, #4]
 651 000a 0B23     		movs	r3, #11
 652 000c FB18     		adds	r3, r7, r3
 653 000e 0A1C     		adds	r2, r1, #0
 654 0010 1A70     		strb	r2, [r3]
1015:..\..\..\..\..\..\Software\uCOS-III\Source/os_task.c ****     OS_REG     value;
1016:..\..\..\..\..\..\Software\uCOS-III\Source/os_task.c ****     CPU_SR_ALLOC();
 655              		.loc 1 1016 0
 656 0012 0023     		movs	r3, #0
 657 0014 7B61     		str	r3, [r7, #20]
1017:..\..\..\..\..\..\Software\uCOS-III\Source/os_task.c **** 
1018:..\..\..\..\..\..\Software\uCOS-III\Source/os_task.c **** 
1019:..\..\..\..\..\..\Software\uCOS-III\Source/os_task.c **** 
1020:..\..\..\..\..\..\Software\uCOS-III\Source/os_task.c **** #ifdef OS_SAFETY_CRITICAL
1021:..\..\..\..\..\..\Software\uCOS-III\Source/os_task.c ****     if (p_err == (OS_ERR *)0) {
1022:..\..\..\..\..\..\Software\uCOS-III\Source/os_task.c ****         OS_SAFETY_CRITICAL_EXCEPTION();
1023:..\..\..\..\..\..\Software\uCOS-III\Source/os_task.c ****         return ((OS_REG)0);
1024:..\..\..\..\..\..\Software\uCOS-III\Source/os_task.c ****     }
1025:..\..\..\..\..\..\Software\uCOS-III\Source/os_task.c **** #endif
1026:..\..\..\..\..\..\Software\uCOS-III\Source/os_task.c **** 
1027:..\..\..\..\..\..\Software\uCOS-III\Source/os_task.c **** #if OS_CFG_ARG_CHK_EN > 0u
1028:..\..\..\..\..\..\Software\uCOS-III\Source/os_task.c ****     if (id >= OS_CFG_TASK_REG_TBL_SIZE) {
 658              		.loc 1 1028 0
 659 0016 0B23     		movs	r3, #11
 660 0018 FB18     		adds	r3, r7, r3
 661 001a 1B78     		ldrb	r3, [r3]
 662 001c 002B     		cmp	r3, #0
 663 001e 04D0     		beq	.L42
1029:..\..\..\..\..\..\Software\uCOS-III\Source/os_task.c ****        *p_err = OS_ERR_REG_ID_INVALID;
 664              		.loc 1 1029 0
 665 0020 7B68     		ldr	r3, [r7, #4]
 666 0022 144A     		ldr	r2, .L45
 667 0024 1A80     		strh	r2, [r3]
1030:..\..\..\..\..\..\Software\uCOS-III\Source/os_task.c ****         return ((OS_REG)0);
 668              		.loc 1 1030 0
 669 0026 0023     		movs	r3, #0
 670 0028 1FE0     		b	.L43
 671              	.L42:
1031:..\..\..\..\..\..\Software\uCOS-III\Source/os_task.c ****     }
1032:..\..\..\..\..\..\Software\uCOS-III\Source/os_task.c **** #endif
1033:..\..\..\..\..\..\Software\uCOS-III\Source/os_task.c **** 
1034:..\..\..\..\..\..\Software\uCOS-III\Source/os_task.c ****     CPU_CRITICAL_ENTER();
ARM GAS  C:\Users\EDULU~1.DES\AppData\Local\Temp\ccyhp2HA.s 			page 31


 672              		.loc 1 1034 0
 673 002a FFF7FEFF 		bl	CPU_SR_Save
 674 002e 0300     		movs	r3, r0
 675 0030 7B61     		str	r3, [r7, #20]
 676 0032 FFF7FEFF 		bl	CPU_IntDisMeasStart
1035:..\..\..\..\..\..\Software\uCOS-III\Source/os_task.c ****     if (p_tcb == (OS_TCB *)0) {
 677              		.loc 1 1035 0
 678 0036 FB68     		ldr	r3, [r7, #12]
 679 0038 002B     		cmp	r3, #0
 680 003a 02D1     		bne	.L44
1036:..\..\..\..\..\..\Software\uCOS-III\Source/os_task.c ****         p_tcb = OSTCBCurPtr;
 681              		.loc 1 1036 0
 682 003c 0E4B     		ldr	r3, .L45+4
 683 003e 1B68     		ldr	r3, [r3]
 684 0040 FB60     		str	r3, [r7, #12]
 685              	.L44:
1037:..\..\..\..\..\..\Software\uCOS-III\Source/os_task.c ****     }
1038:..\..\..\..\..\..\Software\uCOS-III\Source/os_task.c ****     value = p_tcb->RegTbl[id];
 686              		.loc 1 1038 0
 687 0042 0B23     		movs	r3, #11
 688 0044 FB18     		adds	r3, r7, r3
 689 0046 1B78     		ldrb	r3, [r3]
 690 0048 FA68     		ldr	r2, [r7, #12]
 691 004a 1633     		adds	r3, r3, #22
 692 004c 9B00     		lsls	r3, r3, #2
 693 004e D318     		adds	r3, r2, r3
 694 0050 0433     		adds	r3, r3, #4
 695 0052 1B68     		ldr	r3, [r3]
 696 0054 3B61     		str	r3, [r7, #16]
1039:..\..\..\..\..\..\Software\uCOS-III\Source/os_task.c ****     CPU_CRITICAL_EXIT();
 697              		.loc 1 1039 0
 698 0056 FFF7FEFF 		bl	CPU_IntDisMeasStop
 699 005a 7B69     		ldr	r3, [r7, #20]
 700 005c 1800     		movs	r0, r3
 701 005e FFF7FEFF 		bl	CPU_SR_Restore
1040:..\..\..\..\..\..\Software\uCOS-III\Source/os_task.c ****    *p_err = OS_ERR_NONE;
 702              		.loc 1 1040 0
 703 0062 7B68     		ldr	r3, [r7, #4]
 704 0064 0022     		movs	r2, #0
 705 0066 1A80     		strh	r2, [r3]
1041:..\..\..\..\..\..\Software\uCOS-III\Source/os_task.c ****     return ((OS_REG)value);
 706              		.loc 1 1041 0
 707 0068 3B69     		ldr	r3, [r7, #16]
 708              	.L43:
1042:..\..\..\..\..\..\Software\uCOS-III\Source/os_task.c **** }
 709              		.loc 1 1042 0
 710 006a 1800     		movs	r0, r3
 711 006c BD46     		mov	sp, r7
 712 006e 06B0     		add	sp, sp, #24
 713              		@ sp needed
 714 0070 80BD     		pop	{r7, pc}
 715              	.L46:
 716 0072 C046     		.align	2
 717              	.L45:
 718 0074 79690000 		.word	27001
 719 0078 00000000 		.word	OSTCBCurPtr
 720              		.cfi_endproc
ARM GAS  C:\Users\EDULU~1.DES\AppData\Local\Temp\ccyhp2HA.s 			page 32


 721              	.LFE3:
 722              		.size	OSTaskRegGet, .-OSTaskRegGet
 723              		.section	.text.OSTaskRegGetID,"ax",%progbits
 724              		.align	2
 725              		.global	OSTaskRegGetID
 726              		.code	16
 727              		.thumb_func
 728              		.type	OSTaskRegGetID, %function
 729              	OSTaskRegGetID:
 730              	.LFB4:
1043:..\..\..\..\..\..\Software\uCOS-III\Source/os_task.c **** #endif
1044:..\..\..\..\..\..\Software\uCOS-III\Source/os_task.c **** 
1045:..\..\..\..\..\..\Software\uCOS-III\Source/os_task.c **** /*$PAGE*/
1046:..\..\..\..\..\..\Software\uCOS-III\Source/os_task.c **** /*
1047:..\..\..\..\..\..\Software\uCOS-III\Source/os_task.c **** ***************************************************************************************************
1048:..\..\..\..\..\..\Software\uCOS-III\Source/os_task.c **** *                                    ALLOCATE THE NEXT AVAILABLE TASK REGISTER ID
1049:..\..\..\..\..\..\Software\uCOS-III\Source/os_task.c **** *
1050:..\..\..\..\..\..\Software\uCOS-III\Source/os_task.c **** * Description: This function is called to obtain a task register ID.  This function thus allows tas
1051:..\..\..\..\..\..\Software\uCOS-III\Source/os_task.c **** *              allocated dynamically instead of statically.
1052:..\..\..\..\..\..\Software\uCOS-III\Source/os_task.c **** *
1053:..\..\..\..\..\..\Software\uCOS-III\Source/os_task.c **** * Arguments  : p_err       is a pointer to a variable that will hold an error code related to this 
1054:..\..\..\..\..\..\Software\uCOS-III\Source/os_task.c **** *
1055:..\..\..\..\..\..\Software\uCOS-III\Source/os_task.c **** *                            OS_ERR_NONE               if the call was successful
1056:..\..\..\..\..\..\Software\uCOS-III\Source/os_task.c **** *                            OS_ERR_NO_MORE_ID_AVAIL   if you are attempting to assign more task re
1057:..\..\..\..\..\..\Software\uCOS-III\Source/os_task.c **** *                                                           have available through OS_CFG_TASK_REG_
1058:..\..\..\..\..\..\Software\uCOS-III\Source/os_task.c **** *
1059:..\..\..\..\..\..\Software\uCOS-III\Source/os_task.c **** * Returns    : The next available task register 'id' or OS_CFG_TASK_REG_TBL_SIZE if an error is det
1060:..\..\..\..\..\..\Software\uCOS-III\Source/os_task.c **** ***************************************************************************************************
1061:..\..\..\..\..\..\Software\uCOS-III\Source/os_task.c **** */
1062:..\..\..\..\..\..\Software\uCOS-III\Source/os_task.c **** 
1063:..\..\..\..\..\..\Software\uCOS-III\Source/os_task.c **** #if OS_CFG_TASK_REG_TBL_SIZE > 0u
1064:..\..\..\..\..\..\Software\uCOS-III\Source/os_task.c **** OS_REG_ID  OSTaskRegGetID (OS_ERR  *p_err)
1065:..\..\..\..\..\..\Software\uCOS-III\Source/os_task.c **** {
 731              		.loc 1 1065 0
 732              		.cfi_startproc
 733              		@ args = 0, pretend = 0, frame = 16
 734              		@ frame_needed = 1, uses_anonymous_args = 0
 735 0000 80B5     		push	{r7, lr}
 736              		.cfi_def_cfa_offset 8
 737              		.cfi_offset 7, -8
 738              		.cfi_offset 14, -4
 739 0002 84B0     		sub	sp, sp, #16
 740              		.cfi_def_cfa_offset 24
 741 0004 00AF     		add	r7, sp, #0
 742              		.cfi_def_cfa_register 7
 743 0006 7860     		str	r0, [r7, #4]
1066:..\..\..\..\..\..\Software\uCOS-III\Source/os_task.c ****     OS_REG_ID  id;
1067:..\..\..\..\..\..\Software\uCOS-III\Source/os_task.c ****     CPU_SR_ALLOC();
 744              		.loc 1 1067 0
 745 0008 0023     		movs	r3, #0
 746 000a FB60     		str	r3, [r7, #12]
1068:..\..\..\..\..\..\Software\uCOS-III\Source/os_task.c **** 
1069:..\..\..\..\..\..\Software\uCOS-III\Source/os_task.c **** 
1070:..\..\..\..\..\..\Software\uCOS-III\Source/os_task.c **** 
1071:..\..\..\..\..\..\Software\uCOS-III\Source/os_task.c **** #ifdef OS_SAFETY_CRITICAL
1072:..\..\..\..\..\..\Software\uCOS-III\Source/os_task.c ****     if (p_err == (OS_ERR *)0) {
1073:..\..\..\..\..\..\Software\uCOS-III\Source/os_task.c ****         OS_SAFETY_CRITICAL_EXCEPTION();
ARM GAS  C:\Users\EDULU~1.DES\AppData\Local\Temp\ccyhp2HA.s 			page 33


1074:..\..\..\..\..\..\Software\uCOS-III\Source/os_task.c ****         return ((OS_REG_ID)OS_CFG_TASK_REG_TBL_SIZE);
1075:..\..\..\..\..\..\Software\uCOS-III\Source/os_task.c ****     }
1076:..\..\..\..\..\..\Software\uCOS-III\Source/os_task.c **** #endif
1077:..\..\..\..\..\..\Software\uCOS-III\Source/os_task.c **** 
1078:..\..\..\..\..\..\Software\uCOS-III\Source/os_task.c ****     CPU_CRITICAL_ENTER();
 747              		.loc 1 1078 0
 748 000c FFF7FEFF 		bl	CPU_SR_Save
 749 0010 0300     		movs	r3, r0
 750 0012 FB60     		str	r3, [r7, #12]
 751 0014 FFF7FEFF 		bl	CPU_IntDisMeasStart
1079:..\..\..\..\..\..\Software\uCOS-III\Source/os_task.c ****     if (OSTaskRegNextAvailID >= OS_CFG_TASK_REG_TBL_SIZE) {       /* See if we exceeded the number 
 752              		.loc 1 1079 0
 753 0018 144B     		ldr	r3, .L50
 754 001a 1B78     		ldrb	r3, [r3]
 755 001c 002B     		cmp	r3, #0
 756 001e 0AD0     		beq	.L48
1080:..\..\..\..\..\..\Software\uCOS-III\Source/os_task.c ****        *p_err = OS_ERR_NO_MORE_ID_AVAIL;                          /* Yes, cannot allocate more task
 757              		.loc 1 1080 0
 758 0020 7B68     		ldr	r3, [r7, #4]
 759 0022 134A     		ldr	r2, .L50+4
 760 0024 1A80     		strh	r2, [r3]
1081:..\..\..\..\..\..\Software\uCOS-III\Source/os_task.c ****         CPU_CRITICAL_EXIT();
 761              		.loc 1 1081 0
 762 0026 FFF7FEFF 		bl	CPU_IntDisMeasStop
 763 002a FB68     		ldr	r3, [r7, #12]
 764 002c 1800     		movs	r0, r3
 765 002e FFF7FEFF 		bl	CPU_SR_Restore
1082:..\..\..\..\..\..\Software\uCOS-III\Source/os_task.c ****         return ((OS_REG_ID)OS_CFG_TASK_REG_TBL_SIZE);
 766              		.loc 1 1082 0
 767 0032 0123     		movs	r3, #1
 768 0034 16E0     		b	.L49
 769              	.L48:
1083:..\..\..\..\..\..\Software\uCOS-III\Source/os_task.c ****     }
1084:..\..\..\..\..\..\Software\uCOS-III\Source/os_task.c ****      
1085:..\..\..\..\..\..\Software\uCOS-III\Source/os_task.c ****     id    = OSTaskRegNextAvailID;								  /* Assign the next available ID                     */
 770              		.loc 1 1085 0
 771 0036 0B23     		movs	r3, #11
 772 0038 FB18     		adds	r3, r7, r3
 773 003a 0C4A     		ldr	r2, .L50
 774 003c 1278     		ldrb	r2, [r2]
 775 003e 1A70     		strb	r2, [r3]
1086:..\..\..\..\..\..\Software\uCOS-III\Source/os_task.c ****     OSTaskRegNextAvailID++;										  /* Increment available ID for next request          */
 776              		.loc 1 1086 0
 777 0040 0A4B     		ldr	r3, .L50
 778 0042 1B78     		ldrb	r3, [r3]
 779 0044 0133     		adds	r3, r3, #1
 780 0046 DAB2     		uxtb	r2, r3
 781 0048 084B     		ldr	r3, .L50
 782 004a 1A70     		strb	r2, [r3]
1087:..\..\..\..\..\..\Software\uCOS-III\Source/os_task.c ****     CPU_CRITICAL_EXIT();
 783              		.loc 1 1087 0
 784 004c FFF7FEFF 		bl	CPU_IntDisMeasStop
 785 0050 FB68     		ldr	r3, [r7, #12]
 786 0052 1800     		movs	r0, r3
 787 0054 FFF7FEFF 		bl	CPU_SR_Restore
1088:..\..\..\..\..\..\Software\uCOS-III\Source/os_task.c ****    *p_err = OS_ERR_NONE;
 788              		.loc 1 1088 0
ARM GAS  C:\Users\EDULU~1.DES\AppData\Local\Temp\ccyhp2HA.s 			page 34


 789 0058 7B68     		ldr	r3, [r7, #4]
 790 005a 0022     		movs	r2, #0
 791 005c 1A80     		strh	r2, [r3]
1089:..\..\..\..\..\..\Software\uCOS-III\Source/os_task.c ****     return (id);
 792              		.loc 1 1089 0
 793 005e 0B23     		movs	r3, #11
 794 0060 FB18     		adds	r3, r7, r3
 795 0062 1B78     		ldrb	r3, [r3]
 796              	.L49:
1090:..\..\..\..\..\..\Software\uCOS-III\Source/os_task.c **** }
 797              		.loc 1 1090 0
 798 0064 1800     		movs	r0, r3
 799 0066 BD46     		mov	sp, r7
 800 0068 04B0     		add	sp, sp, #16
 801              		@ sp needed
 802 006a 80BD     		pop	{r7, pc}
 803              	.L51:
 804              		.align	2
 805              	.L50:
 806 006c 00000000 		.word	OSTaskRegNextAvailID
 807 0070 DA590000 		.word	23002
 808              		.cfi_endproc
 809              	.LFE4:
 810              		.size	OSTaskRegGetID, .-OSTaskRegGetID
 811              		.section	.text.OSTaskRegSet,"ax",%progbits
 812              		.align	2
 813              		.global	OSTaskRegSet
 814              		.code	16
 815              		.thumb_func
 816              		.type	OSTaskRegSet, %function
 817              	OSTaskRegSet:
 818              	.LFB5:
1091:..\..\..\..\..\..\Software\uCOS-III\Source/os_task.c **** #endif
1092:..\..\..\..\..\..\Software\uCOS-III\Source/os_task.c **** 
1093:..\..\..\..\..\..\Software\uCOS-III\Source/os_task.c **** /*$PAGE*/
1094:..\..\..\..\..\..\Software\uCOS-III\Source/os_task.c **** /*
1095:..\..\..\..\..\..\Software\uCOS-III\Source/os_task.c **** ***************************************************************************************************
1096:..\..\..\..\..\..\Software\uCOS-III\Source/os_task.c **** *                                       SET THE CURRENT VALUE OF A TASK REGISTER
1097:..\..\..\..\..\..\Software\uCOS-III\Source/os_task.c **** *
1098:..\..\..\..\..\..\Software\uCOS-III\Source/os_task.c **** * Description: This function is called to change the current value of a task register.  Task regist
1099:..\..\..\..\..\..\Software\uCOS-III\Source/os_task.c **** *              specific and can be used to store task specific values such as 'error numbers' (i.e.
1100:..\..\..\..\..\..\Software\uCOS-III\Source/os_task.c **** *              etc.
1101:..\..\..\..\..\..\Software\uCOS-III\Source/os_task.c **** *
1102:..\..\..\..\..\..\Software\uCOS-III\Source/os_task.c **** * Arguments  : p_tcb     is a pointer to the OS_TCB of the task you want to set the register for.  
1103:..\..\..\..\..\..\Software\uCOS-III\Source/os_task.c **** *                        pointer then you will change the register of the current task.
1104:..\..\..\..\..\..\Software\uCOS-III\Source/os_task.c **** *
1105:..\..\..\..\..\..\Software\uCOS-III\Source/os_task.c **** *              id        is the 'id' of the desired task register.  Note that the 'id' must be less
1106:..\..\..\..\..\..\Software\uCOS-III\Source/os_task.c **** *                        OS_CFG_TASK_REG_TBL_SIZE
1107:..\..\..\..\..\..\Software\uCOS-III\Source/os_task.c **** *
1108:..\..\..\..\..\..\Software\uCOS-III\Source/os_task.c **** *              value     is the desired value for the task register.
1109:..\..\..\..\..\..\Software\uCOS-III\Source/os_task.c **** *
1110:..\..\..\..\..\..\Software\uCOS-III\Source/os_task.c **** *              p_err     is a pointer to a variable that will hold an error code related to this ca
1111:..\..\..\..\..\..\Software\uCOS-III\Source/os_task.c **** *
1112:..\..\..\..\..\..\Software\uCOS-III\Source/os_task.c **** *                            OS_ERR_NONE            if the call was successful
1113:..\..\..\..\..\..\Software\uCOS-III\Source/os_task.c **** *                            OS_ERR_REG_ID_INVALID  if the 'id' is not between 0 and OS_CFG_TASK_RE
1114:..\..\..\..\..\..\Software\uCOS-III\Source/os_task.c **** *
1115:..\..\..\..\..\..\Software\uCOS-III\Source/os_task.c **** * Returns    : none
ARM GAS  C:\Users\EDULU~1.DES\AppData\Local\Temp\ccyhp2HA.s 			page 35


1116:..\..\..\..\..\..\Software\uCOS-III\Source/os_task.c **** ***************************************************************************************************
1117:..\..\..\..\..\..\Software\uCOS-III\Source/os_task.c **** */
1118:..\..\..\..\..\..\Software\uCOS-III\Source/os_task.c **** 
1119:..\..\..\..\..\..\Software\uCOS-III\Source/os_task.c **** #if OS_CFG_TASK_REG_TBL_SIZE > 0u
1120:..\..\..\..\..\..\Software\uCOS-III\Source/os_task.c **** void  OSTaskRegSet (OS_TCB     *p_tcb,
1121:..\..\..\..\..\..\Software\uCOS-III\Source/os_task.c ****                     OS_REG_ID   id,
1122:..\..\..\..\..\..\Software\uCOS-III\Source/os_task.c ****                     OS_REG      value,
1123:..\..\..\..\..\..\Software\uCOS-III\Source/os_task.c ****                     OS_ERR     *p_err)
1124:..\..\..\..\..\..\Software\uCOS-III\Source/os_task.c **** {
 819              		.loc 1 1124 0
 820              		.cfi_startproc
 821              		@ args = 0, pretend = 0, frame = 24
 822              		@ frame_needed = 1, uses_anonymous_args = 0
 823 0000 80B5     		push	{r7, lr}
 824              		.cfi_def_cfa_offset 8
 825              		.cfi_offset 7, -8
 826              		.cfi_offset 14, -4
 827 0002 86B0     		sub	sp, sp, #24
 828              		.cfi_def_cfa_offset 32
 829 0004 00AF     		add	r7, sp, #0
 830              		.cfi_def_cfa_register 7
 831 0006 F860     		str	r0, [r7, #12]
 832 0008 7A60     		str	r2, [r7, #4]
 833 000a 3B60     		str	r3, [r7]
 834 000c 0B23     		movs	r3, #11
 835 000e FB18     		adds	r3, r7, r3
 836 0010 0A1C     		adds	r2, r1, #0
 837 0012 1A70     		strb	r2, [r3]
1125:..\..\..\..\..\..\Software\uCOS-III\Source/os_task.c ****     CPU_SR_ALLOC();
 838              		.loc 1 1125 0
 839 0014 0023     		movs	r3, #0
 840 0016 7B61     		str	r3, [r7, #20]
1126:..\..\..\..\..\..\Software\uCOS-III\Source/os_task.c **** 
1127:..\..\..\..\..\..\Software\uCOS-III\Source/os_task.c **** 
1128:..\..\..\..\..\..\Software\uCOS-III\Source/os_task.c **** 
1129:..\..\..\..\..\..\Software\uCOS-III\Source/os_task.c **** #ifdef OS_SAFETY_CRITICAL
1130:..\..\..\..\..\..\Software\uCOS-III\Source/os_task.c ****     if (p_err == (OS_ERR *)0) {
1131:..\..\..\..\..\..\Software\uCOS-III\Source/os_task.c ****         OS_SAFETY_CRITICAL_EXCEPTION();
1132:..\..\..\..\..\..\Software\uCOS-III\Source/os_task.c ****         return;
1133:..\..\..\..\..\..\Software\uCOS-III\Source/os_task.c ****     }
1134:..\..\..\..\..\..\Software\uCOS-III\Source/os_task.c **** #endif
1135:..\..\..\..\..\..\Software\uCOS-III\Source/os_task.c **** 
1136:..\..\..\..\..\..\Software\uCOS-III\Source/os_task.c **** #if OS_CFG_ARG_CHK_EN > 0u
1137:..\..\..\..\..\..\Software\uCOS-III\Source/os_task.c ****     if (id >= OS_CFG_TASK_REG_TBL_SIZE) {
 841              		.loc 1 1137 0
 842 0018 0B23     		movs	r3, #11
 843 001a FB18     		adds	r3, r7, r3
 844 001c 1B78     		ldrb	r3, [r3]
 845 001e 002B     		cmp	r3, #0
 846 0020 03D0     		beq	.L53
1138:..\..\..\..\..\..\Software\uCOS-III\Source/os_task.c ****        *p_err = OS_ERR_REG_ID_INVALID;
 847              		.loc 1 1138 0
 848 0022 3B68     		ldr	r3, [r7]
 849 0024 124A     		ldr	r2, .L56
 850 0026 1A80     		strh	r2, [r3]
1139:..\..\..\..\..\..\Software\uCOS-III\Source/os_task.c ****         return;
 851              		.loc 1 1139 0
ARM GAS  C:\Users\EDULU~1.DES\AppData\Local\Temp\ccyhp2HA.s 			page 36


 852 0028 1EE0     		b	.L52
 853              	.L53:
1140:..\..\..\..\..\..\Software\uCOS-III\Source/os_task.c ****     }
1141:..\..\..\..\..\..\Software\uCOS-III\Source/os_task.c **** #endif
1142:..\..\..\..\..\..\Software\uCOS-III\Source/os_task.c **** 
1143:..\..\..\..\..\..\Software\uCOS-III\Source/os_task.c ****     CPU_CRITICAL_ENTER();
 854              		.loc 1 1143 0
 855 002a FFF7FEFF 		bl	CPU_SR_Save
 856 002e 0300     		movs	r3, r0
 857 0030 7B61     		str	r3, [r7, #20]
 858 0032 FFF7FEFF 		bl	CPU_IntDisMeasStart
1144:..\..\..\..\..\..\Software\uCOS-III\Source/os_task.c ****     if (p_tcb == (OS_TCB *)0) {
 859              		.loc 1 1144 0
 860 0036 FB68     		ldr	r3, [r7, #12]
 861 0038 002B     		cmp	r3, #0
 862 003a 02D1     		bne	.L55
1145:..\..\..\..\..\..\Software\uCOS-III\Source/os_task.c ****         p_tcb = OSTCBCurPtr;
 863              		.loc 1 1145 0
 864 003c 0D4B     		ldr	r3, .L56+4
 865 003e 1B68     		ldr	r3, [r3]
 866 0040 FB60     		str	r3, [r7, #12]
 867              	.L55:
1146:..\..\..\..\..\..\Software\uCOS-III\Source/os_task.c ****     }
1147:..\..\..\..\..\..\Software\uCOS-III\Source/os_task.c ****     p_tcb->RegTbl[id] = value;
 868              		.loc 1 1147 0
 869 0042 0B23     		movs	r3, #11
 870 0044 FB18     		adds	r3, r7, r3
 871 0046 1B78     		ldrb	r3, [r3]
 872 0048 FA68     		ldr	r2, [r7, #12]
 873 004a 1633     		adds	r3, r3, #22
 874 004c 9B00     		lsls	r3, r3, #2
 875 004e D318     		adds	r3, r2, r3
 876 0050 0433     		adds	r3, r3, #4
 877 0052 7A68     		ldr	r2, [r7, #4]
 878 0054 1A60     		str	r2, [r3]
1148:..\..\..\..\..\..\Software\uCOS-III\Source/os_task.c ****     CPU_CRITICAL_EXIT();
 879              		.loc 1 1148 0
 880 0056 FFF7FEFF 		bl	CPU_IntDisMeasStop
 881 005a 7B69     		ldr	r3, [r7, #20]
 882 005c 1800     		movs	r0, r3
 883 005e FFF7FEFF 		bl	CPU_SR_Restore
1149:..\..\..\..\..\..\Software\uCOS-III\Source/os_task.c ****    *p_err             = OS_ERR_NONE;
 884              		.loc 1 1149 0
 885 0062 3B68     		ldr	r3, [r7]
 886 0064 0022     		movs	r2, #0
 887 0066 1A80     		strh	r2, [r3]
 888              	.L52:
1150:..\..\..\..\..\..\Software\uCOS-III\Source/os_task.c **** }
 889              		.loc 1 1150 0
 890 0068 BD46     		mov	sp, r7
 891 006a 06B0     		add	sp, sp, #24
 892              		@ sp needed
 893 006c 80BD     		pop	{r7, pc}
 894              	.L57:
 895 006e C046     		.align	2
 896              	.L56:
 897 0070 79690000 		.word	27001
ARM GAS  C:\Users\EDULU~1.DES\AppData\Local\Temp\ccyhp2HA.s 			page 37


 898 0074 00000000 		.word	OSTCBCurPtr
 899              		.cfi_endproc
 900              	.LFE5:
 901              		.size	OSTaskRegSet, .-OSTaskRegSet
 902              		.section	.text.OSTaskResume,"ax",%progbits
 903              		.align	2
 904              		.global	OSTaskResume
 905              		.code	16
 906              		.thumb_func
 907              		.type	OSTaskResume, %function
 908              	OSTaskResume:
 909              	.LFB6:
1151:..\..\..\..\..\..\Software\uCOS-III\Source/os_task.c **** #endif
1152:..\..\..\..\..\..\Software\uCOS-III\Source/os_task.c **** 
1153:..\..\..\..\..\..\Software\uCOS-III\Source/os_task.c **** /*$PAGE*/
1154:..\..\..\..\..\..\Software\uCOS-III\Source/os_task.c **** /*
1155:..\..\..\..\..\..\Software\uCOS-III\Source/os_task.c **** ***************************************************************************************************
1156:..\..\..\..\..\..\Software\uCOS-III\Source/os_task.c **** *                                               RESUME A SUSPENDED TASK
1157:..\..\..\..\..\..\Software\uCOS-III\Source/os_task.c **** *
1158:..\..\..\..\..\..\Software\uCOS-III\Source/os_task.c **** * Description: This function is called to resume a previously suspended task.  This is the only cal
1159:..\..\..\..\..\..\Software\uCOS-III\Source/os_task.c **** *              explicit task suspension.
1160:..\..\..\..\..\..\Software\uCOS-III\Source/os_task.c **** *
1161:..\..\..\..\..\..\Software\uCOS-III\Source/os_task.c **** * Arguments  : p_tcb      Is a pointer to the task's OS_TCB to resume
1162:..\..\..\..\..\..\Software\uCOS-III\Source/os_task.c **** *
1163:..\..\..\..\..\..\Software\uCOS-III\Source/os_task.c **** *              p_err      Is a pointer to a variable that will contain an error code returned by th
1164:..\..\..\..\..\..\Software\uCOS-III\Source/os_task.c **** *
1165:..\..\..\..\..\..\Software\uCOS-III\Source/os_task.c **** *                             OS_ERR_NONE                  if the requested task is resumed
1166:..\..\..\..\..\..\Software\uCOS-III\Source/os_task.c **** *                             OS_ERR_STATE_INVALID         if the task is in an invalid state
1167:..\..\..\..\..\..\Software\uCOS-III\Source/os_task.c **** *                             OS_ERR_TASK_RESUME_ISR       if you called this function from an ISR
1168:..\..\..\..\..\..\Software\uCOS-III\Source/os_task.c **** *                             OS_ERR_TASK_RESUME_SELF      You cannot resume 'self'
1169:..\..\..\..\..\..\Software\uCOS-III\Source/os_task.c **** *                             OS_ERR_TASK_NOT_SUSPENDED    if the task to resume has not been suspe
1170:..\..\..\..\..\..\Software\uCOS-III\Source/os_task.c **** *
1171:..\..\..\..\..\..\Software\uCOS-III\Source/os_task.c **** * Returns    : none
1172:..\..\..\..\..\..\Software\uCOS-III\Source/os_task.c **** ***************************************************************************************************
1173:..\..\..\..\..\..\Software\uCOS-III\Source/os_task.c **** */
1174:..\..\..\..\..\..\Software\uCOS-III\Source/os_task.c **** 
1175:..\..\..\..\..\..\Software\uCOS-III\Source/os_task.c **** #if OS_CFG_TASK_SUSPEND_EN > 0u
1176:..\..\..\..\..\..\Software\uCOS-III\Source/os_task.c **** void  OSTaskResume (OS_TCB  *p_tcb,
1177:..\..\..\..\..\..\Software\uCOS-III\Source/os_task.c ****                     OS_ERR  *p_err)
1178:..\..\..\..\..\..\Software\uCOS-III\Source/os_task.c **** {
 910              		.loc 1 1178 0
 911              		.cfi_startproc
 912              		@ args = 0, pretend = 0, frame = 16
 913              		@ frame_needed = 1, uses_anonymous_args = 0
 914 0000 80B5     		push	{r7, lr}
 915              		.cfi_def_cfa_offset 8
 916              		.cfi_offset 7, -8
 917              		.cfi_offset 14, -4
 918 0002 84B0     		sub	sp, sp, #16
 919              		.cfi_def_cfa_offset 24
 920 0004 00AF     		add	r7, sp, #0
 921              		.cfi_def_cfa_register 7
 922 0006 7860     		str	r0, [r7, #4]
 923 0008 3960     		str	r1, [r7]
1179:..\..\..\..\..\..\Software\uCOS-III\Source/os_task.c ****     CPU_SR_ALLOC();
 924              		.loc 1 1179 0
 925 000a 0023     		movs	r3, #0
ARM GAS  C:\Users\EDULU~1.DES\AppData\Local\Temp\ccyhp2HA.s 			page 38


 926 000c FB60     		str	r3, [r7, #12]
1180:..\..\..\..\..\..\Software\uCOS-III\Source/os_task.c **** 
1181:..\..\..\..\..\..\Software\uCOS-III\Source/os_task.c **** 
1182:..\..\..\..\..\..\Software\uCOS-III\Source/os_task.c **** 
1183:..\..\..\..\..\..\Software\uCOS-III\Source/os_task.c **** #ifdef OS_SAFETY_CRITICAL
1184:..\..\..\..\..\..\Software\uCOS-III\Source/os_task.c ****     if (p_err == (OS_ERR *)0) {
1185:..\..\..\..\..\..\Software\uCOS-III\Source/os_task.c ****         OS_SAFETY_CRITICAL_EXCEPTION();
1186:..\..\..\..\..\..\Software\uCOS-III\Source/os_task.c ****         return;
1187:..\..\..\..\..\..\Software\uCOS-III\Source/os_task.c ****     }
1188:..\..\..\..\..\..\Software\uCOS-III\Source/os_task.c **** #endif
1189:..\..\..\..\..\..\Software\uCOS-III\Source/os_task.c **** 
1190:..\..\..\..\..\..\Software\uCOS-III\Source/os_task.c **** #if (OS_CFG_ISR_POST_DEFERRED_EN   == 0u) && \
1191:..\..\..\..\..\..\Software\uCOS-III\Source/os_task.c ****     (OS_CFG_CALLED_FROM_ISR_CHK_EN >  0u)
1192:..\..\..\..\..\..\Software\uCOS-III\Source/os_task.c ****     if (OSIntNestingCtr > (OS_NESTING_CTR)0) {              /* Not allowed to call from an ISR     
 927              		.loc 1 1192 0
 928 000e 174B     		ldr	r3, .L63
 929 0010 1B78     		ldrb	r3, [r3]
 930 0012 002B     		cmp	r3, #0
 931 0014 03D0     		beq	.L59
1193:..\..\..\..\..\..\Software\uCOS-III\Source/os_task.c ****        *p_err = OS_ERR_TASK_RESUME_ISR;
 932              		.loc 1 1193 0
 933 0016 3B68     		ldr	r3, [r7]
 934 0018 154A     		ldr	r2, .L63+4
 935 001a 1A80     		strh	r2, [r3]
1194:..\..\..\..\..\..\Software\uCOS-III\Source/os_task.c ****         return;
 936              		.loc 1 1194 0
 937 001c 23E0     		b	.L58
 938              	.L59:
1195:..\..\..\..\..\..\Software\uCOS-III\Source/os_task.c ****     }
1196:..\..\..\..\..\..\Software\uCOS-III\Source/os_task.c **** #endif
1197:..\..\..\..\..\..\Software\uCOS-III\Source/os_task.c **** 
1198:..\..\..\..\..\..\Software\uCOS-III\Source/os_task.c **** 
1199:..\..\..\..\..\..\Software\uCOS-III\Source/os_task.c ****     CPU_CRITICAL_ENTER();
 939              		.loc 1 1199 0
 940 001e FFF7FEFF 		bl	CPU_SR_Save
 941 0022 0300     		movs	r3, r0
 942 0024 FB60     		str	r3, [r7, #12]
 943 0026 FFF7FEFF 		bl	CPU_IntDisMeasStart
1200:..\..\..\..\..\..\Software\uCOS-III\Source/os_task.c **** #if OS_CFG_ARG_CHK_EN > 0u
1201:..\..\..\..\..\..\Software\uCOS-III\Source/os_task.c ****     if ((p_tcb == (OS_TCB *)0) ||                           /* We cannot resume 'self'             
 944              		.loc 1 1201 0
 945 002a 7B68     		ldr	r3, [r7, #4]
 946 002c 002B     		cmp	r3, #0
 947 002e 04D0     		beq	.L61
1202:..\..\..\..\..\..\Software\uCOS-III\Source/os_task.c ****         (p_tcb == OSTCBCurPtr)) {
 948              		.loc 1 1202 0 discriminator 1
 949 0030 104B     		ldr	r3, .L63+8
 950 0032 1B68     		ldr	r3, [r3]
1201:..\..\..\..\..\..\Software\uCOS-III\Source/os_task.c ****         (p_tcb == OSTCBCurPtr)) {
 951              		.loc 1 1201 0 discriminator 1
 952 0034 7A68     		ldr	r2, [r7, #4]
 953 0036 9A42     		cmp	r2, r3
 954 0038 09D1     		bne	.L62
 955              	.L61:
1203:..\..\..\..\..\..\Software\uCOS-III\Source/os_task.c ****         CPU_CRITICAL_EXIT();
 956              		.loc 1 1203 0
 957 003a FFF7FEFF 		bl	CPU_IntDisMeasStop
ARM GAS  C:\Users\EDULU~1.DES\AppData\Local\Temp\ccyhp2HA.s 			page 39


 958 003e FB68     		ldr	r3, [r7, #12]
 959 0040 1800     		movs	r0, r3
 960 0042 FFF7FEFF 		bl	CPU_SR_Restore
1204:..\..\..\..\..\..\Software\uCOS-III\Source/os_task.c ****        *p_err  = OS_ERR_TASK_RESUME_SELF;
 961              		.loc 1 1204 0
 962 0046 3B68     		ldr	r3, [r7]
 963 0048 0B4A     		ldr	r2, .L63+12
 964 004a 1A80     		strh	r2, [r3]
1205:..\..\..\..\..\..\Software\uCOS-III\Source/os_task.c ****         return;
 965              		.loc 1 1205 0
 966 004c 0BE0     		b	.L58
 967              	.L62:
1206:..\..\..\..\..\..\Software\uCOS-III\Source/os_task.c ****     }
1207:..\..\..\..\..\..\Software\uCOS-III\Source/os_task.c **** #endif
1208:..\..\..\..\..\..\Software\uCOS-III\Source/os_task.c ****     CPU_CRITICAL_EXIT();
 968              		.loc 1 1208 0
 969 004e FFF7FEFF 		bl	CPU_IntDisMeasStop
 970 0052 FB68     		ldr	r3, [r7, #12]
 971 0054 1800     		movs	r0, r3
 972 0056 FFF7FEFF 		bl	CPU_SR_Restore
1209:..\..\..\..\..\..\Software\uCOS-III\Source/os_task.c **** 
1210:..\..\..\..\..\..\Software\uCOS-III\Source/os_task.c **** #if OS_CFG_ISR_POST_DEFERRED_EN > 0u
1211:..\..\..\..\..\..\Software\uCOS-III\Source/os_task.c ****     if (OSIntNestingCtr > (OS_NESTING_CTR)0) {              /* See if called from an ISR           
1212:..\..\..\..\..\..\Software\uCOS-III\Source/os_task.c ****         OS_IntQPost((OS_OBJ_TYPE)OS_OBJ_TYPE_TASK_RESUME,   /* Post to ISR queue                   
1213:..\..\..\..\..\..\Software\uCOS-III\Source/os_task.c ****                     (void      *)p_tcb,
1214:..\..\..\..\..\..\Software\uCOS-III\Source/os_task.c ****                     (void      *)0,
1215:..\..\..\..\..\..\Software\uCOS-III\Source/os_task.c ****                     (OS_MSG_SIZE)0,
1216:..\..\..\..\..\..\Software\uCOS-III\Source/os_task.c ****                     (OS_FLAGS   )0,
1217:..\..\..\..\..\..\Software\uCOS-III\Source/os_task.c ****                     (OS_OPT     )0,
1218:..\..\..\..\..\..\Software\uCOS-III\Source/os_task.c ****                     (CPU_TS     )0,
1219:..\..\..\..\..\..\Software\uCOS-III\Source/os_task.c ****                     (OS_ERR    *)p_err);
1220:..\..\..\..\..\..\Software\uCOS-III\Source/os_task.c ****         return;
1221:..\..\..\..\..\..\Software\uCOS-III\Source/os_task.c ****     }
1222:..\..\..\..\..\..\Software\uCOS-III\Source/os_task.c **** #endif
1223:..\..\..\..\..\..\Software\uCOS-III\Source/os_task.c **** 
1224:..\..\..\..\..\..\Software\uCOS-III\Source/os_task.c ****     OS_TaskResume(p_tcb, p_err);
 973              		.loc 1 1224 0
 974 005a 3A68     		ldr	r2, [r7]
 975 005c 7B68     		ldr	r3, [r7, #4]
 976 005e 1100     		movs	r1, r2
 977 0060 1800     		movs	r0, r3
 978 0062 FFF7FEFF 		bl	OS_TaskResume
 979              	.L58:
1225:..\..\..\..\..\..\Software\uCOS-III\Source/os_task.c **** }
 980              		.loc 1 1225 0
 981 0066 BD46     		mov	sp, r7
 982 0068 04B0     		add	sp, sp, #16
 983              		@ sp needed
 984 006a 80BD     		pop	{r7, pc}
 985              	.L64:
 986              		.align	2
 987              	.L63:
 988 006c 00000000 		.word	OSIntNestingCtr
 989 0070 55710000 		.word	29013
 990 0074 00000000 		.word	OSTCBCurPtr
 991 0078 57710000 		.word	29015
 992              		.cfi_endproc
ARM GAS  C:\Users\EDULU~1.DES\AppData\Local\Temp\ccyhp2HA.s 			page 40


 993              	.LFE6:
 994              		.size	OSTaskResume, .-OSTaskResume
 995              		.section	.text.OSTaskSemPend,"ax",%progbits
 996              		.align	2
 997              		.global	OSTaskSemPend
 998              		.code	16
 999              		.thumb_func
 1000              		.type	OSTaskSemPend, %function
 1001              	OSTaskSemPend:
 1002              	.LFB7:
1226:..\..\..\..\..\..\Software\uCOS-III\Source/os_task.c **** #endif
1227:..\..\..\..\..\..\Software\uCOS-III\Source/os_task.c **** 
1228:..\..\..\..\..\..\Software\uCOS-III\Source/os_task.c **** /*$PAGE*/
1229:..\..\..\..\..\..\Software\uCOS-III\Source/os_task.c **** /*
1230:..\..\..\..\..\..\Software\uCOS-III\Source/os_task.c **** ***************************************************************************************************
1231:..\..\..\..\..\..\Software\uCOS-III\Source/os_task.c **** *                                              WAIT FOR A TASK SEMAPHORE
1232:..\..\..\..\..\..\Software\uCOS-III\Source/os_task.c **** *
1233:..\..\..\..\..\..\Software\uCOS-III\Source/os_task.c **** * Description: This function is called to block the current task until a signal is sent by another 
1234:..\..\..\..\..\..\Software\uCOS-III\Source/os_task.c **** *
1235:..\..\..\..\..\..\Software\uCOS-III\Source/os_task.c **** * Arguments  : timeout       is the amount of time you are will to wait for the signal
1236:..\..\..\..\..\..\Software\uCOS-III\Source/os_task.c **** *
1237:..\..\..\..\..\..\Software\uCOS-III\Source/os_task.c **** *              opt           determines whether the user wants to block if a semaphore post was not
1238:..\..\..\..\..\..\Software\uCOS-III\Source/os_task.c **** *
1239:..\..\..\..\..\..\Software\uCOS-III\Source/os_task.c **** *                                OS_OPT_PEND_BLOCKING
1240:..\..\..\..\..\..\Software\uCOS-III\Source/os_task.c **** *                                OS_OPT_PEND_NON_BLOCKING
1241:..\..\..\..\..\..\Software\uCOS-III\Source/os_task.c **** *
1242:..\..\..\..\..\..\Software\uCOS-III\Source/os_task.c **** *              p_ts          is a pointer to a variable that will receive the timestamp of when the
1243:..\..\..\..\..\..\Software\uCOS-III\Source/os_task.c **** *                            or pend aborted.  If you pass a NULL pointer (i.e. (CPU_TS *)0) then y
1244:..\..\..\..\..\..\Software\uCOS-III\Source/os_task.c **** *                            timestamp.  In other words, passing a NULL pointer is valid and indica
1245:..\..\..\..\..\..\Software\uCOS-III\Source/os_task.c **** *                            need the timestamp.
1246:..\..\..\..\..\..\Software\uCOS-III\Source/os_task.c **** *
1247:..\..\..\..\..\..\Software\uCOS-III\Source/os_task.c **** *              p_err         is a pointer to an error code that will be set by this function
1248:..\..\..\..\..\..\Software\uCOS-III\Source/os_task.c **** *
1249:..\..\..\..\..\..\Software\uCOS-III\Source/os_task.c **** *                                OS_ERR_NONE               The call was successful and your task re
1250:..\..\..\..\..\..\Software\uCOS-III\Source/os_task.c **** *                                OS_ERR_PEND_ABORT
1251:..\..\..\..\..\..\Software\uCOS-III\Source/os_task.c **** *                                OS_ERR_PEND_ISR           If you called this function from an ISR 
1252:..\..\..\..\..\..\Software\uCOS-III\Source/os_task.c **** *                                OS_ERR_PEND_WOULD_BLOCK   If you specified non-blocking but no sig
1253:..\..\..\..\..\..\Software\uCOS-III\Source/os_task.c **** *                                OS_ERR_SCHED_LOCKED       If the scheduler is locked
1254:..\..\..\..\..\..\Software\uCOS-III\Source/os_task.c **** *                                OS_ERR_STATUS_INVALID     If the pend status is invalid
1255:..\..\..\..\..\..\Software\uCOS-III\Source/os_task.c **** *                                OS_ERR_TIMEOUT            A message was not received within the sp
1256:..\..\..\..\..\..\Software\uCOS-III\Source/os_task.c **** *                                                          would lead to a suspension.
1257:..\..\..\..\..\..\Software\uCOS-III\Source/os_task.c **** *
1258:..\..\..\..\..\..\Software\uCOS-III\Source/os_task.c **** * Returns    : The current count of signals the task received, 0 if none.
1259:..\..\..\..\..\..\Software\uCOS-III\Source/os_task.c **** ***************************************************************************************************
1260:..\..\..\..\..\..\Software\uCOS-III\Source/os_task.c **** */
1261:..\..\..\..\..\..\Software\uCOS-III\Source/os_task.c **** 
1262:..\..\..\..\..\..\Software\uCOS-III\Source/os_task.c **** OS_SEM_CTR  OSTaskSemPend (OS_TICK   timeout,
1263:..\..\..\..\..\..\Software\uCOS-III\Source/os_task.c ****                            OS_OPT    opt,
1264:..\..\..\..\..\..\Software\uCOS-III\Source/os_task.c ****                            CPU_TS   *p_ts,
1265:..\..\..\..\..\..\Software\uCOS-III\Source/os_task.c ****                            OS_ERR   *p_err)
1266:..\..\..\..\..\..\Software\uCOS-III\Source/os_task.c **** {
 1003              		.loc 1 1266 0
 1004              		.cfi_startproc
 1005              		@ args = 0, pretend = 0, frame = 24
 1006              		@ frame_needed = 1, uses_anonymous_args = 0
 1007 0000 80B5     		push	{r7, lr}
 1008              		.cfi_def_cfa_offset 8
ARM GAS  C:\Users\EDULU~1.DES\AppData\Local\Temp\ccyhp2HA.s 			page 41


 1009              		.cfi_offset 7, -8
 1010              		.cfi_offset 14, -4
 1011 0002 86B0     		sub	sp, sp, #24
 1012              		.cfi_def_cfa_offset 32
 1013 0004 00AF     		add	r7, sp, #0
 1014              		.cfi_def_cfa_register 7
 1015 0006 F860     		str	r0, [r7, #12]
 1016 0008 7A60     		str	r2, [r7, #4]
 1017 000a 3B60     		str	r3, [r7]
 1018 000c 0A23     		movs	r3, #10
 1019 000e FB18     		adds	r3, r7, r3
 1020 0010 0A1C     		adds	r2, r1, #0
 1021 0012 1A80     		strh	r2, [r3]
1267:..\..\..\..\..\..\Software\uCOS-III\Source/os_task.c ****     OS_SEM_CTR    ctr;
1268:..\..\..\..\..\..\Software\uCOS-III\Source/os_task.c ****     CPU_SR_ALLOC();
 1022              		.loc 1 1268 0
 1023 0014 0023     		movs	r3, #0
 1024 0016 7B61     		str	r3, [r7, #20]
1269:..\..\..\..\..\..\Software\uCOS-III\Source/os_task.c **** 
1270:..\..\..\..\..\..\Software\uCOS-III\Source/os_task.c **** 
1271:..\..\..\..\..\..\Software\uCOS-III\Source/os_task.c **** 
1272:..\..\..\..\..\..\Software\uCOS-III\Source/os_task.c **** #ifdef OS_SAFETY_CRITICAL
1273:..\..\..\..\..\..\Software\uCOS-III\Source/os_task.c ****     if (p_err == (OS_ERR *)0) {
1274:..\..\..\..\..\..\Software\uCOS-III\Source/os_task.c ****         OS_SAFETY_CRITICAL_EXCEPTION();
1275:..\..\..\..\..\..\Software\uCOS-III\Source/os_task.c ****         return ((OS_SEM_CTR)0);
1276:..\..\..\..\..\..\Software\uCOS-III\Source/os_task.c ****     }
1277:..\..\..\..\..\..\Software\uCOS-III\Source/os_task.c **** #endif
1278:..\..\..\..\..\..\Software\uCOS-III\Source/os_task.c **** 
1279:..\..\..\..\..\..\Software\uCOS-III\Source/os_task.c **** #if OS_CFG_CALLED_FROM_ISR_CHK_EN > 0u
1280:..\..\..\..\..\..\Software\uCOS-III\Source/os_task.c ****     if (OSIntNestingCtr > (OS_NESTING_CTR)0) {              /* Not allowed to call from an ISR     
 1025              		.loc 1 1280 0
 1026 0018 5B4B     		ldr	r3, .L86
 1027 001a 1B78     		ldrb	r3, [r3]
 1028 001c 002B     		cmp	r3, #0
 1029 001e 04D0     		beq	.L66
1281:..\..\..\..\..\..\Software\uCOS-III\Source/os_task.c ****        *p_err = OS_ERR_PEND_ISR;
 1030              		.loc 1 1281 0
 1031 0020 3B68     		ldr	r3, [r7]
 1032 0022 5A4A     		ldr	r2, .L86+4
 1033 0024 1A80     		strh	r2, [r3]
1282:..\..\..\..\..\..\Software\uCOS-III\Source/os_task.c ****         return ((OS_SEM_CTR)0);
 1034              		.loc 1 1282 0
 1035 0026 0023     		movs	r3, #0
 1036 0028 AAE0     		b	.L67
 1037              	.L66:
1283:..\..\..\..\..\..\Software\uCOS-III\Source/os_task.c ****     }
1284:..\..\..\..\..\..\Software\uCOS-III\Source/os_task.c **** #endif
1285:..\..\..\..\..\..\Software\uCOS-III\Source/os_task.c **** 
1286:..\..\..\..\..\..\Software\uCOS-III\Source/os_task.c **** #if OS_CFG_ARG_CHK_EN > 0u
1287:..\..\..\..\..\..\Software\uCOS-III\Source/os_task.c ****     switch (opt) {                                          /* Validate 'opt'                      
 1038              		.loc 1 1287 0
 1039 002a 0A23     		movs	r3, #10
 1040 002c FB18     		adds	r3, r7, r3
 1041 002e 1B88     		ldrh	r3, [r3]
 1042 0030 002B     		cmp	r3, #0
 1043 0032 08D0     		beq	.L85
 1044 0034 8022     		movs	r2, #128
ARM GAS  C:\Users\EDULU~1.DES\AppData\Local\Temp\ccyhp2HA.s 			page 42


 1045 0036 1202     		lsls	r2, r2, #8
 1046 0038 9342     		cmp	r3, r2
 1047 003a 04D0     		beq	.L85
1288:..\..\..\..\..\..\Software\uCOS-III\Source/os_task.c ****         case OS_OPT_PEND_BLOCKING:
1289:..\..\..\..\..\..\Software\uCOS-III\Source/os_task.c ****         case OS_OPT_PEND_NON_BLOCKING:
1290:..\..\..\..\..\..\Software\uCOS-III\Source/os_task.c ****              break;
1291:..\..\..\..\..\..\Software\uCOS-III\Source/os_task.c **** 
1292:..\..\..\..\..\..\Software\uCOS-III\Source/os_task.c ****         default:
1293:..\..\..\..\..\..\Software\uCOS-III\Source/os_task.c ****             *p_err = OS_ERR_OPT_INVALID;
 1048              		.loc 1 1293 0
 1049 003c 3B68     		ldr	r3, [r7]
 1050 003e 544A     		ldr	r2, .L86+8
 1051 0040 1A80     		strh	r2, [r3]
1294:..\..\..\..\..\..\Software\uCOS-III\Source/os_task.c ****              return ((OS_SEM_CTR)0);
 1052              		.loc 1 1294 0
 1053 0042 0023     		movs	r3, #0
 1054 0044 9CE0     		b	.L67
 1055              	.L85:
1290:..\..\..\..\..\..\Software\uCOS-III\Source/os_task.c **** 
 1056              		.loc 1 1290 0
 1057 0046 C046     		nop
1295:..\..\..\..\..\..\Software\uCOS-III\Source/os_task.c ****     }
1296:..\..\..\..\..\..\Software\uCOS-III\Source/os_task.c **** #endif
1297:..\..\..\..\..\..\Software\uCOS-III\Source/os_task.c **** 
1298:..\..\..\..\..\..\Software\uCOS-III\Source/os_task.c ****     if (p_ts != (CPU_TS *)0) {
 1058              		.loc 1 1298 0
 1059 0048 7B68     		ldr	r3, [r7, #4]
 1060 004a 002B     		cmp	r3, #0
 1061 004c 02D0     		beq	.L71
1299:..\..\..\..\..\..\Software\uCOS-III\Source/os_task.c ****        *p_ts  = (CPU_TS  )0;                                /* Initialize the returned timestamp   
 1062              		.loc 1 1299 0
 1063 004e 7B68     		ldr	r3, [r7, #4]
 1064 0050 0022     		movs	r2, #0
 1065 0052 1A60     		str	r2, [r3]
 1066              	.L71:
1300:..\..\..\..\..\..\Software\uCOS-III\Source/os_task.c ****     }
1301:..\..\..\..\..\..\Software\uCOS-III\Source/os_task.c **** 
1302:..\..\..\..\..\..\Software\uCOS-III\Source/os_task.c ****     CPU_CRITICAL_ENTER();
 1067              		.loc 1 1302 0
 1068 0054 FFF7FEFF 		bl	CPU_SR_Save
 1069 0058 0300     		movs	r3, r0
 1070 005a 7B61     		str	r3, [r7, #20]
 1071 005c FFF7FEFF 		bl	CPU_IntDisMeasStart
1303:..\..\..\..\..\..\Software\uCOS-III\Source/os_task.c ****     if (OSTCBCurPtr->SemCtr > (OS_SEM_CTR)0) {              /* See if task already been signaled   
 1072              		.loc 1 1303 0
 1073 0060 4C4B     		ldr	r3, .L86+12
 1074 0062 1B68     		ldr	r3, [r3]
 1075 0064 5B6C     		ldr	r3, [r3, #68]
 1076 0066 002B     		cmp	r3, #0
 1077 0068 1BD0     		beq	.L72
1304:..\..\..\..\..\..\Software\uCOS-III\Source/os_task.c ****         OSTCBCurPtr->SemCtr--;
 1078              		.loc 1 1304 0
 1079 006a 4A4B     		ldr	r3, .L86+12
 1080 006c 1B68     		ldr	r3, [r3]
 1081 006e 5A6C     		ldr	r2, [r3, #68]
 1082 0070 013A     		subs	r2, r2, #1
 1083 0072 5A64     		str	r2, [r3, #68]
ARM GAS  C:\Users\EDULU~1.DES\AppData\Local\Temp\ccyhp2HA.s 			page 43


1305:..\..\..\..\..\..\Software\uCOS-III\Source/os_task.c ****         ctr    = OSTCBCurPtr->SemCtr;
 1084              		.loc 1 1305 0
 1085 0074 474B     		ldr	r3, .L86+12
 1086 0076 1B68     		ldr	r3, [r3]
 1087 0078 5B6C     		ldr	r3, [r3, #68]
 1088 007a 3B61     		str	r3, [r7, #16]
1306:..\..\..\..\..\..\Software\uCOS-III\Source/os_task.c ****         if (p_ts != (CPU_TS *)0) {
 1089              		.loc 1 1306 0
 1090 007c 7B68     		ldr	r3, [r7, #4]
 1091 007e 002B     		cmp	r3, #0
 1092 0080 04D0     		beq	.L73
1307:..\..\..\..\..\..\Software\uCOS-III\Source/os_task.c ****            *p_ts  = OSTCBCurPtr->TS;
 1093              		.loc 1 1307 0
 1094 0082 444B     		ldr	r3, .L86+12
 1095 0084 1B68     		ldr	r3, [r3]
 1096 0086 1A6C     		ldr	r2, [r3, #64]
 1097 0088 7B68     		ldr	r3, [r7, #4]
 1098 008a 1A60     		str	r2, [r3]
 1099              	.L73:
1308:..\..\..\..\..\..\Software\uCOS-III\Source/os_task.c ****         }
1309:..\..\..\..\..\..\Software\uCOS-III\Source/os_task.c **** #if OS_CFG_TASK_PROFILE_EN > 0u
1310:..\..\..\..\..\..\Software\uCOS-III\Source/os_task.c ****         OSTCBCurPtr->SemPendTime = OS_TS_GET() - OSTCBCurPtr->TS;
1311:..\..\..\..\..\..\Software\uCOS-III\Source/os_task.c ****         if (OSTCBCurPtr->SemPendTimeMax < OSTCBCurPtr->SemPendTime) {
1312:..\..\..\..\..\..\Software\uCOS-III\Source/os_task.c ****             OSTCBCurPtr->SemPendTimeMax = OSTCBCurPtr->SemPendTime;
1313:..\..\..\..\..\..\Software\uCOS-III\Source/os_task.c ****         }
1314:..\..\..\..\..\..\Software\uCOS-III\Source/os_task.c **** #endif
1315:..\..\..\..\..\..\Software\uCOS-III\Source/os_task.c ****         CPU_CRITICAL_EXIT();
 1100              		.loc 1 1315 0
 1101 008c FFF7FEFF 		bl	CPU_IntDisMeasStop
 1102 0090 7B69     		ldr	r3, [r7, #20]
 1103 0092 1800     		movs	r0, r3
 1104 0094 FFF7FEFF 		bl	CPU_SR_Restore
1316:..\..\..\..\..\..\Software\uCOS-III\Source/os_task.c ****        *p_err = OS_ERR_NONE;
 1105              		.loc 1 1316 0
 1106 0098 3B68     		ldr	r3, [r7]
 1107 009a 0022     		movs	r2, #0
 1108 009c 1A80     		strh	r2, [r3]
1317:..\..\..\..\..\..\Software\uCOS-III\Source/os_task.c ****         return (ctr);
 1109              		.loc 1 1317 0
 1110 009e 3B69     		ldr	r3, [r7, #16]
 1111 00a0 6EE0     		b	.L67
 1112              	.L72:
1318:..\..\..\..\..\..\Software\uCOS-III\Source/os_task.c ****     }
1319:..\..\..\..\..\..\Software\uCOS-III\Source/os_task.c **** 
1320:..\..\..\..\..\..\Software\uCOS-III\Source/os_task.c ****     if ((opt & OS_OPT_PEND_NON_BLOCKING) != (OS_OPT)0) {    /* Caller wants to block if not availab
 1113              		.loc 1 1320 0
 1114 00a2 0A23     		movs	r3, #10
 1115 00a4 FB18     		adds	r3, r7, r3
 1116 00a6 0022     		movs	r2, #0
 1117 00a8 9B5E     		ldrsh	r3, [r3, r2]
 1118 00aa 002B     		cmp	r3, #0
 1119 00ac 0ADA     		bge	.L74
1321:..\..\..\..\..\..\Software\uCOS-III\Source/os_task.c ****         CPU_CRITICAL_EXIT();
 1120              		.loc 1 1321 0
 1121 00ae FFF7FEFF 		bl	CPU_IntDisMeasStop
 1122 00b2 7B69     		ldr	r3, [r7, #20]
 1123 00b4 1800     		movs	r0, r3
ARM GAS  C:\Users\EDULU~1.DES\AppData\Local\Temp\ccyhp2HA.s 			page 44


 1124 00b6 FFF7FEFF 		bl	CPU_SR_Restore
1322:..\..\..\..\..\..\Software\uCOS-III\Source/os_task.c ****        *p_err = OS_ERR_PEND_WOULD_BLOCK;                    /* No                                  
 1125              		.loc 1 1322 0
 1126 00ba 3B68     		ldr	r3, [r7]
 1127 00bc 364A     		ldr	r2, .L86+16
 1128 00be 1A80     		strh	r2, [r3]
1323:..\..\..\..\..\..\Software\uCOS-III\Source/os_task.c ****         return ((OS_SEM_CTR)0);
 1129              		.loc 1 1323 0
 1130 00c0 0023     		movs	r3, #0
 1131 00c2 5DE0     		b	.L67
 1132              	.L74:
1324:..\..\..\..\..\..\Software\uCOS-III\Source/os_task.c ****     } else {                                                /* Yes                                 
1325:..\..\..\..\..\..\Software\uCOS-III\Source/os_task.c ****         if (OSSchedLockNestingCtr > (OS_NESTING_CTR)0) {    /* Can't pend when the scheduler is loc
 1133              		.loc 1 1325 0
 1134 00c4 354B     		ldr	r3, .L86+20
 1135 00c6 1B78     		ldrb	r3, [r3]
 1136 00c8 002B     		cmp	r3, #0
 1137 00ca 0AD0     		beq	.L75
1326:..\..\..\..\..\..\Software\uCOS-III\Source/os_task.c ****             CPU_CRITICAL_EXIT();
 1138              		.loc 1 1326 0
 1139 00cc FFF7FEFF 		bl	CPU_IntDisMeasStop
 1140 00d0 7B69     		ldr	r3, [r7, #20]
 1141 00d2 1800     		movs	r0, r3
 1142 00d4 FFF7FEFF 		bl	CPU_SR_Restore
1327:..\..\..\..\..\..\Software\uCOS-III\Source/os_task.c ****            *p_err = OS_ERR_SCHED_LOCKED;
 1143              		.loc 1 1327 0
 1144 00d8 3B68     		ldr	r3, [r7]
 1145 00da 314A     		ldr	r2, .L86+24
 1146 00dc 1A80     		strh	r2, [r3]
1328:..\..\..\..\..\..\Software\uCOS-III\Source/os_task.c ****             return ((OS_SEM_CTR)0);
 1147              		.loc 1 1328 0
 1148 00de 0023     		movs	r3, #0
 1149 00e0 4EE0     		b	.L67
 1150              	.L75:
1329:..\..\..\..\..\..\Software\uCOS-III\Source/os_task.c ****         }
1330:..\..\..\..\..\..\Software\uCOS-III\Source/os_task.c ****     }
1331:..\..\..\..\..\..\Software\uCOS-III\Source/os_task.c ****                                                             /* Lock the scheduler/re-enable interru
1332:..\..\..\..\..\..\Software\uCOS-III\Source/os_task.c ****     OS_CRITICAL_ENTER_CPU_EXIT();                           
1333:..\..\..\..\..\..\Software\uCOS-III\Source/os_task.c ****     OS_Pend((OS_PEND_DATA *)0,                              /* Block task pending on Signal        
 1151              		.loc 1 1333 0
 1152 00e2 FB68     		ldr	r3, [r7, #12]
 1153 00e4 0722     		movs	r2, #7
 1154 00e6 0021     		movs	r1, #0
 1155 00e8 0020     		movs	r0, #0
 1156 00ea FFF7FEFF 		bl	OS_Pend
1334:..\..\..\..\..\..\Software\uCOS-III\Source/os_task.c ****             (OS_PEND_OBJ  *)0,
1335:..\..\..\..\..\..\Software\uCOS-III\Source/os_task.c ****             (OS_STATE      )OS_TASK_PEND_ON_TASK_SEM,
1336:..\..\..\..\..\..\Software\uCOS-III\Source/os_task.c ****             (OS_TICK       )timeout);
1337:..\..\..\..\..\..\Software\uCOS-III\Source/os_task.c ****     OS_CRITICAL_EXIT_NO_SCHED();
 1157              		.loc 1 1337 0
 1158 00ee FFF7FEFF 		bl	CPU_IntDisMeasStop
 1159 00f2 7B69     		ldr	r3, [r7, #20]
 1160 00f4 1800     		movs	r0, r3
 1161 00f6 FFF7FEFF 		bl	CPU_SR_Restore
1338:..\..\..\..\..\..\Software\uCOS-III\Source/os_task.c **** 
1339:..\..\..\..\..\..\Software\uCOS-III\Source/os_task.c ****     OSSched();                                              /* Find next highest priority task read
 1162              		.loc 1 1339 0
ARM GAS  C:\Users\EDULU~1.DES\AppData\Local\Temp\ccyhp2HA.s 			page 45


 1163 00fa FFF7FEFF 		bl	OSSched
1340:..\..\..\..\..\..\Software\uCOS-III\Source/os_task.c **** 
1341:..\..\..\..\..\..\Software\uCOS-III\Source/os_task.c ****     CPU_CRITICAL_ENTER();
 1164              		.loc 1 1341 0
 1165 00fe FFF7FEFF 		bl	CPU_SR_Save
 1166 0102 0300     		movs	r3, r0
 1167 0104 7B61     		str	r3, [r7, #20]
 1168 0106 FFF7FEFF 		bl	CPU_IntDisMeasStart
1342:..\..\..\..\..\..\Software\uCOS-III\Source/os_task.c ****     switch (OSTCBCurPtr->PendStatus) {                      /* See if we timed-out or aborted      
 1169              		.loc 1 1342 0
 1170 010a 224B     		ldr	r3, .L86+12
 1171 010c 1B68     		ldr	r3, [r3]
 1172 010e 3522     		movs	r2, #53
 1173 0110 9B5C     		ldrb	r3, [r3, r2]
 1174 0112 012B     		cmp	r3, #1
 1175 0114 0FD0     		beq	.L77
 1176 0116 032B     		cmp	r3, #3
 1177 0118 19D0     		beq	.L78
 1178 011a 002B     		cmp	r3, #0
 1179 011c 21D1     		bne	.L84
1343:..\..\..\..\..\..\Software\uCOS-III\Source/os_task.c ****         case OS_STATUS_PEND_OK:
1344:..\..\..\..\..\..\Software\uCOS-III\Source/os_task.c ****              if (p_ts != (CPU_TS *)0) {
 1180              		.loc 1 1344 0
 1181 011e 7B68     		ldr	r3, [r7, #4]
 1182 0120 002B     		cmp	r3, #0
 1183 0122 04D0     		beq	.L80
1345:..\..\..\..\..\..\Software\uCOS-III\Source/os_task.c ****                 *p_ts                    =  OSTCBCurPtr->TS;
 1184              		.loc 1 1345 0
 1185 0124 1B4B     		ldr	r3, .L86+12
 1186 0126 1B68     		ldr	r3, [r3]
 1187 0128 1A6C     		ldr	r2, [r3, #64]
 1188 012a 7B68     		ldr	r3, [r7, #4]
 1189 012c 1A60     		str	r2, [r3]
 1190              	.L80:
1346:..\..\..\..\..\..\Software\uCOS-III\Source/os_task.c **** #if OS_CFG_TASK_PROFILE_EN > 0u
1347:..\..\..\..\..\..\Software\uCOS-III\Source/os_task.c ****                 OSTCBCurPtr->SemPendTime = OS_TS_GET() - OSTCBCurPtr->TS;
1348:..\..\..\..\..\..\Software\uCOS-III\Source/os_task.c ****                 if (OSTCBCurPtr->SemPendTimeMax < OSTCBCurPtr->SemPendTime) {
1349:..\..\..\..\..\..\Software\uCOS-III\Source/os_task.c ****                     OSTCBCurPtr->SemPendTimeMax = OSTCBCurPtr->SemPendTime;
1350:..\..\..\..\..\..\Software\uCOS-III\Source/os_task.c ****                 }
1351:..\..\..\..\..\..\Software\uCOS-III\Source/os_task.c **** #endif
1352:..\..\..\..\..\..\Software\uCOS-III\Source/os_task.c ****              }
1353:..\..\..\..\..\..\Software\uCOS-III\Source/os_task.c ****             *p_err = OS_ERR_NONE;
 1191              		.loc 1 1353 0
 1192 012e 3B68     		ldr	r3, [r7]
 1193 0130 0022     		movs	r2, #0
 1194 0132 1A80     		strh	r2, [r3]
1354:..\..\..\..\..\..\Software\uCOS-III\Source/os_task.c ****              break;
 1195              		.loc 1 1354 0
 1196 0134 19E0     		b	.L81
 1197              	.L77:
1355:..\..\..\..\..\..\Software\uCOS-III\Source/os_task.c **** 
1356:..\..\..\..\..\..\Software\uCOS-III\Source/os_task.c ****         case OS_STATUS_PEND_ABORT:
1357:..\..\..\..\..\..\Software\uCOS-III\Source/os_task.c ****              if (p_ts != (CPU_TS *)0) {
 1198              		.loc 1 1357 0
 1199 0136 7B68     		ldr	r3, [r7, #4]
 1200 0138 002B     		cmp	r3, #0
 1201 013a 04D0     		beq	.L82
ARM GAS  C:\Users\EDULU~1.DES\AppData\Local\Temp\ccyhp2HA.s 			page 46


1358:..\..\..\..\..\..\Software\uCOS-III\Source/os_task.c ****                 *p_ts  =  OSTCBCurPtr->TS;
 1202              		.loc 1 1358 0
 1203 013c 154B     		ldr	r3, .L86+12
 1204 013e 1B68     		ldr	r3, [r3]
 1205 0140 1A6C     		ldr	r2, [r3, #64]
 1206 0142 7B68     		ldr	r3, [r7, #4]
 1207 0144 1A60     		str	r2, [r3]
 1208              	.L82:
1359:..\..\..\..\..\..\Software\uCOS-III\Source/os_task.c ****              }
1360:..\..\..\..\..\..\Software\uCOS-III\Source/os_task.c ****             *p_err = OS_ERR_PEND_ABORT;                     /* Indicate that we aborted            
 1209              		.loc 1 1360 0
 1210 0146 3B68     		ldr	r3, [r7]
 1211 0148 164A     		ldr	r2, .L86+28
 1212 014a 1A80     		strh	r2, [r3]
1361:..\..\..\..\..\..\Software\uCOS-III\Source/os_task.c ****              break;
 1213              		.loc 1 1361 0
 1214 014c 0DE0     		b	.L81
 1215              	.L78:
1362:..\..\..\..\..\..\Software\uCOS-III\Source/os_task.c **** 
1363:..\..\..\..\..\..\Software\uCOS-III\Source/os_task.c ****         case OS_STATUS_PEND_TIMEOUT:
1364:..\..\..\..\..\..\Software\uCOS-III\Source/os_task.c ****              if (p_ts != (CPU_TS *)0) {
 1216              		.loc 1 1364 0
 1217 014e 7B68     		ldr	r3, [r7, #4]
 1218 0150 002B     		cmp	r3, #0
 1219 0152 02D0     		beq	.L83
1365:..\..\..\..\..\..\Software\uCOS-III\Source/os_task.c ****                 *p_ts  = (CPU_TS  )0;
 1220              		.loc 1 1365 0
 1221 0154 7B68     		ldr	r3, [r7, #4]
 1222 0156 0022     		movs	r2, #0
 1223 0158 1A60     		str	r2, [r3]
 1224              	.L83:
1366:..\..\..\..\..\..\Software\uCOS-III\Source/os_task.c ****              }
1367:..\..\..\..\..\..\Software\uCOS-III\Source/os_task.c ****             *p_err = OS_ERR_TIMEOUT;                        /* Indicate that we didn't get event wi
 1225              		.loc 1 1367 0
 1226 015a 3B68     		ldr	r3, [r7]
 1227 015c 124A     		ldr	r2, .L86+32
 1228 015e 1A80     		strh	r2, [r3]
1368:..\..\..\..\..\..\Software\uCOS-III\Source/os_task.c ****              break;
 1229              		.loc 1 1368 0
 1230 0160 03E0     		b	.L81
 1231              	.L84:
1369:..\..\..\..\..\..\Software\uCOS-III\Source/os_task.c **** 
1370:..\..\..\..\..\..\Software\uCOS-III\Source/os_task.c ****         default:
1371:..\..\..\..\..\..\Software\uCOS-III\Source/os_task.c ****             *p_err = OS_ERR_STATUS_INVALID;
 1232              		.loc 1 1371 0
 1233 0162 3B68     		ldr	r3, [r7]
 1234 0164 114A     		ldr	r2, .L86+36
 1235 0166 1A80     		strh	r2, [r3]
1372:..\..\..\..\..\..\Software\uCOS-III\Source/os_task.c ****              break;
 1236              		.loc 1 1372 0
 1237 0168 C046     		nop
 1238              	.L81:
1373:..\..\..\..\..\..\Software\uCOS-III\Source/os_task.c ****     }
1374:..\..\..\..\..\..\Software\uCOS-III\Source/os_task.c ****     ctr = OSTCBCurPtr->SemCtr;
 1239              		.loc 1 1374 0
 1240 016a 0A4B     		ldr	r3, .L86+12
 1241 016c 1B68     		ldr	r3, [r3]
ARM GAS  C:\Users\EDULU~1.DES\AppData\Local\Temp\ccyhp2HA.s 			page 47


 1242 016e 5B6C     		ldr	r3, [r3, #68]
 1243 0170 3B61     		str	r3, [r7, #16]
1375:..\..\..\..\..\..\Software\uCOS-III\Source/os_task.c ****     CPU_CRITICAL_EXIT();
 1244              		.loc 1 1375 0
 1245 0172 FFF7FEFF 		bl	CPU_IntDisMeasStop
 1246 0176 7B69     		ldr	r3, [r7, #20]
 1247 0178 1800     		movs	r0, r3
 1248 017a FFF7FEFF 		bl	CPU_SR_Restore
1376:..\..\..\..\..\..\Software\uCOS-III\Source/os_task.c ****     return (ctr);
 1249              		.loc 1 1376 0
 1250 017e 3B69     		ldr	r3, [r7, #16]
 1251              	.L67:
1377:..\..\..\..\..\..\Software\uCOS-III\Source/os_task.c **** }
 1252              		.loc 1 1377 0
 1253 0180 1800     		movs	r0, r3
 1254 0182 BD46     		mov	sp, r7
 1255 0184 06B0     		add	sp, sp, #24
 1256              		@ sp needed
 1257 0186 80BD     		pop	{r7, pc}
 1258              	.L87:
 1259              		.align	2
 1260              	.L86:
 1261 0188 00000000 		.word	OSIntNestingCtr
 1262 018c AE610000 		.word	25006
 1263 0190 255E0000 		.word	24101
 1264 0194 00000000 		.word	OSTCBCurPtr
 1265 0198 B0610000 		.word	25008
 1266 019c 00000000 		.word	OSSchedLockNestingCtr
 1267 01a0 636D0000 		.word	28003
 1268 01a4 A9610000 		.word	25001
 1269 01a8 D9720000 		.word	29401
 1270 01ac 2E6E0000 		.word	28206
 1271              		.cfi_endproc
 1272              	.LFE7:
 1273              		.size	OSTaskSemPend, .-OSTaskSemPend
 1274              		.section	.text.OSTaskSemPost,"ax",%progbits
 1275              		.align	2
 1276              		.global	OSTaskSemPost
 1277              		.code	16
 1278              		.thumb_func
 1279              		.type	OSTaskSemPost, %function
 1280              	OSTaskSemPost:
 1281              	.LFB8:
1378:..\..\..\..\..\..\Software\uCOS-III\Source/os_task.c **** 
1379:..\..\..\..\..\..\Software\uCOS-III\Source/os_task.c **** /*$PAGE*/
1380:..\..\..\..\..\..\Software\uCOS-III\Source/os_task.c **** /*
1381:..\..\..\..\..\..\Software\uCOS-III\Source/os_task.c **** ***************************************************************************************************
1382:..\..\..\..\..\..\Software\uCOS-III\Source/os_task.c **** *                                               ABORT WAITING FOR A SIGNAL
1383:..\..\..\..\..\..\Software\uCOS-III\Source/os_task.c **** *
1384:..\..\..\..\..\..\Software\uCOS-III\Source/os_task.c **** * Description: This function aborts & readies the task specified.  This function should be used to 
1385:..\..\..\..\..\..\Software\uCOS-III\Source/os_task.c **** *              for a signal, rather than to normally post the signal to the task via OSTaskSemPost(
1386:..\..\..\..\..\..\Software\uCOS-III\Source/os_task.c **** *
1387:..\..\..\..\..\..\Software\uCOS-III\Source/os_task.c **** * Arguments  : p_tcb     is a pointer to the task to pend abort
1388:..\..\..\..\..\..\Software\uCOS-III\Source/os_task.c **** *
1389:..\..\..\..\..\..\Software\uCOS-III\Source/os_task.c **** *              opt       provides options for this function:
1390:..\..\..\..\..\..\Software\uCOS-III\Source/os_task.c **** *
1391:..\..\..\..\..\..\Software\uCOS-III\Source/os_task.c **** *                            OS_OPT_POST_NONE         No option selected
ARM GAS  C:\Users\EDULU~1.DES\AppData\Local\Temp\ccyhp2HA.s 			page 48


1392:..\..\..\..\..\..\Software\uCOS-III\Source/os_task.c **** *                            OS_OPT_POST_NO_SCHED     Indicates that the scheduler will not be call
1393:..\..\..\..\..\..\Software\uCOS-III\Source/os_task.c **** *
1394:..\..\..\..\..\..\Software\uCOS-III\Source/os_task.c **** *              p_err     is a pointer to a variable that will contain an error code returned by thi
1395:..\..\..\..\..\..\Software\uCOS-III\Source/os_task.c **** *
1396:..\..\..\..\..\..\Software\uCOS-III\Source/os_task.c **** *                            OS_ERR_NONE              If the task was readied and informed of the a
1397:..\..\..\..\..\..\Software\uCOS-III\Source/os_task.c **** *                            OS_ERR_PEND_ABORT_ISR    If you tried calling this function from an IS
1398:..\..\..\..\..\..\Software\uCOS-III\Source/os_task.c **** *                            OS_ERR_PEND_ABORT_NONE   If the task was not waiting for a signal
1399:..\..\..\..\..\..\Software\uCOS-III\Source/os_task.c **** *                            OS_ERR_PEND_ABORT_SELF   If you attempted to pend abort the calling ta
1400:..\..\..\..\..\..\Software\uCOS-III\Source/os_task.c **** *                                                     possible since the calling task cannot be pen
1401:..\..\..\..\..\..\Software\uCOS-III\Source/os_task.c **** *                                                     running.
1402:..\..\..\..\..\..\Software\uCOS-III\Source/os_task.c **** *
1403:..\..\..\..\..\..\Software\uCOS-III\Source/os_task.c **** * Returns    : == DEF_FALSE   if task was not waiting for a message, or upon error.
1404:..\..\..\..\..\..\Software\uCOS-III\Source/os_task.c **** *              == DEF_TRUE    if task was waiting for a message and was readied and informed.
1405:..\..\..\..\..\..\Software\uCOS-III\Source/os_task.c **** ***************************************************************************************************
1406:..\..\..\..\..\..\Software\uCOS-III\Source/os_task.c **** */
1407:..\..\..\..\..\..\Software\uCOS-III\Source/os_task.c **** 
1408:..\..\..\..\..\..\Software\uCOS-III\Source/os_task.c **** #if OS_CFG_TASK_SEM_PEND_ABORT_EN > 0u
1409:..\..\..\..\..\..\Software\uCOS-III\Source/os_task.c **** CPU_BOOLEAN  OSTaskSemPendAbort (OS_TCB  *p_tcb,
1410:..\..\..\..\..\..\Software\uCOS-III\Source/os_task.c ****                                  OS_OPT   opt,
1411:..\..\..\..\..\..\Software\uCOS-III\Source/os_task.c ****                                  OS_ERR  *p_err)
1412:..\..\..\..\..\..\Software\uCOS-III\Source/os_task.c **** {
1413:..\..\..\..\..\..\Software\uCOS-III\Source/os_task.c ****     CPU_TS         ts;
1414:..\..\..\..\..\..\Software\uCOS-III\Source/os_task.c ****     CPU_SR_ALLOC();
1415:..\..\..\..\..\..\Software\uCOS-III\Source/os_task.c **** 
1416:..\..\..\..\..\..\Software\uCOS-III\Source/os_task.c **** 
1417:..\..\..\..\..\..\Software\uCOS-III\Source/os_task.c **** 
1418:..\..\..\..\..\..\Software\uCOS-III\Source/os_task.c **** #ifdef OS_SAFETY_CRITICAL
1419:..\..\..\..\..\..\Software\uCOS-III\Source/os_task.c ****     if (p_err == (OS_ERR *)0) {
1420:..\..\..\..\..\..\Software\uCOS-III\Source/os_task.c ****         OS_SAFETY_CRITICAL_EXCEPTION();
1421:..\..\..\..\..\..\Software\uCOS-III\Source/os_task.c ****         return (DEF_FALSE);
1422:..\..\..\..\..\..\Software\uCOS-III\Source/os_task.c ****     }
1423:..\..\..\..\..\..\Software\uCOS-III\Source/os_task.c **** #endif
1424:..\..\..\..\..\..\Software\uCOS-III\Source/os_task.c **** 
1425:..\..\..\..\..\..\Software\uCOS-III\Source/os_task.c **** #if OS_CFG_CALLED_FROM_ISR_CHK_EN > 0u
1426:..\..\..\..\..\..\Software\uCOS-III\Source/os_task.c ****     if (OSIntNestingCtr > (OS_NESTING_CTR)0) {              /* See if called from ISR ...          
1427:..\..\..\..\..\..\Software\uCOS-III\Source/os_task.c ****        *p_err = OS_ERR_PEND_ABORT_ISR;                      /* ... can't Pend Abort from an ISR    
1428:..\..\..\..\..\..\Software\uCOS-III\Source/os_task.c ****         return (DEF_FALSE);
1429:..\..\..\..\..\..\Software\uCOS-III\Source/os_task.c ****     }
1430:..\..\..\..\..\..\Software\uCOS-III\Source/os_task.c **** #endif
1431:..\..\..\..\..\..\Software\uCOS-III\Source/os_task.c **** 
1432:..\..\..\..\..\..\Software\uCOS-III\Source/os_task.c **** #if OS_CFG_ARG_CHK_EN > 0u
1433:..\..\..\..\..\..\Software\uCOS-III\Source/os_task.c ****     switch (opt) {                                          /* Validate 'opt'                      
1434:..\..\..\..\..\..\Software\uCOS-III\Source/os_task.c ****         case OS_OPT_POST_NONE:
1435:..\..\..\..\..\..\Software\uCOS-III\Source/os_task.c ****         case OS_OPT_POST_NO_SCHED:
1436:..\..\..\..\..\..\Software\uCOS-III\Source/os_task.c ****              break;
1437:..\..\..\..\..\..\Software\uCOS-III\Source/os_task.c **** 
1438:..\..\..\..\..\..\Software\uCOS-III\Source/os_task.c ****         default:
1439:..\..\..\..\..\..\Software\uCOS-III\Source/os_task.c ****             *p_err =  OS_ERR_OPT_INVALID;
1440:..\..\..\..\..\..\Software\uCOS-III\Source/os_task.c ****              return (DEF_FALSE);
1441:..\..\..\..\..\..\Software\uCOS-III\Source/os_task.c ****     }
1442:..\..\..\..\..\..\Software\uCOS-III\Source/os_task.c **** #endif
1443:..\..\..\..\..\..\Software\uCOS-III\Source/os_task.c **** 
1444:..\..\..\..\..\..\Software\uCOS-III\Source/os_task.c ****     CPU_CRITICAL_ENTER();
1445:..\..\..\..\..\..\Software\uCOS-III\Source/os_task.c ****     if ((p_tcb == (OS_TCB *)0) ||                           /* Pend abort self?                    
1446:..\..\..\..\..\..\Software\uCOS-III\Source/os_task.c ****         (p_tcb == OSTCBCurPtr)) {
1447:..\..\..\..\..\..\Software\uCOS-III\Source/os_task.c ****         CPU_CRITICAL_EXIT();                                /* ... doesn't make sense!             
1448:..\..\..\..\..\..\Software\uCOS-III\Source/os_task.c ****        *p_err = OS_ERR_PEND_ABORT_SELF;
ARM GAS  C:\Users\EDULU~1.DES\AppData\Local\Temp\ccyhp2HA.s 			page 49


1449:..\..\..\..\..\..\Software\uCOS-III\Source/os_task.c ****         return (DEF_FALSE);
1450:..\..\..\..\..\..\Software\uCOS-III\Source/os_task.c ****     }
1451:..\..\..\..\..\..\Software\uCOS-III\Source/os_task.c **** 
1452:..\..\..\..\..\..\Software\uCOS-III\Source/os_task.c ****     if (p_tcb->PendOn != OS_TASK_PEND_ON_TASK_SEM) {        /* Is task waiting for a signal?       
1453:..\..\..\..\..\..\Software\uCOS-III\Source/os_task.c ****         CPU_CRITICAL_EXIT();
1454:..\..\..\..\..\..\Software\uCOS-III\Source/os_task.c ****        *p_err = OS_ERR_PEND_ABORT_NONE;
1455:..\..\..\..\..\..\Software\uCOS-III\Source/os_task.c ****         return (DEF_FALSE);
1456:..\..\..\..\..\..\Software\uCOS-III\Source/os_task.c ****     }
1457:..\..\..\..\..\..\Software\uCOS-III\Source/os_task.c ****     CPU_CRITICAL_EXIT();
1458:..\..\..\..\..\..\Software\uCOS-III\Source/os_task.c **** 
1459:..\..\..\..\..\..\Software\uCOS-III\Source/os_task.c ****     OS_CRITICAL_ENTER();
1460:..\..\..\..\..\..\Software\uCOS-III\Source/os_task.c ****     ts = OS_TS_GET();
1461:..\..\..\..\..\..\Software\uCOS-III\Source/os_task.c ****     OS_PendAbort((OS_PEND_OBJ *)0,
1462:..\..\..\..\..\..\Software\uCOS-III\Source/os_task.c ****                  p_tcb,
1463:..\..\..\..\..\..\Software\uCOS-III\Source/os_task.c ****                  ts);
1464:..\..\..\..\..\..\Software\uCOS-III\Source/os_task.c ****     OS_CRITICAL_EXIT_NO_SCHED();
1465:..\..\..\..\..\..\Software\uCOS-III\Source/os_task.c ****     if ((opt & OS_OPT_POST_NO_SCHED) == (OS_OPT)0) {
1466:..\..\..\..\..\..\Software\uCOS-III\Source/os_task.c ****         OSSched();                                          /* Run the scheduler                   
1467:..\..\..\..\..\..\Software\uCOS-III\Source/os_task.c ****     }
1468:..\..\..\..\..\..\Software\uCOS-III\Source/os_task.c ****    *p_err = OS_ERR_NONE;
1469:..\..\..\..\..\..\Software\uCOS-III\Source/os_task.c ****     return (DEF_TRUE);
1470:..\..\..\..\..\..\Software\uCOS-III\Source/os_task.c **** }
1471:..\..\..\..\..\..\Software\uCOS-III\Source/os_task.c **** #endif
1472:..\..\..\..\..\..\Software\uCOS-III\Source/os_task.c **** 
1473:..\..\..\..\..\..\Software\uCOS-III\Source/os_task.c **** /*$PAGE*/
1474:..\..\..\..\..\..\Software\uCOS-III\Source/os_task.c **** /*
1475:..\..\..\..\..\..\Software\uCOS-III\Source/os_task.c **** ***************************************************************************************************
1476:..\..\..\..\..\..\Software\uCOS-III\Source/os_task.c **** *                                                    SIGNAL A TASK
1477:..\..\..\..\..\..\Software\uCOS-III\Source/os_task.c **** *
1478:..\..\..\..\..\..\Software\uCOS-III\Source/os_task.c **** * Description: This function is called to signal a task waiting for a signal.
1479:..\..\..\..\..\..\Software\uCOS-III\Source/os_task.c **** *
1480:..\..\..\..\..\..\Software\uCOS-III\Source/os_task.c **** * Arguments  : p_tcb     is the pointer to the TCB of the task to signal.  A NULL pointer indicates
1481:..\..\..\..\..\..\Software\uCOS-III\Source/os_task.c **** *                        a signal to yourself.
1482:..\..\..\..\..\..\Software\uCOS-III\Source/os_task.c **** *
1483:..\..\..\..\..\..\Software\uCOS-III\Source/os_task.c **** *              opt       determines the type of POST performed:
1484:..\..\..\..\..\..\Software\uCOS-III\Source/os_task.c **** *
1485:..\..\..\..\..\..\Software\uCOS-III\Source/os_task.c **** *                             OS_OPT_POST_NONE         No option
1486:..\..\..\..\..\..\Software\uCOS-III\Source/os_task.c **** *                             OS_OPT_POST_NO_SCHED     Do not call the scheduler
1487:..\..\..\..\..\..\Software\uCOS-III\Source/os_task.c **** *
1488:..\..\..\..\..\..\Software\uCOS-III\Source/os_task.c **** *              p_err     is a pointer to an error code returned by this function:
1489:..\..\..\..\..\..\Software\uCOS-III\Source/os_task.c **** *
1490:..\..\..\..\..\..\Software\uCOS-III\Source/os_task.c **** *                            OS_ERR_NONE              If the requested task is signaled
1491:..\..\..\..\..\..\Software\uCOS-III\Source/os_task.c **** *                            OS_ERR_SEM_OVF           If the post would cause the semaphore count t
1492:..\..\..\..\..\..\Software\uCOS-III\Source/os_task.c **** *
1493:..\..\..\..\..\..\Software\uCOS-III\Source/os_task.c **** * Returns    : The current value of the task's signal counter or 0 if called from an ISR
1494:..\..\..\..\..\..\Software\uCOS-III\Source/os_task.c **** ***************************************************************************************************
1495:..\..\..\..\..\..\Software\uCOS-III\Source/os_task.c **** */
1496:..\..\..\..\..\..\Software\uCOS-III\Source/os_task.c **** 
1497:..\..\..\..\..\..\Software\uCOS-III\Source/os_task.c **** OS_SEM_CTR  OSTaskSemPost (OS_TCB  *p_tcb,
1498:..\..\..\..\..\..\Software\uCOS-III\Source/os_task.c ****                            OS_OPT   opt,
1499:..\..\..\..\..\..\Software\uCOS-III\Source/os_task.c ****                            OS_ERR  *p_err)
1500:..\..\..\..\..\..\Software\uCOS-III\Source/os_task.c **** {
 1282              		.loc 1 1500 0
 1283              		.cfi_startproc
 1284              		@ args = 0, pretend = 0, frame = 24
 1285              		@ frame_needed = 1, uses_anonymous_args = 0
 1286 0000 90B5     		push	{r4, r7, lr}
ARM GAS  C:\Users\EDULU~1.DES\AppData\Local\Temp\ccyhp2HA.s 			page 50


 1287              		.cfi_def_cfa_offset 12
 1288              		.cfi_offset 4, -12
 1289              		.cfi_offset 7, -8
 1290              		.cfi_offset 14, -4
 1291 0002 87B0     		sub	sp, sp, #28
 1292              		.cfi_def_cfa_offset 40
 1293 0004 00AF     		add	r7, sp, #0
 1294              		.cfi_def_cfa_register 7
 1295 0006 F860     		str	r0, [r7, #12]
 1296 0008 7A60     		str	r2, [r7, #4]
 1297 000a 0A23     		movs	r3, #10
 1298 000c FB18     		adds	r3, r7, r3
 1299 000e 0A1C     		adds	r2, r1, #0
 1300 0010 1A80     		strh	r2, [r3]
1501:..\..\..\..\..\..\Software\uCOS-III\Source/os_task.c ****     OS_SEM_CTR  ctr;
1502:..\..\..\..\..\..\Software\uCOS-III\Source/os_task.c ****     CPU_TS      ts;
1503:..\..\..\..\..\..\Software\uCOS-III\Source/os_task.c **** 
1504:..\..\..\..\..\..\Software\uCOS-III\Source/os_task.c **** 
1505:..\..\..\..\..\..\Software\uCOS-III\Source/os_task.c **** 
1506:..\..\..\..\..\..\Software\uCOS-III\Source/os_task.c **** #ifdef OS_SAFETY_CRITICAL
1507:..\..\..\..\..\..\Software\uCOS-III\Source/os_task.c ****     if (p_err == (OS_ERR *)0) {
1508:..\..\..\..\..\..\Software\uCOS-III\Source/os_task.c ****         OS_SAFETY_CRITICAL_EXCEPTION();
1509:..\..\..\..\..\..\Software\uCOS-III\Source/os_task.c ****         return ((OS_SEM_CTR)0);
1510:..\..\..\..\..\..\Software\uCOS-III\Source/os_task.c ****     }
1511:..\..\..\..\..\..\Software\uCOS-III\Source/os_task.c **** #endif
1512:..\..\..\..\..\..\Software\uCOS-III\Source/os_task.c **** 
1513:..\..\..\..\..\..\Software\uCOS-III\Source/os_task.c **** #if OS_CFG_ARG_CHK_EN > 0u
1514:..\..\..\..\..\..\Software\uCOS-III\Source/os_task.c ****     switch (opt) {                                          /* Validate 'opt'                      
 1301              		.loc 1 1514 0
 1302 0012 0A23     		movs	r3, #10
 1303 0014 FB18     		adds	r3, r7, r3
 1304 0016 1B88     		ldrh	r3, [r3]
 1305 0018 002B     		cmp	r3, #0
 1306 001a 08D0     		beq	.L93
 1307 001c 8022     		movs	r2, #128
 1308 001e 1202     		lsls	r2, r2, #8
 1309 0020 9342     		cmp	r3, r2
 1310 0022 04D0     		beq	.L93
1515:..\..\..\..\..\..\Software\uCOS-III\Source/os_task.c ****         case OS_OPT_POST_NONE:
1516:..\..\..\..\..\..\Software\uCOS-III\Source/os_task.c ****         case OS_OPT_POST_NO_SCHED:
1517:..\..\..\..\..\..\Software\uCOS-III\Source/os_task.c ****              break;
1518:..\..\..\..\..\..\Software\uCOS-III\Source/os_task.c **** 
1519:..\..\..\..\..\..\Software\uCOS-III\Source/os_task.c ****         default:
1520:..\..\..\..\..\..\Software\uCOS-III\Source/os_task.c ****             *p_err =  OS_ERR_OPT_INVALID;
 1311              		.loc 1 1520 0
 1312 0024 7B68     		ldr	r3, [r7, #4]
 1313 0026 0C4A     		ldr	r2, .L94
 1314 0028 1A80     		strh	r2, [r3]
1521:..\..\..\..\..\..\Software\uCOS-III\Source/os_task.c ****              return ((OS_SEM_CTR)0u);
 1315              		.loc 1 1521 0
 1316 002a 0023     		movs	r3, #0
 1317 002c 10E0     		b	.L92
 1318              	.L93:
1517:..\..\..\..\..\..\Software\uCOS-III\Source/os_task.c **** 
 1319              		.loc 1 1517 0
 1320 002e C046     		nop
1522:..\..\..\..\..\..\Software\uCOS-III\Source/os_task.c ****     }
ARM GAS  C:\Users\EDULU~1.DES\AppData\Local\Temp\ccyhp2HA.s 			page 51


1523:..\..\..\..\..\..\Software\uCOS-III\Source/os_task.c **** #endif
1524:..\..\..\..\..\..\Software\uCOS-III\Source/os_task.c **** 
1525:..\..\..\..\..\..\Software\uCOS-III\Source/os_task.c ****     ts = OS_TS_GET();                                       /* Get timestamp                       
 1321              		.loc 1 1525 0
 1322 0030 FFF7FEFF 		bl	CPU_TS_TmrRd
 1323 0034 0300     		movs	r3, r0
 1324 0036 7B61     		str	r3, [r7, #20]
1526:..\..\..\..\..\..\Software\uCOS-III\Source/os_task.c **** 
1527:..\..\..\..\..\..\Software\uCOS-III\Source/os_task.c **** #if OS_CFG_ISR_POST_DEFERRED_EN > 0u
1528:..\..\..\..\..\..\Software\uCOS-III\Source/os_task.c ****     if (OSIntNestingCtr > (OS_NESTING_CTR)0) {              /* See if called from an ISR           
1529:..\..\..\..\..\..\Software\uCOS-III\Source/os_task.c ****         OS_IntQPost((OS_OBJ_TYPE)OS_OBJ_TYPE_TASK_SIGNAL,   /* Post to ISR queue                   
1530:..\..\..\..\..\..\Software\uCOS-III\Source/os_task.c ****                     (void      *)p_tcb,
1531:..\..\..\..\..\..\Software\uCOS-III\Source/os_task.c ****                     (void      *)0,
1532:..\..\..\..\..\..\Software\uCOS-III\Source/os_task.c ****                     (OS_MSG_SIZE)0,
1533:..\..\..\..\..\..\Software\uCOS-III\Source/os_task.c ****                     (OS_FLAGS   )0,
1534:..\..\..\..\..\..\Software\uCOS-III\Source/os_task.c ****                     (OS_OPT     )0,
1535:..\..\..\..\..\..\Software\uCOS-III\Source/os_task.c ****                     (CPU_TS     )ts,
1536:..\..\..\..\..\..\Software\uCOS-III\Source/os_task.c ****                     (OS_ERR    *)p_err);
1537:..\..\..\..\..\..\Software\uCOS-III\Source/os_task.c ****         return ((OS_SEM_CTR)0);
1538:..\..\..\..\..\..\Software\uCOS-III\Source/os_task.c ****     }
1539:..\..\..\..\..\..\Software\uCOS-III\Source/os_task.c **** #endif
1540:..\..\..\..\..\..\Software\uCOS-III\Source/os_task.c **** 
1541:..\..\..\..\..\..\Software\uCOS-III\Source/os_task.c ****     ctr = OS_TaskSemPost(p_tcb,
 1325              		.loc 1 1541 0
 1326 0038 7C68     		ldr	r4, [r7, #4]
 1327 003a 7A69     		ldr	r2, [r7, #20]
 1328 003c 0A23     		movs	r3, #10
 1329 003e FB18     		adds	r3, r7, r3
 1330 0040 1988     		ldrh	r1, [r3]
 1331 0042 F868     		ldr	r0, [r7, #12]
 1332 0044 2300     		movs	r3, r4
 1333 0046 FFF7FEFF 		bl	OS_TaskSemPost
 1334 004a 0300     		movs	r3, r0
 1335 004c 3B61     		str	r3, [r7, #16]
1542:..\..\..\..\..\..\Software\uCOS-III\Source/os_task.c ****                          opt,
1543:..\..\..\..\..\..\Software\uCOS-III\Source/os_task.c ****                          ts,
1544:..\..\..\..\..\..\Software\uCOS-III\Source/os_task.c ****                          p_err);
1545:..\..\..\..\..\..\Software\uCOS-III\Source/os_task.c **** 
1546:..\..\..\..\..\..\Software\uCOS-III\Source/os_task.c ****     return (ctr);
 1336              		.loc 1 1546 0
 1337 004e 3B69     		ldr	r3, [r7, #16]
 1338              	.L92:
1547:..\..\..\..\..\..\Software\uCOS-III\Source/os_task.c **** }
 1339              		.loc 1 1547 0
 1340 0050 1800     		movs	r0, r3
 1341 0052 BD46     		mov	sp, r7
 1342 0054 07B0     		add	sp, sp, #28
 1343              		@ sp needed
 1344 0056 90BD     		pop	{r4, r7, pc}
 1345              	.L95:
 1346              		.align	2
 1347              	.L94:
 1348 0058 255E0000 		.word	24101
 1349              		.cfi_endproc
 1350              	.LFE8:
 1351              		.size	OSTaskSemPost, .-OSTaskSemPost
 1352              		.section	.text.OSTaskSemSet,"ax",%progbits
ARM GAS  C:\Users\EDULU~1.DES\AppData\Local\Temp\ccyhp2HA.s 			page 52


 1353              		.align	2
 1354              		.global	OSTaskSemSet
 1355              		.code	16
 1356              		.thumb_func
 1357              		.type	OSTaskSemSet, %function
 1358              	OSTaskSemSet:
 1359              	.LFB9:
1548:..\..\..\..\..\..\Software\uCOS-III\Source/os_task.c **** 
1549:..\..\..\..\..\..\Software\uCOS-III\Source/os_task.c **** /*$PAGE*/
1550:..\..\..\..\..\..\Software\uCOS-III\Source/os_task.c **** /*
1551:..\..\..\..\..\..\Software\uCOS-III\Source/os_task.c **** ***************************************************************************************************
1552:..\..\..\..\..\..\Software\uCOS-III\Source/os_task.c **** *                                            SET THE SIGNAL COUNTER OF A TASK
1553:..\..\..\..\..\..\Software\uCOS-III\Source/os_task.c **** *
1554:..\..\..\..\..\..\Software\uCOS-III\Source/os_task.c **** * Description: This function is called to clear the signal counter
1555:..\..\..\..\..\..\Software\uCOS-III\Source/os_task.c **** *
1556:..\..\..\..\..\..\Software\uCOS-III\Source/os_task.c **** * Arguments  : p_tcb      is the pointer to the TCB of the task to clear the counter.  If you speci
1557:..\..\..\..\..\..\Software\uCOS-III\Source/os_task.c **** *                         then the signal counter of the current task will be cleared.
1558:..\..\..\..\..\..\Software\uCOS-III\Source/os_task.c **** *
1559:..\..\..\..\..\..\Software\uCOS-III\Source/os_task.c **** *              cnt        is the desired value of the semaphore counter
1560:..\..\..\..\..\..\Software\uCOS-III\Source/os_task.c **** *
1561:..\..\..\..\..\..\Software\uCOS-III\Source/os_task.c **** *              p_err      is a pointer to an error code returned by this function
1562:..\..\..\..\..\..\Software\uCOS-III\Source/os_task.c **** *
1563:..\..\..\..\..\..\Software\uCOS-III\Source/os_task.c **** *                             OS_ERR_NONE        if the signal counter of the requested task is cle
1564:..\..\..\..\..\..\Software\uCOS-III\Source/os_task.c **** *                             OS_ERR_SET_ISR     if the function was called from an ISR
1565:..\..\..\..\..\..\Software\uCOS-III\Source/os_task.c **** *
1566:..\..\..\..\..\..\Software\uCOS-III\Source/os_task.c **** * Returns    : none
1567:..\..\..\..\..\..\Software\uCOS-III\Source/os_task.c **** ***************************************************************************************************
1568:..\..\..\..\..\..\Software\uCOS-III\Source/os_task.c **** */
1569:..\..\..\..\..\..\Software\uCOS-III\Source/os_task.c **** 
1570:..\..\..\..\..\..\Software\uCOS-III\Source/os_task.c **** OS_SEM_CTR  OSTaskSemSet (OS_TCB      *p_tcb,
1571:..\..\..\..\..\..\Software\uCOS-III\Source/os_task.c ****                           OS_SEM_CTR   cnt,
1572:..\..\..\..\..\..\Software\uCOS-III\Source/os_task.c ****                           OS_ERR      *p_err)
1573:..\..\..\..\..\..\Software\uCOS-III\Source/os_task.c **** {
 1360              		.loc 1 1573 0
 1361              		.cfi_startproc
 1362              		@ args = 0, pretend = 0, frame = 24
 1363              		@ frame_needed = 1, uses_anonymous_args = 0
 1364 0000 80B5     		push	{r7, lr}
 1365              		.cfi_def_cfa_offset 8
 1366              		.cfi_offset 7, -8
 1367              		.cfi_offset 14, -4
 1368 0002 86B0     		sub	sp, sp, #24
 1369              		.cfi_def_cfa_offset 32
 1370 0004 00AF     		add	r7, sp, #0
 1371              		.cfi_def_cfa_register 7
 1372 0006 F860     		str	r0, [r7, #12]
 1373 0008 B960     		str	r1, [r7, #8]
 1374 000a 7A60     		str	r2, [r7, #4]
1574:..\..\..\..\..\..\Software\uCOS-III\Source/os_task.c ****     OS_SEM_CTR  ctr;
1575:..\..\..\..\..\..\Software\uCOS-III\Source/os_task.c ****     CPU_SR_ALLOC();
 1375              		.loc 1 1575 0
 1376 000c 0023     		movs	r3, #0
 1377 000e 7B61     		str	r3, [r7, #20]
1576:..\..\..\..\..\..\Software\uCOS-III\Source/os_task.c **** 
1577:..\..\..\..\..\..\Software\uCOS-III\Source/os_task.c **** 
1578:..\..\..\..\..\..\Software\uCOS-III\Source/os_task.c **** 
1579:..\..\..\..\..\..\Software\uCOS-III\Source/os_task.c **** #ifdef OS_SAFETY_CRITICAL
ARM GAS  C:\Users\EDULU~1.DES\AppData\Local\Temp\ccyhp2HA.s 			page 53


1580:..\..\..\..\..\..\Software\uCOS-III\Source/os_task.c ****     if (p_err == (OS_ERR *)0) {
1581:..\..\..\..\..\..\Software\uCOS-III\Source/os_task.c ****         OS_SAFETY_CRITICAL_EXCEPTION();
1582:..\..\..\..\..\..\Software\uCOS-III\Source/os_task.c ****         return ((OS_SEM_CTR)0);
1583:..\..\..\..\..\..\Software\uCOS-III\Source/os_task.c ****     }
1584:..\..\..\..\..\..\Software\uCOS-III\Source/os_task.c **** #endif
1585:..\..\..\..\..\..\Software\uCOS-III\Source/os_task.c **** 
1586:..\..\..\..\..\..\Software\uCOS-III\Source/os_task.c **** #if OS_CFG_CALLED_FROM_ISR_CHK_EN > 0u
1587:..\..\..\..\..\..\Software\uCOS-III\Source/os_task.c ****     if (OSIntNestingCtr > (OS_NESTING_CTR)0) {              /* Not allowed to call from an ISR     
 1378              		.loc 1 1587 0
 1379 0010 144B     		ldr	r3, .L100
 1380 0012 1B78     		ldrb	r3, [r3]
 1381 0014 002B     		cmp	r3, #0
 1382 0016 04D0     		beq	.L97
1588:..\..\..\..\..\..\Software\uCOS-III\Source/os_task.c ****        *p_err = OS_ERR_SET_ISR;
 1383              		.loc 1 1588 0
 1384 0018 7B68     		ldr	r3, [r7, #4]
 1385 001a 134A     		ldr	r2, .L100+4
 1386 001c 1A80     		strh	r2, [r3]
1589:..\..\..\..\..\..\Software\uCOS-III\Source/os_task.c ****         return ((OS_SEM_CTR)0);
 1387              		.loc 1 1589 0
 1388 001e 0023     		movs	r3, #0
 1389 0020 1BE0     		b	.L98
 1390              	.L97:
1590:..\..\..\..\..\..\Software\uCOS-III\Source/os_task.c ****     }
1591:..\..\..\..\..\..\Software\uCOS-III\Source/os_task.c **** #endif
1592:..\..\..\..\..\..\Software\uCOS-III\Source/os_task.c **** 
1593:..\..\..\..\..\..\Software\uCOS-III\Source/os_task.c ****     CPU_CRITICAL_ENTER();
 1391              		.loc 1 1593 0
 1392 0022 FFF7FEFF 		bl	CPU_SR_Save
 1393 0026 0300     		movs	r3, r0
 1394 0028 7B61     		str	r3, [r7, #20]
 1395 002a FFF7FEFF 		bl	CPU_IntDisMeasStart
1594:..\..\..\..\..\..\Software\uCOS-III\Source/os_task.c ****     if (p_tcb == (OS_TCB *)0) {
 1396              		.loc 1 1594 0
 1397 002e FB68     		ldr	r3, [r7, #12]
 1398 0030 002B     		cmp	r3, #0
 1399 0032 02D1     		bne	.L99
1595:..\..\..\..\..\..\Software\uCOS-III\Source/os_task.c ****         p_tcb = OSTCBCurPtr;
 1400              		.loc 1 1595 0
 1401 0034 0D4B     		ldr	r3, .L100+8
 1402 0036 1B68     		ldr	r3, [r3]
 1403 0038 FB60     		str	r3, [r7, #12]
 1404              	.L99:
1596:..\..\..\..\..\..\Software\uCOS-III\Source/os_task.c ****     }
1597:..\..\..\..\..\..\Software\uCOS-III\Source/os_task.c ****     ctr           = p_tcb->SemCtr;
 1405              		.loc 1 1597 0
 1406 003a FB68     		ldr	r3, [r7, #12]
 1407 003c 5B6C     		ldr	r3, [r3, #68]
 1408 003e 3B61     		str	r3, [r7, #16]
1598:..\..\..\..\..\..\Software\uCOS-III\Source/os_task.c ****     p_tcb->SemCtr = (OS_SEM_CTR)cnt;
 1409              		.loc 1 1598 0
 1410 0040 FB68     		ldr	r3, [r7, #12]
 1411 0042 BA68     		ldr	r2, [r7, #8]
 1412 0044 5A64     		str	r2, [r3, #68]
1599:..\..\..\..\..\..\Software\uCOS-III\Source/os_task.c ****     CPU_CRITICAL_EXIT();
 1413              		.loc 1 1599 0
 1414 0046 FFF7FEFF 		bl	CPU_IntDisMeasStop
ARM GAS  C:\Users\EDULU~1.DES\AppData\Local\Temp\ccyhp2HA.s 			page 54


 1415 004a 7B69     		ldr	r3, [r7, #20]
 1416 004c 1800     		movs	r0, r3
 1417 004e FFF7FEFF 		bl	CPU_SR_Restore
1600:..\..\..\..\..\..\Software\uCOS-III\Source/os_task.c ****    *p_err         =  OS_ERR_NONE;
 1418              		.loc 1 1600 0
 1419 0052 7B68     		ldr	r3, [r7, #4]
 1420 0054 0022     		movs	r2, #0
 1421 0056 1A80     		strh	r2, [r3]
1601:..\..\..\..\..\..\Software\uCOS-III\Source/os_task.c ****     return (ctr);
 1422              		.loc 1 1601 0
 1423 0058 3B69     		ldr	r3, [r7, #16]
 1424              	.L98:
1602:..\..\..\..\..\..\Software\uCOS-III\Source/os_task.c **** }
 1425              		.loc 1 1602 0
 1426 005a 1800     		movs	r0, r3
 1427 005c BD46     		mov	sp, r7
 1428 005e 06B0     		add	sp, sp, #24
 1429              		@ sp needed
 1430 0060 80BD     		pop	{r7, pc}
 1431              	.L101:
 1432 0062 C046     		.align	2
 1433              	.L100:
 1434 0064 00000000 		.word	OSIntNestingCtr
 1435 0068 C66D0000 		.word	28102
 1436 006c 00000000 		.word	OSTCBCurPtr
 1437              		.cfi_endproc
 1438              	.LFE9:
 1439              		.size	OSTaskSemSet, .-OSTaskSemSet
 1440              		.section	.text.OSTaskStkChk,"ax",%progbits
 1441              		.align	2
 1442              		.global	OSTaskStkChk
 1443              		.code	16
 1444              		.thumb_func
 1445              		.type	OSTaskStkChk, %function
 1446              	OSTaskStkChk:
 1447              	.LFB10:
1603:..\..\..\..\..\..\Software\uCOS-III\Source/os_task.c **** 
1604:..\..\..\..\..\..\Software\uCOS-III\Source/os_task.c **** /*$PAGE*/
1605:..\..\..\..\..\..\Software\uCOS-III\Source/os_task.c **** /*
1606:..\..\..\..\..\..\Software\uCOS-III\Source/os_task.c **** ***************************************************************************************************
1607:..\..\..\..\..\..\Software\uCOS-III\Source/os_task.c **** *                                                    STACK CHECKING
1608:..\..\..\..\..\..\Software\uCOS-III\Source/os_task.c **** *
1609:..\..\..\..\..\..\Software\uCOS-III\Source/os_task.c **** * Description: This function is called to calculate the amount of free memory left on the specified
1610:..\..\..\..\..\..\Software\uCOS-III\Source/os_task.c **** *
1611:..\..\..\..\..\..\Software\uCOS-III\Source/os_task.c **** * Arguments  : p_tcb       is a pointer to the TCB of the task to check.  If you specify a NULL poi
1612:..\..\..\..\..\..\Software\uCOS-III\Source/os_task.c **** *                          you are specifying that you want to check the stack of the current task.
1613:..\..\..\..\..\..\Software\uCOS-III\Source/os_task.c **** *
1614:..\..\..\..\..\..\Software\uCOS-III\Source/os_task.c **** *              p_free      is a pointer to a variable that will receive the number of free 'entries
1615:..\..\..\..\..\..\Software\uCOS-III\Source/os_task.c **** *
1616:..\..\..\..\..\..\Software\uCOS-III\Source/os_task.c **** *              p_used      is a pointer to a variable that will receive the number of used 'entries
1617:..\..\..\..\..\..\Software\uCOS-III\Source/os_task.c **** *
1618:..\..\..\..\..\..\Software\uCOS-III\Source/os_task.c **** *              p_err       is a pointer to a variable that will contain an error code.
1619:..\..\..\..\..\..\Software\uCOS-III\Source/os_task.c **** *
1620:..\..\..\..\..\..\Software\uCOS-III\Source/os_task.c **** *                              OS_ERR_NONE               upon success
1621:..\..\..\..\..\..\Software\uCOS-III\Source/os_task.c **** *                              OS_ERR_PTR_INVALID        if either 'p_free' or 'p_used' are NULL po
1622:..\..\..\..\..\..\Software\uCOS-III\Source/os_task.c **** *                              OS_ERR_TASK_NOT_EXIST     if the stack pointer of the task is a NULL
1623:..\..\..\..\..\..\Software\uCOS-III\Source/os_task.c **** *                              OS_ERR_TASK_OPT           if you did NOT specified OS_OPT_TASK_STK_C
ARM GAS  C:\Users\EDULU~1.DES\AppData\Local\Temp\ccyhp2HA.s 			page 55


1624:..\..\..\..\..\..\Software\uCOS-III\Source/os_task.c **** *                                                        was created
1625:..\..\..\..\..\..\Software\uCOS-III\Source/os_task.c **** *                              OS_ERR_TASK_STK_CHK_ISR   you called this function from an ISR
1626:..\..\..\..\..\..\Software\uCOS-III\Source/os_task.c **** ***************************************************************************************************
1627:..\..\..\..\..\..\Software\uCOS-III\Source/os_task.c **** */
1628:..\..\..\..\..\..\Software\uCOS-III\Source/os_task.c **** 
1629:..\..\..\..\..\..\Software\uCOS-III\Source/os_task.c **** #if OS_CFG_STAT_TASK_STK_CHK_EN > 0u
1630:..\..\..\..\..\..\Software\uCOS-III\Source/os_task.c **** void  OSTaskStkChk (OS_TCB        *p_tcb,
1631:..\..\..\..\..\..\Software\uCOS-III\Source/os_task.c ****                     CPU_STK_SIZE  *p_free,
1632:..\..\..\..\..\..\Software\uCOS-III\Source/os_task.c ****                     CPU_STK_SIZE  *p_used,
1633:..\..\..\..\..\..\Software\uCOS-III\Source/os_task.c ****                     OS_ERR        *p_err)
1634:..\..\..\..\..\..\Software\uCOS-III\Source/os_task.c **** {
 1448              		.loc 1 1634 0
 1449              		.cfi_startproc
 1450              		@ args = 0, pretend = 0, frame = 32
 1451              		@ frame_needed = 1, uses_anonymous_args = 0
 1452 0000 80B5     		push	{r7, lr}
 1453              		.cfi_def_cfa_offset 8
 1454              		.cfi_offset 7, -8
 1455              		.cfi_offset 14, -4
 1456 0002 88B0     		sub	sp, sp, #32
 1457              		.cfi_def_cfa_offset 40
 1458 0004 00AF     		add	r7, sp, #0
 1459              		.cfi_def_cfa_register 7
 1460 0006 F860     		str	r0, [r7, #12]
 1461 0008 B960     		str	r1, [r7, #8]
 1462 000a 7A60     		str	r2, [r7, #4]
 1463 000c 3B60     		str	r3, [r7]
1635:..\..\..\..\..\..\Software\uCOS-III\Source/os_task.c ****     CPU_STK_SIZE  free_stk;
1636:..\..\..\..\..\..\Software\uCOS-III\Source/os_task.c ****     CPU_STK      *p_stk;
1637:..\..\..\..\..\..\Software\uCOS-III\Source/os_task.c ****     CPU_SR_ALLOC();
 1464              		.loc 1 1637 0
 1465 000e 0023     		movs	r3, #0
 1466 0010 7B61     		str	r3, [r7, #20]
1638:..\..\..\..\..\..\Software\uCOS-III\Source/os_task.c **** 
1639:..\..\..\..\..\..\Software\uCOS-III\Source/os_task.c **** 
1640:..\..\..\..\..\..\Software\uCOS-III\Source/os_task.c **** 
1641:..\..\..\..\..\..\Software\uCOS-III\Source/os_task.c **** #ifdef OS_SAFETY_CRITICAL
1642:..\..\..\..\..\..\Software\uCOS-III\Source/os_task.c ****     if (p_err == (OS_ERR *)0) {
1643:..\..\..\..\..\..\Software\uCOS-III\Source/os_task.c ****         OS_SAFETY_CRITICAL_EXCEPTION();
1644:..\..\..\..\..\..\Software\uCOS-III\Source/os_task.c ****         return;
1645:..\..\..\..\..\..\Software\uCOS-III\Source/os_task.c ****     }
1646:..\..\..\..\..\..\Software\uCOS-III\Source/os_task.c **** #endif
1647:..\..\..\..\..\..\Software\uCOS-III\Source/os_task.c **** 
1648:..\..\..\..\..\..\Software\uCOS-III\Source/os_task.c **** #if OS_CFG_CALLED_FROM_ISR_CHK_EN > 0u
1649:..\..\..\..\..\..\Software\uCOS-III\Source/os_task.c ****     if (OSIntNestingCtr > (OS_NESTING_CTR)0) {              /* See if trying to check stack from IS
 1467              		.loc 1 1649 0
 1468 0012 384B     		ldr	r3, .L112
 1469 0014 1B78     		ldrb	r3, [r3]
 1470 0016 002B     		cmp	r3, #0
 1471 0018 03D0     		beq	.L103
1650:..\..\..\..\..\..\Software\uCOS-III\Source/os_task.c ****        *p_err = OS_ERR_TASK_STK_CHK_ISR;
 1472              		.loc 1 1650 0
 1473 001a 3B68     		ldr	r3, [r7]
 1474 001c 364A     		ldr	r2, .L112+4
 1475 001e 1A80     		strh	r2, [r3]
1651:..\..\..\..\..\..\Software\uCOS-III\Source/os_task.c ****         return;
 1476              		.loc 1 1651 0
ARM GAS  C:\Users\EDULU~1.DES\AppData\Local\Temp\ccyhp2HA.s 			page 56


 1477 0020 65E0     		b	.L102
 1478              	.L103:
1652:..\..\..\..\..\..\Software\uCOS-III\Source/os_task.c ****     }
1653:..\..\..\..\..\..\Software\uCOS-III\Source/os_task.c **** #endif
1654:..\..\..\..\..\..\Software\uCOS-III\Source/os_task.c **** 
1655:..\..\..\..\..\..\Software\uCOS-III\Source/os_task.c **** #if OS_CFG_ARG_CHK_EN > 0u
1656:..\..\..\..\..\..\Software\uCOS-III\Source/os_task.c ****     if (p_free == (CPU_STK_SIZE*)0) {                       /* User must specify valid destinations
 1479              		.loc 1 1656 0
 1480 0022 BB68     		ldr	r3, [r7, #8]
 1481 0024 002B     		cmp	r3, #0
 1482 0026 03D1     		bne	.L105
1657:..\..\..\..\..\..\Software\uCOS-III\Source/os_task.c ****        *p_err  = OS_ERR_PTR_INVALID;
 1483              		.loc 1 1657 0
 1484 0028 3B68     		ldr	r3, [r7]
 1485 002a 344A     		ldr	r2, .L112+8
 1486 002c 1A80     		strh	r2, [r3]
1658:..\..\..\..\..\..\Software\uCOS-III\Source/os_task.c ****         return;
 1487              		.loc 1 1658 0
 1488 002e 5EE0     		b	.L102
 1489              	.L105:
1659:..\..\..\..\..\..\Software\uCOS-III\Source/os_task.c ****     }
1660:..\..\..\..\..\..\Software\uCOS-III\Source/os_task.c **** 
1661:..\..\..\..\..\..\Software\uCOS-III\Source/os_task.c ****     if (p_used == (CPU_STK_SIZE*)0) {
 1490              		.loc 1 1661 0
 1491 0030 7B68     		ldr	r3, [r7, #4]
 1492 0032 002B     		cmp	r3, #0
 1493 0034 03D1     		bne	.L106
1662:..\..\..\..\..\..\Software\uCOS-III\Source/os_task.c ****        *p_err  = OS_ERR_PTR_INVALID;
 1494              		.loc 1 1662 0
 1495 0036 3B68     		ldr	r3, [r7]
 1496 0038 304A     		ldr	r2, .L112+8
 1497 003a 1A80     		strh	r2, [r3]
1663:..\..\..\..\..\..\Software\uCOS-III\Source/os_task.c ****         return;
 1498              		.loc 1 1663 0
 1499 003c 57E0     		b	.L102
 1500              	.L106:
1664:..\..\..\..\..\..\Software\uCOS-III\Source/os_task.c ****     }
1665:..\..\..\..\..\..\Software\uCOS-III\Source/os_task.c **** #endif
1666:..\..\..\..\..\..\Software\uCOS-III\Source/os_task.c **** 
1667:..\..\..\..\..\..\Software\uCOS-III\Source/os_task.c ****     CPU_CRITICAL_ENTER();
 1501              		.loc 1 1667 0
 1502 003e FFF7FEFF 		bl	CPU_SR_Save
 1503 0042 0300     		movs	r3, r0
 1504 0044 7B61     		str	r3, [r7, #20]
 1505 0046 FFF7FEFF 		bl	CPU_IntDisMeasStart
1668:..\..\..\..\..\..\Software\uCOS-III\Source/os_task.c ****     if (p_tcb == (OS_TCB *)0) {                             /* Check the stack of the current task?
 1506              		.loc 1 1668 0
 1507 004a FB68     		ldr	r3, [r7, #12]
 1508 004c 002B     		cmp	r3, #0
 1509 004e 02D1     		bne	.L107
1669:..\..\..\..\..\..\Software\uCOS-III\Source/os_task.c ****         p_tcb = OSTCBCurPtr;                                /* Yes                                 
 1510              		.loc 1 1669 0
 1511 0050 2B4B     		ldr	r3, .L112+12
 1512 0052 1B68     		ldr	r3, [r3]
 1513 0054 FB60     		str	r3, [r7, #12]
 1514              	.L107:
1670:..\..\..\..\..\..\Software\uCOS-III\Source/os_task.c ****     }
ARM GAS  C:\Users\EDULU~1.DES\AppData\Local\Temp\ccyhp2HA.s 			page 57


1671:..\..\..\..\..\..\Software\uCOS-III\Source/os_task.c **** 
1672:..\..\..\..\..\..\Software\uCOS-III\Source/os_task.c ****     if (p_tcb->StkPtr == (CPU_STK*)0) {                     /* Make sure task exist                
 1515              		.loc 1 1672 0
 1516 0056 FB68     		ldr	r3, [r7, #12]
 1517 0058 1B68     		ldr	r3, [r3]
 1518 005a 002B     		cmp	r3, #0
 1519 005c 0FD1     		bne	.L108
1673:..\..\..\..\..\..\Software\uCOS-III\Source/os_task.c ****         CPU_CRITICAL_EXIT();
 1520              		.loc 1 1673 0
 1521 005e FFF7FEFF 		bl	CPU_IntDisMeasStop
 1522 0062 7B69     		ldr	r3, [r7, #20]
 1523 0064 1800     		movs	r0, r3
 1524 0066 FFF7FEFF 		bl	CPU_SR_Restore
1674:..\..\..\..\..\..\Software\uCOS-III\Source/os_task.c ****        *p_free = (CPU_STK_SIZE)0;
 1525              		.loc 1 1674 0
 1526 006a BB68     		ldr	r3, [r7, #8]
 1527 006c 0022     		movs	r2, #0
 1528 006e 1A60     		str	r2, [r3]
1675:..\..\..\..\..\..\Software\uCOS-III\Source/os_task.c ****        *p_used = (CPU_STK_SIZE)0;
 1529              		.loc 1 1675 0
 1530 0070 7B68     		ldr	r3, [r7, #4]
 1531 0072 0022     		movs	r2, #0
 1532 0074 1A60     		str	r2, [r3]
1676:..\..\..\..\..\..\Software\uCOS-III\Source/os_task.c ****        *p_err  =  OS_ERR_TASK_NOT_EXIST;
 1533              		.loc 1 1676 0
 1534 0076 3B68     		ldr	r3, [r7]
 1535 0078 224A     		ldr	r2, .L112+16
 1536 007a 1A80     		strh	r2, [r3]
1677:..\..\..\..\..\..\Software\uCOS-III\Source/os_task.c ****         return;
 1537              		.loc 1 1677 0
 1538 007c 37E0     		b	.L102
 1539              	.L108:
1678:..\..\..\..\..\..\Software\uCOS-III\Source/os_task.c ****     }
1679:..\..\..\..\..\..\Software\uCOS-III\Source/os_task.c **** 
1680:..\..\..\..\..\..\Software\uCOS-III\Source/os_task.c ****     if ((p_tcb->Opt & OS_OPT_TASK_STK_CHK) == (OS_OPT)0) {  /* Make sure stack checking option is s
 1540              		.loc 1 1680 0
 1541 007e FB68     		ldr	r3, [r7, #12]
 1542 0080 9B8F     		ldrh	r3, [r3, #60]
 1543 0082 1A00     		movs	r2, r3
 1544 0084 0123     		movs	r3, #1
 1545 0086 1340     		ands	r3, r2
 1546 0088 0FD1     		bne	.L109
1681:..\..\..\..\..\..\Software\uCOS-III\Source/os_task.c ****         CPU_CRITICAL_EXIT();
 1547              		.loc 1 1681 0
 1548 008a FFF7FEFF 		bl	CPU_IntDisMeasStop
 1549 008e 7B69     		ldr	r3, [r7, #20]
 1550 0090 1800     		movs	r0, r3
 1551 0092 FFF7FEFF 		bl	CPU_SR_Restore
1682:..\..\..\..\..\..\Software\uCOS-III\Source/os_task.c ****        *p_free = (CPU_STK_SIZE)0;
 1552              		.loc 1 1682 0
 1553 0096 BB68     		ldr	r3, [r7, #8]
 1554 0098 0022     		movs	r2, #0
 1555 009a 1A60     		str	r2, [r3]
1683:..\..\..\..\..\..\Software\uCOS-III\Source/os_task.c ****        *p_used = (CPU_STK_SIZE)0;
 1556              		.loc 1 1683 0
 1557 009c 7B68     		ldr	r3, [r7, #4]
 1558 009e 0022     		movs	r2, #0
ARM GAS  C:\Users\EDULU~1.DES\AppData\Local\Temp\ccyhp2HA.s 			page 58


 1559 00a0 1A60     		str	r2, [r3]
1684:..\..\..\..\..\..\Software\uCOS-III\Source/os_task.c ****        *p_err  =  OS_ERR_TASK_OPT;
 1560              		.loc 1 1684 0
 1561 00a2 3B68     		ldr	r3, [r7]
 1562 00a4 184A     		ldr	r2, .L112+20
 1563 00a6 1A80     		strh	r2, [r3]
1685:..\..\..\..\..\..\Software\uCOS-III\Source/os_task.c ****         return;
 1564              		.loc 1 1685 0
 1565 00a8 21E0     		b	.L102
 1566              	.L109:
1686:..\..\..\..\..\..\Software\uCOS-III\Source/os_task.c ****     }
1687:..\..\..\..\..\..\Software\uCOS-III\Source/os_task.c ****     CPU_CRITICAL_EXIT();
 1567              		.loc 1 1687 0
 1568 00aa FFF7FEFF 		bl	CPU_IntDisMeasStop
 1569 00ae 7B69     		ldr	r3, [r7, #20]
 1570 00b0 1800     		movs	r0, r3
 1571 00b2 FFF7FEFF 		bl	CPU_SR_Restore
1688:..\..\..\..\..\..\Software\uCOS-III\Source/os_task.c **** 
1689:..\..\..\..\..\..\Software\uCOS-III\Source/os_task.c ****     free_stk  = 0u;
 1572              		.loc 1 1689 0
 1573 00b6 0023     		movs	r3, #0
 1574 00b8 FB61     		str	r3, [r7, #28]
1690:..\..\..\..\..\..\Software\uCOS-III\Source/os_task.c **** #if CPU_CFG_STK_GROWTH == CPU_STK_GROWTH_HI_TO_LO
1691:..\..\..\..\..\..\Software\uCOS-III\Source/os_task.c ****     p_stk = p_tcb->StkBasePtr;                              /* Start at the lowest memory and go up
 1575              		.loc 1 1691 0
 1576 00ba FB68     		ldr	r3, [r7, #12]
 1577 00bc 5B6A     		ldr	r3, [r3, #36]
 1578 00be BB61     		str	r3, [r7, #24]
1692:..\..\..\..\..\..\Software\uCOS-III\Source/os_task.c ****     while (*p_stk == (CPU_STK)0) {                          /* Compute the number of zero entries o
 1579              		.loc 1 1692 0
 1580 00c0 05E0     		b	.L110
 1581              	.L111:
1693:..\..\..\..\..\..\Software\uCOS-III\Source/os_task.c ****         p_stk++;
 1582              		.loc 1 1693 0
 1583 00c2 BB69     		ldr	r3, [r7, #24]
 1584 00c4 0433     		adds	r3, r3, #4
 1585 00c6 BB61     		str	r3, [r7, #24]
1694:..\..\..\..\..\..\Software\uCOS-III\Source/os_task.c ****         free_stk++;
 1586              		.loc 1 1694 0
 1587 00c8 FB69     		ldr	r3, [r7, #28]
 1588 00ca 0133     		adds	r3, r3, #1
 1589 00cc FB61     		str	r3, [r7, #28]
 1590              	.L110:
1692:..\..\..\..\..\..\Software\uCOS-III\Source/os_task.c ****     while (*p_stk == (CPU_STK)0) {                          /* Compute the number of zero entries o
 1591              		.loc 1 1692 0
 1592 00ce BB69     		ldr	r3, [r7, #24]
 1593 00d0 1B68     		ldr	r3, [r3]
 1594 00d2 002B     		cmp	r3, #0
 1595 00d4 F5D0     		beq	.L111
1695:..\..\..\..\..\..\Software\uCOS-III\Source/os_task.c ****     }
1696:..\..\..\..\..\..\Software\uCOS-III\Source/os_task.c **** #else
1697:..\..\..\..\..\..\Software\uCOS-III\Source/os_task.c ****     p_stk = p_tcb->StkBasePtr + p_tcb->StkSize - 1u;        /* Start at the highest memory and go d
1698:..\..\..\..\..\..\Software\uCOS-III\Source/os_task.c ****     while (*p_stk == (CPU_STK)0) {
1699:..\..\..\..\..\..\Software\uCOS-III\Source/os_task.c ****         free_stk++;
1700:..\..\..\..\..\..\Software\uCOS-III\Source/os_task.c ****         p_stk--;
1701:..\..\..\..\..\..\Software\uCOS-III\Source/os_task.c ****     }
1702:..\..\..\..\..\..\Software\uCOS-III\Source/os_task.c **** #endif
ARM GAS  C:\Users\EDULU~1.DES\AppData\Local\Temp\ccyhp2HA.s 			page 59


1703:..\..\..\..\..\..\Software\uCOS-III\Source/os_task.c ****    *p_free = free_stk;
 1596              		.loc 1 1703 0
 1597 00d6 BB68     		ldr	r3, [r7, #8]
 1598 00d8 FA69     		ldr	r2, [r7, #28]
 1599 00da 1A60     		str	r2, [r3]
1704:..\..\..\..\..\..\Software\uCOS-III\Source/os_task.c ****    *p_used = (p_tcb->StkSize - free_stk);                   /* Compute number of entries used on th
 1600              		.loc 1 1704 0
 1601 00dc FB68     		ldr	r3, [r7, #12]
 1602 00de 9A6B     		ldr	r2, [r3, #56]
 1603 00e0 FB69     		ldr	r3, [r7, #28]
 1604 00e2 D21A     		subs	r2, r2, r3
 1605 00e4 7B68     		ldr	r3, [r7, #4]
 1606 00e6 1A60     		str	r2, [r3]
1705:..\..\..\..\..\..\Software\uCOS-III\Source/os_task.c ****    *p_err  = OS_ERR_NONE;
 1607              		.loc 1 1705 0
 1608 00e8 3B68     		ldr	r3, [r7]
 1609 00ea 0022     		movs	r2, #0
 1610 00ec 1A80     		strh	r2, [r3]
 1611              	.L102:
1706:..\..\..\..\..\..\Software\uCOS-III\Source/os_task.c **** }
 1612              		.loc 1 1706 0
 1613 00ee BD46     		mov	sp, r7
 1614 00f0 08B0     		add	sp, sp, #32
 1615              		@ sp needed
 1616 00f2 80BD     		pop	{r7, pc}
 1617              	.L113:
 1618              		.align	2
 1619              	.L112:
 1620 00f4 00000000 		.word	OSIntNestingCtr
 1621 00f8 59710000 		.word	29017
 1622 00fc D5620000 		.word	25301
 1623 0100 00000000 		.word	OSTCBCurPtr
 1624 0104 52710000 		.word	29010
 1625 0108 54710000 		.word	29012
 1626              		.cfi_endproc
 1627              	.LFE10:
 1628              		.size	OSTaskStkChk, .-OSTaskStkChk
 1629              		.section	.text.OSTaskSuspend,"ax",%progbits
 1630              		.align	2
 1631              		.global	OSTaskSuspend
 1632              		.code	16
 1633              		.thumb_func
 1634              		.type	OSTaskSuspend, %function
 1635              	OSTaskSuspend:
 1636              	.LFB11:
1707:..\..\..\..\..\..\Software\uCOS-III\Source/os_task.c **** #endif
1708:..\..\..\..\..\..\Software\uCOS-III\Source/os_task.c **** 
1709:..\..\..\..\..\..\Software\uCOS-III\Source/os_task.c **** /*$PAGE*/
1710:..\..\..\..\..\..\Software\uCOS-III\Source/os_task.c **** /*
1711:..\..\..\..\..\..\Software\uCOS-III\Source/os_task.c **** ***************************************************************************************************
1712:..\..\..\..\..\..\Software\uCOS-III\Source/os_task.c **** *                                                   SUSPEND A TASK
1713:..\..\..\..\..\..\Software\uCOS-III\Source/os_task.c **** *
1714:..\..\..\..\..\..\Software\uCOS-III\Source/os_task.c **** * Description: This function is called to suspend a task.  The task can be the calling task if 'p_t
1715:..\..\..\..\..\..\Software\uCOS-III\Source/os_task.c **** *              or the pointer to the TCB of the calling task.
1716:..\..\..\..\..\..\Software\uCOS-III\Source/os_task.c **** *
1717:..\..\..\..\..\..\Software\uCOS-III\Source/os_task.c **** * Arguments  : p_tcb    is a pointer to the TCB to suspend.
1718:..\..\..\..\..\..\Software\uCOS-III\Source/os_task.c **** *                       If p_tcb is a NULL pointer then, suspend the current task.
ARM GAS  C:\Users\EDULU~1.DES\AppData\Local\Temp\ccyhp2HA.s 			page 60


1719:..\..\..\..\..\..\Software\uCOS-III\Source/os_task.c **** *
1720:..\..\..\..\..\..\Software\uCOS-III\Source/os_task.c **** *              p_err    is a pointer to a variable that will receive an error code from this functi
1721:..\..\..\..\..\..\Software\uCOS-III\Source/os_task.c **** *
1722:..\..\..\..\..\..\Software\uCOS-III\Source/os_task.c **** *                           OS_ERR_NONE                      if the requested task is suspended
1723:..\..\..\..\..\..\Software\uCOS-III\Source/os_task.c **** *                           OS_ERR_SCHED_LOCKED              you can't suspend the current task is 
1724:..\..\..\..\..\..\Software\uCOS-III\Source/os_task.c **** *                                                            locked
1725:..\..\..\..\..\..\Software\uCOS-III\Source/os_task.c **** *                           OS_ERR_TASK_SUSPEND_ISR          if you called this function from an IS
1726:..\..\..\..\..\..\Software\uCOS-III\Source/os_task.c **** *                           OS_ERR_TASK_SUSPEND_IDLE         if you attempted to suspend the idle t
1727:..\..\..\..\..\..\Software\uCOS-III\Source/os_task.c **** *                                                            allowed.
1728:..\..\..\..\..\..\Software\uCOS-III\Source/os_task.c **** *                           OS_ERR_TASK_SUSPEND_INT_HANDLER  if you attempted to suspend the idle t
1729:..\..\..\..\..\..\Software\uCOS-III\Source/os_task.c **** *                                                            allowed.
1730:..\..\..\..\..\..\Software\uCOS-III\Source/os_task.c **** *
1731:..\..\..\..\..\..\Software\uCOS-III\Source/os_task.c **** * Note(s)    : 1) You should use this function with great care.  If you suspend a task that is wait
1732:..\..\..\..\..\..\Software\uCOS-III\Source/os_task.c **** *                 (i.e. a message, a semaphore, a queue ...) you will prevent this task from runnin
1733:..\..\..\..\..\..\Software\uCOS-III\Source/os_task.c **** *                 arrives.
1734:..\..\..\..\..\..\Software\uCOS-III\Source/os_task.c **** ***************************************************************************************************
1735:..\..\..\..\..\..\Software\uCOS-III\Source/os_task.c **** */
1736:..\..\..\..\..\..\Software\uCOS-III\Source/os_task.c **** 
1737:..\..\..\..\..\..\Software\uCOS-III\Source/os_task.c **** #if OS_CFG_TASK_SUSPEND_EN > 0u
1738:..\..\..\..\..\..\Software\uCOS-III\Source/os_task.c **** void   OSTaskSuspend (OS_TCB  *p_tcb,
1739:..\..\..\..\..\..\Software\uCOS-III\Source/os_task.c ****                       OS_ERR  *p_err)
1740:..\..\..\..\..\..\Software\uCOS-III\Source/os_task.c **** {
 1637              		.loc 1 1740 0
 1638              		.cfi_startproc
 1639              		@ args = 0, pretend = 0, frame = 8
 1640              		@ frame_needed = 1, uses_anonymous_args = 0
 1641 0000 80B5     		push	{r7, lr}
 1642              		.cfi_def_cfa_offset 8
 1643              		.cfi_offset 7, -8
 1644              		.cfi_offset 14, -4
 1645 0002 82B0     		sub	sp, sp, #8
 1646              		.cfi_def_cfa_offset 16
 1647 0004 00AF     		add	r7, sp, #0
 1648              		.cfi_def_cfa_register 7
 1649 0006 7860     		str	r0, [r7, #4]
 1650 0008 3960     		str	r1, [r7]
1741:..\..\..\..\..\..\Software\uCOS-III\Source/os_task.c **** #ifdef OS_SAFETY_CRITICAL
1742:..\..\..\..\..\..\Software\uCOS-III\Source/os_task.c ****     if (p_err == (OS_ERR *)0) {
1743:..\..\..\..\..\..\Software\uCOS-III\Source/os_task.c ****         OS_SAFETY_CRITICAL_EXCEPTION();
1744:..\..\..\..\..\..\Software\uCOS-III\Source/os_task.c ****         return;
1745:..\..\..\..\..\..\Software\uCOS-III\Source/os_task.c ****     }
1746:..\..\..\..\..\..\Software\uCOS-III\Source/os_task.c **** #endif
1747:..\..\..\..\..\..\Software\uCOS-III\Source/os_task.c **** 
1748:..\..\..\..\..\..\Software\uCOS-III\Source/os_task.c **** #if (OS_CFG_ISR_POST_DEFERRED_EN   == 0u) && \
1749:..\..\..\..\..\..\Software\uCOS-III\Source/os_task.c ****     (OS_CFG_CALLED_FROM_ISR_CHK_EN >  0u)
1750:..\..\..\..\..\..\Software\uCOS-III\Source/os_task.c ****     if (OSIntNestingCtr > (OS_NESTING_CTR)0) {              /* Not allowed to call from an ISR     
 1651              		.loc 1 1750 0
 1652 000a 0C4B     		ldr	r3, .L118
 1653 000c 1B78     		ldrb	r3, [r3]
 1654 000e 002B     		cmp	r3, #0
 1655 0010 03D0     		beq	.L115
1751:..\..\..\..\..\..\Software\uCOS-III\Source/os_task.c ****        *p_err = OS_ERR_TASK_SUSPEND_ISR;
 1656              		.loc 1 1751 0
 1657 0012 3B68     		ldr	r3, [r7]
 1658 0014 0A4A     		ldr	r2, .L118+4
 1659 0016 1A80     		strh	r2, [r3]
1752:..\..\..\..\..\..\Software\uCOS-III\Source/os_task.c ****         return;
ARM GAS  C:\Users\EDULU~1.DES\AppData\Local\Temp\ccyhp2HA.s 			page 61


 1660              		.loc 1 1752 0
 1661 0018 0DE0     		b	.L114
 1662              	.L115:
1753:..\..\..\..\..\..\Software\uCOS-III\Source/os_task.c ****     }
1754:..\..\..\..\..\..\Software\uCOS-III\Source/os_task.c **** #endif
1755:..\..\..\..\..\..\Software\uCOS-III\Source/os_task.c **** 
1756:..\..\..\..\..\..\Software\uCOS-III\Source/os_task.c ****     if (p_tcb == &OSIdleTaskTCB) {                          /* Make sure not suspending the idle ta
 1663              		.loc 1 1756 0
 1664 001a 7A68     		ldr	r2, [r7, #4]
 1665 001c 094B     		ldr	r3, .L118+8
 1666 001e 9A42     		cmp	r2, r3
 1667 0020 03D1     		bne	.L117
1757:..\..\..\..\..\..\Software\uCOS-III\Source/os_task.c ****        *p_err = OS_ERR_TASK_SUSPEND_IDLE;
 1668              		.loc 1 1757 0
 1669 0022 3B68     		ldr	r3, [r7]
 1670 0024 084A     		ldr	r2, .L118+12
 1671 0026 1A80     		strh	r2, [r3]
1758:..\..\..\..\..\..\Software\uCOS-III\Source/os_task.c ****         return;
 1672              		.loc 1 1758 0
 1673 0028 05E0     		b	.L114
 1674              	.L117:
1759:..\..\..\..\..\..\Software\uCOS-III\Source/os_task.c ****     }
1760:..\..\..\..\..\..\Software\uCOS-III\Source/os_task.c **** 
1761:..\..\..\..\..\..\Software\uCOS-III\Source/os_task.c **** #if OS_CFG_ISR_POST_DEFERRED_EN > 0u
1762:..\..\..\..\..\..\Software\uCOS-III\Source/os_task.c ****     if (p_tcb == &OSIntQTaskTCB) {                          /* Not allowed to suspend the ISR handl
1763:..\..\..\..\..\..\Software\uCOS-III\Source/os_task.c ****        *p_err = OS_ERR_TASK_SUSPEND_INT_HANDLER;
1764:..\..\..\..\..\..\Software\uCOS-III\Source/os_task.c ****         return;
1765:..\..\..\..\..\..\Software\uCOS-III\Source/os_task.c ****     }
1766:..\..\..\..\..\..\Software\uCOS-III\Source/os_task.c **** 
1767:..\..\..\..\..\..\Software\uCOS-III\Source/os_task.c ****     if (OSIntNestingCtr > (OS_NESTING_CTR)0) {              /* See if called from an ISR           
1768:..\..\..\..\..\..\Software\uCOS-III\Source/os_task.c ****         OS_IntQPost((OS_OBJ_TYPE)OS_OBJ_TYPE_TASK_SUSPEND,  /* Post to ISR queue                   
1769:..\..\..\..\..\..\Software\uCOS-III\Source/os_task.c ****                     (void      *)p_tcb,
1770:..\..\..\..\..\..\Software\uCOS-III\Source/os_task.c ****                     (void      *)0,
1771:..\..\..\..\..\..\Software\uCOS-III\Source/os_task.c ****                     (OS_MSG_SIZE)0,
1772:..\..\..\..\..\..\Software\uCOS-III\Source/os_task.c ****                     (OS_FLAGS   )0,
1773:..\..\..\..\..\..\Software\uCOS-III\Source/os_task.c ****                     (OS_OPT     )0,
1774:..\..\..\..\..\..\Software\uCOS-III\Source/os_task.c ****                     (CPU_TS     )0,
1775:..\..\..\..\..\..\Software\uCOS-III\Source/os_task.c ****                     (OS_ERR    *)p_err);
1776:..\..\..\..\..\..\Software\uCOS-III\Source/os_task.c ****         return;
1777:..\..\..\..\..\..\Software\uCOS-III\Source/os_task.c ****     }
1778:..\..\..\..\..\..\Software\uCOS-III\Source/os_task.c **** #endif
1779:..\..\..\..\..\..\Software\uCOS-III\Source/os_task.c **** 
1780:..\..\..\..\..\..\Software\uCOS-III\Source/os_task.c ****     OS_TaskSuspend(p_tcb, p_err);
 1675              		.loc 1 1780 0
 1676 002a 3A68     		ldr	r2, [r7]
 1677 002c 7B68     		ldr	r3, [r7, #4]
 1678 002e 1100     		movs	r1, r2
 1679 0030 1800     		movs	r0, r3
