ARM GAS  C:\Users\EDULU~1.DES\AppData\Local\Temp\ccyhp2HA.s 			page 1


   1              		.syntax unified
   2              		.cpu cortex-m0
   3              		.fpu softvfp
   4              		.eabi_attribute 20, 1
   5              		.eabi_attribute 21, 1
   6              		.eabi_attribute 23, 3
   7              		.eabi_attribute 24, 1
   8              		.eabi_attribute 25, 1
   9              		.eabi_attribute 26, 1
  10              		.eabi_attribute 30, 6
  11              		.eabi_attribute 34, 0
  12              		.eabi_attribute 18, 4
  13              		.thumb
  14              		.syntax unified
  15              		.file	"os_task.c"
  16              		.text
  17              	.Ltext0:
  18              		.cfi_sections	.debug_frame
  19              		.section	.text.OSTaskChangePrio,"ax",%progbits
  20              		.align	2
  21              		.global	OSTaskChangePrio
  22              		.code	16
  23              		.thumb_func
  24              		.type	OSTaskChangePrio, %function
  25              	OSTaskChangePrio:
  26              	.LFB1:
  27              		.file 1 "..\\..\\..\\..\\..\\..\\Software\\uCOS-III\\Source\\os_task.c"
   1:..\..\..\..\..\..\Software\uCOS-III\Source/os_task.c **** /*
   2:..\..\..\..\..\..\Software\uCOS-III\Source/os_task.c **** ***************************************************************************************************
   3:..\..\..\..\..\..\Software\uCOS-III\Source/os_task.c **** *                                                      uC/OS-III
   4:..\..\..\..\..\..\Software\uCOS-III\Source/os_task.c **** *                                                 The Real-Time Kernel
   5:..\..\..\..\..\..\Software\uCOS-III\Source/os_task.c **** *
   6:..\..\..\..\..\..\Software\uCOS-III\Source/os_task.c **** *                                  (c) Copyright 2009-2012; Micrium, Inc.; Weston, FL
   7:..\..\..\..\..\..\Software\uCOS-III\Source/os_task.c **** *                           All rights reserved.  Protected by international copyright laws.
   8:..\..\..\..\..\..\Software\uCOS-III\Source/os_task.c **** *
   9:..\..\..\..\..\..\Software\uCOS-III\Source/os_task.c **** *                                                   TASK MANAGEMENT
  10:..\..\..\..\..\..\Software\uCOS-III\Source/os_task.c **** *
  11:..\..\..\..\..\..\Software\uCOS-III\Source/os_task.c **** * File    : OS_TASK.C
  12:..\..\..\..\..\..\Software\uCOS-III\Source/os_task.c **** * By      : JJL
  13:..\..\..\..\..\..\Software\uCOS-III\Source/os_task.c **** * Version : V3.03.01
  14:..\..\..\..\..\..\Software\uCOS-III\Source/os_task.c **** *
  15:..\..\..\..\..\..\Software\uCOS-III\Source/os_task.c **** * LICENSING TERMS:
  16:..\..\..\..\..\..\Software\uCOS-III\Source/os_task.c **** * ---------------
  17:..\..\..\..\..\..\Software\uCOS-III\Source/os_task.c **** *           uC/OS-III is provided in source form for FREE short-term evaluation, for educational us
  18:..\..\..\..\..\..\Software\uCOS-III\Source/os_task.c **** *           for peaceful research.  If you plan or intend to use uC/OS-III in a commercial applicat
  19:..\..\..\..\..\..\Software\uCOS-III\Source/os_task.c **** *           product then, you need to contact Micrium to properly license uC/OS-III for its use in 
  20:..\..\..\..\..\..\Software\uCOS-III\Source/os_task.c **** *           application/product.   We provide ALL the source code for your convenience and to help 
  21:..\..\..\..\..\..\Software\uCOS-III\Source/os_task.c **** *           experience uC/OS-III.  The fact that the source is provided does NOT mean that you can 
  22:..\..\..\..\..\..\Software\uCOS-III\Source/os_task.c **** *           it commercially without paying a licensing fee.
  23:..\..\..\..\..\..\Software\uCOS-III\Source/os_task.c **** *
  24:..\..\..\..\..\..\Software\uCOS-III\Source/os_task.c **** *           Knowledge of the source code may NOT be used to develop a similar product.
  25:..\..\..\..\..\..\Software\uCOS-III\Source/os_task.c **** *
  26:..\..\..\..\..\..\Software\uCOS-III\Source/os_task.c **** *           Please help us continue to provide the embedded community with the finest software avai
  27:..\..\..\..\..\..\Software\uCOS-III\Source/os_task.c **** *           Your honesty is greatly appreciated.
  28:..\..\..\..\..\..\Software\uCOS-III\Source/os_task.c **** *
  29:..\..\..\..\..\..\Software\uCOS-III\Source/os_task.c **** *           You can contact us at www.micrium.com, or by phone at +1 (954) 217-2036.
  30:..\..\..\..\..\..\Software\uCOS-III\Source/os_task.c **** ***************************************************************************************************
ARM GAS  C:\Users\EDULU~1.DES\AppData\Local\Temp\ccyhp2HA.s 			page 2


  31:..\..\..\..\..\..\Software\uCOS-III\Source/os_task.c **** */
  32:..\..\..\..\..\..\Software\uCOS-III\Source/os_task.c **** 
  33:..\..\..\..\..\..\Software\uCOS-III\Source/os_task.c **** #define  MICRIUM_SOURCE
  34:..\..\..\..\..\..\Software\uCOS-III\Source/os_task.c **** #include <os.h>
  35:..\..\..\..\..\..\Software\uCOS-III\Source/os_task.c **** 
  36:..\..\..\..\..\..\Software\uCOS-III\Source/os_task.c **** #ifdef VSC_INCLUDE_SOURCE_FILE_NAMES
  37:..\..\..\..\..\..\Software\uCOS-III\Source/os_task.c **** const  CPU_CHAR  *os_task__c = "$Id: $";
  38:..\..\..\..\..\..\Software\uCOS-III\Source/os_task.c **** #endif
  39:..\..\..\..\..\..\Software\uCOS-III\Source/os_task.c **** 
  40:..\..\..\..\..\..\Software\uCOS-III\Source/os_task.c **** /*
  41:..\..\..\..\..\..\Software\uCOS-III\Source/os_task.c **** ***************************************************************************************************
  42:..\..\..\..\..\..\Software\uCOS-III\Source/os_task.c **** *                                                CHANGE PRIORITY OF A TASK
  43:..\..\..\..\..\..\Software\uCOS-III\Source/os_task.c **** *
  44:..\..\..\..\..\..\Software\uCOS-III\Source/os_task.c **** * Description: This function allows you to change the priority of a task dynamically.  Note that th
  45:..\..\..\..\..\..\Software\uCOS-III\Source/os_task.c **** *              priority MUST be available.
  46:..\..\..\..\..\..\Software\uCOS-III\Source/os_task.c **** *
  47:..\..\..\..\..\..\Software\uCOS-III\Source/os_task.c **** * Arguments  : p_tcb      is the TCB of the tack to change the priority for
  48:..\..\..\..\..\..\Software\uCOS-III\Source/os_task.c **** *
  49:..\..\..\..\..\..\Software\uCOS-III\Source/os_task.c **** *              prio_new   is the new priority
  50:..\..\..\..\..\..\Software\uCOS-III\Source/os_task.c **** *
  51:..\..\..\..\..\..\Software\uCOS-III\Source/os_task.c **** *              p_err      is a pointer to an error code returned by this function:
  52:..\..\..\..\..\..\Software\uCOS-III\Source/os_task.c **** *
  53:..\..\..\..\..\..\Software\uCOS-III\Source/os_task.c **** *                             OS_ERR_NONE                 is the call was successful
  54:..\..\..\..\..\..\Software\uCOS-III\Source/os_task.c **** *                             OS_ERR_PRIO_INVALID         if the priority you specify is higher tha
  55:..\..\..\..\..\..\Software\uCOS-III\Source/os_task.c **** *                                                         (i.e. >= (OS_CFG_PRIO_MAX-1))
  56:..\..\..\..\..\..\Software\uCOS-III\Source/os_task.c **** *                             OS_ERR_STATE_INVALID        if the task is in an invalid state
  57:..\..\..\..\..\..\Software\uCOS-III\Source/os_task.c **** *                             OS_ERR_TASK_CHANGE_PRIO_ISR if you tried to change the task's priorit
  58:..\..\..\..\..\..\Software\uCOS-III\Source/os_task.c **** ***************************************************************************************************
  59:..\..\..\..\..\..\Software\uCOS-III\Source/os_task.c **** */
  60:..\..\..\..\..\..\Software\uCOS-III\Source/os_task.c **** 
  61:..\..\..\..\..\..\Software\uCOS-III\Source/os_task.c **** #if OS_CFG_TASK_CHANGE_PRIO_EN > 0u
  62:..\..\..\..\..\..\Software\uCOS-III\Source/os_task.c **** void  OSTaskChangePrio (OS_TCB   *p_tcb,
  63:..\..\..\..\..\..\Software\uCOS-III\Source/os_task.c ****                         OS_PRIO   prio_new,
  64:..\..\..\..\..\..\Software\uCOS-III\Source/os_task.c ****                         OS_ERR   *p_err)
  65:..\..\..\..\..\..\Software\uCOS-III\Source/os_task.c **** {
  28              		.loc 1 65 0
  29              		.cfi_startproc
  30              		@ args = 0, pretend = 0, frame = 24
  31              		@ frame_needed = 1, uses_anonymous_args = 0
  32 0000 80B5     		push	{r7, lr}
  33              		.cfi_def_cfa_offset 8
  34              		.cfi_offset 7, -8
  35              		.cfi_offset 14, -4
  36 0002 86B0     		sub	sp, sp, #24
  37              		.cfi_def_cfa_offset 32
  38 0004 00AF     		add	r7, sp, #0
  39              		.cfi_def_cfa_register 7
  40 0006 F860     		str	r0, [r7, #12]
  41 0008 7A60     		str	r2, [r7, #4]
  42 000a 0B23     		movs	r3, #11
  43 000c FB18     		adds	r3, r7, r3
  44 000e 0A1C     		adds	r2, r1, #0
  45 0010 1A70     		strb	r2, [r3]
  66:..\..\..\..\..\..\Software\uCOS-III\Source/os_task.c ****     CPU_BOOLEAN   self;
  67:..\..\..\..\..\..\Software\uCOS-III\Source/os_task.c ****     CPU_SR_ALLOC();
  46              		.loc 1 67 0
  47 0012 0023     		movs	r3, #0
ARM GAS  C:\Users\EDULU~1.DES\AppData\Local\Temp\ccyhp2HA.s 			page 3


  48 0014 3B61     		str	r3, [r7, #16]
  68:..\..\..\..\..\..\Software\uCOS-III\Source/os_task.c **** 
  69:..\..\..\..\..\..\Software\uCOS-III\Source/os_task.c **** 
  70:..\..\..\..\..\..\Software\uCOS-III\Source/os_task.c **** 
  71:..\..\..\..\..\..\Software\uCOS-III\Source/os_task.c **** #ifdef OS_SAFETY_CRITICAL
  72:..\..\..\..\..\..\Software\uCOS-III\Source/os_task.c ****     if (p_err == (OS_ERR *)0) {
  73:..\..\..\..\..\..\Software\uCOS-III\Source/os_task.c ****         OS_SAFETY_CRITICAL_EXCEPTION();
  74:..\..\..\..\..\..\Software\uCOS-III\Source/os_task.c ****         return;
  75:..\..\..\..\..\..\Software\uCOS-III\Source/os_task.c ****     }
  76:..\..\..\..\..\..\Software\uCOS-III\Source/os_task.c **** #endif
  77:..\..\..\..\..\..\Software\uCOS-III\Source/os_task.c **** 
  78:..\..\..\..\..\..\Software\uCOS-III\Source/os_task.c **** #if OS_CFG_CALLED_FROM_ISR_CHK_EN > 0u
  79:..\..\..\..\..\..\Software\uCOS-III\Source/os_task.c ****     if (OSIntNestingCtr > (OS_NESTING_CTR)0) {              /* ---------- CANNOT CREATE A TASK FROM
  49              		.loc 1 79 0
  50 0016 4B4B     		ldr	r3, .L21
  51 0018 1B78     		ldrb	r3, [r3]
  52 001a 002B     		cmp	r3, #0
  53 001c 03D0     		beq	.L2
  80:..\..\..\..\..\..\Software\uCOS-III\Source/os_task.c ****        *p_err = OS_ERR_TASK_CHANGE_PRIO_ISR;
  54              		.loc 1 80 0
  55 001e 7B68     		ldr	r3, [r7, #4]
  56 0020 494A     		ldr	r2, .L21+4
  57 0022 1A80     		strh	r2, [r3]
  81:..\..\..\..\..\..\Software\uCOS-III\Source/os_task.c ****         return;
  58              		.loc 1 81 0
  59 0024 8AE0     		b	.L1
  60              	.L2:
  82:..\..\..\..\..\..\Software\uCOS-III\Source/os_task.c ****     }
  83:..\..\..\..\..\..\Software\uCOS-III\Source/os_task.c **** #endif
  84:..\..\..\..\..\..\Software\uCOS-III\Source/os_task.c **** 
  85:..\..\..\..\..\..\Software\uCOS-III\Source/os_task.c **** #if OS_CFG_ISR_POST_DEFERRED_EN > 0u
  86:..\..\..\..\..\..\Software\uCOS-III\Source/os_task.c ****     if (prio_new == 0) {                                    /* Cannot set to IntQueue Task priority
  87:..\..\..\..\..\..\Software\uCOS-III\Source/os_task.c ****        *p_err = OS_ERR_PRIO_INVALID;
  88:..\..\..\..\..\..\Software\uCOS-III\Source/os_task.c ****         return;
  89:..\..\..\..\..\..\Software\uCOS-III\Source/os_task.c ****     }
  90:..\..\..\..\..\..\Software\uCOS-III\Source/os_task.c **** #endif
  91:..\..\..\..\..\..\Software\uCOS-III\Source/os_task.c **** 
  92:..\..\..\..\..\..\Software\uCOS-III\Source/os_task.c ****     if (prio_new >= (OS_CFG_PRIO_MAX - 1u)) {               /* Cannot set to Idle Task priority    
  61              		.loc 1 92 0
  62 0026 0B23     		movs	r3, #11
  63 0028 FB18     		adds	r3, r7, r3
  64 002a 1B78     		ldrb	r3, [r3]
  65 002c 1E2B     		cmp	r3, #30
  66 002e 03D9     		bls	.L4
  93:..\..\..\..\..\..\Software\uCOS-III\Source/os_task.c ****        *p_err = OS_ERR_PRIO_INVALID;
  67              		.loc 1 93 0
  68 0030 7B68     		ldr	r3, [r7, #4]
  69 0032 464A     		ldr	r2, .L21+8
  70 0034 1A80     		strh	r2, [r3]
  94:..\..\..\..\..\..\Software\uCOS-III\Source/os_task.c ****         return;
  71              		.loc 1 94 0
  72 0036 81E0     		b	.L1
  73              	.L4:
  95:..\..\..\..\..\..\Software\uCOS-III\Source/os_task.c ****     }
  96:..\..\..\..\..\..\Software\uCOS-III\Source/os_task.c **** 
  97:..\..\..\..\..\..\Software\uCOS-III\Source/os_task.c ****     if (p_tcb == (OS_TCB *)0) {                             /* See if want to change priority of 's
  74              		.loc 1 97 0
ARM GAS  C:\Users\EDULU~1.DES\AppData\Local\Temp\ccyhp2HA.s 			page 4


  75 0038 FB68     		ldr	r3, [r7, #12]
  76 003a 002B     		cmp	r3, #0
  77 003c 13D1     		bne	.L5
  98:..\..\..\..\..\..\Software\uCOS-III\Source/os_task.c ****         CPU_CRITICAL_ENTER();
  78              		.loc 1 98 0
  79 003e FFF7FEFF 		bl	CPU_SR_Save
  80 0042 0300     		movs	r3, r0
  81 0044 3B61     		str	r3, [r7, #16]
  82 0046 FFF7FEFF 		bl	CPU_IntDisMeasStart
  99:..\..\..\..\..\..\Software\uCOS-III\Source/os_task.c ****         p_tcb = OSTCBCurPtr;
  83              		.loc 1 99 0
  84 004a 414B     		ldr	r3, .L21+12
  85 004c 1B68     		ldr	r3, [r3]
  86 004e FB60     		str	r3, [r7, #12]
 100:..\..\..\..\..\..\Software\uCOS-III\Source/os_task.c ****         CPU_CRITICAL_EXIT();
  87              		.loc 1 100 0
  88 0050 FFF7FEFF 		bl	CPU_IntDisMeasStop
  89 0054 3B69     		ldr	r3, [r7, #16]
  90 0056 1800     		movs	r0, r3
  91 0058 FFF7FEFF 		bl	CPU_SR_Restore
 101:..\..\..\..\..\..\Software\uCOS-III\Source/os_task.c ****         self  = DEF_TRUE;
  92              		.loc 1 101 0
  93 005c 1723     		movs	r3, #23
  94 005e FB18     		adds	r3, r7, r3
  95 0060 0122     		movs	r2, #1
  96 0062 1A70     		strb	r2, [r3]
  97 0064 03E0     		b	.L6
  98              	.L5:
 102:..\..\..\..\..\..\Software\uCOS-III\Source/os_task.c ****     } else {
 103:..\..\..\..\..\..\Software\uCOS-III\Source/os_task.c ****         self  = DEF_FALSE;
  99              		.loc 1 103 0
 100 0066 1723     		movs	r3, #23
 101 0068 FB18     		adds	r3, r7, r3
 102 006a 0022     		movs	r2, #0
 103 006c 1A70     		strb	r2, [r3]
 104              	.L6:
 104:..\..\..\..\..\..\Software\uCOS-III\Source/os_task.c ****     }
 105:..\..\..\..\..\..\Software\uCOS-III\Source/os_task.c **** 
 106:..\..\..\..\..\..\Software\uCOS-III\Source/os_task.c ****     OS_CRITICAL_ENTER();
 105              		.loc 1 106 0
 106 006e FFF7FEFF 		bl	CPU_SR_Save
 107 0072 0300     		movs	r3, r0
 108 0074 3B61     		str	r3, [r7, #16]
 109 0076 FFF7FEFF 		bl	CPU_IntDisMeasStart
 107:..\..\..\..\..\..\Software\uCOS-III\Source/os_task.c ****     switch (p_tcb->TaskState) {
 110              		.loc 1 107 0
 111 007a FB68     		ldr	r3, [r7, #12]
 112 007c 3622     		movs	r2, #54
 113 007e 9B5C     		ldrb	r3, [r3, r2]
 114 0080 072B     		cmp	r3, #7
 115 0082 46D8     		bhi	.L7
 116 0084 9A00     		lsls	r2, r3, #2
 117 0086 334B     		ldr	r3, .L21+16
 118 0088 D318     		adds	r3, r2, r3
 119 008a 1B68     		ldr	r3, [r3]
 120 008c 9F46     		mov	pc, r3
 121              		.section	.rodata
ARM GAS  C:\Users\EDULU~1.DES\AppData\Local\Temp\ccyhp2HA.s 			page 5


 122              		.align	2
 123              	.L9:
 124 0000 8E000000 		.word	.L8
 125 0004 CC000000 		.word	.L10
 126 0008 DA000000 		.word	.L11
 127 000c DA000000 		.word	.L11
 128 0010 CC000000 		.word	.L10
 129 0014 CC000000 		.word	.L10
 130 0018 DA000000 		.word	.L11
 131 001c DA000000 		.word	.L11
 132              		.section	.text.OSTaskChangePrio
 133              	.L8:
 108:..\..\..\..\..\..\Software\uCOS-III\Source/os_task.c ****         case OS_TASK_STATE_RDY:
 109:..\..\..\..\..\..\Software\uCOS-III\Source/os_task.c ****              OS_RdyListRemove(p_tcb);                       /* Remove from current priority        
 134              		.loc 1 109 0
 135 008e FB68     		ldr	r3, [r7, #12]
 136 0090 1800     		movs	r0, r3
 137 0092 FFF7FEFF 		bl	OS_RdyListRemove
 110:..\..\..\..\..\..\Software\uCOS-III\Source/os_task.c ****              p_tcb->Prio = prio_new;                        /* Set new task priority               
 138              		.loc 1 110 0
 139 0096 FB68     		ldr	r3, [r7, #12]
 140 0098 0B22     		movs	r2, #11
 141 009a BA18     		adds	r2, r7, r2
 142 009c 3721     		movs	r1, #55
 143 009e 1278     		ldrb	r2, [r2]
 144 00a0 5A54     		strb	r2, [r3, r1]
 111:..\..\..\..\..\..\Software\uCOS-III\Source/os_task.c ****              OS_PrioInsert(p_tcb->Prio);
 145              		.loc 1 111 0
 146 00a2 FB68     		ldr	r3, [r7, #12]
 147 00a4 3722     		movs	r2, #55
 148 00a6 9B5C     		ldrb	r3, [r3, r2]
 149 00a8 1800     		movs	r0, r3
 150 00aa FFF7FEFF 		bl	OS_PrioInsert
 112:..\..\..\..\..\..\Software\uCOS-III\Source/os_task.c ****              if (self == DEF_TRUE) {
 151              		.loc 1 112 0
 152 00ae 1723     		movs	r3, #23
 153 00b0 FB18     		adds	r3, r7, r3
 154 00b2 1B78     		ldrb	r3, [r3]
 155 00b4 012B     		cmp	r3, #1
 156 00b6 04D1     		bne	.L12
 113:..\..\..\..\..\..\Software\uCOS-III\Source/os_task.c ****                  OS_RdyListInsertHead(p_tcb);
 157              		.loc 1 113 0
 158 00b8 FB68     		ldr	r3, [r7, #12]
 159 00ba 1800     		movs	r0, r3
 160 00bc FFF7FEFF 		bl	OS_RdyListInsertHead
 114:..\..\..\..\..\..\Software\uCOS-III\Source/os_task.c ****              } else {
 115:..\..\..\..\..\..\Software\uCOS-III\Source/os_task.c ****                  OS_RdyListInsertTail(p_tcb);
 116:..\..\..\..\..\..\Software\uCOS-III\Source/os_task.c ****              }
 117:..\..\..\..\..\..\Software\uCOS-III\Source/os_task.c ****              break;
 161              		.loc 1 117 0
 162 00c0 31E0     		b	.L14
 163              	.L12:
 115:..\..\..\..\..\..\Software\uCOS-III\Source/os_task.c ****              }
 164              		.loc 1 115 0
 165 00c2 FB68     		ldr	r3, [r7, #12]
 166 00c4 1800     		movs	r0, r3
 167 00c6 FFF7FEFF 		bl	OS_RdyListInsertTail
ARM GAS  C:\Users\EDULU~1.DES\AppData\Local\Temp\ccyhp2HA.s 			page 6


 168              		.loc 1 117 0
 169 00ca 2CE0     		b	.L14
 170              	.L10:
 118:..\..\..\..\..\..\Software\uCOS-III\Source/os_task.c **** 
 119:..\..\..\..\..\..\Software\uCOS-III\Source/os_task.c ****         case OS_TASK_STATE_DLY:                             /* Nothing to do except change the prio
 120:..\..\..\..\..\..\Software\uCOS-III\Source/os_task.c ****         case OS_TASK_STATE_SUSPENDED:
 121:..\..\..\..\..\..\Software\uCOS-III\Source/os_task.c ****         case OS_TASK_STATE_DLY_SUSPENDED:
 122:..\..\..\..\..\..\Software\uCOS-III\Source/os_task.c ****              p_tcb->Prio = prio_new;                        /* Set new task priority               
 171              		.loc 1 122 0
 172 00cc FB68     		ldr	r3, [r7, #12]
 173 00ce 0B22     		movs	r2, #11
 174 00d0 BA18     		adds	r2, r7, r2
 175 00d2 3721     		movs	r1, #55
 176 00d4 1278     		ldrb	r2, [r2]
 177 00d6 5A54     		strb	r2, [r3, r1]
 123:..\..\..\..\..\..\Software\uCOS-III\Source/os_task.c ****              break;
 178              		.loc 1 123 0
 179 00d8 25E0     		b	.L14
 180              	.L11:
 124:..\..\..\..\..\..\Software\uCOS-III\Source/os_task.c **** 
 125:..\..\..\..\..\..\Software\uCOS-III\Source/os_task.c ****         case OS_TASK_STATE_PEND:
 126:..\..\..\..\..\..\Software\uCOS-III\Source/os_task.c ****         case OS_TASK_STATE_PEND_TIMEOUT:
 127:..\..\..\..\..\..\Software\uCOS-III\Source/os_task.c ****         case OS_TASK_STATE_PEND_SUSPENDED:
 128:..\..\..\..\..\..\Software\uCOS-III\Source/os_task.c ****         case OS_TASK_STATE_PEND_TIMEOUT_SUSPENDED:
 129:..\..\..\..\..\..\Software\uCOS-III\Source/os_task.c ****              switch (p_tcb->PendOn) {                       /* What to do depends on what we are pe
 181              		.loc 1 129 0
 182 00da FB68     		ldr	r3, [r7, #12]
 183 00dc 3422     		movs	r2, #52
 184 00de 9B5C     		ldrb	r3, [r3, r2]
 185 00e0 072B     		cmp	r3, #7
 186 00e2 14D8     		bhi	.L20
 187 00e4 9A00     		lsls	r2, r3, #2
 188 00e6 1C4B     		ldr	r3, .L21+20
 189 00e8 D318     		adds	r3, r2, r3
 190 00ea 1B68     		ldr	r3, [r3]
 191 00ec 9F46     		mov	pc, r3
 192              		.section	.rodata
 193              		.align	2
 194              	.L17:
 195 0020 0E010000 		.word	.L20
 196 0024 EE000000 		.word	.L16
 197 0028 EE000000 		.word	.L16
 198 002c FC000000 		.word	.L18
 199 0030 FC000000 		.word	.L18
 200 0034 FC000000 		.word	.L18
 201 0038 FC000000 		.word	.L18
 202 003c EE000000 		.word	.L16
 203              		.section	.text.OSTaskChangePrio
 204              	.L16:
 130:..\..\..\..\..\..\Software\uCOS-III\Source/os_task.c ****                  case OS_TASK_PEND_ON_TASK_Q:               /* Nothing to do except change the prio
 131:..\..\..\..\..\..\Software\uCOS-III\Source/os_task.c ****                  case OS_TASK_PEND_ON_TASK_SEM:
 132:..\..\..\..\..\..\Software\uCOS-III\Source/os_task.c ****                  case OS_TASK_PEND_ON_FLAG:
 133:..\..\..\..\..\..\Software\uCOS-III\Source/os_task.c ****                       p_tcb->Prio = prio_new;               /* Set new task priority               
 205              		.loc 1 133 0
 206 00ee FB68     		ldr	r3, [r7, #12]
 207 00f0 0B22     		movs	r2, #11
 208 00f2 BA18     		adds	r2, r7, r2
ARM GAS  C:\Users\EDULU~1.DES\AppData\Local\Temp\ccyhp2HA.s 			page 7


 209 00f4 3721     		movs	r1, #55
 210 00f6 1278     		ldrb	r2, [r2]
 211 00f8 5A54     		strb	r2, [r3, r1]
 134:..\..\..\..\..\..\Software\uCOS-III\Source/os_task.c ****                       break;
 212              		.loc 1 134 0
 213 00fa 09E0     		b	.L19
 214              	.L18:
 135:..\..\..\..\..\..\Software\uCOS-III\Source/os_task.c **** 
 136:..\..\..\..\..\..\Software\uCOS-III\Source/os_task.c ****                  case OS_TASK_PEND_ON_MUTEX:
 137:..\..\..\..\..\..\Software\uCOS-III\Source/os_task.c ****                  case OS_TASK_PEND_ON_MULTI:
 138:..\..\..\..\..\..\Software\uCOS-III\Source/os_task.c ****                  case OS_TASK_PEND_ON_Q:
 139:..\..\..\..\..\..\Software\uCOS-III\Source/os_task.c ****                  case OS_TASK_PEND_ON_SEM:
 140:..\..\..\..\..\..\Software\uCOS-III\Source/os_task.c ****                       OS_PendListChangePrio(p_tcb,
 215              		.loc 1 140 0
 216 00fc 0B23     		movs	r3, #11
 217 00fe FB18     		adds	r3, r7, r3
 218 0100 1A78     		ldrb	r2, [r3]
 219 0102 FB68     		ldr	r3, [r7, #12]
 220 0104 1100     		movs	r1, r2
 221 0106 1800     		movs	r0, r3
 222 0108 FFF7FEFF 		bl	OS_PendListChangePrio
 141:..\..\..\..\..\..\Software\uCOS-III\Source/os_task.c ****                                             prio_new);
 142:..\..\..\..\..\..\Software\uCOS-III\Source/os_task.c ****                       break;
 223              		.loc 1 142 0
 224 010c 00E0     		b	.L19
 225              	.L20:
 143:..\..\..\..\..\..\Software\uCOS-III\Source/os_task.c **** 
 144:..\..\..\..\..\..\Software\uCOS-III\Source/os_task.c ****                  default:
 145:..\..\..\..\..\..\Software\uCOS-III\Source/os_task.c ****                       break;
 226              		.loc 1 145 0
 227 010e C046     		nop
 228              	.L19:
 146:..\..\..\..\..\..\Software\uCOS-III\Source/os_task.c ****             }
 147:..\..\..\..\..\..\Software\uCOS-III\Source/os_task.c ****              break;
 229              		.loc 1 147 0 discriminator 1
 230 0110 09E0     		b	.L14
 231              	.L7:
 148:..\..\..\..\..\..\Software\uCOS-III\Source/os_task.c **** 
 149:..\..\..\..\..\..\Software\uCOS-III\Source/os_task.c ****         default:
 150:..\..\..\..\..\..\Software\uCOS-III\Source/os_task.c ****              OS_CRITICAL_EXIT();
 232              		.loc 1 150 0
 233 0112 FFF7FEFF 		bl	CPU_IntDisMeasStop
 234 0116 3B69     		ldr	r3, [r7, #16]
 235 0118 1800     		movs	r0, r3
 236 011a FFF7FEFF 		bl	CPU_SR_Restore
 151:..\..\..\..\..\..\Software\uCOS-III\Source/os_task.c ****             *p_err = OS_ERR_STATE_INVALID;
 237              		.loc 1 151 0
 238 011e 7B68     		ldr	r3, [r7, #4]
 239 0120 0E4A     		ldr	r2, .L21+24
 240 0122 1A80     		strh	r2, [r3]
 152:..\..\..\..\..\..\Software\uCOS-III\Source/os_task.c ****              return;
 241              		.loc 1 152 0
 242 0124 0AE0     		b	.L1
 243              	.L14:
 153:..\..\..\..\..\..\Software\uCOS-III\Source/os_task.c ****     }
 154:..\..\..\..\..\..\Software\uCOS-III\Source/os_task.c **** 
 155:..\..\..\..\..\..\Software\uCOS-III\Source/os_task.c ****     OS_CRITICAL_EXIT_NO_SCHED();
ARM GAS  C:\Users\EDULU~1.DES\AppData\Local\Temp\ccyhp2HA.s 			page 8


 244              		.loc 1 155 0
 245 0126 FFF7FEFF 		bl	CPU_IntDisMeasStop
 246 012a 3B69     		ldr	r3, [r7, #16]
 247 012c 1800     		movs	r0, r3
 248 012e FFF7FEFF 		bl	CPU_SR_Restore
 156:..\..\..\..\..\..\Software\uCOS-III\Source/os_task.c **** 
 157:..\..\..\..\..\..\Software\uCOS-III\Source/os_task.c ****     OSSched();                                              /* Run highest priority task ready     
 249              		.loc 1 157 0
 250 0132 FFF7FEFF 		bl	OSSched
 158:..\..\..\..\..\..\Software\uCOS-III\Source/os_task.c **** 
 159:..\..\..\..\..\..\Software\uCOS-III\Source/os_task.c ****    *p_err = OS_ERR_NONE;
 251              		.loc 1 159 0
 252 0136 7B68     		ldr	r3, [r7, #4]
 253 0138 0022     		movs	r2, #0
 254 013a 1A80     		strh	r2, [r3]
 255              	.L1:
 160:..\..\..\..\..\..\Software\uCOS-III\Source/os_task.c **** }
 256              		.loc 1 160 0
 257 013c BD46     		mov	sp, r7
 258 013e 06B0     		add	sp, sp, #24
 259              		@ sp needed
 260 0140 80BD     		pop	{r7, pc}
 261              	.L22:
 262 0142 C046     		.align	2
 263              	.L21:
 264 0144 00000000 		.word	OSIntNestingCtr
 265 0148 49710000 		.word	29001
 266 014c 73620000 		.word	25203
 267 0150 00000000 		.word	OSTCBCurPtr
 268 0154 00000000 		.word	.L9
 269 0158 20000000 		.word	.L17
 270 015c 2D6E0000 		.word	28205
 271              		.cfi_endproc
 272              	.LFE1:
 273              		.size	OSTaskChangePrio, .-OSTaskChangePrio
 274              		.section	.text.OSTaskCreate,"ax",%progbits
 275              		.align	2
 276              		.global	OSTaskCreate
 277              		.code	16
 278              		.thumb_func
 279              		.type	OSTaskCreate, %function
 280              	OSTaskCreate:
 281              	.LFB2:
 161:..\..\..\..\..\..\Software\uCOS-III\Source/os_task.c **** #endif
 162:..\..\..\..\..\..\Software\uCOS-III\Source/os_task.c **** 
 163:..\..\..\..\..\..\Software\uCOS-III\Source/os_task.c **** /*$PAGE*/
 164:..\..\..\..\..\..\Software\uCOS-III\Source/os_task.c **** /*
 165:..\..\..\..\..\..\Software\uCOS-III\Source/os_task.c **** ***************************************************************************************************
 166:..\..\..\..\..\..\Software\uCOS-III\Source/os_task.c **** *                                                    CREATE A TASK
 167:..\..\..\..\..\..\Software\uCOS-III\Source/os_task.c **** *
 168:..\..\..\..\..\..\Software\uCOS-III\Source/os_task.c **** * Description: This function is used to have uC/OS-III manage the execution of a task.  Tasks can e
 169:..\..\..\..\..\..\Software\uCOS-III\Source/os_task.c **** *              prior to the start of multitasking or by a running task.  A task cannot be created b
 170:..\..\..\..\..\..\Software\uCOS-III\Source/os_task.c **** *
 171:..\..\..\..\..\..\Software\uCOS-III\Source/os_task.c **** * Arguments  : p_tcb          is a pointer to the task's TCB
 172:..\..\..\..\..\..\Software\uCOS-III\Source/os_task.c **** *
 173:..\..\..\..\..\..\Software\uCOS-III\Source/os_task.c **** *              p_name         is a pointer to an ASCII string to provide a name to the task.
 174:..\..\..\..\..\..\Software\uCOS-III\Source/os_task.c **** *
ARM GAS  C:\Users\EDULU~1.DES\AppData\Local\Temp\ccyhp2HA.s 			page 9


 175:..\..\..\..\..\..\Software\uCOS-III\Source/os_task.c **** *              p_task         is a pointer to the task's code
 176:..\..\..\..\..\..\Software\uCOS-III\Source/os_task.c **** *
 177:..\..\..\..\..\..\Software\uCOS-III\Source/os_task.c **** *              p_arg          is a pointer to an optional data area which can be used to pass param
 178:..\..\..\..\..\..\Software\uCOS-III\Source/os_task.c **** *                             the task when the task first executes.  Where the task is concerned i
 179:..\..\..\..\..\..\Software\uCOS-III\Source/os_task.c **** *                             it was invoked and passed the argument 'p_arg' as follows:
 180:..\..\..\..\..\..\Software\uCOS-III\Source/os_task.c **** *
 181:..\..\..\..\..\..\Software\uCOS-III\Source/os_task.c **** *                                 void Task (void *p_arg)
 182:..\..\..\..\..\..\Software\uCOS-III\Source/os_task.c **** *                                 {
 183:..\..\..\..\..\..\Software\uCOS-III\Source/os_task.c **** *                                     for (;;) {
 184:..\..\..\..\..\..\Software\uCOS-III\Source/os_task.c **** *                                         Task code;
 185:..\..\..\..\..\..\Software\uCOS-III\Source/os_task.c **** *                                     }
 186:..\..\..\..\..\..\Software\uCOS-III\Source/os_task.c **** *                                 }
 187:..\..\..\..\..\..\Software\uCOS-III\Source/os_task.c **** *
 188:..\..\..\..\..\..\Software\uCOS-III\Source/os_task.c **** *              prio           is the task's priority.  A unique priority MUST be assigned to each t
 189:..\..\..\..\..\..\Software\uCOS-III\Source/os_task.c **** *                             lower the number, the higher the priority.
 190:..\..\..\..\..\..\Software\uCOS-III\Source/os_task.c **** *
 191:..\..\..\..\..\..\Software\uCOS-III\Source/os_task.c **** *              p_stk_base     is a pointer to the base address of the stack (i.e. low address).
 192:..\..\..\..\..\..\Software\uCOS-III\Source/os_task.c **** *
 193:..\..\..\..\..\..\Software\uCOS-III\Source/os_task.c **** *              stk_limit      is the number of stack elements to set as 'watermark' limit for the s
 194:..\..\..\..\..\..\Software\uCOS-III\Source/os_task.c **** *                             represents the number of CPU_STK entries left before the stack is ful
 195:..\..\..\..\..\..\Software\uCOS-III\Source/os_task.c **** *                             specifying 10% of the 'stk_size' value indicates that the stack limit
 196:..\..\..\..\..\..\Software\uCOS-III\Source/os_task.c **** *                             when the stack reaches 90% full.
 197:..\..\..\..\..\..\Software\uCOS-III\Source/os_task.c **** *
 198:..\..\..\..\..\..\Software\uCOS-III\Source/os_task.c **** *              stk_size       is the size of the stack in number of elements.  If CPU_STK is set to
 199:..\..\..\..\..\..\Software\uCOS-III\Source/os_task.c **** *                             'stk_size' corresponds to the number of bytes available.  If CPU_STK 
 200:..\..\..\..\..\..\Software\uCOS-III\Source/os_task.c **** *                             CPU_INT16U, 'stk_size' contains the number of 16-bit entries availabl
 201:..\..\..\..\..\..\Software\uCOS-III\Source/os_task.c **** *                             CPU_STK is set to CPU_INT32U, 'stk_size' contains the number of 32-bi
 202:..\..\..\..\..\..\Software\uCOS-III\Source/os_task.c **** *                             available on the stack.
 203:..\..\..\..\..\..\Software\uCOS-III\Source/os_task.c **** *
 204:..\..\..\..\..\..\Software\uCOS-III\Source/os_task.c **** *              q_size         is the maximum number of messages that can be sent to the task
 205:..\..\..\..\..\..\Software\uCOS-III\Source/os_task.c **** *
 206:..\..\..\..\..\..\Software\uCOS-III\Source/os_task.c **** *              time_quanta    amount of time (in ticks) for time slice when round-robin between tas
 207:..\..\..\..\..\..\Software\uCOS-III\Source/os_task.c **** *                             the default.
 208:..\..\..\..\..\..\Software\uCOS-III\Source/os_task.c **** *
 209:..\..\..\..\..\..\Software\uCOS-III\Source/os_task.c **** *              p_ext          is a pointer to a user supplied memory location which is used as a TC
 210:..\..\..\..\..\..\Software\uCOS-III\Source/os_task.c **** *                             For example, this user memory can hold the contents of floating-point
 211:..\..\..\..\..\..\Software\uCOS-III\Source/os_task.c **** *                             during a context switch, the time each task takes to execute, the num
 212:..\..\..\..\..\..\Software\uCOS-III\Source/os_task.c **** *                             the task has been switched-in, etc.
 213:..\..\..\..\..\..\Software\uCOS-III\Source/os_task.c **** *
 214:..\..\..\..\..\..\Software\uCOS-III\Source/os_task.c **** *              opt            contains additional information (or options) about the behavior of th
 215:..\..\..\..\..\..\Software\uCOS-III\Source/os_task.c **** *                             See OS_OPT_TASK_xxx in OS.H.  Current choices are:
 216:..\..\..\..\..\..\Software\uCOS-III\Source/os_task.c **** *
 217:..\..\..\..\..\..\Software\uCOS-III\Source/os_task.c **** *                                 OS_OPT_TASK_NONE            No option selected
 218:..\..\..\..\..\..\Software\uCOS-III\Source/os_task.c **** *                                 OS_OPT_TASK_STK_CHK         Stack checking to be allowed for the 
 219:..\..\..\..\..\..\Software\uCOS-III\Source/os_task.c **** *                                 OS_OPT_TASK_STK_CLR         Clear the stack when the task is crea
 220:..\..\..\..\..\..\Software\uCOS-III\Source/os_task.c **** *                                 OS_OPT_TASK_SAVE_FP         If the CPU has floating-point registe
 221:..\..\..\..\..\..\Software\uCOS-III\Source/os_task.c **** *                                                             during a context switch.
 222:..\..\..\..\..\..\Software\uCOS-III\Source/os_task.c **** *                                 OS_OPT_TASK_NO_TLS          If the caller doesn't want or need TL
 223:..\..\..\..\..\..\Software\uCOS-III\Source/os_task.c **** *                                                             Storage) support for the task.  If yo
 224:..\..\..\..\..\..\Software\uCOS-III\Source/os_task.c **** *                                                             option, TLS will be supported by defa
 225:..\..\..\..\..\..\Software\uCOS-III\Source/os_task.c **** *
 226:..\..\..\..\..\..\Software\uCOS-III\Source/os_task.c **** *              p_err          is a pointer to an error code that will be set during this call.  The
 227:..\..\..\..\..\..\Software\uCOS-III\Source/os_task.c **** *                             to by 'p_err' can be:
 228:..\..\..\..\..\..\Software\uCOS-III\Source/os_task.c **** *
 229:..\..\..\..\..\..\Software\uCOS-III\Source/os_task.c **** *                                 OS_ERR_NONE                    if the function was successful.
 230:..\..\..\..\..\..\Software\uCOS-III\Source/os_task.c **** *                                 OS_ERR_ILLEGAL_CREATE_RUN_TIME if you are trying to create the ta
 231:..\..\..\..\..\..\Software\uCOS-III\Source/os_task.c **** *                                                                   OSSafetyCriticalStart().
ARM GAS  C:\Users\EDULU~1.DES\AppData\Local\Temp\ccyhp2HA.s 			page 10


 232:..\..\..\..\..\..\Software\uCOS-III\Source/os_task.c **** *                                 OS_ERR_NAME                    if 'p_name' is a NULL pointer
 233:..\..\..\..\..\..\Software\uCOS-III\Source/os_task.c **** *                                 OS_ERR_PRIO_INVALID            if the priority you specify is hig
 234:..\..\..\..\..\..\Software\uCOS-III\Source/os_task.c **** *                                                                   allowed (i.e. >= OS_CFG_PRIO_MA
 235:..\..\..\..\..\..\Software\uCOS-III\Source/os_task.c **** *                                                                if OS_CFG_ISR_POST_DEFERRED_EN is 
 236:..\..\..\..\..\..\Software\uCOS-III\Source/os_task.c **** *                                                                   to use priority 0 which is rese
 237:..\..\..\..\..\..\Software\uCOS-III\Source/os_task.c **** *                                 OS_ERR_STK_INVALID             if you specified a NULL pointer fo
 238:..\..\..\..\..\..\Software\uCOS-III\Source/os_task.c **** *                                 OS_ERR_STK_SIZE_INVALID        if you specified zero for the 'stk
 239:..\..\..\..\..\..\Software\uCOS-III\Source/os_task.c **** *                                 OS_ERR_STK_LIMIT_INVALID       if you specified a 'stk_limit' gre
 240:..\..\..\..\..\..\Software\uCOS-III\Source/os_task.c **** *                                                                   to 'stk_size'
 241:..\..\..\..\..\..\Software\uCOS-III\Source/os_task.c **** *                                 OS_ERR_TASK_CREATE_ISR         if you tried to create a task from
 242:..\..\..\..\..\..\Software\uCOS-III\Source/os_task.c **** *                                 OS_ERR_TASK_INVALID            if you specified a NULL pointer fo
 243:..\..\..\..\..\..\Software\uCOS-III\Source/os_task.c **** *                                 OS_ERR_TCB_INVALID             if you specified a NULL pointer fo
 244:..\..\..\..\..\..\Software\uCOS-III\Source/os_task.c **** *
 245:..\..\..\..\..\..\Software\uCOS-III\Source/os_task.c **** * Returns    : A pointer to the TCB of the task created.  This pointer must be used as an ID (i.e h
 246:..\..\..\..\..\..\Software\uCOS-III\Source/os_task.c **** ***************************************************************************************************
 247:..\..\..\..\..\..\Software\uCOS-III\Source/os_task.c **** */
 248:..\..\..\..\..\..\Software\uCOS-III\Source/os_task.c **** /*$PAGE*/
 249:..\..\..\..\..\..\Software\uCOS-III\Source/os_task.c **** void  OSTaskCreate (OS_TCB        *p_tcb,
 250:..\..\..\..\..\..\Software\uCOS-III\Source/os_task.c ****                     CPU_CHAR      *p_name,
 251:..\..\..\..\..\..\Software\uCOS-III\Source/os_task.c ****                     OS_TASK_PTR    p_task,
 252:..\..\..\..\..\..\Software\uCOS-III\Source/os_task.c ****                     void          *p_arg,
 253:..\..\..\..\..\..\Software\uCOS-III\Source/os_task.c ****                     OS_PRIO        prio,
 254:..\..\..\..\..\..\Software\uCOS-III\Source/os_task.c ****                     CPU_STK       *p_stk_base,
 255:..\..\..\..\..\..\Software\uCOS-III\Source/os_task.c ****                     CPU_STK_SIZE   stk_limit,
 256:..\..\..\..\..\..\Software\uCOS-III\Source/os_task.c ****                     CPU_STK_SIZE   stk_size,
 257:..\..\..\..\..\..\Software\uCOS-III\Source/os_task.c ****                     OS_MSG_QTY     q_size,
 258:..\..\..\..\..\..\Software\uCOS-III\Source/os_task.c ****                     OS_TICK        time_quanta,
 259:..\..\..\..\..\..\Software\uCOS-III\Source/os_task.c ****                     void          *p_ext,
 260:..\..\..\..\..\..\Software\uCOS-III\Source/os_task.c ****                     OS_OPT         opt,
 261:..\..\..\..\..\..\Software\uCOS-III\Source/os_task.c ****                     OS_ERR        *p_err)
 262:..\..\..\..\..\..\Software\uCOS-III\Source/os_task.c **** {
 282              		.loc 1 262 0
 283              		.cfi_startproc
 284              		@ args = 36, pretend = 0, frame = 40
 285              		@ frame_needed = 1, uses_anonymous_args = 0
 286 0000 90B5     		push	{r4, r7, lr}
 287              		.cfi_def_cfa_offset 12
 288              		.cfi_offset 4, -12
 289              		.cfi_offset 7, -8
 290              		.cfi_offset 14, -4
 291 0002 8DB0     		sub	sp, sp, #52
 292              		.cfi_def_cfa_offset 64
 293 0004 02AF     		add	r7, sp, #8
 294              		.cfi_def_cfa 7, 56
 295 0006 F860     		str	r0, [r7, #12]
 296 0008 B960     		str	r1, [r7, #8]
 297 000a 7A60     		str	r2, [r7, #4]
 298 000c 3B60     		str	r3, [r7]
 263:..\..\..\..\..\..\Software\uCOS-III\Source/os_task.c ****     CPU_STK_SIZE   i;
 264:..\..\..\..\..\..\Software\uCOS-III\Source/os_task.c **** #if OS_CFG_TASK_REG_TBL_SIZE > 0u
 265:..\..\..\..\..\..\Software\uCOS-III\Source/os_task.c ****     OS_REG_ID      reg_nbr;
 266:..\..\..\..\..\..\Software\uCOS-III\Source/os_task.c **** #endif
 267:..\..\..\..\..\..\Software\uCOS-III\Source/os_task.c **** #if defined(OS_CFG_TLS_TBL_SIZE) && (OS_CFG_TLS_TBL_SIZE > 0u)
 268:..\..\..\..\..\..\Software\uCOS-III\Source/os_task.c ****     OS_TLS_ID      id;
 269:..\..\..\..\..\..\Software\uCOS-III\Source/os_task.c **** #endif
 270:..\..\..\..\..\..\Software\uCOS-III\Source/os_task.c **** 
 271:..\..\..\..\..\..\Software\uCOS-III\Source/os_task.c ****     CPU_STK       *p_sp;
ARM GAS  C:\Users\EDULU~1.DES\AppData\Local\Temp\ccyhp2HA.s 			page 11


 272:..\..\..\..\..\..\Software\uCOS-III\Source/os_task.c ****     CPU_STK       *p_stk_limit;
 273:..\..\..\..\..\..\Software\uCOS-III\Source/os_task.c ****     CPU_SR_ALLOC();
 299              		.loc 1 273 0
 300 000e 0023     		movs	r3, #0
 301 0010 BB61     		str	r3, [r7, #24]
 274:..\..\..\..\..\..\Software\uCOS-III\Source/os_task.c **** 
 275:..\..\..\..\..\..\Software\uCOS-III\Source/os_task.c **** 
 276:..\..\..\..\..\..\Software\uCOS-III\Source/os_task.c **** 
 277:..\..\..\..\..\..\Software\uCOS-III\Source/os_task.c **** #ifdef OS_SAFETY_CRITICAL
 278:..\..\..\..\..\..\Software\uCOS-III\Source/os_task.c ****     if (p_err == (OS_ERR *)0) {
 279:..\..\..\..\..\..\Software\uCOS-III\Source/os_task.c ****         OS_SAFETY_CRITICAL_EXCEPTION();
 280:..\..\..\..\..\..\Software\uCOS-III\Source/os_task.c ****         return;
 281:..\..\..\..\..\..\Software\uCOS-III\Source/os_task.c ****     }
 282:..\..\..\..\..\..\Software\uCOS-III\Source/os_task.c **** #endif
 283:..\..\..\..\..\..\Software\uCOS-III\Source/os_task.c **** 
 284:..\..\..\..\..\..\Software\uCOS-III\Source/os_task.c **** #ifdef OS_SAFETY_CRITICAL_IEC61508
 285:..\..\..\..\..\..\Software\uCOS-III\Source/os_task.c ****     if (OSSafetyCriticalStartFlag == DEF_TRUE) {
 286:..\..\..\..\..\..\Software\uCOS-III\Source/os_task.c ****        *p_err = OS_ERR_ILLEGAL_CREATE_RUN_TIME;
 287:..\..\..\..\..\..\Software\uCOS-III\Source/os_task.c ****         return;
 288:..\..\..\..\..\..\Software\uCOS-III\Source/os_task.c ****     }
 289:..\..\..\..\..\..\Software\uCOS-III\Source/os_task.c **** #endif
 290:..\..\..\..\..\..\Software\uCOS-III\Source/os_task.c **** 
 291:..\..\..\..\..\..\Software\uCOS-III\Source/os_task.c **** #if OS_CFG_CALLED_FROM_ISR_CHK_EN > 0u
 292:..\..\..\..\..\..\Software\uCOS-III\Source/os_task.c ****     if (OSIntNestingCtr > (OS_NESTING_CTR)0) {              /* ---------- CANNOT CREATE A TASK FROM
 302              		.loc 1 292 0
 303 0012 794B     		ldr	r3, .L39
 304 0014 1B78     		ldrb	r3, [r3]
 305 0016 002B     		cmp	r3, #0
 306 0018 03D0     		beq	.L24
 293:..\..\..\..\..\..\Software\uCOS-III\Source/os_task.c ****        *p_err = OS_ERR_TASK_CREATE_ISR;
 307              		.loc 1 293 0
 308 001a BB6D     		ldr	r3, [r7, #88]
 309 001c 774A     		ldr	r2, .L39+4
 310 001e 1A80     		strh	r2, [r3]
 294:..\..\..\..\..\..\Software\uCOS-III\Source/os_task.c ****         return;
 311              		.loc 1 294 0
 312 0020 E6E0     		b	.L23
 313              	.L24:
 295:..\..\..\..\..\..\Software\uCOS-III\Source/os_task.c ****     }
 296:..\..\..\..\..\..\Software\uCOS-III\Source/os_task.c **** #endif
 297:..\..\..\..\..\..\Software\uCOS-III\Source/os_task.c **** 
 298:..\..\..\..\..\..\Software\uCOS-III\Source/os_task.c **** #if OS_CFG_ARG_CHK_EN > 0u                                  /* ---------------- VALIDATE ARGUMENTS 
 299:..\..\..\..\..\..\Software\uCOS-III\Source/os_task.c ****     if (p_tcb == (OS_TCB *)0) {                             /* User must supply a valid OS_TCB     
 314              		.loc 1 299 0
 315 0022 FB68     		ldr	r3, [r7, #12]
 316 0024 002B     		cmp	r3, #0
 317 0026 03D1     		bne	.L26
 300:..\..\..\..\..\..\Software\uCOS-III\Source/os_task.c ****        *p_err = OS_ERR_TCB_INVALID;
 318              		.loc 1 300 0
 319 0028 BB6D     		ldr	r3, [r7, #88]
 320 002a 754A     		ldr	r2, .L39+8
 321 002c 1A80     		strh	r2, [r3]
 301:..\..\..\..\..\..\Software\uCOS-III\Source/os_task.c ****         return;
 322              		.loc 1 301 0
 323 002e DFE0     		b	.L23
 324              	.L26:
 302:..\..\..\..\..\..\Software\uCOS-III\Source/os_task.c ****     }
ARM GAS  C:\Users\EDULU~1.DES\AppData\Local\Temp\ccyhp2HA.s 			page 12


 303:..\..\..\..\..\..\Software\uCOS-III\Source/os_task.c ****     if (p_task == (OS_TASK_PTR)0) {                         /* User must supply a valid task       
 325              		.loc 1 303 0
 326 0030 7B68     		ldr	r3, [r7, #4]
 327 0032 002B     		cmp	r3, #0
 328 0034 03D1     		bne	.L27
 304:..\..\..\..\..\..\Software\uCOS-III\Source/os_task.c ****        *p_err = OS_ERR_TASK_INVALID;
 329              		.loc 1 304 0
 330 0036 BB6D     		ldr	r3, [r7, #88]
 331 0038 724A     		ldr	r2, .L39+12
 332 003a 1A80     		strh	r2, [r3]
 305:..\..\..\..\..\..\Software\uCOS-III\Source/os_task.c ****         return;
 333              		.loc 1 305 0
 334 003c D8E0     		b	.L23
 335              	.L27:
 306:..\..\..\..\..\..\Software\uCOS-III\Source/os_task.c ****     }
 307:..\..\..\..\..\..\Software\uCOS-III\Source/os_task.c ****     if (p_stk_base == (CPU_STK *)0) {                       /* User must supply a valid stack base 
 336              		.loc 1 307 0
 337 003e FB6B     		ldr	r3, [r7, #60]
 338 0040 002B     		cmp	r3, #0
 339 0042 03D1     		bne	.L28
 308:..\..\..\..\..\..\Software\uCOS-III\Source/os_task.c ****        *p_err = OS_ERR_STK_INVALID;
 340              		.loc 1 308 0
 341 0044 BB6D     		ldr	r3, [r7, #88]
 342 0046 704A     		ldr	r2, .L39+16
 343 0048 1A80     		strh	r2, [r3]
 309:..\..\..\..\..\..\Software\uCOS-III\Source/os_task.c ****         return;
 344              		.loc 1 309 0
 345 004a D1E0     		b	.L23
 346              	.L28:
 310:..\..\..\..\..\..\Software\uCOS-III\Source/os_task.c ****     }
 311:..\..\..\..\..\..\Software\uCOS-III\Source/os_task.c ****     if (stk_size < OSCfg_StkSizeMin) {                      /* User must supply a valid minimum sta
 347              		.loc 1 311 0
 348 004c 6F4B     		ldr	r3, .L39+20
 349 004e 1B68     		ldr	r3, [r3]
 350 0050 7A6C     		ldr	r2, [r7, #68]
 351 0052 9A42     		cmp	r2, r3
 352 0054 03D2     		bcs	.L29
 312:..\..\..\..\..\..\Software\uCOS-III\Source/os_task.c ****        *p_err = OS_ERR_STK_SIZE_INVALID;
 353              		.loc 1 312 0
 354 0056 BB6D     		ldr	r3, [r7, #88]
 355 0058 6D4A     		ldr	r2, .L39+24
 356 005a 1A80     		strh	r2, [r3]
 313:..\..\..\..\..\..\Software\uCOS-III\Source/os_task.c ****         return;
 357              		.loc 1 313 0
 358 005c C8E0     		b	.L23
 359              	.L29:
 314:..\..\..\..\..\..\Software\uCOS-III\Source/os_task.c ****     }
 315:..\..\..\..\..\..\Software\uCOS-III\Source/os_task.c ****     if (stk_limit >= stk_size) {                            /* User must supply a valid stack limit
 360              		.loc 1 315 0
 361 005e 3A6C     		ldr	r2, [r7, #64]
 362 0060 7B6C     		ldr	r3, [r7, #68]
 363 0062 9A42     		cmp	r2, r3
 364 0064 03D3     		bcc	.L30
 316:..\..\..\..\..\..\Software\uCOS-III\Source/os_task.c ****        *p_err = OS_ERR_STK_LIMIT_INVALID;
 365              		.loc 1 316 0
 366 0066 BB6D     		ldr	r3, [r7, #88]
 367 0068 6A4A     		ldr	r2, .L39+28
ARM GAS  C:\Users\EDULU~1.DES\AppData\Local\Temp\ccyhp2HA.s 			page 13


 368 006a 1A80     		strh	r2, [r3]
 317:..\..\..\..\..\..\Software\uCOS-III\Source/os_task.c ****         return;
 369              		.loc 1 317 0
 370 006c C0E0     		b	.L23
 371              	.L30:
 318:..\..\..\..\..\..\Software\uCOS-III\Source/os_task.c ****     }
 319:..\..\..\..\..\..\Software\uCOS-III\Source/os_task.c ****     if (prio >= OS_CFG_PRIO_MAX) {                          /* Priority must be within 0 and OS_CFG
 372              		.loc 1 319 0
 373 006e 3823     		movs	r3, #56
 374 0070 FB18     		adds	r3, r7, r3
 375 0072 1B78     		ldrb	r3, [r3]
 376 0074 1F2B     		cmp	r3, #31
 377 0076 03D9     		bls	.L31
 320:..\..\..\..\..\..\Software\uCOS-III\Source/os_task.c ****        *p_err = OS_ERR_PRIO_INVALID;
 378              		.loc 1 320 0
 379 0078 BB6D     		ldr	r3, [r7, #88]
 380 007a 674A     		ldr	r2, .L39+32
 381 007c 1A80     		strh	r2, [r3]
 321:..\..\..\..\..\..\Software\uCOS-III\Source/os_task.c ****         return;
 382              		.loc 1 321 0
 383 007e B7E0     		b	.L23
 384              	.L31:
 322:..\..\..\..\..\..\Software\uCOS-III\Source/os_task.c ****     }
 323:..\..\..\..\..\..\Software\uCOS-III\Source/os_task.c **** #endif
 324:..\..\..\..\..\..\Software\uCOS-III\Source/os_task.c **** 
 325:..\..\..\..\..\..\Software\uCOS-III\Source/os_task.c **** #if OS_CFG_ISR_POST_DEFERRED_EN > 0u
 326:..\..\..\..\..\..\Software\uCOS-III\Source/os_task.c ****     if (prio == (OS_PRIO)0) {
 327:..\..\..\..\..\..\Software\uCOS-III\Source/os_task.c ****         if (p_tcb != &OSIntQTaskTCB) {
 328:..\..\..\..\..\..\Software\uCOS-III\Source/os_task.c ****            *p_err = OS_ERR_PRIO_INVALID;                    /* Not allowed to use priority 0       
 329:..\..\..\..\..\..\Software\uCOS-III\Source/os_task.c ****             return;
 330:..\..\..\..\..\..\Software\uCOS-III\Source/os_task.c ****         }
 331:..\..\..\..\..\..\Software\uCOS-III\Source/os_task.c ****     }
 332:..\..\..\..\..\..\Software\uCOS-III\Source/os_task.c **** #endif
 333:..\..\..\..\..\..\Software\uCOS-III\Source/os_task.c **** 
 334:..\..\..\..\..\..\Software\uCOS-III\Source/os_task.c ****     if (prio == (OS_CFG_PRIO_MAX - 1u)) {
 385              		.loc 1 334 0
 386 0080 3823     		movs	r3, #56
 387 0082 FB18     		adds	r3, r7, r3
 388 0084 1B78     		ldrb	r3, [r3]
 389 0086 1F2B     		cmp	r3, #31
 390 0088 07D1     		bne	.L32
 335:..\..\..\..\..\..\Software\uCOS-III\Source/os_task.c ****         if (p_tcb != &OSIdleTaskTCB) {
 391              		.loc 1 335 0
 392 008a FA68     		ldr	r2, [r7, #12]
 393 008c 634B     		ldr	r3, .L39+36
 394 008e 9A42     		cmp	r2, r3
 395 0090 03D0     		beq	.L32
 336:..\..\..\..\..\..\Software\uCOS-III\Source/os_task.c ****            *p_err = OS_ERR_PRIO_INVALID;                    /* Not allowed to use same priority as 
 396              		.loc 1 336 0
 397 0092 BB6D     		ldr	r3, [r7, #88]
 398 0094 604A     		ldr	r2, .L39+32
 399 0096 1A80     		strh	r2, [r3]
 337:..\..\..\..\..\..\Software\uCOS-III\Source/os_task.c ****             return;
 400              		.loc 1 337 0
 401 0098 AAE0     		b	.L23
 402              	.L32:
 338:..\..\..\..\..\..\Software\uCOS-III\Source/os_task.c ****         }
ARM GAS  C:\Users\EDULU~1.DES\AppData\Local\Temp\ccyhp2HA.s 			page 14


 339:..\..\..\..\..\..\Software\uCOS-III\Source/os_task.c ****     }
 340:..\..\..\..\..\..\Software\uCOS-III\Source/os_task.c **** 
 341:..\..\..\..\..\..\Software\uCOS-III\Source/os_task.c ****     OS_TaskInitTCB(p_tcb);                                  /* Initialize the TCB to default values
 403              		.loc 1 341 0
 404 009a FB68     		ldr	r3, [r7, #12]
 405 009c 1800     		movs	r0, r3
 406 009e FFF7FEFF 		bl	OS_TaskInitTCB
 342:..\..\..\..\..\..\Software\uCOS-III\Source/os_task.c **** 
 343:..\..\..\..\..\..\Software\uCOS-III\Source/os_task.c ****    *p_err = OS_ERR_NONE;
 407              		.loc 1 343 0
 408 00a2 BB6D     		ldr	r3, [r7, #88]
 409 00a4 0022     		movs	r2, #0
 410 00a6 1A80     		strh	r2, [r3]
 344:..\..\..\..\..\..\Software\uCOS-III\Source/os_task.c ****                                                             /* --------------- CLEAR THE TASK'S STA
 345:..\..\..\..\..\..\Software\uCOS-III\Source/os_task.c ****     if ((opt & OS_OPT_TASK_STK_CHK) != (OS_OPT)0) {         /* See if stack checking has been enabl
 411              		.loc 1 345 0
 412 00a8 5423     		movs	r3, #84
 413 00aa FB18     		adds	r3, r7, r3
 414 00ac 1B88     		ldrh	r3, [r3]
 415 00ae 0122     		movs	r2, #1
 416 00b0 1340     		ands	r3, r2
 417 00b2 17D0     		beq	.L33
 346:..\..\..\..\..\..\Software\uCOS-III\Source/os_task.c ****         if ((opt & OS_OPT_TASK_STK_CLR) != (OS_OPT)0) {     /* See if stack needs to be cleared    
 418              		.loc 1 346 0
 419 00b4 5423     		movs	r3, #84
 420 00b6 FB18     		adds	r3, r7, r3
 421 00b8 1B88     		ldrh	r3, [r3]
 422 00ba 0222     		movs	r2, #2
 423 00bc 1340     		ands	r3, r2
 424 00be 11D0     		beq	.L33
 347:..\..\..\..\..\..\Software\uCOS-III\Source/os_task.c ****             p_sp = p_stk_base;
 425              		.loc 1 347 0
 426 00c0 FB6B     		ldr	r3, [r7, #60]
 427 00c2 FB61     		str	r3, [r7, #28]
 348:..\..\..\..\..\..\Software\uCOS-III\Source/os_task.c ****             for (i = 0u; i < stk_size; i++) {               /* Stack grows from HIGH to LOW memory 
 428              		.loc 1 348 0
 429 00c4 0023     		movs	r3, #0
 430 00c6 7B62     		str	r3, [r7, #36]
 431 00c8 08E0     		b	.L34
 432              	.L35:
 349:..\..\..\..\..\..\Software\uCOS-III\Source/os_task.c ****                *p_sp = (CPU_STK)0;                          /* Clear from bottom of stack and up!  
 433              		.loc 1 349 0 discriminator 3
 434 00ca FB69     		ldr	r3, [r7, #28]
 435 00cc 0022     		movs	r2, #0
 436 00ce 1A60     		str	r2, [r3]
 350:..\..\..\..\..\..\Software\uCOS-III\Source/os_task.c ****                 p_sp++;
 437              		.loc 1 350 0 discriminator 3
 438 00d0 FB69     		ldr	r3, [r7, #28]
 439 00d2 0433     		adds	r3, r3, #4
 440 00d4 FB61     		str	r3, [r7, #28]
 348:..\..\..\..\..\..\Software\uCOS-III\Source/os_task.c ****             for (i = 0u; i < stk_size; i++) {               /* Stack grows from HIGH to LOW memory 
 441              		.loc 1 348 0 discriminator 3
 442 00d6 7B6A     		ldr	r3, [r7, #36]
 443 00d8 0133     		adds	r3, r3, #1
 444 00da 7B62     		str	r3, [r7, #36]
 445              	.L34:
 348:..\..\..\..\..\..\Software\uCOS-III\Source/os_task.c ****             for (i = 0u; i < stk_size; i++) {               /* Stack grows from HIGH to LOW memory 
ARM GAS  C:\Users\EDULU~1.DES\AppData\Local\Temp\ccyhp2HA.s 			page 15


 446              		.loc 1 348 0 is_stmt 0 discriminator 1
 447 00dc 7A6A     		ldr	r2, [r7, #36]
 448 00de 7B6C     		ldr	r3, [r7, #68]
 449 00e0 9A42     		cmp	r2, r3
 450 00e2 F2D3     		bcc	.L35
 451              	.L33:
 351:..\..\..\..\..\..\Software\uCOS-III\Source/os_task.c ****             }
 352:..\..\..\..\..\..\Software\uCOS-III\Source/os_task.c ****         }
 353:..\..\..\..\..\..\Software\uCOS-III\Source/os_task.c ****     }
 354:..\..\..\..\..\..\Software\uCOS-III\Source/os_task.c ****                                                             /* ------- INITIALIZE THE STACK FRAME O
 355:..\..\..\..\..\..\Software\uCOS-III\Source/os_task.c **** #if (CPU_CFG_STK_GROWTH == CPU_STK_GROWTH_HI_TO_LO)
 356:..\..\..\..\..\..\Software\uCOS-III\Source/os_task.c ****     p_stk_limit = p_stk_base + stk_limit;
 452              		.loc 1 356 0 is_stmt 1
 453 00e4 3B6C     		ldr	r3, [r7, #64]
 454 00e6 9B00     		lsls	r3, r3, #2
 455 00e8 FA6B     		ldr	r2, [r7, #60]
 456 00ea D318     		adds	r3, r2, r3
 457 00ec 7B61     		str	r3, [r7, #20]
 357:..\..\..\..\..\..\Software\uCOS-III\Source/os_task.c **** #else
 358:..\..\..\..\..\..\Software\uCOS-III\Source/os_task.c ****     p_stk_limit = p_stk_base + (stk_size - 1u) - stk_limit;
 359:..\..\..\..\..\..\Software\uCOS-III\Source/os_task.c **** #endif
 360:..\..\..\..\..\..\Software\uCOS-III\Source/os_task.c **** 
 361:..\..\..\..\..\..\Software\uCOS-III\Source/os_task.c ****     p_sp = OSTaskStkInit(p_task,
 458              		.loc 1 361 0
 459 00ee 7C69     		ldr	r4, [r7, #20]
 460 00f0 FA6B     		ldr	r2, [r7, #60]
 461 00f2 3968     		ldr	r1, [r7]
 462 00f4 7868     		ldr	r0, [r7, #4]
 463 00f6 5423     		movs	r3, #84
 464 00f8 FB18     		adds	r3, r7, r3
 465 00fa 1B88     		ldrh	r3, [r3]
 466 00fc 0193     		str	r3, [sp, #4]
 467 00fe 7B6C     		ldr	r3, [r7, #68]
 468 0100 0093     		str	r3, [sp]
 469 0102 2300     		movs	r3, r4
 470 0104 FFF7FEFF 		bl	OSTaskStkInit
 471 0108 0300     		movs	r3, r0
 472 010a FB61     		str	r3, [r7, #28]
 362:..\..\..\..\..\..\Software\uCOS-III\Source/os_task.c ****                          p_arg,
 363:..\..\..\..\..\..\Software\uCOS-III\Source/os_task.c ****                          p_stk_base,
 364:..\..\..\..\..\..\Software\uCOS-III\Source/os_task.c ****                          p_stk_limit,
 365:..\..\..\..\..\..\Software\uCOS-III\Source/os_task.c ****                          stk_size,
 366:..\..\..\..\..\..\Software\uCOS-III\Source/os_task.c ****                          opt);
 367:..\..\..\..\..\..\Software\uCOS-III\Source/os_task.c **** 
 368:..\..\..\..\..\..\Software\uCOS-III\Source/os_task.c ****                                                             /* -------------- INITIALIZE THE TCB FI
 369:..\..\..\..\..\..\Software\uCOS-III\Source/os_task.c ****     p_tcb->TaskEntryAddr = p_task;                          /* Save task entry point address       
 473              		.loc 1 369 0
 474 010c FB68     		ldr	r3, [r7, #12]
 475 010e 7A68     		ldr	r2, [r7, #4]
 476 0110 9A62     		str	r2, [r3, #40]
 370:..\..\..\..\..\..\Software\uCOS-III\Source/os_task.c ****     p_tcb->TaskEntryArg  = p_arg;                           /* Save task entry argument            
 477              		.loc 1 370 0
 478 0112 FB68     		ldr	r3, [r7, #12]
 479 0114 3A68     		ldr	r2, [r7]
 480 0116 DA62     		str	r2, [r3, #44]
 371:..\..\..\..\..\..\Software\uCOS-III\Source/os_task.c **** 
 372:..\..\..\..\..\..\Software\uCOS-III\Source/os_task.c ****     p_tcb->NamePtr       = p_name;                          /* Save task name                      
ARM GAS  C:\Users\EDULU~1.DES\AppData\Local\Temp\ccyhp2HA.s 			page 16


 481              		.loc 1 372 0
 482 0118 FB68     		ldr	r3, [r7, #12]
 483 011a BA68     		ldr	r2, [r7, #8]
 484 011c 1A62     		str	r2, [r3, #32]
 373:..\..\..\..\..\..\Software\uCOS-III\Source/os_task.c **** 
 374:..\..\..\..\..\..\Software\uCOS-III\Source/os_task.c ****     p_tcb->Prio          = prio;                            /* Save the task's priority            
 485              		.loc 1 374 0
 486 011e FB68     		ldr	r3, [r7, #12]
 487 0120 3822     		movs	r2, #56
 488 0122 BA18     		adds	r2, r7, r2
 489 0124 3721     		movs	r1, #55
 490 0126 1278     		ldrb	r2, [r2]
 491 0128 5A54     		strb	r2, [r3, r1]
 375:..\..\..\..\..\..\Software\uCOS-III\Source/os_task.c **** 
 376:..\..\..\..\..\..\Software\uCOS-III\Source/os_task.c ****     p_tcb->StkPtr        = p_sp;                            /* Save the new top-of-stack pointer   
 492              		.loc 1 376 0
 493 012a FB68     		ldr	r3, [r7, #12]
 494 012c FA69     		ldr	r2, [r7, #28]
 495 012e 1A60     		str	r2, [r3]
 377:..\..\..\..\..\..\Software\uCOS-III\Source/os_task.c ****     p_tcb->StkLimitPtr   = p_stk_limit;                     /* Save the stack limit pointer        
 496              		.loc 1 377 0
 497 0130 FB68     		ldr	r3, [r7, #12]
 498 0132 7A69     		ldr	r2, [r7, #20]
 499 0134 9A60     		str	r2, [r3, #8]
 378:..\..\..\..\..\..\Software\uCOS-III\Source/os_task.c **** 
 379:..\..\..\..\..\..\Software\uCOS-III\Source/os_task.c ****     p_tcb->TimeQuanta    = time_quanta;                     /* Save the #ticks for time slice (0 me
 500              		.loc 1 379 0
 501 0136 FB68     		ldr	r3, [r7, #12]
 502 0138 FA6C     		ldr	r2, [r7, #76]
 503 013a 5A65     		str	r2, [r3, #84]
 380:..\..\..\..\..\..\Software\uCOS-III\Source/os_task.c **** #if OS_CFG_SCHED_ROUND_ROBIN_EN > 0u
 381:..\..\..\..\..\..\Software\uCOS-III\Source/os_task.c ****     if (time_quanta == (OS_TICK)0) {
 382:..\..\..\..\..\..\Software\uCOS-III\Source/os_task.c ****         p_tcb->TimeQuantaCtr = OSSchedRoundRobinDfltTimeQuanta;
 383:..\..\..\..\..\..\Software\uCOS-III\Source/os_task.c ****     } else {
 384:..\..\..\..\..\..\Software\uCOS-III\Source/os_task.c ****         p_tcb->TimeQuantaCtr = time_quanta;
 385:..\..\..\..\..\..\Software\uCOS-III\Source/os_task.c ****     }
 386:..\..\..\..\..\..\Software\uCOS-III\Source/os_task.c **** #endif
 387:..\..\..\..\..\..\Software\uCOS-III\Source/os_task.c ****     p_tcb->ExtPtr        = p_ext;                           /* Save pointer to TCB extension       
 504              		.loc 1 387 0
 505 013c FB68     		ldr	r3, [r7, #12]
 506 013e 3A6D     		ldr	r2, [r7, #80]
 507 0140 5A60     		str	r2, [r3, #4]
 388:..\..\..\..\..\..\Software\uCOS-III\Source/os_task.c ****     p_tcb->StkBasePtr    = p_stk_base;                      /* Save pointer to the base address of 
 508              		.loc 1 388 0
 509 0142 FB68     		ldr	r3, [r7, #12]
 510 0144 FA6B     		ldr	r2, [r7, #60]
 511 0146 5A62     		str	r2, [r3, #36]
 389:..\..\..\..\..\..\Software\uCOS-III\Source/os_task.c ****     p_tcb->StkSize       = stk_size;                        /* Save the stack size (in number of CP
 512              		.loc 1 389 0
 513 0148 FB68     		ldr	r3, [r7, #12]
 514 014a 7A6C     		ldr	r2, [r7, #68]
 515 014c 9A63     		str	r2, [r3, #56]
 390:..\..\..\..\..\..\Software\uCOS-III\Source/os_task.c ****     p_tcb->Opt           = opt;                             /* Save task options                   
 516              		.loc 1 390 0
 517 014e FB68     		ldr	r3, [r7, #12]
 518 0150 5422     		movs	r2, #84
 519 0152 BA18     		adds	r2, r7, r2
ARM GAS  C:\Users\EDULU~1.DES\AppData\Local\Temp\ccyhp2HA.s 			page 17


 520 0154 1288     		ldrh	r2, [r2]
 521 0156 9A87     		strh	r2, [r3, #60]
 391:..\..\..\..\..\..\Software\uCOS-III\Source/os_task.c **** 
 392:..\..\..\..\..\..\Software\uCOS-III\Source/os_task.c **** #if OS_CFG_TASK_REG_TBL_SIZE > 0u
 393:..\..\..\..\..\..\Software\uCOS-III\Source/os_task.c ****     for (reg_nbr = 0u; reg_nbr < OS_CFG_TASK_REG_TBL_SIZE; reg_nbr++) {
 522              		.loc 1 393 0
 523 0158 2323     		movs	r3, #35
 524 015a FB18     		adds	r3, r7, r3
 525 015c 0022     		movs	r2, #0
 526 015e 1A70     		strb	r2, [r3]
 527 0160 10E0     		b	.L36
 528              	.L37:
 394:..\..\..\..\..\..\Software\uCOS-III\Source/os_task.c ****         p_tcb->RegTbl[reg_nbr] = (OS_REG)0;
 529              		.loc 1 394 0 discriminator 3
 530 0162 2323     		movs	r3, #35
 531 0164 FB18     		adds	r3, r7, r3
 532 0166 1B78     		ldrb	r3, [r3]
 533 0168 FA68     		ldr	r2, [r7, #12]
 534 016a 1633     		adds	r3, r3, #22
 535 016c 9B00     		lsls	r3, r3, #2
 536 016e D318     		adds	r3, r2, r3
 537 0170 0433     		adds	r3, r3, #4
 538 0172 0022     		movs	r2, #0
 539 0174 1A60     		str	r2, [r3]
 393:..\..\..\..\..\..\Software\uCOS-III\Source/os_task.c ****         p_tcb->RegTbl[reg_nbr] = (OS_REG)0;
 540              		.loc 1 393 0 discriminator 3
 541 0176 2323     		movs	r3, #35
 542 0178 FB18     		adds	r3, r7, r3
 543 017a 1A78     		ldrb	r2, [r3]
 544 017c 2323     		movs	r3, #35
 545 017e FB18     		adds	r3, r7, r3
 546 0180 0132     		adds	r2, r2, #1
 547 0182 1A70     		strb	r2, [r3]
 548              	.L36:
 393:..\..\..\..\..\..\Software\uCOS-III\Source/os_task.c ****         p_tcb->RegTbl[reg_nbr] = (OS_REG)0;
 549              		.loc 1 393 0 is_stmt 0 discriminator 1
 550 0184 2323     		movs	r3, #35
 551 0186 FB18     		adds	r3, r7, r3
 552 0188 1B78     		ldrb	r3, [r3]
 553 018a 002B     		cmp	r3, #0
 554 018c E9D0     		beq	.L37
 395:..\..\..\..\..\..\Software\uCOS-III\Source/os_task.c ****     }
 396:..\..\..\..\..\..\Software\uCOS-III\Source/os_task.c **** #endif
 397:..\..\..\..\..\..\Software\uCOS-III\Source/os_task.c **** 
 398:..\..\..\..\..\..\Software\uCOS-III\Source/os_task.c **** #if OS_CFG_TASK_Q_EN > 0u
 399:..\..\..\..\..\..\Software\uCOS-III\Source/os_task.c ****     OS_MsgQInit(&p_tcb->MsgQ,                               /* Initialize the task's message queue 
 400:..\..\..\..\..\..\Software\uCOS-III\Source/os_task.c ****                 q_size);
 401:..\..\..\..\..\..\Software\uCOS-III\Source/os_task.c **** #else
 402:..\..\..\..\..\..\Software\uCOS-III\Source/os_task.c ****     (void)&q_size;
 403:..\..\..\..\..\..\Software\uCOS-III\Source/os_task.c **** #endif
 404:..\..\..\..\..\..\Software\uCOS-III\Source/os_task.c **** 
 405:..\..\..\..\..\..\Software\uCOS-III\Source/os_task.c ****     OSTaskCreateHook(p_tcb);                                /* Call user defined hook              
 555              		.loc 1 405 0 is_stmt 1
 556 018e FB68     		ldr	r3, [r7, #12]
 557 0190 1800     		movs	r0, r3
 558 0192 FFF7FEFF 		bl	OSTaskCreateHook
 406:..\..\..\..\..\..\Software\uCOS-III\Source/os_task.c **** 
ARM GAS  C:\Users\EDULU~1.DES\AppData\Local\Temp\ccyhp2HA.s 			page 18


 407:..\..\..\..\..\..\Software\uCOS-III\Source/os_task.c **** #if defined(OS_CFG_TLS_TBL_SIZE) && (OS_CFG_TLS_TBL_SIZE > 0u)
 408:..\..\..\..\..\..\Software\uCOS-III\Source/os_task.c ****     for (id = 0u; id < OS_CFG_TLS_TBL_SIZE; id++) {
 409:..\..\..\..\..\..\Software\uCOS-III\Source/os_task.c ****         p_tcb->TLS_Tbl[id] = (OS_TLS)0;
 410:..\..\..\..\..\..\Software\uCOS-III\Source/os_task.c ****     }
 411:..\..\..\..\..\..\Software\uCOS-III\Source/os_task.c ****     OS_TLS_TaskCreate(p_tcb);                               /* Call TLS hook                       
 412:..\..\..\..\..\..\Software\uCOS-III\Source/os_task.c **** #endif
 413:..\..\..\..\..\..\Software\uCOS-III\Source/os_task.c ****                                                             /* --------------- ADD TASK TO READY LI
 414:..\..\..\..\..\..\Software\uCOS-III\Source/os_task.c ****     OS_CRITICAL_ENTER();
 559              		.loc 1 414 0
 560 0196 FFF7FEFF 		bl	CPU_SR_Save
 561 019a 0300     		movs	r3, r0
 562 019c BB61     		str	r3, [r7, #24]
 563 019e FFF7FEFF 		bl	CPU_IntDisMeasStart
 415:..\..\..\..\..\..\Software\uCOS-III\Source/os_task.c ****     OS_PrioInsert(p_tcb->Prio);
 564              		.loc 1 415 0
 565 01a2 FB68     		ldr	r3, [r7, #12]
 566 01a4 3722     		movs	r2, #55
 567 01a6 9B5C     		ldrb	r3, [r3, r2]
 568 01a8 1800     		movs	r0, r3
 569 01aa FFF7FEFF 		bl	OS_PrioInsert
 416:..\..\..\..\..\..\Software\uCOS-III\Source/os_task.c ****     OS_RdyListInsertTail(p_tcb);
 570              		.loc 1 416 0
 571 01ae FB68     		ldr	r3, [r7, #12]
 572 01b0 1800     		movs	r0, r3
 573 01b2 FFF7FEFF 		bl	OS_RdyListInsertTail
 417:..\..\..\..\..\..\Software\uCOS-III\Source/os_task.c **** 
 418:..\..\..\..\..\..\Software\uCOS-III\Source/os_task.c **** #if OS_CFG_DBG_EN > 0u
 419:..\..\..\..\..\..\Software\uCOS-III\Source/os_task.c ****     OS_TaskDbgListAdd(p_tcb);
 574              		.loc 1 419 0
 575 01b6 FB68     		ldr	r3, [r7, #12]
 576 01b8 1800     		movs	r0, r3
 577 01ba FFF7FEFF 		bl	OS_TaskDbgListAdd
 420:..\..\..\..\..\..\Software\uCOS-III\Source/os_task.c **** #endif
 421:..\..\..\..\..\..\Software\uCOS-III\Source/os_task.c **** 
 422:..\..\..\..\..\..\Software\uCOS-III\Source/os_task.c ****     OSTaskQty++;                                            /* Increment the #tasks counter        
 578              		.loc 1 422 0
 579 01be 184B     		ldr	r3, .L39+40
 580 01c0 1B88     		ldrh	r3, [r3]
 581 01c2 0133     		adds	r3, r3, #1
 582 01c4 9AB2     		uxth	r2, r3
 583 01c6 164B     		ldr	r3, .L39+40
 584 01c8 1A80     		strh	r2, [r3]
 423:..\..\..\..\..\..\Software\uCOS-III\Source/os_task.c **** 
 424:..\..\..\..\..\..\Software\uCOS-III\Source/os_task.c ****     if (OSRunning != OS_STATE_OS_RUNNING) {                 /* Return if multitasking has not start
 585              		.loc 1 424 0
 586 01ca 164B     		ldr	r3, .L39+44
 587 01cc 1B78     		ldrb	r3, [r3]
 588 01ce 012B     		cmp	r3, #1
 589 01d0 06D0     		beq	.L38
 425:..\..\..\..\..\..\Software\uCOS-III\Source/os_task.c ****         OS_CRITICAL_EXIT();
 590              		.loc 1 425 0
 591 01d2 FFF7FEFF 		bl	CPU_IntDisMeasStop
 592 01d6 BB69     		ldr	r3, [r7, #24]
 593 01d8 1800     		movs	r0, r3
 594 01da FFF7FEFF 		bl	CPU_SR_Restore
 426:..\..\..\..\..\..\Software\uCOS-III\Source/os_task.c ****         return;
 595              		.loc 1 426 0
ARM GAS  C:\Users\EDULU~1.DES\AppData\Local\Temp\ccyhp2HA.s 			page 19


 596 01de 07E0     		b	.L23
 597              	.L38:
 427:..\..\..\..\..\..\Software\uCOS-III\Source/os_task.c ****     }
 428:..\..\..\..\..\..\Software\uCOS-III\Source/os_task.c **** 
 429:..\..\..\..\..\..\Software\uCOS-III\Source/os_task.c ****     OS_CRITICAL_EXIT_NO_SCHED();
 598              		.loc 1 429 0
 599 01e0 FFF7FEFF 		bl	CPU_IntDisMeasStop
 600 01e4 BB69     		ldr	r3, [r7, #24]
 601 01e6 1800     		movs	r0, r3
 602 01e8 FFF7FEFF 		bl	CPU_SR_Restore
 430:..\..\..\..\..\..\Software\uCOS-III\Source/os_task.c **** 
 431:..\..\..\..\..\..\Software\uCOS-III\Source/os_task.c ****     OSSched();
 603              		.loc 1 431 0
 604 01ec FFF7FEFF 		bl	OSSched
 605              	.L23:
 432:..\..\..\..\..\..\Software\uCOS-III\Source/os_task.c **** }
 606              		.loc 1 432 0
 607 01f0 BD46     		mov	sp, r7
 608 01f2 0BB0     		add	sp, sp, #44
 609              		@ sp needed
 610 01f4 90BD     		pop	{r4, r7, pc}
 611              	.L40:
 612 01f6 C046     		.align	2
 613              	.L39:
 614 01f8 00000000 		.word	OSIntNestingCtr
 615 01fc 4A710000 		.word	29002
 616 0200 AD710000 		.word	29101
 617 0204 4F710000 		.word	29007
 618 0208 2F6E0000 		.word	28207
 619 020c 00000000 		.word	OSCfg_StkSizeMin
 620 0210 306E0000 		.word	28208
 621 0214 316E0000 		.word	28209
 622 0218 73620000 		.word	25203
 623 021c 00000000 		.word	OSIdleTaskTCB
 624 0220 00000000 		.word	OSTaskQty
 625 0224 00000000 		.word	OSRunning
 626              		.cfi_endproc
 627              	.LFE2:
 628              		.size	OSTaskCreate, .-OSTaskCreate
 629              		.section	.text.OSTaskRegGet,"ax",%progbits
 630              		.align	2
 631              		.global	OSTaskRegGet
 632              		.code	16
 633              		.thumb_func
 634              		.type	OSTaskRegGet, %function
 635              	OSTaskRegGet:
 636              	.LFB3:
 433:..\..\..\..\..\..\Software\uCOS-III\Source/os_task.c **** 
 434:..\..\..\..\..\..\Software\uCOS-III\Source/os_task.c **** /*$PAGE*/
 435:..\..\..\..\..\..\Software\uCOS-III\Source/os_task.c **** /*
 436:..\..\..\..\..\..\Software\uCOS-III\Source/os_task.c **** ***************************************************************************************************
 437:..\..\..\..\..\..\Software\uCOS-III\Source/os_task.c **** *                                                     DELETE A TASK
 438:..\..\..\..\..\..\Software\uCOS-III\Source/os_task.c **** *
 439:..\..\..\..\..\..\Software\uCOS-III\Source/os_task.c **** * Description: This function allows you to delete a task.  The calling task can delete itself by sp
 440:..\..\..\..\..\..\Software\uCOS-III\Source/os_task.c **** *              pointer for 'p_tcb'.  The deleted task is returned to the dormant state and can be r
 441:..\..\..\..\..\..\Software\uCOS-III\Source/os_task.c **** *              creating the deleted task again.
 442:..\..\..\..\..\..\Software\uCOS-III\Source/os_task.c **** *
ARM GAS  C:\Users\EDULU~1.DES\AppData\Local\Temp\ccyhp2HA.s 			page 20


 443:..\..\..\..\..\..\Software\uCOS-III\Source/os_task.c **** * Arguments  : p_tcb      is the TCB of the tack to delete
 444:..\..\..\..\..\..\Software\uCOS-III\Source/os_task.c **** *
 445:..\..\..\..\..\..\Software\uCOS-III\Source/os_task.c **** *              p_err      is a pointer to an error code returned by this function:
 446:..\..\..\..\..\..\Software\uCOS-III\Source/os_task.c **** *
 447:..\..\..\..\..\..\Software\uCOS-III\Source/os_task.c **** *                             OS_ERR_NONE                  if the call is successful
 448:..\..\..\..\..\..\Software\uCOS-III\Source/os_task.c **** *                             OS_ERR_STATE_INVALID         if the state of the task is invalid
 449:..\..\..\..\..\..\Software\uCOS-III\Source/os_task.c **** *                             OS_ERR_TASK_DEL_IDLE         if you attempted to delete uC/OS-III's i
 450:..\..\..\..\..\..\Software\uCOS-III\Source/os_task.c **** *                             OS_ERR_TASK_DEL_INVALID      if you attempted to delete uC/OS-III's I
 451:..\..\..\..\..\..\Software\uCOS-III\Source/os_task.c **** *                             OS_ERR_TASK_DEL_ISR          if you tried to delete a task from an IS
 452:..\..\..\..\..\..\Software\uCOS-III\Source/os_task.c **** *
 453:..\..\..\..\..\..\Software\uCOS-III\Source/os_task.c **** * Note(s)    : 1) 'p_err' gets set to OS_ERR_NONE before OSSched() to allow the returned error code
 454:..\..\..\..\..\..\Software\uCOS-III\Source/os_task.c **** *                 for a task that is deleting itself. In this case, 'p_err' MUST point to a global 
 455:..\..\..\..\..\..\Software\uCOS-III\Source/os_task.c **** *                 accessed by another task.
 456:..\..\..\..\..\..\Software\uCOS-III\Source/os_task.c **** ***************************************************************************************************
 457:..\..\..\..\..\..\Software\uCOS-III\Source/os_task.c **** */
 458:..\..\..\..\..\..\Software\uCOS-III\Source/os_task.c **** 
 459:..\..\..\..\..\..\Software\uCOS-III\Source/os_task.c **** #if OS_CFG_TASK_DEL_EN > 0u
 460:..\..\..\..\..\..\Software\uCOS-III\Source/os_task.c **** void  OSTaskDel (OS_TCB  *p_tcb,
 461:..\..\..\..\..\..\Software\uCOS-III\Source/os_task.c ****                  OS_ERR  *p_err)
 462:..\..\..\..\..\..\Software\uCOS-III\Source/os_task.c **** {
 463:..\..\..\..\..\..\Software\uCOS-III\Source/os_task.c ****     CPU_SR_ALLOC();
 464:..\..\..\..\..\..\Software\uCOS-III\Source/os_task.c **** 
 465:..\..\..\..\..\..\Software\uCOS-III\Source/os_task.c **** 
 466:..\..\..\..\..\..\Software\uCOS-III\Source/os_task.c **** 
 467:..\..\..\..\..\..\Software\uCOS-III\Source/os_task.c **** #ifdef OS_SAFETY_CRITICAL
 468:..\..\..\..\..\..\Software\uCOS-III\Source/os_task.c ****     if (p_err == (OS_ERR *)0) {
 469:..\..\..\..\..\..\Software\uCOS-III\Source/os_task.c ****         OS_SAFETY_CRITICAL_EXCEPTION();
 470:..\..\..\..\..\..\Software\uCOS-III\Source/os_task.c ****         return;
 471:..\..\..\..\..\..\Software\uCOS-III\Source/os_task.c ****     }
 472:..\..\..\..\..\..\Software\uCOS-III\Source/os_task.c **** #endif
 473:..\..\..\..\..\..\Software\uCOS-III\Source/os_task.c **** 
 474:..\..\..\..\..\..\Software\uCOS-III\Source/os_task.c **** #if OS_CFG_CALLED_FROM_ISR_CHK_EN > 0u
 475:..\..\..\..\..\..\Software\uCOS-III\Source/os_task.c ****     if (OSIntNestingCtr > (OS_NESTING_CTR)0) {              /* See if trying to delete from ISR    
 476:..\..\..\..\..\..\Software\uCOS-III\Source/os_task.c ****        *p_err = OS_ERR_TASK_DEL_ISR;
 477:..\..\..\..\..\..\Software\uCOS-III\Source/os_task.c ****         return;
 478:..\..\..\..\..\..\Software\uCOS-III\Source/os_task.c ****     }
 479:..\..\..\..\..\..\Software\uCOS-III\Source/os_task.c **** #endif
 480:..\..\..\..\..\..\Software\uCOS-III\Source/os_task.c **** 
 481:..\..\..\..\..\..\Software\uCOS-III\Source/os_task.c ****     if (p_tcb == &OSIdleTaskTCB) {                          /* Not allowed to delete the idle task 
 482:..\..\..\..\..\..\Software\uCOS-III\Source/os_task.c ****        *p_err = OS_ERR_TASK_DEL_IDLE;
 483:..\..\..\..\..\..\Software\uCOS-III\Source/os_task.c ****         return;
 484:..\..\..\..\..\..\Software\uCOS-III\Source/os_task.c ****     }
 485:..\..\..\..\..\..\Software\uCOS-III\Source/os_task.c **** 
 486:..\..\..\..\..\..\Software\uCOS-III\Source/os_task.c **** #if OS_CFG_ISR_POST_DEFERRED_EN > 0u
 487:..\..\..\..\..\..\Software\uCOS-III\Source/os_task.c ****     if (p_tcb == &OSIntQTaskTCB) {                          /* Cannot delete the ISR handler task  
 488:..\..\..\..\..\..\Software\uCOS-III\Source/os_task.c ****        *p_err = OS_ERR_TASK_DEL_INVALID;
 489:..\..\..\..\..\..\Software\uCOS-III\Source/os_task.c ****         return;
 490:..\..\..\..\..\..\Software\uCOS-III\Source/os_task.c ****     }
 491:..\..\..\..\..\..\Software\uCOS-III\Source/os_task.c **** #endif
 492:..\..\..\..\..\..\Software\uCOS-III\Source/os_task.c **** 
 493:..\..\..\..\..\..\Software\uCOS-III\Source/os_task.c ****     if (p_tcb == (OS_TCB *)0) {                             /* Delete 'Self'?                      
 494:..\..\..\..\..\..\Software\uCOS-III\Source/os_task.c ****         CPU_CRITICAL_ENTER();
 495:..\..\..\..\..\..\Software\uCOS-III\Source/os_task.c ****         p_tcb  = OSTCBCurPtr;                               /* Yes.                                
 496:..\..\..\..\..\..\Software\uCOS-III\Source/os_task.c ****         CPU_CRITICAL_EXIT();
 497:..\..\..\..\..\..\Software\uCOS-III\Source/os_task.c ****     }
 498:..\..\..\..\..\..\Software\uCOS-III\Source/os_task.c **** 
 499:..\..\..\..\..\..\Software\uCOS-III\Source/os_task.c ****     OS_CRITICAL_ENTER();
ARM GAS  C:\Users\EDULU~1.DES\AppData\Local\Temp\ccyhp2HA.s 			page 21


 500:..\..\..\..\..\..\Software\uCOS-III\Source/os_task.c ****     switch (p_tcb->TaskState) {
 501:..\..\..\..\..\..\Software\uCOS-III\Source/os_task.c ****         case OS_TASK_STATE_RDY:
 502:..\..\..\..\..\..\Software\uCOS-III\Source/os_task.c ****              OS_RdyListRemove(p_tcb);
 503:..\..\..\..\..\..\Software\uCOS-III\Source/os_task.c ****              break;
 504:..\..\..\..\..\..\Software\uCOS-III\Source/os_task.c **** 
 505:..\..\..\..\..\..\Software\uCOS-III\Source/os_task.c ****         case OS_TASK_STATE_SUSPENDED:
 506:..\..\..\..\..\..\Software\uCOS-III\Source/os_task.c ****              break;
 507:..\..\..\..\..\..\Software\uCOS-III\Source/os_task.c **** 
 508:..\..\..\..\..\..\Software\uCOS-III\Source/os_task.c ****         case OS_TASK_STATE_DLY:                             /* Task is only delayed, not on any wai
 509:..\..\..\..\..\..\Software\uCOS-III\Source/os_task.c ****         case OS_TASK_STATE_DLY_SUSPENDED:
 510:..\..\..\..\..\..\Software\uCOS-III\Source/os_task.c ****              OS_TickListRemove(p_tcb);
 511:..\..\..\..\..\..\Software\uCOS-III\Source/os_task.c ****              break;
 512:..\..\..\..\..\..\Software\uCOS-III\Source/os_task.c **** 
 513:..\..\..\..\..\..\Software\uCOS-III\Source/os_task.c ****         case OS_TASK_STATE_PEND:
 514:..\..\..\..\..\..\Software\uCOS-III\Source/os_task.c ****         case OS_TASK_STATE_PEND_SUSPENDED:
 515:..\..\..\..\..\..\Software\uCOS-III\Source/os_task.c ****         case OS_TASK_STATE_PEND_TIMEOUT:
 516:..\..\..\..\..\..\Software\uCOS-III\Source/os_task.c ****         case OS_TASK_STATE_PEND_TIMEOUT_SUSPENDED:
 517:..\..\..\..\..\..\Software\uCOS-III\Source/os_task.c ****              OS_TickListRemove(p_tcb);
 518:..\..\..\..\..\..\Software\uCOS-III\Source/os_task.c ****              switch (p_tcb->PendOn) {                       /* See what we are pending on          
 519:..\..\..\..\..\..\Software\uCOS-III\Source/os_task.c ****                  case OS_TASK_PEND_ON_NOTHING:
 520:..\..\..\..\..\..\Software\uCOS-III\Source/os_task.c ****                  case OS_TASK_PEND_ON_TASK_Q:               /* There is no wait list for these two 
 521:..\..\..\..\..\..\Software\uCOS-III\Source/os_task.c ****                  case OS_TASK_PEND_ON_TASK_SEM:
 522:..\..\..\..\..\..\Software\uCOS-III\Source/os_task.c ****                       break;
 523:..\..\..\..\..\..\Software\uCOS-III\Source/os_task.c **** 
 524:..\..\..\..\..\..\Software\uCOS-III\Source/os_task.c ****                  case OS_TASK_PEND_ON_FLAG:                 /* Remove from wait list               
 525:..\..\..\..\..\..\Software\uCOS-III\Source/os_task.c ****                  case OS_TASK_PEND_ON_MULTI:
 526:..\..\..\..\..\..\Software\uCOS-III\Source/os_task.c ****                  case OS_TASK_PEND_ON_MUTEX:
 527:..\..\..\..\..\..\Software\uCOS-III\Source/os_task.c ****                  case OS_TASK_PEND_ON_Q:
 528:..\..\..\..\..\..\Software\uCOS-III\Source/os_task.c ****                  case OS_TASK_PEND_ON_SEM:
 529:..\..\..\..\..\..\Software\uCOS-III\Source/os_task.c ****                       OS_PendListRemove(p_tcb);
 530:..\..\..\..\..\..\Software\uCOS-III\Source/os_task.c ****                       break;
 531:..\..\..\..\..\..\Software\uCOS-III\Source/os_task.c **** 
 532:..\..\..\..\..\..\Software\uCOS-III\Source/os_task.c ****                  default:
 533:..\..\..\..\..\..\Software\uCOS-III\Source/os_task.c ****                       break;
 534:..\..\..\..\..\..\Software\uCOS-III\Source/os_task.c ****              }
 535:..\..\..\..\..\..\Software\uCOS-III\Source/os_task.c ****              break;
 536:..\..\..\..\..\..\Software\uCOS-III\Source/os_task.c **** 
 537:..\..\..\..\..\..\Software\uCOS-III\Source/os_task.c ****         default:
 538:..\..\..\..\..\..\Software\uCOS-III\Source/os_task.c ****             OS_CRITICAL_EXIT();
 539:..\..\..\..\..\..\Software\uCOS-III\Source/os_task.c ****            *p_err = OS_ERR_STATE_INVALID;
 540:..\..\..\..\..\..\Software\uCOS-III\Source/os_task.c ****             return;
 541:..\..\..\..\..\..\Software\uCOS-III\Source/os_task.c ****     }
 542:..\..\..\..\..\..\Software\uCOS-III\Source/os_task.c **** 
 543:..\..\..\..\..\..\Software\uCOS-III\Source/os_task.c **** #if OS_CFG_TASK_Q_EN > 0u
 544:..\..\..\..\..\..\Software\uCOS-III\Source/os_task.c ****     (void)OS_MsgQFreeAll(&p_tcb->MsgQ);                     /* Free task's message queue messages  
 545:..\..\..\..\..\..\Software\uCOS-III\Source/os_task.c **** #endif
 546:..\..\..\..\..\..\Software\uCOS-III\Source/os_task.c **** 
 547:..\..\..\..\..\..\Software\uCOS-III\Source/os_task.c ****     OSTaskDelHook(p_tcb);                                   /* Call user defined hook              
 548:..\..\..\..\..\..\Software\uCOS-III\Source/os_task.c **** 
 549:..\..\..\..\..\..\Software\uCOS-III\Source/os_task.c **** #if defined(OS_CFG_TLS_TBL_SIZE) && (OS_CFG_TLS_TBL_SIZE > 0u)
 550:..\..\..\..\..\..\Software\uCOS-III\Source/os_task.c ****     OS_TLS_TaskDel(p_tcb);                                  /* Call TLS hook                       
 551:..\..\..\..\..\..\Software\uCOS-III\Source/os_task.c **** #endif
 552:..\..\..\..\..\..\Software\uCOS-III\Source/os_task.c **** 
 553:..\..\..\..\..\..\Software\uCOS-III\Source/os_task.c **** #if OS_CFG_DBG_EN > 0u
 554:..\..\..\..\..\..\Software\uCOS-III\Source/os_task.c ****     OS_TaskDbgListRemove(p_tcb);
 555:..\..\..\..\..\..\Software\uCOS-III\Source/os_task.c **** #endif
 556:..\..\..\..\..\..\Software\uCOS-III\Source/os_task.c ****     OSTaskQty--;                                            /* One less task being managed         
ARM GAS  C:\Users\EDULU~1.DES\AppData\Local\Temp\ccyhp2HA.s 			page 22


 557:..\..\..\..\..\..\Software\uCOS-III\Source/os_task.c **** 
 558:..\..\..\..\..\..\Software\uCOS-III\Source/os_task.c ****     OS_TaskInitTCB(p_tcb);                                  /* Initialize the TCB to default values
 559:..\..\..\..\..\..\Software\uCOS-III\Source/os_task.c ****     p_tcb->TaskState = (OS_STATE)OS_TASK_STATE_DEL;         /* Indicate that the task was deleted  
 560:..\..\..\..\..\..\Software\uCOS-III\Source/os_task.c **** 
 561:..\..\..\..\..\..\Software\uCOS-III\Source/os_task.c ****     OS_CRITICAL_EXIT_NO_SCHED();
 562:..\..\..\..\..\..\Software\uCOS-III\Source/os_task.c **** 
 563:..\..\..\..\..\..\Software\uCOS-III\Source/os_task.c ****    *p_err = OS_ERR_NONE;                                    /* See Note #1.                        
 564:..\..\..\..\..\..\Software\uCOS-III\Source/os_task.c **** 
 565:..\..\..\..\..\..\Software\uCOS-III\Source/os_task.c ****     OSSched();                                              /* Find new highest priority task      
 566:..\..\..\..\..\..\Software\uCOS-III\Source/os_task.c **** }
 567:..\..\..\..\..\..\Software\uCOS-III\Source/os_task.c **** #endif
 568:..\..\..\..\..\..\Software\uCOS-III\Source/os_task.c **** 
 569:..\..\..\..\..\..\Software\uCOS-III\Source/os_task.c **** /*$PAGE*/
 570:..\..\..\..\..\..\Software\uCOS-III\Source/os_task.c **** /*
 571:..\..\..\..\..\..\Software\uCOS-III\Source/os_task.c **** ***************************************************************************************************
 572:..\..\..\..\..\..\Software\uCOS-III\Source/os_task.c **** *                                                    FLUSH TASK's QUEUE
 573:..\..\..\..\..\..\Software\uCOS-III\Source/os_task.c **** *
 574:..\..\..\..\..\..\Software\uCOS-III\Source/os_task.c **** * Description: This function is used to flush the task's internal message queue.
 575:..\..\..\..\..\..\Software\uCOS-III\Source/os_task.c **** *
 576:..\..\..\..\..\..\Software\uCOS-III\Source/os_task.c **** * Arguments  : p_tcb       is a pointer to the task's OS_TCB.  Specifying a NULL pointer indicates 
 577:..\..\..\..\..\..\Software\uCOS-III\Source/os_task.c **** *                          flush the message queue of the calling task.
 578:..\..\..\..\..\..\Software\uCOS-III\Source/os_task.c **** *
 579:..\..\..\..\..\..\Software\uCOS-III\Source/os_task.c **** *              p_err       is a pointer to a variable that will contain an error code returned by t
 580:..\..\..\..\..\..\Software\uCOS-III\Source/os_task.c **** *
 581:..\..\..\..\..\..\Software\uCOS-III\Source/os_task.c **** *                              OS_ERR_NONE           upon success
 582:..\..\..\..\..\..\Software\uCOS-III\Source/os_task.c **** *                              OS_ERR_FLUSH_ISR      if you called this function from an ISR
 583:..\..\..\..\..\..\Software\uCOS-III\Source/os_task.c **** *
 584:..\..\..\..\..\..\Software\uCOS-III\Source/os_task.c **** * Returns     : The number of entries freed from the queue
 585:..\..\..\..\..\..\Software\uCOS-III\Source/os_task.c **** *
 586:..\..\..\..\..\..\Software\uCOS-III\Source/os_task.c **** * Note(s)     : 1) You should use this function with great care because, when to flush the queue, y
 587:..\..\..\..\..\..\Software\uCOS-III\Source/os_task.c **** *                  references to what the queue entries are pointing to and thus, you could cause '
 588:..\..\..\..\..\..\Software\uCOS-III\Source/os_task.c **** *                  other words, the data you are pointing to that's being referenced by the queue e
 589:..\..\..\..\..\..\Software\uCOS-III\Source/os_task.c **** *                  likely, need to be de-allocated (i.e. freed).
 590:..\..\..\..\..\..\Software\uCOS-III\Source/os_task.c **** ***************************************************************************************************
 591:..\..\..\..\..\..\Software\uCOS-III\Source/os_task.c **** */
 592:..\..\..\..\..\..\Software\uCOS-III\Source/os_task.c **** 
 593:..\..\..\..\..\..\Software\uCOS-III\Source/os_task.c **** #if OS_CFG_TASK_Q_EN > 0u
 594:..\..\..\..\..\..\Software\uCOS-III\Source/os_task.c **** OS_MSG_QTY  OSTaskQFlush (OS_TCB  *p_tcb,
 595:..\..\..\..\..\..\Software\uCOS-III\Source/os_task.c ****                           OS_ERR  *p_err)
 596:..\..\..\..\..\..\Software\uCOS-III\Source/os_task.c **** {
 597:..\..\..\..\..\..\Software\uCOS-III\Source/os_task.c ****     OS_MSG_QTY  entries;
 598:..\..\..\..\..\..\Software\uCOS-III\Source/os_task.c ****     CPU_SR_ALLOC();
 599:..\..\..\..\..\..\Software\uCOS-III\Source/os_task.c **** 
 600:..\..\..\..\..\..\Software\uCOS-III\Source/os_task.c **** 
 601:..\..\..\..\..\..\Software\uCOS-III\Source/os_task.c **** 
 602:..\..\..\..\..\..\Software\uCOS-III\Source/os_task.c **** #ifdef OS_SAFETY_CRITICAL
 603:..\..\..\..\..\..\Software\uCOS-III\Source/os_task.c ****     if (p_err == (OS_ERR *)0) {
 604:..\..\..\..\..\..\Software\uCOS-III\Source/os_task.c ****         OS_SAFETY_CRITICAL_EXCEPTION();
 605:..\..\..\..\..\..\Software\uCOS-III\Source/os_task.c ****         return ((OS_MSG_QTY)0);
 606:..\..\..\..\..\..\Software\uCOS-III\Source/os_task.c ****     }
 607:..\..\..\..\..\..\Software\uCOS-III\Source/os_task.c **** #endif
 608:..\..\..\..\..\..\Software\uCOS-III\Source/os_task.c **** 
 609:..\..\..\..\..\..\Software\uCOS-III\Source/os_task.c **** #if OS_CFG_CALLED_FROM_ISR_CHK_EN > 0u
 610:..\..\..\..\..\..\Software\uCOS-III\Source/os_task.c ****     if (OSIntNestingCtr > (OS_NESTING_CTR)0) {              /* Can't flush a message queue from an 
 611:..\..\..\..\..\..\Software\uCOS-III\Source/os_task.c ****        *p_err = OS_ERR_FLUSH_ISR;
 612:..\..\..\..\..\..\Software\uCOS-III\Source/os_task.c ****         return ((OS_MSG_QTY)0);
 613:..\..\..\..\..\..\Software\uCOS-III\Source/os_task.c ****     }
ARM GAS  C:\Users\EDULU~1.DES\AppData\Local\Temp\ccyhp2HA.s 			page 23


 614:..\..\..\..\..\..\Software\uCOS-III\Source/os_task.c **** #endif
 615:..\..\..\..\..\..\Software\uCOS-III\Source/os_task.c **** 
 616:..\..\..\..\..\..\Software\uCOS-III\Source/os_task.c ****     if (p_tcb == (OS_TCB *)0) {                             /* Flush message queue of calling task?
 617:..\..\..\..\..\..\Software\uCOS-III\Source/os_task.c ****         CPU_CRITICAL_ENTER();
 618:..\..\..\..\..\..\Software\uCOS-III\Source/os_task.c ****         p_tcb = OSTCBCurPtr;
 619:..\..\..\..\..\..\Software\uCOS-III\Source/os_task.c ****         CPU_CRITICAL_EXIT();
 620:..\..\..\..\..\..\Software\uCOS-III\Source/os_task.c ****     }
 621:..\..\..\..\..\..\Software\uCOS-III\Source/os_task.c **** 
 622:..\..\..\..\..\..\Software\uCOS-III\Source/os_task.c ****     OS_CRITICAL_ENTER();
 623:..\..\..\..\..\..\Software\uCOS-III\Source/os_task.c ****     entries = OS_MsgQFreeAll(&p_tcb->MsgQ);                 /* Return all OS_MSGs to the OS_MSG poo
 624:..\..\..\..\..\..\Software\uCOS-III\Source/os_task.c ****     OS_CRITICAL_EXIT();
 625:..\..\..\..\..\..\Software\uCOS-III\Source/os_task.c ****    *p_err   = OS_ERR_NONE;
 626:..\..\..\..\..\..\Software\uCOS-III\Source/os_task.c ****     return (entries);
 627:..\..\..\..\..\..\Software\uCOS-III\Source/os_task.c **** }
 628:..\..\..\..\..\..\Software\uCOS-III\Source/os_task.c **** #endif
 629:..\..\..\..\..\..\Software\uCOS-III\Source/os_task.c **** 
 630:..\..\..\..\..\..\Software\uCOS-III\Source/os_task.c **** /*$PAGE*/
 631:..\..\..\..\..\..\Software\uCOS-III\Source/os_task.c **** /*
 632:..\..\..\..\..\..\Software\uCOS-III\Source/os_task.c **** ***************************************************************************************************
 633:..\..\..\..\..\..\Software\uCOS-III\Source/os_task.c **** *                                                  WAIT FOR A MESSAGE
 634:..\..\..\..\..\..\Software\uCOS-III\Source/os_task.c **** *
 635:..\..\..\..\..\..\Software\uCOS-III\Source/os_task.c **** * Description: This function causes the current task to wait for a message to be posted to it.
 636:..\..\..\..\..\..\Software\uCOS-III\Source/os_task.c **** *
 637:..\..\..\..\..\..\Software\uCOS-III\Source/os_task.c **** * Arguments  : timeout       is an optional timeout period (in clock ticks).  If non-zero, your tas
 638:..\..\..\..\..\..\Software\uCOS-III\Source/os_task.c **** *                            message to arrive up to the amount of time specified by this argument.
 639:..\..\..\..\..\..\Software\uCOS-III\Source/os_task.c **** *                            If you specify 0, however, your task will wait forever or, until a mes
 640:..\..\..\..\..\..\Software\uCOS-III\Source/os_task.c **** *
 641:..\..\..\..\..\..\Software\uCOS-III\Source/os_task.c **** *              opt           determines whether the user wants to block if the task's queue is empt
 642:..\..\..\..\..\..\Software\uCOS-III\Source/os_task.c **** *
 643:..\..\..\..\..\..\Software\uCOS-III\Source/os_task.c **** *                                OS_OPT_PEND_BLOCKING
 644:..\..\..\..\..\..\Software\uCOS-III\Source/os_task.c **** *                                OS_OPT_PEND_NON_BLOCKING
 645:..\..\..\..\..\..\Software\uCOS-III\Source/os_task.c **** *
 646:..\..\..\..\..\..\Software\uCOS-III\Source/os_task.c **** *              p_msg_size    is a pointer to a variable that will receive the size of the message
 647:..\..\..\..\..\..\Software\uCOS-III\Source/os_task.c **** *
 648:..\..\..\..\..\..\Software\uCOS-III\Source/os_task.c **** *              p_ts          is a pointer to a variable that will receive the timestamp of when the
 649:..\..\..\..\..\..\Software\uCOS-III\Source/os_task.c **** *                            received.  If you pass a NULL pointer (i.e. (CPU_TS *)0) then you will
 650:..\..\..\..\..\..\Software\uCOS-III\Source/os_task.c **** *                            timestamp.  In other words, passing a NULL pointer is valid and indica
 651:..\..\..\..\..\..\Software\uCOS-III\Source/os_task.c **** *                            need the timestamp.
 652:..\..\..\..\..\..\Software\uCOS-III\Source/os_task.c **** *
 653:..\..\..\..\..\..\Software\uCOS-III\Source/os_task.c **** *              p_err         is a pointer to where an error message will be deposited.  Possible er
 654:..\..\..\..\..\..\Software\uCOS-III\Source/os_task.c **** *                            messages are:
 655:..\..\..\..\..\..\Software\uCOS-III\Source/os_task.c **** *
 656:..\..\..\..\..\..\Software\uCOS-III\Source/os_task.c **** *                                OS_ERR_NONE               The call was successful and your task re
 657:..\..\..\..\..\..\Software\uCOS-III\Source/os_task.c **** *                                OS_ERR_PEND_ABORT
 658:..\..\..\..\..\..\Software\uCOS-III\Source/os_task.c **** *                                OS_ERR_PEND_ISR           If you called this function from an ISR 
 659:..\..\..\..\..\..\Software\uCOS-III\Source/os_task.c **** *                                OS_ERR_PEND_WOULD_BLOCK   If you specified non-blocking but the qu
 660:..\..\..\..\..\..\Software\uCOS-III\Source/os_task.c **** *                                OS_ERR_Q_EMPTY
 661:..\..\..\..\..\..\Software\uCOS-III\Source/os_task.c **** *                                OS_ERR_SCHED_LOCKED       If the scheduler is locked
 662:..\..\..\..\..\..\Software\uCOS-III\Source/os_task.c **** *                                OS_ERR_TIMEOUT            A message was not received within the sp
 663:..\..\..\..\..\..\Software\uCOS-III\Source/os_task.c **** *                                                          would lead to a suspension.
 664:..\..\..\..\..\..\Software\uCOS-III\Source/os_task.c **** *
 665:..\..\..\..\..\..\Software\uCOS-III\Source/os_task.c **** * Returns    : A pointer to the message received or a NULL pointer upon error.
 666:..\..\..\..\..\..\Software\uCOS-III\Source/os_task.c **** *
 667:..\..\..\..\..\..\Software\uCOS-III\Source/os_task.c **** * Note(s)    : 1) It is possible to receive NULL pointers when there are no errors.
 668:..\..\..\..\..\..\Software\uCOS-III\Source/os_task.c **** ***************************************************************************************************
 669:..\..\..\..\..\..\Software\uCOS-III\Source/os_task.c **** */
 670:..\..\..\..\..\..\Software\uCOS-III\Source/os_task.c **** 
ARM GAS  C:\Users\EDULU~1.DES\AppData\Local\Temp\ccyhp2HA.s 			page 24


 671:..\..\..\..\..\..\Software\uCOS-III\Source/os_task.c **** #if OS_CFG_TASK_Q_EN > 0u
 672:..\..\..\..\..\..\Software\uCOS-III\Source/os_task.c **** void  *OSTaskQPend (OS_TICK       timeout,
 673:..\..\..\..\..\..\Software\uCOS-III\Source/os_task.c ****                     OS_OPT        opt,
 674:..\..\..\..\..\..\Software\uCOS-III\Source/os_task.c ****                     OS_MSG_SIZE  *p_msg_size,
 675:..\..\..\..\..\..\Software\uCOS-III\Source/os_task.c ****                     CPU_TS       *p_ts,
 676:..\..\..\..\..\..\Software\uCOS-III\Source/os_task.c ****                     OS_ERR       *p_err)
 677:..\..\..\..\..\..\Software\uCOS-III\Source/os_task.c **** {
 678:..\..\..\..\..\..\Software\uCOS-III\Source/os_task.c ****     OS_MSG_Q     *p_msg_q;
 679:..\..\..\..\..\..\Software\uCOS-III\Source/os_task.c ****     void         *p_void;
 680:..\..\..\..\..\..\Software\uCOS-III\Source/os_task.c ****     CPU_SR_ALLOC();
 681:..\..\..\..\..\..\Software\uCOS-III\Source/os_task.c **** 
 682:..\..\..\..\..\..\Software\uCOS-III\Source/os_task.c **** 
 683:..\..\..\..\..\..\Software\uCOS-III\Source/os_task.c **** 
 684:..\..\..\..\..\..\Software\uCOS-III\Source/os_task.c **** #ifdef OS_SAFETY_CRITICAL
 685:..\..\..\..\..\..\Software\uCOS-III\Source/os_task.c ****     if (p_err == (OS_ERR *)0) {
 686:..\..\..\..\..\..\Software\uCOS-III\Source/os_task.c ****         OS_SAFETY_CRITICAL_EXCEPTION();
 687:..\..\..\..\..\..\Software\uCOS-III\Source/os_task.c ****         return ((void *)0);
 688:..\..\..\..\..\..\Software\uCOS-III\Source/os_task.c ****     }
 689:..\..\..\..\..\..\Software\uCOS-III\Source/os_task.c **** #endif
 690:..\..\..\..\..\..\Software\uCOS-III\Source/os_task.c **** 
 691:..\..\..\..\..\..\Software\uCOS-III\Source/os_task.c **** #if OS_CFG_CALLED_FROM_ISR_CHK_EN > 0u
 692:..\..\..\..\..\..\Software\uCOS-III\Source/os_task.c ****     if (OSIntNestingCtr > (OS_NESTING_CTR)0) {              /* Can't Pend from an ISR              
 693:..\..\..\..\..\..\Software\uCOS-III\Source/os_task.c ****        *p_err = OS_ERR_PEND_ISR;
 694:..\..\..\..\..\..\Software\uCOS-III\Source/os_task.c ****         return ((void *)0);
 695:..\..\..\..\..\..\Software\uCOS-III\Source/os_task.c ****     }
 696:..\..\..\..\..\..\Software\uCOS-III\Source/os_task.c **** #endif
 697:..\..\..\..\..\..\Software\uCOS-III\Source/os_task.c **** 
 698:..\..\..\..\..\..\Software\uCOS-III\Source/os_task.c **** #if OS_CFG_ARG_CHK_EN > 0u                                  /* ---------------- VALIDATE ARGUMENTS 
 699:..\..\..\..\..\..\Software\uCOS-III\Source/os_task.c ****     if (p_msg_size == (OS_MSG_SIZE *)0) {                   /* User must supply a valid destination
 700:..\..\..\..\..\..\Software\uCOS-III\Source/os_task.c ****        *p_err = OS_ERR_PTR_INVALID;
 701:..\..\..\..\..\..\Software\uCOS-III\Source/os_task.c ****         return ((void *)0);
 702:..\..\..\..\..\..\Software\uCOS-III\Source/os_task.c ****     }
 703:..\..\..\..\..\..\Software\uCOS-III\Source/os_task.c ****     switch (opt) {                                          /* User must supply a valid option     
 704:..\..\..\..\..\..\Software\uCOS-III\Source/os_task.c ****         case OS_OPT_PEND_BLOCKING:
 705:..\..\..\..\..\..\Software\uCOS-III\Source/os_task.c ****         case OS_OPT_PEND_NON_BLOCKING:
 706:..\..\..\..\..\..\Software\uCOS-III\Source/os_task.c ****              break;
 707:..\..\..\..\..\..\Software\uCOS-III\Source/os_task.c **** 
 708:..\..\..\..\..\..\Software\uCOS-III\Source/os_task.c ****         default:
 709:..\..\..\..\..\..\Software\uCOS-III\Source/os_task.c ****             *p_err = OS_ERR_OPT_INVALID;
 710:..\..\..\..\..\..\Software\uCOS-III\Source/os_task.c ****              return ((void *)0);
 711:..\..\..\..\..\..\Software\uCOS-III\Source/os_task.c ****     }
 712:..\..\..\..\..\..\Software\uCOS-III\Source/os_task.c **** #endif
 713:..\..\..\..\..\..\Software\uCOS-III\Source/os_task.c **** 
 714:..\..\..\..\..\..\Software\uCOS-III\Source/os_task.c ****     if (p_ts != (CPU_TS *)0) {
 715:..\..\..\..\..\..\Software\uCOS-III\Source/os_task.c ****        *p_ts  = (CPU_TS  )0;                                /* Initialize the returned timestamp   
 716:..\..\..\..\..\..\Software\uCOS-III\Source/os_task.c ****     }
 717:..\..\..\..\..\..\Software\uCOS-III\Source/os_task.c **** 
 718:..\..\..\..\..\..\Software\uCOS-III\Source/os_task.c ****     CPU_CRITICAL_ENTER();
 719:..\..\..\..\..\..\Software\uCOS-III\Source/os_task.c ****     p_msg_q = &OSTCBCurPtr->MsgQ;                           /* Any message waiting in the message q
 720:..\..\..\..\..\..\Software\uCOS-III\Source/os_task.c ****     p_void  = OS_MsgQGet(p_msg_q,
 721:..\..\..\..\..\..\Software\uCOS-III\Source/os_task.c ****                          p_msg_size,
 722:..\..\..\..\..\..\Software\uCOS-III\Source/os_task.c ****                          p_ts,
 723:..\..\..\..\..\..\Software\uCOS-III\Source/os_task.c ****                          p_err);
 724:..\..\..\..\..\..\Software\uCOS-III\Source/os_task.c ****     if (*p_err == OS_ERR_NONE) {
 725:..\..\..\..\..\..\Software\uCOS-III\Source/os_task.c **** #if OS_CFG_TASK_PROFILE_EN > 0u
 726:..\..\..\..\..\..\Software\uCOS-III\Source/os_task.c ****         if (p_ts != (CPU_TS *)0) {
 727:..\..\..\..\..\..\Software\uCOS-III\Source/os_task.c ****             OSTCBCurPtr->MsgQPendTime = OS_TS_GET() - *p_ts;
ARM GAS  C:\Users\EDULU~1.DES\AppData\Local\Temp\ccyhp2HA.s 			page 25


 728:..\..\..\..\..\..\Software\uCOS-III\Source/os_task.c ****             if (OSTCBCurPtr->MsgQPendTimeMax < OSTCBCurPtr->MsgQPendTime) {
 729:..\..\..\..\..\..\Software\uCOS-III\Source/os_task.c ****                 OSTCBCurPtr->MsgQPendTimeMax = OSTCBCurPtr->MsgQPendTime;
 730:..\..\..\..\..\..\Software\uCOS-III\Source/os_task.c ****             }
 731:..\..\..\..\..\..\Software\uCOS-III\Source/os_task.c ****         }
 732:..\..\..\..\..\..\Software\uCOS-III\Source/os_task.c **** #endif
 733:..\..\..\..\..\..\Software\uCOS-III\Source/os_task.c ****         CPU_CRITICAL_EXIT();
 734:..\..\..\..\..\..\Software\uCOS-III\Source/os_task.c ****         return (p_void);                                    /* Yes, Return oldest message received 
 735:..\..\..\..\..\..\Software\uCOS-III\Source/os_task.c ****     }
 736:..\..\..\..\..\..\Software\uCOS-III\Source/os_task.c **** 
 737:..\..\..\..\..\..\Software\uCOS-III\Source/os_task.c ****     if ((opt & OS_OPT_PEND_NON_BLOCKING) != (OS_OPT)0) {    /* Caller wants to block if not availab
 738:..\..\..\..\..\..\Software\uCOS-III\Source/os_task.c ****        *p_err = OS_ERR_PEND_WOULD_BLOCK;                    /* No                                  
 739:..\..\..\..\..\..\Software\uCOS-III\Source/os_task.c ****         CPU_CRITICAL_EXIT();
 740:..\..\..\..\..\..\Software\uCOS-III\Source/os_task.c ****         return ((void *)0);
 741:..\..\..\..\..\..\Software\uCOS-III\Source/os_task.c ****     } else {                                                /* Yes                                 
 742:..\..\..\..\..\..\Software\uCOS-III\Source/os_task.c ****         if (OSSchedLockNestingCtr > (OS_NESTING_CTR)0) {    /*     Can't block when the scheduler i
 743:..\..\..\..\..\..\Software\uCOS-III\Source/os_task.c ****             CPU_CRITICAL_EXIT();
 744:..\..\..\..\..\..\Software\uCOS-III\Source/os_task.c ****            *p_err = OS_ERR_SCHED_LOCKED;
 745:..\..\..\..\..\..\Software\uCOS-III\Source/os_task.c ****             return ((void *)0);
 746:..\..\..\..\..\..\Software\uCOS-III\Source/os_task.c ****         }
 747:..\..\..\..\..\..\Software\uCOS-III\Source/os_task.c ****     }
 748:..\..\..\..\..\..\Software\uCOS-III\Source/os_task.c ****                                                             /* Lock the scheduler/re-enable interru
 749:..\..\..\..\..\..\Software\uCOS-III\Source/os_task.c ****     OS_CRITICAL_ENTER_CPU_EXIT();
 750:..\..\..\..\..\..\Software\uCOS-III\Source/os_task.c ****     OS_Pend((OS_PEND_DATA *)0,                              /* Block task pending on Message       
 751:..\..\..\..\..\..\Software\uCOS-III\Source/os_task.c ****             (OS_PEND_OBJ  *)0,
 752:..\..\..\..\..\..\Software\uCOS-III\Source/os_task.c ****             (OS_STATE      )OS_TASK_PEND_ON_TASK_Q,
 753:..\..\..\..\..\..\Software\uCOS-III\Source/os_task.c ****             (OS_TICK       )timeout);
 754:..\..\..\..\..\..\Software\uCOS-III\Source/os_task.c ****     OS_CRITICAL_EXIT_NO_SCHED();
 755:..\..\..\..\..\..\Software\uCOS-III\Source/os_task.c **** 
 756:..\..\..\..\..\..\Software\uCOS-III\Source/os_task.c ****     OSSched();                                              /* Find the next highest priority task 
 757:..\..\..\..\..\..\Software\uCOS-III\Source/os_task.c **** 
 758:..\..\..\..\..\..\Software\uCOS-III\Source/os_task.c ****     CPU_CRITICAL_ENTER();
 759:..\..\..\..\..\..\Software\uCOS-III\Source/os_task.c ****     switch (OSTCBCurPtr->PendStatus) {
 760:..\..\..\..\..\..\Software\uCOS-III\Source/os_task.c ****         case OS_STATUS_PEND_OK:                             /* Extract message from TCB (Put there 
 761:..\..\..\..\..\..\Software\uCOS-III\Source/os_task.c ****              p_void      = OSTCBCurPtr->MsgPtr;
 762:..\..\..\..\..\..\Software\uCOS-III\Source/os_task.c ****             *p_msg_size  = OSTCBCurPtr->MsgSize;
 763:..\..\..\..\..\..\Software\uCOS-III\Source/os_task.c ****              if (p_ts != (CPU_TS *)0) {
 764:..\..\..\..\..\..\Software\uCOS-III\Source/os_task.c ****                 *p_ts  = OSTCBCurPtr->TS;
 765:..\..\..\..\..\..\Software\uCOS-III\Source/os_task.c **** #if OS_CFG_TASK_PROFILE_EN > 0u
 766:..\..\..\..\..\..\Software\uCOS-III\Source/os_task.c ****                 OSTCBCurPtr->MsgQPendTime = OS_TS_GET() - OSTCBCurPtr->TS;
 767:..\..\..\..\..\..\Software\uCOS-III\Source/os_task.c ****                 if (OSTCBCurPtr->MsgQPendTimeMax < OSTCBCurPtr->MsgQPendTime) {
 768:..\..\..\..\..\..\Software\uCOS-III\Source/os_task.c ****                     OSTCBCurPtr->MsgQPendTimeMax = OSTCBCurPtr->MsgQPendTime;
 769:..\..\..\..\..\..\Software\uCOS-III\Source/os_task.c ****                 }
 770:..\..\..\..\..\..\Software\uCOS-III\Source/os_task.c **** #endif
 771:..\..\..\..\..\..\Software\uCOS-III\Source/os_task.c ****              }
 772:..\..\..\..\..\..\Software\uCOS-III\Source/os_task.c ****             *p_err = OS_ERR_NONE;
 773:..\..\..\..\..\..\Software\uCOS-III\Source/os_task.c ****              break;
 774:..\..\..\..\..\..\Software\uCOS-III\Source/os_task.c **** 
 775:..\..\..\..\..\..\Software\uCOS-III\Source/os_task.c ****         case OS_STATUS_PEND_ABORT:                          /* Indicate that we aborted            
 776:..\..\..\..\..\..\Software\uCOS-III\Source/os_task.c ****              p_void     = (void      *)0;
 777:..\..\..\..\..\..\Software\uCOS-III\Source/os_task.c ****             *p_msg_size = (OS_MSG_SIZE)0;
 778:..\..\..\..\..\..\Software\uCOS-III\Source/os_task.c ****              if (p_ts  != (CPU_TS *)0) {
 779:..\..\..\..\..\..\Software\uCOS-III\Source/os_task.c ****                 *p_ts   = (CPU_TS  )0;
 780:..\..\..\..\..\..\Software\uCOS-III\Source/os_task.c ****              }
 781:..\..\..\..\..\..\Software\uCOS-III\Source/os_task.c ****             *p_err      =  OS_ERR_PEND_ABORT;
 782:..\..\..\..\..\..\Software\uCOS-III\Source/os_task.c ****              break;
 783:..\..\..\..\..\..\Software\uCOS-III\Source/os_task.c **** 
 784:..\..\..\..\..\..\Software\uCOS-III\Source/os_task.c ****         case OS_STATUS_PEND_TIMEOUT:                        /* Indicate that we didn't get event wi
ARM GAS  C:\Users\EDULU~1.DES\AppData\Local\Temp\ccyhp2HA.s 			page 26


 785:..\..\..\..\..\..\Software\uCOS-III\Source/os_task.c ****         default:
 786:..\..\..\..\..\..\Software\uCOS-III\Source/os_task.c ****              p_void     = (void      *)0;
 787:..\..\..\..\..\..\Software\uCOS-III\Source/os_task.c ****             *p_msg_size = (OS_MSG_SIZE)0;
 788:..\..\..\..\..\..\Software\uCOS-III\Source/os_task.c ****              if (p_ts  != (CPU_TS *)0) {
 789:..\..\..\..\..\..\Software\uCOS-III\Source/os_task.c ****                 *p_ts   =  OSTCBCurPtr->TS;
 790:..\..\..\..\..\..\Software\uCOS-III\Source/os_task.c ****              }
 791:..\..\..\..\..\..\Software\uCOS-III\Source/os_task.c ****             *p_err      =  OS_ERR_TIMEOUT;
 792:..\..\..\..\..\..\Software\uCOS-III\Source/os_task.c ****              break;
 793:..\..\..\..\..\..\Software\uCOS-III\Source/os_task.c ****     }
 794:..\..\..\..\..\..\Software\uCOS-III\Source/os_task.c ****     CPU_CRITICAL_EXIT();
 795:..\..\..\..\..\..\Software\uCOS-III\Source/os_task.c ****     return (p_void);                                        /* Return received message             
 796:..\..\..\..\..\..\Software\uCOS-III\Source/os_task.c **** }
 797:..\..\..\..\..\..\Software\uCOS-III\Source/os_task.c **** #endif
 798:..\..\..\..\..\..\Software\uCOS-III\Source/os_task.c **** 
 799:..\..\..\..\..\..\Software\uCOS-III\Source/os_task.c **** /*$PAGE*/
 800:..\..\..\..\..\..\Software\uCOS-III\Source/os_task.c **** /*
 801:..\..\..\..\..\..\Software\uCOS-III\Source/os_task.c **** ***************************************************************************************************
 802:..\..\..\..\..\..\Software\uCOS-III\Source/os_task.c **** *                                              ABORT WAITING FOR A MESSAGE
 803:..\..\..\..\..\..\Software\uCOS-III\Source/os_task.c **** *
 804:..\..\..\..\..\..\Software\uCOS-III\Source/os_task.c **** * Description: This function aborts & readies the task specified.  This function should be used to 
 805:..\..\..\..\..\..\Software\uCOS-III\Source/os_task.c **** *              for a message, rather than to normally post the message to the task via OSTaskQPost(
 806:..\..\..\..\..\..\Software\uCOS-III\Source/os_task.c **** *
 807:..\..\..\..\..\..\Software\uCOS-III\Source/os_task.c **** * Arguments  : p_tcb     is a pointer to the task to pend abort
 808:..\..\..\..\..\..\Software\uCOS-III\Source/os_task.c **** *
 809:..\..\..\..\..\..\Software\uCOS-III\Source/os_task.c **** *              opt       provides options for this function:
 810:..\..\..\..\..\..\Software\uCOS-III\Source/os_task.c **** *
 811:..\..\..\..\..\..\Software\uCOS-III\Source/os_task.c **** *                            OS_OPT_POST_NONE         No option specified
 812:..\..\..\..\..\..\Software\uCOS-III\Source/os_task.c **** *                            OS_OPT_POST_NO_SCHED     Indicates that the scheduler will not be call
 813:..\..\..\..\..\..\Software\uCOS-III\Source/os_task.c **** *
 814:..\..\..\..\..\..\Software\uCOS-III\Source/os_task.c **** *              p_err     is a pointer to a variable that will contain an error code returned by thi
 815:..\..\..\..\..\..\Software\uCOS-III\Source/os_task.c **** *
 816:..\..\..\..\..\..\Software\uCOS-III\Source/os_task.c **** *                            OS_ERR_NONE              If the task was readied and informed of the a
 817:..\..\..\..\..\..\Software\uCOS-III\Source/os_task.c **** *                            OS_ERR_PEND_ABORT_ISR    If you called this function from an ISR
 818:..\..\..\..\..\..\Software\uCOS-III\Source/os_task.c **** *                            OS_ERR_PEND_ABORT_NONE   If task was not pending on a message and thus
 819:..\..\..\..\..\..\Software\uCOS-III\Source/os_task.c **** *                                                     abort.
 820:..\..\..\..\..\..\Software\uCOS-III\Source/os_task.c **** *                            OS_ERR_PEND_ABORT_SELF   If you passed a NULL pointer for 'p_tcb'
 821:..\..\..\..\..\..\Software\uCOS-III\Source/os_task.c **** *
 822:..\..\..\..\..\..\Software\uCOS-III\Source/os_task.c **** * Returns    : == DEF_FALSE   if task was not waiting for a message, or upon error.
 823:..\..\..\..\..\..\Software\uCOS-III\Source/os_task.c **** *              == DEF_TRUE    if task was waiting for a message and was readied and informed.
 824:..\..\..\..\..\..\Software\uCOS-III\Source/os_task.c **** ***************************************************************************************************
 825:..\..\..\..\..\..\Software\uCOS-III\Source/os_task.c **** */
 826:..\..\..\..\..\..\Software\uCOS-III\Source/os_task.c **** 
 827:..\..\..\..\..\..\Software\uCOS-III\Source/os_task.c **** #if (OS_CFG_TASK_Q_EN > 0u) && (OS_CFG_TASK_Q_PEND_ABORT_EN > 0u)
 828:..\..\..\..\..\..\Software\uCOS-III\Source/os_task.c **** CPU_BOOLEAN  OSTaskQPendAbort (OS_TCB  *p_tcb,
 829:..\..\..\..\..\..\Software\uCOS-III\Source/os_task.c ****                                OS_OPT   opt,
 830:..\..\..\..\..\..\Software\uCOS-III\Source/os_task.c ****                                OS_ERR  *p_err)
 831:..\..\..\..\..\..\Software\uCOS-III\Source/os_task.c **** {
 832:..\..\..\..\..\..\Software\uCOS-III\Source/os_task.c ****     CPU_TS         ts;
 833:..\..\..\..\..\..\Software\uCOS-III\Source/os_task.c ****     CPU_SR_ALLOC();
 834:..\..\..\..\..\..\Software\uCOS-III\Source/os_task.c **** 
 835:..\..\..\..\..\..\Software\uCOS-III\Source/os_task.c **** 
 836:..\..\..\..\..\..\Software\uCOS-III\Source/os_task.c **** 
 837:..\..\..\..\..\..\Software\uCOS-III\Source/os_task.c **** #ifdef OS_SAFETY_CRITICAL
 838:..\..\..\..\..\..\Software\uCOS-III\Source/os_task.c ****     if (p_err == (OS_ERR *)0) {
 839:..\..\..\..\..\..\Software\uCOS-III\Source/os_task.c ****         OS_SAFETY_CRITICAL_EXCEPTION();
 840:..\..\..\..\..\..\Software\uCOS-III\Source/os_task.c ****         return (DEF_FALSE);
 841:..\..\..\..\..\..\Software\uCOS-III\Source/os_task.c ****     }
ARM GAS  C:\Users\EDULU~1.DES\AppData\Local\Temp\ccyhp2HA.s 			page 27


 842:..\..\..\..\..\..\Software\uCOS-III\Source/os_task.c **** #endif
 843:..\..\..\..\..\..\Software\uCOS-III\Source/os_task.c **** 
 844:..\..\..\..\..\..\Software\uCOS-III\Source/os_task.c **** #if OS_CFG_CALLED_FROM_ISR_CHK_EN > 0u
 845:..\..\..\..\..\..\Software\uCOS-III\Source/os_task.c ****     if (OSIntNestingCtr > (OS_NESTING_CTR)0) {              /* See if called from ISR ...          
 846:..\..\..\..\..\..\Software\uCOS-III\Source/os_task.c ****        *p_err = OS_ERR_PEND_ABORT_ISR;                      /* ... can't Pend Abort from an ISR    
 847:..\..\..\..\..\..\Software\uCOS-III\Source/os_task.c ****         return (DEF_FALSE);
 848:..\..\..\..\..\..\Software\uCOS-III\Source/os_task.c ****     }
 849:..\..\..\..\..\..\Software\uCOS-III\Source/os_task.c **** #endif
 850:..\..\..\..\..\..\Software\uCOS-III\Source/os_task.c **** 
 851:..\..\..\..\..\..\Software\uCOS-III\Source/os_task.c **** #if OS_CFG_ARG_CHK_EN > 0u                                  /* ---------------- VALIDATE ARGUMENTS 
 852:..\..\..\..\..\..\Software\uCOS-III\Source/os_task.c ****     switch (opt) {                                          /* User must supply a valid option     
 853:..\..\..\..\..\..\Software\uCOS-III\Source/os_task.c ****         case OS_OPT_POST_NONE:
 854:..\..\..\..\..\..\Software\uCOS-III\Source/os_task.c ****         case OS_OPT_POST_NO_SCHED:
 855:..\..\..\..\..\..\Software\uCOS-III\Source/os_task.c ****              break;
 856:..\..\..\..\..\..\Software\uCOS-III\Source/os_task.c **** 
 857:..\..\..\..\..\..\Software\uCOS-III\Source/os_task.c ****         default:
 858:..\..\..\..\..\..\Software\uCOS-III\Source/os_task.c ****             *p_err = OS_ERR_OPT_INVALID;
 859:..\..\..\..\..\..\Software\uCOS-III\Source/os_task.c ****              return (DEF_FALSE);
 860:..\..\..\..\..\..\Software\uCOS-III\Source/os_task.c ****     }
 861:..\..\..\..\..\..\Software\uCOS-III\Source/os_task.c **** #endif
 862:..\..\..\..\..\..\Software\uCOS-III\Source/os_task.c **** 
 863:..\..\..\..\..\..\Software\uCOS-III\Source/os_task.c ****     CPU_CRITICAL_ENTER();
 864:..\..\..\..\..\..\Software\uCOS-III\Source/os_task.c **** #if OS_CFG_ARG_CHK_EN > 0u
 865:..\..\..\..\..\..\Software\uCOS-III\Source/os_task.c ****     if ((p_tcb == (OS_TCB *)0) ||                           /* Pend abort self?                    
 866:..\..\..\..\..\..\Software\uCOS-III\Source/os_task.c ****         (p_tcb == OSTCBCurPtr)) {
 867:..\..\..\..\..\..\Software\uCOS-III\Source/os_task.c ****         CPU_CRITICAL_EXIT();
 868:..\..\..\..\..\..\Software\uCOS-III\Source/os_task.c ****        *p_err = OS_ERR_PEND_ABORT_SELF;                     /* ... doesn't make sense              
 869:..\..\..\..\..\..\Software\uCOS-III\Source/os_task.c ****         return (DEF_FALSE);
 870:..\..\..\..\..\..\Software\uCOS-III\Source/os_task.c ****     }
 871:..\..\..\..\..\..\Software\uCOS-III\Source/os_task.c **** #endif
 872:..\..\..\..\..\..\Software\uCOS-III\Source/os_task.c **** 
 873:..\..\..\..\..\..\Software\uCOS-III\Source/os_task.c ****     if (p_tcb->PendOn != OS_TASK_PEND_ON_TASK_Q) {          /* Is task waiting for a message?      
 874:..\..\..\..\..\..\Software\uCOS-III\Source/os_task.c ****         CPU_CRITICAL_EXIT();                                /* No                                  
 875:..\..\..\..\..\..\Software\uCOS-III\Source/os_task.c ****        *p_err = OS_ERR_PEND_ABORT_NONE;
 876:..\..\..\..\..\..\Software\uCOS-III\Source/os_task.c ****         return (DEF_FALSE);
 877:..\..\..\..\..\..\Software\uCOS-III\Source/os_task.c ****     }
 878:..\..\..\..\..\..\Software\uCOS-III\Source/os_task.c **** 
 879:..\..\..\..\..\..\Software\uCOS-III\Source/os_task.c ****     OS_CRITICAL_ENTER_CPU_EXIT();
 880:..\..\..\..\..\..\Software\uCOS-III\Source/os_task.c ****     ts = OS_TS_GET();                                       /* Get timestamp of when the abort occu
 881:..\..\..\..\..\..\Software\uCOS-III\Source/os_task.c ****     OS_PendAbort((OS_PEND_OBJ *)0,                          /* Abort the pend                      
 882:..\..\..\..\..\..\Software\uCOS-III\Source/os_task.c ****                  p_tcb,
 883:..\..\..\..\..\..\Software\uCOS-III\Source/os_task.c ****                  ts);
 884:..\..\..\..\..\..\Software\uCOS-III\Source/os_task.c ****     OS_CRITICAL_EXIT_NO_SCHED();
 885:..\..\..\..\..\..\Software\uCOS-III\Source/os_task.c ****     if ((opt & OS_OPT_POST_NO_SCHED) == (OS_OPT)0) {
 886:..\..\..\..\..\..\Software\uCOS-III\Source/os_task.c ****         OSSched();                                          /* Run the scheduler                   
 887:..\..\..\..\..\..\Software\uCOS-III\Source/os_task.c ****     }
 888:..\..\..\..\..\..\Software\uCOS-III\Source/os_task.c ****    *p_err = OS_ERR_NONE;
 889:..\..\..\..\..\..\Software\uCOS-III\Source/os_task.c ****     return (DEF_TRUE);
 890:..\..\..\..\..\..\Software\uCOS-III\Source/os_task.c **** }
 891:..\..\..\..\..\..\Software\uCOS-III\Source/os_task.c **** #endif
 892:..\..\..\..\..\..\Software\uCOS-III\Source/os_task.c **** 
 893:..\..\..\..\..\..\Software\uCOS-III\Source/os_task.c **** /*$PAGE*/
 894:..\..\..\..\..\..\Software\uCOS-III\Source/os_task.c **** /*
 895:..\..\..\..\..\..\Software\uCOS-III\Source/os_task.c **** ***************************************************************************************************
 896:..\..\..\..\..\..\Software\uCOS-III\Source/os_task.c **** *                                               POST MESSAGE TO A TASK
 897:..\..\..\..\..\..\Software\uCOS-III\Source/os_task.c **** *
 898:..\..\..\..\..\..\Software\uCOS-III\Source/os_task.c **** * Description: This function sends a message to a task
ARM GAS  C:\Users\EDULU~1.DES\AppData\Local\Temp\ccyhp2HA.s 			page 28


 899:..\..\..\..\..\..\Software\uCOS-III\Source/os_task.c **** *
 900:..\..\..\..\..\..\Software\uCOS-III\Source/os_task.c **** * Arguments  : p_tcb      is a pointer to the TCB of the task receiving a message.  If you specify 
 901:..\..\..\..\..\..\Software\uCOS-III\Source/os_task.c **** *                         the message will be posted to the task's queue of the calling task.  In o
 902:..\..\..\..\..\..\Software\uCOS-III\Source/os_task.c **** *                         posting a message to yourself.
 903:..\..\..\..\..\..\Software\uCOS-III\Source/os_task.c **** *
 904:..\..\..\..\..\..\Software\uCOS-III\Source/os_task.c **** *              p_void     is a pointer to the message to send.
 905:..\..\..\..\..\..\Software\uCOS-III\Source/os_task.c **** *
 906:..\..\..\..\..\..\Software\uCOS-III\Source/os_task.c **** *              msg_size   is the size of the message sent (in #bytes)
 907:..\..\..\..\..\..\Software\uCOS-III\Source/os_task.c **** *
 908:..\..\..\..\..\..\Software\uCOS-III\Source/os_task.c **** *              opt        specifies whether the post will be FIFO or LIFO:
 909:..\..\..\..\..\..\Software\uCOS-III\Source/os_task.c **** *
 910:..\..\..\..\..\..\Software\uCOS-III\Source/os_task.c **** *                             OS_OPT_POST_FIFO       Post at the end   of the queue
 911:..\..\..\..\..\..\Software\uCOS-III\Source/os_task.c **** *                             OS_OPT_POST_LIFO       Post at the front of the queue
 912:..\..\..\..\..\..\Software\uCOS-III\Source/os_task.c **** *
 913:..\..\..\..\..\..\Software\uCOS-III\Source/os_task.c **** *                             OS_OPT_POST_NO_SCHED   Do not run the scheduler after the post
 914:..\..\..\..\..\..\Software\uCOS-III\Source/os_task.c **** *
 915:..\..\..\..\..\..\Software\uCOS-III\Source/os_task.c **** *                          Note(s): 1) OS_OPT_POST_NO_SCHED can be added with one of the other opti
 916:..\..\..\..\..\..\Software\uCOS-III\Source/os_task.c **** *
 917:..\..\..\..\..\..\Software\uCOS-III\Source/os_task.c **** *
 918:..\..\..\..\..\..\Software\uCOS-III\Source/os_task.c **** *              p_err      is a pointer to a variable that will hold the error code associated
 919:..\..\..\..\..\..\Software\uCOS-III\Source/os_task.c **** *                         with the outcome of this call.  Errors can be:
 920:..\..\..\..\..\..\Software\uCOS-III\Source/os_task.c **** *
 921:..\..\..\..\..\..\Software\uCOS-III\Source/os_task.c **** *                             OS_ERR_NONE            The call was successful and the message was se
 922:..\..\..\..\..\..\Software\uCOS-III\Source/os_task.c **** *                             OS_ERR_Q_MAX           If the queue is full
 923:..\..\..\..\..\..\Software\uCOS-III\Source/os_task.c **** *                             OS_ERR_MSG_POOL_EMPTY  If there are no more OS_MSGs available from th
 924:..\..\..\..\..\..\Software\uCOS-III\Source/os_task.c **** *
 925:..\..\..\..\..\..\Software\uCOS-III\Source/os_task.c **** * Returns    : none
 926:..\..\..\..\..\..\Software\uCOS-III\Source/os_task.c **** ***************************************************************************************************
 927:..\..\..\..\..\..\Software\uCOS-III\Source/os_task.c **** */
 928:..\..\..\..\..\..\Software\uCOS-III\Source/os_task.c **** 
 929:..\..\..\..\..\..\Software\uCOS-III\Source/os_task.c **** #if OS_CFG_TASK_Q_EN > 0u
 930:..\..\..\..\..\..\Software\uCOS-III\Source/os_task.c **** void  OSTaskQPost (OS_TCB       *p_tcb,
 931:..\..\..\..\..\..\Software\uCOS-III\Source/os_task.c ****                    void         *p_void,
 932:..\..\..\..\..\..\Software\uCOS-III\Source/os_task.c ****                    OS_MSG_SIZE   msg_size,
 933:..\..\..\..\..\..\Software\uCOS-III\Source/os_task.c ****                    OS_OPT        opt,
 934:..\..\..\..\..\..\Software\uCOS-III\Source/os_task.c ****                    OS_ERR       *p_err)
 935:..\..\..\..\..\..\Software\uCOS-III\Source/os_task.c **** {
 936:..\..\..\..\..\..\Software\uCOS-III\Source/os_task.c ****     CPU_TS   ts;
 937:..\..\..\..\..\..\Software\uCOS-III\Source/os_task.c **** 
 938:..\..\..\..\..\..\Software\uCOS-III\Source/os_task.c **** 
 939:..\..\..\..\..\..\Software\uCOS-III\Source/os_task.c **** 
 940:..\..\..\..\..\..\Software\uCOS-III\Source/os_task.c **** #ifdef OS_SAFETY_CRITICAL
 941:..\..\..\..\..\..\Software\uCOS-III\Source/os_task.c ****     if (p_err == (OS_ERR *)0) {
 942:..\..\..\..\..\..\Software\uCOS-III\Source/os_task.c ****         OS_SAFETY_CRITICAL_EXCEPTION();
 943:..\..\..\..\..\..\Software\uCOS-III\Source/os_task.c ****         return;
 944:..\..\..\..\..\..\Software\uCOS-III\Source/os_task.c ****     }
 945:..\..\..\..\..\..\Software\uCOS-III\Source/os_task.c **** #endif
 946:..\..\..\..\..\..\Software\uCOS-III\Source/os_task.c **** 
 947:..\..\..\..\..\..\Software\uCOS-III\Source/os_task.c **** #if OS_CFG_ARG_CHK_EN > 0u                                  /* ---------------- VALIDATE ARGUMENTS 
 948:..\..\..\..\..\..\Software\uCOS-III\Source/os_task.c ****     switch (opt) {                                          /* User must supply a valid option     
 949:..\..\..\..\..\..\Software\uCOS-III\Source/os_task.c ****         case OS_OPT_POST_FIFO:
 950:..\..\..\..\..\..\Software\uCOS-III\Source/os_task.c ****         case OS_OPT_POST_LIFO:
 951:..\..\..\..\..\..\Software\uCOS-III\Source/os_task.c ****         case OS_OPT_POST_FIFO | OS_OPT_POST_NO_SCHED:
 952:..\..\..\..\..\..\Software\uCOS-III\Source/os_task.c ****         case OS_OPT_POST_LIFO | OS_OPT_POST_NO_SCHED:
 953:..\..\..\..\..\..\Software\uCOS-III\Source/os_task.c ****              break;
 954:..\..\..\..\..\..\Software\uCOS-III\Source/os_task.c **** 
 955:..\..\..\..\..\..\Software\uCOS-III\Source/os_task.c ****         default:
ARM GAS  C:\Users\EDULU~1.DES\AppData\Local\Temp\ccyhp2HA.s 			page 29


 956:..\..\..\..\..\..\Software\uCOS-III\Source/os_task.c ****             *p_err = OS_ERR_OPT_INVALID;
 957:..\..\..\..\..\..\Software\uCOS-III\Source/os_task.c ****              return;
 958:..\..\..\..\..\..\Software\uCOS-III\Source/os_task.c ****     }
 959:..\..\..\..\..\..\Software\uCOS-III\Source/os_task.c **** #endif
 960:..\..\..\..\..\..\Software\uCOS-III\Source/os_task.c **** 
 961:..\..\..\..\..\..\Software\uCOS-III\Source/os_task.c ****     ts = OS_TS_GET();                                       /* Get timestamp                       
 962:..\..\..\..\..\..\Software\uCOS-III\Source/os_task.c **** 
 963:..\..\..\..\..\..\Software\uCOS-III\Source/os_task.c **** #if OS_CFG_ISR_POST_DEFERRED_EN > 0u
 964:..\..\..\..\..\..\Software\uCOS-III\Source/os_task.c ****     if (OSIntNestingCtr > (OS_NESTING_CTR)0) {
 965:..\..\..\..\..\..\Software\uCOS-III\Source/os_task.c ****         OS_IntQPost((OS_OBJ_TYPE)OS_OBJ_TYPE_TASK_MSG,      /* Post to ISR queue                   
 966:..\..\..\..\..\..\Software\uCOS-III\Source/os_task.c ****                     (void      *)p_tcb,
 967:..\..\..\..\..\..\Software\uCOS-III\Source/os_task.c ****                     (void      *)p_void,
 968:..\..\..\..\..\..\Software\uCOS-III\Source/os_task.c ****                     (OS_MSG_SIZE)msg_size,
 969:..\..\..\..\..\..\Software\uCOS-III\Source/os_task.c ****                     (OS_FLAGS   )0,
 970:..\..\..\..\..\..\Software\uCOS-III\Source/os_task.c ****                     (OS_OPT     )opt,
 971:..\..\..\..\..\..\Software\uCOS-III\Source/os_task.c ****                     (CPU_TS     )ts,
 972:..\..\..\..\..\..\Software\uCOS-III\Source/os_task.c ****                     (OS_ERR    *)p_err);
 973:..\..\..\..\..\..\Software\uCOS-III\Source/os_task.c ****         return;
 974:..\..\..\..\..\..\Software\uCOS-III\Source/os_task.c ****     }
 975:..\..\..\..\..\..\Software\uCOS-III\Source/os_task.c **** #endif
 976:..\..\..\..\..\..\Software\uCOS-III\Source/os_task.c **** 
 977:..\..\..\..\..\..\Software\uCOS-III\Source/os_task.c ****     OS_TaskQPost(p_tcb,
 978:..\..\..\..\..\..\Software\uCOS-III\Source/os_task.c ****                  p_void,
 979:..\..\..\..\..\..\Software\uCOS-III\Source/os_task.c ****                  msg_size,
 980:..\..\..\..\..\..\Software\uCOS-III\Source/os_task.c ****                  opt,
 981:..\..\..\..\..\..\Software\uCOS-III\Source/os_task.c ****                  ts,
 982:..\..\..\..\..\..\Software\uCOS-III\Source/os_task.c ****                  p_err);
 983:..\..\..\..\..\..\Software\uCOS-III\Source/os_task.c **** }
 984:..\..\..\..\..\..\Software\uCOS-III\Source/os_task.c **** #endif
 985:..\..\..\..\..\..\Software\uCOS-III\Source/os_task.c **** 
 986:..\..\..\..\..\..\Software\uCOS-III\Source/os_task.c **** /*$PAGE*/
 987:..\..\..\..\..\..\Software\uCOS-III\Source/os_task.c **** /*
 988:..\..\..\..\..\..\Software\uCOS-III\Source/os_task.c **** ***************************************************************************************************
 989:..\..\..\..\..\..\Software\uCOS-III\Source/os_task.c **** *                                       GET THE CURRENT VALUE OF A TASK REGISTER
 990:..\..\..\..\..\..\Software\uCOS-III\Source/os_task.c **** *
 991:..\..\..\..\..\..\Software\uCOS-III\Source/os_task.c **** * Description: This function is called to obtain the current value of a task register.  Task regist
 992:..\..\..\..\..\..\Software\uCOS-III\Source/os_task.c **** *              specific and can be used to store task specific values such as 'error numbers' (i.e.
 993:..\..\..\..\..\..\Software\uCOS-III\Source/os_task.c **** *              etc.
 994:..\..\..\..\..\..\Software\uCOS-III\Source/os_task.c **** *
 995:..\..\..\..\..\..\Software\uCOS-III\Source/os_task.c **** * Arguments  : p_tcb     is a pointer to the OS_TCB of the task you want to read the register from.
 996:..\..\..\..\..\..\Software\uCOS-III\Source/os_task.c **** *                        NULL pointer then you will get the register of the current task.
 997:..\..\..\..\..\..\Software\uCOS-III\Source/os_task.c **** *
 998:..\..\..\..\..\..\Software\uCOS-III\Source/os_task.c **** *              id        is the 'id' of the desired task variable.  Note that the 'id' must be less
 999:..\..\..\..\..\..\Software\uCOS-III\Source/os_task.c **** *                        OS_CFG_TASK_REG_TBL_SIZE
1000:..\..\..\..\..\..\Software\uCOS-III\Source/os_task.c **** *
1001:..\..\..\..\..\..\Software\uCOS-III\Source/os_task.c **** *              p_err     is a pointer to a variable that will hold an error code related to this ca
1002:..\..\..\..\..\..\Software\uCOS-III\Source/os_task.c **** *
1003:..\..\..\..\..\..\Software\uCOS-III\Source/os_task.c **** *                            OS_ERR_NONE            if the call was successful
1004:..\..\..\..\..\..\Software\uCOS-III\Source/os_task.c **** *                            OS_ERR_REG_ID_INVALID  if the 'id' is not between 0 and OS_CFG_TASK_RE
1005:..\..\..\..\..\..\Software\uCOS-III\Source/os_task.c **** *
1006:..\..\..\..\..\..\Software\uCOS-III\Source/os_task.c **** * Returns    : The current value of the task's register or 0 if an error is detected.
1007:..\..\..\..\..\..\Software\uCOS-III\Source/os_task.c **** ***************************************************************************************************
1008:..\..\..\..\..\..\Software\uCOS-III\Source/os_task.c **** */
1009:..\..\..\..\..\..\Software\uCOS-III\Source/os_task.c **** 
1010:..\..\..\..\..\..\Software\uCOS-III\Source/os_task.c **** #if OS_CFG_TASK_REG_TBL_SIZE > 0u
1011:..\..\..\..\..\..\Software\uCOS-III\Source/os_task.c **** OS_REG  OSTaskRegGet (OS_TCB     *p_tcb,
1012:..\..\..\..\..\..\Software\uCOS-III\Source/os_task.c ****                       OS_REG_ID   id,
ARM GAS  C:\Users\EDULU~1.DES\AppData\Local\Temp\ccyhp2HA.s 			page 30


1013:..\..\..\..\..\..\Software\uCOS-III\Source/os_task.c ****                       OS_ERR     *p_err)
1014:..\..\..\..\..\..\Software\uCOS-III\Source/os_task.c **** {
 637              		.loc 1 1014 0
 638              		.cfi_startproc
 639              		@ args = 0, pretend = 0, frame = 24
 640              		@ frame_needed = 1, uses_anonymous_args = 0
 641 0000 80B5     		push	{r7, lr}
 642              		.cfi_def_cfa_offset 8
 643              		.cfi_offset 7, -8
 644              		.cfi_offset 14, -4
 645 0002 86B0     		sub	sp, sp, #24
 646              		.cfi_def_cfa_offset 32
 647 0004 00AF     		add	r7, sp, #0
 648              		.cfi_def_cfa_register 7
 649 0006 F860     		str	r0, [r7, #12]
 650 0008 7A60     		str	r2, [r7, #4]
 651 000a 0B23     		movs	r3, #11
 652 000c FB18     		adds	r3, r7, r3
 653 000e 0A1C     		adds	r2, r1, #0
 654 0010 1A70     		strb	r2, [r3]
1015:..\..\..\..\..\..\Software\uCOS-III\Source/os_task.c ****     OS_REG     value;
1016:..\..\..\..\..\..\Software\uCOS-III\Source/os_task.c ****     CPU_SR_ALLOC();
 655              		.loc 1 1016 0
 656 0012 0023     		movs	r3, #0
 657 0014 7B61     		str	r3, [r7, #20]
1017:..\..\..\..\..\..\Software\uCOS-III\Source/os_task.c **** 
1018:..\..\..\..\..\..\Software\uCOS-III\Source/os_task.c **** 
1019:..\..\..\..\..\..\Software\uCOS-III\Source/os_task.c **** 
1020:..\..\..\..\..\..\Software\uCOS-III\Source/os_task.c **** #ifdef OS_SAFETY_CRITICAL
1021:..\..\..\..\..\..\Software\uCOS-III\Source/os_task.c ****     if (p_err == (OS_ERR *)0) {
1022:..\..\..\..\..\..\Software\uCOS-III\Source/os_task.c ****         OS_SAFETY_CRITICAL_EXCEPTION();
1023:..\..\..\..\..\..\Software\uCOS-III\Source/os_task.c ****         return ((OS_REG)0);
1024:..\..\..\..\..\..\Software\uCOS-III\Source/os_task.c ****     }
1025:..\..\..\..\..\..\Software\uCOS-III\Source/os_task.c **** #endif
1026:..\..\..\..\..\..\Software\uCOS-III\Source/os_task.c **** 
1027:..\..\..\..\..\..\Software\uCOS-III\Source/os_task.c **** #if OS_CFG_ARG_CHK_EN > 0u
1028:..\..\..\..\..\..\Software\uCOS-III\Source/os_task.c ****     if (id >= OS_CFG_TASK_REG_TBL_SIZE) {
 658              		.loc 1 1028 0
 659 0016 0B23     		movs	r3, #11
 660 0018 FB18     		adds	r3, r7, r3
 661 001a 1B78     		ldrb	r3, [r3]
 662 001c 002B     		cmp	r3, #0
 663 001e 04D0     		beq	.L42
1029:..\..\..\..\..\..\Software\uCOS-III\Source/os_task.c ****        *p_err = OS_ERR_REG_ID_INVALID;
 664              		.loc 1 1029 0
 665 0020 7B68     		ldr	r3, [r7, #4]
 666 0022 144A     		ldr	r2, .L45
 667 0024 1A80     		strh	r2, [r3]
1030:..\..\..\..\..\..\Software\uCOS-III\Source/os_task.c ****         return ((OS_REG)0);
 668              		.loc 1 1030 0
 669 0026 0023     		movs	r3, #0
 670 0028 1FE0     		b	.L43
 671              	.L42:
1031:..\..\..\..\..\..\Software\uCOS-III\Source/os_task.c ****     }
1032:..\..\..\..\..\..\Software\uCOS-III\Source/os_task.c **** #endif
1033:..\..\..\..\..\..\Software\uCOS-III\Source/os_task.c **** 
1034:..\..\..\..\..\..\Software\uCOS-III\Source/os_task.c ****     CPU_CRITICAL_ENTER();
ARM GAS  C:\Users\EDULU~1.DES\AppData\Local\Temp\ccyhp2HA.s 			page 31


 672              		.loc 1 1034 0
 673 002a FFF7FEFF 		bl	CPU_SR_Save
 674 002e 0300     		movs	r3, r0
 675 0030 7B61     		str	r3, [r7, #20]
 676 0032 FFF7FEFF 		bl	CPU_IntDisMeasStart
1035:..\..\..\..\..\..\Software\uCOS-III\Source/os_task.c ****     if (p_tcb == (OS_TCB *)0) {
 677              		.loc 1 1035 0
 678 0036 FB68     		ldr	r3, [r7, #12]
 679 0038 002B     		cmp	r3, #0
 680 003a 02D1     		bne	.L44
1036:..\..\..\..\..\..\Software\uCOS-III\Source/os_task.c ****         p_tcb = OSTCBCurPtr;
 681              		.loc 1 1036 0
 682 003c 0E4B     		ldr	r3, .L45+4
 683 003e 1B68     		ldr	r3, [r3]
 684 0040 FB60     		str	r3, [r7, #12]
 685              	.L44:
1037:..\..\..\..\..\..\Software\uCOS-III\Source/os_task.c ****     }
1038:..\..\..\..\..\..\Software\uCOS-III\Source/os_task.c ****     value = p_tcb->RegTbl[id];
 686              		.loc 1 1038 0
 687 0042 0B23     		movs	r3, #11
 688 0044 FB18     		adds	r3, r7, r3
 689 0046 1B78     		ldrb	r3, [r3]
 690 0048 FA68     		ldr	r2, [r7, #12]
 691 004a 1633     		adds	r3, r3, #22
 692 004c 9B00     		lsls	r3, r3, #2
 693 004e D318     		adds	r3, r2, r3
 694 0050 0433     		adds	r3, r3, #4
 695 0052 1B68     		ldr	r3, [r3]
 696 0054 3B61     		str	r3, [r7, #16]
1039:..\..\..\..\..\..\Software\uCOS-III\Source/os_task.c ****     CPU_CRITICAL_EXIT();
 697              		.loc 1 1039 0
 698 0056 FFF7FEFF 		bl	CPU_IntDisMeasStop
 699 005a 7B69     		ldr	r3, [r7, #20]
 700 005c 1800     		movs	r0, r3
 701 005e FFF7FEFF 		bl	CPU_SR_Restore
1040:..\..\..\..\..\..\Software\uCOS-III\Source/os_task.c ****    *p_err = OS_ERR_NONE;
 702              		.loc 1 1040 0
 703 0062 7B68     		ldr	r3, [r7, #4]
 704 0064 0022     		movs	r2, #0
 705 0066 1A80     		strh	r2, [r3]
1041:..\..\..\..\..\..\Software\uCOS-III\Source/os_task.c ****     return ((OS_REG)value);
 706              		.loc 1 1041 0
 707 0068 3B69     		ldr	r3, [r7, #16]
 708              	.L43:
1042:..\..\..\..\..\..\Software\uCOS-III\Source/os_task.c **** }
 709              		.loc 1 1042 0
 710 006a 1800     		movs	r0, r3
 711 006c BD46     		mov	sp, r7
 712 006e 06B0     		add	sp, sp, #24
 713              		@ sp needed
 714 0070 80BD     		pop	{r7, pc}
 715              	.L46:
 716 0072 C046     		.align	2
 717              	.L45:
 718 0074 79690000 		.word	27001
 719 0078 00000000 		.word	OSTCBCurPtr
 720              		.cfi_endproc
ARM GAS  C:\Users\EDULU~1.DES\AppData\Local\Temp\ccyhp2HA.s 			page 32


 721              	.LFE3:
 722              		.size	OSTaskRegGet, .-OSTaskRegGet
 723              		.section	.text.OSTaskRegGetID,"ax",%progbits
 724              		.align	2
 725              		.global	OSTaskRegGetID
 726              		.code	16
 727              		.thumb_func
 728              		.type	OSTaskRegGetID, %function
 729              	OSTaskRegGetID:
 730              	.LFB4:
1043:..\..\..\..\..\..\Software\uCOS-III\Source/os_task.c **** #endif
1044:..\..\..\..\..\..\Software\uCOS-III\Source/os_task.c **** 
1045:..\..\..\..\..\..\Software\uCOS-III\Source/os_task.c **** /*$PAGE*/
1046:..\..\..\..\..\..\Software\uCOS-III\Source/os_task.c **** /*
1047:..\..\..\..\..\..\Software\uCOS-III\Source/os_task.c **** ***************************************************************************************************
1048:..\..\..\..\..\..\Software\uCOS-III\Source/os_task.c **** *                                    ALLOCATE THE NEXT AVAILABLE TASK REGISTER ID
1049:..\..\..\..\..\..\Software\uCOS-III\Source/os_task.c **** *
1050:..\..\..\..\..\..\Software\uCOS-III\Source/os_task.c **** * Description: This function is called to obtain a task register ID.  This function thus allows tas
1051:..\..\..\..\..\..\Software\uCOS-III\Source/os_task.c **** *              allocated dynamically instead of statically.
1052:..\..\..\..\..\..\Software\uCOS-III\Source/os_task.c **** *
1053:..\..\..\..\..\..\Software\uCOS-III\Source/os_task.c **** * Arguments  : p_err       is a pointer to a variable that will hold an error code related to this 
1054:..\..\..\..\..\..\Software\uCOS-III\Source/os_task.c **** *
1055:..\..\..\..\..\..\Software\uCOS-III\Source/os_task.c **** *                            OS_ERR_NONE               if the call was successful
1056:..\..\..\..\..\..\Software\uCOS-III\Source/os_task.c **** *                            OS_ERR_NO_MORE_ID_AVAIL   if you are attempting to assign more task re
1057:..\..\..\..\..\..\Software\uCOS-III\Source/os_task.c **** *                                                           have available through OS_CFG_TASK_REG_
1058:..\..\..\..\..\..\Software\uCOS-III\Source/os_task.c **** *
1059:..\..\..\..\..\..\Software\uCOS-III\Source/os_task.c **** * Returns    : The next available task register 'id' or OS_CFG_TASK_REG_TBL_SIZE if an error is det
1060:..\..\..\..\..\..\Software\uCOS-III\Source/os_task.c **** ***************************************************************************************************
1061:..\..\..\..\..\..\Software\uCOS-III\Source/os_task.c **** */
1062:..\..\..\..\..\..\Software\uCOS-III\Source/os_task.c **** 
1063:..\..\..\..\..\..\Software\uCOS-III\Source/os_task.c **** #if OS_CFG_TASK_REG_TBL_SIZE > 0u
1064:..\..\..\..\..\..\Software\uCOS-III\Source/os_task.c **** OS_REG_ID  OSTaskRegGetID (OS_ERR  *p_err)
1065:..\..\..\..\..\..\Software\uCOS-III\Source/os_task.c **** {
 731              		.loc 1 1065 0
 732              		.cfi_startproc
 733              		@ args = 0, pretend = 0, frame = 16
 734              		@ frame_needed = 1, uses_anonymous_args = 0
 735 0000 80B5     		push	{r7, lr}
 736              		.cfi_def_cfa_offset 8
 737              		.cfi_offset 7, -8
 738              		.cfi_offset 14, -4
 739 0002 84B0     		sub	sp, sp, #16
 740              		.cfi_def_cfa_offset 24
 741 0004 00AF     		add	r7, sp, #0
 742              		.cfi_def_cfa_register 7
 743 0006 7860     		str	r0, [r7, #4]
1066:..\..\..\..\..\..\Software\uCOS-III\Source/os_task.c ****     OS_REG_ID  id;
1067:..\..\..\..\..\..\Software\uCOS-III\Source/os_task.c ****     CPU_SR_ALLOC();
 744              		.loc 1 1067 0
 745 0008 0023     		movs	r3, #0
 746 000a FB60     		str	r3, [r7, #12]
1068:..\..\..\..\..\..\Software\uCOS-III\Source/os_task.c **** 
1069:..\..\..\..\..\..\Software\uCOS-III\Source/os_task.c **** 
1070:..\..\..\..\..\..\Software\uCOS-III\Source/os_task.c **** 
1071:..\..\..\..\..\..\Software\uCOS-III\Source/os_task.c **** #ifdef OS_SAFETY_CRITICAL
1072:..\..\..\..\..\..\Software\uCOS-III\Source/os_task.c ****     if (p_err == (OS_ERR *)0) {
1073:..\..\..\..\..\..\Software\uCOS-III\Source/os_task.c ****         OS_SAFETY_CRITICAL_EXCEPTION();
ARM GAS  C:\Users\EDULU~1.DES\AppData\Local\Temp\ccyhp2HA.s 			page 33


1074:..\..\..\..\..\..\Software\uCOS-III\Source/os_task.c ****         return ((OS_REG_ID)OS_CFG_TASK_REG_TBL_SIZE);
1075:..\..\..\..\..\..\Software\uCOS-III\Source/os_task.c ****     }
1076:..\..\..\..\..\..\Software\uCOS-III\Source/os_task.c **** #endif
1077:..\..\..\..\..\..\Software\uCOS-III\Source/os_task.c **** 
1078:..\..\..\..\..\..\Software\uCOS-III\Source/os_task.c ****     CPU_CRITICAL_ENTER();
 747              		.loc 1 1078 0
 748 000c FFF7FEFF 		bl	CPU_SR_Save
 749 0010 0300     		movs	r3, r0
 750 0012 FB60     		str	r3, [r7, #12]
 751 0014 FFF7FEFF 		bl	CPU_IntDisMeasStart
1079:..\..\..\..\..\..\Software\uCOS-III\Source/os_task.c ****     if (OSTaskRegNextAvailID >= OS_CFG_TASK_REG_TBL_SIZE) {       /* See if we exceeded the number 
 752              		.loc 1 1079 0
 753 0018 144B     		ldr	r3, .L50
 754 001a 1B78     		ldrb	r3, [r3]
 755 001c 002B     		cmp	r3, #0
 756 001e 0AD0     		beq	.L48
1080:..\..\..\..\..\..\Software\uCOS-III\Source/os_task.c ****        *p_err = OS_ERR_NO_MORE_ID_AVAIL;                          /* Yes, cannot allocate more task
 757              		.loc 1 1080 0
 758 0020 7B68     		ldr	r3, [r7, #4]
 759 0022 134A     		ldr	r2, .L50+4
 760 0024 1A80     		strh	r2, [r3]
1081:..\..\..\..\..\..\Software\uCOS-III\Source/os_task.c ****         CPU_CRITICAL_EXIT();
 761              		.loc 1 1081 0
 762 0026 FFF7FEFF 		bl	CPU_IntDisMeasStop
 763 002a FB68     		ldr	r3, [r7, #12]
 764 002c 1800     		movs	r0, r3
 765 002e FFF7FEFF 		bl	CPU_SR_Restore
1082:..\..\..\..\..\..\Software\uCOS-III\Source/os_task.c ****         return ((OS_REG_ID)OS_CFG_TASK_REG_TBL_SIZE);
 766              		.loc 1 1082 0
 767 0032 0123     		movs	r3, #1
 768 0034 16E0     		b	.L49
 769              	.L48:
1083:..\..\..\..\..\..\Software\uCOS-III\Source/os_task.c ****     }
1084:..\..\..\..\..\..\Software\uCOS-III\Source/os_task.c ****      
1085:..\..\..\..\..\..\Software\uCOS-III\Source/os_task.c ****     id    = OSTaskRegNextAvailID;								  /* Assign the next available ID                     */
 770              		.loc 1 1085 0
 771 0036 0B23     		movs	r3, #11
 772 0038 FB18     		adds	r3, r7, r3
 773 003a 0C4A     		ldr	r2, .L50
 774 003c 1278     		ldrb	r2, [r2]
 775 003e 1A70     		strb	r2, [r3]
1086:..\..\..\..\..\..\Software\uCOS-III\Source/os_task.c ****     OSTaskRegNextAvailID++;										  /* Increment available ID for next request          */
 776              		.loc 1 1086 0
 777 0040 0A4B     		ldr	r3, .L50
 778 0042 1B78     		ldrb	r3, [r3]
 779 0044 0133     		adds	r3, r3, #1
 780 0046 DAB2     		uxtb	r2, r3
 781 0048 084B     		ldr	r3, .L50
 782 004a 1A70     		strb	r2, [r3]
1087:..\..\..\..\..\..\Software\uCOS-III\Source/os_task.c ****     CPU_CRITICAL_EXIT();
 783              		.loc 1 1087 0
 784 004c FFF7FEFF 		bl	CPU_IntDisMeasStop
 785 0050 FB68     		ldr	r3, [r7, #12]
 786 0052 1800     		movs	r0, r3
 787 0054 FFF7FEFF 		bl	CPU_SR_Restore
1088:..\..\..\..\..\..\Software\uCOS-III\Source/os_task.c ****    *p_err = OS_ERR_NONE;
 788              		.loc 1 1088 0
ARM GAS  C:\Users\EDULU~1.DES\AppData\Local\Temp\ccyhp2HA.s 			page 34


 789 0058 7B68     		ldr	r3, [r7, #4]
 790 005a 0022     		movs	r2, #0
 791 005c 1A80     		strh	r2, [r3]
1089:..\..\..\..\..\..\Software\uCOS-III\Source/os_task.c ****     return (id);
 792              		.loc 1 1089 0
 793 005e 0B23     		movs	r3, #11
 794 0060 FB18     		adds	r3, r7, r3
 795 0062 1B78     		ldrb	r3, [r3]
 796              	.L49:
1090:..\..\..\..\..\..\Software\uCOS-III\Source/os_task.c **** }
 797              		.loc 1 1090 0
 798 0064 1800     		movs	r0, r3
 799 0066 BD46     		mov	sp, r7
 800 0068 04B0     		add	sp, sp, #16
 801              		@ sp needed
 802 006a 80BD     		pop	{r7, pc}
 803              	.L51:
 804              		.align	2
 805              	.L50:
 806 006c 00000000 		.word	OSTaskRegNextAvailID
 807 0070 DA590000 		.word	23002
 808              		.cfi_endproc
 809              	.LFE4:
 810              		.size	OSTaskRegGetID, .-OSTaskRegGetID
 811              		.section	.text.OSTaskRegSet,"ax",%progbits
 812              		.align	2
 813              		.global	OSTaskRegSet
 814              		.code	16
 815              		.thumb_func
 816              		.type	OSTaskRegSet, %function
 817              	OSTaskRegSet:
 818              	.LFB5:
1091:..\..\..\..\..\..\Software\uCOS-III\Source/os_task.c **** #endif
1092:..\..\..\..\..\..\Software\uCOS-III\Source/os_task.c **** 
1093:..\..\..\..\..\..\Software\uCOS-III\Source/os_task.c **** /*$PAGE*/
1094:..\..\..\..\..\..\Software\uCOS-III\Source/os_task.c **** /*
1095:..\..\..\..\..\..\Software\uCOS-III\Source/os_task.c **** ***************************************************************************************************
1096:..\..\..\..\..\..\Software\uCOS-III\Source/os_task.c **** *                                       SET THE CURRENT VALUE OF A TASK REGISTER
1097:..\..\..\..\..\..\Software\uCOS-III\Source/os_task.c **** *
1098:..\..\..\..\..\..\Software\uCOS-III\Source/os_task.c **** * Description: This function is called to change the current value of a task register.  Task regist
1099:..\..\..\..\..\..\Software\uCOS-III\Source/os_task.c **** *              specific and can be used to store task specific values such as 'error numbers' (i.e.
1100:..\..\..\..\..\..\Software\uCOS-III\Source/os_task.c **** *              etc.
1101:..\..\..\..\..\..\Software\uCOS-III\Source/os_task.c **** *
1102:..\..\..\..\..\..\Software\uCOS-III\Source/os_task.c **** * Arguments  : p_tcb     is a pointer to the OS_TCB of the task you want to set the register for.  
1103:..\..\..\..\..\..\Software\uCOS-III\Source/os_task.c **** *                        pointer then you will change the register of the current task.
1104:..\..\..\..\..\..\Software\uCOS-III\Source/os_task.c **** *
1105:..\..\..\..\..\..\Software\uCOS-III\Source/os_task.c **** *              id        is the 'id' of the desired task register.  Note that the 'id' must be less
1106:..\..\..\..\..\..\Software\uCOS-III\Source/os_task.c **** *                        OS_CFG_TASK_REG_TBL_SIZE
1107:..\..\..\..\..\..\Software\uCOS-III\Source/os_task.c **** *
1108:..\..\..\..\..\..\Software\uCOS-III\Source/os_task.c **** *              value     is the desired value for the task register.
1109:..\..\..\..\..\..\Software\uCOS-III\Source/os_task.c **** *
1110:..\..\..\..\..\..\Software\uCOS-III\Source/os_task.c **** *              p_err     is a pointer to a variable that will hold an error code related to this ca
1111:..\..\..\..\..\..\Software\uCOS-III\Source/os_task.c **** *
1112:..\..\..\..\..\..\Software\uCOS-III\Source/os_task.c **** *                            OS_ERR_NONE            if the call was successful
1113:..\..\..\..\..\..\Software\uCOS-III\Source/os_task.c **** *                            OS_ERR_REG_ID_INVALID  if the 'id' is not between 0 and OS_CFG_TASK_RE
1114:..\..\..\..\..\..\Software\uCOS-III\Source/os_task.c **** *
1115:..\..\..\..\..\..\Software\uCOS-III\Source/os_task.c **** * Returns    : none
ARM GAS  C:\Users\EDULU~1.DES\AppData\Local\Temp\ccyhp2HA.s 			page 35


1116:..\..\..\..\..\..\Software\uCOS-III\Source/os_task.c **** ***************************************************************************************************
1117:..\..\..\..\..\..\Software\uCOS-III\Source/os_task.c **** */
1118:..\..\..\..\..\..\Software\uCOS-III\Source/os_task.c **** 
1119:..\..\..\..\..\..\Software\uCOS-III\Source/os_task.c **** #if OS_CFG_TASK_REG_TBL_SIZE > 0u
1120:..\..\..\..\..\..\Software\uCOS-III\Source/os_task.c **** void  OSTaskRegSet (OS_TCB     *p_tcb,
1121:..\..\..\..\..\..\Software\uCOS-III\Source/os_task.c ****                     OS_REG_ID   id,
1122:..\..\..\..\..\..\Software\uCOS-III\Source/os_task.c ****                     OS_REG      value,
1123:..\..\..\..\..\..\Software\uCOS-III\Source/os_task.c ****                     OS_ERR     *p_err)
1124:..\..\..\..\..\..\Software\uCOS-III\Source/os_task.c **** {
 819              		.loc 1 1124 0
 820              		.cfi_startproc
 821              		@ args = 0, pretend = 0, frame = 24
 822              		@ frame_needed = 1, uses_anonymous_args = 0
 823 0000 80B5     		push	{r7, lr}
 824              		.cfi_def_cfa_offset 8
 825              		.cfi_offset 7, -8
 826              		.cfi_offset 14, -4
 827 0002 86B0     		sub	sp, sp, #24
 828              		.cfi_def_cfa_offset 32
 829 0004 00AF     		add	r7, sp, #0
 830              		.cfi_def_cfa_register 7
 831 0006 F860     		str	r0, [r7, #12]
 832 0008 7A60     		str	r2, [r7, #4]
 833 000a 3B60     		str	r3, [r7]
 834 000c 0B23     		movs	r3, #11
 835 000e FB18     		adds	r3, r7, r3
 836 0010 0A1C     		adds	r2, r1, #0
 837 0012 1A70     		strb	r2, [r3]
1125:..\..\..\..\..\..\Software\uCOS-III\Source/os_task.c ****     CPU_SR_ALLOC();
 838              		.loc 1 1125 0
 839 0014 0023     		movs	r3, #0
 840 0016 7B61     		str	r3, [r7, #20]
1126:..\..\..\..\..\..\Software\uCOS-III\Source/os_task.c **** 
1127:..\..\..\..\..\..\Software\uCOS-III\Source/os_task.c **** 
1128:..\..\..\..\..\..\Software\uCOS-III\Source/os_task.c **** 
1129:..\..\..\..\..\..\Software\uCOS-III\Source/os_task.c **** #ifdef OS_SAFETY_CRITICAL
1130:..\..\..\..\..\..\Software\uCOS-III\Source/os_task.c ****     if (p_err == (OS_ERR *)0) {
1131:..\..\..\..\..\..\Software\uCOS-III\Source/os_task.c ****         OS_SAFETY_CRITICAL_EXCEPTION();
1132:..\..\..\..\..\..\Software\uCOS-III\Source/os_task.c ****         return;
1133:..\..\..\..\..\..\Software\uCOS-III\Source/os_task.c ****     }
1134:..\..\..\..\..\..\Software\uCOS-III\Source/os_task.c **** #endif
1135:..\..\..\..\..\..\Software\uCOS-III\Source/os_task.c **** 
1136:..\..\..\..\..\..\Software\uCOS-III\Source/os_task.c **** #if OS_CFG_ARG_CHK_EN > 0u
1137:..\..\..\..\..\..\Software\uCOS-III\Source/os_task.c ****     if (id >= OS_CFG_TASK_REG_TBL_SIZE) {
 841              		.loc 1 1137 0
 842 0018 0B23     		movs	r3, #11
 843 001a FB18     		adds	r3, r7, r3
 844 001c 1B78     		ldrb	r3, [r3]
 845 001e 002B     		cmp	r3, #0
 846 0020 03D0     		beq	.L53
1138:..\..\..\..\..\..\Software\uCOS-III\Source/os_task.c ****        *p_err = OS_ERR_REG_ID_INVALID;
 847              		.loc 1 1138 0
 848 0022 3B68     		ldr	r3, [r7]
 849 0024 124A     		ldr	r2, .L56
 850 0026 1A80     		strh	r2, [r3]
1139:..\..\..\..\..\..\Software\uCOS-III\Source/os_task.c ****         return;
 851              		.loc 1 1139 0
ARM GAS  C:\Users\EDULU~1.DES\AppData\Local\Temp\ccyhp2HA.s 			page 36


 852 0028 1EE0     		b	.L52
 853              	.L53:
1140:..\..\..\..\..\..\Software\uCOS-III\Source/os_task.c ****     }
1141:..\..\..\..\..\..\Software\uCOS-III\Source/os_task.c **** #endif
1142:..\..\..\..\..\..\Software\uCOS-III\Source/os_task.c **** 
1143:..\..\..\..\..\..\Software\uCOS-III\Source/os_task.c ****     CPU_CRITICAL_ENTER();
 854              		.loc 1 1143 0
 855 002a FFF7FEFF 		bl	CPU_SR_Save
 856 002e 0300     		movs	r3, r0
 857 0030 7B61     		str	r3, [r7, #20]
 858 0032 FFF7FEFF 		bl	CPU_IntDisMeasStart
1144:..\..\..\..\..\..\Software\uCOS-III\Source/os_task.c ****     if (p_tcb == (OS_TCB *)0) {
 859              		.loc 1 1144 0
 860 0036 FB68     		ldr	r3, [r7, #12]
 861 0038 002B     		cmp	r3, #0
 862 003a 02D1     		bne	.L55
1145:..\..\..\..\..\..\Software\uCOS-III\Source/os_task.c ****         p_tcb = OSTCBCurPtr;
 863              		.loc 1 1145 0
 864 003c 0D4B     		ldr	r3, .L56+4
 865 003e 1B68     		ldr	r3, [r3]
 866 0040 FB60     		str	r3, [r7, #12]
 867              	.L55:
1146:..\..\..\..\..\..\Software\uCOS-III\Source/os_task.c ****     }
1147:..\..\..\..\..\..\Software\uCOS-III\Source/os_task.c ****     p_tcb->RegTbl[id] = value;
 868              		.loc 1 1147 0
 869 0042 0B23     		movs	r3, #11
 870 0044 FB18     		adds	r3, r7, r3
 871 0046 1B78     		ldrb	r3, [r3]
 872 0048 FA68     		ldr	r2, [r7, #12]
 873 004a 1633     		adds	r3, r3, #22
 874 004c 9B00     		lsls	r3, r3, #2
 875 004e D318     		adds	r3, r2, r3
 876 0050 0433     		adds	r3, r3, #4
 877 0052 7A68     		ldr	r2, [r7, #4]
 878 0054 1A60     		str	r2, [r3]
1148:..\..\..\..\..\..\Software\uCOS-III\Source/os_task.c ****     CPU_CRITICAL_EXIT();
 879              		.loc 1 1148 0
 880 0056 FFF7FEFF 		bl	CPU_IntDisMeasStop
 881 005a 7B69     		ldr	r3, [r7, #20]
 882 005c 1800     		movs	r0, r3
 883 005e FFF7FEFF 		bl	CPU_SR_Restore
1149:..\..\..\..\..\..\Software\uCOS-III\Source/os_task.c ****    *p_err             = OS_ERR_NONE;
 884              		.loc 1 1149 0
 885 0062 3B68     		ldr	r3, [r7]
 886 0064 0022     		movs	r2, #0
 887 0066 1A80     		strh	r2, [r3]
 888              	.L52:
1150:..\..\..\..\..\..\Software\uCOS-III\Source/os_task.c **** }
 889              		.loc 1 1150 0
 890 0068 BD46     		mov	sp, r7
 891 006a 06B0     		add	sp, sp, #24
 892              		@ sp needed
 893 006c 80BD     		pop	{r7, pc}
 894              	.L57:
 895 006e C046     		.align	2
 896              	.L56:
 897 0070 79690000 		.word	27001
ARM GAS  C:\Users\EDULU~1.DES\AppData\Local\Temp\ccyhp2HA.s 			page 37


 898 0074 00000000 		.word	OSTCBCurPtr
 899              		.cfi_endproc
 900              	.LFE5:
 901              		.size	OSTaskRegSet, .-OSTaskRegSet
 902              		.section	.text.OSTaskResume,"ax",%progbits
 903              		.align	2
 904              		.global	OSTaskResume
 905              		.code	16
 906              		.thumb_func
 907              		.type	OSTaskResume, %function
 908              	OSTaskResume:
 909              	.LFB6:
1151:..\..\..\..\..\..\Software\uCOS-III\Source/os_task.c **** #endif
1152:..\..\..\..\..\..\Software\uCOS-III\Source/os_task.c **** 
1153:..\..\..\..\..\..\Software\uCOS-III\Source/os_task.c **** /*$PAGE*/
1154:..\..\..\..\..\..\Software\uCOS-III\Source/os_task.c **** /*
1155:..\..\..\..\..\..\Software\uCOS-III\Source/os_task.c **** ***************************************************************************************************
1156:..\..\..\..\..\..\Software\uCOS-III\Source/os_task.c **** *                                               RESUME A SUSPENDED TASK
1157:..\..\..\..\..\..\Software\uCOS-III\Source/os_task.c **** *
1158:..\..\..\..\..\..\Software\uCOS-III\Source/os_task.c **** * Description: This function is called to resume a previously suspended task.  This is the only cal
1159:..\..\..\..\..\..\Software\uCOS-III\Source/os_task.c **** *              explicit task suspension.
1160:..\..\..\..\..\..\Software\uCOS-III\Source/os_task.c **** *
1161:..\..\..\..\..\..\Software\uCOS-III\Source/os_task.c **** * Arguments  : p_tcb      Is a pointer to the task's OS_TCB to resume
1162:..\..\..\..\..\..\Software\uCOS-III\Source/os_task.c **** *
1163:..\..\..\..\..\..\Software\uCOS-III\Source/os_task.c **** *              p_err      Is a pointer to a variable that will contain an error code returned by th
1164:..\..\..\..\..\..\Software\uCOS-III\Source/os_task.c **** *
1165:..\..\..\..\..\..\Software\uCOS-III\Source/os_task.c **** *                             OS_ERR_NONE                  if the requested task is resumed
1166:..\..\..\..\..\..\Software\uCOS-III\Source/os_task.c **** *                             OS_ERR_STATE_INVALID         if the task is in an invalid state
1167:..\..\..\..\..\..\Software\uCOS-III\Source/os_task.c **** *                             OS_ERR_TASK_RESUME_ISR       if you called this function from an ISR
1168:..\..\..\..\..\..\Software\uCOS-III\Source/os_task.c **** *                             OS_ERR_TASK_RESUME_SELF      You cannot resume 'self'
1169:..\..\..\..\..\..\Software\uCOS-III\Source/os_task.c **** *                             OS_ERR_TASK_NOT_SUSPENDED    if the task to resume has not been suspe
1170:..\..\..\..\..\..\Software\uCOS-III\Source/os_task.c **** *
1171:..\..\..\..\..\..\Software\uCOS-III\Source/os_task.c **** * Returns    : none
1172:..\..\..\..\..\..\Software\uCOS-III\Source/os_task.c **** ***************************************************************************************************
1173:..\..\..\..\..\..\Software\uCOS-III\Source/os_task.c **** */
1174:..\..\..\..\..\..\Software\uCOS-III\Source/os_task.c **** 
1175:..\..\..\..\..\..\Software\uCOS-III\Source/os_task.c **** #if OS_CFG_TASK_SUSPEND_EN > 0u
1176:..\..\..\..\..\..\Software\uCOS-III\Source/os_task.c **** void  OSTaskResume (OS_TCB  *p_tcb,
1177:..\..\..\..\..\..\Software\uCOS-III\Source/os_task.c ****                     OS_ERR  *p_err)
1178:..\..\..\..\..\..\Software\uCOS-III\Source/os_task.c **** {
 910              		.loc 1 1178 0
 911              		.cfi_startproc
 912              		@ args = 0, pretend = 0, frame = 16
 913              		@ frame_needed = 1, uses_anonymous_args = 0
 914 0000 80B5     		push	{r7, lr}
 915              		.cfi_def_cfa_offset 8
 916              		.cfi_offset 7, -8
 917              		.cfi_offset 14, -4
 918 0002 84B0     		sub	sp, sp, #16
 919              		.cfi_def_cfa_offset 24
 920 0004 00AF     		add	r7, sp, #0
 921              		.cfi_def_cfa_register 7
 922 0006 7860     		str	r0, [r7, #4]
 923 0008 3960     		str	r1, [r7]
1179:..\..\..\..\..\..\Software\uCOS-III\Source/os_task.c ****     CPU_SR_ALLOC();
 924              		.loc 1 1179 0
 925 000a 0023     		movs	r3, #0
ARM GAS  C:\Users\EDULU~1.DES\AppData\Local\Temp\ccyhp2HA.s 			page 38


 926 000c FB60     		str	r3, [r7, #12]
1180:..\..\..\..\..\..\Software\uCOS-III\Source/os_task.c **** 
1181:..\..\..\..\..\..\Software\uCOS-III\Source/os_task.c **** 
1182:..\..\..\..\..\..\Software\uCOS-III\Source/os_task.c **** 
1183:..\..\..\..\..\..\Software\uCOS-III\Source/os_task.c **** #ifdef OS_SAFETY_CRITICAL
1184:..\..\..\..\..\..\Software\uCOS-III\Source/os_task.c ****     if (p_err == (OS_ERR *)0) {
1185:..\..\..\..\..\..\Software\uCOS-III\Source/os_task.c ****         OS_SAFETY_CRITICAL_EXCEPTION();
1186:..\..\..\..\..\..\Software\uCOS-III\Source/os_task.c ****         return;
1187:..\..\..\..\..\..\Software\uCOS-III\Source/os_task.c ****     }
1188:..\..\..\..\..\..\Software\uCOS-III\Source/os_task.c **** #endif
1189:..\..\..\..\..\..\Software\uCOS-III\Source/os_task.c **** 
1190:..\..\..\..\..\..\Software\uCOS-III\Source/os_task.c **** #if (OS_CFG_ISR_POST_DEFERRED_EN   == 0u) && \
1191:..\..\..\..\..\..\Software\uCOS-III\Source/os_task.c ****     (OS_CFG_CALLED_FROM_ISR_CHK_EN >  0u)
1192:..\..\..\..\..\..\Software\uCOS-III\Source/os_task.c ****     if (OSIntNestingCtr > (OS_NESTING_CTR)0) {              /* Not allowed to call from an ISR     
 927              		.loc 1 1192 0
 928 000e 174B     		ldr	r3, .L63
 929 0010 1B78     		ldrb	r3, [r3]
 930 0012 002B     		cmp	r3, #0
 931 0014 03D0     		beq	.L59
1193:..\..\..\..\..\..\Software\uCOS-III\Source/os_task.c ****        *p_err = OS_ERR_TASK_RESUME_ISR;
 932              		.loc 1 1193 0
 933 0016 3B68     		ldr	r3, [r7]
 934 0018 154A     		ldr	r2, .L63+4
 935 001a 1A80     		strh	r2, [r3]
1194:..\..\..\..\..\..\Software\uCOS-III\Source/os_task.c ****         return;
 936              		.loc 1 1194 0
 937 001c 23E0     		b	.L58
 938              	.L59:
1195:..\..\..\..\..\..\Software\uCOS-III\Source/os_task.c ****     }
1196:..\..\..\..\..\..\Software\uCOS-III\Source/os_task.c **** #endif
1197:..\..\..\..\..\..\Software\uCOS-III\Source/os_task.c **** 
1198:..\..\..\..\..\..\Software\uCOS-III\Source/os_task.c **** 
1199:..\..\..\..\..\..\Software\uCOS-III\Source/os_task.c ****     CPU_CRITICAL_ENTER();
 939              		.loc 1 1199 0
 940 001e FFF7FEFF 		bl	CPU_SR_Save
 941 0022 0300     		movs	r3, r0
 942 0024 FB60     		str	r3, [r7, #12]
 943 0026 FFF7FEFF 		bl	CPU_IntDisMeasStart
1200:..\..\..\..\..\..\Software\uCOS-III\Source/os_task.c **** #if OS_CFG_ARG_CHK_EN > 0u
1201:..\..\..\..\..\..\Software\uCOS-III\Source/os_task.c ****     if ((p_tcb == (OS_TCB *)0) ||                           /* We cannot resume 'self'             
 944              		.loc 1 1201 0
 945 002a 7B68     		ldr	r3, [r7, #4]
 946 002c 002B     		cmp	r3, #0
 947 002e 04D0     		beq	.L61
1202:..\..\..\..\..\..\Software\uCOS-III\Source/os_task.c ****         (p_tcb == OSTCBCurPtr)) {
 948              		.loc 1 1202 0 discriminator 1
 949 0030 104B     		ldr	r3, .L63+8
 950 0032 1B68     		ldr	r3, [r3]
1201:..\..\..\..\..\..\Software\uCOS-III\Source/os_task.c ****         (p_tcb == OSTCBCurPtr)) {
 951              		.loc 1 1201 0 discriminator 1
 952 0034 7A68     		ldr	r2, [r7, #4]
 953 0036 9A42     		cmp	r2, r3
 954 0038 09D1     		bne	.L62
 955              	.L61:
1203:..\..\..\..\..\..\Software\uCOS-III\Source/os_task.c ****         CPU_CRITICAL_EXIT();
 956              		.loc 1 1203 0
 957 003a FFF7FEFF 		bl	CPU_IntDisMeasStop
ARM GAS  C:\Users\EDULU~1.DES\AppData\Local\Temp\ccyhp2HA.s 			page 39


 958 003e FB68     		ldr	r3, [r7, #12]
 959 0040 1800     		movs	r0, r3
 960 0042 FFF7FEFF 		bl	CPU_SR_Restore
1204:..\..\..\..\..\..\Software\uCOS-III\Source/os_task.c ****        *p_err  = OS_ERR_TASK_RESUME_SELF;
 961              		.loc 1 1204 0
 962 0046 3B68     		ldr	r3, [r7]
 963 0048 0B4A     		ldr	r2, .L63+12
 964 004a 1A80     		strh	r2, [r3]
1205:..\..\..\..\..\..\Software\uCOS-III\Source/os_task.c ****         return;
 965              		.loc 1 1205 0
 966 004c 0BE0     		b	.L58
 967              	.L62:
1206:..\..\..\..\..\..\Software\uCOS-III\Source/os_task.c ****     }
1207:..\..\..\..\..\..\Software\uCOS-III\Source/os_task.c **** #endif
1208:..\..\..\..\..\..\Software\uCOS-III\Source/os_task.c ****     CPU_CRITICAL_EXIT();
 968              		.loc 1 1208 0
 969 004e FFF7FEFF 		bl	CPU_IntDisMeasStop
 970 0052 FB68     		ldr	r3, [r7, #12]
 971 0054 1800     		movs	r0, r3
 972 0056 FFF7FEFF 		bl	CPU_SR_Restore
1209:..\..\..\..\..\..\Software\uCOS-III\Source/os_task.c **** 
1210:..\..\..\..\..\..\Software\uCOS-III\Source/os_task.c **** #if OS_CFG_ISR_POST_DEFERRED_EN > 0u
1211:..\..\..\..\..\..\Software\uCOS-III\Source/os_task.c ****     if (OSIntNestingCtr > (OS_NESTING_CTR)0) {              /* See if called from an ISR           
1212:..\..\..\..\..\..\Software\uCOS-III\Source/os_task.c ****         OS_IntQPost((OS_OBJ_TYPE)OS_OBJ_TYPE_TASK_RESUME,   /* Post to ISR queue                   
1213:..\..\..\..\..\..\Software\uCOS-III\Source/os_task.c ****                     (void      *)p_tcb,
1214:..\..\..\..\..\..\Software\uCOS-III\Source/os_task.c ****                     (void      *)0,
1215:..\..\..\..\..\..\Software\uCOS-III\Source/os_task.c ****                     (OS_MSG_SIZE)0,
1216:..\..\..\..\..\..\Software\uCOS-III\Source/os_task.c ****                     (OS_FLAGS   )0,
1217:..\..\..\..\..\..\Software\uCOS-III\Source/os_task.c ****                     (OS_OPT     )0,
1218:..\..\..\..\..\..\Software\uCOS-III\Source/os_task.c ****                     (CPU_TS     )0,
1219:..\..\..\..\..\..\Software\uCOS-III\Source/os_task.c ****                     (OS_ERR    *)p_err);
1220:..\..\..\..\..\..\Software\uCOS-III\Source/os_task.c ****         return;
1221:..\..\..\..\..\..\Software\uCOS-III\Source/os_task.c ****     }
1222:..\..\..\..\..\..\Software\uCOS-III\Source/os_task.c **** #endif
1223:..\..\..\..\..\..\Software\uCOS-III\Source/os_task.c **** 
1224:..\..\..\..\..\..\Software\uCOS-III\Source/os_task.c ****     OS_TaskResume(p_tcb, p_err);
 973              		.loc 1 1224 0
 974 005a 3A68     		ldr	r2, [r7]
 975 005c 7B68     		ldr	r3, [r7, #4]
 976 005e 1100     		movs	r1, r2
 977 0060 1800     		movs	r0, r3
 978 0062 FFF7FEFF 		bl	OS_TaskResume
 979              	.L58:
1225:..\..\..\..\..\..\Software\uCOS-III\Source/os_task.c **** }
 980              		.loc 1 1225 0
 981 0066 BD46     		mov	sp, r7
 982 0068 04B0     		add	sp, sp, #16
 983              		@ sp needed
 984 006a 80BD     		pop	{r7, pc}
 985              	.L64:
 986              		.align	2
 987              	.L63:
 988 006c 00000000 		.word	OSIntNestingCtr
 989 0070 55710000 		.word	29013
 990 0074 00000000 		.word	OSTCBCurPtr
 991 0078 57710000 		.word	29015
 992              		.cfi_endproc
ARM GAS  C:\Users\EDULU~1.DES\AppData\Local\Temp\ccyhp2HA.s 			page 40


 993              	.LFE6:
 994              		.size	OSTaskResume, .-OSTaskResume
 995              		.section	.text.OSTaskSemPend,"ax",%progbits
 996              		.align	2
 997              		.global	OSTaskSemPend
 998              		.code	16
 999              		.thumb_func
 1000              		.type	OSTaskSemPend, %function
 1001              	OSTaskSemPend:
 1002              	.LFB7:
1226:..\..\..\..\..\..\Software\uCOS-III\Source/os_task.c **** #endif
1227:..\..\..\..\..\..\Software\uCOS-III\Source/os_task.c **** 
1228:..\..\..\..\..\..\Software\uCOS-III\Source/os_task.c **** /*$PAGE*/
1229:..\..\..\..\..\..\Software\uCOS-III\Source/os_task.c **** /*
1230:..\..\..\..\..\..\Software\uCOS-III\Source/os_task.c **** ***************************************************************************************************
1231:..\..\..\..\..\..\Software\uCOS-III\Source/os_task.c **** *                                              WAIT FOR A TASK SEMAPHORE
1232:..\..\..\..\..\..\Software\uCOS-III\Source/os_task.c **** *
1233:..\..\..\..\..\..\Software\uCOS-III\Source/os_task.c **** * Description: This function is called to block the current task until a signal is sent by another 
1234:..\..\..\..\..\..\Software\uCOS-III\Source/os_task.c **** *
1235:..\..\..\..\..\..\Software\uCOS-III\Source/os_task.c **** * Arguments  : timeout       is the amount of time you are will to wait for the signal
1236:..\..\..\..\..\..\Software\uCOS-III\Source/os_task.c **** *
1237:..\..\..\..\..\..\Software\uCOS-III\Source/os_task.c **** *              opt           determines whether the user wants to block if a semaphore post was not
1238:..\..\..\..\..\..\Software\uCOS-III\Source/os_task.c **** *
1239:..\..\..\..\..\..\Software\uCOS-III\Source/os_task.c **** *                                OS_OPT_PEND_BLOCKING
1240:..\..\..\..\..\..\Software\uCOS-III\Source/os_task.c **** *                                OS_OPT_PEND_NON_BLOCKING
1241:..\..\..\..\..\..\Software\uCOS-III\Source/os_task.c **** *
1242:..\..\..\..\..\..\Software\uCOS-III\Source/os_task.c **** *              p_ts          is a pointer to a variable that will receive the timestamp of when the
1243:..\..\..\..\..\..\Software\uCOS-III\Source/os_task.c **** *                            or pend aborted.  If you pass a NULL pointer (i.e. (CPU_TS *)0) then y
1244:..\..\..\..\..\..\Software\uCOS-III\Source/os_task.c **** *                            timestamp.  In other words, passing a NULL pointer is valid and indica
1245:..\..\..\..\..\..\Software\uCOS-III\Source/os_task.c **** *                            need the timestamp.
1246:..\..\..\..\..\..\Software\uCOS-III\Source/os_task.c **** *
1247:..\..\..\..\..\..\Software\uCOS-III\Source/os_task.c **** *              p_err         is a pointer to an error code that will be set by this function
1248:..\..\..\..\..\..\Software\uCOS-III\Source/os_task.c **** *
1249:..\..\..\..\..\..\Software\uCOS-III\Source/os_task.c **** *                                OS_ERR_NONE               The call was successful and your task re
1250:..\..\..\..\..\..\Software\uCOS-III\Source/os_task.c **** *                                OS_ERR_PEND_ABORT
1251:..\..\..\..\..\..\Software\uCOS-III\Source/os_task.c **** *                                OS_ERR_PEND_ISR           If you called this function from an ISR 
1252:..\..\..\..\..\..\Software\uCOS-III\Source/os_task.c **** *                                OS_ERR_PEND_WOULD_BLOCK   If you specified non-blocking but no sig
1253:..\..\..\..\..\..\Software\uCOS-III\Source/os_task.c **** *                                OS_ERR_SCHED_LOCKED       If the scheduler is locked
1254:..\..\..\..\..\..\Software\uCOS-III\Source/os_task.c **** *                                OS_ERR_STATUS_INVALID     If the pend status is invalid
1255:..\..\..\..\..\..\Software\uCOS-III\Source/os_task.c **** *                                OS_ERR_TIMEOUT            A message was not received within the sp
1256:..\..\..\..\..\..\Software\uCOS-III\Source/os_task.c **** *                                                          would lead to a suspension.
1257:..\..\..\..\..\..\Software\uCOS-III\Source/os_task.c **** *
1258:..\..\..\..\..\..\Software\uCOS-III\Source/os_task.c **** * Returns    : The current count of signals the task received, 0 if none.
1259:..\..\..\..\..\..\Software\uCOS-III\Source/os_task.c **** ***************************************************************************************************
1260:..\..\..\..\..\..\Software\uCOS-III\Source/os_task.c **** */
1261:..\..\..\..\..\..\Software\uCOS-III\Source/os_task.c **** 
1262:..\..\..\..\..\..\Software\uCOS-III\Source/os_task.c **** OS_SEM_CTR  OSTaskSemPend (OS_TICK   timeout,
1263:..\..\..\..\..\..\Software\uCOS-III\Source/os_task.c ****                            OS_OPT    opt,
1264:..\..\..\..\..\..\Software\uCOS-III\Source/os_task.c ****                            CPU_TS   *p_ts,
1265:..\..\..\..\..\..\Software\uCOS-III\Source/os_task.c ****                            OS_ERR   *p_err)
1266:..\..\..\..\..\..\Software\uCOS-III\Source/os_task.c **** {
 1003              		.loc 1 1266 0
 1004              		.cfi_startproc
 1005              		@ args = 0, pretend = 0, frame = 24
 1006              		@ frame_needed = 1, uses_anonymous_args = 0
 1007 0000 80B5     		push	{r7, lr}
 1008              		.cfi_def_cfa_offset 8
ARM GAS  C:\Users\EDULU~1.DES\AppData\Local\Temp\ccyhp2HA.s 			page 41


 1009              		.cfi_offset 7, -8
 1010              		.cfi_offset 14, -4
 1011 0002 86B0     		sub	sp, sp, #24
 1012              		.cfi_def_cfa_offset 32
 1013 0004 00AF     		add	r7, sp, #0
 1014              		.cfi_def_cfa_register 7
 1015 0006 F860     		str	r0, [r7, #12]
 1016 0008 7A60     		str	r2, [r7, #4]
 1017 000a 3B60     		str	r3, [r7]
 1018 000c 0A23     		movs	r3, #10
 1019 000e FB18     		adds	r3, r7, r3
 1020 0010 0A1C     		adds	r2, r1, #0
 1021 0012 1A80     		strh	r2, [r3]
1267:..\..\..\..\..\..\Software\uCOS-III\Source/os_task.c ****     OS_SEM_CTR    ctr;
1268:..\..\..\..\..\..\Software\uCOS-III\Source/os_task.c ****     CPU_SR_ALLOC();
 1022              		.loc 1 1268 0
 1023 0014 0023     		movs	r3, #0
 1024 0016 7B61     		str	r3, [r7, #20]
1269:..\..\..\..\..\..\Software\uCOS-III\Source/os_task.c **** 
1270:..\..\..\..\..\..\Software\uCOS-III\Source/os_task.c **** 
1271:..\..\..\..\..\..\Software\uCOS-III\Source/os_task.c **** 
1272:..\..\..\..\..\..\Software\uCOS-III\Source/os_task.c **** #ifdef OS_SAFETY_CRITICAL
1273:..\..\..\..\..\..\Software\uCOS-III\Source/os_task.c ****     if (p_err == (OS_ERR *)0) {
1274:..\..\..\..\..\..\Software\uCOS-III\Source/os_task.c ****         OS_SAFETY_CRITICAL_EXCEPTION();
1275:..\..\..\..\..\..\Software\uCOS-III\Source/os_task.c ****         return ((OS_SEM_CTR)0);
1276:..\..\..\..\..\..\Software\uCOS-III\Source/os_task.c ****     }
1277:..\..\..\..\..\..\Software\uCOS-III\Source/os_task.c **** #endif
1278:..\..\..\..\..\..\Software\uCOS-III\Source/os_task.c **** 
1279:..\..\..\..\..\..\Software\uCOS-III\Source/os_task.c **** #if OS_CFG_CALLED_FROM_ISR_CHK_EN > 0u
1280:..\..\..\..\..\..\Software\uCOS-III\Source/os_task.c ****     if (OSIntNestingCtr > (OS_NESTING_CTR)0) {              /* Not allowed to call from an ISR     
 1025              		.loc 1 1280 0
 1026 0018 5B4B     		ldr	r3, .L86
 1027 001a 1B78     		ldrb	r3, [r3]
 1028 001c 002B     		cmp	r3, #0
 1029 001e 04D0     		beq	.L66
1281:..\..\..\..\..\..\Software\uCOS-III\Source/os_task.c ****        *p_err = OS_ERR_PEND_ISR;
 1030              		.loc 1 1281 0
 1031 0020 3B68     		ldr	r3, [r7]
 1032 0022 5A4A     		ldr	r2, .L86+4
 1033 0024 1A80     		strh	r2, [r3]
1282:..\..\..\..\..\..\Software\uCOS-III\Source/os_task.c ****         return ((OS_SEM_CTR)0);
 1034              		.loc 1 1282 0
 1035 0026 0023     		movs	r3, #0
 1036 0028 AAE0     		b	.L67
 1037              	.L66:
1283:..\..\..\..\..\..\Software\uCOS-III\Source/os_task.c ****     }
1284:..\..\..\..\..\..\Software\uCOS-III\Source/os_task.c **** #endif
1285:..\..\..\..\..\..\Software\uCOS-III\Source/os_task.c **** 
1286:..\..\..\..\..\..\Software\uCOS-III\Source/os_task.c **** #if OS_CFG_ARG_CHK_EN > 0u
1287:..\..\..\..\..\..\Software\uCOS-III\Source/os_task.c ****     switch (opt) {                                          /* Validate 'opt'                      
 1038              		.loc 1 1287 0
 1039 002a 0A23     		movs	r3, #10
 1040 002c FB18     		adds	r3, r7, r3
 1041 002e 1B88     		ldrh	r3, [r3]
 1042 0030 002B     		cmp	r3, #0
 1043 0032 08D0     		beq	.L85
 1044 0034 8022     		movs	r2, #128
ARM GAS  C:\Users\EDULU~1.DES\AppData\Local\Temp\ccyhp2HA.s 			page 42


 1045 0036 1202     		lsls	r2, r2, #8
 1046 0038 9342     		cmp	r3, r2
 1047 003a 04D0     		beq	.L85
1288:..\..\..\..\..\..\Software\uCOS-III\Source/os_task.c ****         case OS_OPT_PEND_BLOCKING:
1289:..\..\..\..\..\..\Software\uCOS-III\Source/os_task.c ****         case OS_OPT_PEND_NON_BLOCKING:
1290:..\..\..\..\..\..\Software\uCOS-III\Source/os_task.c ****              break;
1291:..\..\..\..\..\..\Software\uCOS-III\Source/os_task.c **** 
1292:..\..\..\..\..\..\Software\uCOS-III\Source/os_task.c ****         default:
1293:..\..\..\..\..\..\Software\uCOS-III\Source/os_task.c ****             *p_err = OS_ERR_OPT_INVALID;
 1048              		.loc 1 1293 0
 1049 003c 3B68     		ldr	r3, [r7]
 1050 003e 544A     		ldr	r2, .L86+8
 1051 0040 1A80     		strh	r2, [r3]
1294:..\..\..\..\..\..\Software\uCOS-III\Source/os_task.c ****              return ((OS_SEM_CTR)0);
 1052              		.loc 1 1294 0
 1053 0042 0023     		movs	r3, #0
 1054 0044 9CE0     		b	.L67
 1055              	.L85:
1290:..\..\..\..\..\..\Software\uCOS-III\Source/os_task.c **** 
 1056              		.loc 1 1290 0
 1057 0046 C046     		nop
1295:..\..\..\..\..\..\Software\uCOS-III\Source/os_task.c ****     }
1296:..\..\..\..\..\..\Software\uCOS-III\Source/os_task.c **** #endif
1297:..\..\..\..\..\..\Software\uCOS-III\Source/os_task.c **** 
1298:..\..\..\..\..\..\Software\uCOS-III\Source/os_task.c ****     if (p_ts != (CPU_TS *)0) {
 1058              		.loc 1 1298 0
 1059 0048 7B68     		ldr	r3, [r7, #4]
 1060 004a 002B     		cmp	r3, #0
 1061 004c 02D0     		beq	.L71
1299:..\..\..\..\..\..\Software\uCOS-III\Source/os_task.c ****        *p_ts  = (CPU_TS  )0;                                /* Initialize the returned timestamp   
 1062              		.loc 1 1299 0
 1063 004e 7B68     		ldr	r3, [r7, #4]
 1064 0050 0022     		movs	r2, #0
 1065 0052 1A60     		str	r2, [r3]
 1066              	.L71:
1300:..\..\..\..\..\..\Software\uCOS-III\Source/os_task.c ****     }
1301:..\..\..\..\..\..\Software\uCOS-III\Source/os_task.c **** 
1302:..\..\..\..\..\..\Software\uCOS-III\Source/os_task.c ****     CPU_CRITICAL_ENTER();
 1067              		.loc 1 1302 0
 1068 0054 FFF7FEFF 		bl	CPU_SR_Save
 1069 0058 0300     		movs	r3, r0
 1070 005a 7B61     		str	r3, [r7, #20]
 1071 005c FFF7FEFF 		bl	CPU_IntDisMeasStart
1303:..\..\..\..\..\..\Software\uCOS-III\Source/os_task.c ****     if (OSTCBCurPtr->SemCtr > (OS_SEM_CTR)0) {              /* See if task already been signaled   
 1072              		.loc 1 1303 0
 1073 0060 4C4B     		ldr	r3, .L86+12
 1074 0062 1B68     		ldr	r3, [r3]
 1075 0064 5B6C     		ldr	r3, [r3, #68]
 1076 0066 002B     		cmp	r3, #0
 1077 0068 1BD0     		beq	.L72
1304:..\..\..\..\..\..\Software\uCOS-III\Source/os_task.c ****         OSTCBCurPtr->SemCtr--;
 1078              		.loc 1 1304 0
 1079 006a 4A4B     		ldr	r3, .L86+12
 1080 006c 1B68     		ldr	r3, [r3]
 1081 006e 5A6C     		ldr	r2, [r3, #68]
 1082 0070 013A     		subs	r2, r2, #1
 1083 0072 5A64     		str	r2, [r3, #68]
ARM GAS  C:\Users\EDULU~1.DES\AppData\Local\Temp\ccyhp2HA.s 			page 43


1305:..\..\..\..\..\..\Software\uCOS-III\Source/os_task.c ****         ctr    = OSTCBCurPtr->SemCtr;
 1084              		.loc 1 1305 0
 1085 0074 474B     		ldr	r3, .L86+12
 1086 0076 1B68     		ldr	r3, [r3]
 1087 0078 5B6C     		ldr	r3, [r3, #68]
 1088 007a 3B61     		str	r3, [r7, #16]
1306:..\..\..\..\..\..\Software\uCOS-III\Source/os_task.c ****         if (p_ts != (CPU_TS *)0) {
 1089              		.loc 1 1306 0
 1090 007c 7B68     		ldr	r3, [r7, #4]
 1091 007e 002B     		cmp	r3, #0
 1092 0080 04D0     		beq	.L73
1307:..\..\..\..\..\..\Software\uCOS-III\Source/os_task.c ****            *p_ts  = OSTCBCurPtr->TS;
 1093              		.loc 1 1307 0
 1094 0082 444B     		ldr	r3, .L86+12
 1095 0084 1B68     		ldr	r3, [r3]
 1096 0086 1A6C     		ldr	r2, [r3, #64]
 1097 0088 7B68     		ldr	r3, [r7, #4]
 1098 008a 1A60     		str	r2, [r3]
 1099              	.L73:
1308:..\..\..\..\..\..\Software\uCOS-III\Source/os_task.c ****         }
1309:..\..\..\..\..\..\Software\uCOS-III\Source/os_task.c **** #if OS_CFG_TASK_PROFILE_EN > 0u
1310:..\..\..\..\..\..\Software\uCOS-III\Source/os_task.c ****         OSTCBCurPtr->SemPendTime = OS_TS_GET() - OSTCBCurPtr->TS;
1311:..\..\..\..\..\..\Software\uCOS-III\Source/os_task.c ****         if (OSTCBCurPtr->SemPendTimeMax < OSTCBCurPtr->SemPendTime) {
1312:..\..\..\..\..\..\Software\uCOS-III\Source/os_task.c ****             OSTCBCurPtr->SemPendTimeMax = OSTCBCurPtr->SemPendTime;
1313:..\..\..\..\..\..\Software\uCOS-III\Source/os_task.c ****         }
1314:..\..\..\..\..\..\Software\uCOS-III\Source/os_task.c **** #endif
1315:..\..\..\..\..\..\Software\uCOS-III\Source/os_task.c ****         CPU_CRITICAL_EXIT();
 1100              		.loc 1 1315 0
 1101 008c FFF7FEFF 		bl	CPU_IntDisMeasStop
 1102 0090 7B69     		ldr	r3, [r7, #20]
 1103 0092 1800     		movs	r0, r3
 1104 0094 FFF7FEFF 		bl	CPU_SR_Restore
1316:..\..\..\..\..\..\Software\uCOS-III\Source/os_task.c ****        *p_err = OS_ERR_NONE;
 1105              		.loc 1 1316 0
 1106 0098 3B68     		ldr	r3, [r7]
 1107 009a 0022     		movs	r2, #0
 1108 009c 1A80     		strh	r2, [r3]
1317:..\..\..\..\..\..\Software\uCOS-III\Source/os_task.c ****         return (ctr);
 1109              		.loc 1 1317 0
 1110 009e 3B69     		ldr	r3, [r7, #16]
 1111 00a0 6EE0     		b	.L67
 1112              	.L72:
1318:..\..\..\..\..\..\Software\uCOS-III\Source/os_task.c ****     }
1319:..\..\..\..\..\..\Software\uCOS-III\Source/os_task.c **** 
1320:..\..\..\..\..\..\Software\uCOS-III\Source/os_task.c ****     if ((opt & OS_OPT_PEND_NON_BLOCKING) != (OS_OPT)0) {    /* Caller wants to block if not availab
 1113              		.loc 1 1320 0
 1114 00a2 0A23     		movs	r3, #10
 1115 00a4 FB18     		adds	r3, r7, r3
 1116 00a6 0022     		movs	r2, #0
 1117 00a8 9B5E     		ldrsh	r3, [r3, r2]
 1118 00aa 002B     		cmp	r3, #0
 1119 00ac 0ADA     		bge	.L74
1321:..\..\..\..\..\..\Software\uCOS-III\Source/os_task.c ****         CPU_CRITICAL_EXIT();
 1120              		.loc 1 1321 0
 1121 00ae FFF7FEFF 		bl	CPU_IntDisMeasStop
 1122 00b2 7B69     		ldr	r3, [r7, #20]
 1123 00b4 1800     		movs	r0, r3
ARM GAS  C:\Users\EDULU~1.DES\AppData\Local\Temp\ccyhp2HA.s 			page 44


 1124 00b6 FFF7FEFF 		bl	CPU_SR_Restore
1322:..\..\..\..\..\..\Software\uCOS-III\Source/os_task.c ****        *p_err = OS_ERR_PEND_WOULD_BLOCK;                    /* No                                  
 1125              		.loc 1 1322 0
 1126 00ba 3B68     		ldr	r3, [r7]
 1127 00bc 364A     		ldr	r2, .L86+16
 1128 00be 1A80     		strh	r2, [r3]
1323:..\..\..\..\..\..\Software\uCOS-III\Source/os_task.c ****         return ((OS_SEM_CTR)0);
 1129              		.loc 1 1323 0
 1130 00c0 0023     		movs	r3, #0
 1131 00c2 5DE0     		b	.L67
 1132              	.L74:
1324:..\..\..\..\..\..\Software\uCOS-III\Source/os_task.c ****     } else {                                                /* Yes                                 
1325:..\..\..\..\..\..\Software\uCOS-III\Source/os_task.c ****         if (OSSchedLockNestingCtr > (OS_NESTING_CTR)0) {    /* Can't pend when the scheduler is loc
 1133              		.loc 1 1325 0
 1134 00c4 354B     		ldr	r3, .L86+20
 1135 00c6 1B78     		ldrb	r3, [r3]
 1136 00c8 002B     		cmp	r3, #0
 1137 00ca 0AD0     		beq	.L75
1326:..\..\..\..\..\..\Software\uCOS-III\Source/os_task.c ****             CPU_CRITICAL_EXIT();
 1138              		.loc 1 1326 0
 1139 00cc FFF7FEFF 		bl	CPU_IntDisMeasStop
 1140 00d0 7B69     		ldr	r3, [r7, #20]
 1141 00d2 1800     		movs	r0, r3
 1142 00d4 FFF7FEFF 		bl	CPU_SR_Restore
1327:..\..\..\..\..\..\Software\uCOS-III\Source/os_task.c ****            *p_err = OS_ERR_SCHED_LOCKED;
 1143              		.loc 1 1327 0
 1144 00d8 3B68     		ldr	r3, [r7]
 1145 00da 314A     		ldr	r2, .L86+24
 1146 00dc 1A80     		strh	r2, [r3]
1328:..\..\..\..\..\..\Software\uCOS-III\Source/os_task.c ****             return ((OS_SEM_CTR)0);
 1147              		.loc 1 1328 0
 1148 00de 0023     		movs	r3, #0
 1149 00e0 4EE0     		b	.L67
 1150              	.L75:
1329:..\..\..\..\..\..\Software\uCOS-III\Source/os_task.c ****         }
1330:..\..\..\..\..\..\Software\uCOS-III\Source/os_task.c ****     }
1331:..\..\..\..\..\..\Software\uCOS-III\Source/os_task.c ****                                                             /* Lock the scheduler/re-enable interru
1332:..\..\..\..\..\..\Software\uCOS-III\Source/os_task.c ****     OS_CRITICAL_ENTER_CPU_EXIT();                           
1333:..\..\..\..\..\..\Software\uCOS-III\Source/os_task.c ****     OS_Pend((OS_PEND_DATA *)0,                              /* Block task pending on Signal        
 1151              		.loc 1 1333 0
 1152 00e2 FB68     		ldr	r3, [r7, #12]
 1153 00e4 0722     		movs	r2, #7
 1154 00e6 0021     		movs	r1, #0
 1155 00e8 0020     		movs	r0, #0
 1156 00ea FFF7FEFF 		bl	OS_Pend
1334:..\..\..\..\..\..\Software\uCOS-III\Source/os_task.c ****             (OS_PEND_OBJ  *)0,
1335:..\..\..\..\..\..\Software\uCOS-III\Source/os_task.c ****             (OS_STATE      )OS_TASK_PEND_ON_TASK_SEM,
1336:..\..\..\..\..\..\Software\uCOS-III\Source/os_task.c ****             (OS_TICK       )timeout);
1337:..\..\..\..\..\..\Software\uCOS-III\Source/os_task.c ****     OS_CRITICAL_EXIT_NO_SCHED();
 1157              		.loc 1 1337 0
 1158 00ee FFF7FEFF 		bl	CPU_IntDisMeasStop
 1159 00f2 7B69     		ldr	r3, [r7, #20]
 1160 00f4 1800     		movs	r0, r3
 1161 00f6 FFF7FEFF 		bl	CPU_SR_Restore
1338:..\..\..\..\..\..\Software\uCOS-III\Source/os_task.c **** 
1339:..\..\..\..\..\..\Software\uCOS-III\Source/os_task.c ****     OSSched();                                              /* Find next highest priority task read
 1162              		.loc 1 1339 0
ARM GAS  C:\Users\EDULU~1.DES\AppData\Local\Temp\ccyhp2HA.s 			page 45


 1163 00fa FFF7FEFF 		bl	OSSched
1340:..\..\..\..\..\..\Software\uCOS-III\Source/os_task.c **** 
1341:..\..\..\..\..\..\Software\uCOS-III\Source/os_task.c ****     CPU_CRITICAL_ENTER();
 1164              		.loc 1 1341 0
 1165 00fe FFF7FEFF 		bl	CPU_SR_Save
 1166 0102 0300     		movs	r3, r0
 1167 0104 7B61     		str	r3, [r7, #20]
 1168 0106 FFF7FEFF 		bl	CPU_IntDisMeasStart
1342:..\..\..\..\..\..\Software\uCOS-III\Source/os_task.c ****     switch (OSTCBCurPtr->PendStatus) {                      /* See if we timed-out or aborted      
 1169              		.loc 1 1342 0
 1170 010a 224B     		ldr	r3, .L86+12
 1171 010c 1B68     		ldr	r3, [r3]
 1172 010e 3522     		movs	r2, #53
 1173 0110 9B5C     		ldrb	r3, [r3, r2]
 1174 0112 012B     		cmp	r3, #1
 1175 0114 0FD0     		beq	.L77
 1176 0116 032B     		cmp	r3, #3
 1177 0118 19D0     		beq	.L78
 1178 011a 002B     		cmp	r3, #0
 1179 011c 21D1     		bne	.L84
1343:..\..\..\..\..\..\Software\uCOS-III\Source/os_task.c ****         case OS_STATUS_PEND_OK:
1344:..\..\..\..\..\..\Software\uCOS-III\Source/os_task.c ****              if (p_ts != (CPU_TS *)0) {
 1180              		.loc 1 1344 0
 1181 011e 7B68     		ldr	r3, [r7, #4]
 1182 0120 002B     		cmp	r3, #0
 1183 0122 04D0     		beq	.L80
1345:..\..\..\..\..\..\Software\uCOS-III\Source/os_task.c ****                 *p_ts                    =  OSTCBCurPtr->TS;
 1184              		.loc 1 1345 0
 1185 0124 1B4B     		ldr	r3, .L86+12
 1186 0126 1B68     		ldr	r3, [r3]
 1187 0128 1A6C     		ldr	r2, [r3, #64]
 1188 012a 7B68     		ldr	r3, [r7, #4]
 1189 012c 1A60     		str	r2, [r3]
 1190              	.L80:
1346:..\..\..\..\..\..\Software\uCOS-III\Source/os_task.c **** #if OS_CFG_TASK_PROFILE_EN > 0u
1347:..\..\..\..\..\..\Software\uCOS-III\Source/os_task.c ****                 OSTCBCurPtr->SemPendTime = OS_TS_GET() - OSTCBCurPtr->TS;
1348:..\..\..\..\..\..\Software\uCOS-III\Source/os_task.c ****                 if (OSTCBCurPtr->SemPendTimeMax < OSTCBCurPtr->SemPendTime) {
1349:..\..\..\..\..\..\Software\uCOS-III\Source/os_task.c ****                     OSTCBCurPtr->SemPendTimeMax = OSTCBCurPtr->SemPendTime;
1350:..\..\..\..\..\..\Software\uCOS-III\Source/os_task.c ****                 }
1351:..\..\..\..\..\..\Software\uCOS-III\Source/os_task.c **** #endif
1352:..\..\..\..\..\..\Software\uCOS-III\Source/os_task.c ****              }
1353:..\..\..\..\..\..\Software\uCOS-III\Source/os_task.c ****             *p_err = OS_ERR_NONE;
 1191              		.loc 1 1353 0
 1192 012e 3B68     		ldr	r3, [r7]
 1193 0130 0022     		movs	r2, #0
 1194 0132 1A80     		strh	r2, [r3]
1354:..\..\..\..\..\..\Software\uCOS-III\Source/os_task.c ****              break;
 1195              		.loc 1 1354 0
 1196 0134 19E0     		b	.L81
 1197              	.L77:
1355:..\..\..\..\..\..\Software\uCOS-III\Source/os_task.c **** 
1356:..\..\..\..\..\..\Software\uCOS-III\Source/os_task.c ****         case OS_STATUS_PEND_ABORT:
1357:..\..\..\..\..\..\Software\uCOS-III\Source/os_task.c ****              if (p_ts != (CPU_TS *)0) {
 1198              		.loc 1 1357 0
 1199 0136 7B68     		ldr	r3, [r7, #4]
 1200 0138 002B     		cmp	r3, #0
 1201 013a 04D0     		beq	.L82
ARM GAS  C:\Users\EDULU~1.DES\AppData\Local\Temp\ccyhp2HA.s 			page 46


1358:..\..\..\..\..\..\Software\uCOS-III\Source/os_task.c ****                 *p_ts  =  OSTCBCurPtr->TS;
 1202              		.loc 1 1358 0
 1203 013c 154B     		ldr	r3, .L86+12
 1204 013e 1B68     		ldr	r3, [r3]
 1205 0140 1A6C     		ldr	r2, [r3, #64]
 1206 0142 7B68     		ldr	r3, [r7, #4]
 1207 0144 1A60     		str	r2, [r3]
 1208              	.L82:
1359:..\..\..\..\..\..\Software\uCOS-III\Source/os_task.c ****              }
1360:..\..\..\..\..\..\Software\uCOS-III\Source/os_task.c ****             *p_err = OS_ERR_PEND_ABORT;                     /* Indicate that we aborted            
 1209              		.loc 1 1360 0
 1210 0146 3B68     		ldr	r3, [r7]
 1211 0148 164A     		ldr	r2, .L86+28
 1212 014a 1A80     		strh	r2, [r3]
1361:..\..\..\..\..\..\Software\uCOS-III\Source/os_task.c ****              break;
 1213              		.loc 1 1361 0
 1214 014c 0DE0     		b	.L81
 1215              	.L78:
1362:..\..\..\..\..\..\Software\uCOS-III\Source/os_task.c **** 
1363:..\..\..\..\..\..\Software\uCOS-III\Source/os_task.c ****         case OS_STATUS_PEND_TIMEOUT:
1364:..\..\..\..\..\..\Software\uCOS-III\Source/os_task.c ****              if (p_ts != (CPU_TS *)0) {
 1216              		.loc 1 1364 0
 1217 014e 7B68     		ldr	r3, [r7, #4]
 1218 0150 002B     		cmp	r3, #0
 1219 0152 02D0     		beq	.L83
1365:..\..\..\..\..\..\Software\uCOS-III\Source/os_task.c ****                 *p_ts  = (CPU_TS  )0;
 1220              		.loc 1 1365 0
 1221 0154 7B68     		ldr	r3, [r7, #4]
 1222 0156 0022     		movs	r2, #0
 1223 0158 1A60     		str	r2, [r3]
 1224              	.L83:
1366:..\..\..\..\..\..\Software\uCOS-III\Source/os_task.c ****              }
1367:..\..\..\..\..\..\Software\uCOS-III\Source/os_task.c ****             *p_err = OS_ERR_TIMEOUT;                        /* Indicate that we didn't get event wi
 1225              		.loc 1 1367 0
 1226 015a 3B68     		ldr	r3, [r7]
 1227 015c 124A     		ldr	r2, .L86+32
 1228 015e 1A80     		strh	r2, [r3]
1368:..\..\..\..\..\..\Software\uCOS-III\Source/os_task.c ****              break;
 1229              		.loc 1 1368 0
 1230 0160 03E0     		b	.L81
 1231              	.L84:
1369:..\..\..\..\..\..\Software\uCOS-III\Source/os_task.c **** 
1370:..\..\..\..\..\..\Software\uCOS-III\Source/os_task.c ****         default:
1371:..\..\..\..\..\..\Software\uCOS-III\Source/os_task.c ****             *p_err = OS_ERR_STATUS_INVALID;
 1232              		.loc 1 1371 0
 1233 0162 3B68     		ldr	r3, [r7]
 1234 0164 114A     		ldr	r2, .L86+36
 1235 0166 1A80     		strh	r2, [r3]
1372:..\..\..\..\..\..\Software\uCOS-III\Source/os_task.c ****              break;
 1236              		.loc 1 1372 0
 1237 0168 C046     		nop
 1238              	.L81:
1373:..\..\..\..\..\..\Software\uCOS-III\Source/os_task.c ****     }
1374:..\..\..\..\..\..\Software\uCOS-III\Source/os_task.c ****     ctr = OSTCBCurPtr->SemCtr;
 1239              		.loc 1 1374 0
 1240 016a 0A4B     		ldr	r3, .L86+12
 1241 016c 1B68     		ldr	r3, [r3]
ARM GAS  C:\Users\EDULU~1.DES\AppData\Local\Temp\ccyhp2HA.s 			page 47


 1242 016e 5B6C     		ldr	r3, [r3, #68]
 1243 0170 3B61     		str	r3, [r7, #16]
1375:..\..\..\..\..\..\Software\uCOS-III\Source/os_task.c ****     CPU_CRITICAL_EXIT();
 1244              		.loc 1 1375 0
 1245 0172 FFF7FEFF 		bl	CPU_IntDisMeasStop
 1246 0176 7B69     		ldr	r3, [r7, #20]
 1247 0178 1800     		movs	r0, r3
 1248 017a FFF7FEFF 		bl	CPU_SR_Restore
1376:..\..\..\..\..\..\Software\uCOS-III\Source/os_task.c ****     return (ctr);
 1249              		.loc 1 1376 0
 1250 017e 3B69     		ldr	r3, [r7, #16]
 1251              	.L67:
1377:..\..\..\..\..\..\Software\uCOS-III\Source/os_task.c **** }
 1252              		.loc 1 1377 0
 1253 0180 1800     		movs	r0, r3
 1254 0182 BD46     		mov	sp, r7
 1255 0184 06B0     		add	sp, sp, #24
 1256              		@ sp needed
 1257 0186 80BD     		pop	{r7, pc}
 1258              	.L87:
 1259              		.align	2
 1260              	.L86:
 1261 0188 00000000 		.word	OSIntNestingCtr
 1262 018c AE610000 		.word	25006
 1263 0190 255E0000 		.word	24101
 1264 0194 00000000 		.word	OSTCBCurPtr
 1265 0198 B0610000 		.word	25008
 1266 019c 00000000 		.word	OSSchedLockNestingCtr
 1267 01a0 636D0000 		.word	28003
 1268 01a4 A9610000 		.word	25001
 1269 01a8 D9720000 		.word	29401
 1270 01ac 2E6E0000 		.word	28206
 1271              		.cfi_endproc
 1272              	.LFE7:
 1273              		.size	OSTaskSemPend, .-OSTaskSemPend
 1274              		.section	.text.OSTaskSemPost,"ax",%progbits
 1275              		.align	2
 1276              		.global	OSTaskSemPost
 1277              		.code	16
 1278              		.thumb_func
 1279              		.type	OSTaskSemPost, %function
 1280              	OSTaskSemPost:
 1281              	.LFB8:
1378:..\..\..\..\..\..\Software\uCOS-III\Source/os_task.c **** 
1379:..\..\..\..\..\..\Software\uCOS-III\Source/os_task.c **** /*$PAGE*/
1380:..\..\..\..\..\..\Software\uCOS-III\Source/os_task.c **** /*
1381:..\..\..\..\..\..\Software\uCOS-III\Source/os_task.c **** ***************************************************************************************************
1382:..\..\..\..\..\..\Software\uCOS-III\Source/os_task.c **** *                                               ABORT WAITING FOR A SIGNAL
1383:..\..\..\..\..\..\Software\uCOS-III\Source/os_task.c **** *
1384:..\..\..\..\..\..\Software\uCOS-III\Source/os_task.c **** * Description: This function aborts & readies the task specified.  This function should be used to 
1385:..\..\..\..\..\..\Software\uCOS-III\Source/os_task.c **** *              for a signal, rather than to normally post the signal to the task via OSTaskSemPost(
1386:..\..\..\..\..\..\Software\uCOS-III\Source/os_task.c **** *
1387:..\..\..\..\..\..\Software\uCOS-III\Source/os_task.c **** * Arguments  : p_tcb     is a pointer to the task to pend abort
1388:..\..\..\..\..\..\Software\uCOS-III\Source/os_task.c **** *
1389:..\..\..\..\..\..\Software\uCOS-III\Source/os_task.c **** *              opt       provides options for this function:
1390:..\..\..\..\..\..\Software\uCOS-III\Source/os_task.c **** *
1391:..\..\..\..\..\..\Software\uCOS-III\Source/os_task.c **** *                            OS_OPT_POST_NONE         No option selected
ARM GAS  C:\Users\EDULU~1.DES\AppData\Local\Temp\ccyhp2HA.s 			page 48


1392:..\..\..\..\..\..\Software\uCOS-III\Source/os_task.c **** *                            OS_OPT_POST_NO_SCHED     Indicates that the scheduler will not be call
1393:..\..\..\..\..\..\Software\uCOS-III\Source/os_task.c **** *
1394:..\..\..\..\..\..\Software\uCOS-III\Source/os_task.c **** *              p_err     is a pointer to a variable that will contain an error code returned by thi
1395:..\..\..\..\..\..\Software\uCOS-III\Source/os_task.c **** *
1396:..\..\..\..\..\..\Software\uCOS-III\Source/os_task.c **** *                            OS_ERR_NONE              If the task was readied and informed of the a
1397:..\..\..\..\..\..\Software\uCOS-III\Source/os_task.c **** *                            OS_ERR_PEND_ABORT_ISR    If you tried calling this function from an IS
1398:..\..\..\..\..\..\Software\uCOS-III\Source/os_task.c **** *                            OS_ERR_PEND_ABORT_NONE   If the task was not waiting for a signal
1399:..\..\..\..\..\..\Software\uCOS-III\Source/os_task.c **** *                            OS_ERR_PEND_ABORT_SELF   If you attempted to pend abort the calling ta
1400:..\..\..\..\..\..\Software\uCOS-III\Source/os_task.c **** *                                                     possible since the calling task cannot be pen
1401:..\..\..\..\..\..\Software\uCOS-III\Source/os_task.c **** *                                                     running.
1402:..\..\..\..\..\..\Software\uCOS-III\Source/os_task.c **** *
1403:..\..\..\..\..\..\Software\uCOS-III\Source/os_task.c **** * Returns    : == DEF_FALSE   if task was not waiting for a message, or upon error.
1404:..\..\..\..\..\..\Software\uCOS-III\Source/os_task.c **** *              == DEF_TRUE    if task was waiting for a message and was readied and informed.
1405:..\..\..\..\..\..\Software\uCOS-III\Source/os_task.c **** ***************************************************************************************************
1406:..\..\..\..\..\..\Software\uCOS-III\Source/os_task.c **** */
1407:..\..\..\..\..\..\Software\uCOS-III\Source/os_task.c **** 
1408:..\..\..\..\..\..\Software\uCOS-III\Source/os_task.c **** #if OS_CFG_TASK_SEM_PEND_ABORT_EN > 0u
1409:..\..\..\..\..\..\Software\uCOS-III\Source/os_task.c **** CPU_BOOLEAN  OSTaskSemPendAbort (OS_TCB  *p_tcb,
1410:..\..\..\..\..\..\Software\uCOS-III\Source/os_task.c ****                                  OS_OPT   opt,
1411:..\..\..\..\..\..\Software\uCOS-III\Source/os_task.c ****                                  OS_ERR  *p_err)
1412:..\..\..\..\..\..\Software\uCOS-III\Source/os_task.c **** {
1413:..\..\..\..\..\..\Software\uCOS-III\Source/os_task.c ****     CPU_TS         ts;
1414:..\..\..\..\..\..\Software\uCOS-III\Source/os_task.c ****     CPU_SR_ALLOC();
1415:..\..\..\..\..\..\Software\uCOS-III\Source/os_task.c **** 
1416:..\..\..\..\..\..\Software\uCOS-III\Source/os_task.c **** 
1417:..\..\..\..\..\..\Software\uCOS-III\Source/os_task.c **** 
1418:..\..\..\..\..\..\Software\uCOS-III\Source/os_task.c **** #ifdef OS_SAFETY_CRITICAL
1419:..\..\..\..\..\..\Software\uCOS-III\Source/os_task.c ****     if (p_err == (OS_ERR *)0) {
1420:..\..\..\..\..\..\Software\uCOS-III\Source/os_task.c ****         OS_SAFETY_CRITICAL_EXCEPTION();
1421:..\..\..\..\..\..\Software\uCOS-III\Source/os_task.c ****         return (DEF_FALSE);
1422:..\..\..\..\..\..\Software\uCOS-III\Source/os_task.c ****     }
1423:..\..\..\..\..\..\Software\uCOS-III\Source/os_task.c **** #endif
1424:..\..\..\..\..\..\Software\uCOS-III\Source/os_task.c **** 
1425:..\..\..\..\..\..\Software\uCOS-III\Source/os_task.c **** #if OS_CFG_CALLED_FROM_ISR_CHK_EN > 0u
1426:..\..\..\..\..\..\Software\uCOS-III\Source/os_task.c ****     if (OSIntNestingCtr > (OS_NESTING_CTR)0) {              /* See if called from ISR ...          
1427:..\..\..\..\..\..\Software\uCOS-III\Source/os_task.c ****        *p_err = OS_ERR_PEND_ABORT_ISR;                      /* ... can't Pend Abort from an ISR    
1428:..\..\..\..\..\..\Software\uCOS-III\Source/os_task.c ****         return (DEF_FALSE);
1429:..\..\..\..\..\..\Software\uCOS-III\Source/os_task.c ****     }
1430:..\..\..\..\..\..\Software\uCOS-III\Source/os_task.c **** #endif
1431:..\..\..\..\..\..\Software\uCOS-III\Source/os_task.c **** 
1432:..\..\..\..\..\..\Software\uCOS-III\Source/os_task.c **** #if OS_CFG_ARG_CHK_EN > 0u
1433:..\..\..\..\..\..\Software\uCOS-III\Source/os_task.c ****     switch (opt) {                                          /* Validate 'opt'                      
1434:..\..\..\..\..\..\Software\uCOS-III\Source/os_task.c ****         case OS_OPT_POST_NONE:
1435:..\..\..\..\..\..\Software\uCOS-III\Source/os_task.c ****         case OS_OPT_POST_NO_SCHED:
1436:..\..\..\..\..\..\Software\uCOS-III\Source/os_task.c ****              break;
1437:..\..\..\..\..\..\Software\uCOS-III\Source/os_task.c **** 
1438:..\..\..\..\..\..\Software\uCOS-III\Source/os_task.c ****         default:
1439:..\..\..\..\..\..\Software\uCOS-III\Source/os_task.c ****             *p_err =  OS_ERR_OPT_INVALID;
1440:..\..\..\..\..\..\Software\uCOS-III\Source/os_task.c ****              return (DEF_FALSE);
1441:..\..\..\..\..\..\Software\uCOS-III\Source/os_task.c ****     }
1442:..\..\..\..\..\..\Software\uCOS-III\Source/os_task.c **** #endif
1443:..\..\..\..\..\..\Software\uCOS-III\Source/os_task.c **** 
1444:..\..\..\..\..\..\Software\uCOS-III\Source/os_task.c ****     CPU_CRITICAL_ENTER();
1445:..\..\..\..\..\..\Software\uCOS-III\Source/os_task.c ****     if ((p_tcb == (OS_TCB *)0) ||                           /* Pend abort self?                    
1446:..\..\..\..\..\..\Software\uCOS-III\Source/os_task.c ****         (p_tcb == OSTCBCurPtr)) {
1447:..\..\..\..\..\..\Software\uCOS-III\Source/os_task.c ****         CPU_CRITICAL_EXIT();                                /* ... doesn't make sense!             
1448:..\..\..\..\..\..\Software\uCOS-III\Source/os_task.c ****        *p_err = OS_ERR_PEND_ABORT_SELF;
ARM GAS  C:\Users\EDULU~1.DES\AppData\Local\Temp\ccyhp2HA.s 			page 49


1449:..\..\..\..\..\..\Software\uCOS-III\Source/os_task.c ****         return (DEF_FALSE);
1450:..\..\..\..\..\..\Software\uCOS-III\Source/os_task.c ****     }
1451:..\..\..\..\..\..\Software\uCOS-III\Source/os_task.c **** 
1452:..\..\..\..\..\..\Software\uCOS-III\Source/os_task.c ****     if (p_tcb->PendOn != OS_TASK_PEND_ON_TASK_SEM) {        /* Is task waiting for a signal?       
1453:..\..\..\..\..\..\Software\uCOS-III\Source/os_task.c ****         CPU_CRITICAL_EXIT();
1454:..\..\..\..\..\..\Software\uCOS-III\Source/os_task.c ****        *p_err = OS_ERR_PEND_ABORT_NONE;
1455:..\..\..\..\..\..\Software\uCOS-III\Source/os_task.c ****         return (DEF_FALSE);
1456:..\..\..\..\..\..\Software\uCOS-III\Source/os_task.c ****     }
1457:..\..\..\..\..\..\Software\uCOS-III\Source/os_task.c ****     CPU_CRITICAL_EXIT();
1458:..\..\..\..\..\..\Software\uCOS-III\Source/os_task.c **** 
1459:..\..\..\..\..\..\Software\uCOS-III\Source/os_task.c ****     OS_CRITICAL_ENTER();
1460:..\..\..\..\..\..\Software\uCOS-III\Source/os_task.c ****     ts = OS_TS_GET();
1461:..\..\..\..\..\..\Software\uCOS-III\Source/os_task.c ****     OS_PendAbort((OS_PEND_OBJ *)0,
1462:..\..\..\..\..\..\Software\uCOS-III\Source/os_task.c ****                  p_tcb,
1463:..\..\..\..\..\..\Software\uCOS-III\Source/os_task.c ****                  ts);
1464:..\..\..\..\..\..\Software\uCOS-III\Source/os_task.c ****     OS_CRITICAL_EXIT_NO_SCHED();
1465:..\..\..\..\..\..\Software\uCOS-III\Source/os_task.c ****     if ((opt & OS_OPT_POST_NO_SCHED) == (OS_OPT)0) {
1466:..\..\..\..\..\..\Software\uCOS-III\Source/os_task.c ****         OSSched();                                          /* Run the scheduler                   
1467:..\..\..\..\..\..\Software\uCOS-III\Source/os_task.c ****     }
1468:..\..\..\..\..\..\Software\uCOS-III\Source/os_task.c ****    *p_err = OS_ERR_NONE;
1469:..\..\..\..\..\..\Software\uCOS-III\Source/os_task.c ****     return (DEF_TRUE);
1470:..\..\..\..\..\..\Software\uCOS-III\Source/os_task.c **** }
1471:..\..\..\..\..\..\Software\uCOS-III\Source/os_task.c **** #endif
1472:..\..\..\..\..\..\Software\uCOS-III\Source/os_task.c **** 
1473:..\..\..\..\..\..\Software\uCOS-III\Source/os_task.c **** /*$PAGE*/
1474:..\..\..\..\..\..\Software\uCOS-III\Source/os_task.c **** /*
1475:..\..\..\..\..\..\Software\uCOS-III\Source/os_task.c **** ***************************************************************************************************
1476:..\..\..\..\..\..\Software\uCOS-III\Source/os_task.c **** *                                                    SIGNAL A TASK
1477:..\..\..\..\..\..\Software\uCOS-III\Source/os_task.c **** *
1478:..\..\..\..\..\..\Software\uCOS-III\Source/os_task.c **** * Description: This function is called to signal a task waiting for a signal.
1479:..\..\..\..\..\..\Software\uCOS-III\Source/os_task.c **** *
1480:..\..\..\..\..\..\Software\uCOS-III\Source/os_task.c **** * Arguments  : p_tcb     is the pointer to the TCB of the task to signal.  A NULL pointer indicates
1481:..\..\..\..\..\..\Software\uCOS-III\Source/os_task.c **** *                        a signal to yourself.
1482:..\..\..\..\..\..\Software\uCOS-III\Source/os_task.c **** *
1483:..\..\..\..\..\..\Software\uCOS-III\Source/os_task.c **** *              opt       determines the type of POST performed:
1484:..\..\..\..\..\..\Software\uCOS-III\Source/os_task.c **** *
1485:..\..\..\..\..\..\Software\uCOS-III\Source/os_task.c **** *                             OS_OPT_POST_NONE         No option
1486:..\..\..\..\..\..\Software\uCOS-III\Source/os_task.c **** *                             OS_OPT_POST_NO_SCHED     Do not call the scheduler
1487:..\..\..\..\..\..\Software\uCOS-III\Source/os_task.c **** *
1488:..\..\..\..\..\..\Software\uCOS-III\Source/os_task.c **** *              p_err     is a pointer to an error code returned by this function:
1489:..\..\..\..\..\..\Software\uCOS-III\Source/os_task.c **** *
1490:..\..\..\..\..\..\Software\uCOS-III\Source/os_task.c **** *                            OS_ERR_NONE              If the requested task is signaled
1491:..\..\..\..\..\..\Software\uCOS-III\Source/os_task.c **** *                            OS_ERR_SEM_OVF           If the post would cause the semaphore count t
1492:..\..\..\..\..\..\Software\uCOS-III\Source/os_task.c **** *
1493:..\..\..\..\..\..\Software\uCOS-III\Source/os_task.c **** * Returns    : The current value of the task's signal counter or 0 if called from an ISR
1494:..\..\..\..\..\..\Software\uCOS-III\Source/os_task.c **** ***************************************************************************************************
1495:..\..\..\..\..\..\Software\uCOS-III\Source/os_task.c **** */
1496:..\..\..\..\..\..\Software\uCOS-III\Source/os_task.c **** 
1497:..\..\..\..\..\..\Software\uCOS-III\Source/os_task.c **** OS_SEM_CTR  OSTaskSemPost (OS_TCB  *p_tcb,
1498:..\..\..\..\..\..\Software\uCOS-III\Source/os_task.c ****                            OS_OPT   opt,
1499:..\..\..\..\..\..\Software\uCOS-III\Source/os_task.c ****                            OS_ERR  *p_err)
1500:..\..\..\..\..\..\Software\uCOS-III\Source/os_task.c **** {
 1282              		.loc 1 1500 0
 1283              		.cfi_startproc
 1284              		@ args = 0, pretend = 0, frame = 24
 1285              		@ frame_needed = 1, uses_anonymous_args = 0
 1286 0000 90B5     		push	{r4, r7, lr}
ARM GAS  C:\Users\EDULU~1.DES\AppData\Local\Temp\ccyhp2HA.s 			page 50


 1287              		.cfi_def_cfa_offset 12
 1288              		.cfi_offset 4, -12
 1289              		.cfi_offset 7, -8
 1290              		.cfi_offset 14, -4
 1291 0002 87B0     		sub	sp, sp, #28
 1292              		.cfi_def_cfa_offset 40
 1293 0004 00AF     		add	r7, sp, #0
 1294              		.cfi_def_cfa_register 7
 1295 0006 F860     		str	r0, [r7, #12]
 1296 0008 7A60     		str	r2, [r7, #4]
 1297 000a 0A23     		movs	r3, #10
 1298 000c FB18     		adds	r3, r7, r3
 1299 000e 0A1C     		adds	r2, r1, #0
 1300 0010 1A80     		strh	r2, [r3]
1501:..\..\..\..\..\..\Software\uCOS-III\Source/os_task.c ****     OS_SEM_CTR  ctr;
1502:..\..\..\..\..\..\Software\uCOS-III\Source/os_task.c ****     CPU_TS      ts;
1503:..\..\..\..\..\..\Software\uCOS-III\Source/os_task.c **** 
1504:..\..\..\..\..\..\Software\uCOS-III\Source/os_task.c **** 
1505:..\..\..\..\..\..\Software\uCOS-III\Source/os_task.c **** 
1506:..\..\..\..\..\..\Software\uCOS-III\Source/os_task.c **** #ifdef OS_SAFETY_CRITICAL
1507:..\..\..\..\..\..\Software\uCOS-III\Source/os_task.c ****     if (p_err == (OS_ERR *)0) {
1508:..\..\..\..\..\..\Software\uCOS-III\Source/os_task.c ****         OS_SAFETY_CRITICAL_EXCEPTION();
1509:..\..\..\..\..\..\Software\uCOS-III\Source/os_task.c ****         return ((OS_SEM_CTR)0);
1510:..\..\..\..\..\..\Software\uCOS-III\Source/os_task.c ****     }
1511:..\..\..\..\..\..\Software\uCOS-III\Source/os_task.c **** #endif
1512:..\..\..\..\..\..\Software\uCOS-III\Source/os_task.c **** 
1513:..\..\..\..\..\..\Software\uCOS-III\Source/os_task.c **** #if OS_CFG_ARG_CHK_EN > 0u
1514:..\..\..\..\..\..\Software\uCOS-III\Source/os_task.c ****     switch (opt) {                                          /* Validate 'opt'                      
 1301              		.loc 1 1514 0
 1302 0012 0A23     		movs	r3, #10
 1303 0014 FB18     		adds	r3, r7, r3
 1304 0016 1B88     		ldrh	r3, [r3]
 1305 0018 002B     		cmp	r3, #0
 1306 001a 08D0     		beq	.L93
 1307 001c 8022     		movs	r2, #128
 1308 001e 1202     		lsls	r2, r2, #8
 1309 0020 9342     		cmp	r3, r2
 1310 0022 04D0     		beq	.L93
1515:..\..\..\..\..\..\Software\uCOS-III\Source/os_task.c ****         case OS_OPT_POST_NONE:
1516:..\..\..\..\..\..\Software\uCOS-III\Source/os_task.c ****         case OS_OPT_POST_NO_SCHED:
1517:..\..\..\..\..\..\Software\uCOS-III\Source/os_task.c ****              break;
1518:..\..\..\..\..\..\Software\uCOS-III\Source/os_task.c **** 
1519:..\..\..\..\..\..\Software\uCOS-III\Source/os_task.c ****         default:
1520:..\..\..\..\..\..\Software\uCOS-III\Source/os_task.c ****             *p_err =  OS_ERR_OPT_INVALID;
 1311              		.loc 1 1520 0
 1312 0024 7B68     		ldr	r3, [r7, #4]
 1313 0026 0C4A     		ldr	r2, .L94
 1314 0028 1A80     		strh	r2, [r3]
1521:..\..\..\..\..\..\Software\uCOS-III\Source/os_task.c ****              return ((OS_SEM_CTR)0u);
 1315              		.loc 1 1521 0
 1316 002a 0023     		movs	r3, #0
 1317 002c 10E0     		b	.L92
 1318              	.L93:
1517:..\..\..\..\..\..\Software\uCOS-III\Source/os_task.c **** 
 1319              		.loc 1 1517 0
 1320 002e C046     		nop
1522:..\..\..\..\..\..\Software\uCOS-III\Source/os_task.c ****     }
ARM GAS  C:\Users\EDULU~1.DES\AppData\Local\Temp\ccyhp2HA.s 			page 51


1523:..\..\..\..\..\..\Software\uCOS-III\Source/os_task.c **** #endif
1524:..\..\..\..\..\..\Software\uCOS-III\Source/os_task.c **** 
1525:..\..\..\..\..\..\Software\uCOS-III\Source/os_task.c ****     ts = OS_TS_GET();                                       /* Get timestamp                       
 1321              		.loc 1 1525 0
 1322 0030 FFF7FEFF 		bl	CPU_TS_TmrRd
 1323 0034 0300     		movs	r3, r0
 1324 0036 7B61     		str	r3, [r7, #20]
1526:..\..\..\..\..\..\Software\uCOS-III\Source/os_task.c **** 
1527:..\..\..\..\..\..\Software\uCOS-III\Source/os_task.c **** #if OS_CFG_ISR_POST_DEFERRED_EN > 0u
1528:..\..\..\..\..\..\Software\uCOS-III\Source/os_task.c ****     if (OSIntNestingCtr > (OS_NESTING_CTR)0) {              /* See if called from an ISR           
1529:..\..\..\..\..\..\Software\uCOS-III\Source/os_task.c ****         OS_IntQPost((OS_OBJ_TYPE)OS_OBJ_TYPE_TASK_SIGNAL,   /* Post to ISR queue                   
1530:..\..\..\..\..\..\Software\uCOS-III\Source/os_task.c ****                     (void      *)p_tcb,
1531:..\..\..\..\..\..\Software\uCOS-III\Source/os_task.c ****                     (void      *)0,
1532:..\..\..\..\..\..\Software\uCOS-III\Source/os_task.c ****                     (OS_MSG_SIZE)0,
1533:..\..\..\..\..\..\Software\uCOS-III\Source/os_task.c ****                     (OS_FLAGS   )0,
1534:..\..\..\..\..\..\Software\uCOS-III\Source/os_task.c ****                     (OS_OPT     )0,
1535:..\..\..\..\..\..\Software\uCOS-III\Source/os_task.c ****                     (CPU_TS     )ts,
1536:..\..\..\..\..\..\Software\uCOS-III\Source/os_task.c ****                     (OS_ERR    *)p_err);
1537:..\..\..\..\..\..\Software\uCOS-III\Source/os_task.c ****         return ((OS_SEM_CTR)0);
1538:..\..\..\..\..\..\Software\uCOS-III\Source/os_task.c ****     }
1539:..\..\..\..\..\..\Software\uCOS-III\Source/os_task.c **** #endif
1540:..\..\..\..\..\..\Software\uCOS-III\Source/os_task.c **** 
1541:..\..\..\..\..\..\Software\uCOS-III\Source/os_task.c ****     ctr = OS_TaskSemPost(p_tcb,
 1325              		.loc 1 1541 0
 1326 0038 7C68     		ldr	r4, [r7, #4]
 1327 003a 7A69     		ldr	r2, [r7, #20]
 1328 003c 0A23     		movs	r3, #10
 1329 003e FB18     		adds	r3, r7, r3
 1330 0040 1988     		ldrh	r1, [r3]
 1331 0042 F868     		ldr	r0, [r7, #12]
 1332 0044 2300     		movs	r3, r4
 1333 0046 FFF7FEFF 		bl	OS_TaskSemPost
 1334 004a 0300     		movs	r3, r0
 1335 004c 3B61     		str	r3, [r7, #16]
1542:..\..\..\..\..\..\Software\uCOS-III\Source/os_task.c ****                          opt,
1543:..\..\..\..\..\..\Software\uCOS-III\Source/os_task.c ****                          ts,
1544:..\..\..\..\..\..\Software\uCOS-III\Source/os_task.c ****                          p_err);
1545:..\..\..\..\..\..\Software\uCOS-III\Source/os_task.c **** 
1546:..\..\..\..\..\..\Software\uCOS-III\Source/os_task.c ****     return (ctr);
 1336              		.loc 1 1546 0
 1337 004e 3B69     		ldr	r3, [r7, #16]
 1338              	.L92:
1547:..\..\..\..\..\..\Software\uCOS-III\Source/os_task.c **** }
 1339              		.loc 1 1547 0
 1340 0050 1800     		movs	r0, r3
 1341 0052 BD46     		mov	sp, r7
 1342 0054 07B0     		add	sp, sp, #28
 1343              		@ sp needed
 1344 0056 90BD     		pop	{r4, r7, pc}
 1345              	.L95:
 1346              		.align	2
 1347              	.L94:
 1348 0058 255E0000 		.word	24101
 1349              		.cfi_endproc
 1350              	.LFE8:
 1351              		.size	OSTaskSemPost, .-OSTaskSemPost
 1352              		.section	.text.OSTaskSemSet,"ax",%progbits
ARM GAS  C:\Users\EDULU~1.DES\AppData\Local\Temp\ccyhp2HA.s 			page 52


 1353              		.align	2
 1354              		.global	OSTaskSemSet
 1355              		.code	16
 1356              		.thumb_func
 1357              		.type	OSTaskSemSet, %function
 1358              	OSTaskSemSet:
 1359              	.LFB9:
1548:..\..\..\..\..\..\Software\uCOS-III\Source/os_task.c **** 
1549:..\..\..\..\..\..\Software\uCOS-III\Source/os_task.c **** /*$PAGE*/
1550:..\..\..\..\..\..\Software\uCOS-III\Source/os_task.c **** /*
1551:..\..\..\..\..\..\Software\uCOS-III\Source/os_task.c **** ***************************************************************************************************
1552:..\..\..\..\..\..\Software\uCOS-III\Source/os_task.c **** *                                            SET THE SIGNAL COUNTER OF A TASK
1553:..\..\..\..\..\..\Software\uCOS-III\Source/os_task.c **** *
1554:..\..\..\..\..\..\Software\uCOS-III\Source/os_task.c **** * Description: This function is called to clear the signal counter
1555:..\..\..\..\..\..\Software\uCOS-III\Source/os_task.c **** *
1556:..\..\..\..\..\..\Software\uCOS-III\Source/os_task.c **** * Arguments  : p_tcb      is the pointer to the TCB of the task to clear the counter.  If you speci
1557:..\..\..\..\..\..\Software\uCOS-III\Source/os_task.c **** *                         then the signal counter of the current task will be cleared.
1558:..\..\..\..\..\..\Software\uCOS-III\Source/os_task.c **** *
1559:..\..\..\..\..\..\Software\uCOS-III\Source/os_task.c **** *              cnt        is the desired value of the semaphore counter
1560:..\..\..\..\..\..\Software\uCOS-III\Source/os_task.c **** *
1561:..\..\..\..\..\..\Software\uCOS-III\Source/os_task.c **** *              p_err      is a pointer to an error code returned by this function
1562:..\..\..\..\..\..\Software\uCOS-III\Source/os_task.c **** *
1563:..\..\..\..\..\..\Software\uCOS-III\Source/os_task.c **** *                             OS_ERR_NONE        if the signal counter of the requested task is cle
1564:..\..\..\..\..\..\Software\uCOS-III\Source/os_task.c **** *                             OS_ERR_SET_ISR     if the function was called from an ISR
1565:..\..\..\..\..\..\Software\uCOS-III\Source/os_task.c **** *
1566:..\..\..\..\..\..\Software\uCOS-III\Source/os_task.c **** * Returns    : none
1567:..\..\..\..\..\..\Software\uCOS-III\Source/os_task.c **** ***************************************************************************************************
1568:..\..\..\..\..\..\Software\uCOS-III\Source/os_task.c **** */
1569:..\..\..\..\..\..\Software\uCOS-III\Source/os_task.c **** 
1570:..\..\..\..\..\..\Software\uCOS-III\Source/os_task.c **** OS_SEM_CTR  OSTaskSemSet (OS_TCB      *p_tcb,
1571:..\..\..\..\..\..\Software\uCOS-III\Source/os_task.c ****                           OS_SEM_CTR   cnt,
1572:..\..\..\..\..\..\Software\uCOS-III\Source/os_task.c ****                           OS_ERR      *p_err)
1573:..\..\..\..\..\..\Software\uCOS-III\Source/os_task.c **** {
 1360              		.loc 1 1573 0
 1361              		.cfi_startproc
 1362              		@ args = 0, pretend = 0, frame = 24
 1363              		@ frame_needed = 1, uses_anonymous_args = 0
 1364 0000 80B5     		push	{r7, lr}
 1365              		.cfi_def_cfa_offset 8
 1366              		.cfi_offset 7, -8
 1367              		.cfi_offset 14, -4
 1368 0002 86B0     		sub	sp, sp, #24
 1369              		.cfi_def_cfa_offset 32
 1370 0004 00AF     		add	r7, sp, #0
 1371              		.cfi_def_cfa_register 7
 1372 0006 F860     		str	r0, [r7, #12]
 1373 0008 B960     		str	r1, [r7, #8]
 1374 000a 7A60     		str	r2, [r7, #4]
1574:..\..\..\..\..\..\Software\uCOS-III\Source/os_task.c ****     OS_SEM_CTR  ctr;
1575:..\..\..\..\..\..\Software\uCOS-III\Source/os_task.c ****     CPU_SR_ALLOC();
 1375              		.loc 1 1575 0
 1376 000c 0023     		movs	r3, #0
 1377 000e 7B61     		str	r3, [r7, #20]
1576:..\..\..\..\..\..\Software\uCOS-III\Source/os_task.c **** 
1577:..\..\..\..\..\..\Software\uCOS-III\Source/os_task.c **** 
1578:..\..\..\..\..\..\Software\uCOS-III\Source/os_task.c **** 
1579:..\..\..\..\..\..\Software\uCOS-III\Source/os_task.c **** #ifdef OS_SAFETY_CRITICAL
ARM GAS  C:\Users\EDULU~1.DES\AppData\Local\Temp\ccyhp2HA.s 			page 53


1580:..\..\..\..\..\..\Software\uCOS-III\Source/os_task.c ****     if (p_err == (OS_ERR *)0) {
1581:..\..\..\..\..\..\Software\uCOS-III\Source/os_task.c ****         OS_SAFETY_CRITICAL_EXCEPTION();
1582:..\..\..\..\..\..\Software\uCOS-III\Source/os_task.c ****         return ((OS_SEM_CTR)0);
1583:..\..\..\..\..\..\Software\uCOS-III\Source/os_task.c ****     }
1584:..\..\..\..\..\..\Software\uCOS-III\Source/os_task.c **** #endif
1585:..\..\..\..\..\..\Software\uCOS-III\Source/os_task.c **** 
1586:..\..\..\..\..\..\Software\uCOS-III\Source/os_task.c **** #if OS_CFG_CALLED_FROM_ISR_CHK_EN > 0u
1587:..\..\..\..\..\..\Software\uCOS-III\Source/os_task.c ****     if (OSIntNestingCtr > (OS_NESTING_CTR)0) {              /* Not allowed to call from an ISR     
 1378              		.loc 1 1587 0
 1379 0010 144B     		ldr	r3, .L100
 1380 0012 1B78     		ldrb	r3, [r3]
 1381 0014 002B     		cmp	r3, #0
 1382 0016 04D0     		beq	.L97
1588:..\..\..\..\..\..\Software\uCOS-III\Source/os_task.c ****        *p_err = OS_ERR_SET_ISR;
 1383              		.loc 1 1588 0
 1384 0018 7B68     		ldr	r3, [r7, #4]
 1385 001a 134A     		ldr	r2, .L100+4
 1386 001c 1A80     		strh	r2, [r3]
1589:..\..\..\..\..\..\Software\uCOS-III\Source/os_task.c ****         return ((OS_SEM_CTR)0);
 1387              		.loc 1 1589 0
 1388 001e 0023     		movs	r3, #0
 1389 0020 1BE0     		b	.L98
 1390              	.L97:
1590:..\..\..\..\..\..\Software\uCOS-III\Source/os_task.c ****     }
1591:..\..\..\..\..\..\Software\uCOS-III\Source/os_task.c **** #endif
1592:..\..\..\..\..\..\Software\uCOS-III\Source/os_task.c **** 
1593:..\..\..\..\..\..\Software\uCOS-III\Source/os_task.c ****     CPU_CRITICAL_ENTER();
 1391              		.loc 1 1593 0
 1392 0022 FFF7FEFF 		bl	CPU_SR_Save
 1393 0026 0300     		movs	r3, r0
 1394 0028 7B61     		str	r3, [r7, #20]
 1395 002a FFF7FEFF 		bl	CPU_IntDisMeasStart
1594:..\..\..\..\..\..\Software\uCOS-III\Source/os_task.c ****     if (p_tcb == (OS_TCB *)0) {
 1396              		.loc 1 1594 0
 1397 002e FB68     		ldr	r3, [r7, #12]
 1398 0030 002B     		cmp	r3, #0
 1399 0032 02D1     		bne	.L99
1595:..\..\..\..\..\..\Software\uCOS-III\Source/os_task.c ****         p_tcb = OSTCBCurPtr;
 1400              		.loc 1 1595 0
 1401 0034 0D4B     		ldr	r3, .L100+8
 1402 0036 1B68     		ldr	r3, [r3]
 1403 0038 FB60     		str	r3, [r7, #12]
 1404              	.L99:
1596:..\..\..\..\..\..\Software\uCOS-III\Source/os_task.c ****     }
1597:..\..\..\..\..\..\Software\uCOS-III\Source/os_task.c ****     ctr           = p_tcb->SemCtr;
 1405              		.loc 1 1597 0
 1406 003a FB68     		ldr	r3, [r7, #12]
 1407 003c 5B6C     		ldr	r3, [r3, #68]
 1408 003e 3B61     		str	r3, [r7, #16]
1598:..\..\..\..\..\..\Software\uCOS-III\Source/os_task.c ****     p_tcb->SemCtr = (OS_SEM_CTR)cnt;
 1409              		.loc 1 1598 0
 1410 0040 FB68     		ldr	r3, [r7, #12]
 1411 0042 BA68     		ldr	r2, [r7, #8]
 1412 0044 5A64     		str	r2, [r3, #68]
1599:..\..\..\..\..\..\Software\uCOS-III\Source/os_task.c ****     CPU_CRITICAL_EXIT();
 1413              		.loc 1 1599 0
 1414 0046 FFF7FEFF 		bl	CPU_IntDisMeasStop
ARM GAS  C:\Users\EDULU~1.DES\AppData\Local\Temp\ccyhp2HA.s 			page 54


 1415 004a 7B69     		ldr	r3, [r7, #20]
 1416 004c 1800     		movs	r0, r3
 1417 004e FFF7FEFF 		bl	CPU_SR_Restore
1600:..\..\..\..\..\..\Software\uCOS-III\Source/os_task.c ****    *p_err         =  OS_ERR_NONE;
 1418              		.loc 1 1600 0
 1419 0052 7B68     		ldr	r3, [r7, #4]
 1420 0054 0022     		movs	r2, #0
 1421 0056 1A80     		strh	r2, [r3]
1601:..\..\..\..\..\..\Software\uCOS-III\Source/os_task.c ****     return (ctr);
 1422              		.loc 1 1601 0
 1423 0058 3B69     		ldr	r3, [r7, #16]
 1424              	.L98:
1602:..\..\..\..\..\..\Software\uCOS-III\Source/os_task.c **** }
 1425              		.loc 1 1602 0
 1426 005a 1800     		movs	r0, r3
 1427 005c BD46     		mov	sp, r7
 1428 005e 06B0     		add	sp, sp, #24
 1429              		@ sp needed
 1430 0060 80BD     		pop	{r7, pc}
 1431              	.L101:
 1432 0062 C046     		.align	2
 1433              	.L100:
 1434 0064 00000000 		.word	OSIntNestingCtr
 1435 0068 C66D0000 		.word	28102
 1436 006c 00000000 		.word	OSTCBCurPtr
 1437              		.cfi_endproc
 1438              	.LFE9:
 1439              		.size	OSTaskSemSet, .-OSTaskSemSet
 1440              		.section	.text.OSTaskStkChk,"ax",%progbits
 1441              		.align	2
 1442              		.global	OSTaskStkChk
 1443              		.code	16
 1444              		.thumb_func
 1445              		.type	OSTaskStkChk, %function
 1446              	OSTaskStkChk:
 1447              	.LFB10:
1603:..\..\..\..\..\..\Software\uCOS-III\Source/os_task.c **** 
1604:..\..\..\..\..\..\Software\uCOS-III\Source/os_task.c **** /*$PAGE*/
1605:..\..\..\..\..\..\Software\uCOS-III\Source/os_task.c **** /*
1606:..\..\..\..\..\..\Software\uCOS-III\Source/os_task.c **** ***************************************************************************************************
1607:..\..\..\..\..\..\Software\uCOS-III\Source/os_task.c **** *                                                    STACK CHECKING
1608:..\..\..\..\..\..\Software\uCOS-III\Source/os_task.c **** *
1609:..\..\..\..\..\..\Software\uCOS-III\Source/os_task.c **** * Description: This function is called to calculate the amount of free memory left on the specified
1610:..\..\..\..\..\..\Software\uCOS-III\Source/os_task.c **** *
1611:..\..\..\..\..\..\Software\uCOS-III\Source/os_task.c **** * Arguments  : p_tcb       is a pointer to the TCB of the task to check.  If you specify a NULL poi
1612:..\..\..\..\..\..\Software\uCOS-III\Source/os_task.c **** *                          you are specifying that you want to check the stack of the current task.
1613:..\..\..\..\..\..\Software\uCOS-III\Source/os_task.c **** *
1614:..\..\..\..\..\..\Software\uCOS-III\Source/os_task.c **** *              p_free      is a pointer to a variable that will receive the number of free 'entries
1615:..\..\..\..\..\..\Software\uCOS-III\Source/os_task.c **** *
1616:..\..\..\..\..\..\Software\uCOS-III\Source/os_task.c **** *              p_used      is a pointer to a variable that will receive the number of used 'entries
1617:..\..\..\..\..\..\Software\uCOS-III\Source/os_task.c **** *
1618:..\..\..\..\..\..\Software\uCOS-III\Source/os_task.c **** *              p_err       is a pointer to a variable that will contain an error code.
1619:..\..\..\..\..\..\Software\uCOS-III\Source/os_task.c **** *
1620:..\..\..\..\..\..\Software\uCOS-III\Source/os_task.c **** *                              OS_ERR_NONE               upon success
1621:..\..\..\..\..\..\Software\uCOS-III\Source/os_task.c **** *                              OS_ERR_PTR_INVALID        if either 'p_free' or 'p_used' are NULL po
1622:..\..\..\..\..\..\Software\uCOS-III\Source/os_task.c **** *                              OS_ERR_TASK_NOT_EXIST     if the stack pointer of the task is a NULL
1623:..\..\..\..\..\..\Software\uCOS-III\Source/os_task.c **** *                              OS_ERR_TASK_OPT           if you did NOT specified OS_OPT_TASK_STK_C
ARM GAS  C:\Users\EDULU~1.DES\AppData\Local\Temp\ccyhp2HA.s 			page 55


1624:..\..\..\..\..\..\Software\uCOS-III\Source/os_task.c **** *                                                        was created
1625:..\..\..\..\..\..\Software\uCOS-III\Source/os_task.c **** *                              OS_ERR_TASK_STK_CHK_ISR   you called this function from an ISR
1626:..\..\..\..\..\..\Software\uCOS-III\Source/os_task.c **** ***************************************************************************************************
1627:..\..\..\..\..\..\Software\uCOS-III\Source/os_task.c **** */
1628:..\..\..\..\..\..\Software\uCOS-III\Source/os_task.c **** 
1629:..\..\..\..\..\..\Software\uCOS-III\Source/os_task.c **** #if OS_CFG_STAT_TASK_STK_CHK_EN > 0u
1630:..\..\..\..\..\..\Software\uCOS-III\Source/os_task.c **** void  OSTaskStkChk (OS_TCB        *p_tcb,
1631:..\..\..\..\..\..\Software\uCOS-III\Source/os_task.c ****                     CPU_STK_SIZE  *p_free,
1632:..\..\..\..\..\..\Software\uCOS-III\Source/os_task.c ****                     CPU_STK_SIZE  *p_used,
1633:..\..\..\..\..\..\Software\uCOS-III\Source/os_task.c ****                     OS_ERR        *p_err)
1634:..\..\..\..\..\..\Software\uCOS-III\Source/os_task.c **** {
 1448              		.loc 1 1634 0
 1449              		.cfi_startproc
 1450              		@ args = 0, pretend = 0, frame = 32
 1451              		@ frame_needed = 1, uses_anonymous_args = 0
 1452 0000 80B5     		push	{r7, lr}
 1453              		.cfi_def_cfa_offset 8
 1454              		.cfi_offset 7, -8
 1455              		.cfi_offset 14, -4
 1456 0002 88B0     		sub	sp, sp, #32
 1457              		.cfi_def_cfa_offset 40
 1458 0004 00AF     		add	r7, sp, #0
 1459              		.cfi_def_cfa_register 7
 1460 0006 F860     		str	r0, [r7, #12]
 1461 0008 B960     		str	r1, [r7, #8]
 1462 000a 7A60     		str	r2, [r7, #4]
 1463 000c 3B60     		str	r3, [r7]
1635:..\..\..\..\..\..\Software\uCOS-III\Source/os_task.c ****     CPU_STK_SIZE  free_stk;
1636:..\..\..\..\..\..\Software\uCOS-III\Source/os_task.c ****     CPU_STK      *p_stk;
1637:..\..\..\..\..\..\Software\uCOS-III\Source/os_task.c ****     CPU_SR_ALLOC();
 1464              		.loc 1 1637 0
 1465 000e 0023     		movs	r3, #0
 1466 0010 7B61     		str	r3, [r7, #20]
1638:..\..\..\..\..\..\Software\uCOS-III\Source/os_task.c **** 
1639:..\..\..\..\..\..\Software\uCOS-III\Source/os_task.c **** 
1640:..\..\..\..\..\..\Software\uCOS-III\Source/os_task.c **** 
1641:..\..\..\..\..\..\Software\uCOS-III\Source/os_task.c **** #ifdef OS_SAFETY_CRITICAL
1642:..\..\..\..\..\..\Software\uCOS-III\Source/os_task.c ****     if (p_err == (OS_ERR *)0) {
1643:..\..\..\..\..\..\Software\uCOS-III\Source/os_task.c ****         OS_SAFETY_CRITICAL_EXCEPTION();
1644:..\..\..\..\..\..\Software\uCOS-III\Source/os_task.c ****         return;
1645:..\..\..\..\..\..\Software\uCOS-III\Source/os_task.c ****     }
1646:..\..\..\..\..\..\Software\uCOS-III\Source/os_task.c **** #endif
1647:..\..\..\..\..\..\Software\uCOS-III\Source/os_task.c **** 
1648:..\..\..\..\..\..\Software\uCOS-III\Source/os_task.c **** #if OS_CFG_CALLED_FROM_ISR_CHK_EN > 0u
1649:..\..\..\..\..\..\Software\uCOS-III\Source/os_task.c ****     if (OSIntNestingCtr > (OS_NESTING_CTR)0) {              /* See if trying to check stack from IS
 1467              		.loc 1 1649 0
 1468 0012 384B     		ldr	r3, .L112
 1469 0014 1B78     		ldrb	r3, [r3]
 1470 0016 002B     		cmp	r3, #0
 1471 0018 03D0     		beq	.L103
1650:..\..\..\..\..\..\Software\uCOS-III\Source/os_task.c ****        *p_err = OS_ERR_TASK_STK_CHK_ISR;
 1472              		.loc 1 1650 0
 1473 001a 3B68     		ldr	r3, [r7]
 1474 001c 364A     		ldr	r2, .L112+4
 1475 001e 1A80     		strh	r2, [r3]
1651:..\..\..\..\..\..\Software\uCOS-III\Source/os_task.c ****         return;
 1476              		.loc 1 1651 0
ARM GAS  C:\Users\EDULU~1.DES\AppData\Local\Temp\ccyhp2HA.s 			page 56


 1477 0020 65E0     		b	.L102
 1478              	.L103:
1652:..\..\..\..\..\..\Software\uCOS-III\Source/os_task.c ****     }
1653:..\..\..\..\..\..\Software\uCOS-III\Source/os_task.c **** #endif
1654:..\..\..\..\..\..\Software\uCOS-III\Source/os_task.c **** 
1655:..\..\..\..\..\..\Software\uCOS-III\Source/os_task.c **** #if OS_CFG_ARG_CHK_EN > 0u
1656:..\..\..\..\..\..\Software\uCOS-III\Source/os_task.c ****     if (p_free == (CPU_STK_SIZE*)0) {                       /* User must specify valid destinations
 1479              		.loc 1 1656 0
 1480 0022 BB68     		ldr	r3, [r7, #8]
 1481 0024 002B     		cmp	r3, #0
 1482 0026 03D1     		bne	.L105
1657:..\..\..\..\..\..\Software\uCOS-III\Source/os_task.c ****        *p_err  = OS_ERR_PTR_INVALID;
 1483              		.loc 1 1657 0
 1484 0028 3B68     		ldr	r3, [r7]
 1485 002a 344A     		ldr	r2, .L112+8
 1486 002c 1A80     		strh	r2, [r3]
1658:..\..\..\..\..\..\Software\uCOS-III\Source/os_task.c ****         return;
 1487              		.loc 1 1658 0
 1488 002e 5EE0     		b	.L102
 1489              	.L105:
1659:..\..\..\..\..\..\Software\uCOS-III\Source/os_task.c ****     }
1660:..\..\..\..\..\..\Software\uCOS-III\Source/os_task.c **** 
1661:..\..\..\..\..\..\Software\uCOS-III\Source/os_task.c ****     if (p_used == (CPU_STK_SIZE*)0) {
 1490              		.loc 1 1661 0
 1491 0030 7B68     		ldr	r3, [r7, #4]
 1492 0032 002B     		cmp	r3, #0
 1493 0034 03D1     		bne	.L106
1662:..\..\..\..\..\..\Software\uCOS-III\Source/os_task.c ****        *p_err  = OS_ERR_PTR_INVALID;
 1494              		.loc 1 1662 0
 1495 0036 3B68     		ldr	r3, [r7]
 1496 0038 304A     		ldr	r2, .L112+8
 1497 003a 1A80     		strh	r2, [r3]
1663:..\..\..\..\..\..\Software\uCOS-III\Source/os_task.c ****         return;
 1498              		.loc 1 1663 0
 1499 003c 57E0     		b	.L102
 1500              	.L106:
1664:..\..\..\..\..\..\Software\uCOS-III\Source/os_task.c ****     }
1665:..\..\..\..\..\..\Software\uCOS-III\Source/os_task.c **** #endif
1666:..\..\..\..\..\..\Software\uCOS-III\Source/os_task.c **** 
1667:..\..\..\..\..\..\Software\uCOS-III\Source/os_task.c ****     CPU_CRITICAL_ENTER();
 1501              		.loc 1 1667 0
 1502 003e FFF7FEFF 		bl	CPU_SR_Save
 1503 0042 0300     		movs	r3, r0
 1504 0044 7B61     		str	r3, [r7, #20]
 1505 0046 FFF7FEFF 		bl	CPU_IntDisMeasStart
1668:..\..\..\..\..\..\Software\uCOS-III\Source/os_task.c ****     if (p_tcb == (OS_TCB *)0) {                             /* Check the stack of the current task?
 1506              		.loc 1 1668 0
 1507 004a FB68     		ldr	r3, [r7, #12]
 1508 004c 002B     		cmp	r3, #0
 1509 004e 02D1     		bne	.L107
1669:..\..\..\..\..\..\Software\uCOS-III\Source/os_task.c ****         p_tcb = OSTCBCurPtr;                                /* Yes                                 
 1510              		.loc 1 1669 0
 1511 0050 2B4B     		ldr	r3, .L112+12
 1512 0052 1B68     		ldr	r3, [r3]
 1513 0054 FB60     		str	r3, [r7, #12]
 1514              	.L107:
1670:..\..\..\..\..\..\Software\uCOS-III\Source/os_task.c ****     }
ARM GAS  C:\Users\EDULU~1.DES\AppData\Local\Temp\ccyhp2HA.s 			page 57


1671:..\..\..\..\..\..\Software\uCOS-III\Source/os_task.c **** 
1672:..\..\..\..\..\..\Software\uCOS-III\Source/os_task.c ****     if (p_tcb->StkPtr == (CPU_STK*)0) {                     /* Make sure task exist                
 1515              		.loc 1 1672 0
 1516 0056 FB68     		ldr	r3, [r7, #12]
 1517 0058 1B68     		ldr	r3, [r3]
 1518 005a 002B     		cmp	r3, #0
 1519 005c 0FD1     		bne	.L108
1673:..\..\..\..\..\..\Software\uCOS-III\Source/os_task.c ****         CPU_CRITICAL_EXIT();
 1520              		.loc 1 1673 0
 1521 005e FFF7FEFF 		bl	CPU_IntDisMeasStop
 1522 0062 7B69     		ldr	r3, [r7, #20]
 1523 0064 1800     		movs	r0, r3
 1524 0066 FFF7FEFF 		bl	CPU_SR_Restore
1674:..\..\..\..\..\..\Software\uCOS-III\Source/os_task.c ****        *p_free = (CPU_STK_SIZE)0;
 1525              		.loc 1 1674 0
 1526 006a BB68     		ldr	r3, [r7, #8]
 1527 006c 0022     		movs	r2, #0
 1528 006e 1A60     		str	r2, [r3]
1675:..\..\..\..\..\..\Software\uCOS-III\Source/os_task.c ****        *p_used = (CPU_STK_SIZE)0;
 1529              		.loc 1 1675 0
 1530 0070 7B68     		ldr	r3, [r7, #4]
 1531 0072 0022     		movs	r2, #0
 1532 0074 1A60     		str	r2, [r3]
1676:..\..\..\..\..\..\Software\uCOS-III\Source/os_task.c ****        *p_err  =  OS_ERR_TASK_NOT_EXIST;
 1533              		.loc 1 1676 0
 1534 0076 3B68     		ldr	r3, [r7]
 1535 0078 224A     		ldr	r2, .L112+16
 1536 007a 1A80     		strh	r2, [r3]
1677:..\..\..\..\..\..\Software\uCOS-III\Source/os_task.c ****         return;
 1537              		.loc 1 1677 0
 1538 007c 37E0     		b	.L102
 1539              	.L108:
1678:..\..\..\..\..\..\Software\uCOS-III\Source/os_task.c ****     }
1679:..\..\..\..\..\..\Software\uCOS-III\Source/os_task.c **** 
1680:..\..\..\..\..\..\Software\uCOS-III\Source/os_task.c ****     if ((p_tcb->Opt & OS_OPT_TASK_STK_CHK) == (OS_OPT)0) {  /* Make sure stack checking option is s
 1540              		.loc 1 1680 0
 1541 007e FB68     		ldr	r3, [r7, #12]
 1542 0080 9B8F     		ldrh	r3, [r3, #60]
 1543 0082 1A00     		movs	r2, r3
 1544 0084 0123     		movs	r3, #1
 1545 0086 1340     		ands	r3, r2
 1546 0088 0FD1     		bne	.L109
1681:..\..\..\..\..\..\Software\uCOS-III\Source/os_task.c ****         CPU_CRITICAL_EXIT();
 1547              		.loc 1 1681 0
 1548 008a FFF7FEFF 		bl	CPU_IntDisMeasStop
 1549 008e 7B69     		ldr	r3, [r7, #20]
 1550 0090 1800     		movs	r0, r3
 1551 0092 FFF7FEFF 		bl	CPU_SR_Restore
1682:..\..\..\..\..\..\Software\uCOS-III\Source/os_task.c ****        *p_free = (CPU_STK_SIZE)0;
 1552              		.loc 1 1682 0
 1553 0096 BB68     		ldr	r3, [r7, #8]
 1554 0098 0022     		movs	r2, #0
 1555 009a 1A60     		str	r2, [r3]
1683:..\..\..\..\..\..\Software\uCOS-III\Source/os_task.c ****        *p_used = (CPU_STK_SIZE)0;
 1556              		.loc 1 1683 0
 1557 009c 7B68     		ldr	r3, [r7, #4]
 1558 009e 0022     		movs	r2, #0
ARM GAS  C:\Users\EDULU~1.DES\AppData\Local\Temp\ccyhp2HA.s 			page 58


 1559 00a0 1A60     		str	r2, [r3]
1684:..\..\..\..\..\..\Software\uCOS-III\Source/os_task.c ****        *p_err  =  OS_ERR_TASK_OPT;
 1560              		.loc 1 1684 0
 1561 00a2 3B68     		ldr	r3, [r7]
 1562 00a4 184A     		ldr	r2, .L112+20
 1563 00a6 1A80     		strh	r2, [r3]
1685:..\..\..\..\..\..\Software\uCOS-III\Source/os_task.c ****         return;
 1564              		.loc 1 1685 0
 1565 00a8 21E0     		b	.L102
 1566              	.L109:
1686:..\..\..\..\..\..\Software\uCOS-III\Source/os_task.c ****     }
1687:..\..\..\..\..\..\Software\uCOS-III\Source/os_task.c ****     CPU_CRITICAL_EXIT();
 1567              		.loc 1 1687 0
 1568 00aa FFF7FEFF 		bl	CPU_IntDisMeasStop
 1569 00ae 7B69     		ldr	r3, [r7, #20]
 1570 00b0 1800     		movs	r0, r3
 1571 00b2 FFF7FEFF 		bl	CPU_SR_Restore
1688:..\..\..\..\..\..\Software\uCOS-III\Source/os_task.c **** 
1689:..\..\..\..\..\..\Software\uCOS-III\Source/os_task.c ****     free_stk  = 0u;
 1572              		.loc 1 1689 0
 1573 00b6 0023     		movs	r3, #0
 1574 00b8 FB61     		str	r3, [r7, #28]
1690:..\..\..\..\..\..\Software\uCOS-III\Source/os_task.c **** #if CPU_CFG_STK_GROWTH == CPU_STK_GROWTH_HI_TO_LO
1691:..\..\..\..\..\..\Software\uCOS-III\Source/os_task.c ****     p_stk = p_tcb->StkBasePtr;                              /* Start at the lowest memory and go up
 1575              		.loc 1 1691 0
 1576 00ba FB68     		ldr	r3, [r7, #12]
 1577 00bc 5B6A     		ldr	r3, [r3, #36]
 1578 00be BB61     		str	r3, [r7, #24]
1692:..\..\..\..\..\..\Software\uCOS-III\Source/os_task.c ****     while (*p_stk == (CPU_STK)0) {                          /* Compute the number of zero entries o
 1579              		.loc 1 1692 0
 1580 00c0 05E0     		b	.L110
 1581              	.L111:
1693:..\..\..\..\..\..\Software\uCOS-III\Source/os_task.c ****         p_stk++;
 1582              		.loc 1 1693 0
 1583 00c2 BB69     		ldr	r3, [r7, #24]
 1584 00c4 0433     		adds	r3, r3, #4
 1585 00c6 BB61     		str	r3, [r7, #24]
1694:..\..\..\..\..\..\Software\uCOS-III\Source/os_task.c ****         free_stk++;
 1586              		.loc 1 1694 0
 1587 00c8 FB69     		ldr	r3, [r7, #28]
 1588 00ca 0133     		adds	r3, r3, #1
 1589 00cc FB61     		str	r3, [r7, #28]
 1590              	.L110:
1692:..\..\..\..\..\..\Software\uCOS-III\Source/os_task.c ****     while (*p_stk == (CPU_STK)0) {                          /* Compute the number of zero entries o
 1591              		.loc 1 1692 0
 1592 00ce BB69     		ldr	r3, [r7, #24]
 1593 00d0 1B68     		ldr	r3, [r3]
 1594 00d2 002B     		cmp	r3, #0
 1595 00d4 F5D0     		beq	.L111
1695:..\..\..\..\..\..\Software\uCOS-III\Source/os_task.c ****     }
1696:..\..\..\..\..\..\Software\uCOS-III\Source/os_task.c **** #else
1697:..\..\..\..\..\..\Software\uCOS-III\Source/os_task.c ****     p_stk = p_tcb->StkBasePtr + p_tcb->StkSize - 1u;        /* Start at the highest memory and go d
1698:..\..\..\..\..\..\Software\uCOS-III\Source/os_task.c ****     while (*p_stk == (CPU_STK)0) {
1699:..\..\..\..\..\..\Software\uCOS-III\Source/os_task.c ****         free_stk++;
1700:..\..\..\..\..\..\Software\uCOS-III\Source/os_task.c ****         p_stk--;
1701:..\..\..\..\..\..\Software\uCOS-III\Source/os_task.c ****     }
1702:..\..\..\..\..\..\Software\uCOS-III\Source/os_task.c **** #endif
ARM GAS  C:\Users\EDULU~1.DES\AppData\Local\Temp\ccyhp2HA.s 			page 59


1703:..\..\..\..\..\..\Software\uCOS-III\Source/os_task.c ****    *p_free = free_stk;
 1596              		.loc 1 1703 0
 1597 00d6 BB68     		ldr	r3, [r7, #8]
 1598 00d8 FA69     		ldr	r2, [r7, #28]
 1599 00da 1A60     		str	r2, [r3]
1704:..\..\..\..\..\..\Software\uCOS-III\Source/os_task.c ****    *p_used = (p_tcb->StkSize - free_stk);                   /* Compute number of entries used on th
 1600              		.loc 1 1704 0
 1601 00dc FB68     		ldr	r3, [r7, #12]
 1602 00de 9A6B     		ldr	r2, [r3, #56]
 1603 00e0 FB69     		ldr	r3, [r7, #28]
 1604 00e2 D21A     		subs	r2, r2, r3
 1605 00e4 7B68     		ldr	r3, [r7, #4]
 1606 00e6 1A60     		str	r2, [r3]
1705:..\..\..\..\..\..\Software\uCOS-III\Source/os_task.c ****    *p_err  = OS_ERR_NONE;
 1607              		.loc 1 1705 0
 1608 00e8 3B68     		ldr	r3, [r7]
 1609 00ea 0022     		movs	r2, #0
 1610 00ec 1A80     		strh	r2, [r3]
 1611              	.L102:
1706:..\..\..\..\..\..\Software\uCOS-III\Source/os_task.c **** }
 1612              		.loc 1 1706 0
 1613 00ee BD46     		mov	sp, r7
 1614 00f0 08B0     		add	sp, sp, #32
 1615              		@ sp needed
 1616 00f2 80BD     		pop	{r7, pc}
 1617              	.L113:
 1618              		.align	2
 1619              	.L112:
 1620 00f4 00000000 		.word	OSIntNestingCtr
 1621 00f8 59710000 		.word	29017
 1622 00fc D5620000 		.word	25301
 1623 0100 00000000 		.word	OSTCBCurPtr
 1624 0104 52710000 		.word	29010
 1625 0108 54710000 		.word	29012
 1626              		.cfi_endproc
 1627              	.LFE10:
 1628              		.size	OSTaskStkChk, .-OSTaskStkChk
 1629              		.section	.text.OSTaskSuspend,"ax",%progbits
 1630              		.align	2
 1631              		.global	OSTaskSuspend
 1632              		.code	16
 1633              		.thumb_func
 1634              		.type	OSTaskSuspend, %function
 1635              	OSTaskSuspend:
 1636              	.LFB11:
1707:..\..\..\..\..\..\Software\uCOS-III\Source/os_task.c **** #endif
1708:..\..\..\..\..\..\Software\uCOS-III\Source/os_task.c **** 
1709:..\..\..\..\..\..\Software\uCOS-III\Source/os_task.c **** /*$PAGE*/
1710:..\..\..\..\..\..\Software\uCOS-III\Source/os_task.c **** /*
1711:..\..\..\..\..\..\Software\uCOS-III\Source/os_task.c **** ***************************************************************************************************
1712:..\..\..\..\..\..\Software\uCOS-III\Source/os_task.c **** *                                                   SUSPEND A TASK
1713:..\..\..\..\..\..\Software\uCOS-III\Source/os_task.c **** *
1714:..\..\..\..\..\..\Software\uCOS-III\Source/os_task.c **** * Description: This function is called to suspend a task.  The task can be the calling task if 'p_t
1715:..\..\..\..\..\..\Software\uCOS-III\Source/os_task.c **** *              or the pointer to the TCB of the calling task.
1716:..\..\..\..\..\..\Software\uCOS-III\Source/os_task.c **** *
1717:..\..\..\..\..\..\Software\uCOS-III\Source/os_task.c **** * Arguments  : p_tcb    is a pointer to the TCB to suspend.
1718:..\..\..\..\..\..\Software\uCOS-III\Source/os_task.c **** *                       If p_tcb is a NULL pointer then, suspend the current task.
ARM GAS  C:\Users\EDULU~1.DES\AppData\Local\Temp\ccyhp2HA.s 			page 60


1719:..\..\..\..\..\..\Software\uCOS-III\Source/os_task.c **** *
1720:..\..\..\..\..\..\Software\uCOS-III\Source/os_task.c **** *              p_err    is a pointer to a variable that will receive an error code from this functi
1721:..\..\..\..\..\..\Software\uCOS-III\Source/os_task.c **** *
1722:..\..\..\..\..\..\Software\uCOS-III\Source/os_task.c **** *                           OS_ERR_NONE                      if the requested task is suspended
1723:..\..\..\..\..\..\Software\uCOS-III\Source/os_task.c **** *                           OS_ERR_SCHED_LOCKED              you can't suspend the current task is 
1724:..\..\..\..\..\..\Software\uCOS-III\Source/os_task.c **** *                                                            locked
1725:..\..\..\..\..\..\Software\uCOS-III\Source/os_task.c **** *                           OS_ERR_TASK_SUSPEND_ISR          if you called this function from an IS
1726:..\..\..\..\..\..\Software\uCOS-III\Source/os_task.c **** *                           OS_ERR_TASK_SUSPEND_IDLE         if you attempted to suspend the idle t
1727:..\..\..\..\..\..\Software\uCOS-III\Source/os_task.c **** *                                                            allowed.
1728:..\..\..\..\..\..\Software\uCOS-III\Source/os_task.c **** *                           OS_ERR_TASK_SUSPEND_INT_HANDLER  if you attempted to suspend the idle t
1729:..\..\..\..\..\..\Software\uCOS-III\Source/os_task.c **** *                                                            allowed.
1730:..\..\..\..\..\..\Software\uCOS-III\Source/os_task.c **** *
1731:..\..\..\..\..\..\Software\uCOS-III\Source/os_task.c **** * Note(s)    : 1) You should use this function with great care.  If you suspend a task that is wait
1732:..\..\..\..\..\..\Software\uCOS-III\Source/os_task.c **** *                 (i.e. a message, a semaphore, a queue ...) you will prevent this task from runnin
1733:..\..\..\..\..\..\Software\uCOS-III\Source/os_task.c **** *                 arrives.
1734:..\..\..\..\..\..\Software\uCOS-III\Source/os_task.c **** ***************************************************************************************************
1735:..\..\..\..\..\..\Software\uCOS-III\Source/os_task.c **** */
1736:..\..\..\..\..\..\Software\uCOS-III\Source/os_task.c **** 
1737:..\..\..\..\..\..\Software\uCOS-III\Source/os_task.c **** #if OS_CFG_TASK_SUSPEND_EN > 0u
1738:..\..\..\..\..\..\Software\uCOS-III\Source/os_task.c **** void   OSTaskSuspend (OS_TCB  *p_tcb,
1739:..\..\..\..\..\..\Software\uCOS-III\Source/os_task.c ****                       OS_ERR  *p_err)
1740:..\..\..\..\..\..\Software\uCOS-III\Source/os_task.c **** {
 1637              		.loc 1 1740 0
 1638              		.cfi_startproc
 1639              		@ args = 0, pretend = 0, frame = 8
 1640              		@ frame_needed = 1, uses_anonymous_args = 0
 1641 0000 80B5     		push	{r7, lr}
 1642              		.cfi_def_cfa_offset 8
 1643              		.cfi_offset 7, -8
 1644              		.cfi_offset 14, -4
 1645 0002 82B0     		sub	sp, sp, #8
 1646              		.cfi_def_cfa_offset 16
 1647 0004 00AF     		add	r7, sp, #0
 1648              		.cfi_def_cfa_register 7
 1649 0006 7860     		str	r0, [r7, #4]
 1650 0008 3960     		str	r1, [r7]
1741:..\..\..\..\..\..\Software\uCOS-III\Source/os_task.c **** #ifdef OS_SAFETY_CRITICAL
1742:..\..\..\..\..\..\Software\uCOS-III\Source/os_task.c ****     if (p_err == (OS_ERR *)0) {
1743:..\..\..\..\..\..\Software\uCOS-III\Source/os_task.c ****         OS_SAFETY_CRITICAL_EXCEPTION();
1744:..\..\..\..\..\..\Software\uCOS-III\Source/os_task.c ****         return;
1745:..\..\..\..\..\..\Software\uCOS-III\Source/os_task.c ****     }
1746:..\..\..\..\..\..\Software\uCOS-III\Source/os_task.c **** #endif
1747:..\..\..\..\..\..\Software\uCOS-III\Source/os_task.c **** 
1748:..\..\..\..\..\..\Software\uCOS-III\Source/os_task.c **** #if (OS_CFG_ISR_POST_DEFERRED_EN   == 0u) && \
1749:..\..\..\..\..\..\Software\uCOS-III\Source/os_task.c ****     (OS_CFG_CALLED_FROM_ISR_CHK_EN >  0u)
1750:..\..\..\..\..\..\Software\uCOS-III\Source/os_task.c ****     if (OSIntNestingCtr > (OS_NESTING_CTR)0) {              /* Not allowed to call from an ISR     
 1651              		.loc 1 1750 0
 1652 000a 0C4B     		ldr	r3, .L118
 1653 000c 1B78     		ldrb	r3, [r3]
 1654 000e 002B     		cmp	r3, #0
 1655 0010 03D0     		beq	.L115
1751:..\..\..\..\..\..\Software\uCOS-III\Source/os_task.c ****        *p_err = OS_ERR_TASK_SUSPEND_ISR;
 1656              		.loc 1 1751 0
 1657 0012 3B68     		ldr	r3, [r7]
 1658 0014 0A4A     		ldr	r2, .L118+4
 1659 0016 1A80     		strh	r2, [r3]
1752:..\..\..\..\..\..\Software\uCOS-III\Source/os_task.c ****         return;
ARM GAS  C:\Users\EDULU~1.DES\AppData\Local\Temp\ccyhp2HA.s 			page 61


 1660              		.loc 1 1752 0
 1661 0018 0DE0     		b	.L114
 1662              	.L115:
1753:..\..\..\..\..\..\Software\uCOS-III\Source/os_task.c ****     }
1754:..\..\..\..\..\..\Software\uCOS-III\Source/os_task.c **** #endif
1755:..\..\..\..\..\..\Software\uCOS-III\Source/os_task.c **** 
1756:..\..\..\..\..\..\Software\uCOS-III\Source/os_task.c ****     if (p_tcb == &OSIdleTaskTCB) {                          /* Make sure not suspending the idle ta
 1663              		.loc 1 1756 0
 1664 001a 7A68     		ldr	r2, [r7, #4]
 1665 001c 094B     		ldr	r3, .L118+8
 1666 001e 9A42     		cmp	r2, r3
 1667 0020 03D1     		bne	.L117
1757:..\..\..\..\..\..\Software\uCOS-III\Source/os_task.c ****        *p_err = OS_ERR_TASK_SUSPEND_IDLE;
 1668              		.loc 1 1757 0
 1669 0022 3B68     		ldr	r3, [r7]
 1670 0024 084A     		ldr	r2, .L118+12
 1671 0026 1A80     		strh	r2, [r3]
1758:..\..\..\..\..\..\Software\uCOS-III\Source/os_task.c ****         return;
 1672              		.loc 1 1758 0
 1673 0028 05E0     		b	.L114
 1674              	.L117:
1759:..\..\..\..\..\..\Software\uCOS-III\Source/os_task.c ****     }
1760:..\..\..\..\..\..\Software\uCOS-III\Source/os_task.c **** 
1761:..\..\..\..\..\..\Software\uCOS-III\Source/os_task.c **** #if OS_CFG_ISR_POST_DEFERRED_EN > 0u
1762:..\..\..\..\..\..\Software\uCOS-III\Source/os_task.c ****     if (p_tcb == &OSIntQTaskTCB) {                          /* Not allowed to suspend the ISR handl
1763:..\..\..\..\..\..\Software\uCOS-III\Source/os_task.c ****        *p_err = OS_ERR_TASK_SUSPEND_INT_HANDLER;
1764:..\..\..\..\..\..\Software\uCOS-III\Source/os_task.c ****         return;
1765:..\..\..\..\..\..\Software\uCOS-III\Source/os_task.c ****     }
1766:..\..\..\..\..\..\Software\uCOS-III\Source/os_task.c **** 
1767:..\..\..\..\..\..\Software\uCOS-III\Source/os_task.c ****     if (OSIntNestingCtr > (OS_NESTING_CTR)0) {              /* See if called from an ISR           
1768:..\..\..\..\..\..\Software\uCOS-III\Source/os_task.c ****         OS_IntQPost((OS_OBJ_TYPE)OS_OBJ_TYPE_TASK_SUSPEND,  /* Post to ISR queue                   
1769:..\..\..\..\..\..\Software\uCOS-III\Source/os_task.c ****                     (void      *)p_tcb,
1770:..\..\..\..\..\..\Software\uCOS-III\Source/os_task.c ****                     (void      *)0,
1771:..\..\..\..\..\..\Software\uCOS-III\Source/os_task.c ****                     (OS_MSG_SIZE)0,
1772:..\..\..\..\..\..\Software\uCOS-III\Source/os_task.c ****                     (OS_FLAGS   )0,
1773:..\..\..\..\..\..\Software\uCOS-III\Source/os_task.c ****                     (OS_OPT     )0,
1774:..\..\..\..\..\..\Software\uCOS-III\Source/os_task.c ****                     (CPU_TS     )0,
1775:..\..\..\..\..\..\Software\uCOS-III\Source/os_task.c ****                     (OS_ERR    *)p_err);
1776:..\..\..\..\..\..\Software\uCOS-III\Source/os_task.c ****         return;
1777:..\..\..\..\..\..\Software\uCOS-III\Source/os_task.c ****     }
1778:..\..\..\..\..\..\Software\uCOS-III\Source/os_task.c **** #endif
1779:..\..\..\..\..\..\Software\uCOS-III\Source/os_task.c **** 
1780:..\..\..\..\..\..\Software\uCOS-III\Source/os_task.c ****     OS_TaskSuspend(p_tcb, p_err);
 1675              		.loc 1 1780 0
 1676 002a 3A68     		ldr	r2, [r7]
 1677 002c 7B68     		ldr	r3, [r7, #4]
 1678 002e 1100     		movs	r1, r2
 1679 0030 1800     		movs	r0, r3
 1680 0032 FFF7FEFF 		bl	OS_TaskSuspend
 1681              	.L114:
1781:..\..\..\..\..\..\Software\uCOS-III\Source/os_task.c **** }
 1682              		.loc 1 1781 0
 1683 0036 BD46     		mov	sp, r7
 1684 0038 02B0     		add	sp, sp, #8
 1685              		@ sp needed
 1686 003a 80BD     		pop	{r7, pc}
 1687              	.L119:
ARM GAS  C:\Users\EDULU~1.DES\AppData\Local\Temp\ccyhp2HA.s 			page 62


 1688              		.align	2
 1689              	.L118:
 1690 003c 00000000 		.word	OSIntNestingCtr
 1691 0040 5D710000 		.word	29021
 1692 0044 00000000 		.word	OSIdleTaskTCB
 1693 0048 5B710000 		.word	29019
 1694              		.cfi_endproc
 1695              	.LFE11:
 1696              		.size	OSTaskSuspend, .-OSTaskSuspend
 1697              		.section	.text.OS_TaskDbgListAdd,"ax",%progbits
 1698              		.align	2
 1699              		.global	OS_TaskDbgListAdd
 1700              		.code	16
 1701              		.thumb_func
 1702              		.type	OS_TaskDbgListAdd, %function
 1703              	OS_TaskDbgListAdd:
 1704              	.LFB12:
1782:..\..\..\..\..\..\Software\uCOS-III\Source/os_task.c **** #endif
1783:..\..\..\..\..\..\Software\uCOS-III\Source/os_task.c **** 
1784:..\..\..\..\..\..\Software\uCOS-III\Source/os_task.c **** /*$PAGE*/
1785:..\..\..\..\..\..\Software\uCOS-III\Source/os_task.c **** /*
1786:..\..\..\..\..\..\Software\uCOS-III\Source/os_task.c **** ***************************************************************************************************
1787:..\..\..\..\..\..\Software\uCOS-III\Source/os_task.c **** *                                                CHANGE A TASK'S TIME SLICE
1788:..\..\..\..\..\..\Software\uCOS-III\Source/os_task.c **** *
1789:..\..\..\..\..\..\Software\uCOS-III\Source/os_task.c **** * Description: This function is called to change the value of the task's specific time slice.
1790:..\..\..\..\..\..\Software\uCOS-III\Source/os_task.c **** *
1791:..\..\..\..\..\..\Software\uCOS-III\Source/os_task.c **** * Arguments  : p_tcb        is the pointer to the TCB of the task to change. If you specify an NULL
1792:..\..\..\..\..\..\Software\uCOS-III\Source/os_task.c **** *                           task is assumed.
1793:..\..\..\..\..\..\Software\uCOS-III\Source/os_task.c **** *
1794:..\..\..\..\..\..\Software\uCOS-III\Source/os_task.c **** *              time_quanta  is the number of ticks before the CPU is taken away when round-robin sc
1795:..\..\..\..\..\..\Software\uCOS-III\Source/os_task.c **** *
1796:..\..\..\..\..\..\Software\uCOS-III\Source/os_task.c **** *              p_err        is a pointer to an error code returned by this function:
1797:..\..\..\..\..\..\Software\uCOS-III\Source/os_task.c **** *
1798:..\..\..\..\..\..\Software\uCOS-III\Source/os_task.c **** *                               OS_ERR_NONE       upon success
1799:..\..\..\..\..\..\Software\uCOS-III\Source/os_task.c **** *                               OS_ERR_SET_ISR    if you called this function from an ISR
1800:..\..\..\..\..\..\Software\uCOS-III\Source/os_task.c **** *
1801:..\..\..\..\..\..\Software\uCOS-III\Source/os_task.c **** * Returns    : none
1802:..\..\..\..\..\..\Software\uCOS-III\Source/os_task.c **** ***************************************************************************************************
1803:..\..\..\..\..\..\Software\uCOS-III\Source/os_task.c **** */
1804:..\..\..\..\..\..\Software\uCOS-III\Source/os_task.c **** 
1805:..\..\..\..\..\..\Software\uCOS-III\Source/os_task.c **** #if OS_CFG_SCHED_ROUND_ROBIN_EN > 0u
1806:..\..\..\..\..\..\Software\uCOS-III\Source/os_task.c **** void  OSTaskTimeQuantaSet (OS_TCB   *p_tcb,
1807:..\..\..\..\..\..\Software\uCOS-III\Source/os_task.c ****                            OS_TICK   time_quanta,
1808:..\..\..\..\..\..\Software\uCOS-III\Source/os_task.c ****                            OS_ERR   *p_err)
1809:..\..\..\..\..\..\Software\uCOS-III\Source/os_task.c **** {
1810:..\..\..\..\..\..\Software\uCOS-III\Source/os_task.c ****     CPU_SR_ALLOC();
1811:..\..\..\..\..\..\Software\uCOS-III\Source/os_task.c **** 
1812:..\..\..\..\..\..\Software\uCOS-III\Source/os_task.c **** 
1813:..\..\..\..\..\..\Software\uCOS-III\Source/os_task.c **** 
1814:..\..\..\..\..\..\Software\uCOS-III\Source/os_task.c **** #ifdef OS_SAFETY_CRITICAL
1815:..\..\..\..\..\..\Software\uCOS-III\Source/os_task.c ****     if (p_err == (OS_ERR *)0) {
1816:..\..\..\..\..\..\Software\uCOS-III\Source/os_task.c ****         OS_SAFETY_CRITICAL_EXCEPTION();
1817:..\..\..\..\..\..\Software\uCOS-III\Source/os_task.c ****         return;
1818:..\..\..\..\..\..\Software\uCOS-III\Source/os_task.c ****     }
1819:..\..\..\..\..\..\Software\uCOS-III\Source/os_task.c **** #endif
1820:..\..\..\..\..\..\Software\uCOS-III\Source/os_task.c **** 
1821:..\..\..\..\..\..\Software\uCOS-III\Source/os_task.c **** #if OS_CFG_CALLED_FROM_ISR_CHK_EN > 0u
ARM GAS  C:\Users\EDULU~1.DES\AppData\Local\Temp\ccyhp2HA.s 			page 63


1822:..\..\..\..\..\..\Software\uCOS-III\Source/os_task.c ****     if (OSIntNestingCtr > (OS_NESTING_CTR)0) {              /* Can't call this function from an ISR
1823:..\..\..\..\..\..\Software\uCOS-III\Source/os_task.c ****        *p_err = OS_ERR_SET_ISR;
1824:..\..\..\..\..\..\Software\uCOS-III\Source/os_task.c ****         return;
1825:..\..\..\..\..\..\Software\uCOS-III\Source/os_task.c ****     }
1826:..\..\..\..\..\..\Software\uCOS-III\Source/os_task.c **** #endif
1827:..\..\..\..\..\..\Software\uCOS-III\Source/os_task.c **** 
1828:..\..\..\..\..\..\Software\uCOS-III\Source/os_task.c ****     CPU_CRITICAL_ENTER();
1829:..\..\..\..\..\..\Software\uCOS-III\Source/os_task.c ****     if (p_tcb == (OS_TCB *)0) {
1830:..\..\..\..\..\..\Software\uCOS-III\Source/os_task.c ****         p_tcb = OSTCBCurPtr;
1831:..\..\..\..\..\..\Software\uCOS-III\Source/os_task.c ****     }
1832:..\..\..\..\..\..\Software\uCOS-III\Source/os_task.c **** 
1833:..\..\..\..\..\..\Software\uCOS-III\Source/os_task.c ****     if (time_quanta == 0u) {
1834:..\..\..\..\..\..\Software\uCOS-III\Source/os_task.c ****         p_tcb->TimeQuanta    = OSSchedRoundRobinDfltTimeQuanta;
1835:..\..\..\..\..\..\Software\uCOS-III\Source/os_task.c ****     } else {
1836:..\..\..\..\..\..\Software\uCOS-III\Source/os_task.c ****         p_tcb->TimeQuanta    = time_quanta;
1837:..\..\..\..\..\..\Software\uCOS-III\Source/os_task.c ****     }
1838:..\..\..\..\..\..\Software\uCOS-III\Source/os_task.c ****     if (p_tcb->TimeQuanta > p_tcb->TimeQuantaCtr) {
1839:..\..\..\..\..\..\Software\uCOS-III\Source/os_task.c ****         p_tcb->TimeQuantaCtr = p_tcb->TimeQuanta;
1840:..\..\..\..\..\..\Software\uCOS-III\Source/os_task.c ****     }
1841:..\..\..\..\..\..\Software\uCOS-III\Source/os_task.c ****     CPU_CRITICAL_EXIT();
1842:..\..\..\..\..\..\Software\uCOS-III\Source/os_task.c ****    *p_err = OS_ERR_NONE;
1843:..\..\..\..\..\..\Software\uCOS-III\Source/os_task.c **** }
1844:..\..\..\..\..\..\Software\uCOS-III\Source/os_task.c **** #endif
1845:..\..\..\..\..\..\Software\uCOS-III\Source/os_task.c **** 
1846:..\..\..\..\..\..\Software\uCOS-III\Source/os_task.c **** /*$PAGE*/
1847:..\..\..\..\..\..\Software\uCOS-III\Source/os_task.c **** /*
1848:..\..\..\..\..\..\Software\uCOS-III\Source/os_task.c **** ***************************************************************************************************
1849:..\..\..\..\..\..\Software\uCOS-III\Source/os_task.c **** *                                            ADD/REMOVE TASK TO/FROM DEBUG LIST
1850:..\..\..\..\..\..\Software\uCOS-III\Source/os_task.c **** *
1851:..\..\..\..\..\..\Software\uCOS-III\Source/os_task.c **** * Description: These functions are called by uC/OS-III to add or remove an OS_TCB from the debug li
1852:..\..\..\..\..\..\Software\uCOS-III\Source/os_task.c **** *
1853:..\..\..\..\..\..\Software\uCOS-III\Source/os_task.c **** * Arguments  : p_tcb     is a pointer to the OS_TCB to add/remove
1854:..\..\..\..\..\..\Software\uCOS-III\Source/os_task.c **** *
1855:..\..\..\..\..\..\Software\uCOS-III\Source/os_task.c **** * Returns    : none
1856:..\..\..\..\..\..\Software\uCOS-III\Source/os_task.c **** *
1857:..\..\..\..\..\..\Software\uCOS-III\Source/os_task.c **** * Note(s)    : These functions are INTERNAL to uC/OS-III and your application should not call it.
1858:..\..\..\..\..\..\Software\uCOS-III\Source/os_task.c **** ***************************************************************************************************
1859:..\..\..\..\..\..\Software\uCOS-III\Source/os_task.c **** */
1860:..\..\..\..\..\..\Software\uCOS-III\Source/os_task.c **** 
1861:..\..\..\..\..\..\Software\uCOS-III\Source/os_task.c **** #if OS_CFG_DBG_EN > 0u
1862:..\..\..\..\..\..\Software\uCOS-III\Source/os_task.c **** void  OS_TaskDbgListAdd (OS_TCB  *p_tcb)
1863:..\..\..\..\..\..\Software\uCOS-III\Source/os_task.c **** {
 1705              		.loc 1 1863 0
 1706              		.cfi_startproc
 1707              		@ args = 0, pretend = 0, frame = 8
 1708              		@ frame_needed = 1, uses_anonymous_args = 0
 1709 0000 80B5     		push	{r7, lr}
 1710              		.cfi_def_cfa_offset 8
 1711              		.cfi_offset 7, -8
 1712              		.cfi_offset 14, -4
 1713 0002 82B0     		sub	sp, sp, #8
 1714              		.cfi_def_cfa_offset 16
 1715 0004 00AF     		add	r7, sp, #0
 1716              		.cfi_def_cfa_register 7
 1717 0006 7860     		str	r0, [r7, #4]
1864:..\..\..\..\..\..\Software\uCOS-III\Source/os_task.c ****     p_tcb->DbgPrevPtr                = (OS_TCB *)0;
 1718              		.loc 1 1864 0
ARM GAS  C:\Users\EDULU~1.DES\AppData\Local\Temp\ccyhp2HA.s 			page 64


 1719 0008 7B68     		ldr	r3, [r7, #4]
 1720 000a 0022     		movs	r2, #0
 1721 000c 1A67     		str	r2, [r3, #112]
1865:..\..\..\..\..\..\Software\uCOS-III\Source/os_task.c ****     if (OSTaskDbgListPtr == (OS_TCB *)0) {
 1722              		.loc 1 1865 0
 1723 000e 0B4B     		ldr	r3, .L123
 1724 0010 1B68     		ldr	r3, [r3]
 1725 0012 002B     		cmp	r3, #0
 1726 0014 03D1     		bne	.L121
1866:..\..\..\..\..\..\Software\uCOS-III\Source/os_task.c ****         p_tcb->DbgNextPtr            = (OS_TCB *)0;
 1727              		.loc 1 1866 0
 1728 0016 7B68     		ldr	r3, [r7, #4]
 1729 0018 0022     		movs	r2, #0
 1730 001a 5A67     		str	r2, [r3, #116]
 1731 001c 07E0     		b	.L122
 1732              	.L121:
1867:..\..\..\..\..\..\Software\uCOS-III\Source/os_task.c ****     } else {
1868:..\..\..\..\..\..\Software\uCOS-III\Source/os_task.c ****         p_tcb->DbgNextPtr            =  OSTaskDbgListPtr;
 1733              		.loc 1 1868 0
 1734 001e 074B     		ldr	r3, .L123
 1735 0020 1A68     		ldr	r2, [r3]
 1736 0022 7B68     		ldr	r3, [r7, #4]
 1737 0024 5A67     		str	r2, [r3, #116]
1869:..\..\..\..\..\..\Software\uCOS-III\Source/os_task.c ****         OSTaskDbgListPtr->DbgPrevPtr =  p_tcb;
 1738              		.loc 1 1869 0
 1739 0026 054B     		ldr	r3, .L123
 1740 0028 1B68     		ldr	r3, [r3]
 1741 002a 7A68     		ldr	r2, [r7, #4]
 1742 002c 1A67     		str	r2, [r3, #112]
 1743              	.L122:
1870:..\..\..\..\..\..\Software\uCOS-III\Source/os_task.c ****     }
1871:..\..\..\..\..\..\Software\uCOS-III\Source/os_task.c ****     OSTaskDbgListPtr                 =  p_tcb;
 1744              		.loc 1 1871 0
 1745 002e 034B     		ldr	r3, .L123
 1746 0030 7A68     		ldr	r2, [r7, #4]
 1747 0032 1A60     		str	r2, [r3]
1872:..\..\..\..\..\..\Software\uCOS-III\Source/os_task.c **** }
 1748              		.loc 1 1872 0
 1749 0034 C046     		nop
 1750 0036 BD46     		mov	sp, r7
 1751 0038 02B0     		add	sp, sp, #8
 1752              		@ sp needed
 1753 003a 80BD     		pop	{r7, pc}
 1754              	.L124:
 1755              		.align	2
 1756              	.L123:
 1757 003c 00000000 		.word	OSTaskDbgListPtr
 1758              		.cfi_endproc
 1759              	.LFE12:
 1760              		.size	OS_TaskDbgListAdd, .-OS_TaskDbgListAdd
 1761              		.section	.text.OS_TaskDbgListRemove,"ax",%progbits
 1762              		.align	2
 1763              		.global	OS_TaskDbgListRemove
 1764              		.code	16
 1765              		.thumb_func
 1766              		.type	OS_TaskDbgListRemove, %function
 1767              	OS_TaskDbgListRemove:
ARM GAS  C:\Users\EDULU~1.DES\AppData\Local\Temp\ccyhp2HA.s 			page 65


 1768              	.LFB13:
1873:..\..\..\..\..\..\Software\uCOS-III\Source/os_task.c **** 
1874:..\..\..\..\..\..\Software\uCOS-III\Source/os_task.c **** 
1875:..\..\..\..\..\..\Software\uCOS-III\Source/os_task.c **** 
1876:..\..\..\..\..\..\Software\uCOS-III\Source/os_task.c **** void  OS_TaskDbgListRemove (OS_TCB  *p_tcb)
1877:..\..\..\..\..\..\Software\uCOS-III\Source/os_task.c **** {
 1769              		.loc 1 1877 0
 1770              		.cfi_startproc
 1771              		@ args = 0, pretend = 0, frame = 16
 1772              		@ frame_needed = 1, uses_anonymous_args = 0
 1773 0000 80B5     		push	{r7, lr}
 1774              		.cfi_def_cfa_offset 8
 1775              		.cfi_offset 7, -8
 1776              		.cfi_offset 14, -4
 1777 0002 84B0     		sub	sp, sp, #16
 1778              		.cfi_def_cfa_offset 24
 1779 0004 00AF     		add	r7, sp, #0
 1780              		.cfi_def_cfa_register 7
 1781 0006 7860     		str	r0, [r7, #4]
1878:..\..\..\..\..\..\Software\uCOS-III\Source/os_task.c ****     OS_TCB  *p_tcb_next;
1879:..\..\..\..\..\..\Software\uCOS-III\Source/os_task.c ****     OS_TCB  *p_tcb_prev;
1880:..\..\..\..\..\..\Software\uCOS-III\Source/os_task.c **** 
1881:..\..\..\..\..\..\Software\uCOS-III\Source/os_task.c **** 
1882:..\..\..\..\..\..\Software\uCOS-III\Source/os_task.c ****     p_tcb_prev = p_tcb->DbgPrevPtr;
 1782              		.loc 1 1882 0
 1783 0008 7B68     		ldr	r3, [r7, #4]
 1784 000a 1B6F     		ldr	r3, [r3, #112]
 1785 000c FB60     		str	r3, [r7, #12]
1883:..\..\..\..\..\..\Software\uCOS-III\Source/os_task.c ****     p_tcb_next = p_tcb->DbgNextPtr;
 1786              		.loc 1 1883 0
 1787 000e 7B68     		ldr	r3, [r7, #4]
 1788 0010 5B6F     		ldr	r3, [r3, #116]
 1789 0012 BB60     		str	r3, [r7, #8]
1884:..\..\..\..\..\..\Software\uCOS-III\Source/os_task.c **** 
1885:..\..\..\..\..\..\Software\uCOS-III\Source/os_task.c ****     if (p_tcb_prev == (OS_TCB *)0) {
 1790              		.loc 1 1885 0
 1791 0014 FB68     		ldr	r3, [r7, #12]
 1792 0016 002B     		cmp	r3, #0
 1793 0018 0CD1     		bne	.L126
1886:..\..\..\..\..\..\Software\uCOS-III\Source/os_task.c ****         OSTaskDbgListPtr = p_tcb_next;
 1794              		.loc 1 1886 0
 1795 001a 134B     		ldr	r3, .L131
 1796 001c BA68     		ldr	r2, [r7, #8]
 1797 001e 1A60     		str	r2, [r3]
1887:..\..\..\..\..\..\Software\uCOS-III\Source/os_task.c ****         if (p_tcb_next != (OS_TCB *)0) {
 1798              		.loc 1 1887 0
 1799 0020 BB68     		ldr	r3, [r7, #8]
 1800 0022 002B     		cmp	r3, #0
 1801 0024 02D0     		beq	.L127
1888:..\..\..\..\..\..\Software\uCOS-III\Source/os_task.c ****             p_tcb_next->DbgPrevPtr = (OS_TCB *)0;
 1802              		.loc 1 1888 0
 1803 0026 BB68     		ldr	r3, [r7, #8]
 1804 0028 0022     		movs	r2, #0
 1805 002a 1A67     		str	r2, [r3, #112]
 1806              	.L127:
1889:..\..\..\..\..\..\Software\uCOS-III\Source/os_task.c ****         }
1890:..\..\..\..\..\..\Software\uCOS-III\Source/os_task.c ****         p_tcb->DbgNextPtr = (OS_TCB *)0;
ARM GAS  C:\Users\EDULU~1.DES\AppData\Local\Temp\ccyhp2HA.s 			page 66


 1807              		.loc 1 1890 0
 1808 002c 7B68     		ldr	r3, [r7, #4]
 1809 002e 0022     		movs	r2, #0
 1810 0030 5A67     		str	r2, [r3, #116]
1891:..\..\..\..\..\..\Software\uCOS-III\Source/os_task.c **** 
1892:..\..\..\..\..\..\Software\uCOS-III\Source/os_task.c ****     } else if (p_tcb_next == (OS_TCB *)0) {
1893:..\..\..\..\..\..\Software\uCOS-III\Source/os_task.c ****         p_tcb_prev->DbgNextPtr = (OS_TCB *)0;
1894:..\..\..\..\..\..\Software\uCOS-III\Source/os_task.c ****         p_tcb->DbgPrevPtr      = (OS_TCB *)0;
1895:..\..\..\..\..\..\Software\uCOS-III\Source/os_task.c **** 
1896:..\..\..\..\..\..\Software\uCOS-III\Source/os_task.c ****     } else {
1897:..\..\..\..\..\..\Software\uCOS-III\Source/os_task.c ****         p_tcb_prev->DbgNextPtr =  p_tcb_next;
1898:..\..\..\..\..\..\Software\uCOS-III\Source/os_task.c ****         p_tcb_next->DbgPrevPtr =  p_tcb_prev;
1899:..\..\..\..\..\..\Software\uCOS-III\Source/os_task.c ****         p_tcb->DbgNextPtr      = (OS_TCB *)0;
1900:..\..\..\..\..\..\Software\uCOS-III\Source/os_task.c ****         p_tcb->DbgPrevPtr      = (OS_TCB *)0;
1901:..\..\..\..\..\..\Software\uCOS-III\Source/os_task.c ****     }
1902:..\..\..\..\..\..\Software\uCOS-III\Source/os_task.c **** }
 1811              		.loc 1 1902 0
 1812 0032 15E0     		b	.L130
 1813              	.L126:
1892:..\..\..\..\..\..\Software\uCOS-III\Source/os_task.c ****         p_tcb_prev->DbgNextPtr = (OS_TCB *)0;
 1814              		.loc 1 1892 0
 1815 0034 BB68     		ldr	r3, [r7, #8]
 1816 0036 002B     		cmp	r3, #0
 1817 0038 06D1     		bne	.L129
1893:..\..\..\..\..\..\Software\uCOS-III\Source/os_task.c ****         p_tcb->DbgPrevPtr      = (OS_TCB *)0;
 1818              		.loc 1 1893 0
 1819 003a FB68     		ldr	r3, [r7, #12]
 1820 003c 0022     		movs	r2, #0
 1821 003e 5A67     		str	r2, [r3, #116]
1894:..\..\..\..\..\..\Software\uCOS-III\Source/os_task.c **** 
 1822              		.loc 1 1894 0
 1823 0040 7B68     		ldr	r3, [r7, #4]
 1824 0042 0022     		movs	r2, #0
 1825 0044 1A67     		str	r2, [r3, #112]
 1826              		.loc 1 1902 0
 1827 0046 0BE0     		b	.L130
 1828              	.L129:
1897:..\..\..\..\..\..\Software\uCOS-III\Source/os_task.c ****         p_tcb_next->DbgPrevPtr =  p_tcb_prev;
 1829              		.loc 1 1897 0
 1830 0048 FB68     		ldr	r3, [r7, #12]
 1831 004a BA68     		ldr	r2, [r7, #8]
 1832 004c 5A67     		str	r2, [r3, #116]
1898:..\..\..\..\..\..\Software\uCOS-III\Source/os_task.c ****         p_tcb->DbgNextPtr      = (OS_TCB *)0;
 1833              		.loc 1 1898 0
 1834 004e BB68     		ldr	r3, [r7, #8]
 1835 0050 FA68     		ldr	r2, [r7, #12]
 1836 0052 1A67     		str	r2, [r3, #112]
1899:..\..\..\..\..\..\Software\uCOS-III\Source/os_task.c ****         p_tcb->DbgPrevPtr      = (OS_TCB *)0;
 1837              		.loc 1 1899 0
 1838 0054 7B68     		ldr	r3, [r7, #4]
 1839 0056 0022     		movs	r2, #0
 1840 0058 5A67     		str	r2, [r3, #116]
1900:..\..\..\..\..\..\Software\uCOS-III\Source/os_task.c ****     }
 1841              		.loc 1 1900 0
 1842 005a 7B68     		ldr	r3, [r7, #4]
 1843 005c 0022     		movs	r2, #0
 1844 005e 1A67     		str	r2, [r3, #112]
ARM GAS  C:\Users\EDULU~1.DES\AppData\Local\Temp\ccyhp2HA.s 			page 67


 1845              	.L130:
 1846              		.loc 1 1902 0
 1847 0060 C046     		nop
 1848 0062 BD46     		mov	sp, r7
 1849 0064 04B0     		add	sp, sp, #16
 1850              		@ sp needed
 1851 0066 80BD     		pop	{r7, pc}
 1852              	.L132:
 1853              		.align	2
 1854              	.L131:
 1855 0068 00000000 		.word	OSTaskDbgListPtr
 1856              		.cfi_endproc
 1857              	.LFE13:
 1858              		.size	OS_TaskDbgListRemove, .-OS_TaskDbgListRemove
 1859              		.section	.text.OS_TaskInit,"ax",%progbits
 1860              		.align	2
 1861              		.global	OS_TaskInit
 1862              		.code	16
 1863              		.thumb_func
 1864              		.type	OS_TaskInit, %function
 1865              	OS_TaskInit:
 1866              	.LFB14:
1903:..\..\..\..\..\..\Software\uCOS-III\Source/os_task.c **** #endif
1904:..\..\..\..\..\..\Software\uCOS-III\Source/os_task.c **** 
1905:..\..\..\..\..\..\Software\uCOS-III\Source/os_task.c **** /*$PAGE*/
1906:..\..\..\..\..\..\Software\uCOS-III\Source/os_task.c **** /*
1907:..\..\..\..\..\..\Software\uCOS-III\Source/os_task.c **** ***************************************************************************************************
1908:..\..\..\..\..\..\Software\uCOS-III\Source/os_task.c **** *                                             TASK MANAGER INITIALIZATION
1909:..\..\..\..\..\..\Software\uCOS-III\Source/os_task.c **** *
1910:..\..\..\..\..\..\Software\uCOS-III\Source/os_task.c **** * Description: This function is called by OSInit() to initialize the task management.
1911:..\..\..\..\..\..\Software\uCOS-III\Source/os_task.c **** *
1912:..\..\..\..\..\..\Software\uCOS-III\Source/os_task.c **** 
1913:..\..\..\..\..\..\Software\uCOS-III\Source/os_task.c **** * Argument(s): p_err        is a pointer to a variable that will contain an error code returned by 
1914:..\..\..\..\..\..\Software\uCOS-III\Source/os_task.c **** *
1915:..\..\..\..\..\..\Software\uCOS-III\Source/os_task.c **** *                                OS_ERR_NONE     the call was successful
1916:..\..\..\..\..\..\Software\uCOS-III\Source/os_task.c **** *
1917:..\..\..\..\..\..\Software\uCOS-III\Source/os_task.c **** * Returns    : none
1918:..\..\..\..\..\..\Software\uCOS-III\Source/os_task.c **** *
1919:..\..\..\..\..\..\Software\uCOS-III\Source/os_task.c **** * Note(s)    : This function is INTERNAL to uC/OS-III and your application should not call it.
1920:..\..\..\..\..\..\Software\uCOS-III\Source/os_task.c **** ***************************************************************************************************
1921:..\..\..\..\..\..\Software\uCOS-III\Source/os_task.c **** */
1922:..\..\..\..\..\..\Software\uCOS-III\Source/os_task.c **** 
1923:..\..\..\..\..\..\Software\uCOS-III\Source/os_task.c **** void  OS_TaskInit (OS_ERR  *p_err)
1924:..\..\..\..\..\..\Software\uCOS-III\Source/os_task.c **** {
 1867              		.loc 1 1924 0
 1868              		.cfi_startproc
 1869              		@ args = 0, pretend = 0, frame = 8
 1870              		@ frame_needed = 1, uses_anonymous_args = 0
 1871 0000 80B5     		push	{r7, lr}
 1872              		.cfi_def_cfa_offset 8
 1873              		.cfi_offset 7, -8
 1874              		.cfi_offset 14, -4
 1875 0002 82B0     		sub	sp, sp, #8
 1876              		.cfi_def_cfa_offset 16
 1877 0004 00AF     		add	r7, sp, #0
 1878              		.cfi_def_cfa_register 7
 1879 0006 7860     		str	r0, [r7, #4]
ARM GAS  C:\Users\EDULU~1.DES\AppData\Local\Temp\ccyhp2HA.s 			page 68


1925:..\..\..\..\..\..\Software\uCOS-III\Source/os_task.c **** #ifdef OS_SAFETY_CRITICAL
1926:..\..\..\..\..\..\Software\uCOS-III\Source/os_task.c ****     if (p_err == (OS_ERR *)0) {
1927:..\..\..\..\..\..\Software\uCOS-III\Source/os_task.c ****         OS_SAFETY_CRITICAL_EXCEPTION();
1928:..\..\..\..\..\..\Software\uCOS-III\Source/os_task.c ****         return;
1929:..\..\..\..\..\..\Software\uCOS-III\Source/os_task.c ****     }
1930:..\..\..\..\..\..\Software\uCOS-III\Source/os_task.c **** #endif
1931:..\..\..\..\..\..\Software\uCOS-III\Source/os_task.c **** 
1932:..\..\..\..\..\..\Software\uCOS-III\Source/os_task.c **** #if OS_CFG_DBG_EN > 0u
1933:..\..\..\..\..\..\Software\uCOS-III\Source/os_task.c ****     OSTaskDbgListPtr = (OS_TCB      *)0;
 1880              		.loc 1 1933 0
 1881 0008 074B     		ldr	r3, .L134
 1882 000a 0022     		movs	r2, #0
 1883 000c 1A60     		str	r2, [r3]
1934:..\..\..\..\..\..\Software\uCOS-III\Source/os_task.c **** #endif
1935:..\..\..\..\..\..\Software\uCOS-III\Source/os_task.c **** 
1936:..\..\..\..\..\..\Software\uCOS-III\Source/os_task.c ****     OSTaskQty        = (OS_OBJ_QTY   )0;                    /* Clear the number of tasks           
 1884              		.loc 1 1936 0
 1885 000e 074B     		ldr	r3, .L134+4
 1886 0010 0022     		movs	r2, #0
 1887 0012 1A80     		strh	r2, [r3]
1937:..\..\..\..\..\..\Software\uCOS-III\Source/os_task.c ****     OSTaskCtxSwCtr   = (OS_CTX_SW_CTR)0;                    /* Clear the context switch counter    
 1888              		.loc 1 1937 0
 1889 0014 064B     		ldr	r3, .L134+8
 1890 0016 0022     		movs	r2, #0
 1891 0018 1A60     		str	r2, [r3]
1938:..\..\..\..\..\..\Software\uCOS-III\Source/os_task.c **** 
1939:..\..\..\..\..\..\Software\uCOS-III\Source/os_task.c ****    *p_err            = OS_ERR_NONE;
 1892              		.loc 1 1939 0
 1893 001a 7B68     		ldr	r3, [r7, #4]
 1894 001c 0022     		movs	r2, #0
 1895 001e 1A80     		strh	r2, [r3]
1940:..\..\..\..\..\..\Software\uCOS-III\Source/os_task.c **** }
 1896              		.loc 1 1940 0
 1897 0020 C046     		nop
 1898 0022 BD46     		mov	sp, r7
 1899 0024 02B0     		add	sp, sp, #8
 1900              		@ sp needed
 1901 0026 80BD     		pop	{r7, pc}
 1902              	.L135:
 1903              		.align	2
 1904              	.L134:
 1905 0028 00000000 		.word	OSTaskDbgListPtr
 1906 002c 00000000 		.word	OSTaskQty
 1907 0030 00000000 		.word	OSTaskCtxSwCtr
 1908              		.cfi_endproc
 1909              	.LFE14:
 1910              		.size	OS_TaskInit, .-OS_TaskInit
 1911              		.section	.rodata
 1912              		.align	2
 1913              	.LC28:
 1914 0040 3F546173 		.ascii	"?Task\000"
 1914      6B00
 1915 0046 0000     		.align	2
 1916              	.LC30:
 1917 0048 2000     		.ascii	" \000"
 1918              		.section	.text.OS_TaskInitTCB,"ax",%progbits
 1919              		.align	2
ARM GAS  C:\Users\EDULU~1.DES\AppData\Local\Temp\ccyhp2HA.s 			page 69


 1920              		.global	OS_TaskInitTCB
 1921              		.code	16
 1922              		.thumb_func
 1923              		.type	OS_TaskInitTCB, %function
 1924              	OS_TaskInitTCB:
 1925              	.LFB15:
1941:..\..\..\..\..\..\Software\uCOS-III\Source/os_task.c **** 
1942:..\..\..\..\..\..\Software\uCOS-III\Source/os_task.c **** /*$PAGE*/
1943:..\..\..\..\..\..\Software\uCOS-III\Source/os_task.c **** /*
1944:..\..\..\..\..\..\Software\uCOS-III\Source/os_task.c **** ***************************************************************************************************
1945:..\..\..\..\..\..\Software\uCOS-III\Source/os_task.c **** *                                               INITIALIZE TCB FIELDS
1946:..\..\..\..\..\..\Software\uCOS-III\Source/os_task.c **** *
1947:..\..\..\..\..\..\Software\uCOS-III\Source/os_task.c **** * Description: This function is called to initialize a TCB to default values
1948:..\..\..\..\..\..\Software\uCOS-III\Source/os_task.c **** *
1949:..\..\..\..\..\..\Software\uCOS-III\Source/os_task.c **** * Arguments  : p_tcb    is a pointer to the TCB to initialize
1950:..\..\..\..\..\..\Software\uCOS-III\Source/os_task.c **** *
1951:..\..\..\..\..\..\Software\uCOS-III\Source/os_task.c **** * Returns    : none
1952:..\..\..\..\..\..\Software\uCOS-III\Source/os_task.c **** *
1953:..\..\..\..\..\..\Software\uCOS-III\Source/os_task.c **** * Note(s)    : This function is INTERNAL to uC/OS-III and your application should not call it.
1954:..\..\..\..\..\..\Software\uCOS-III\Source/os_task.c **** ***************************************************************************************************
1955:..\..\..\..\..\..\Software\uCOS-III\Source/os_task.c **** */
1956:..\..\..\..\..\..\Software\uCOS-III\Source/os_task.c **** 
1957:..\..\..\..\..\..\Software\uCOS-III\Source/os_task.c **** void  OS_TaskInitTCB (OS_TCB  *p_tcb)
1958:..\..\..\..\..\..\Software\uCOS-III\Source/os_task.c **** {
 1926              		.loc 1 1958 0
 1927              		.cfi_startproc
 1928              		@ args = 0, pretend = 0, frame = 16
 1929              		@ frame_needed = 1, uses_anonymous_args = 0
 1930 0000 80B5     		push	{r7, lr}
 1931              		.cfi_def_cfa_offset 8
 1932              		.cfi_offset 7, -8
 1933              		.cfi_offset 14, -4
 1934 0002 84B0     		sub	sp, sp, #16
 1935              		.cfi_def_cfa_offset 24
 1936 0004 00AF     		add	r7, sp, #0
 1937              		.cfi_def_cfa_register 7
 1938 0006 7860     		str	r0, [r7, #4]
1959:..\..\..\..\..\..\Software\uCOS-III\Source/os_task.c **** #if OS_CFG_TASK_REG_TBL_SIZE > 0u
1960:..\..\..\..\..\..\Software\uCOS-III\Source/os_task.c ****     OS_REG_ID   reg_id;
1961:..\..\..\..\..\..\Software\uCOS-III\Source/os_task.c **** #endif
1962:..\..\..\..\..\..\Software\uCOS-III\Source/os_task.c **** #if defined(OS_CFG_TLS_TBL_SIZE) && (OS_CFG_TLS_TBL_SIZE > 0u)
1963:..\..\..\..\..\..\Software\uCOS-III\Source/os_task.c ****     OS_TLS_ID   id;
1964:..\..\..\..\..\..\Software\uCOS-III\Source/os_task.c **** #endif
1965:..\..\..\..\..\..\Software\uCOS-III\Source/os_task.c **** #if OS_CFG_TASK_PROFILE_EN > 0u
1966:..\..\..\..\..\..\Software\uCOS-III\Source/os_task.c ****     CPU_TS      ts;
1967:..\..\..\..\..\..\Software\uCOS-III\Source/os_task.c **** #endif
1968:..\..\..\..\..\..\Software\uCOS-III\Source/os_task.c **** 
1969:..\..\..\..\..\..\Software\uCOS-III\Source/os_task.c **** 
1970:..\..\..\..\..\..\Software\uCOS-III\Source/os_task.c ****     p_tcb->StkPtr             = (CPU_STK       *)0;
 1939              		.loc 1 1970 0
 1940 0008 7B68     		ldr	r3, [r7, #4]
 1941 000a 0022     		movs	r2, #0
 1942 000c 1A60     		str	r2, [r3]
1971:..\..\..\..\..\..\Software\uCOS-III\Source/os_task.c ****     p_tcb->StkLimitPtr        = (CPU_STK       *)0;
 1943              		.loc 1 1971 0
 1944 000e 7B68     		ldr	r3, [r7, #4]
 1945 0010 0022     		movs	r2, #0
ARM GAS  C:\Users\EDULU~1.DES\AppData\Local\Temp\ccyhp2HA.s 			page 70


 1946 0012 9A60     		str	r2, [r3, #8]
1972:..\..\..\..\..\..\Software\uCOS-III\Source/os_task.c **** 
1973:..\..\..\..\..\..\Software\uCOS-III\Source/os_task.c ****     p_tcb->ExtPtr             = (void          *)0;
 1947              		.loc 1 1973 0
 1948 0014 7B68     		ldr	r3, [r7, #4]
 1949 0016 0022     		movs	r2, #0
 1950 0018 5A60     		str	r2, [r3, #4]
1974:..\..\..\..\..\..\Software\uCOS-III\Source/os_task.c **** 
1975:..\..\..\..\..\..\Software\uCOS-III\Source/os_task.c ****     p_tcb->NextPtr            = (OS_TCB        *)0;
 1951              		.loc 1 1975 0
 1952 001a 7B68     		ldr	r3, [r7, #4]
 1953 001c 0022     		movs	r2, #0
 1954 001e DA60     		str	r2, [r3, #12]
1976:..\..\..\..\..\..\Software\uCOS-III\Source/os_task.c ****     p_tcb->PrevPtr            = (OS_TCB        *)0;
 1955              		.loc 1 1976 0
 1956 0020 7B68     		ldr	r3, [r7, #4]
 1957 0022 0022     		movs	r2, #0
 1958 0024 1A61     		str	r2, [r3, #16]
1977:..\..\..\..\..\..\Software\uCOS-III\Source/os_task.c **** 
1978:..\..\..\..\..\..\Software\uCOS-III\Source/os_task.c ****     p_tcb->TickNextPtr        = (OS_TCB        *)0;
 1959              		.loc 1 1978 0
 1960 0026 7B68     		ldr	r3, [r7, #4]
 1961 0028 0022     		movs	r2, #0
 1962 002a 5A61     		str	r2, [r3, #20]
1979:..\..\..\..\..\..\Software\uCOS-III\Source/os_task.c ****     p_tcb->TickPrevPtr        = (OS_TCB        *)0;
 1963              		.loc 1 1979 0
 1964 002c 7B68     		ldr	r3, [r7, #4]
 1965 002e 0022     		movs	r2, #0
 1966 0030 9A61     		str	r2, [r3, #24]
1980:..\..\..\..\..\..\Software\uCOS-III\Source/os_task.c ****     p_tcb->TickSpokePtr       = (OS_TICK_SPOKE *)0;
 1967              		.loc 1 1980 0
 1968 0032 7B68     		ldr	r3, [r7, #4]
 1969 0034 0022     		movs	r2, #0
 1970 0036 DA61     		str	r2, [r3, #28]
1981:..\..\..\..\..\..\Software\uCOS-III\Source/os_task.c **** 
1982:..\..\..\..\..\..\Software\uCOS-III\Source/os_task.c ****     p_tcb->NamePtr            = (CPU_CHAR      *)((void *)"?Task");
 1971              		.loc 1 1982 0
 1972 0038 7B68     		ldr	r3, [r7, #4]
 1973 003a 364A     		ldr	r2, .L139
 1974 003c 1A62     		str	r2, [r3, #32]
1983:..\..\..\..\..\..\Software\uCOS-III\Source/os_task.c **** 
1984:..\..\..\..\..\..\Software\uCOS-III\Source/os_task.c ****     p_tcb->StkBasePtr         = (CPU_STK       *)0;
 1975              		.loc 1 1984 0
 1976 003e 7B68     		ldr	r3, [r7, #4]
 1977 0040 0022     		movs	r2, #0
 1978 0042 5A62     		str	r2, [r3, #36]
1985:..\..\..\..\..\..\Software\uCOS-III\Source/os_task.c **** 
1986:..\..\..\..\..\..\Software\uCOS-III\Source/os_task.c ****     p_tcb->TaskEntryAddr      = (OS_TASK_PTR    )0;
 1979              		.loc 1 1986 0
 1980 0044 7B68     		ldr	r3, [r7, #4]
 1981 0046 0022     		movs	r2, #0
 1982 0048 9A62     		str	r2, [r3, #40]
1987:..\..\..\..\..\..\Software\uCOS-III\Source/os_task.c ****     p_tcb->TaskEntryArg       = (void          *)0;
 1983              		.loc 1 1987 0
 1984 004a 7B68     		ldr	r3, [r7, #4]
 1985 004c 0022     		movs	r2, #0
 1986 004e DA62     		str	r2, [r3, #44]
ARM GAS  C:\Users\EDULU~1.DES\AppData\Local\Temp\ccyhp2HA.s 			page 71


1988:..\..\..\..\..\..\Software\uCOS-III\Source/os_task.c **** 
1989:..\..\..\..\..\..\Software\uCOS-III\Source/os_task.c **** #if (OS_CFG_PEND_MULTI_EN > 0u)
1990:..\..\..\..\..\..\Software\uCOS-III\Source/os_task.c ****     p_tcb->PendDataTblPtr     = (OS_PEND_DATA  *)0;
1991:..\..\..\..\..\..\Software\uCOS-III\Source/os_task.c ****     p_tcb->PendDataTblEntries = (OS_OBJ_QTY     )0u;
1992:..\..\..\..\..\..\Software\uCOS-III\Source/os_task.c **** #endif
1993:..\..\..\..\..\..\Software\uCOS-III\Source/os_task.c **** 
1994:..\..\..\..\..\..\Software\uCOS-III\Source/os_task.c ****     p_tcb->TS                 = (CPU_TS         )0u;
 1987              		.loc 1 1994 0
 1988 0050 7B68     		ldr	r3, [r7, #4]
 1989 0052 0022     		movs	r2, #0
 1990 0054 1A64     		str	r2, [r3, #64]
1995:..\..\..\..\..\..\Software\uCOS-III\Source/os_task.c **** 
1996:..\..\..\..\..\..\Software\uCOS-III\Source/os_task.c **** #if (OS_MSG_EN > 0u)
1997:..\..\..\..\..\..\Software\uCOS-III\Source/os_task.c ****     p_tcb->MsgPtr             = (void          *)0;
1998:..\..\..\..\..\..\Software\uCOS-III\Source/os_task.c ****     p_tcb->MsgSize            = (OS_MSG_SIZE    )0u;
1999:..\..\..\..\..\..\Software\uCOS-III\Source/os_task.c **** #endif
2000:..\..\..\..\..\..\Software\uCOS-III\Source/os_task.c **** 
2001:..\..\..\..\..\..\Software\uCOS-III\Source/os_task.c **** #if OS_CFG_TASK_Q_EN > 0u
2002:..\..\..\..\..\..\Software\uCOS-III\Source/os_task.c ****     OS_MsgQInit(&p_tcb->MsgQ,
2003:..\..\..\..\..\..\Software\uCOS-III\Source/os_task.c ****                 (OS_MSG_QTY)0u);
2004:..\..\..\..\..\..\Software\uCOS-III\Source/os_task.c **** #if OS_CFG_TASK_PROFILE_EN > 0u
2005:..\..\..\..\..\..\Software\uCOS-III\Source/os_task.c ****     p_tcb->MsgQPendTime       = (CPU_TS         )0u;
2006:..\..\..\..\..\..\Software\uCOS-III\Source/os_task.c ****     p_tcb->MsgQPendTimeMax    = (CPU_TS         )0u;
2007:..\..\..\..\..\..\Software\uCOS-III\Source/os_task.c **** #endif
2008:..\..\..\..\..\..\Software\uCOS-III\Source/os_task.c **** #endif
2009:..\..\..\..\..\..\Software\uCOS-III\Source/os_task.c **** 
2010:..\..\..\..\..\..\Software\uCOS-III\Source/os_task.c **** #if OS_CFG_FLAG_EN > 0u
2011:..\..\..\..\..\..\Software\uCOS-III\Source/os_task.c ****     p_tcb->FlagsPend          = (OS_FLAGS       )0u;
2012:..\..\..\..\..\..\Software\uCOS-III\Source/os_task.c ****     p_tcb->FlagsOpt           = (OS_OPT         )0u;
2013:..\..\..\..\..\..\Software\uCOS-III\Source/os_task.c ****     p_tcb->FlagsRdy           = (OS_FLAGS       )0u;
2014:..\..\..\..\..\..\Software\uCOS-III\Source/os_task.c **** #endif
2015:..\..\..\..\..\..\Software\uCOS-III\Source/os_task.c **** 
2016:..\..\..\..\..\..\Software\uCOS-III\Source/os_task.c **** #if OS_CFG_TASK_REG_TBL_SIZE > 0u
2017:..\..\..\..\..\..\Software\uCOS-III\Source/os_task.c ****     for (reg_id = 0u; reg_id < OS_CFG_TASK_REG_TBL_SIZE; reg_id++) {
 1991              		.loc 1 2017 0
 1992 0056 0F23     		movs	r3, #15
 1993 0058 FB18     		adds	r3, r7, r3
 1994 005a 0022     		movs	r2, #0
 1995 005c 1A70     		strb	r2, [r3]
 1996 005e 10E0     		b	.L137
 1997              	.L138:
2018:..\..\..\..\..\..\Software\uCOS-III\Source/os_task.c ****         p_tcb->RegTbl[reg_id] = (OS_REG)0u;
 1998              		.loc 1 2018 0 discriminator 3
 1999 0060 0F23     		movs	r3, #15
 2000 0062 FB18     		adds	r3, r7, r3
 2001 0064 1B78     		ldrb	r3, [r3]
 2002 0066 7A68     		ldr	r2, [r7, #4]
 2003 0068 1633     		adds	r3, r3, #22
 2004 006a 9B00     		lsls	r3, r3, #2
 2005 006c D318     		adds	r3, r2, r3
 2006 006e 0433     		adds	r3, r3, #4
 2007 0070 0022     		movs	r2, #0
 2008 0072 1A60     		str	r2, [r3]
2017:..\..\..\..\..\..\Software\uCOS-III\Source/os_task.c ****         p_tcb->RegTbl[reg_id] = (OS_REG)0u;
 2009              		.loc 1 2017 0 discriminator 3
 2010 0074 0F23     		movs	r3, #15
 2011 0076 FB18     		adds	r3, r7, r3
ARM GAS  C:\Users\EDULU~1.DES\AppData\Local\Temp\ccyhp2HA.s 			page 72


 2012 0078 1A78     		ldrb	r2, [r3]
 2013 007a 0F23     		movs	r3, #15
 2014 007c FB18     		adds	r3, r7, r3
 2015 007e 0132     		adds	r2, r2, #1
 2016 0080 1A70     		strb	r2, [r3]
 2017              	.L137:
2017:..\..\..\..\..\..\Software\uCOS-III\Source/os_task.c ****         p_tcb->RegTbl[reg_id] = (OS_REG)0u;
 2018              		.loc 1 2017 0 is_stmt 0 discriminator 1
 2019 0082 0F23     		movs	r3, #15
 2020 0084 FB18     		adds	r3, r7, r3
 2021 0086 1B78     		ldrb	r3, [r3]
 2022 0088 002B     		cmp	r3, #0
 2023 008a E9D0     		beq	.L138
2019:..\..\..\..\..\..\Software\uCOS-III\Source/os_task.c ****     }
2020:..\..\..\..\..\..\Software\uCOS-III\Source/os_task.c **** #endif
2021:..\..\..\..\..\..\Software\uCOS-III\Source/os_task.c **** 
2022:..\..\..\..\..\..\Software\uCOS-III\Source/os_task.c **** #if defined(OS_CFG_TLS_TBL_SIZE) && (OS_CFG_TLS_TBL_SIZE > 0u)
2023:..\..\..\..\..\..\Software\uCOS-III\Source/os_task.c ****     for (id = 0u; id < OS_CFG_TLS_TBL_SIZE; id++) {
2024:..\..\..\..\..\..\Software\uCOS-III\Source/os_task.c ****         p_tcb->TLS_Tbl[id]    = (OS_TLS)0;
2025:..\..\..\..\..\..\Software\uCOS-III\Source/os_task.c ****     }
2026:..\..\..\..\..\..\Software\uCOS-III\Source/os_task.c **** #endif
2027:..\..\..\..\..\..\Software\uCOS-III\Source/os_task.c **** 
2028:..\..\..\..\..\..\Software\uCOS-III\Source/os_task.c ****     p_tcb->SemCtr             = (OS_SEM_CTR     )0u;
 2024              		.loc 1 2028 0 is_stmt 1
 2025 008c 7B68     		ldr	r3, [r7, #4]
 2026 008e 0022     		movs	r2, #0
 2027 0090 5A64     		str	r2, [r3, #68]
2029:..\..\..\..\..\..\Software\uCOS-III\Source/os_task.c **** #if OS_CFG_TASK_PROFILE_EN > 0u
2030:..\..\..\..\..\..\Software\uCOS-III\Source/os_task.c ****     p_tcb->SemPendTime        = (CPU_TS         )0u;
2031:..\..\..\..\..\..\Software\uCOS-III\Source/os_task.c ****     p_tcb->SemPendTimeMax     = (CPU_TS         )0u;
2032:..\..\..\..\..\..\Software\uCOS-III\Source/os_task.c **** #endif
2033:..\..\..\..\..\..\Software\uCOS-III\Source/os_task.c **** 
2034:..\..\..\..\..\..\Software\uCOS-III\Source/os_task.c ****     p_tcb->StkSize            = (CPU_STK_SIZE   )0u;
 2028              		.loc 1 2034 0
 2029 0092 7B68     		ldr	r3, [r7, #4]
 2030 0094 0022     		movs	r2, #0
 2031 0096 9A63     		str	r2, [r3, #56]
2035:..\..\..\..\..\..\Software\uCOS-III\Source/os_task.c **** 
2036:..\..\..\..\..\..\Software\uCOS-III\Source/os_task.c **** 
2037:..\..\..\..\..\..\Software\uCOS-III\Source/os_task.c **** #if OS_CFG_TASK_SUSPEND_EN > 0u
2038:..\..\..\..\..\..\Software\uCOS-III\Source/os_task.c ****     p_tcb->SuspendCtr         = (OS_NESTING_CTR )0u;
 2032              		.loc 1 2038 0
 2033 0098 7B68     		ldr	r3, [r7, #4]
 2034 009a 6022     		movs	r2, #96
 2035 009c 0021     		movs	r1, #0
 2036 009e 9954     		strb	r1, [r3, r2]
2039:..\..\..\..\..\..\Software\uCOS-III\Source/os_task.c **** #endif
2040:..\..\..\..\..\..\Software\uCOS-III\Source/os_task.c **** 
2041:..\..\..\..\..\..\Software\uCOS-III\Source/os_task.c **** #if OS_CFG_STAT_TASK_STK_CHK_EN > 0u
2042:..\..\..\..\..\..\Software\uCOS-III\Source/os_task.c ****     p_tcb->StkFree            = (CPU_STK_SIZE   )0u;
 2037              		.loc 1 2042 0
 2038 00a0 7B68     		ldr	r3, [r7, #4]
 2039 00a2 0022     		movs	r2, #0
 2040 00a4 9A66     		str	r2, [r3, #104]
2043:..\..\..\..\..\..\Software\uCOS-III\Source/os_task.c ****     p_tcb->StkUsed            = (CPU_STK_SIZE   )0u;
 2041              		.loc 1 2043 0
 2042 00a6 7B68     		ldr	r3, [r7, #4]
ARM GAS  C:\Users\EDULU~1.DES\AppData\Local\Temp\ccyhp2HA.s 			page 73


 2043 00a8 0022     		movs	r2, #0
 2044 00aa 5A66     		str	r2, [r3, #100]
2044:..\..\..\..\..\..\Software\uCOS-III\Source/os_task.c **** #endif
2045:..\..\..\..\..\..\Software\uCOS-III\Source/os_task.c **** 
2046:..\..\..\..\..\..\Software\uCOS-III\Source/os_task.c ****     p_tcb->Opt                = (OS_OPT         )0u;
 2045              		.loc 1 2046 0
 2046 00ac 7B68     		ldr	r3, [r7, #4]
 2047 00ae 0022     		movs	r2, #0
 2048 00b0 9A87     		strh	r2, [r3, #60]
2047:..\..\..\..\..\..\Software\uCOS-III\Source/os_task.c **** 
2048:..\..\..\..\..\..\Software\uCOS-III\Source/os_task.c ****     p_tcb->TickCtrPrev        = (OS_TICK        )OS_TICK_TH_INIT;
 2049              		.loc 1 2048 0
 2050 00b2 7B68     		ldr	r3, [r7, #4]
 2051 00b4 8022     		movs	r2, #128
 2052 00b6 1206     		lsls	r2, r2, #24
 2053 00b8 9A64     		str	r2, [r3, #72]
2049:..\..\..\..\..\..\Software\uCOS-III\Source/os_task.c ****     p_tcb->TickCtrMatch       = (OS_TICK        )0u;
 2054              		.loc 1 2049 0
 2055 00ba 7B68     		ldr	r3, [r7, #4]
 2056 00bc 0022     		movs	r2, #0
 2057 00be DA64     		str	r2, [r3, #76]
2050:..\..\..\..\..\..\Software\uCOS-III\Source/os_task.c ****     p_tcb->TickRemain         = (OS_TICK        )0u;
 2058              		.loc 1 2050 0
 2059 00c0 7B68     		ldr	r3, [r7, #4]
 2060 00c2 0022     		movs	r2, #0
 2061 00c4 1A65     		str	r2, [r3, #80]
2051:..\..\..\..\..\..\Software\uCOS-III\Source/os_task.c **** 
2052:..\..\..\..\..\..\Software\uCOS-III\Source/os_task.c ****     p_tcb->TimeQuanta         = (OS_TICK        )0u;
 2062              		.loc 1 2052 0
 2063 00c6 7B68     		ldr	r3, [r7, #4]
 2064 00c8 0022     		movs	r2, #0
 2065 00ca 5A65     		str	r2, [r3, #84]
2053:..\..\..\..\..\..\Software\uCOS-III\Source/os_task.c ****     p_tcb->TimeQuantaCtr      = (OS_TICK        )0u;
 2066              		.loc 1 2053 0
 2067 00cc 7B68     		ldr	r3, [r7, #4]
 2068 00ce 0022     		movs	r2, #0
 2069 00d0 9A65     		str	r2, [r3, #88]
2054:..\..\..\..\..\..\Software\uCOS-III\Source/os_task.c **** 
2055:..\..\..\..\..\..\Software\uCOS-III\Source/os_task.c **** #if OS_CFG_TASK_PROFILE_EN > 0u
2056:..\..\..\..\..\..\Software\uCOS-III\Source/os_task.c ****     p_tcb->CPUUsage           = (OS_CPU_USAGE   )0u;
2057:..\..\..\..\..\..\Software\uCOS-III\Source/os_task.c ****     p_tcb->CPUUsageMax        = (OS_CPU_USAGE   )0u;
2058:..\..\..\..\..\..\Software\uCOS-III\Source/os_task.c ****     p_tcb->CtxSwCtr           = (OS_CTX_SW_CTR  )0u;
2059:..\..\..\..\..\..\Software\uCOS-III\Source/os_task.c ****     p_tcb->CyclesDelta        = (CPU_TS         )0u;
2060:..\..\..\..\..\..\Software\uCOS-III\Source/os_task.c ****     ts                        = OS_TS_GET();                /* Read the current timestamp and save 
2061:..\..\..\..\..\..\Software\uCOS-III\Source/os_task.c ****     p_tcb->CyclesStart        = ts;
2062:..\..\..\..\..\..\Software\uCOS-III\Source/os_task.c ****     p_tcb->CyclesTotal        = (OS_CYCLES      )0u;
2063:..\..\..\..\..\..\Software\uCOS-III\Source/os_task.c **** #endif
2064:..\..\..\..\..\..\Software\uCOS-III\Source/os_task.c **** #ifdef CPU_CFG_INT_DIS_MEAS_EN
2065:..\..\..\..\..\..\Software\uCOS-III\Source/os_task.c ****     p_tcb->IntDisTimeMax      = (CPU_TS         )0u;
 2070              		.loc 1 2065 0
 2071 00d2 7B68     		ldr	r3, [r7, #4]
 2072 00d4 0022     		movs	r2, #0
 2073 00d6 DA66     		str	r2, [r3, #108]
2066:..\..\..\..\..\..\Software\uCOS-III\Source/os_task.c **** #endif
2067:..\..\..\..\..\..\Software\uCOS-III\Source/os_task.c **** #if OS_CFG_SCHED_LOCK_TIME_MEAS_EN > 0u
2068:..\..\..\..\..\..\Software\uCOS-III\Source/os_task.c ****     p_tcb->SchedLockTimeMax   = (CPU_TS         )0u;
2069:..\..\..\..\..\..\Software\uCOS-III\Source/os_task.c **** #endif
ARM GAS  C:\Users\EDULU~1.DES\AppData\Local\Temp\ccyhp2HA.s 			page 74


2070:..\..\..\..\..\..\Software\uCOS-III\Source/os_task.c **** 
2071:..\..\..\..\..\..\Software\uCOS-III\Source/os_task.c ****     p_tcb->PendOn             = (OS_STATE       )OS_TASK_PEND_ON_NOTHING;
 2074              		.loc 1 2071 0
 2075 00d8 7B68     		ldr	r3, [r7, #4]
 2076 00da 3422     		movs	r2, #52
 2077 00dc 0021     		movs	r1, #0
 2078 00de 9954     		strb	r1, [r3, r2]
2072:..\..\..\..\..\..\Software\uCOS-III\Source/os_task.c ****     p_tcb->PendStatus         = (OS_STATUS      )OS_STATUS_PEND_OK;
 2079              		.loc 1 2072 0
 2080 00e0 7B68     		ldr	r3, [r7, #4]
 2081 00e2 3522     		movs	r2, #53
 2082 00e4 0021     		movs	r1, #0
 2083 00e6 9954     		strb	r1, [r3, r2]
2073:..\..\..\..\..\..\Software\uCOS-III\Source/os_task.c ****     p_tcb->TaskState          = (OS_STATE       )OS_TASK_STATE_RDY;
 2084              		.loc 1 2073 0
 2085 00e8 7B68     		ldr	r3, [r7, #4]
 2086 00ea 3622     		movs	r2, #54
 2087 00ec 0021     		movs	r1, #0
 2088 00ee 9954     		strb	r1, [r3, r2]
2074:..\..\..\..\..\..\Software\uCOS-III\Source/os_task.c **** 
2075:..\..\..\..\..\..\Software\uCOS-III\Source/os_task.c ****     p_tcb->Prio               = (OS_PRIO        )OS_PRIO_INIT;
 2089              		.loc 1 2075 0
 2090 00f0 7B68     		ldr	r3, [r7, #4]
 2091 00f2 3722     		movs	r2, #55
 2092 00f4 2021     		movs	r1, #32
 2093 00f6 9954     		strb	r1, [r3, r2]
2076:..\..\..\..\..\..\Software\uCOS-III\Source/os_task.c **** 
2077:..\..\..\..\..\..\Software\uCOS-III\Source/os_task.c **** #if OS_CFG_DBG_EN > 0u
2078:..\..\..\..\..\..\Software\uCOS-III\Source/os_task.c ****     p_tcb->DbgPrevPtr         = (OS_TCB        *)0;
 2094              		.loc 1 2078 0
 2095 00f8 7B68     		ldr	r3, [r7, #4]
 2096 00fa 0022     		movs	r2, #0
 2097 00fc 1A67     		str	r2, [r3, #112]
2079:..\..\..\..\..\..\Software\uCOS-III\Source/os_task.c ****     p_tcb->DbgNextPtr         = (OS_TCB        *)0;
 2098              		.loc 1 2079 0
 2099 00fe 7B68     		ldr	r3, [r7, #4]
 2100 0100 0022     		movs	r2, #0
 2101 0102 5A67     		str	r2, [r3, #116]
2080:..\..\..\..\..\..\Software\uCOS-III\Source/os_task.c ****     p_tcb->DbgNamePtr         = (CPU_CHAR      *)((void *)" ");
 2102              		.loc 1 2080 0
 2103 0104 7B68     		ldr	r3, [r7, #4]
 2104 0106 044A     		ldr	r2, .L139+4
 2105 0108 9A67     		str	r2, [r3, #120]
2081:..\..\..\..\..\..\Software\uCOS-III\Source/os_task.c **** #endif
2082:..\..\..\..\..\..\Software\uCOS-III\Source/os_task.c **** }
 2106              		.loc 1 2082 0
 2107 010a C046     		nop
 2108 010c BD46     		mov	sp, r7
 2109 010e 04B0     		add	sp, sp, #16
 2110              		@ sp needed
 2111 0110 80BD     		pop	{r7, pc}
 2112              	.L140:
 2113 0112 C046     		.align	2
 2114              	.L139:
 2115 0114 40000000 		.word	.LC28
 2116 0118 48000000 		.word	.LC30
 2117              		.cfi_endproc
ARM GAS  C:\Users\EDULU~1.DES\AppData\Local\Temp\ccyhp2HA.s 			page 75


 2118              	.LFE15:
 2119              		.size	OS_TaskInitTCB, .-OS_TaskInitTCB
 2120              		.section	.text.OS_TaskResume,"ax",%progbits
 2121              		.align	2
 2122              		.global	OS_TaskResume
 2123              		.code	16
 2124              		.thumb_func
 2125              		.type	OS_TaskResume, %function
 2126              	OS_TaskResume:
 2127              	.LFB16:
2083:..\..\..\..\..\..\Software\uCOS-III\Source/os_task.c **** 
2084:..\..\..\..\..\..\Software\uCOS-III\Source/os_task.c **** /*$PAGE*/
2085:..\..\..\..\..\..\Software\uCOS-III\Source/os_task.c **** /*
2086:..\..\..\..\..\..\Software\uCOS-III\Source/os_task.c **** ***************************************************************************************************
2087:..\..\..\..\..\..\Software\uCOS-III\Source/os_task.c **** *                                               POST MESSAGE TO A TASK
2088:..\..\..\..\..\..\Software\uCOS-III\Source/os_task.c **** *
2089:..\..\..\..\..\..\Software\uCOS-III\Source/os_task.c **** * Description: This function sends a message to a task
2090:..\..\..\..\..\..\Software\uCOS-III\Source/os_task.c **** *
2091:..\..\..\..\..\..\Software\uCOS-III\Source/os_task.c **** * Arguments  : p_tcb      is a pointer to the TCB of the task receiving a message.  If you specify 
2092:..\..\..\..\..\..\Software\uCOS-III\Source/os_task.c **** *                         the message will be posted to the task's queue of the calling task.  In o
2093:..\..\..\..\..\..\Software\uCOS-III\Source/os_task.c **** *                         posting a message to yourself.
2094:..\..\..\..\..\..\Software\uCOS-III\Source/os_task.c **** *
2095:..\..\..\..\..\..\Software\uCOS-III\Source/os_task.c **** *              p_void     is a pointer to the message to send.
2096:..\..\..\..\..\..\Software\uCOS-III\Source/os_task.c **** *
2097:..\..\..\..\..\..\Software\uCOS-III\Source/os_task.c **** *              msg_size   is the size of the message sent (in #bytes)
2098:..\..\..\..\..\..\Software\uCOS-III\Source/os_task.c **** *
2099:..\..\..\..\..\..\Software\uCOS-III\Source/os_task.c **** *              opt        specifies whether the post will be FIFO or LIFO:
2100:..\..\..\..\..\..\Software\uCOS-III\Source/os_task.c **** *
2101:..\..\..\..\..\..\Software\uCOS-III\Source/os_task.c **** *                             OS_OPT_POST_FIFO       Post at the end   of the queue
2102:..\..\..\..\..\..\Software\uCOS-III\Source/os_task.c **** *                             OS_OPT_POST_LIFO       Post at the front of the queue
2103:..\..\..\..\..\..\Software\uCOS-III\Source/os_task.c **** *
2104:..\..\..\..\..\..\Software\uCOS-III\Source/os_task.c **** *                             OS_OPT_POST_NO_SCHED   Do not run the scheduler after the post
2105:..\..\..\..\..\..\Software\uCOS-III\Source/os_task.c **** *
2106:..\..\..\..\..\..\Software\uCOS-III\Source/os_task.c **** *                          Note(s): 1) OS_OPT_POST_NO_SCHED can be added with one of the other opti
2107:..\..\..\..\..\..\Software\uCOS-III\Source/os_task.c **** *
2108:..\..\..\..\..\..\Software\uCOS-III\Source/os_task.c **** *
2109:..\..\..\..\..\..\Software\uCOS-III\Source/os_task.c **** *              ts         is a timestamp indicating when the post occurred.
2110:..\..\..\..\..\..\Software\uCOS-III\Source/os_task.c **** *
2111:..\..\..\..\..\..\Software\uCOS-III\Source/os_task.c **** *              p_err      is a pointer to a variable that will hold the error code associated
2112:..\..\..\..\..\..\Software\uCOS-III\Source/os_task.c **** *                         with the outcome of this call.  Errors can be:
2113:..\..\..\..\..\..\Software\uCOS-III\Source/os_task.c **** *
2114:..\..\..\..\..\..\Software\uCOS-III\Source/os_task.c **** *                             OS_ERR_NONE            The call was successful and the message was se
2115:..\..\..\..\..\..\Software\uCOS-III\Source/os_task.c **** *                             OS_ERR_MSG_POOL_EMPTY  If there are no more OS_MSGs available from th
2116:..\..\..\..\..\..\Software\uCOS-III\Source/os_task.c **** *                             OS_ERR_Q_MAX           If the queue is full
2117:..\..\..\..\..\..\Software\uCOS-III\Source/os_task.c **** *                             OS_ERR_STATE_INVALID   If the task is in an invalid state.  This shou
2118:..\..\..\..\..\..\Software\uCOS-III\Source/os_task.c **** *                                                    and if it does, would be considered a system f
2119:..\..\..\..\..\..\Software\uCOS-III\Source/os_task.c **** *
2120:..\..\..\..\..\..\Software\uCOS-III\Source/os_task.c **** * Returns    : none
2121:..\..\..\..\..\..\Software\uCOS-III\Source/os_task.c **** *
2122:..\..\..\..\..\..\Software\uCOS-III\Source/os_task.c **** * Note(s)    : This function is INTERNAL to uC/OS-III and your application should not call it.
2123:..\..\..\..\..\..\Software\uCOS-III\Source/os_task.c **** ***************************************************************************************************
2124:..\..\..\..\..\..\Software\uCOS-III\Source/os_task.c **** */
2125:..\..\..\..\..\..\Software\uCOS-III\Source/os_task.c **** 
2126:..\..\..\..\..\..\Software\uCOS-III\Source/os_task.c **** #if OS_CFG_TASK_Q_EN > 0u
2127:..\..\..\..\..\..\Software\uCOS-III\Source/os_task.c **** void  OS_TaskQPost (OS_TCB       *p_tcb,
2128:..\..\..\..\..\..\Software\uCOS-III\Source/os_task.c ****                     void         *p_void,
2129:..\..\..\..\..\..\Software\uCOS-III\Source/os_task.c ****                     OS_MSG_SIZE   msg_size,
ARM GAS  C:\Users\EDULU~1.DES\AppData\Local\Temp\ccyhp2HA.s 			page 76


2130:..\..\..\..\..\..\Software\uCOS-III\Source/os_task.c ****                     OS_OPT        opt,
2131:..\..\..\..\..\..\Software\uCOS-III\Source/os_task.c ****                     CPU_TS        ts,
2132:..\..\..\..\..\..\Software\uCOS-III\Source/os_task.c ****                     OS_ERR       *p_err)
2133:..\..\..\..\..\..\Software\uCOS-III\Source/os_task.c **** {
2134:..\..\..\..\..\..\Software\uCOS-III\Source/os_task.c ****     CPU_SR_ALLOC();
2135:..\..\..\..\..\..\Software\uCOS-III\Source/os_task.c **** 
2136:..\..\..\..\..\..\Software\uCOS-III\Source/os_task.c **** 
2137:..\..\..\..\..\..\Software\uCOS-III\Source/os_task.c **** 
2138:..\..\..\..\..\..\Software\uCOS-III\Source/os_task.c ****     OS_CRITICAL_ENTER();
2139:..\..\..\..\..\..\Software\uCOS-III\Source/os_task.c ****     if (p_tcb == (OS_TCB *)0) {                             /* Post msg to 'self'?                 
2140:..\..\..\..\..\..\Software\uCOS-III\Source/os_task.c ****         p_tcb = OSTCBCurPtr;
2141:..\..\..\..\..\..\Software\uCOS-III\Source/os_task.c ****     }
2142:..\..\..\..\..\..\Software\uCOS-III\Source/os_task.c ****    *p_err  = OS_ERR_NONE;                                   /* Assume we won't have any errors     
2143:..\..\..\..\..\..\Software\uCOS-III\Source/os_task.c ****     switch (p_tcb->TaskState) {
2144:..\..\..\..\..\..\Software\uCOS-III\Source/os_task.c ****         case OS_TASK_STATE_RDY:
2145:..\..\..\..\..\..\Software\uCOS-III\Source/os_task.c ****         case OS_TASK_STATE_DLY:
2146:..\..\..\..\..\..\Software\uCOS-III\Source/os_task.c ****         case OS_TASK_STATE_SUSPENDED:
2147:..\..\..\..\..\..\Software\uCOS-III\Source/os_task.c ****         case OS_TASK_STATE_DLY_SUSPENDED:
2148:..\..\..\..\..\..\Software\uCOS-III\Source/os_task.c ****              OS_MsgQPut(&p_tcb->MsgQ,                       /* Deposit the message in the queue    
2149:..\..\..\..\..\..\Software\uCOS-III\Source/os_task.c ****                         p_void,
2150:..\..\..\..\..\..\Software\uCOS-III\Source/os_task.c ****                         msg_size,
2151:..\..\..\..\..\..\Software\uCOS-III\Source/os_task.c ****                         opt,
2152:..\..\..\..\..\..\Software\uCOS-III\Source/os_task.c ****                         ts,
2153:..\..\..\..\..\..\Software\uCOS-III\Source/os_task.c ****                         p_err);
2154:..\..\..\..\..\..\Software\uCOS-III\Source/os_task.c ****              OS_CRITICAL_EXIT();
2155:..\..\..\..\..\..\Software\uCOS-III\Source/os_task.c ****              break;
2156:..\..\..\..\..\..\Software\uCOS-III\Source/os_task.c **** 
2157:..\..\..\..\..\..\Software\uCOS-III\Source/os_task.c ****         case OS_TASK_STATE_PEND:
2158:..\..\..\..\..\..\Software\uCOS-III\Source/os_task.c ****         case OS_TASK_STATE_PEND_TIMEOUT:
2159:..\..\..\..\..\..\Software\uCOS-III\Source/os_task.c ****         case OS_TASK_STATE_PEND_SUSPENDED:
2160:..\..\..\..\..\..\Software\uCOS-III\Source/os_task.c ****         case OS_TASK_STATE_PEND_TIMEOUT_SUSPENDED:
2161:..\..\..\..\..\..\Software\uCOS-III\Source/os_task.c ****              if (p_tcb->PendOn == OS_TASK_PEND_ON_TASK_Q) { /* Is task waiting for a message to be 
2162:..\..\..\..\..\..\Software\uCOS-III\Source/os_task.c ****                  OS_Post((OS_PEND_OBJ *)0,
2163:..\..\..\..\..\..\Software\uCOS-III\Source/os_task.c ****                          p_tcb,
2164:..\..\..\..\..\..\Software\uCOS-III\Source/os_task.c ****                          p_void,
2165:..\..\..\..\..\..\Software\uCOS-III\Source/os_task.c ****                          msg_size,
2166:..\..\..\..\..\..\Software\uCOS-III\Source/os_task.c ****                          ts);
2167:..\..\..\..\..\..\Software\uCOS-III\Source/os_task.c ****                  OS_CRITICAL_EXIT_NO_SCHED();
2168:..\..\..\..\..\..\Software\uCOS-III\Source/os_task.c ****                  if ((opt & OS_OPT_POST_NO_SCHED) == (OS_OPT)0u) {
2169:..\..\..\..\..\..\Software\uCOS-III\Source/os_task.c ****                      OSSched();                             /* Run the scheduler                   
2170:..\..\..\..\..\..\Software\uCOS-III\Source/os_task.c ****                  }
2171:..\..\..\..\..\..\Software\uCOS-III\Source/os_task.c ****              } else {
2172:..\..\..\..\..\..\Software\uCOS-III\Source/os_task.c ****                  OS_MsgQPut(&p_tcb->MsgQ,                   /* No,  Task is pending on something el
2173:..\..\..\..\..\..\Software\uCOS-III\Source/os_task.c ****                             p_void,                         /*      ... Deposit the message in the 
2174:..\..\..\..\..\..\Software\uCOS-III\Source/os_task.c ****                             msg_size,
2175:..\..\..\..\..\..\Software\uCOS-III\Source/os_task.c ****                             opt,
2176:..\..\..\..\..\..\Software\uCOS-III\Source/os_task.c ****                             ts,
2177:..\..\..\..\..\..\Software\uCOS-III\Source/os_task.c ****                             p_err);
2178:..\..\..\..\..\..\Software\uCOS-III\Source/os_task.c ****                  OS_CRITICAL_EXIT();
2179:..\..\..\..\..\..\Software\uCOS-III\Source/os_task.c ****              }
2180:..\..\..\..\..\..\Software\uCOS-III\Source/os_task.c ****              break;
2181:..\..\..\..\..\..\Software\uCOS-III\Source/os_task.c **** 
2182:..\..\..\..\..\..\Software\uCOS-III\Source/os_task.c ****         default:
2183:..\..\..\..\..\..\Software\uCOS-III\Source/os_task.c ****              OS_CRITICAL_EXIT();
2184:..\..\..\..\..\..\Software\uCOS-III\Source/os_task.c ****             *p_err = OS_ERR_STATE_INVALID;
2185:..\..\..\..\..\..\Software\uCOS-III\Source/os_task.c ****              break;
2186:..\..\..\..\..\..\Software\uCOS-III\Source/os_task.c ****     }
ARM GAS  C:\Users\EDULU~1.DES\AppData\Local\Temp\ccyhp2HA.s 			page 77


2187:..\..\..\..\..\..\Software\uCOS-III\Source/os_task.c **** }
2188:..\..\..\..\..\..\Software\uCOS-III\Source/os_task.c **** #endif
2189:..\..\..\..\..\..\Software\uCOS-III\Source/os_task.c **** 
2190:..\..\..\..\..\..\Software\uCOS-III\Source/os_task.c **** /*$PAGE*/
2191:..\..\..\..\..\..\Software\uCOS-III\Source/os_task.c **** /*
2192:..\..\..\..\..\..\Software\uCOS-III\Source/os_task.c **** ***************************************************************************************************
2193:..\..\..\..\..\..\Software\uCOS-III\Source/os_task.c **** *                                               RESUME A SUSPENDED TASK
2194:..\..\..\..\..\..\Software\uCOS-III\Source/os_task.c **** *
2195:..\..\..\..\..\..\Software\uCOS-III\Source/os_task.c **** * Description: This function is called to resume a previously suspended task.  This is the only cal
2196:..\..\..\..\..\..\Software\uCOS-III\Source/os_task.c **** *              explicit task suspension.
2197:..\..\..\..\..\..\Software\uCOS-III\Source/os_task.c **** *
2198:..\..\..\..\..\..\Software\uCOS-III\Source/os_task.c **** * Arguments  : p_tcb      Is a pointer to the task's OS_TCB to resume
2199:..\..\..\..\..\..\Software\uCOS-III\Source/os_task.c **** *
2200:..\..\..\..\..\..\Software\uCOS-III\Source/os_task.c **** *              p_err      Is a pointer to a variable that will contain an error code returned by th
2201:..\..\..\..\..\..\Software\uCOS-III\Source/os_task.c **** *
2202:..\..\..\..\..\..\Software\uCOS-III\Source/os_task.c **** *                             OS_ERR_NONE                  if the requested task is resumed
2203:..\..\..\..\..\..\Software\uCOS-III\Source/os_task.c **** *                             OS_ERR_STATE_INVALID         if the task is in an invalid state
2204:..\..\..\..\..\..\Software\uCOS-III\Source/os_task.c **** *                             OS_ERR_TASK_RESUME_ISR       if you called this function from an ISR
2205:..\..\..\..\..\..\Software\uCOS-III\Source/os_task.c **** *                             OS_ERR_TASK_RESUME_SELF      You cannot resume 'self'
2206:..\..\..\..\..\..\Software\uCOS-III\Source/os_task.c **** *                             OS_ERR_TASK_NOT_SUSPENDED    if the task to resume has not been suspe
2207:..\..\..\..\..\..\Software\uCOS-III\Source/os_task.c **** *
2208:..\..\..\..\..\..\Software\uCOS-III\Source/os_task.c **** * Returns    : none
2209:..\..\..\..\..\..\Software\uCOS-III\Source/os_task.c **** *
2210:..\..\..\..\..\..\Software\uCOS-III\Source/os_task.c **** * Note(s)    : This function is INTERNAL to uC/OS-III and your application should not call it.
2211:..\..\..\..\..\..\Software\uCOS-III\Source/os_task.c **** ***************************************************************************************************
2212:..\..\..\..\..\..\Software\uCOS-III\Source/os_task.c **** */
2213:..\..\..\..\..\..\Software\uCOS-III\Source/os_task.c **** 
2214:..\..\..\..\..\..\Software\uCOS-III\Source/os_task.c **** #if OS_CFG_TASK_SUSPEND_EN > 0u
2215:..\..\..\..\..\..\Software\uCOS-III\Source/os_task.c **** void  OS_TaskResume (OS_TCB  *p_tcb,
2216:..\..\..\..\..\..\Software\uCOS-III\Source/os_task.c ****                      OS_ERR  *p_err)
2217:..\..\..\..\..\..\Software\uCOS-III\Source/os_task.c **** {
 2128              		.loc 1 2217 0
 2129              		.cfi_startproc
 2130              		@ args = 0, pretend = 0, frame = 16
 2131              		@ frame_needed = 1, uses_anonymous_args = 0
 2132 0000 80B5     		push	{r7, lr}
 2133              		.cfi_def_cfa_offset 8
 2134              		.cfi_offset 7, -8
 2135              		.cfi_offset 14, -4
 2136 0002 84B0     		sub	sp, sp, #16
 2137              		.cfi_def_cfa_offset 24
 2138 0004 00AF     		add	r7, sp, #0
 2139              		.cfi_def_cfa_register 7
 2140 0006 7860     		str	r0, [r7, #4]
 2141 0008 3960     		str	r1, [r7]
2218:..\..\..\..\..\..\Software\uCOS-III\Source/os_task.c ****     CPU_SR_ALLOC();
 2142              		.loc 1 2218 0
 2143 000a 0023     		movs	r3, #0
 2144 000c FB60     		str	r3, [r7, #12]
2219:..\..\..\..\..\..\Software\uCOS-III\Source/os_task.c **** 
2220:..\..\..\..\..\..\Software\uCOS-III\Source/os_task.c **** 
2221:..\..\..\..\..\..\Software\uCOS-III\Source/os_task.c ****     CPU_CRITICAL_ENTER();
 2145              		.loc 1 2221 0
 2146 000e FFF7FEFF 		bl	CPU_SR_Save
 2147 0012 0300     		movs	r3, r0
 2148 0014 FB60     		str	r3, [r7, #12]
 2149 0016 FFF7FEFF 		bl	CPU_IntDisMeasStart
ARM GAS  C:\Users\EDULU~1.DES\AppData\Local\Temp\ccyhp2HA.s 			page 78


2222:..\..\..\..\..\..\Software\uCOS-III\Source/os_task.c ****    *p_err  = OS_ERR_NONE;
 2150              		.loc 1 2222 0
 2151 001a 3B68     		ldr	r3, [r7]
 2152 001c 0022     		movs	r2, #0
 2153 001e 1A80     		strh	r2, [r3]
2223:..\..\..\..\..\..\Software\uCOS-III\Source/os_task.c ****     switch (p_tcb->TaskState) {
 2154              		.loc 1 2223 0
 2155 0020 7B68     		ldr	r3, [r7, #4]
 2156 0022 3622     		movs	r2, #54
 2157 0024 9B5C     		ldrb	r3, [r3, r2]
 2158 0026 072B     		cmp	r3, #7
 2159 0028 72D8     		bhi	.L142
 2160 002a 9A00     		lsls	r2, r3, #2
 2161 002c 404B     		ldr	r3, .L155
 2162 002e D318     		adds	r3, r2, r3
 2163 0030 1B68     		ldr	r3, [r3]
 2164 0032 9F46     		mov	pc, r3
 2165              		.section	.rodata
 2166 004a 0000     		.align	2
 2167              	.L144:
 2168 004c 34000000 		.word	.L143
 2169 0050 34000000 		.word	.L143
 2170 0054 34000000 		.word	.L143
 2171 0058 34000000 		.word	.L143
 2172 005c 48000000 		.word	.L145
 2173 0060 80000000 		.word	.L146
 2174 0064 B0000000 		.word	.L147
 2175 0068 E0000000 		.word	.L148
 2176              		.section	.text.OS_TaskResume
 2177              	.L143:
2224:..\..\..\..\..\..\Software\uCOS-III\Source/os_task.c ****         case OS_TASK_STATE_RDY:
2225:..\..\..\..\..\..\Software\uCOS-III\Source/os_task.c ****         case OS_TASK_STATE_DLY:
2226:..\..\..\..\..\..\Software\uCOS-III\Source/os_task.c ****         case OS_TASK_STATE_PEND:
2227:..\..\..\..\..\..\Software\uCOS-III\Source/os_task.c ****         case OS_TASK_STATE_PEND_TIMEOUT:
2228:..\..\..\..\..\..\Software\uCOS-III\Source/os_task.c ****              CPU_CRITICAL_EXIT();
 2178              		.loc 1 2228 0
 2179 0034 FFF7FEFF 		bl	CPU_IntDisMeasStop
 2180 0038 FB68     		ldr	r3, [r7, #12]
 2181 003a 1800     		movs	r0, r3
 2182 003c FFF7FEFF 		bl	CPU_SR_Restore
2229:..\..\..\..\..\..\Software\uCOS-III\Source/os_task.c ****             *p_err = OS_ERR_TASK_NOT_SUSPENDED;
 2183              		.loc 1 2229 0
 2184 0040 3B68     		ldr	r3, [r7]
 2185 0042 3C4A     		ldr	r2, .L155+4
 2186 0044 1A80     		strh	r2, [r3]
2230:..\..\..\..\..\..\Software\uCOS-III\Source/os_task.c ****              break;
 2187              		.loc 1 2230 0
 2188 0046 6DE0     		b	.L149
 2189              	.L145:
2231:..\..\..\..\..\..\Software\uCOS-III\Source/os_task.c **** 
2232:..\..\..\..\..\..\Software\uCOS-III\Source/os_task.c ****         case OS_TASK_STATE_SUSPENDED:
2233:..\..\..\..\..\..\Software\uCOS-III\Source/os_task.c ****              OS_CRITICAL_ENTER_CPU_EXIT();
2234:..\..\..\..\..\..\Software\uCOS-III\Source/os_task.c ****              p_tcb->SuspendCtr--;
 2190              		.loc 1 2234 0
 2191 0048 7B68     		ldr	r3, [r7, #4]
 2192 004a 6022     		movs	r2, #96
 2193 004c 9B5C     		ldrb	r3, [r3, r2]
ARM GAS  C:\Users\EDULU~1.DES\AppData\Local\Temp\ccyhp2HA.s 			page 79


 2194 004e 013B     		subs	r3, r3, #1
 2195 0050 D9B2     		uxtb	r1, r3
 2196 0052 7B68     		ldr	r3, [r7, #4]
 2197 0054 6022     		movs	r2, #96
 2198 0056 9954     		strb	r1, [r3, r2]
2235:..\..\..\..\..\..\Software\uCOS-III\Source/os_task.c ****              if (p_tcb->SuspendCtr == (OS_NESTING_CTR)0) {
 2199              		.loc 1 2235 0
 2200 0058 7B68     		ldr	r3, [r7, #4]
 2201 005a 6022     		movs	r2, #96
 2202 005c 9B5C     		ldrb	r3, [r3, r2]
 2203 005e 002B     		cmp	r3, #0
 2204 0060 07D1     		bne	.L150
2236:..\..\..\..\..\..\Software\uCOS-III\Source/os_task.c ****                  p_tcb->TaskState = OS_TASK_STATE_RDY;
 2205              		.loc 1 2236 0
 2206 0062 7B68     		ldr	r3, [r7, #4]
 2207 0064 3622     		movs	r2, #54
 2208 0066 0021     		movs	r1, #0
 2209 0068 9954     		strb	r1, [r3, r2]
2237:..\..\..\..\..\..\Software\uCOS-III\Source/os_task.c ****                  OS_TaskRdy(p_tcb);
 2210              		.loc 1 2237 0
 2211 006a 7B68     		ldr	r3, [r7, #4]
 2212 006c 1800     		movs	r0, r3
 2213 006e FFF7FEFF 		bl	OS_TaskRdy
 2214              	.L150:
2238:..\..\..\..\..\..\Software\uCOS-III\Source/os_task.c ****              }
2239:..\..\..\..\..\..\Software\uCOS-III\Source/os_task.c ****              OS_CRITICAL_EXIT_NO_SCHED();
 2215              		.loc 1 2239 0
 2216 0072 FFF7FEFF 		bl	CPU_IntDisMeasStop
 2217 0076 FB68     		ldr	r3, [r7, #12]
 2218 0078 1800     		movs	r0, r3
 2219 007a FFF7FEFF 		bl	CPU_SR_Restore
2240:..\..\..\..\..\..\Software\uCOS-III\Source/os_task.c ****              break;
 2220              		.loc 1 2240 0
 2221 007e 51E0     		b	.L149
 2222              	.L146:
2241:..\..\..\..\..\..\Software\uCOS-III\Source/os_task.c **** 
2242:..\..\..\..\..\..\Software\uCOS-III\Source/os_task.c ****         case OS_TASK_STATE_DLY_SUSPENDED:
2243:..\..\..\..\..\..\Software\uCOS-III\Source/os_task.c ****              p_tcb->SuspendCtr--;
 2223              		.loc 1 2243 0
 2224 0080 7B68     		ldr	r3, [r7, #4]
 2225 0082 6022     		movs	r2, #96
 2226 0084 9B5C     		ldrb	r3, [r3, r2]
 2227 0086 013B     		subs	r3, r3, #1
 2228 0088 D9B2     		uxtb	r1, r3
 2229 008a 7B68     		ldr	r3, [r7, #4]
 2230 008c 6022     		movs	r2, #96
 2231 008e 9954     		strb	r1, [r3, r2]
2244:..\..\..\..\..\..\Software\uCOS-III\Source/os_task.c ****              if (p_tcb->SuspendCtr == (OS_NESTING_CTR)0) {
 2232              		.loc 1 2244 0
 2233 0090 7B68     		ldr	r3, [r7, #4]
 2234 0092 6022     		movs	r2, #96
 2235 0094 9B5C     		ldrb	r3, [r3, r2]
 2236 0096 002B     		cmp	r3, #0
 2237 0098 03D1     		bne	.L151
2245:..\..\..\..\..\..\Software\uCOS-III\Source/os_task.c ****                  p_tcb->TaskState = OS_TASK_STATE_DLY;
 2238              		.loc 1 2245 0
 2239 009a 7B68     		ldr	r3, [r7, #4]
ARM GAS  C:\Users\EDULU~1.DES\AppData\Local\Temp\ccyhp2HA.s 			page 80


 2240 009c 3622     		movs	r2, #54
 2241 009e 0121     		movs	r1, #1
 2242 00a0 9954     		strb	r1, [r3, r2]
 2243              	.L151:
2246:..\..\..\..\..\..\Software\uCOS-III\Source/os_task.c ****              }
2247:..\..\..\..\..\..\Software\uCOS-III\Source/os_task.c ****              CPU_CRITICAL_EXIT();
 2244              		.loc 1 2247 0
 2245 00a2 FFF7FEFF 		bl	CPU_IntDisMeasStop
 2246 00a6 FB68     		ldr	r3, [r7, #12]
 2247 00a8 1800     		movs	r0, r3
 2248 00aa FFF7FEFF 		bl	CPU_SR_Restore
2248:..\..\..\..\..\..\Software\uCOS-III\Source/os_task.c ****              break;
 2249              		.loc 1 2248 0
 2250 00ae 39E0     		b	.L149
 2251              	.L147:
2249:..\..\..\..\..\..\Software\uCOS-III\Source/os_task.c **** 
2250:..\..\..\..\..\..\Software\uCOS-III\Source/os_task.c ****         case OS_TASK_STATE_PEND_SUSPENDED:
2251:..\..\..\..\..\..\Software\uCOS-III\Source/os_task.c ****              p_tcb->SuspendCtr--;
 2252              		.loc 1 2251 0
 2253 00b0 7B68     		ldr	r3, [r7, #4]
 2254 00b2 6022     		movs	r2, #96
 2255 00b4 9B5C     		ldrb	r3, [r3, r2]
 2256 00b6 013B     		subs	r3, r3, #1
 2257 00b8 D9B2     		uxtb	r1, r3
 2258 00ba 7B68     		ldr	r3, [r7, #4]
 2259 00bc 6022     		movs	r2, #96
 2260 00be 9954     		strb	r1, [r3, r2]
2252:..\..\..\..\..\..\Software\uCOS-III\Source/os_task.c ****              if (p_tcb->SuspendCtr == (OS_NESTING_CTR)0) {
 2261              		.loc 1 2252 0
 2262 00c0 7B68     		ldr	r3, [r7, #4]
 2263 00c2 6022     		movs	r2, #96
 2264 00c4 9B5C     		ldrb	r3, [r3, r2]
 2265 00c6 002B     		cmp	r3, #0
 2266 00c8 03D1     		bne	.L152
2253:..\..\..\..\..\..\Software\uCOS-III\Source/os_task.c ****                  p_tcb->TaskState = OS_TASK_STATE_PEND;
 2267              		.loc 1 2253 0
 2268 00ca 7B68     		ldr	r3, [r7, #4]
 2269 00cc 3622     		movs	r2, #54
 2270 00ce 0221     		movs	r1, #2
 2271 00d0 9954     		strb	r1, [r3, r2]
 2272              	.L152:
2254:..\..\..\..\..\..\Software\uCOS-III\Source/os_task.c ****              }
2255:..\..\..\..\..\..\Software\uCOS-III\Source/os_task.c ****              CPU_CRITICAL_EXIT();
 2273              		.loc 1 2255 0
 2274 00d2 FFF7FEFF 		bl	CPU_IntDisMeasStop
 2275 00d6 FB68     		ldr	r3, [r7, #12]
 2276 00d8 1800     		movs	r0, r3
 2277 00da FFF7FEFF 		bl	CPU_SR_Restore
2256:..\..\..\..\..\..\Software\uCOS-III\Source/os_task.c ****              break;
 2278              		.loc 1 2256 0
 2279 00de 21E0     		b	.L149
 2280              	.L148:
2257:..\..\..\..\..\..\Software\uCOS-III\Source/os_task.c **** 
2258:..\..\..\..\..\..\Software\uCOS-III\Source/os_task.c ****         case OS_TASK_STATE_PEND_TIMEOUT_SUSPENDED:
2259:..\..\..\..\..\..\Software\uCOS-III\Source/os_task.c ****              p_tcb->SuspendCtr--;
 2281              		.loc 1 2259 0
 2282 00e0 7B68     		ldr	r3, [r7, #4]
ARM GAS  C:\Users\EDULU~1.DES\AppData\Local\Temp\ccyhp2HA.s 			page 81


 2283 00e2 6022     		movs	r2, #96
 2284 00e4 9B5C     		ldrb	r3, [r3, r2]
 2285 00e6 013B     		subs	r3, r3, #1
 2286 00e8 D9B2     		uxtb	r1, r3
 2287 00ea 7B68     		ldr	r3, [r7, #4]
 2288 00ec 6022     		movs	r2, #96
 2289 00ee 9954     		strb	r1, [r3, r2]
2260:..\..\..\..\..\..\Software\uCOS-III\Source/os_task.c ****              if (p_tcb->SuspendCtr == (OS_NESTING_CTR)0) {
 2290              		.loc 1 2260 0
 2291 00f0 7B68     		ldr	r3, [r7, #4]
 2292 00f2 6022     		movs	r2, #96
 2293 00f4 9B5C     		ldrb	r3, [r3, r2]
 2294 00f6 002B     		cmp	r3, #0
 2295 00f8 03D1     		bne	.L153
2261:..\..\..\..\..\..\Software\uCOS-III\Source/os_task.c ****                  p_tcb->TaskState = OS_TASK_STATE_PEND_TIMEOUT;
 2296              		.loc 1 2261 0
 2297 00fa 7B68     		ldr	r3, [r7, #4]
 2298 00fc 3622     		movs	r2, #54
 2299 00fe 0321     		movs	r1, #3
 2300 0100 9954     		strb	r1, [r3, r2]
 2301              	.L153:
2262:..\..\..\..\..\..\Software\uCOS-III\Source/os_task.c ****              }
2263:..\..\..\..\..\..\Software\uCOS-III\Source/os_task.c ****              CPU_CRITICAL_EXIT();
 2302              		.loc 1 2263 0
 2303 0102 FFF7FEFF 		bl	CPU_IntDisMeasStop
 2304 0106 FB68     		ldr	r3, [r7, #12]
 2305 0108 1800     		movs	r0, r3
 2306 010a FFF7FEFF 		bl	CPU_SR_Restore
2264:..\..\..\..\..\..\Software\uCOS-III\Source/os_task.c ****              break;
 2307              		.loc 1 2264 0
 2308 010e 09E0     		b	.L149
 2309              	.L142:
2265:..\..\..\..\..\..\Software\uCOS-III\Source/os_task.c **** 
2266:..\..\..\..\..\..\Software\uCOS-III\Source/os_task.c ****         default:
2267:..\..\..\..\..\..\Software\uCOS-III\Source/os_task.c ****              CPU_CRITICAL_EXIT();
 2310              		.loc 1 2267 0
 2311 0110 FFF7FEFF 		bl	CPU_IntDisMeasStop
 2312 0114 FB68     		ldr	r3, [r7, #12]
 2313 0116 1800     		movs	r0, r3
 2314 0118 FFF7FEFF 		bl	CPU_SR_Restore
2268:..\..\..\..\..\..\Software\uCOS-III\Source/os_task.c ****             *p_err = OS_ERR_STATE_INVALID;
 2315              		.loc 1 2268 0
 2316 011c 3B68     		ldr	r3, [r7]
 2317 011e 064A     		ldr	r2, .L155+8
 2318 0120 1A80     		strh	r2, [r3]
2269:..\..\..\..\..\..\Software\uCOS-III\Source/os_task.c ****              return;
 2319              		.loc 1 2269 0
 2320 0122 01E0     		b	.L141
 2321              	.L149:
2270:..\..\..\..\..\..\Software\uCOS-III\Source/os_task.c ****     }
2271:..\..\..\..\..\..\Software\uCOS-III\Source/os_task.c **** 
2272:..\..\..\..\..\..\Software\uCOS-III\Source/os_task.c ****     OSSched();
 2322              		.loc 1 2272 0
 2323 0124 FFF7FEFF 		bl	OSSched
 2324              	.L141:
2273:..\..\..\..\..\..\Software\uCOS-III\Source/os_task.c **** }
 2325              		.loc 1 2273 0
ARM GAS  C:\Users\EDULU~1.DES\AppData\Local\Temp\ccyhp2HA.s 			page 82


 2326 0128 BD46     		mov	sp, r7
 2327 012a 04B0     		add	sp, sp, #16
 2328              		@ sp needed
 2329 012c 80BD     		pop	{r7, pc}
 2330              	.L156:
 2331 012e C046     		.align	2
 2332              	.L155:
 2333 0130 4C000000 		.word	.L144
 2334 0134 53710000 		.word	29011
 2335 0138 2D6E0000 		.word	28205
 2336              		.cfi_endproc
 2337              	.LFE16:
 2338              		.size	OS_TaskResume, .-OS_TaskResume
 2339              		.section	.text.OS_TaskReturn,"ax",%progbits
 2340              		.align	2
 2341              		.global	OS_TaskReturn
 2342              		.code	16
 2343              		.thumb_func
 2344              		.type	OS_TaskReturn, %function
 2345              	OS_TaskReturn:
 2346              	.LFB17:
2274:..\..\..\..\..\..\Software\uCOS-III\Source/os_task.c **** #endif
2275:..\..\..\..\..\..\Software\uCOS-III\Source/os_task.c **** 
2276:..\..\..\..\..\..\Software\uCOS-III\Source/os_task.c **** /*$PAGE*/
2277:..\..\..\..\..\..\Software\uCOS-III\Source/os_task.c **** /*
2278:..\..\..\..\..\..\Software\uCOS-III\Source/os_task.c **** ***************************************************************************************************
2279:..\..\..\..\..\..\Software\uCOS-III\Source/os_task.c **** *                                              CATCH ACCIDENTAL TASK RETURN
2280:..\..\..\..\..\..\Software\uCOS-III\Source/os_task.c **** *
2281:..\..\..\..\..\..\Software\uCOS-III\Source/os_task.c **** * Description: This function is called if a task accidentally returns without deleting itself.  In 
2282:..\..\..\..\..\..\Software\uCOS-III\Source/os_task.c **** *              should either be an infinite loop or delete itself if it's done.
2283:..\..\..\..\..\..\Software\uCOS-III\Source/os_task.c **** *
2284:..\..\..\..\..\..\Software\uCOS-III\Source/os_task.c **** * Arguments  : none
2285:..\..\..\..\..\..\Software\uCOS-III\Source/os_task.c **** *
2286:..\..\..\..\..\..\Software\uCOS-III\Source/os_task.c **** * Returns    : none
2287:..\..\..\..\..\..\Software\uCOS-III\Source/os_task.c **** *
2288:..\..\..\..\..\..\Software\uCOS-III\Source/os_task.c **** * Note(s)    : This function is INTERNAL to uC/OS-III and your application should not call it.
2289:..\..\..\..\..\..\Software\uCOS-III\Source/os_task.c **** ***************************************************************************************************
2290:..\..\..\..\..\..\Software\uCOS-III\Source/os_task.c **** */
2291:..\..\..\..\..\..\Software\uCOS-III\Source/os_task.c **** 
2292:..\..\..\..\..\..\Software\uCOS-III\Source/os_task.c **** void  OS_TaskReturn (void)
2293:..\..\..\..\..\..\Software\uCOS-III\Source/os_task.c **** {
 2347              		.loc 1 2293 0
 2348              		.cfi_startproc
 2349              		@ args = 0, pretend = 0, frame = 8
 2350              		@ frame_needed = 1, uses_anonymous_args = 0
 2351 0000 80B5     		push	{r7, lr}
 2352              		.cfi_def_cfa_offset 8
 2353              		.cfi_offset 7, -8
 2354              		.cfi_offset 14, -4
 2355 0002 82B0     		sub	sp, sp, #8
 2356              		.cfi_def_cfa_offset 16
 2357 0004 00AF     		add	r7, sp, #0
 2358              		.cfi_def_cfa_register 7
2294:..\..\..\..\..\..\Software\uCOS-III\Source/os_task.c ****     OS_ERR  err;
2295:..\..\..\..\..\..\Software\uCOS-III\Source/os_task.c **** 
2296:..\..\..\..\..\..\Software\uCOS-III\Source/os_task.c **** 
2297:..\..\..\..\..\..\Software\uCOS-III\Source/os_task.c **** 
ARM GAS  C:\Users\EDULU~1.DES\AppData\Local\Temp\ccyhp2HA.s 			page 83


2298:..\..\..\..\..\..\Software\uCOS-III\Source/os_task.c ****     OSTaskReturnHook(OSTCBCurPtr);                          /* Call hook to let user decide on what
 2359              		.loc 1 2298 0
 2360 0006 064B     		ldr	r3, .L159
 2361 0008 1B68     		ldr	r3, [r3]
 2362 000a 1800     		movs	r0, r3
 2363 000c FFF7FEFF 		bl	OSTaskReturnHook
 2364              	.L158:
2299:..\..\..\..\..\..\Software\uCOS-III\Source/os_task.c **** #if OS_CFG_TASK_DEL_EN > 0u
2300:..\..\..\..\..\..\Software\uCOS-III\Source/os_task.c ****     OSTaskDel((OS_TCB *)0,                                  /* Delete task if it accidentally retur
2301:..\..\..\..\..\..\Software\uCOS-III\Source/os_task.c ****               (OS_ERR *)&err);
2302:..\..\..\..\..\..\Software\uCOS-III\Source/os_task.c **** #else
2303:..\..\..\..\..\..\Software\uCOS-III\Source/os_task.c ****     for (;;) {
2304:..\..\..\..\..\..\Software\uCOS-III\Source/os_task.c ****         OSTimeDly((OS_TICK )OSCfg_TickRate_Hz,
 2365              		.loc 1 2304 0 discriminator 1
 2366 0010 044B     		ldr	r3, .L159+4
 2367 0012 1B68     		ldr	r3, [r3]
 2368 0014 BA1D     		adds	r2, r7, #6
 2369 0016 0021     		movs	r1, #0
 2370 0018 1800     		movs	r0, r3
 2371 001a FFF7FEFF 		bl	OSTimeDly
2305:..\..\..\..\..\..\Software\uCOS-III\Source/os_task.c ****                   (OS_OPT  )OS_OPT_TIME_DLY,
2306:..\..\..\..\..\..\Software\uCOS-III\Source/os_task.c ****                   (OS_ERR *)&err);
2307:..\..\..\..\..\..\Software\uCOS-III\Source/os_task.c ****     }
 2372              		.loc 1 2307 0 discriminator 1
 2373 001e F7E7     		b	.L158
 2374              	.L160:
 2375              		.align	2
 2376              	.L159:
 2377 0020 00000000 		.word	OSTCBCurPtr
 2378 0024 00000000 		.word	OSCfg_TickRate_Hz
 2379              		.cfi_endproc
 2380              	.LFE17:
 2381              		.size	OS_TaskReturn, .-OS_TaskReturn
 2382              		.section	.text.OS_TaskSemPost,"ax",%progbits
 2383              		.align	2
 2384              		.global	OS_TaskSemPost
 2385              		.code	16
 2386              		.thumb_func
 2387              		.type	OS_TaskSemPost, %function
 2388              	OS_TaskSemPost:
 2389              	.LFB18:
2308:..\..\..\..\..\..\Software\uCOS-III\Source/os_task.c **** #endif
2309:..\..\..\..\..\..\Software\uCOS-III\Source/os_task.c **** }
2310:..\..\..\..\..\..\Software\uCOS-III\Source/os_task.c **** 
2311:..\..\..\..\..\..\Software\uCOS-III\Source/os_task.c **** /*$PAGE*/
2312:..\..\..\..\..\..\Software\uCOS-III\Source/os_task.c **** /*
2313:..\..\..\..\..\..\Software\uCOS-III\Source/os_task.c **** ***************************************************************************************************
2314:..\..\..\..\..\..\Software\uCOS-III\Source/os_task.c **** *                                                    SIGNAL A TASK
2315:..\..\..\..\..\..\Software\uCOS-III\Source/os_task.c **** *
2316:..\..\..\..\..\..\Software\uCOS-III\Source/os_task.c **** * Description: This function is called to signal a task waiting for a signal.
2317:..\..\..\..\..\..\Software\uCOS-III\Source/os_task.c **** *
2318:..\..\..\..\..\..\Software\uCOS-III\Source/os_task.c **** * Arguments  : p_tcb     is the pointer to the TCB of the task to signal.  A NULL pointer indicates
2319:..\..\..\..\..\..\Software\uCOS-III\Source/os_task.c **** *                        a signal to yourself.
2320:..\..\..\..\..\..\Software\uCOS-III\Source/os_task.c **** *
2321:..\..\..\..\..\..\Software\uCOS-III\Source/os_task.c **** *              opt       determines the type of POST performed:
2322:..\..\..\..\..\..\Software\uCOS-III\Source/os_task.c **** *
2323:..\..\..\..\..\..\Software\uCOS-III\Source/os_task.c **** *                             OS_OPT_POST_NONE         No option
ARM GAS  C:\Users\EDULU~1.DES\AppData\Local\Temp\ccyhp2HA.s 			page 84


2324:..\..\..\..\..\..\Software\uCOS-III\Source/os_task.c **** *
2325:..\..\..\..\..\..\Software\uCOS-III\Source/os_task.c **** *                             OS_OPT_POST_NO_SCHED     Do not call the scheduler
2326:..\..\..\..\..\..\Software\uCOS-III\Source/os_task.c **** *
2327:..\..\..\..\..\..\Software\uCOS-III\Source/os_task.c **** *              ts        is a timestamp indicating when the post occurred.
2328:..\..\..\..\..\..\Software\uCOS-III\Source/os_task.c **** *
2329:..\..\..\..\..\..\Software\uCOS-III\Source/os_task.c **** *              p_err     is a pointer to an error code returned by this function:
2330:..\..\..\..\..\..\Software\uCOS-III\Source/os_task.c **** *
2331:..\..\..\..\..\..\Software\uCOS-III\Source/os_task.c **** *                            OS_ERR_NONE           If the requested task is signaled
2332:..\..\..\..\..\..\Software\uCOS-III\Source/os_task.c **** *                            OS_ERR_SEM_OVF        If the post would cause the semaphore count to o
2333:..\..\..\..\..\..\Software\uCOS-III\Source/os_task.c **** *                            OS_ERR_STATE_INVALID  If the task is in an invalid state.  This should
2334:..\..\..\..\..\..\Software\uCOS-III\Source/os_task.c **** *                                                  and if it does, would be considered a system fai
2335:..\..\..\..\..\..\Software\uCOS-III\Source/os_task.c **** *
2336:..\..\..\..\..\..\Software\uCOS-III\Source/os_task.c **** * Returns    : The current value of the task's signal counter or 0 if called from an ISR
2337:..\..\..\..\..\..\Software\uCOS-III\Source/os_task.c **** *
2338:..\..\..\..\..\..\Software\uCOS-III\Source/os_task.c **** * Note(s)    : This function is INTERNAL to uC/OS-III and your application should not call it.
2339:..\..\..\..\..\..\Software\uCOS-III\Source/os_task.c **** ***************************************************************************************************
2340:..\..\..\..\..\..\Software\uCOS-III\Source/os_task.c **** */
2341:..\..\..\..\..\..\Software\uCOS-III\Source/os_task.c **** 
2342:..\..\..\..\..\..\Software\uCOS-III\Source/os_task.c **** OS_SEM_CTR  OS_TaskSemPost (OS_TCB  *p_tcb,
2343:..\..\..\..\..\..\Software\uCOS-III\Source/os_task.c ****                             OS_OPT   opt,
2344:..\..\..\..\..\..\Software\uCOS-III\Source/os_task.c ****                             CPU_TS   ts,
2345:..\..\..\..\..\..\Software\uCOS-III\Source/os_task.c ****                             OS_ERR  *p_err)
2346:..\..\..\..\..\..\Software\uCOS-III\Source/os_task.c **** {
 2390              		.loc 1 2346 0
 2391              		.cfi_startproc
 2392              		@ args = 0, pretend = 0, frame = 24
 2393              		@ frame_needed = 1, uses_anonymous_args = 0
 2394 0000 80B5     		push	{r7, lr}
 2395              		.cfi_def_cfa_offset 8
 2396              		.cfi_offset 7, -8
 2397              		.cfi_offset 14, -4
 2398 0002 88B0     		sub	sp, sp, #32
 2399              		.cfi_def_cfa_offset 40
 2400 0004 02AF     		add	r7, sp, #8
 2401              		.cfi_def_cfa 7, 32
 2402 0006 F860     		str	r0, [r7, #12]
 2403 0008 7A60     		str	r2, [r7, #4]
 2404 000a 3B60     		str	r3, [r7]
 2405 000c 0A23     		movs	r3, #10
 2406 000e FB18     		adds	r3, r7, r3
 2407 0010 0A1C     		adds	r2, r1, #0
 2408 0012 1A80     		strh	r2, [r3]
2347:..\..\..\..\..\..\Software\uCOS-III\Source/os_task.c ****     OS_SEM_CTR  ctr;
2348:..\..\..\..\..\..\Software\uCOS-III\Source/os_task.c ****     CPU_SR_ALLOC();
 2409              		.loc 1 2348 0
 2410 0014 0023     		movs	r3, #0
 2411 0016 3B61     		str	r3, [r7, #16]
2349:..\..\..\..\..\..\Software\uCOS-III\Source/os_task.c **** 
2350:..\..\..\..\..\..\Software\uCOS-III\Source/os_task.c **** 
2351:..\..\..\..\..\..\Software\uCOS-III\Source/os_task.c **** 
2352:..\..\..\..\..\..\Software\uCOS-III\Source/os_task.c ****     OS_CRITICAL_ENTER();
 2412              		.loc 1 2352 0
 2413 0018 FFF7FEFF 		bl	CPU_SR_Save
 2414 001c 0300     		movs	r3, r0
 2415 001e 3B61     		str	r3, [r7, #16]
 2416 0020 FFF7FEFF 		bl	CPU_IntDisMeasStart
2353:..\..\..\..\..\..\Software\uCOS-III\Source/os_task.c ****     if (p_tcb == (OS_TCB *)0) {                             /* Post signal to 'self'?              
ARM GAS  C:\Users\EDULU~1.DES\AppData\Local\Temp\ccyhp2HA.s 			page 85


 2417              		.loc 1 2353 0
 2418 0024 FB68     		ldr	r3, [r7, #12]
 2419 0026 002B     		cmp	r3, #0
 2420 0028 02D1     		bne	.L162
2354:..\..\..\..\..\..\Software\uCOS-III\Source/os_task.c ****         p_tcb = OSTCBCurPtr;
 2421              		.loc 1 2354 0
 2422 002a 414B     		ldr	r3, .L179
 2423 002c 1B68     		ldr	r3, [r3]
 2424 002e FB60     		str	r3, [r7, #12]
 2425              	.L162:
2355:..\..\..\..\..\..\Software\uCOS-III\Source/os_task.c ****     }
2356:..\..\..\..\..\..\Software\uCOS-III\Source/os_task.c ****     p_tcb->TS = ts;
 2426              		.loc 1 2356 0
 2427 0030 FB68     		ldr	r3, [r7, #12]
 2428 0032 7A68     		ldr	r2, [r7, #4]
 2429 0034 1A64     		str	r2, [r3, #64]
2357:..\..\..\..\..\..\Software\uCOS-III\Source/os_task.c ****    *p_err     = OS_ERR_NONE;                                /* Assume we won't have any errors     
 2430              		.loc 1 2357 0
 2431 0036 3B68     		ldr	r3, [r7]
 2432 0038 0022     		movs	r2, #0
 2433 003a 1A80     		strh	r2, [r3]
2358:..\..\..\..\..\..\Software\uCOS-III\Source/os_task.c ****     switch (p_tcb->TaskState) {
 2434              		.loc 1 2358 0
 2435 003c FB68     		ldr	r3, [r7, #12]
 2436 003e 3622     		movs	r2, #54
 2437 0040 9B5C     		ldrb	r3, [r3, r2]
 2438 0042 072B     		cmp	r3, #7
 2439 0044 61D8     		bhi	.L163
 2440 0046 9A00     		lsls	r2, r3, #2
 2441 0048 3A4B     		ldr	r3, .L179+4
 2442 004a D318     		adds	r3, r2, r3
 2443 004c 1B68     		ldr	r3, [r3]
 2444 004e 9F46     		mov	pc, r3
 2445              		.section	.rodata
 2446              		.align	2
 2447              	.L165:
 2448 006c 50000000 		.word	.L164
 2449 0070 50000000 		.word	.L164
 2450 0074 8E000000 		.word	.L166
 2451 0078 8E000000 		.word	.L166
 2452 007c 50000000 		.word	.L164
 2453 0080 50000000 		.word	.L164
 2454 0084 8E000000 		.word	.L166
 2455 0088 8E000000 		.word	.L166
 2456              		.section	.text.OS_TaskSemPost
 2457              	.L164:
2359:..\..\..\..\..\..\Software\uCOS-III\Source/os_task.c ****         case OS_TASK_STATE_RDY:
2360:..\..\..\..\..\..\Software\uCOS-III\Source/os_task.c ****         case OS_TASK_STATE_DLY:
2361:..\..\..\..\..\..\Software\uCOS-III\Source/os_task.c ****         case OS_TASK_STATE_SUSPENDED:
2362:..\..\..\..\..\..\Software\uCOS-III\Source/os_task.c ****         case OS_TASK_STATE_DLY_SUSPENDED:
2363:..\..\..\..\..\..\Software\uCOS-III\Source/os_task.c ****              switch (sizeof(OS_SEM_CTR)) {
2364:..\..\..\..\..\..\Software\uCOS-III\Source/os_task.c ****                  case 1u:
2365:..\..\..\..\..\..\Software\uCOS-III\Source/os_task.c ****                       if (p_tcb->SemCtr == DEF_INT_08U_MAX_VAL) {
2366:..\..\..\..\..\..\Software\uCOS-III\Source/os_task.c ****                           OS_CRITICAL_EXIT();
2367:..\..\..\..\..\..\Software\uCOS-III\Source/os_task.c ****                          *p_err = OS_ERR_SEM_OVF;
2368:..\..\..\..\..\..\Software\uCOS-III\Source/os_task.c ****                           return ((OS_SEM_CTR)0);
2369:..\..\..\..\..\..\Software\uCOS-III\Source/os_task.c ****                       }
ARM GAS  C:\Users\EDULU~1.DES\AppData\Local\Temp\ccyhp2HA.s 			page 86


2370:..\..\..\..\..\..\Software\uCOS-III\Source/os_task.c ****                       break;
2371:..\..\..\..\..\..\Software\uCOS-III\Source/os_task.c **** 
2372:..\..\..\..\..\..\Software\uCOS-III\Source/os_task.c ****                  case 2u:
2373:..\..\..\..\..\..\Software\uCOS-III\Source/os_task.c ****                       if (p_tcb->SemCtr == DEF_INT_16U_MAX_VAL) {
2374:..\..\..\..\..\..\Software\uCOS-III\Source/os_task.c ****                           OS_CRITICAL_EXIT();
2375:..\..\..\..\..\..\Software\uCOS-III\Source/os_task.c ****                          *p_err = OS_ERR_SEM_OVF;
2376:..\..\..\..\..\..\Software\uCOS-III\Source/os_task.c ****                           return ((OS_SEM_CTR)0);
2377:..\..\..\..\..\..\Software\uCOS-III\Source/os_task.c ****                       }
2378:..\..\..\..\..\..\Software\uCOS-III\Source/os_task.c ****                       break;
2379:..\..\..\..\..\..\Software\uCOS-III\Source/os_task.c **** 
2380:..\..\..\..\..\..\Software\uCOS-III\Source/os_task.c ****                  case 4u:
2381:..\..\..\..\..\..\Software\uCOS-III\Source/os_task.c ****                       if (p_tcb->SemCtr == DEF_INT_32U_MAX_VAL) {
 2458              		.loc 1 2381 0
 2459 0050 FB68     		ldr	r3, [r7, #12]
 2460 0052 5B6C     		ldr	r3, [r3, #68]
 2461 0054 0133     		adds	r3, r3, #1
 2462 0056 0AD1     		bne	.L176
2382:..\..\..\..\..\..\Software\uCOS-III\Source/os_task.c ****                           OS_CRITICAL_EXIT();
 2463              		.loc 1 2382 0
 2464 0058 FFF7FEFF 		bl	CPU_IntDisMeasStop
 2465 005c 3B69     		ldr	r3, [r7, #16]
 2466 005e 1800     		movs	r0, r3
 2467 0060 FFF7FEFF 		bl	CPU_SR_Restore
2383:..\..\..\..\..\..\Software\uCOS-III\Source/os_task.c ****                          *p_err = OS_ERR_SEM_OVF;
 2468              		.loc 1 2383 0
 2469 0064 3B68     		ldr	r3, [r7]
 2470 0066 344A     		ldr	r2, .L179+8
 2471 0068 1A80     		strh	r2, [r3]
2384:..\..\..\..\..\..\Software\uCOS-III\Source/os_task.c ****                           return ((OS_SEM_CTR)0);
 2472              		.loc 1 2384 0
 2473 006a 0023     		movs	r3, #0
 2474 006c 5BE0     		b	.L168
 2475              	.L176:
2385:..\..\..\..\..\..\Software\uCOS-III\Source/os_task.c ****                       }
2386:..\..\..\..\..\..\Software\uCOS-III\Source/os_task.c ****                       break;
 2476              		.loc 1 2386 0
 2477 006e C046     		nop
2387:..\..\..\..\..\..\Software\uCOS-III\Source/os_task.c **** 
2388:..\..\..\..\..\..\Software\uCOS-III\Source/os_task.c ****                  default:
2389:..\..\..\..\..\..\Software\uCOS-III\Source/os_task.c ****                       break;
2390:..\..\..\..\..\..\Software\uCOS-III\Source/os_task.c ****              }
2391:..\..\..\..\..\..\Software\uCOS-III\Source/os_task.c ****              p_tcb->SemCtr++;                               /* Task signaled is not pending on anyt
 2478              		.loc 1 2391 0
 2479 0070 FB68     		ldr	r3, [r7, #12]
 2480 0072 5B6C     		ldr	r3, [r3, #68]
 2481 0074 5A1C     		adds	r2, r3, #1
 2482 0076 FB68     		ldr	r3, [r7, #12]
 2483 0078 5A64     		str	r2, [r3, #68]
2392:..\..\..\..\..\..\Software\uCOS-III\Source/os_task.c ****              ctr = p_tcb->SemCtr;
 2484              		.loc 1 2392 0
 2485 007a FB68     		ldr	r3, [r7, #12]
 2486 007c 5B6C     		ldr	r3, [r3, #68]
 2487 007e 7B61     		str	r3, [r7, #20]
2393:..\..\..\..\..\..\Software\uCOS-III\Source/os_task.c ****              OS_CRITICAL_EXIT();
 2488              		.loc 1 2393 0
 2489 0080 FFF7FEFF 		bl	CPU_IntDisMeasStop
 2490 0084 3B69     		ldr	r3, [r7, #16]
ARM GAS  C:\Users\EDULU~1.DES\AppData\Local\Temp\ccyhp2HA.s 			page 87


 2491 0086 1800     		movs	r0, r3
 2492 0088 FFF7FEFF 		bl	CPU_SR_Restore
2394:..\..\..\..\..\..\Software\uCOS-III\Source/os_task.c ****              break;
 2493              		.loc 1 2394 0
 2494 008c 4AE0     		b	.L169
 2495              	.L166:
2395:..\..\..\..\..\..\Software\uCOS-III\Source/os_task.c **** 
2396:..\..\..\..\..\..\Software\uCOS-III\Source/os_task.c ****         case OS_TASK_STATE_PEND:
2397:..\..\..\..\..\..\Software\uCOS-III\Source/os_task.c ****         case OS_TASK_STATE_PEND_TIMEOUT:
2398:..\..\..\..\..\..\Software\uCOS-III\Source/os_task.c ****         case OS_TASK_STATE_PEND_SUSPENDED:
2399:..\..\..\..\..\..\Software\uCOS-III\Source/os_task.c ****         case OS_TASK_STATE_PEND_TIMEOUT_SUSPENDED:
2400:..\..\..\..\..\..\Software\uCOS-III\Source/os_task.c ****              if (p_tcb->PendOn == OS_TASK_PEND_ON_TASK_SEM) {   /* Is task signaled waiting for a s
 2496              		.loc 1 2400 0
 2497 008e FB68     		ldr	r3, [r7, #12]
 2498 0090 3422     		movs	r2, #52
 2499 0092 9B5C     		ldrb	r3, [r3, r2]
 2500 0094 072B     		cmp	r3, #7
 2501 0096 19D1     		bne	.L170
2401:..\..\..\..\..\..\Software\uCOS-III\Source/os_task.c ****                  OS_Post((OS_PEND_OBJ *)0,                      /*      Task is pending on signal  
 2502              		.loc 1 2401 0
 2503 0098 F968     		ldr	r1, [r7, #12]
 2504 009a 7B68     		ldr	r3, [r7, #4]
 2505 009c 0093     		str	r3, [sp]
 2506 009e 0023     		movs	r3, #0
 2507 00a0 0022     		movs	r2, #0
 2508 00a2 0020     		movs	r0, #0
 2509 00a4 FFF7FEFF 		bl	OS_Post
2402:..\..\..\..\..\..\Software\uCOS-III\Source/os_task.c ****                          (OS_TCB      *)p_tcb,
2403:..\..\..\..\..\..\Software\uCOS-III\Source/os_task.c ****                          (void        *)0,
2404:..\..\..\..\..\..\Software\uCOS-III\Source/os_task.c ****                          (OS_MSG_SIZE  )0u,
2405:..\..\..\..\..\..\Software\uCOS-III\Source/os_task.c ****                          (CPU_TS       )ts);
2406:..\..\..\..\..\..\Software\uCOS-III\Source/os_task.c ****                  ctr = p_tcb->SemCtr;
 2510              		.loc 1 2406 0
 2511 00a8 FB68     		ldr	r3, [r7, #12]
 2512 00aa 5B6C     		ldr	r3, [r3, #68]
 2513 00ac 7B61     		str	r3, [r7, #20]
2407:..\..\..\..\..\..\Software\uCOS-III\Source/os_task.c ****                  OS_CRITICAL_EXIT_NO_SCHED();
 2514              		.loc 1 2407 0
 2515 00ae FFF7FEFF 		bl	CPU_IntDisMeasStop
 2516 00b2 3B69     		ldr	r3, [r7, #16]
 2517 00b4 1800     		movs	r0, r3
 2518 00b6 FFF7FEFF 		bl	CPU_SR_Restore
2408:..\..\..\..\..\..\Software\uCOS-III\Source/os_task.c ****                  if ((opt & OS_OPT_POST_NO_SCHED) == (OS_OPT)0) {
 2519              		.loc 1 2408 0
 2520 00ba 0A23     		movs	r3, #10
 2521 00bc FB18     		adds	r3, r7, r3
 2522 00be 0022     		movs	r2, #0
 2523 00c0 9B5E     		ldrsh	r3, [r3, r2]
 2524 00c2 002B     		cmp	r3, #0
 2525 00c4 2DDB     		blt	.L177
2409:..\..\..\..\..\..\Software\uCOS-III\Source/os_task.c ****                      OSSched();                                 /* Run the scheduler               
 2526              		.loc 1 2409 0
 2527 00c6 FFF7FEFF 		bl	OSSched
2410:..\..\..\..\..\..\Software\uCOS-III\Source/os_task.c ****                  }
2411:..\..\..\..\..\..\Software\uCOS-III\Source/os_task.c ****              } else {
2412:..\..\..\..\..\..\Software\uCOS-III\Source/os_task.c ****                  switch (sizeof(OS_SEM_CTR)) {
2413:..\..\..\..\..\..\Software\uCOS-III\Source/os_task.c ****                      case 1u:
ARM GAS  C:\Users\EDULU~1.DES\AppData\Local\Temp\ccyhp2HA.s 			page 88


2414:..\..\..\..\..\..\Software\uCOS-III\Source/os_task.c ****                           if (p_tcb->SemCtr == DEF_INT_08U_MAX_VAL) {
2415:..\..\..\..\..\..\Software\uCOS-III\Source/os_task.c ****                               OS_CRITICAL_EXIT();
2416:..\..\..\..\..\..\Software\uCOS-III\Source/os_task.c ****                              *p_err = OS_ERR_SEM_OVF;
2417:..\..\..\..\..\..\Software\uCOS-III\Source/os_task.c ****                               return ((OS_SEM_CTR)0);
2418:..\..\..\..\..\..\Software\uCOS-III\Source/os_task.c ****                           }
2419:..\..\..\..\..\..\Software\uCOS-III\Source/os_task.c ****                           break;
2420:..\..\..\..\..\..\Software\uCOS-III\Source/os_task.c **** 
2421:..\..\..\..\..\..\Software\uCOS-III\Source/os_task.c ****                      case 2u:
2422:..\..\..\..\..\..\Software\uCOS-III\Source/os_task.c ****                           if (p_tcb->SemCtr == DEF_INT_16U_MAX_VAL) {
2423:..\..\..\..\..\..\Software\uCOS-III\Source/os_task.c ****                               OS_CRITICAL_EXIT();
2424:..\..\..\..\..\..\Software\uCOS-III\Source/os_task.c ****                              *p_err = OS_ERR_SEM_OVF;
2425:..\..\..\..\..\..\Software\uCOS-III\Source/os_task.c ****                               return ((OS_SEM_CTR)0);
2426:..\..\..\..\..\..\Software\uCOS-III\Source/os_task.c ****                           }
2427:..\..\..\..\..\..\Software\uCOS-III\Source/os_task.c ****                           break;
2428:..\..\..\..\..\..\Software\uCOS-III\Source/os_task.c **** 
2429:..\..\..\..\..\..\Software\uCOS-III\Source/os_task.c ****                      case 4u:
2430:..\..\..\..\..\..\Software\uCOS-III\Source/os_task.c ****                           if (p_tcb->SemCtr == DEF_INT_32U_MAX_VAL) {
2431:..\..\..\..\..\..\Software\uCOS-III\Source/os_task.c ****                               OS_CRITICAL_EXIT();
2432:..\..\..\..\..\..\Software\uCOS-III\Source/os_task.c ****                              *p_err = OS_ERR_SEM_OVF;
2433:..\..\..\..\..\..\Software\uCOS-III\Source/os_task.c ****                               return ((OS_SEM_CTR)0);
2434:..\..\..\..\..\..\Software\uCOS-III\Source/os_task.c ****                           }
2435:..\..\..\..\..\..\Software\uCOS-III\Source/os_task.c ****                           break;
2436:..\..\..\..\..\..\Software\uCOS-III\Source/os_task.c **** 
2437:..\..\..\..\..\..\Software\uCOS-III\Source/os_task.c ****                      default:
2438:..\..\..\..\..\..\Software\uCOS-III\Source/os_task.c ****                           break;
2439:..\..\..\..\..\..\Software\uCOS-III\Source/os_task.c ****                  }
2440:..\..\..\..\..\..\Software\uCOS-III\Source/os_task.c ****                  p_tcb->SemCtr++;                           /* No,  Task signaled is NOT pending on
2441:..\..\..\..\..\..\Software\uCOS-III\Source/os_task.c ****                  ctr = p_tcb->SemCtr;                       /*      ... it must be waiting on somet
2442:..\..\..\..\..\..\Software\uCOS-III\Source/os_task.c ****                  OS_CRITICAL_EXIT();
2443:..\..\..\..\..\..\Software\uCOS-III\Source/os_task.c ****              }
2444:..\..\..\..\..\..\Software\uCOS-III\Source/os_task.c ****              break;
 2528              		.loc 1 2444 0
 2529 00ca 2AE0     		b	.L177
 2530              	.L170:
2430:..\..\..\..\..\..\Software\uCOS-III\Source/os_task.c ****                               OS_CRITICAL_EXIT();
 2531              		.loc 1 2430 0
 2532 00cc FB68     		ldr	r3, [r7, #12]
 2533 00ce 5B6C     		ldr	r3, [r3, #68]
 2534 00d0 0133     		adds	r3, r3, #1
 2535 00d2 0AD1     		bne	.L178
2431:..\..\..\..\..\..\Software\uCOS-III\Source/os_task.c ****                              *p_err = OS_ERR_SEM_OVF;
 2536              		.loc 1 2431 0
 2537 00d4 FFF7FEFF 		bl	CPU_IntDisMeasStop
 2538 00d8 3B69     		ldr	r3, [r7, #16]
 2539 00da 1800     		movs	r0, r3
 2540 00dc FFF7FEFF 		bl	CPU_SR_Restore
2432:..\..\..\..\..\..\Software\uCOS-III\Source/os_task.c ****                               return ((OS_SEM_CTR)0);
 2541              		.loc 1 2432 0
 2542 00e0 3B68     		ldr	r3, [r7]
 2543 00e2 154A     		ldr	r2, .L179+8
 2544 00e4 1A80     		strh	r2, [r3]
2433:..\..\..\..\..\..\Software\uCOS-III\Source/os_task.c ****                           }
 2545              		.loc 1 2433 0
 2546 00e6 0023     		movs	r3, #0
 2547 00e8 1DE0     		b	.L168
 2548              	.L178:
2435:..\..\..\..\..\..\Software\uCOS-III\Source/os_task.c **** 
ARM GAS  C:\Users\EDULU~1.DES\AppData\Local\Temp\ccyhp2HA.s 			page 89


 2549              		.loc 1 2435 0
 2550 00ea C046     		nop
2440:..\..\..\..\..\..\Software\uCOS-III\Source/os_task.c ****                  ctr = p_tcb->SemCtr;                       /*      ... it must be waiting on somet
 2551              		.loc 1 2440 0
 2552 00ec FB68     		ldr	r3, [r7, #12]
 2553 00ee 5B6C     		ldr	r3, [r3, #68]
 2554 00f0 5A1C     		adds	r2, r3, #1
 2555 00f2 FB68     		ldr	r3, [r7, #12]
 2556 00f4 5A64     		str	r2, [r3, #68]
2441:..\..\..\..\..\..\Software\uCOS-III\Source/os_task.c ****                  OS_CRITICAL_EXIT();
 2557              		.loc 1 2441 0
 2558 00f6 FB68     		ldr	r3, [r7, #12]
 2559 00f8 5B6C     		ldr	r3, [r3, #68]
 2560 00fa 7B61     		str	r3, [r7, #20]
2442:..\..\..\..\..\..\Software\uCOS-III\Source/os_task.c ****              }
 2561              		.loc 1 2442 0
 2562 00fc FFF7FEFF 		bl	CPU_IntDisMeasStop
 2563 0100 3B69     		ldr	r3, [r7, #16]
 2564 0102 1800     		movs	r0, r3
 2565 0104 FFF7FEFF 		bl	CPU_SR_Restore
 2566              		.loc 1 2444 0
 2567 0108 0BE0     		b	.L177
 2568              	.L163:
2445:..\..\..\..\..\..\Software\uCOS-III\Source/os_task.c **** 
2446:..\..\..\..\..\..\Software\uCOS-III\Source/os_task.c ****         default:
2447:..\..\..\..\..\..\Software\uCOS-III\Source/os_task.c ****              OS_CRITICAL_EXIT();
 2569              		.loc 1 2447 0
 2570 010a FFF7FEFF 		bl	CPU_IntDisMeasStop
 2571 010e 3B69     		ldr	r3, [r7, #16]
 2572 0110 1800     		movs	r0, r3
 2573 0112 FFF7FEFF 		bl	CPU_SR_Restore
2448:..\..\..\..\..\..\Software\uCOS-III\Source/os_task.c ****             *p_err = OS_ERR_STATE_INVALID;
 2574              		.loc 1 2448 0
 2575 0116 3B68     		ldr	r3, [r7]
 2576 0118 084A     		ldr	r2, .L179+12
 2577 011a 1A80     		strh	r2, [r3]
2449:..\..\..\..\..\..\Software\uCOS-III\Source/os_task.c ****              ctr   = (OS_SEM_CTR)0;
 2578              		.loc 1 2449 0
 2579 011c 0023     		movs	r3, #0
 2580 011e 7B61     		str	r3, [r7, #20]
2450:..\..\..\..\..\..\Software\uCOS-III\Source/os_task.c ****              break;
 2581              		.loc 1 2450 0
 2582 0120 00E0     		b	.L169
 2583              	.L177:
2444:..\..\..\..\..\..\Software\uCOS-III\Source/os_task.c **** 
 2584              		.loc 1 2444 0
 2585 0122 C046     		nop
 2586              	.L169:
2451:..\..\..\..\..\..\Software\uCOS-III\Source/os_task.c ****     }
2452:..\..\..\..\..\..\Software\uCOS-III\Source/os_task.c ****     return (ctr);
 2587              		.loc 1 2452 0
 2588 0124 7B69     		ldr	r3, [r7, #20]
 2589              	.L168:
2453:..\..\..\..\..\..\Software\uCOS-III\Source/os_task.c **** }
 2590              		.loc 1 2453 0
 2591 0126 1800     		movs	r0, r3
 2592 0128 BD46     		mov	sp, r7
ARM GAS  C:\Users\EDULU~1.DES\AppData\Local\Temp\ccyhp2HA.s 			page 90


 2593 012a 06B0     		add	sp, sp, #24
 2594              		@ sp needed
 2595 012c 80BD     		pop	{r7, pc}
 2596              	.L180:
 2597 012e C046     		.align	2
 2598              	.L179:
 2599 0130 00000000 		.word	OSTCBCurPtr
 2600 0134 6C000000 		.word	.L165
 2601 0138 C56D0000 		.word	28101
 2602 013c 2D6E0000 		.word	28205
 2603              		.cfi_endproc
 2604              	.LFE18:
 2605              		.size	OS_TaskSemPost, .-OS_TaskSemPost
 2606              		.section	.text.OS_TaskSuspend,"ax",%progbits
 2607              		.align	2
 2608              		.global	OS_TaskSuspend
 2609              		.code	16
 2610              		.thumb_func
 2611              		.type	OS_TaskSuspend, %function
 2612              	OS_TaskSuspend:
 2613              	.LFB19:
2454:..\..\..\..\..\..\Software\uCOS-III\Source/os_task.c **** 
2455:..\..\..\..\..\..\Software\uCOS-III\Source/os_task.c **** /*$PAGE*/
2456:..\..\..\..\..\..\Software\uCOS-III\Source/os_task.c **** /*
2457:..\..\..\..\..\..\Software\uCOS-III\Source/os_task.c **** ***************************************************************************************************
2458:..\..\..\..\..\..\Software\uCOS-III\Source/os_task.c **** *                                                   SUSPEND A TASK
2459:..\..\..\..\..\..\Software\uCOS-III\Source/os_task.c **** *
2460:..\..\..\..\..\..\Software\uCOS-III\Source/os_task.c **** * Description: This function is called to suspend a task.  The task can be the calling task if 'p_t
2461:..\..\..\..\..\..\Software\uCOS-III\Source/os_task.c **** *              or the pointer to the TCB of the calling task.
2462:..\..\..\..\..\..\Software\uCOS-III\Source/os_task.c **** *
2463:..\..\..\..\..\..\Software\uCOS-III\Source/os_task.c **** * Arguments  : p_tcb    is a pointer to the TCB to suspend.
2464:..\..\..\..\..\..\Software\uCOS-III\Source/os_task.c **** *                       If p_tcb is a NULL pointer then, suspend the current task.
2465:..\..\..\..\..\..\Software\uCOS-III\Source/os_task.c **** *
2466:..\..\..\..\..\..\Software\uCOS-III\Source/os_task.c **** *              p_err    is a pointer to a variable that will receive an error code from this functi
2467:..\..\..\..\..\..\Software\uCOS-III\Source/os_task.c **** *
2468:..\..\..\..\..\..\Software\uCOS-III\Source/os_task.c **** *                           OS_ERR_NONE                      if the requested task is suspended
2469:..\..\..\..\..\..\Software\uCOS-III\Source/os_task.c **** *                           OS_ERR_SCHED_LOCKED              you can't suspend the current task is 
2470:..\..\..\..\..\..\Software\uCOS-III\Source/os_task.c **** *                                                            locked
2471:..\..\..\..\..\..\Software\uCOS-III\Source/os_task.c **** *                           OS_ERR_TASK_SUSPEND_ISR          if you called this function from an IS
2472:..\..\..\..\..\..\Software\uCOS-III\Source/os_task.c **** *                           OS_ERR_TASK_SUSPEND_IDLE         if you attempted to suspend the idle t
2473:..\..\..\..\..\..\Software\uCOS-III\Source/os_task.c **** *                                                            allowed.
2474:..\..\..\..\..\..\Software\uCOS-III\Source/os_task.c **** *                           OS_ERR_TASK_SUSPEND_INT_HANDLER  if you attempted to suspend the idle t
2475:..\..\..\..\..\..\Software\uCOS-III\Source/os_task.c **** *                                                            allowed.
2476:..\..\..\..\..\..\Software\uCOS-III\Source/os_task.c **** *
2477:..\..\..\..\..\..\Software\uCOS-III\Source/os_task.c **** * Note(s)    : 1) This function is INTERNAL to uC/OS-III and your application should not call it.
2478:..\..\..\..\..\..\Software\uCOS-III\Source/os_task.c **** *
2479:..\..\..\..\..\..\Software\uCOS-III\Source/os_task.c **** *              2) You should use this function with great care.  If you suspend a task that is wait
2480:..\..\..\..\..\..\Software\uCOS-III\Source/os_task.c **** *                 (i.e. a message, a semaphore, a queue ...) you will prevent this task from runnin
2481:..\..\..\..\..\..\Software\uCOS-III\Source/os_task.c **** *                 arrives.
2482:..\..\..\..\..\..\Software\uCOS-III\Source/os_task.c **** ***************************************************************************************************
2483:..\..\..\..\..\..\Software\uCOS-III\Source/os_task.c **** */
2484:..\..\..\..\..\..\Software\uCOS-III\Source/os_task.c **** 
2485:..\..\..\..\..\..\Software\uCOS-III\Source/os_task.c **** #if OS_CFG_TASK_SUSPEND_EN > 0u
2486:..\..\..\..\..\..\Software\uCOS-III\Source/os_task.c **** void   OS_TaskSuspend (OS_TCB  *p_tcb,
2487:..\..\..\..\..\..\Software\uCOS-III\Source/os_task.c ****                        OS_ERR  *p_err)
2488:..\..\..\..\..\..\Software\uCOS-III\Source/os_task.c **** {
 2614              		.loc 1 2488 0
ARM GAS  C:\Users\EDULU~1.DES\AppData\Local\Temp\ccyhp2HA.s 			page 91


 2615              		.cfi_startproc
 2616              		@ args = 0, pretend = 0, frame = 16
 2617              		@ frame_needed = 1, uses_anonymous_args = 0
 2618 0000 80B5     		push	{r7, lr}
 2619              		.cfi_def_cfa_offset 8
 2620              		.cfi_offset 7, -8
 2621              		.cfi_offset 14, -4
 2622 0002 84B0     		sub	sp, sp, #16
 2623              		.cfi_def_cfa_offset 24
 2624 0004 00AF     		add	r7, sp, #0
 2625              		.cfi_def_cfa_register 7
 2626 0006 7860     		str	r0, [r7, #4]
 2627 0008 3960     		str	r1, [r7]
2489:..\..\..\..\..\..\Software\uCOS-III\Source/os_task.c ****     CPU_SR_ALLOC();
 2628              		.loc 1 2489 0
 2629 000a 0023     		movs	r3, #0
 2630 000c FB60     		str	r3, [r7, #12]
2490:..\..\..\..\..\..\Software\uCOS-III\Source/os_task.c **** 
2491:..\..\..\..\..\..\Software\uCOS-III\Source/os_task.c **** 
2492:..\..\..\..\..\..\Software\uCOS-III\Source/os_task.c **** 
2493:..\..\..\..\..\..\Software\uCOS-III\Source/os_task.c ****     CPU_CRITICAL_ENTER();
 2631              		.loc 1 2493 0
 2632 000e FFF7FEFF 		bl	CPU_SR_Save
 2633 0012 0300     		movs	r3, r0
 2634 0014 FB60     		str	r3, [r7, #12]
 2635 0016 FFF7FEFF 		bl	CPU_IntDisMeasStart
2494:..\..\..\..\..\..\Software\uCOS-III\Source/os_task.c ****     if (p_tcb == (OS_TCB *)0) {                             /* See if specified to suspend self    
 2636              		.loc 1 2494 0
 2637 001a 7B68     		ldr	r3, [r7, #4]
 2638 001c 002B     		cmp	r3, #0
 2639 001e 02D1     		bne	.L182
2495:..\..\..\..\..\..\Software\uCOS-III\Source/os_task.c ****         p_tcb = OSTCBCurPtr;
 2640              		.loc 1 2495 0
 2641 0020 404B     		ldr	r3, .L193
 2642 0022 1B68     		ldr	r3, [r3]
 2643 0024 7B60     		str	r3, [r7, #4]
 2644              	.L182:
2496:..\..\..\..\..\..\Software\uCOS-III\Source/os_task.c ****     }
2497:..\..\..\..\..\..\Software\uCOS-III\Source/os_task.c **** 
2498:..\..\..\..\..\..\Software\uCOS-III\Source/os_task.c ****     if (p_tcb == OSTCBCurPtr) {
 2645              		.loc 1 2498 0
 2646 0026 3F4B     		ldr	r3, .L193
 2647 0028 1B68     		ldr	r3, [r3]
 2648 002a 7A68     		ldr	r2, [r7, #4]
 2649 002c 9A42     		cmp	r2, r3
 2650 002e 0DD1     		bne	.L183
2499:..\..\..\..\..\..\Software\uCOS-III\Source/os_task.c ****         if (OSSchedLockNestingCtr > (OS_NESTING_CTR)0) {    /* Can't suspend when the scheduler is 
 2651              		.loc 1 2499 0
 2652 0030 3D4B     		ldr	r3, .L193+4
 2653 0032 1B78     		ldrb	r3, [r3]
 2654 0034 002B     		cmp	r3, #0
 2655 0036 09D0     		beq	.L183
2500:..\..\..\..\..\..\Software\uCOS-III\Source/os_task.c ****             CPU_CRITICAL_EXIT();
 2656              		.loc 1 2500 0
 2657 0038 FFF7FEFF 		bl	CPU_IntDisMeasStop
 2658 003c FB68     		ldr	r3, [r7, #12]
 2659 003e 1800     		movs	r0, r3
ARM GAS  C:\Users\EDULU~1.DES\AppData\Local\Temp\ccyhp2HA.s 			page 92


 2660 0040 FFF7FEFF 		bl	CPU_SR_Restore
2501:..\..\..\..\..\..\Software\uCOS-III\Source/os_task.c ****            *p_err = OS_ERR_SCHED_LOCKED;
 2661              		.loc 1 2501 0
 2662 0044 3B68     		ldr	r3, [r7]
 2663 0046 394A     		ldr	r2, .L193+8
 2664 0048 1A80     		strh	r2, [r3]
2502:..\..\..\..\..\..\Software\uCOS-III\Source/os_task.c ****             return;
 2665              		.loc 1 2502 0
 2666 004a 67E0     		b	.L181
 2667              	.L183:
2503:..\..\..\..\..\..\Software\uCOS-III\Source/os_task.c ****         }
2504:..\..\..\..\..\..\Software\uCOS-III\Source/os_task.c ****     }
2505:..\..\..\..\..\..\Software\uCOS-III\Source/os_task.c **** 
2506:..\..\..\..\..\..\Software\uCOS-III\Source/os_task.c ****    *p_err = OS_ERR_NONE;
 2668              		.loc 1 2506 0
 2669 004c 3B68     		ldr	r3, [r7]
 2670 004e 0022     		movs	r2, #0
 2671 0050 1A80     		strh	r2, [r3]
2507:..\..\..\..\..\..\Software\uCOS-III\Source/os_task.c ****     switch (p_tcb->TaskState) {
 2672              		.loc 1 2507 0
 2673 0052 7B68     		ldr	r3, [r7, #4]
 2674 0054 3622     		movs	r2, #54
 2675 0056 9B5C     		ldrb	r3, [r3, r2]
 2676 0058 072B     		cmp	r3, #7
 2677 005a 53D8     		bhi	.L185
 2678 005c 9A00     		lsls	r2, r3, #2
 2679 005e 344B     		ldr	r3, .L193+12
 2680 0060 D318     		adds	r3, r2, r3
 2681 0062 1B68     		ldr	r3, [r3]
 2682 0064 9F46     		mov	pc, r3
 2683              		.section	.rodata
 2684              		.align	2
 2685              	.L187:
 2686 008c 66000000 		.word	.L186
 2687 0090 8C000000 		.word	.L188
 2688 0094 AA000000 		.word	.L189
 2689 0098 C8000000 		.word	.L190
 2690 009c E6000000 		.word	.L191
 2691 00a0 E6000000 		.word	.L191
 2692 00a4 E6000000 		.word	.L191
 2693 00a8 E6000000 		.word	.L191
 2694              		.section	.text.OS_TaskSuspend
 2695              	.L186:
2508:..\..\..\..\..\..\Software\uCOS-III\Source/os_task.c ****         case OS_TASK_STATE_RDY:
2509:..\..\..\..\..\..\Software\uCOS-III\Source/os_task.c ****              OS_CRITICAL_ENTER_CPU_EXIT();
2510:..\..\..\..\..\..\Software\uCOS-III\Source/os_task.c ****              p_tcb->TaskState  =  OS_TASK_STATE_SUSPENDED;
 2696              		.loc 1 2510 0
 2697 0066 7B68     		ldr	r3, [r7, #4]
 2698 0068 3622     		movs	r2, #54
 2699 006a 0421     		movs	r1, #4
 2700 006c 9954     		strb	r1, [r3, r2]
2511:..\..\..\..\..\..\Software\uCOS-III\Source/os_task.c ****              p_tcb->SuspendCtr = (OS_NESTING_CTR)1;
 2701              		.loc 1 2511 0
 2702 006e 7B68     		ldr	r3, [r7, #4]
 2703 0070 6022     		movs	r2, #96
 2704 0072 0121     		movs	r1, #1
 2705 0074 9954     		strb	r1, [r3, r2]
ARM GAS  C:\Users\EDULU~1.DES\AppData\Local\Temp\ccyhp2HA.s 			page 93


2512:..\..\..\..\..\..\Software\uCOS-III\Source/os_task.c ****              OS_RdyListRemove(p_tcb);
 2706              		.loc 1 2512 0
 2707 0076 7B68     		ldr	r3, [r7, #4]
 2708 0078 1800     		movs	r0, r3
 2709 007a FFF7FEFF 		bl	OS_RdyListRemove
2513:..\..\..\..\..\..\Software\uCOS-III\Source/os_task.c ****              OS_CRITICAL_EXIT_NO_SCHED();
 2710              		.loc 1 2513 0
 2711 007e FFF7FEFF 		bl	CPU_IntDisMeasStop
 2712 0082 FB68     		ldr	r3, [r7, #12]
 2713 0084 1800     		movs	r0, r3
 2714 0086 FFF7FEFF 		bl	CPU_SR_Restore
2514:..\..\..\..\..\..\Software\uCOS-III\Source/os_task.c ****              break;
 2715              		.loc 1 2514 0
 2716 008a 45E0     		b	.L192
 2717              	.L188:
2515:..\..\..\..\..\..\Software\uCOS-III\Source/os_task.c **** 
2516:..\..\..\..\..\..\Software\uCOS-III\Source/os_task.c ****         case OS_TASK_STATE_DLY:
2517:..\..\..\..\..\..\Software\uCOS-III\Source/os_task.c ****              p_tcb->TaskState  = OS_TASK_STATE_DLY_SUSPENDED;
 2718              		.loc 1 2517 0
 2719 008c 7B68     		ldr	r3, [r7, #4]
 2720 008e 3622     		movs	r2, #54
 2721 0090 0521     		movs	r1, #5
 2722 0092 9954     		strb	r1, [r3, r2]
2518:..\..\..\..\..\..\Software\uCOS-III\Source/os_task.c ****              p_tcb->SuspendCtr = (OS_NESTING_CTR)1;
 2723              		.loc 1 2518 0
 2724 0094 7B68     		ldr	r3, [r7, #4]
 2725 0096 6022     		movs	r2, #96
 2726 0098 0121     		movs	r1, #1
 2727 009a 9954     		strb	r1, [r3, r2]
2519:..\..\..\..\..\..\Software\uCOS-III\Source/os_task.c ****              CPU_CRITICAL_EXIT();
 2728              		.loc 1 2519 0
 2729 009c FFF7FEFF 		bl	CPU_IntDisMeasStop
 2730 00a0 FB68     		ldr	r3, [r7, #12]
 2731 00a2 1800     		movs	r0, r3
 2732 00a4 FFF7FEFF 		bl	CPU_SR_Restore
2520:..\..\..\..\..\..\Software\uCOS-III\Source/os_task.c ****              break;
 2733              		.loc 1 2520 0
 2734 00a8 36E0     		b	.L192
 2735              	.L189:
2521:..\..\..\..\..\..\Software\uCOS-III\Source/os_task.c **** 
2522:..\..\..\..\..\..\Software\uCOS-III\Source/os_task.c ****         case OS_TASK_STATE_PEND:
2523:..\..\..\..\..\..\Software\uCOS-III\Source/os_task.c ****              p_tcb->TaskState  = OS_TASK_STATE_PEND_SUSPENDED;
 2736              		.loc 1 2523 0
 2737 00aa 7B68     		ldr	r3, [r7, #4]
 2738 00ac 3622     		movs	r2, #54
 2739 00ae 0621     		movs	r1, #6
 2740 00b0 9954     		strb	r1, [r3, r2]
2524:..\..\..\..\..\..\Software\uCOS-III\Source/os_task.c ****              p_tcb->SuspendCtr = (OS_NESTING_CTR)1;
 2741              		.loc 1 2524 0
 2742 00b2 7B68     		ldr	r3, [r7, #4]
 2743 00b4 6022     		movs	r2, #96
 2744 00b6 0121     		movs	r1, #1
 2745 00b8 9954     		strb	r1, [r3, r2]
2525:..\..\..\..\..\..\Software\uCOS-III\Source/os_task.c ****              CPU_CRITICAL_EXIT();
 2746              		.loc 1 2525 0
 2747 00ba FFF7FEFF 		bl	CPU_IntDisMeasStop
 2748 00be FB68     		ldr	r3, [r7, #12]
ARM GAS  C:\Users\EDULU~1.DES\AppData\Local\Temp\ccyhp2HA.s 			page 94


 2749 00c0 1800     		movs	r0, r3
 2750 00c2 FFF7FEFF 		bl	CPU_SR_Restore
2526:..\..\..\..\..\..\Software\uCOS-III\Source/os_task.c ****              break;
 2751              		.loc 1 2526 0
 2752 00c6 27E0     		b	.L192
 2753              	.L190:
2527:..\..\..\..\..\..\Software\uCOS-III\Source/os_task.c **** 
2528:..\..\..\..\..\..\Software\uCOS-III\Source/os_task.c ****         case OS_TASK_STATE_PEND_TIMEOUT:
2529:..\..\..\..\..\..\Software\uCOS-III\Source/os_task.c ****              p_tcb->TaskState  = OS_TASK_STATE_PEND_TIMEOUT_SUSPENDED;
 2754              		.loc 1 2529 0
 2755 00c8 7B68     		ldr	r3, [r7, #4]
 2756 00ca 3622     		movs	r2, #54
 2757 00cc 0721     		movs	r1, #7
 2758 00ce 9954     		strb	r1, [r3, r2]
2530:..\..\..\..\..\..\Software\uCOS-III\Source/os_task.c ****              p_tcb->SuspendCtr = (OS_NESTING_CTR)1;
 2759              		.loc 1 2530 0
 2760 00d0 7B68     		ldr	r3, [r7, #4]
 2761 00d2 6022     		movs	r2, #96
 2762 00d4 0121     		movs	r1, #1
 2763 00d6 9954     		strb	r1, [r3, r2]
2531:..\..\..\..\..\..\Software\uCOS-III\Source/os_task.c ****              CPU_CRITICAL_EXIT();
 2764              		.loc 1 2531 0
 2765 00d8 FFF7FEFF 		bl	CPU_IntDisMeasStop
 2766 00dc FB68     		ldr	r3, [r7, #12]
 2767 00de 1800     		movs	r0, r3
 2768 00e0 FFF7FEFF 		bl	CPU_SR_Restore
2532:..\..\..\..\..\..\Software\uCOS-III\Source/os_task.c ****              break;
 2769              		.loc 1 2532 0
 2770 00e4 18E0     		b	.L192
 2771              	.L191:
2533:..\..\..\..\..\..\Software\uCOS-III\Source/os_task.c **** 
2534:..\..\..\..\..\..\Software\uCOS-III\Source/os_task.c ****         case OS_TASK_STATE_SUSPENDED:
2535:..\..\..\..\..\..\Software\uCOS-III\Source/os_task.c ****         case OS_TASK_STATE_DLY_SUSPENDED:
2536:..\..\..\..\..\..\Software\uCOS-III\Source/os_task.c ****         case OS_TASK_STATE_PEND_SUSPENDED:
2537:..\..\..\..\..\..\Software\uCOS-III\Source/os_task.c ****         case OS_TASK_STATE_PEND_TIMEOUT_SUSPENDED:
2538:..\..\..\..\..\..\Software\uCOS-III\Source/os_task.c ****              p_tcb->SuspendCtr++;
 2772              		.loc 1 2538 0
 2773 00e6 7B68     		ldr	r3, [r7, #4]
 2774 00e8 6022     		movs	r2, #96
 2775 00ea 9B5C     		ldrb	r3, [r3, r2]
 2776 00ec 0133     		adds	r3, r3, #1
 2777 00ee D9B2     		uxtb	r1, r3
 2778 00f0 7B68     		ldr	r3, [r7, #4]
 2779 00f2 6022     		movs	r2, #96
 2780 00f4 9954     		strb	r1, [r3, r2]
2539:..\..\..\..\..\..\Software\uCOS-III\Source/os_task.c ****              CPU_CRITICAL_EXIT();
 2781              		.loc 1 2539 0
 2782 00f6 FFF7FEFF 		bl	CPU_IntDisMeasStop
 2783 00fa FB68     		ldr	r3, [r7, #12]
 2784 00fc 1800     		movs	r0, r3
 2785 00fe FFF7FEFF 		bl	CPU_SR_Restore
2540:..\..\..\..\..\..\Software\uCOS-III\Source/os_task.c ****              break;
 2786              		.loc 1 2540 0
 2787 0102 09E0     		b	.L192
 2788              	.L185:
2541:..\..\..\..\..\..\Software\uCOS-III\Source/os_task.c **** 
2542:..\..\..\..\..\..\Software\uCOS-III\Source/os_task.c ****         default:
ARM GAS  C:\Users\EDULU~1.DES\AppData\Local\Temp\ccyhp2HA.s 			page 95


2543:..\..\..\..\..\..\Software\uCOS-III\Source/os_task.c ****              CPU_CRITICAL_EXIT();
 2789              		.loc 1 2543 0
 2790 0104 FFF7FEFF 		bl	CPU_IntDisMeasStop
 2791 0108 FB68     		ldr	r3, [r7, #12]
 2792 010a 1800     		movs	r0, r3
 2793 010c FFF7FEFF 		bl	CPU_SR_Restore
2544:..\..\..\..\..\..\Software\uCOS-III\Source/os_task.c ****             *p_err = OS_ERR_STATE_INVALID;
 2794              		.loc 1 2544 0
 2795 0110 3B68     		ldr	r3, [r7]
 2796 0112 084A     		ldr	r2, .L193+16
 2797 0114 1A80     		strh	r2, [r3]
2545:..\..\..\..\..\..\Software\uCOS-III\Source/os_task.c ****              return;
 2798              		.loc 1 2545 0
 2799 0116 01E0     		b	.L181
 2800              	.L192:
2546:..\..\..\..\..\..\Software\uCOS-III\Source/os_task.c ****     }
2547:..\..\..\..\..\..\Software\uCOS-III\Source/os_task.c **** 
2548:..\..\..\..\..\..\Software\uCOS-III\Source/os_task.c ****     OSSched();
 2801              		.loc 1 2548 0
 2802 0118 FFF7FEFF 		bl	OSSched
 2803              	.L181:
2549:..\..\..\..\..\..\Software\uCOS-III\Source/os_task.c **** }
 2804              		.loc 1 2549 0
 2805 011c BD46     		mov	sp, r7
 2806 011e 04B0     		add	sp, sp, #16
 2807              		@ sp needed
 2808 0120 80BD     		pop	{r7, pc}
 2809              	.L194:
 2810 0122 C046     		.align	2
 2811              	.L193:
 2812 0124 00000000 		.word	OSTCBCurPtr
 2813 0128 00000000 		.word	OSSchedLockNestingCtr
 2814 012c 636D0000 		.word	28003
 2815 0130 8C000000 		.word	.L187
 2816 0134 2D6E0000 		.word	28205
 2817              		.cfi_endproc
 2818              	.LFE19:
 2819              		.size	OS_TaskSuspend, .-OS_TaskSuspend
 2820              		.text
 2821              	.Letext0:
 2822              		.file 2 "..\\..\\..\\..\\..\\..\\Software\\uC-CPU\\ARM-Cortex-M0\\GNU/cpu.h"
 2823              		.file 3 "..\\..\\..\\..\\..\\..\\Software\\uC-CPU/cpu_core.h"
 2824              		.file 4 "..\\..\\..\\..\\..\\..\\Software\\uCOS-III\\Source/os_type.h"
 2825              		.file 5 "..\\..\\..\\..\\..\\..\\Software\\uCOS-III\\Source/os.h"
 2826              		.section	.debug_info,"",%progbits
 2827              	.Ldebug_info0:
 2828 0000 11110000 		.4byte	0x1111
 2829 0004 0400     		.2byte	0x4
 2830 0006 00000000 		.4byte	.Ldebug_abbrev0
 2831 000a 04       		.byte	0x4
 2832 000b 01       		.uleb128 0x1
 2833 000c 58020000 		.4byte	.LASF317
 2834 0010 0C       		.byte	0xc
 2835 0011 C0110000 		.4byte	.LASF318
 2836 0015 E30A0000 		.4byte	.LASF319
 2837 0019 00000000 		.4byte	.Ldebug_ranges0+0
 2838 001d 00000000 		.4byte	0
ARM GAS  C:\Users\EDULU~1.DES\AppData\Local\Temp\ccyhp2HA.s 			page 96


 2839 0021 00000000 		.4byte	.Ldebug_line0
 2840 0025 02       		.uleb128 0x2
 2841 0026 27070000 		.4byte	.LASF0
 2842 002a 02       		.byte	0x2
 2843 002b 7C       		.byte	0x7c
 2844 002c 30000000 		.4byte	0x30
 2845 0030 03       		.uleb128 0x3
 2846 0031 01       		.byte	0x1
 2847 0032 08       		.byte	0x8
 2848 0033 80080000 		.4byte	.LASF2
 2849 0037 02       		.uleb128 0x2
 2850 0038 02100000 		.4byte	.LASF1
 2851 003c 02       		.byte	0x2
 2852 003d 7D       		.byte	0x7d
 2853 003e 42000000 		.4byte	0x42
 2854 0042 03       		.uleb128 0x3
 2855 0043 01       		.byte	0x1
 2856 0044 08       		.byte	0x8
 2857 0045 67100000 		.4byte	.LASF3
 2858 0049 02       		.uleb128 0x2
 2859 004a 0F060000 		.4byte	.LASF4
 2860 004e 02       		.byte	0x2
 2861 004f 7E       		.byte	0x7e
 2862 0050 42000000 		.4byte	0x42
 2863 0054 03       		.uleb128 0x3
 2864 0055 01       		.byte	0x1
 2865 0056 06       		.byte	0x6
 2866 0057 F5110000 		.4byte	.LASF5
 2867 005b 02       		.uleb128 0x2
 2868 005c 310A0000 		.4byte	.LASF6
 2869 0060 02       		.byte	0x2
 2870 0061 80       		.byte	0x80
 2871 0062 66000000 		.4byte	0x66
 2872 0066 03       		.uleb128 0x3
 2873 0067 02       		.byte	0x2
 2874 0068 07       		.byte	0x7
 2875 0069 15120000 		.4byte	.LASF7
 2876 006d 03       		.uleb128 0x3
 2877 006e 02       		.byte	0x2
 2878 006f 05       		.byte	0x5
 2879 0070 A20D0000 		.4byte	.LASF8
 2880 0074 02       		.uleb128 0x2
 2881 0075 B2010000 		.4byte	.LASF9
 2882 0079 02       		.byte	0x2
 2883 007a 82       		.byte	0x82
 2884 007b 7F000000 		.4byte	0x7f
 2885 007f 03       		.uleb128 0x3
 2886 0080 04       		.byte	0x4
 2887 0081 07       		.byte	0x7
 2888 0082 090F0000 		.4byte	.LASF10
 2889 0086 04       		.uleb128 0x4
 2890 0087 04       		.byte	0x4
 2891 0088 05       		.byte	0x5
 2892 0089 696E7400 		.ascii	"int\000"
 2893 008d 03       		.uleb128 0x3
 2894 008e 08       		.byte	0x8
 2895 008f 07       		.byte	0x7
ARM GAS  C:\Users\EDULU~1.DES\AppData\Local\Temp\ccyhp2HA.s 			page 97


 2896 0090 6D050000 		.4byte	.LASF11
 2897 0094 03       		.uleb128 0x3
 2898 0095 08       		.byte	0x8
 2899 0096 05       		.byte	0x5
 2900 0097 A9090000 		.4byte	.LASF12
 2901 009b 03       		.uleb128 0x3
 2902 009c 04       		.byte	0x4
 2903 009d 04       		.byte	0x4
 2904 009e B0040000 		.4byte	.LASF13
 2905 00a2 03       		.uleb128 0x3
 2906 00a3 08       		.byte	0x8
 2907 00a4 04       		.byte	0x4
 2908 00a5 AA120000 		.4byte	.LASF14
 2909 00a9 05       		.uleb128 0x5
 2910 00aa 04       		.byte	0x4
 2911 00ab AF000000 		.4byte	0xaf
 2912 00af 06       		.uleb128 0x6
 2913 00b0 BA000000 		.4byte	0xba
 2914 00b4 07       		.uleb128 0x7
 2915 00b5 BA000000 		.4byte	0xba
 2916 00b9 00       		.byte	0
 2917 00ba 08       		.uleb128 0x8
 2918 00bb 04       		.byte	0x4
 2919 00bc 02       		.uleb128 0x2
 2920 00bd AE0F0000 		.4byte	.LASF15
 2921 00c1 02       		.byte	0x2
 2922 00c2 BA       		.byte	0xba
 2923 00c3 74000000 		.4byte	0x74
 2924 00c7 02       		.uleb128 0x2
 2925 00c8 1E140000 		.4byte	.LASF16
 2926 00cc 02       		.byte	0x2
 2927 00cd E5       		.byte	0xe5
 2928 00ce 74000000 		.4byte	0x74
 2929 00d2 02       		.uleb128 0x2
 2930 00d3 47070000 		.4byte	.LASF17
 2931 00d7 02       		.byte	0x2
 2932 00d8 E6       		.byte	0xe6
 2933 00d9 BC000000 		.4byte	0xbc
 2934 00dd 09       		.uleb128 0x9
 2935 00de C2080000 		.4byte	.LASF18
 2936 00e2 02       		.byte	0x2
 2937 00e3 3301     		.2byte	0x133
 2938 00e5 74000000 		.4byte	0x74
 2939 00e9 03       		.uleb128 0x3
 2940 00ea 04       		.byte	0x4
 2941 00eb 05       		.byte	0x5
 2942 00ec E10D0000 		.4byte	.LASF19
 2943 00f0 03       		.uleb128 0x3
 2944 00f1 04       		.byte	0x4
 2945 00f2 07       		.byte	0x7
 2946 00f3 860F0000 		.4byte	.LASF20
 2947 00f7 03       		.uleb128 0x3
 2948 00f8 08       		.byte	0x8
 2949 00f9 04       		.byte	0x4
 2950 00fa C10C0000 		.4byte	.LASF21
 2951 00fe 03       		.uleb128 0x3
 2952 00ff 04       		.byte	0x4
ARM GAS  C:\Users\EDULU~1.DES\AppData\Local\Temp\ccyhp2HA.s 			page 98


 2953 0100 07       		.byte	0x7
 2954 0101 7D0F0000 		.4byte	.LASF22
 2955 0105 02       		.uleb128 0x2
 2956 0106 510B0000 		.4byte	.LASF23
 2957 010a 03       		.byte	0x3
 2958 010b C4       		.byte	0xc4
 2959 010c 74000000 		.4byte	0x74
 2960 0110 02       		.uleb128 0x2
 2961 0111 A2090000 		.4byte	.LASF24
 2962 0115 03       		.byte	0x3
 2963 0116 C7       		.byte	0xc7
 2964 0117 05010000 		.4byte	0x105
 2965 011b 02       		.uleb128 0x2
 2966 011c 2F000000 		.4byte	.LASF25
 2967 0120 04       		.byte	0x4
 2968 0121 34       		.byte	0x34
 2969 0122 74000000 		.4byte	0x74
 2970 0126 02       		.uleb128 0x2
 2971 0127 5B070000 		.4byte	.LASF26
 2972 012b 04       		.byte	0x4
 2973 012c 3F       		.byte	0x3f
 2974 012d 5B000000 		.4byte	0x5b
 2975 0131 02       		.uleb128 0x2
 2976 0132 EC060000 		.4byte	.LASF27
 2977 0136 04       		.byte	0x4
 2978 0137 40       		.byte	0x40
 2979 0138 5B000000 		.4byte	0x5b
 2980 013c 02       		.uleb128 0x2
 2981 013d 450E0000 		.4byte	.LASF28
 2982 0141 04       		.byte	0x4
 2983 0142 42       		.byte	0x42
 2984 0143 49000000 		.4byte	0x49
 2985 0147 02       		.uleb128 0x2
 2986 0148 7A040000 		.4byte	.LASF29
 2987 014c 04       		.byte	0x4
 2988 014d 44       		.byte	0x44
 2989 014e 5B000000 		.4byte	0x5b
 2990 0152 02       		.uleb128 0x2
 2991 0153 85080000 		.4byte	.LASF30
 2992 0157 04       		.byte	0x4
 2993 0158 45       		.byte	0x45
 2994 0159 74000000 		.4byte	0x74
 2995 015d 02       		.uleb128 0x2
 2996 015e BB100000 		.4byte	.LASF31
 2997 0162 04       		.byte	0x4
 2998 0163 47       		.byte	0x47
 2999 0164 5B000000 		.4byte	0x5b
 3000 0168 02       		.uleb128 0x2
 3001 0169 A8040000 		.4byte	.LASF32
 3002 016d 04       		.byte	0x4
 3003 016e 49       		.byte	0x49
 3004 016f 49000000 		.4byte	0x49
 3005 0173 02       		.uleb128 0x2
 3006 0174 04090000 		.4byte	.LASF33
 3007 0178 04       		.byte	0x4
 3008 0179 4D       		.byte	0x4d
 3009 017a 74000000 		.4byte	0x74
ARM GAS  C:\Users\EDULU~1.DES\AppData\Local\Temp\ccyhp2HA.s 			page 99


 3010 017e 02       		.uleb128 0x2
 3011 017f 76060000 		.4byte	.LASF34
 3012 0183 04       		.byte	0x4
 3013 0184 4F       		.byte	0x4f
 3014 0185 74000000 		.4byte	0x74
 3015 0189 02       		.uleb128 0x2
 3016 018a 6F120000 		.4byte	.LASF35
 3017 018e 04       		.byte	0x4
 3018 018f 50       		.byte	0x50
 3019 0190 49000000 		.4byte	0x49
 3020 0194 02       		.uleb128 0x2
 3021 0195 800B0000 		.4byte	.LASF36
 3022 0199 04       		.byte	0x4
 3023 019a 52       		.byte	0x52
 3024 019b 74000000 		.4byte	0x74
 3025 019f 02       		.uleb128 0x2
 3026 01a0 AA100000 		.4byte	.LASF37
 3027 01a4 04       		.byte	0x4
 3028 01a5 54       		.byte	0x54
 3029 01a6 49000000 		.4byte	0x49
 3030 01aa 02       		.uleb128 0x2
 3031 01ab 97060000 		.4byte	.LASF38
 3032 01af 04       		.byte	0x4
 3033 01b0 56       		.byte	0x56
 3034 01b1 49000000 		.4byte	0x49
 3035 01b5 02       		.uleb128 0x2
 3036 01b6 9A0A0000 		.4byte	.LASF39
 3037 01ba 04       		.byte	0x4
 3038 01bb 58       		.byte	0x58
 3039 01bc 74000000 		.4byte	0x74
 3040 01c0 0A       		.uleb128 0xa
 3041 01c1 5A010000 		.4byte	.LASF320
 3042 01c5 02       		.byte	0x2
 3043 01c6 66000000 		.4byte	0x66
 3044 01ca 05       		.byte	0x5
 3045 01cb A501     		.2byte	0x1a5
 3046 01cd 38060000 		.4byte	0x638
 3047 01d1 0B       		.uleb128 0xb
 3048 01d2 56120000 		.4byte	.LASF40
 3049 01d6 00       		.byte	0
 3050 01d7 0C       		.uleb128 0xc
 3051 01d8 68000000 		.4byte	.LASF41
 3052 01dc 1027     		.2byte	0x2710
 3053 01de 0C       		.uleb128 0xc
 3054 01df 60030000 		.4byte	.LASF42
 3055 01e3 1127     		.2byte	0x2711
 3056 01e5 0C       		.uleb128 0xc
 3057 01e6 71000000 		.4byte	.LASF43
 3058 01ea F82A     		.2byte	0x2af8
 3059 01ec 0C       		.uleb128 0xc
 3060 01ed 7A000000 		.4byte	.LASF44
 3061 01f1 E02E     		.2byte	0x2ee0
 3062 01f3 0C       		.uleb128 0xc
 3063 01f4 83010000 		.4byte	.LASF45
 3064 01f8 E12E     		.2byte	0x2ee1
 3065 01fa 0C       		.uleb128 0xc
 3066 01fb 83000000 		.4byte	.LASF46
ARM GAS  C:\Users\EDULU~1.DES\AppData\Local\Temp\ccyhp2HA.s 			page 100


 3067 01ff C832     		.2byte	0x32c8
 3068 0201 0C       		.uleb128 0xc
 3069 0202 5C080000 		.4byte	.LASF47
 3070 0206 C932     		.2byte	0x32c9
 3071 0208 0C       		.uleb128 0xc
 3072 0209 8C000000 		.4byte	.LASF48
 3073 020d B036     		.2byte	0x36b0
 3074 020f 0C       		.uleb128 0xc
 3075 0210 95000000 		.4byte	.LASF49
 3076 0214 983A     		.2byte	0x3a98
 3077 0216 0C       		.uleb128 0xc
 3078 0217 01120000 		.4byte	.LASF50
 3079 021b 993A     		.2byte	0x3a99
 3080 021d 0C       		.uleb128 0xc
 3081 021e D2070000 		.4byte	.LASF51
 3082 0222 FD3A     		.2byte	0x3afd
 3083 0224 0C       		.uleb128 0xc
 3084 0225 4F0F0000 		.4byte	.LASF52
 3085 0229 FE3A     		.2byte	0x3afe
 3086 022b 0C       		.uleb128 0xc
 3087 022c B7090000 		.4byte	.LASF53
 3088 0230 FF3A     		.2byte	0x3aff
 3089 0232 0C       		.uleb128 0xc
 3090 0233 8D120000 		.4byte	.LASF54
 3091 0237 003B     		.2byte	0x3b00
 3092 0239 0C       		.uleb128 0xc
 3093 023a 9E000000 		.4byte	.LASF55
 3094 023e 803E     		.2byte	0x3e80
 3095 0240 0C       		.uleb128 0xc
 3096 0241 A7000000 		.4byte	.LASF56
 3097 0245 6842     		.2byte	0x4268
 3098 0247 0C       		.uleb128 0xc
 3099 0248 B0000000 		.4byte	.LASF57
 3100 024c 5046     		.2byte	0x4650
 3101 024e 0C       		.uleb128 0xc
 3102 024f 44040000 		.4byte	.LASF58
 3103 0253 5146     		.2byte	0x4651
 3104 0255 0C       		.uleb128 0xc
 3105 0256 2D030000 		.4byte	.LASF59
 3106 025a 5246     		.2byte	0x4652
 3107 025c 0C       		.uleb128 0xc
 3108 025d 06040000 		.4byte	.LASF60
 3109 0261 5346     		.2byte	0x4653
 3110 0263 0C       		.uleb128 0xc
 3111 0264 71010000 		.4byte	.LASF61
 3112 0268 5446     		.2byte	0x4654
 3113 026a 0C       		.uleb128 0xc
 3114 026b 6E110000 		.4byte	.LASF62
 3115 026f 5546     		.2byte	0x4655
 3116 0271 0C       		.uleb128 0xc
 3117 0272 450C0000 		.4byte	.LASF63
 3118 0276 5646     		.2byte	0x4656
 3119 0278 0C       		.uleb128 0xc
 3120 0279 B9000000 		.4byte	.LASF64
 3121 027d 384A     		.2byte	0x4a38
 3122 027f 0C       		.uleb128 0xc
 3123 0280 C2000000 		.4byte	.LASF65
ARM GAS  C:\Users\EDULU~1.DES\AppData\Local\Temp\ccyhp2HA.s 			page 101


 3124 0284 204E     		.2byte	0x4e20
 3125 0286 0C       		.uleb128 0xc
 3126 0287 CB000000 		.4byte	.LASF66
 3127 028b 0852     		.2byte	0x5208
 3128 028d 0C       		.uleb128 0xc
 3129 028e 630D0000 		.4byte	.LASF67
 3130 0292 0952     		.2byte	0x5209
 3131 0294 0C       		.uleb128 0xc
 3132 0295 D4000000 		.4byte	.LASF68
 3133 0299 F055     		.2byte	0x55f0
 3134 029b 0C       		.uleb128 0xc
 3135 029c CE100000 		.4byte	.LASF69
 3136 02a0 B956     		.2byte	0x56b9
 3137 02a2 0C       		.uleb128 0xc
 3138 02a3 A20A0000 		.4byte	.LASF70
 3139 02a7 BA56     		.2byte	0x56ba
 3140 02a9 0C       		.uleb128 0xc
 3141 02aa 3A0D0000 		.4byte	.LASF71
 3142 02ae BB56     		.2byte	0x56bb
 3143 02b0 0C       		.uleb128 0xc
 3144 02b1 EB070000 		.4byte	.LASF72
 3145 02b5 BC56     		.2byte	0x56bc
 3146 02b7 0C       		.uleb128 0xc
 3147 02b8 580A0000 		.4byte	.LASF73
 3148 02bc BD56     		.2byte	0x56bd
 3149 02be 0C       		.uleb128 0xc
 3150 02bf 210D0000 		.4byte	.LASF74
 3151 02c3 BE56     		.2byte	0x56be
 3152 02c5 0C       		.uleb128 0xc
 3153 02c6 CA0A0000 		.4byte	.LASF75
 3154 02ca BF56     		.2byte	0x56bf
 3155 02cc 0C       		.uleb128 0xc
 3156 02cd 0B050000 		.4byte	.LASF76
 3157 02d1 C056     		.2byte	0x56c0
 3158 02d3 0C       		.uleb128 0xc
 3159 02d4 27130000 		.4byte	.LASF77
 3160 02d8 C156     		.2byte	0x56c1
 3161 02da 0C       		.uleb128 0xc
 3162 02db 06140000 		.4byte	.LASF78
 3163 02df C256     		.2byte	0x56c2
 3164 02e1 0C       		.uleb128 0xc
 3165 02e2 B70D0000 		.4byte	.LASF79
 3166 02e6 1D57     		.2byte	0x571d
 3167 02e8 0C       		.uleb128 0xc
 3168 02e9 2C0E0000 		.4byte	.LASF80
 3169 02ed 1E57     		.2byte	0x571e
 3170 02ef 0C       		.uleb128 0xc
 3171 02f0 D5060000 		.4byte	.LASF81
 3172 02f4 8157     		.2byte	0x5781
 3173 02f6 0C       		.uleb128 0xc
 3174 02f7 160F0000 		.4byte	.LASF82
 3175 02fb 8257     		.2byte	0x5782
 3176 02fd 0C       		.uleb128 0xc
 3177 02fe 8A030000 		.4byte	.LASF83
 3178 0302 8357     		.2byte	0x5783
 3179 0304 0C       		.uleb128 0xc
 3180 0305 DD000000 		.4byte	.LASF84
ARM GAS  C:\Users\EDULU~1.DES\AppData\Local\Temp\ccyhp2HA.s 			page 102


 3181 0309 D859     		.2byte	0x59d8
 3182 030b 0C       		.uleb128 0xc
 3183 030c 7D060000 		.4byte	.LASF85
 3184 0310 D959     		.2byte	0x59d9
 3185 0312 0C       		.uleb128 0xc
 3186 0313 E5040000 		.4byte	.LASF86
 3187 0317 DA59     		.2byte	0x59da
 3188 0319 0C       		.uleb128 0xc
 3189 031a E6000000 		.4byte	.LASF87
 3190 031e C05D     		.2byte	0x5dc0
 3191 0320 0C       		.uleb128 0xc
 3192 0321 D2030000 		.4byte	.LASF88
 3193 0325 C15D     		.2byte	0x5dc1
 3194 0327 0C       		.uleb128 0xc
 3195 0328 93090000 		.4byte	.LASF89
 3196 032c C25D     		.2byte	0x5dc2
 3197 032e 0C       		.uleb128 0xc
 3198 032f 700A0000 		.4byte	.LASF90
 3199 0333 C35D     		.2byte	0x5dc3
 3200 0335 0C       		.uleb128 0xc
 3201 0336 8F0E0000 		.4byte	.LASF91
 3202 033a C45D     		.2byte	0x5dc4
 3203 033c 0C       		.uleb128 0xc
 3204 033d AF080000 		.4byte	.LASF92
 3205 0341 255E     		.2byte	0x5e25
 3206 0343 0C       		.uleb128 0xc
 3207 0344 CD0C0000 		.4byte	.LASF93
 3208 0348 895E     		.2byte	0x5e89
 3209 034a 0C       		.uleb128 0xc
 3210 034b 66070000 		.4byte	.LASF94
 3211 034f 8A5E     		.2byte	0x5e8a
 3212 0351 0C       		.uleb128 0xc
 3213 0352 EF000000 		.4byte	.LASF95
 3214 0356 A861     		.2byte	0x61a8
 3215 0358 0C       		.uleb128 0xc
 3216 0359 B1120000 		.4byte	.LASF96
 3217 035d A961     		.2byte	0x61a9
 3218 035f 0C       		.uleb128 0xc
 3219 0360 980F0000 		.4byte	.LASF97
 3220 0364 AA61     		.2byte	0x61aa
 3221 0366 0C       		.uleb128 0xc
 3222 0367 E60E0000 		.4byte	.LASF98
 3223 036b AB61     		.2byte	0x61ab
 3224 036d 0C       		.uleb128 0xc
 3225 036e 1A0A0000 		.4byte	.LASF99
 3226 0372 AC61     		.2byte	0x61ac
 3227 0374 0C       		.uleb128 0xc
 3228 0375 E7120000 		.4byte	.LASF100
 3229 0379 AD61     		.2byte	0x61ad
 3230 037b 0C       		.uleb128 0xc
 3231 037c 03110000 		.4byte	.LASF101
 3232 0380 AE61     		.2byte	0x61ae
 3233 0382 0C       		.uleb128 0xc
 3234 0383 45020000 		.4byte	.LASF102
 3235 0387 AF61     		.2byte	0x61af
 3236 0389 0C       		.uleb128 0xc
 3237 038a FB010000 		.4byte	.LASF103
ARM GAS  C:\Users\EDULU~1.DES\AppData\Local\Temp\ccyhp2HA.s 			page 103


 3238 038e B061     		.2byte	0x61b0
 3239 0390 0C       		.uleb128 0xc
 3240 0391 D0040000 		.4byte	.LASF104
 3241 0395 0D62     		.2byte	0x620d
 3242 0397 0C       		.uleb128 0xc
 3243 0398 B70F0000 		.4byte	.LASF105
 3244 039c 0E62     		.2byte	0x620e
 3245 039e 0C       		.uleb128 0xc
 3246 039f E2130000 		.4byte	.LASF106
 3247 03a3 7162     		.2byte	0x6271
 3248 03a5 0C       		.uleb128 0xc
 3249 03a6 DB120000 		.4byte	.LASF107
 3250 03aa 7262     		.2byte	0x6272
 3251 03ac 0C       		.uleb128 0xc
 3252 03ad 14000000 		.4byte	.LASF108
 3253 03b1 7362     		.2byte	0x6273
 3254 03b3 0C       		.uleb128 0xc
 3255 03b4 910C0000 		.4byte	.LASF109
 3256 03b8 D562     		.2byte	0x62d5
 3257 03ba 0C       		.uleb128 0xc
 3258 03bb F8000000 		.4byte	.LASF110
 3259 03bf 9065     		.2byte	0x6590
 3260 03c1 0C       		.uleb128 0xc
 3261 03c2 41110000 		.4byte	.LASF111
 3262 03c6 9165     		.2byte	0x6591
 3263 03c8 0C       		.uleb128 0xc
 3264 03c9 46060000 		.4byte	.LASF112
 3265 03cd 9265     		.2byte	0x6592
 3266 03cf 0C       		.uleb128 0xc
 3267 03d0 6B080000 		.4byte	.LASF113
 3268 03d4 9365     		.2byte	0x6593
 3269 03d6 0C       		.uleb128 0xc
 3270 03d7 E6090000 		.4byte	.LASF114
 3271 03db 9465     		.2byte	0x6594
 3272 03dd 0C       		.uleb128 0xc
 3273 03de 01010000 		.4byte	.LASF115
 3274 03e2 7869     		.2byte	0x6978
 3275 03e4 0C       		.uleb128 0xc
 3276 03e5 840A0000 		.4byte	.LASF116
 3277 03e9 7969     		.2byte	0x6979
 3278 03eb 0C       		.uleb128 0xc
 3279 03ec 0C0D0000 		.4byte	.LASF117
 3280 03f0 7A69     		.2byte	0x697a
 3281 03f2 0C       		.uleb128 0xc
 3282 03f3 3C0A0000 		.4byte	.LASF118
 3283 03f7 7B69     		.2byte	0x697b
 3284 03f9 0C       		.uleb128 0xc
 3285 03fa 0A010000 		.4byte	.LASF119
 3286 03fe 606D     		.2byte	0x6d60
 3287 0400 0C       		.uleb128 0xc
 3288 0401 D5080000 		.4byte	.LASF120
 3289 0405 616D     		.2byte	0x6d61
 3290 0407 0C       		.uleb128 0xc
 3291 0408 46080000 		.4byte	.LASF121
 3292 040c 626D     		.2byte	0x6d62
 3293 040e 0C       		.uleb128 0xc
 3294 040f 79120000 		.4byte	.LASF122
ARM GAS  C:\Users\EDULU~1.DES\AppData\Local\Temp\ccyhp2HA.s 			page 104


 3295 0413 636D     		.2byte	0x6d63
 3296 0415 0C       		.uleb128 0xc
 3297 0416 C3120000 		.4byte	.LASF123
 3298 041a 646D     		.2byte	0x6d64
 3299 041c 0C       		.uleb128 0xc
 3300 041d EA0D0000 		.4byte	.LASF124
 3301 0421 656D     		.2byte	0x6d65
 3302 0423 0C       		.uleb128 0xc
 3303 0424 6B130000 		.4byte	.LASF125
 3304 0428 C56D     		.2byte	0x6dc5
 3305 042a 0C       		.uleb128 0xc
 3306 042b 55130000 		.4byte	.LASF126
 3307 042f C66D     		.2byte	0x6dc6
 3308 0431 0C       		.uleb128 0xc
 3309 0432 2F020000 		.4byte	.LASF127
 3310 0436 296E     		.2byte	0x6e29
 3311 0438 0C       		.uleb128 0xc
 3312 0439 1D090000 		.4byte	.LASF128
 3313 043d 2A6E     		.2byte	0x6e2a
 3314 043f 0C       		.uleb128 0xc
 3315 0440 BA070000 		.4byte	.LASF129
 3316 0444 2B6E     		.2byte	0x6e2b
 3317 0446 0C       		.uleb128 0xc
 3318 0447 320F0000 		.4byte	.LASF130
 3319 044b 2C6E     		.2byte	0x6e2c
 3320 044d 0C       		.uleb128 0xc
 3321 044e A40C0000 		.4byte	.LASF131
 3322 0452 2D6E     		.2byte	0x6e2d
 3323 0454 0C       		.uleb128 0xc
 3324 0455 E4100000 		.4byte	.LASF132
 3325 0459 2E6E     		.2byte	0x6e2e
 3326 045b 0C       		.uleb128 0xc
 3327 045c C9010000 		.4byte	.LASF133
 3328 0460 2F6E     		.2byte	0x6e2f
 3329 0462 0C       		.uleb128 0xc
 3330 0463 31100000 		.4byte	.LASF134
 3331 0467 306E     		.2byte	0x6e30
 3332 0469 0C       		.uleb128 0xc
 3333 046a DB0F0000 		.4byte	.LASF135
 3334 046e 316E     		.2byte	0x6e31
 3335 0470 0C       		.uleb128 0xc
 3336 0471 13010000 		.4byte	.LASF136
 3337 0475 4871     		.2byte	0x7148
 3338 0477 0C       		.uleb128 0xc
 3339 0478 13020000 		.4byte	.LASF137
 3340 047c 4971     		.2byte	0x7149
 3341 047e 0C       		.uleb128 0xc
 3342 047f 30070000 		.4byte	.LASF138
 3343 0483 4A71     		.2byte	0x714a
 3344 0485 0C       		.uleb128 0xc
 3345 0486 A3110000 		.4byte	.LASF139
 3346 048a 4B71     		.2byte	0x714b
 3347 048c 0C       		.uleb128 0xc
 3348 048d 7A130000 		.4byte	.LASF140
 3349 0491 4C71     		.2byte	0x714c
 3350 0493 0C       		.uleb128 0xc
 3351 0494 E0050000 		.4byte	.LASF141
ARM GAS  C:\Users\EDULU~1.DES\AppData\Local\Temp\ccyhp2HA.s 			page 105


 3352 0498 4D71     		.2byte	0x714d
 3353 049a 0C       		.uleb128 0xc
 3354 049b 7D0C0000 		.4byte	.LASF142
 3355 049f 4E71     		.2byte	0x714e
 3356 04a1 0C       		.uleb128 0xc
 3357 04a2 F10B0000 		.4byte	.LASF143
 3358 04a6 4F71     		.2byte	0x714f
 3359 04a8 0C       		.uleb128 0xc
 3360 04a9 B20A0000 		.4byte	.LASF144
 3361 04ad 5071     		.2byte	0x7150
 3362 04af 0C       		.uleb128 0xc
 3363 04b0 0E030000 		.4byte	.LASF145
 3364 04b4 5171     		.2byte	0x7151
 3365 04b6 0C       		.uleb128 0xc
 3366 04b7 CA0B0000 		.4byte	.LASF146
 3367 04bb 5271     		.2byte	0x7152
 3368 04bd 0C       		.uleb128 0xc
 3369 04be F4020000 		.4byte	.LASF147
 3370 04c2 5371     		.2byte	0x7153
 3371 04c4 0C       		.uleb128 0xc
 3372 04c5 75100000 		.4byte	.LASF148
 3373 04c9 5471     		.2byte	0x7154
 3374 04cb 0C       		.uleb128 0xc
 3375 04cc E4010000 		.4byte	.LASF149
 3376 04d0 5571     		.2byte	0x7155
 3377 04d2 0C       		.uleb128 0xc
 3378 04d3 85040000 		.4byte	.LASF150
 3379 04d7 5671     		.2byte	0x7156
 3380 04d9 0C       		.uleb128 0xc
 3381 04da 600E0000 		.4byte	.LASF151
 3382 04de 5771     		.2byte	0x7157
 3383 04e0 0C       		.uleb128 0xc
 3384 04e1 84050000 		.4byte	.LASF152
 3385 04e5 5871     		.2byte	0x7158
 3386 04e7 0C       		.uleb128 0xc
 3387 04e8 7B0D0000 		.4byte	.LASF153
 3388 04ec 5971     		.2byte	0x7159
 3389 04ee 0C       		.uleb128 0xc
 3390 04ef 3F130000 		.4byte	.LASF154
 3391 04f3 5A71     		.2byte	0x715a
 3392 04f5 0C       		.uleb128 0xc
 3393 04f6 ED030000 		.4byte	.LASF155
 3394 04fa 5B71     		.2byte	0x715b
 3395 04fc 0C       		.uleb128 0xc
 3396 04fd C0050000 		.4byte	.LASF156
 3397 0501 5C71     		.2byte	0x715c
 3398 0503 0C       		.uleb128 0xc
 3399 0504 72030000 		.4byte	.LASF157
 3400 0508 5D71     		.2byte	0x715d
 3401 050a 0C       		.uleb128 0xc
 3402 050b 220C0000 		.4byte	.LASF158
 3403 050f 5E71     		.2byte	0x715e
 3404 0511 0C       		.uleb128 0xc
 3405 0512 4C030000 		.4byte	.LASF159
 3406 0516 5F71     		.2byte	0x715f
 3407 0518 0C       		.uleb128 0xc
 3408 0519 1A060000 		.4byte	.LASF160
ARM GAS  C:\Users\EDULU~1.DES\AppData\Local\Temp\ccyhp2HA.s 			page 106


 3409 051d AD71     		.2byte	0x71ad
 3410 051f 0C       		.uleb128 0xc
 3411 0520 57050000 		.4byte	.LASF161
 3412 0524 C071     		.2byte	0x71c0
 3413 0526 0C       		.uleb128 0xc
 3414 0527 630C0000 		.4byte	.LASF162
 3415 052b C171     		.2byte	0x71c1
 3416 052d 0C       		.uleb128 0xc
 3417 052e 3D120000 		.4byte	.LASF163
 3418 0532 C271     		.2byte	0x71c2
 3419 0534 0C       		.uleb128 0xc
 3420 0535 9D080000 		.4byte	.LASF164
 3421 0539 C371     		.2byte	0x71c3
 3422 053b 0C       		.uleb128 0xc
 3423 053c B8060000 		.4byte	.LASF165
 3424 0540 C471     		.2byte	0x71c4
 3425 0542 0C       		.uleb128 0xc
 3426 0543 C9130000 		.4byte	.LASF166
 3427 0547 1172     		.2byte	0x7211
 3428 0549 0C       		.uleb128 0xc
 3429 054a 140E0000 		.4byte	.LASF167
 3430 054e 1272     		.2byte	0x7212
 3431 0550 0C       		.uleb128 0xc
 3432 0551 95010000 		.4byte	.LASF168
 3433 0555 1372     		.2byte	0x7213
 3434 0557 0C       		.uleb128 0xc
 3435 0558 A70B0000 		.4byte	.LASF169
 3436 055c 1472     		.2byte	0x7214
 3437 055e 0C       		.uleb128 0xc
 3438 055f C70F0000 		.4byte	.LASF170
 3439 0563 7572     		.2byte	0x7275
 3440 0565 0C       		.uleb128 0xc
 3441 0566 AE130000 		.4byte	.LASF171
 3442 056a 7672     		.2byte	0x7276
 3443 056c 0C       		.uleb128 0xc
 3444 056d 8F130000 		.4byte	.LASF172
 3445 0571 7772     		.2byte	0x7277
 3446 0573 0C       		.uleb128 0xc
 3447 0574 F8060000 		.4byte	.LASF173
 3448 0578 7872     		.2byte	0x7278
 3449 057a 0C       		.uleb128 0xc
 3450 057b 4C000000 		.4byte	.LASF174
 3451 057f 7972     		.2byte	0x7279
 3452 0581 0C       		.uleb128 0xc
 3453 0582 87110000 		.4byte	.LASF175
 3454 0586 7A72     		.2byte	0x727a
 3455 0588 0C       		.uleb128 0xc
 3456 0589 55060000 		.4byte	.LASF176
 3457 058d 7B72     		.2byte	0x727b
 3458 058f 0C       		.uleb128 0xc
 3459 0590 36090000 		.4byte	.LASF177
 3460 0594 7C72     		.2byte	0x727c
 3461 0596 0C       		.uleb128 0xc
 3462 0597 F80C0000 		.4byte	.LASF178
 3463 059b 7D72     		.2byte	0x727d
 3464 059d 0C       		.uleb128 0xc
 3465 059e 8C070000 		.4byte	.LASF179
ARM GAS  C:\Users\EDULU~1.DES\AppData\Local\Temp\ccyhp2HA.s 			page 107


 3466 05a2 7E72     		.2byte	0x727e
 3467 05a4 0C       		.uleb128 0xc
 3468 05a5 9B100000 		.4byte	.LASF180
 3469 05a9 D972     		.2byte	0x72d9
 3470 05ab 0C       		.uleb128 0xc
 3471 05ac 43050000 		.4byte	.LASF181
 3472 05b0 3D73     		.2byte	0x733d
 3473 05b2 0C       		.uleb128 0xc
 3474 05b3 1A080000 		.4byte	.LASF182
 3475 05b7 3E73     		.2byte	0x733e
 3476 05b9 0C       		.uleb128 0xc
 3477 05ba 63040000 		.4byte	.LASF183
 3478 05be 3F73     		.2byte	0x733f
 3479 05c0 0C       		.uleb128 0xc
 3480 05c1 40010000 		.4byte	.LASF184
 3481 05c5 4073     		.2byte	0x7340
 3482 05c7 0C       		.uleb128 0xc
 3483 05c8 9F030000 		.4byte	.LASF185
 3484 05cc 4173     		.2byte	0x7341
 3485 05ce 0C       		.uleb128 0xc
 3486 05cf A0050000 		.4byte	.LASF186
 3487 05d3 4273     		.2byte	0x7342
 3488 05d5 0C       		.uleb128 0xc
 3489 05d6 3D000000 		.4byte	.LASF187
 3490 05da 4373     		.2byte	0x7343
 3491 05dc 0C       		.uleb128 0xc
 3492 05dd 2C050000 		.4byte	.LASF188
 3493 05e1 4473     		.2byte	0x7344
 3494 05e3 0C       		.uleb128 0xc
 3495 05e4 12070000 		.4byte	.LASF189
 3496 05e8 4573     		.2byte	0x7345
 3497 05ea 0C       		.uleb128 0xc
 3498 05eb 050C0000 		.4byte	.LASF190
 3499 05ef 4673     		.2byte	0x7346
 3500 05f1 0C       		.uleb128 0xc
 3501 05f2 F8050000 		.4byte	.LASF191
 3502 05f6 4773     		.2byte	0x7347
 3503 05f8 0C       		.uleb128 0xc
 3504 05f9 8B0B0000 		.4byte	.LASF192
 3505 05fd 4873     		.2byte	0x7348
 3506 05ff 0C       		.uleb128 0xc
 3507 0600 54100000 		.4byte	.LASF193
 3508 0604 4973     		.2byte	0x7349
 3509 0606 0C       		.uleb128 0xc
 3510 0607 1C010000 		.4byte	.LASF194
 3511 060b 3075     		.2byte	0x7530
 3512 060d 0C       		.uleb128 0xc
 3513 060e 25010000 		.4byte	.LASF195
 3514 0612 1879     		.2byte	0x7918
 3515 0614 0C       		.uleb128 0xc
 3516 0615 2E010000 		.4byte	.LASF196
 3517 0619 007D     		.2byte	0x7d00
 3518 061b 0C       		.uleb128 0xc
 3519 061c 37010000 		.4byte	.LASF197
 3520 0620 E880     		.2byte	0x80e8
 3521 0622 0C       		.uleb128 0xc
 3522 0623 FA100000 		.4byte	.LASF198
ARM GAS  C:\Users\EDULU~1.DES\AppData\Local\Temp\ccyhp2HA.s 			page 108


 3523 0627 D084     		.2byte	0x84d0
 3524 0629 0C       		.uleb128 0xc
 3525 062a 82090000 		.4byte	.LASF199
 3526 062e D184     		.2byte	0x84d1
 3527 0630 0C       		.uleb128 0xc
 3528 0631 13110000 		.4byte	.LASF200
 3529 0635 B888     		.2byte	0x88b8
 3530 0637 00       		.byte	0
 3531 0638 09       		.uleb128 0x9
 3532 0639 28000000 		.4byte	.LASF201
 3533 063d 05       		.byte	0x5
 3534 063e 7202     		.2byte	0x272
 3535 0640 C0010000 		.4byte	0x1c0
 3536 0644 09       		.uleb128 0x9
 3537 0645 C2100000 		.4byte	.LASF202
 3538 0649 05       		.byte	0x5
 3539 064a 8E02     		.2byte	0x28e
 3540 064c A9000000 		.4byte	0xa9
 3541 0650 09       		.uleb128 0x9
 3542 0651 02130000 		.4byte	.LASF203
 3543 0655 05       		.byte	0x5
 3544 0656 9002     		.2byte	0x290
 3545 0658 5C060000 		.4byte	0x65c
 3546 065c 0D       		.uleb128 0xd
 3547 065d 00000000 		.4byte	.LASF238
 3548 0661 7C       		.byte	0x7c
 3549 0662 05       		.byte	0x5
 3550 0663 AB03     		.2byte	0x3ab
 3551 0665 30080000 		.4byte	0x830
 3552 0669 0E       		.uleb128 0xe
 3553 066a CC090000 		.4byte	.LASF204
 3554 066e 05       		.byte	0x5
 3555 066f AC03     		.2byte	0x3ac
 3556 0671 B4090000 		.4byte	0x9b4
 3557 0675 00       		.byte	0
 3558 0676 0E       		.uleb128 0xe
 3559 0677 760F0000 		.4byte	.LASF205
 3560 067b 05       		.byte	0x5
 3561 067c AE03     		.2byte	0x3ae
 3562 067e BA000000 		.4byte	0xba
 3563 0682 04       		.byte	0x4
 3564 0683 0E       		.uleb128 0xe
 3565 0684 650B0000 		.4byte	.LASF206
 3566 0688 05       		.byte	0x5
 3567 0689 B003     		.2byte	0x3b0
 3568 068b B4090000 		.4byte	0x9b4
 3569 068f 08       		.byte	0x8
 3570 0690 0E       		.uleb128 0xe
 3571 0691 B90C0000 		.4byte	.LASF207
 3572 0695 05       		.byte	0x5
 3573 0696 B203     		.2byte	0x3b2
 3574 0698 9C090000 		.4byte	0x99c
 3575 069c 0C       		.byte	0xc
 3576 069d 0E       		.uleb128 0xe
 3577 069e 78080000 		.4byte	.LASF208
 3578 06a2 05       		.byte	0x5
 3579 06a3 B303     		.2byte	0x3b3
ARM GAS  C:\Users\EDULU~1.DES\AppData\Local\Temp\ccyhp2HA.s 			page 109


 3580 06a5 9C090000 		.4byte	0x99c
 3581 06a9 10       		.byte	0x10
 3582 06aa 0E       		.uleb128 0xe
 3583 06ab BE0B0000 		.4byte	.LASF209
 3584 06af 05       		.byte	0x5
 3585 06b0 B503     		.2byte	0x3b5
 3586 06b2 9C090000 		.4byte	0x99c
 3587 06b6 14       		.byte	0x14
 3588 06b7 0E       		.uleb128 0xe
 3589 06b8 A8070000 		.4byte	.LASF210
 3590 06bc 05       		.byte	0x5
 3591 06bd B603     		.2byte	0x3b6
 3592 06bf 9C090000 		.4byte	0x99c
 3593 06c3 18       		.byte	0x18
 3594 06c4 0E       		.uleb128 0xe
 3595 06c5 1C110000 		.4byte	.LASF211
 3596 06c9 05       		.byte	0x5
 3597 06ca B803     		.2byte	0x3b8
 3598 06cc BA090000 		.4byte	0x9ba
 3599 06d0 1C       		.byte	0x1c
 3600 06d1 0E       		.uleb128 0xe
 3601 06d2 57090000 		.4byte	.LASF212
 3602 06d6 05       		.byte	0x5
 3603 06d7 BA03     		.2byte	0x3ba
 3604 06d9 AE090000 		.4byte	0x9ae
 3605 06dd 20       		.byte	0x20
 3606 06de 0E       		.uleb128 0xe
 3607 06df 35060000 		.4byte	.LASF213
 3608 06e3 05       		.byte	0x5
 3609 06e4 BC03     		.2byte	0x3bc
 3610 06e6 B4090000 		.4byte	0x9b4
 3611 06ea 24       		.byte	0x24
 3612 06eb 0E       		.uleb128 0xe
 3613 06ec 0F090000 		.4byte	.LASF214
 3614 06f0 05       		.byte	0x5
 3615 06f1 C203     		.2byte	0x3c2
 3616 06f3 44060000 		.4byte	0x644
 3617 06f7 28       		.byte	0x28
 3618 06f8 0E       		.uleb128 0xe
 3619 06f9 34110000 		.4byte	.LASF215
 3620 06fd 05       		.byte	0x5
 3621 06fe C303     		.2byte	0x3c3
 3622 0700 BA000000 		.4byte	0xba
 3623 0704 2C       		.byte	0x2c
 3624 0705 0E       		.uleb128 0xe
 3625 0706 9F0E0000 		.4byte	.LASF216
 3626 070a 05       		.byte	0x5
 3627 070b C503     		.2byte	0x3c5
 3628 070d A2090000 		.4byte	0x9a2
 3629 0711 30       		.byte	0x30
 3630 0712 0E       		.uleb128 0xe
 3631 0713 B8030000 		.4byte	.LASF217
 3632 0717 05       		.byte	0x5
 3633 0718 C603     		.2byte	0x3c6
 3634 071a 9F010000 		.4byte	0x19f
 3635 071e 34       		.byte	0x34
 3636 071f 0E       		.uleb128 0xe
ARM GAS  C:\Users\EDULU~1.DES\AppData\Local\Temp\ccyhp2HA.s 			page 110


 3637 0720 5F090000 		.4byte	.LASF218
 3638 0724 05       		.byte	0x5
 3639 0725 C703     		.2byte	0x3c7
 3640 0727 AA010000 		.4byte	0x1aa
 3641 072b 35       		.byte	0x35
 3642 072c 0E       		.uleb128 0xe
 3643 072d A1060000 		.4byte	.LASF219
 3644 0731 05       		.byte	0x5
 3645 0732 C903     		.2byte	0x3c9
 3646 0734 9F010000 		.4byte	0x19f
 3647 0738 36       		.byte	0x36
 3648 0739 0E       		.uleb128 0xe
 3649 073a 9E120000 		.4byte	.LASF220
 3650 073e 05       		.byte	0x5
 3651 073f CA03     		.2byte	0x3ca
 3652 0741 68010000 		.4byte	0x168
 3653 0745 37       		.byte	0x37
 3654 0746 0E       		.uleb128 0xe
 3655 0747 2D060000 		.4byte	.LASF221
 3656 074b 05       		.byte	0x5
 3657 074c CB03     		.2byte	0x3cb
 3658 074e D2000000 		.4byte	0xd2
 3659 0752 38       		.byte	0x38
 3660 0753 0F       		.uleb128 0xf
 3661 0754 4F707400 		.ascii	"Opt\000"
 3662 0758 05       		.byte	0x5
 3663 0759 CC03     		.2byte	0x3cc
 3664 075b 5D010000 		.4byte	0x15d
 3665 075f 3C       		.byte	0x3c
 3666 0760 0E       		.uleb128 0xe
 3667 0761 BF030000 		.4byte	.LASF222
 3668 0765 05       		.byte	0x5
 3669 0766 CE03     		.2byte	0x3ce
 3670 0768 47010000 		.4byte	0x147
 3671 076c 3E       		.byte	0x3e
 3672 076d 0F       		.uleb128 0xf
 3673 076e 545300   		.ascii	"TS\000"
 3674 0771 05       		.byte	0x5
 3675 0772 D003     		.2byte	0x3d0
 3676 0774 10010000 		.4byte	0x110
 3677 0778 40       		.byte	0x40
 3678 0779 0E       		.uleb128 0xe
 3679 077a C30E0000 		.4byte	.LASF223
 3680 077e 05       		.byte	0x5
 3681 077f D203     		.2byte	0x3d2
 3682 0781 94010000 		.4byte	0x194
 3683 0785 44       		.byte	0x44
 3684 0786 0E       		.uleb128 0xe
 3685 0787 80070000 		.4byte	.LASF224
 3686 078b 05       		.byte	0x5
 3687 078c D503     		.2byte	0x3d5
 3688 078e B5010000 		.4byte	0x1b5
 3689 0792 48       		.byte	0x48
 3690 0793 0E       		.uleb128 0xe
 3691 0794 18040000 		.4byte	.LASF225
 3692 0798 05       		.byte	0x5
 3693 0799 D603     		.2byte	0x3d6
ARM GAS  C:\Users\EDULU~1.DES\AppData\Local\Temp\ccyhp2HA.s 			page 111


 3694 079b B5010000 		.4byte	0x1b5
 3695 079f 4C       		.byte	0x4c
 3696 07a0 0E       		.uleb128 0xe
 3697 07a1 D30E0000 		.4byte	.LASF226
 3698 07a5 05       		.byte	0x5
 3699 07a6 D703     		.2byte	0x3d7
 3700 07a8 B5010000 		.4byte	0x1b5
 3701 07ac 50       		.byte	0x50
 3702 07ad 0E       		.uleb128 0xe
 3703 07ae A3130000 		.4byte	.LASF227
 3704 07b2 05       		.byte	0x5
 3705 07b3 D903     		.2byte	0x3d9
 3706 07b5 B5010000 		.4byte	0x1b5
 3707 07b9 54       		.byte	0x54
 3708 07ba 0E       		.uleb128 0xe
 3709 07bb 6A090000 		.4byte	.LASF228
 3710 07bf 05       		.byte	0x5
 3711 07c0 DA03     		.2byte	0x3da
 3712 07c2 B5010000 		.4byte	0x1b5
 3713 07c6 58       		.byte	0x58
 3714 07c7 0E       		.uleb128 0xe
 3715 07c8 64130000 		.4byte	.LASF229
 3716 07cc 05       		.byte	0x5
 3717 07cd EA03     		.2byte	0x3ea
 3718 07cf C0090000 		.4byte	0x9c0
 3719 07d3 5C       		.byte	0x5c
 3720 07d4 0E       		.uleb128 0xe
 3721 07d5 5A0B0000 		.4byte	.LASF230
 3722 07d9 05       		.byte	0x5
 3723 07da F403     		.2byte	0x3f4
 3724 07dc 3C010000 		.4byte	0x13c
 3725 07e0 60       		.byte	0x60
 3726 07e1 0E       		.uleb128 0xe
 3727 07e2 98050000 		.4byte	.LASF231
 3728 07e6 05       		.byte	0x5
 3729 07e7 0504     		.2byte	0x405
 3730 07e9 D2000000 		.4byte	0xd2
 3731 07ed 64       		.byte	0x64
 3732 07ee 0E       		.uleb128 0xe
 3733 07ef 78070000 		.4byte	.LASF232
 3734 07f3 05       		.byte	0x5
 3735 07f4 0604     		.2byte	0x406
 3736 07f6 D2000000 		.4byte	0xd2
 3737 07fa 68       		.byte	0x68
 3738 07fb 0E       		.uleb128 0xe
 3739 07fc CD0D0000 		.4byte	.LASF233
 3740 0800 05       		.byte	0x5
 3741 0801 0A04     		.2byte	0x40a
 3742 0803 10010000 		.4byte	0x110
 3743 0807 6C       		.byte	0x6c
 3744 0808 0E       		.uleb128 0xe
 3745 0809 22030000 		.4byte	.LASF234
 3746 080d 05       		.byte	0x5
 3747 080e 1104     		.2byte	0x411
 3748 0810 9C090000 		.4byte	0x99c
 3749 0814 70       		.byte	0x70
 3750 0815 0E       		.uleb128 0xe
ARM GAS  C:\Users\EDULU~1.DES\AppData\Local\Temp\ccyhp2HA.s 			page 112


 3751 0816 3A030000 		.4byte	.LASF235
 3752 081a 05       		.byte	0x5
 3753 081b 1204     		.2byte	0x412
 3754 081d 9C090000 		.4byte	0x99c
 3755 0821 74       		.byte	0x74
 3756 0822 0E       		.uleb128 0xe
 3757 0823 29110000 		.4byte	.LASF236
 3758 0827 05       		.byte	0x5
 3759 0828 1304     		.2byte	0x413
 3760 082a AE090000 		.4byte	0x9ae
 3761 082e 78       		.byte	0x78
 3762 082f 00       		.byte	0
 3763 0830 09       		.uleb128 0x9
 3764 0831 FD040000 		.4byte	.LASF237
 3765 0835 05       		.byte	0x5
 3766 0836 9E02     		.2byte	0x29e
 3767 0838 3C080000 		.4byte	0x83c
 3768 083c 0D       		.uleb128 0xd
 3769 083d D3090000 		.4byte	.LASF239
 3770 0841 08       		.byte	0x8
 3771 0842 05       		.byte	0x5
 3772 0843 1E04     		.2byte	0x41e
 3773 0845 71080000 		.4byte	0x871
 3774 0849 0E       		.uleb128 0xe
 3775 084a 290F0000 		.4byte	.LASF240
 3776 084e 05       		.byte	0x5
 3777 084f 1F04     		.2byte	0x41f
 3778 0851 9C090000 		.4byte	0x99c
 3779 0855 00       		.byte	0
 3780 0856 0E       		.uleb128 0xe
 3781 0857 66010000 		.4byte	.LASF241
 3782 085b 05       		.byte	0x5
 3783 085c 2004     		.2byte	0x420
 3784 085e 47010000 		.4byte	0x147
 3785 0862 04       		.byte	0x4
 3786 0863 0E       		.uleb128 0xe
 3787 0864 60110000 		.4byte	.LASF242
 3788 0868 05       		.byte	0x5
 3789 0869 2104     		.2byte	0x421
 3790 086b 47010000 		.4byte	0x147
 3791 086f 06       		.byte	0x6
 3792 0870 00       		.byte	0
 3793 0871 09       		.uleb128 0x9
 3794 0872 B3050000 		.4byte	.LASF243
 3795 0876 05       		.byte	0x5
 3796 0877 A502     		.2byte	0x2a5
 3797 0879 7D080000 		.4byte	0x87d
 3798 087d 0D       		.uleb128 0xd
 3799 087e 62120000 		.4byte	.LASF244
 3800 0882 20       		.byte	0x20
 3801 0883 05       		.byte	0x5
 3802 0884 DD02     		.2byte	0x2dd
 3803 0886 F3080000 		.4byte	0x8f3
 3804 088a 0E       		.uleb128 0xe
 3805 088b 78080000 		.4byte	.LASF208
 3806 088f 05       		.byte	0x5
 3807 0890 DE02     		.2byte	0x2de
ARM GAS  C:\Users\EDULU~1.DES\AppData\Local\Temp\ccyhp2HA.s 			page 113


 3808 0892 A2090000 		.4byte	0x9a2
 3809 0896 00       		.byte	0
 3810 0897 0E       		.uleb128 0xe
 3811 0898 B90C0000 		.4byte	.LASF207
 3812 089c 05       		.byte	0x5
 3813 089d DF02     		.2byte	0x2df
 3814 089f A2090000 		.4byte	0x9a2
 3815 08a3 04       		.byte	0x4
 3816 08a4 0E       		.uleb128 0xe
 3817 08a5 130A0000 		.4byte	.LASF245
 3818 08a9 05       		.byte	0x5
 3819 08aa E002     		.2byte	0x2e0
 3820 08ac 9C090000 		.4byte	0x99c
 3821 08b0 08       		.byte	0x8
 3822 08b1 0E       		.uleb128 0xe
 3823 08b2 F7120000 		.4byte	.LASF246
 3824 08b6 05       		.byte	0x5
 3825 08b7 E102     		.2byte	0x2e1
 3826 08b9 A8090000 		.4byte	0x9a8
 3827 08bd 0C       		.byte	0xc
 3828 08be 0E       		.uleb128 0xe
 3829 08bf 3B0C0000 		.4byte	.LASF247
 3830 08c3 05       		.byte	0x5
 3831 08c4 E202     		.2byte	0x2e2
 3832 08c6 A8090000 		.4byte	0x9a8
 3833 08ca 10       		.byte	0x10
 3834 08cb 0E       		.uleb128 0xe
 3835 08cc 25040000 		.4byte	.LASF248
 3836 08d0 05       		.byte	0x5
 3837 08d1 E302     		.2byte	0x2e3
 3838 08d3 BA000000 		.4byte	0xba
 3839 08d7 14       		.byte	0x14
 3840 08d8 0E       		.uleb128 0xe
 3841 08d9 AC0D0000 		.4byte	.LASF249
 3842 08dd 05       		.byte	0x5
 3843 08de E402     		.2byte	0x2e4
 3844 08e0 31010000 		.4byte	0x131
 3845 08e4 18       		.byte	0x18
 3846 08e5 0E       		.uleb128 0xe
 3847 08e6 540D0000 		.4byte	.LASF250
 3848 08ea 05       		.byte	0x5
 3849 08eb E502     		.2byte	0x2e5
 3850 08ed 10010000 		.4byte	0x110
 3851 08f1 1C       		.byte	0x1c
 3852 08f2 00       		.byte	0
 3853 08f3 09       		.uleb128 0x9
 3854 08f4 B3110000 		.4byte	.LASF251
 3855 08f8 05       		.byte	0x5
 3856 08f9 A602     		.2byte	0x2a6
 3857 08fb FF080000 		.4byte	0x8ff
 3858 08ff 0D       		.uleb128 0xd
 3859 0900 1A130000 		.4byte	.LASF252
 3860 0904 0C       		.byte	0xc
 3861 0905 05       		.byte	0x5
 3862 0906 E902     		.2byte	0x2e9
 3863 0908 34090000 		.4byte	0x934
 3864 090c 0E       		.uleb128 0xe
ARM GAS  C:\Users\EDULU~1.DES\AppData\Local\Temp\ccyhp2HA.s 			page 114


 3865 090d DE0E0000 		.4byte	.LASF253
 3866 0911 05       		.byte	0x5
 3867 0912 EA02     		.2byte	0x2ea
 3868 0914 A2090000 		.4byte	0x9a2
 3869 0918 00       		.byte	0
 3870 0919 0E       		.uleb128 0xe
 3871 091a E5030000 		.4byte	.LASF254
 3872 091e 05       		.byte	0x5
 3873 091f EB02     		.2byte	0x2eb
 3874 0921 A2090000 		.4byte	0x9a2
 3875 0925 04       		.byte	0x4
 3876 0926 0E       		.uleb128 0xe
 3877 0927 66010000 		.4byte	.LASF241
 3878 092b 05       		.byte	0x5
 3879 092c EC02     		.2byte	0x2ec
 3880 092e 47010000 		.4byte	0x147
 3881 0932 08       		.byte	0x8
 3882 0933 00       		.byte	0
 3883 0934 09       		.uleb128 0x9
 3884 0935 540E0000 		.4byte	.LASF255
 3885 0939 05       		.byte	0x5
 3886 093a A702     		.2byte	0x2a7
 3887 093c 40090000 		.4byte	0x940
 3888 0940 0D       		.uleb128 0xd
 3889 0941 2F040000 		.4byte	.LASF256
 3890 0945 20       		.byte	0x20
 3891 0946 05       		.byte	0x5
 3892 0947 FF02     		.2byte	0x2ff
 3893 0949 9C090000 		.4byte	0x99c
 3894 094d 0E       		.uleb128 0xe
 3895 094e E30C0000 		.4byte	.LASF257
 3896 0952 05       		.byte	0x5
 3897 0953 0003     		.2byte	0x300
 3898 0955 52010000 		.4byte	0x152
 3899 0959 00       		.byte	0
 3900 095a 0E       		.uleb128 0xe
 3901 095b 57090000 		.4byte	.LASF212
 3902 095f 05       		.byte	0x5
 3903 0960 0103     		.2byte	0x301
 3904 0962 AE090000 		.4byte	0x9ae
 3905 0966 04       		.byte	0x4
 3906 0967 0E       		.uleb128 0xe
 3907 0968 860E0000 		.4byte	.LASF258
 3908 096c 05       		.byte	0x5
 3909 096d 0203     		.2byte	0x302
 3910 096f F3080000 		.4byte	0x8f3
 3911 0973 08       		.byte	0x8
 3912 0974 0E       		.uleb128 0xe
 3913 0975 22030000 		.4byte	.LASF234
 3914 0979 05       		.byte	0x5
 3915 097a 0403     		.2byte	0x304
 3916 097c BA000000 		.4byte	0xba
 3917 0980 14       		.byte	0x14
 3918 0981 0E       		.uleb128 0xe
 3919 0982 3A030000 		.4byte	.LASF235
 3920 0986 05       		.byte	0x5
 3921 0987 0503     		.2byte	0x305
ARM GAS  C:\Users\EDULU~1.DES\AppData\Local\Temp\ccyhp2HA.s 			page 115


 3922 0989 BA000000 		.4byte	0xba
 3923 098d 18       		.byte	0x18
 3924 098e 0E       		.uleb128 0xe
 3925 098f 29110000 		.4byte	.LASF236
 3926 0993 05       		.byte	0x5
 3927 0994 0603     		.2byte	0x306
 3928 0996 AE090000 		.4byte	0x9ae
 3929 099a 1C       		.byte	0x1c
 3930 099b 00       		.byte	0
 3931 099c 05       		.uleb128 0x5
 3932 099d 04       		.byte	0x4
 3933 099e 50060000 		.4byte	0x650
 3934 09a2 05       		.uleb128 0x5
 3935 09a3 04       		.byte	0x4
 3936 09a4 71080000 		.4byte	0x871
 3937 09a8 05       		.uleb128 0x5
 3938 09a9 04       		.byte	0x4
 3939 09aa 34090000 		.4byte	0x934
 3940 09ae 05       		.uleb128 0x5
 3941 09af 04       		.byte	0x4
 3942 09b0 25000000 		.4byte	0x25
 3943 09b4 05       		.uleb128 0x5
 3944 09b5 04       		.byte	0x4
 3945 09b6 C7000000 		.4byte	0xc7
 3946 09ba 05       		.uleb128 0x5
 3947 09bb 04       		.byte	0x4
 3948 09bc 30080000 		.4byte	0x830
 3949 09c0 10       		.uleb128 0x10
 3950 09c1 7E010000 		.4byte	0x17e
 3951 09c5 D0090000 		.4byte	0x9d0
 3952 09c9 11       		.uleb128 0x11
 3953 09ca FE000000 		.4byte	0xfe
 3954 09ce 00       		.byte	0
 3955 09cf 00       		.byte	0
 3956 09d0 12       		.uleb128 0x12
 3957 09d1 4F110000 		.4byte	.LASF264
 3958 09d5 01       		.byte	0x1
 3959 09d6 3E       		.byte	0x3e
 3960 09d7 00000000 		.4byte	.LFB1
 3961 09db 60010000 		.4byte	.LFE1-.LFB1
 3962 09df 01       		.uleb128 0x1
 3963 09e0 9C       		.byte	0x9c
 3964 09e1 2C0A0000 		.4byte	0xa2c
 3965 09e5 13       		.uleb128 0x13
 3966 09e6 28120000 		.4byte	.LASF259
 3967 09ea 01       		.byte	0x1
 3968 09eb 3E       		.byte	0x3e
 3969 09ec 9C090000 		.4byte	0x99c
 3970 09f0 02       		.uleb128 0x2
 3971 09f1 91       		.byte	0x91
 3972 09f2 6C       		.sleb128 -20
 3973 09f3 13       		.uleb128 0x13
 3974 09f4 CA0E0000 		.4byte	.LASF260
 3975 09f8 01       		.byte	0x1
 3976 09f9 3F       		.byte	0x3f
 3977 09fa 68010000 		.4byte	0x168
 3978 09fe 02       		.uleb128 0x2
ARM GAS  C:\Users\EDULU~1.DES\AppData\Local\Temp\ccyhp2HA.s 			page 116


 3979 09ff 91       		.byte	0x91
 3980 0a00 6B       		.sleb128 -21
 3981 0a01 13       		.uleb128 0x13
 3982 0a02 03080000 		.4byte	.LASF261
 3983 0a06 01       		.byte	0x1
 3984 0a07 40       		.byte	0x40
 3985 0a08 2C0A0000 		.4byte	0xa2c
 3986 0a0c 02       		.uleb128 0x2
 3987 0a0d 91       		.byte	0x91
 3988 0a0e 64       		.sleb128 -28
 3989 0a0f 14       		.uleb128 0x14
 3990 0a10 61010000 		.4byte	.LASF262
 3991 0a14 01       		.byte	0x1
 3992 0a15 42       		.byte	0x42
 3993 0a16 37000000 		.4byte	0x37
 3994 0a1a 02       		.uleb128 0x2
 3995 0a1b 91       		.byte	0x91
 3996 0a1c 77       		.sleb128 -9
 3997 0a1d 14       		.uleb128 0x14
 3998 0a1e 25050000 		.4byte	.LASF263
 3999 0a22 01       		.byte	0x1
 4000 0a23 43       		.byte	0x43
 4001 0a24 DD000000 		.4byte	0xdd
 4002 0a28 02       		.uleb128 0x2
 4003 0a29 91       		.byte	0x91
 4004 0a2a 70       		.sleb128 -16
 4005 0a2b 00       		.byte	0
 4006 0a2c 05       		.uleb128 0x5
 4007 0a2d 04       		.byte	0x4
 4008 0a2e 38060000 		.4byte	0x638
 4009 0a32 12       		.uleb128 0x12
 4010 0a33 07000000 		.4byte	.LASF265
 4011 0a37 01       		.byte	0x1
 4012 0a38 F9       		.byte	0xf9
 4013 0a39 00000000 		.4byte	.LFB2
 4014 0a3d 28020000 		.4byte	.LFE2-.LFB2
 4015 0a41 01       		.uleb128 0x1
 4016 0a42 9C       		.byte	0x9c
 4017 0a43 4D0B0000 		.4byte	0xb4d
 4018 0a47 13       		.uleb128 0x13
 4019 0a48 28120000 		.4byte	.LASF259
 4020 0a4c 01       		.byte	0x1
 4021 0a4d F9       		.byte	0xf9
 4022 0a4e 9C090000 		.4byte	0x99c
 4023 0a52 02       		.uleb128 0x2
 4024 0a53 91       		.byte	0x91
 4025 0a54 54       		.sleb128 -44
 4026 0a55 13       		.uleb128 0x13
 4027 0a56 13080000 		.4byte	.LASF266
 4028 0a5a 01       		.byte	0x1
 4029 0a5b FA       		.byte	0xfa
 4030 0a5c AE090000 		.4byte	0x9ae
 4031 0a60 02       		.uleb128 0x2
 4032 0a61 91       		.byte	0x91
 4033 0a62 50       		.sleb128 -48
 4034 0a63 13       		.uleb128 0x13
 4035 0a64 1C100000 		.4byte	.LASF267
ARM GAS  C:\Users\EDULU~1.DES\AppData\Local\Temp\ccyhp2HA.s 			page 117


 4036 0a68 01       		.byte	0x1
 4037 0a69 FB       		.byte	0xfb
 4038 0a6a 44060000 		.4byte	0x644
 4039 0a6e 02       		.uleb128 0x2
 4040 0a6f 91       		.byte	0x91
 4041 0a70 4C       		.sleb128 -52
 4042 0a71 13       		.uleb128 0x13
 4043 0a72 700F0000 		.4byte	.LASF268
 4044 0a76 01       		.byte	0x1
 4045 0a77 FC       		.byte	0xfc
 4046 0a78 BA000000 		.4byte	0xba
 4047 0a7c 02       		.uleb128 0x2
 4048 0a7d 91       		.byte	0x91
 4049 0a7e 48       		.sleb128 -56
 4050 0a7f 13       		.uleb128 0x13
 4051 0a80 41080000 		.4byte	.LASF269
 4052 0a84 01       		.byte	0x1
 4053 0a85 FD       		.byte	0xfd
 4054 0a86 68010000 		.4byte	0x168
 4055 0a8a 02       		.uleb128 0x2
 4056 0a8b 91       		.byte	0x91
 4057 0a8c 00       		.sleb128 0
 4058 0a8d 13       		.uleb128 0x13
 4059 0a8e 49100000 		.4byte	.LASF270
 4060 0a92 01       		.byte	0x1
 4061 0a93 FE       		.byte	0xfe
 4062 0a94 B4090000 		.4byte	0x9b4
 4063 0a98 02       		.uleb128 0x2
 4064 0a99 91       		.byte	0x91
 4065 0a9a 04       		.sleb128 4
 4066 0a9b 13       		.uleb128 0x13
 4067 0a9c 78090000 		.4byte	.LASF271
 4068 0aa0 01       		.byte	0x1
 4069 0aa1 FF       		.byte	0xff
 4070 0aa2 D2000000 		.4byte	0xd2
 4071 0aa6 02       		.uleb128 0x2
 4072 0aa7 91       		.byte	0x91
 4073 0aa8 08       		.sleb128 8
 4074 0aa9 15       		.uleb128 0x15
 4075 0aaa 5A0D0000 		.4byte	.LASF272
 4076 0aae 01       		.byte	0x1
 4077 0aaf 0001     		.2byte	0x100
 4078 0ab1 D2000000 		.4byte	0xd2
 4079 0ab5 02       		.uleb128 0x2
 4080 0ab6 91       		.byte	0x91
 4081 0ab7 0C       		.sleb128 12
 4082 0ab8 15       		.uleb128 0x15
 4083 0ab9 A3120000 		.4byte	.LASF273
 4084 0abd 01       		.byte	0x1
 4085 0abe 0101     		.2byte	0x101
 4086 0ac0 26010000 		.4byte	0x126
 4087 0ac4 02       		.uleb128 0x2
 4088 0ac5 91       		.byte	0x91
 4089 0ac6 10       		.sleb128 16
 4090 0ac7 15       		.uleb128 0x15
 4091 0ac8 C9080000 		.4byte	.LASF274
 4092 0acc 01       		.byte	0x1
ARM GAS  C:\Users\EDULU~1.DES\AppData\Local\Temp\ccyhp2HA.s 			page 118


 4093 0acd 0201     		.2byte	0x102
 4094 0acf B5010000 		.4byte	0x1b5
 4095 0ad3 02       		.uleb128 0x2
 4096 0ad4 91       		.byte	0x91
 4097 0ad5 14       		.sleb128 20
 4098 0ad6 15       		.uleb128 0x15
 4099 0ad7 DB0D0000 		.4byte	.LASF275
 4100 0adb 01       		.byte	0x1
 4101 0adc 0301     		.2byte	0x103
 4102 0ade BA000000 		.4byte	0xba
 4103 0ae2 02       		.uleb128 0x2
 4104 0ae3 91       		.byte	0x91
 4105 0ae4 18       		.sleb128 24
 4106 0ae5 16       		.uleb128 0x16
 4107 0ae6 6F707400 		.ascii	"opt\000"
 4108 0aea 01       		.byte	0x1
 4109 0aeb 0401     		.2byte	0x104
 4110 0aed 5D010000 		.4byte	0x15d
 4111 0af1 02       		.uleb128 0x2
 4112 0af2 91       		.byte	0x91
 4113 0af3 1C       		.sleb128 28
 4114 0af4 15       		.uleb128 0x15
 4115 0af5 03080000 		.4byte	.LASF261
 4116 0af9 01       		.byte	0x1
 4117 0afa 0501     		.2byte	0x105
 4118 0afc 2C0A0000 		.4byte	0xa2c
 4119 0b00 02       		.uleb128 0x2
 4120 0b01 91       		.byte	0x91
 4121 0b02 20       		.sleb128 32
 4122 0b03 17       		.uleb128 0x17
 4123 0b04 6900     		.ascii	"i\000"
 4124 0b06 01       		.byte	0x1
 4125 0b07 0701     		.2byte	0x107
 4126 0b09 D2000000 		.4byte	0xd2
 4127 0b0d 02       		.uleb128 0x2
 4128 0b0e 91       		.byte	0x91
 4129 0b0f 6C       		.sleb128 -20
 4130 0b10 18       		.uleb128 0x18
 4131 0b11 DC010000 		.4byte	.LASF276
 4132 0b15 01       		.byte	0x1
 4133 0b16 0901     		.2byte	0x109
 4134 0b18 89010000 		.4byte	0x189
 4135 0b1c 02       		.uleb128 0x2
 4136 0b1d 91       		.byte	0x91
 4137 0b1e 6B       		.sleb128 -21
 4138 0b1f 18       		.uleb128 0x18
 4139 0b20 E1090000 		.4byte	.LASF277
 4140 0b24 01       		.byte	0x1
 4141 0b25 0F01     		.2byte	0x10f
 4142 0b27 B4090000 		.4byte	0x9b4
 4143 0b2b 02       		.uleb128 0x2
 4144 0b2c 91       		.byte	0x91
 4145 0b2d 64       		.sleb128 -28
 4146 0b2e 18       		.uleb128 0x18
 4147 0b2f 91080000 		.4byte	.LASF278
 4148 0b33 01       		.byte	0x1
 4149 0b34 1001     		.2byte	0x110
ARM GAS  C:\Users\EDULU~1.DES\AppData\Local\Temp\ccyhp2HA.s 			page 119


 4150 0b36 B4090000 		.4byte	0x9b4
 4151 0b3a 02       		.uleb128 0x2
 4152 0b3b 91       		.byte	0x91
 4153 0b3c 5C       		.sleb128 -36
 4154 0b3d 18       		.uleb128 0x18
 4155 0b3e 25050000 		.4byte	.LASF263
 4156 0b42 01       		.byte	0x1
 4157 0b43 1101     		.2byte	0x111
 4158 0b45 DD000000 		.4byte	0xdd
 4159 0b49 02       		.uleb128 0x2
 4160 0b4a 91       		.byte	0x91
 4161 0b4b 60       		.sleb128 -32
 4162 0b4c 00       		.byte	0
 4163 0b4d 19       		.uleb128 0x19
 4164 0b4e 4A090000 		.4byte	.LASF280
 4165 0b52 01       		.byte	0x1
 4166 0b53 F303     		.2byte	0x3f3
 4167 0b55 7E010000 		.4byte	0x17e
 4168 0b59 00000000 		.4byte	.LFB3
 4169 0b5d 7C000000 		.4byte	.LFE3-.LFB3
 4170 0b61 01       		.uleb128 0x1
 4171 0b62 9C       		.byte	0x9c
 4172 0b63 B20B0000 		.4byte	0xbb2
 4173 0b67 15       		.uleb128 0x15
 4174 0b68 28120000 		.4byte	.LASF259
 4175 0b6c 01       		.byte	0x1
 4176 0b6d F303     		.2byte	0x3f3
 4177 0b6f 9C090000 		.4byte	0x99c
 4178 0b73 02       		.uleb128 0x2
 4179 0b74 91       		.byte	0x91
 4180 0b75 6C       		.sleb128 -20
 4181 0b76 16       		.uleb128 0x16
 4182 0b77 696400   		.ascii	"id\000"
 4183 0b7a 01       		.byte	0x1
 4184 0b7b F403     		.2byte	0x3f4
 4185 0b7d 89010000 		.4byte	0x189
 4186 0b81 02       		.uleb128 0x2
 4187 0b82 91       		.byte	0x91
 4188 0b83 6B       		.sleb128 -21
 4189 0b84 15       		.uleb128 0x15
 4190 0b85 03080000 		.4byte	.LASF261
 4191 0b89 01       		.byte	0x1
 4192 0b8a F503     		.2byte	0x3f5
 4193 0b8c 2C0A0000 		.4byte	0xa2c
 4194 0b90 02       		.uleb128 0x2
 4195 0b91 91       		.byte	0x91
 4196 0b92 64       		.sleb128 -28
 4197 0b93 18       		.uleb128 0x18
 4198 0b94 40060000 		.4byte	.LASF279
 4199 0b98 01       		.byte	0x1
 4200 0b99 F703     		.2byte	0x3f7
 4201 0b9b 7E010000 		.4byte	0x17e
 4202 0b9f 02       		.uleb128 0x2
 4203 0ba0 91       		.byte	0x91
 4204 0ba1 70       		.sleb128 -16
 4205 0ba2 18       		.uleb128 0x18
 4206 0ba3 25050000 		.4byte	.LASF263
ARM GAS  C:\Users\EDULU~1.DES\AppData\Local\Temp\ccyhp2HA.s 			page 120


 4207 0ba7 01       		.byte	0x1
 4208 0ba8 F803     		.2byte	0x3f8
 4209 0baa DD000000 		.4byte	0xdd
 4210 0bae 02       		.uleb128 0x2
 4211 0baf 91       		.byte	0x91
 4212 0bb0 74       		.sleb128 -12
 4213 0bb1 00       		.byte	0
 4214 0bb2 19       		.uleb128 0x19
 4215 0bb3 F5080000 		.4byte	.LASF281
 4216 0bb7 01       		.byte	0x1
 4217 0bb8 2804     		.2byte	0x428
 4218 0bba 89010000 		.4byte	0x189
 4219 0bbe 00000000 		.4byte	.LFB4
 4220 0bc2 74000000 		.4byte	.LFE4-.LFB4
 4221 0bc6 01       		.uleb128 0x1
 4222 0bc7 9C       		.byte	0x9c
 4223 0bc8 F90B0000 		.4byte	0xbf9
 4224 0bcc 15       		.uleb128 0x15
 4225 0bcd 03080000 		.4byte	.LASF261
 4226 0bd1 01       		.byte	0x1
 4227 0bd2 2804     		.2byte	0x428
 4228 0bd4 2C0A0000 		.4byte	0xa2c
 4229 0bd8 02       		.uleb128 0x2
 4230 0bd9 91       		.byte	0x91
 4231 0bda 6C       		.sleb128 -20
 4232 0bdb 17       		.uleb128 0x17
 4233 0bdc 696400   		.ascii	"id\000"
 4234 0bdf 01       		.byte	0x1
 4235 0be0 2A04     		.2byte	0x42a
 4236 0be2 89010000 		.4byte	0x189
 4237 0be6 02       		.uleb128 0x2
 4238 0be7 91       		.byte	0x91
 4239 0be8 73       		.sleb128 -13
 4240 0be9 18       		.uleb128 0x18
 4241 0bea 25050000 		.4byte	.LASF263
 4242 0bee 01       		.byte	0x1
 4243 0bef 2B04     		.2byte	0x42b
 4244 0bf1 DD000000 		.4byte	0xdd
 4245 0bf5 02       		.uleb128 0x2
 4246 0bf6 91       		.byte	0x91
 4247 0bf7 74       		.sleb128 -12
 4248 0bf8 00       		.byte	0
 4249 0bf9 1A       		.uleb128 0x1a
 4250 0bfa B6040000 		.4byte	.LASF282
 4251 0bfe 01       		.byte	0x1
 4252 0bff 6004     		.2byte	0x460
 4253 0c01 00000000 		.4byte	.LFB5
 4254 0c05 78000000 		.4byte	.LFE5-.LFB5
 4255 0c09 01       		.uleb128 0x1
 4256 0c0a 9C       		.byte	0x9c
 4257 0c0b 5A0C0000 		.4byte	0xc5a
 4258 0c0f 15       		.uleb128 0x15
 4259 0c10 28120000 		.4byte	.LASF259
 4260 0c14 01       		.byte	0x1
 4261 0c15 6004     		.2byte	0x460
 4262 0c17 9C090000 		.4byte	0x99c
 4263 0c1b 02       		.uleb128 0x2
ARM GAS  C:\Users\EDULU~1.DES\AppData\Local\Temp\ccyhp2HA.s 			page 121


 4264 0c1c 91       		.byte	0x91
 4265 0c1d 6C       		.sleb128 -20
 4266 0c1e 16       		.uleb128 0x16
 4267 0c1f 696400   		.ascii	"id\000"
 4268 0c22 01       		.byte	0x1
 4269 0c23 6104     		.2byte	0x461
 4270 0c25 89010000 		.4byte	0x189
 4271 0c29 02       		.uleb128 0x2
 4272 0c2a 91       		.byte	0x91
 4273 0c2b 6B       		.sleb128 -21
 4274 0c2c 15       		.uleb128 0x15
 4275 0c2d 40060000 		.4byte	.LASF279
 4276 0c31 01       		.byte	0x1
 4277 0c32 6204     		.2byte	0x462
 4278 0c34 7E010000 		.4byte	0x17e
 4279 0c38 02       		.uleb128 0x2
 4280 0c39 91       		.byte	0x91
 4281 0c3a 64       		.sleb128 -28
 4282 0c3b 15       		.uleb128 0x15
 4283 0c3c 03080000 		.4byte	.LASF261
 4284 0c40 01       		.byte	0x1
 4285 0c41 6304     		.2byte	0x463
 4286 0c43 2C0A0000 		.4byte	0xa2c
 4287 0c47 02       		.uleb128 0x2
 4288 0c48 91       		.byte	0x91
 4289 0c49 60       		.sleb128 -32
 4290 0c4a 18       		.uleb128 0x18
 4291 0c4b 25050000 		.4byte	.LASF263
 4292 0c4f 01       		.byte	0x1
 4293 0c50 6504     		.2byte	0x465
 4294 0c52 DD000000 		.4byte	0xdd
 4295 0c56 02       		.uleb128 0x2
 4296 0c57 91       		.byte	0x91
 4297 0c58 74       		.sleb128 -12
 4298 0c59 00       		.byte	0
 4299 0c5a 1A       		.uleb128 0x1a
 4300 0c5b C3040000 		.4byte	.LASF283
 4301 0c5f 01       		.byte	0x1
 4302 0c60 9804     		.2byte	0x498
 4303 0c62 00000000 		.4byte	.LFB6
 4304 0c66 7C000000 		.4byte	.LFE6-.LFB6
 4305 0c6a 01       		.uleb128 0x1
 4306 0c6b 9C       		.byte	0x9c
 4307 0c6c 9E0C0000 		.4byte	0xc9e
 4308 0c70 15       		.uleb128 0x15
 4309 0c71 28120000 		.4byte	.LASF259
 4310 0c75 01       		.byte	0x1
 4311 0c76 9804     		.2byte	0x498
 4312 0c78 9C090000 		.4byte	0x99c
 4313 0c7c 02       		.uleb128 0x2
 4314 0c7d 91       		.byte	0x91
 4315 0c7e 6C       		.sleb128 -20
 4316 0c7f 15       		.uleb128 0x15
 4317 0c80 03080000 		.4byte	.LASF261
 4318 0c84 01       		.byte	0x1
 4319 0c85 9904     		.2byte	0x499
 4320 0c87 2C0A0000 		.4byte	0xa2c
ARM GAS  C:\Users\EDULU~1.DES\AppData\Local\Temp\ccyhp2HA.s 			page 122


 4321 0c8b 02       		.uleb128 0x2
 4322 0c8c 91       		.byte	0x91
 4323 0c8d 68       		.sleb128 -24
 4324 0c8e 18       		.uleb128 0x18
 4325 0c8f 25050000 		.4byte	.LASF263
 4326 0c93 01       		.byte	0x1
 4327 0c94 9B04     		.2byte	0x49b
 4328 0c96 DD000000 		.4byte	0xdd
 4329 0c9a 02       		.uleb128 0x2
 4330 0c9b 91       		.byte	0x91
 4331 0c9c 74       		.sleb128 -12
 4332 0c9d 00       		.byte	0
 4333 0c9e 19       		.uleb128 0x19
 4334 0c9f F40F0000 		.4byte	.LASF284
 4335 0ca3 01       		.byte	0x1
 4336 0ca4 EE04     		.2byte	0x4ee
 4337 0ca6 94010000 		.4byte	0x194
 4338 0caa 00000000 		.4byte	.LFB7
 4339 0cae B0010000 		.4byte	.LFE7-.LFB7
 4340 0cb2 01       		.uleb128 0x1
 4341 0cb3 9C       		.byte	0x9c
 4342 0cb4 130D0000 		.4byte	0xd13
 4343 0cb8 15       		.uleb128 0x15
 4344 0cb9 B3100000 		.4byte	.LASF285
 4345 0cbd 01       		.byte	0x1
 4346 0cbe EE04     		.2byte	0x4ee
 4347 0cc0 B5010000 		.4byte	0x1b5
 4348 0cc4 02       		.uleb128 0x2
 4349 0cc5 91       		.byte	0x91
 4350 0cc6 6C       		.sleb128 -20
 4351 0cc7 16       		.uleb128 0x16
 4352 0cc8 6F707400 		.ascii	"opt\000"
 4353 0ccc 01       		.byte	0x1
 4354 0ccd EF04     		.2byte	0x4ef
 4355 0ccf 5D010000 		.4byte	0x15d
 4356 0cd3 02       		.uleb128 0x2
 4357 0cd4 91       		.byte	0x91
 4358 0cd5 6A       		.sleb128 -22
 4359 0cd6 15       		.uleb128 0x15
 4360 0cd7 1D0C0000 		.4byte	.LASF286
 4361 0cdb 01       		.byte	0x1
 4362 0cdc F004     		.2byte	0x4f0
 4363 0cde 130D0000 		.4byte	0xd13
 4364 0ce2 02       		.uleb128 0x2
 4365 0ce3 91       		.byte	0x91
 4366 0ce4 64       		.sleb128 -28
 4367 0ce5 15       		.uleb128 0x15
 4368 0ce6 03080000 		.4byte	.LASF261
 4369 0cea 01       		.byte	0x1
 4370 0ceb F104     		.2byte	0x4f1
 4371 0ced 2C0A0000 		.4byte	0xa2c
 4372 0cf1 02       		.uleb128 0x2
 4373 0cf2 91       		.byte	0x91
 4374 0cf3 60       		.sleb128 -32
 4375 0cf4 17       		.uleb128 0x17
 4376 0cf5 63747200 		.ascii	"ctr\000"
 4377 0cf9 01       		.byte	0x1
ARM GAS  C:\Users\EDULU~1.DES\AppData\Local\Temp\ccyhp2HA.s 			page 123


 4378 0cfa F304     		.2byte	0x4f3
 4379 0cfc 94010000 		.4byte	0x194
 4380 0d00 02       		.uleb128 0x2
 4381 0d01 91       		.byte	0x91
 4382 0d02 70       		.sleb128 -16
 4383 0d03 18       		.uleb128 0x18
 4384 0d04 25050000 		.4byte	.LASF263
 4385 0d08 01       		.byte	0x1
 4386 0d09 F404     		.2byte	0x4f4
 4387 0d0b DD000000 		.4byte	0xdd
 4388 0d0f 02       		.uleb128 0x2
 4389 0d10 91       		.byte	0x91
 4390 0d11 74       		.sleb128 -12
 4391 0d12 00       		.byte	0
 4392 0d13 05       		.uleb128 0x5
 4393 0d14 04       		.byte	0x4
 4394 0d15 10010000 		.4byte	0x110
 4395 0d19 19       		.uleb128 0x19
 4396 0d1a E6020000 		.4byte	.LASF287
 4397 0d1e 01       		.byte	0x1
 4398 0d1f D905     		.2byte	0x5d9
 4399 0d21 94010000 		.4byte	0x194
 4400 0d25 00000000 		.4byte	.LFB8
 4401 0d29 5C000000 		.4byte	.LFE8-.LFB8
 4402 0d2d 01       		.uleb128 0x1
 4403 0d2e 9C       		.byte	0x9c
 4404 0d2f 7E0D0000 		.4byte	0xd7e
 4405 0d33 15       		.uleb128 0x15
 4406 0d34 28120000 		.4byte	.LASF259
 4407 0d38 01       		.byte	0x1
 4408 0d39 D905     		.2byte	0x5d9
 4409 0d3b 9C090000 		.4byte	0x99c
 4410 0d3f 02       		.uleb128 0x2
 4411 0d40 91       		.byte	0x91
 4412 0d41 64       		.sleb128 -28
 4413 0d42 16       		.uleb128 0x16
 4414 0d43 6F707400 		.ascii	"opt\000"
 4415 0d47 01       		.byte	0x1
 4416 0d48 DA05     		.2byte	0x5da
 4417 0d4a 5D010000 		.4byte	0x15d
 4418 0d4e 02       		.uleb128 0x2
 4419 0d4f 91       		.byte	0x91
 4420 0d50 62       		.sleb128 -30
 4421 0d51 15       		.uleb128 0x15
 4422 0d52 03080000 		.4byte	.LASF261
 4423 0d56 01       		.byte	0x1
 4424 0d57 DB05     		.2byte	0x5db
 4425 0d59 2C0A0000 		.4byte	0xa2c
 4426 0d5d 02       		.uleb128 0x2
 4427 0d5e 91       		.byte	0x91
 4428 0d5f 5C       		.sleb128 -36
 4429 0d60 17       		.uleb128 0x17
 4430 0d61 63747200 		.ascii	"ctr\000"
 4431 0d65 01       		.byte	0x1
 4432 0d66 DD05     		.2byte	0x5dd
 4433 0d68 94010000 		.4byte	0x194
 4434 0d6c 02       		.uleb128 0x2
ARM GAS  C:\Users\EDULU~1.DES\AppData\Local\Temp\ccyhp2HA.s 			page 124


 4435 0d6d 91       		.byte	0x91
 4436 0d6e 68       		.sleb128 -24
 4437 0d6f 17       		.uleb128 0x17
 4438 0d70 747300   		.ascii	"ts\000"
 4439 0d73 01       		.byte	0x1
 4440 0d74 DE05     		.2byte	0x5de
 4441 0d76 10010000 		.4byte	0x110
 4442 0d7a 02       		.uleb128 0x2
 4443 0d7b 91       		.byte	0x91
 4444 0d7c 6C       		.sleb128 -20
 4445 0d7d 00       		.byte	0
 4446 0d7e 19       		.uleb128 0x19
 4447 0d7f AB060000 		.4byte	.LASF288
 4448 0d83 01       		.byte	0x1
 4449 0d84 2206     		.2byte	0x622
 4450 0d86 94010000 		.4byte	0x194
 4451 0d8a 00000000 		.4byte	.LFB9
 4452 0d8e 70000000 		.4byte	.LFE9-.LFB9
 4453 0d92 01       		.uleb128 0x1
 4454 0d93 9C       		.byte	0x9c
 4455 0d94 E40D0000 		.4byte	0xde4
 4456 0d98 15       		.uleb128 0x15
 4457 0d99 28120000 		.4byte	.LASF259
 4458 0d9d 01       		.byte	0x1
 4459 0d9e 2206     		.2byte	0x622
 4460 0da0 9C090000 		.4byte	0x99c
 4461 0da4 02       		.uleb128 0x2
 4462 0da5 91       		.byte	0x91
 4463 0da6 6C       		.sleb128 -20
 4464 0da7 16       		.uleb128 0x16
 4465 0da8 636E7400 		.ascii	"cnt\000"
 4466 0dac 01       		.byte	0x1
 4467 0dad 2306     		.2byte	0x623
 4468 0daf 94010000 		.4byte	0x194
 4469 0db3 02       		.uleb128 0x2
 4470 0db4 91       		.byte	0x91
 4471 0db5 68       		.sleb128 -24
 4472 0db6 15       		.uleb128 0x15
 4473 0db7 03080000 		.4byte	.LASF261
 4474 0dbb 01       		.byte	0x1
 4475 0dbc 2406     		.2byte	0x624
 4476 0dbe 2C0A0000 		.4byte	0xa2c
 4477 0dc2 02       		.uleb128 0x2
 4478 0dc3 91       		.byte	0x91
 4479 0dc4 64       		.sleb128 -28
 4480 0dc5 17       		.uleb128 0x17
 4481 0dc6 63747200 		.ascii	"ctr\000"
 4482 0dca 01       		.byte	0x1
 4483 0dcb 2606     		.2byte	0x626
 4484 0dcd 94010000 		.4byte	0x194
 4485 0dd1 02       		.uleb128 0x2
 4486 0dd2 91       		.byte	0x91
 4487 0dd3 70       		.sleb128 -16
 4488 0dd4 18       		.uleb128 0x18
 4489 0dd5 25050000 		.4byte	.LASF263
 4490 0dd9 01       		.byte	0x1
 4491 0dda 2706     		.2byte	0x627
ARM GAS  C:\Users\EDULU~1.DES\AppData\Local\Temp\ccyhp2HA.s 			page 125


 4492 0ddc DD000000 		.4byte	0xdd
 4493 0de0 02       		.uleb128 0x2
 4494 0de1 91       		.byte	0x91
 4495 0de2 74       		.sleb128 -12
 4496 0de3 00       		.byte	0
 4497 0de4 1A       		.uleb128 0x1a
 4498 0de5 630F0000 		.4byte	.LASF289
 4499 0de9 01       		.byte	0x1
 4500 0dea 5E06     		.2byte	0x65e
 4501 0dec 00000000 		.4byte	.LFB10
 4502 0df0 0C010000 		.4byte	.LFE10-.LFB10
 4503 0df4 01       		.uleb128 0x1
 4504 0df5 9C       		.byte	0x9c
 4505 0df6 640E0000 		.4byte	0xe64
 4506 0dfa 15       		.uleb128 0x15
 4507 0dfb 28120000 		.4byte	.LASF259
 4508 0dff 01       		.byte	0x1
 4509 0e00 5E06     		.2byte	0x65e
 4510 0e02 9C090000 		.4byte	0x99c
 4511 0e06 02       		.uleb128 0x2
 4512 0e07 91       		.byte	0x91
 4513 0e08 64       		.sleb128 -28
 4514 0e09 15       		.uleb128 0x15
 4515 0e0a 54070000 		.4byte	.LASF290
 4516 0e0e 01       		.byte	0x1
 4517 0e0f 5F06     		.2byte	0x65f
 4518 0e11 640E0000 		.4byte	0xe64
 4519 0e15 02       		.uleb128 0x2
 4520 0e16 91       		.byte	0x91
 4521 0e17 60       		.sleb128 -32
 4522 0e18 15       		.uleb128 0x15
 4523 0e19 45030000 		.4byte	.LASF291
 4524 0e1d 01       		.byte	0x1
 4525 0e1e 6006     		.2byte	0x660
 4526 0e20 640E0000 		.4byte	0xe64
 4527 0e24 02       		.uleb128 0x2
 4528 0e25 91       		.byte	0x91
 4529 0e26 5C       		.sleb128 -36
 4530 0e27 15       		.uleb128 0x15
 4531 0e28 03080000 		.4byte	.LASF261
 4532 0e2c 01       		.byte	0x1
 4533 0e2d 6106     		.2byte	0x661
 4534 0e2f 2C0A0000 		.4byte	0xa2c
 4535 0e33 02       		.uleb128 0x2
 4536 0e34 91       		.byte	0x91
 4537 0e35 58       		.sleb128 -40
 4538 0e36 18       		.uleb128 0x18
 4539 0e37 3B040000 		.4byte	.LASF292
 4540 0e3b 01       		.byte	0x1
 4541 0e3c 6306     		.2byte	0x663
 4542 0e3e D2000000 		.4byte	0xd2
 4543 0e42 02       		.uleb128 0x2
 4544 0e43 91       		.byte	0x91
 4545 0e44 74       		.sleb128 -12
 4546 0e45 18       		.uleb128 0x18
 4547 0e46 B4070000 		.4byte	.LASF293
 4548 0e4a 01       		.byte	0x1
ARM GAS  C:\Users\EDULU~1.DES\AppData\Local\Temp\ccyhp2HA.s 			page 126


 4549 0e4b 6406     		.2byte	0x664
 4550 0e4d B4090000 		.4byte	0x9b4
 4551 0e51 02       		.uleb128 0x2
 4552 0e52 91       		.byte	0x91
 4553 0e53 70       		.sleb128 -16
 4554 0e54 18       		.uleb128 0x18
 4555 0e55 25050000 		.4byte	.LASF263
 4556 0e59 01       		.byte	0x1
 4557 0e5a 6506     		.2byte	0x665
 4558 0e5c DD000000 		.4byte	0xdd
 4559 0e60 02       		.uleb128 0x2
 4560 0e61 91       		.byte	0x91
 4561 0e62 6C       		.sleb128 -20
 4562 0e63 00       		.byte	0
 4563 0e64 05       		.uleb128 0x5
 4564 0e65 04       		.byte	0x4
 4565 0e66 D2000000 		.4byte	0xd2
 4566 0e6a 1A       		.uleb128 0x1a
 4567 0e6b 23100000 		.4byte	.LASF294
 4568 0e6f 01       		.byte	0x1
 4569 0e70 CA06     		.2byte	0x6ca
 4570 0e72 00000000 		.4byte	.LFB11
 4571 0e76 4C000000 		.4byte	.LFE11-.LFB11
 4572 0e7a 01       		.uleb128 0x1
 4573 0e7b 9C       		.byte	0x9c
 4574 0e7c 9F0E0000 		.4byte	0xe9f
 4575 0e80 15       		.uleb128 0x15
 4576 0e81 28120000 		.4byte	.LASF259
 4577 0e85 01       		.byte	0x1
 4578 0e86 CA06     		.2byte	0x6ca
 4579 0e88 9C090000 		.4byte	0x99c
 4580 0e8c 02       		.uleb128 0x2
 4581 0e8d 91       		.byte	0x91
 4582 0e8e 74       		.sleb128 -12
 4583 0e8f 15       		.uleb128 0x15
 4584 0e90 03080000 		.4byte	.LASF261
 4585 0e94 01       		.byte	0x1
 4586 0e95 CB06     		.2byte	0x6cb
 4587 0e97 2C0A0000 		.4byte	0xa2c
 4588 0e9b 02       		.uleb128 0x2
 4589 0e9c 91       		.byte	0x91
 4590 0e9d 70       		.sleb128 -16
 4591 0e9e 00       		.byte	0
 4592 0e9f 1B       		.uleb128 0x1b
 4593 0ea0 020E0000 		.4byte	.LASF295
 4594 0ea4 01       		.byte	0x1
 4595 0ea5 4607     		.2byte	0x746
 4596 0ea7 00000000 		.4byte	.LFB12
 4597 0eab 40000000 		.4byte	.LFE12-.LFB12
 4598 0eaf 01       		.uleb128 0x1
 4599 0eb0 9C       		.byte	0x9c
 4600 0eb1 C50E0000 		.4byte	0xec5
 4601 0eb5 15       		.uleb128 0x15
 4602 0eb6 28120000 		.4byte	.LASF259
 4603 0eba 01       		.byte	0x1
 4604 0ebb 4607     		.2byte	0x746
 4605 0ebd 9C090000 		.4byte	0x99c
ARM GAS  C:\Users\EDULU~1.DES\AppData\Local\Temp\ccyhp2HA.s 			page 127


 4606 0ec1 02       		.uleb128 0x2
 4607 0ec2 91       		.byte	0x91
 4608 0ec3 74       		.sleb128 -12
 4609 0ec4 00       		.byte	0
 4610 0ec5 1B       		.uleb128 0x1b
 4611 0ec6 AE0E0000 		.4byte	.LASF296
 4612 0eca 01       		.byte	0x1
 4613 0ecb 5407     		.2byte	0x754
 4614 0ecd 00000000 		.4byte	.LFB13
 4615 0ed1 6C000000 		.4byte	.LFE13-.LFB13
 4616 0ed5 01       		.uleb128 0x1
 4617 0ed6 9C       		.byte	0x9c
 4618 0ed7 090F0000 		.4byte	0xf09
 4619 0edb 15       		.uleb128 0x15
 4620 0edc 28120000 		.4byte	.LASF259
 4621 0ee0 01       		.byte	0x1
 4622 0ee1 5407     		.2byte	0x754
 4623 0ee3 9C090000 		.4byte	0x99c
 4624 0ee7 02       		.uleb128 0x2
 4625 0ee8 91       		.byte	0x91
 4626 0ee9 6C       		.sleb128 -20
 4627 0eea 18       		.uleb128 0x18
 4628 0eeb 9D040000 		.4byte	.LASF297
 4629 0eef 01       		.byte	0x1
 4630 0ef0 5607     		.2byte	0x756
 4631 0ef2 9C090000 		.4byte	0x99c
 4632 0ef6 02       		.uleb128 0x2
 4633 0ef7 91       		.byte	0x91
 4634 0ef8 70       		.sleb128 -16
 4635 0ef9 18       		.uleb128 0x18
 4636 0efa 720C0000 		.4byte	.LASF298
 4637 0efe 01       		.byte	0x1
 4638 0eff 5707     		.2byte	0x757
 4639 0f01 9C090000 		.4byte	0x99c
 4640 0f05 02       		.uleb128 0x2
 4641 0f06 91       		.byte	0x91
 4642 0f07 74       		.sleb128 -12
 4643 0f08 00       		.byte	0
 4644 0f09 1B       		.uleb128 0x1b
 4645 0f0a FD0E0000 		.4byte	.LASF299
 4646 0f0e 01       		.byte	0x1
 4647 0f0f 8307     		.2byte	0x783
 4648 0f11 00000000 		.4byte	.LFB14
 4649 0f15 34000000 		.4byte	.LFE14-.LFB14
 4650 0f19 01       		.uleb128 0x1
 4651 0f1a 9C       		.byte	0x9c
 4652 0f1b 2F0F0000 		.4byte	0xf2f
 4653 0f1f 15       		.uleb128 0x15
 4654 0f20 03080000 		.4byte	.LASF261
 4655 0f24 01       		.byte	0x1
 4656 0f25 8307     		.2byte	0x783
 4657 0f27 2C0A0000 		.4byte	0xa2c
 4658 0f2b 02       		.uleb128 0x2
 4659 0f2c 91       		.byte	0x91
 4660 0f2d 74       		.sleb128 -12
 4661 0f2e 00       		.byte	0
 4662 0f2f 1B       		.uleb128 0x1b
ARM GAS  C:\Users\EDULU~1.DES\AppData\Local\Temp\ccyhp2HA.s 			page 128


 4663 0f30 710B0000 		.4byte	.LASF300
 4664 0f34 01       		.byte	0x1
 4665 0f35 A507     		.2byte	0x7a5
 4666 0f37 00000000 		.4byte	.LFB15
 4667 0f3b 1C010000 		.4byte	.LFE15-.LFB15
 4668 0f3f 01       		.uleb128 0x1
 4669 0f40 9C       		.byte	0x9c
 4670 0f41 640F0000 		.4byte	0xf64
 4671 0f45 15       		.uleb128 0x15
 4672 0f46 28120000 		.4byte	.LASF259
 4673 0f4a 01       		.byte	0x1
 4674 0f4b A507     		.2byte	0x7a5
 4675 0f4d 9C090000 		.4byte	0x99c
 4676 0f51 02       		.uleb128 0x2
 4677 0f52 91       		.byte	0x91
 4678 0f53 6C       		.sleb128 -20
 4679 0f54 18       		.uleb128 0x18
 4680 0f55 A1070000 		.4byte	.LASF301
 4681 0f59 01       		.byte	0x1
 4682 0f5a A807     		.2byte	0x7a8
 4683 0f5c 89010000 		.4byte	0x189
 4684 0f60 02       		.uleb128 0x2
 4685 0f61 91       		.byte	0x91
 4686 0f62 77       		.sleb128 -9
 4687 0f63 00       		.byte	0
 4688 0f64 1A       		.uleb128 0x1a
 4689 0f65 0E100000 		.4byte	.LASF302
 4690 0f69 01       		.byte	0x1
 4691 0f6a A708     		.2byte	0x8a7
 4692 0f6c 00000000 		.4byte	.LFB16
 4693 0f70 3C010000 		.4byte	.LFE16-.LFB16
 4694 0f74 01       		.uleb128 0x1
 4695 0f75 9C       		.byte	0x9c
 4696 0f76 A80F0000 		.4byte	0xfa8
 4697 0f7a 15       		.uleb128 0x15
 4698 0f7b 28120000 		.4byte	.LASF259
 4699 0f7f 01       		.byte	0x1
 4700 0f80 A708     		.2byte	0x8a7
 4701 0f82 9C090000 		.4byte	0x99c
 4702 0f86 02       		.uleb128 0x2
 4703 0f87 91       		.byte	0x91
 4704 0f88 6C       		.sleb128 -20
 4705 0f89 15       		.uleb128 0x15
 4706 0f8a 03080000 		.4byte	.LASF261
 4707 0f8e 01       		.byte	0x1
 4708 0f8f A808     		.2byte	0x8a8
 4709 0f91 2C0A0000 		.4byte	0xa2c
 4710 0f95 02       		.uleb128 0x2
 4711 0f96 91       		.byte	0x91
 4712 0f97 68       		.sleb128 -24
 4713 0f98 18       		.uleb128 0x18
 4714 0f99 25050000 		.4byte	.LASF263
 4715 0f9d 01       		.byte	0x1
 4716 0f9e AA08     		.2byte	0x8aa
 4717 0fa0 DD000000 		.4byte	0xdd
 4718 0fa4 02       		.uleb128 0x2
 4719 0fa5 91       		.byte	0x91
ARM GAS  C:\Users\EDULU~1.DES\AppData\Local\Temp\ccyhp2HA.s 			page 129


 4720 0fa6 74       		.sleb128 -12
 4721 0fa7 00       		.byte	0
 4722 0fa8 1A       		.uleb128 0x1a
 4723 0fa9 780E0000 		.4byte	.LASF303
 4724 0fad 01       		.byte	0x1
 4725 0fae F408     		.2byte	0x8f4
 4726 0fb0 00000000 		.4byte	.LFB17
 4727 0fb4 28000000 		.4byte	.LFE17-.LFB17
 4728 0fb8 01       		.uleb128 0x1
 4729 0fb9 9C       		.byte	0x9c
 4730 0fba CE0F0000 		.4byte	0xfce
 4731 0fbe 17       		.uleb128 0x17
 4732 0fbf 65727200 		.ascii	"err\000"
 4733 0fc3 01       		.byte	0x1
 4734 0fc4 F608     		.2byte	0x8f6
 4735 0fc6 38060000 		.4byte	0x638
 4736 0fca 02       		.uleb128 0x2
 4737 0fcb 91       		.byte	0x91
 4738 0fcc 76       		.sleb128 -10
 4739 0fcd 00       		.byte	0
 4740 0fce 19       		.uleb128 0x19
 4741 0fcf 2E120000 		.4byte	.LASF304
 4742 0fd3 01       		.byte	0x1
 4743 0fd4 2609     		.2byte	0x926
 4744 0fd6 94010000 		.4byte	0x194
 4745 0fda 00000000 		.4byte	.LFB18
 4746 0fde 40010000 		.4byte	.LFE18-.LFB18
 4747 0fe2 01       		.uleb128 0x1
 4748 0fe3 9C       		.byte	0x9c
 4749 0fe4 42100000 		.4byte	0x1042
 4750 0fe8 15       		.uleb128 0x15
 4751 0fe9 28120000 		.4byte	.LASF259
 4752 0fed 01       		.byte	0x1
 4753 0fee 2609     		.2byte	0x926
 4754 0ff0 9C090000 		.4byte	0x99c
 4755 0ff4 02       		.uleb128 0x2
 4756 0ff5 91       		.byte	0x91
 4757 0ff6 6C       		.sleb128 -20
 4758 0ff7 16       		.uleb128 0x16
 4759 0ff8 6F707400 		.ascii	"opt\000"
 4760 0ffc 01       		.byte	0x1
 4761 0ffd 2709     		.2byte	0x927
 4762 0fff 5D010000 		.4byte	0x15d
 4763 1003 02       		.uleb128 0x2
 4764 1004 91       		.byte	0x91
 4765 1005 6A       		.sleb128 -22
 4766 1006 16       		.uleb128 0x16
 4767 1007 747300   		.ascii	"ts\000"
 4768 100a 01       		.byte	0x1
 4769 100b 2809     		.2byte	0x928
 4770 100d 10010000 		.4byte	0x110
 4771 1011 02       		.uleb128 0x2
 4772 1012 91       		.byte	0x91
 4773 1013 64       		.sleb128 -28
 4774 1014 15       		.uleb128 0x15
 4775 1015 03080000 		.4byte	.LASF261
 4776 1019 01       		.byte	0x1
ARM GAS  C:\Users\EDULU~1.DES\AppData\Local\Temp\ccyhp2HA.s 			page 130


 4777 101a 2909     		.2byte	0x929
 4778 101c 2C0A0000 		.4byte	0xa2c
 4779 1020 02       		.uleb128 0x2
 4780 1021 91       		.byte	0x91
 4781 1022 60       		.sleb128 -32
 4782 1023 17       		.uleb128 0x17
 4783 1024 63747200 		.ascii	"ctr\000"
 4784 1028 01       		.byte	0x1
 4785 1029 2B09     		.2byte	0x92b
 4786 102b 94010000 		.4byte	0x194
 4787 102f 02       		.uleb128 0x2
 4788 1030 91       		.byte	0x91
 4789 1031 74       		.sleb128 -12
 4790 1032 18       		.uleb128 0x18
 4791 1033 25050000 		.4byte	.LASF263
 4792 1037 01       		.byte	0x1
 4793 1038 2C09     		.2byte	0x92c
 4794 103a DD000000 		.4byte	0xdd
 4795 103e 02       		.uleb128 0x2
 4796 103f 91       		.byte	0x91
 4797 1040 70       		.sleb128 -16
 4798 1041 00       		.byte	0
 4799 1042 1A       		.uleb128 0x1a
 4800 1043 930D0000 		.4byte	.LASF305
 4801 1047 01       		.byte	0x1
 4802 1048 B609     		.2byte	0x9b6
 4803 104a 00000000 		.4byte	.LFB19
 4804 104e 38010000 		.4byte	.LFE19-.LFB19
 4805 1052 01       		.uleb128 0x1
 4806 1053 9C       		.byte	0x9c
 4807 1054 86100000 		.4byte	0x1086
 4808 1058 15       		.uleb128 0x15
 4809 1059 28120000 		.4byte	.LASF259
 4810 105d 01       		.byte	0x1
 4811 105e B609     		.2byte	0x9b6
 4812 1060 9C090000 		.4byte	0x99c
 4813 1064 02       		.uleb128 0x2
 4814 1065 91       		.byte	0x91
 4815 1066 6C       		.sleb128 -20
 4816 1067 15       		.uleb128 0x15
 4817 1068 03080000 		.4byte	.LASF261
 4818 106c 01       		.byte	0x1
 4819 106d B709     		.2byte	0x9b7
 4820 106f 2C0A0000 		.4byte	0xa2c
 4821 1073 02       		.uleb128 0x2
 4822 1074 91       		.byte	0x91
 4823 1075 68       		.sleb128 -24
 4824 1076 18       		.uleb128 0x18
 4825 1077 25050000 		.4byte	.LASF263
 4826 107b 01       		.byte	0x1
 4827 107c B909     		.2byte	0x9b9
 4828 107e DD000000 		.4byte	0xdd
 4829 1082 02       		.uleb128 0x2
 4830 1083 91       		.byte	0x91
 4831 1084 74       		.sleb128 -12
 4832 1085 00       		.byte	0
 4833 1086 1C       		.uleb128 0x1c
ARM GAS  C:\Users\EDULU~1.DES\AppData\Local\Temp\ccyhp2HA.s 			page 131


 4834 1087 89060000 		.4byte	.LASF306
 4835 108b 05       		.byte	0x5
 4836 108c 5C04     		.2byte	0x45c
 4837 108e 50060000 		.4byte	0x650
 4838 1092 1C       		.uleb128 0x1c
 4839 1093 E80C0000 		.4byte	.LASF307
 4840 1097 05       		.byte	0x5
 4841 1098 5F04     		.2byte	0x45f
 4842 109a 3C010000 		.4byte	0x13c
 4843 109e 1C       		.uleb128 0x1c
 4844 109f 09080000 		.4byte	.LASF308
 4845 10a3 05       		.byte	0x5
 4846 10a4 6404     		.2byte	0x464
 4847 10a6 9F010000 		.4byte	0x19f
 4848 10aa 1C       		.uleb128 0x1c
 4849 10ab 85100000 		.4byte	.LASF309
 4850 10af 05       		.byte	0x5
 4851 10b0 AD04     		.2byte	0x4ad
 4852 10b2 3C010000 		.4byte	0x13c
 4853 10b6 1C       		.uleb128 0x1c
 4854 10b7 32080000 		.4byte	.LASF310
 4855 10bb 05       		.byte	0x5
 4856 10bc C804     		.2byte	0x4c8
 4857 10be 1B010000 		.4byte	0x11b
 4858 10c2 1C       		.uleb128 0x1c
 4859 10c3 09130000 		.4byte	.LASF311
 4860 10c7 05       		.byte	0x5
 4861 10c8 CA04     		.2byte	0x4ca
 4862 10ca 9C090000 		.4byte	0x99c
 4863 10ce 1C       		.uleb128 0x1c
 4864 10cf 090A0000 		.4byte	.LASF312
 4865 10d3 05       		.byte	0x5
 4866 10d4 CC04     		.2byte	0x4cc
 4867 10d6 47010000 		.4byte	0x147
 4868 10da 1C       		.uleb128 0x1c
 4869 10db F4090000 		.4byte	.LASF313
 4870 10df 05       		.byte	0x5
 4871 10e0 CF04     		.2byte	0x4cf
 4872 10e2 89010000 		.4byte	0x189
 4873 10e6 1C       		.uleb128 0x1c
 4874 10e7 BD010000 		.4byte	.LASF314
 4875 10eb 05       		.byte	0x5
 4876 10ec E504     		.2byte	0x4e5
 4877 10ee 9C090000 		.4byte	0x99c
 4878 10f2 1C       		.uleb128 0x1c
 4879 10f3 E00B0000 		.4byte	.LASF315
 4880 10f7 05       		.byte	0x5
 4881 10f8 0D05     		.2byte	0x50d
 4882 10fa FE100000 		.4byte	0x10fe
 4883 10fe 1D       		.uleb128 0x1d
 4884 10ff D2000000 		.4byte	0xd2
 4885 1103 1C       		.uleb128 0x1c
 4886 1104 F4130000 		.4byte	.LASF316
 4887 1108 05       		.byte	0x5
 4888 1109 0F05     		.2byte	0x50f
 4889 110b 0F110000 		.4byte	0x110f
 4890 110f 1D       		.uleb128 0x1d
ARM GAS  C:\Users\EDULU~1.DES\AppData\Local\Temp\ccyhp2HA.s 			page 132


 4891 1110 73010000 		.4byte	0x173
 4892 1114 00       		.byte	0
 4893              		.section	.debug_abbrev,"",%progbits
 4894              	.Ldebug_abbrev0:
 4895 0000 01       		.uleb128 0x1
 4896 0001 11       		.uleb128 0x11
 4897 0002 01       		.byte	0x1
 4898 0003 25       		.uleb128 0x25
 4899 0004 0E       		.uleb128 0xe
 4900 0005 13       		.uleb128 0x13
 4901 0006 0B       		.uleb128 0xb
 4902 0007 03       		.uleb128 0x3
 4903 0008 0E       		.uleb128 0xe
 4904 0009 1B       		.uleb128 0x1b
 4905 000a 0E       		.uleb128 0xe
 4906 000b 55       		.uleb128 0x55
 4907 000c 17       		.uleb128 0x17
 4908 000d 11       		.uleb128 0x11
 4909 000e 01       		.uleb128 0x1
 4910 000f 10       		.uleb128 0x10
 4911 0010 17       		.uleb128 0x17
 4912 0011 00       		.byte	0
 4913 0012 00       		.byte	0
 4914 0013 02       		.uleb128 0x2
 4915 0014 16       		.uleb128 0x16
 4916 0015 00       		.byte	0
 4917 0016 03       		.uleb128 0x3
 4918 0017 0E       		.uleb128 0xe
 4919 0018 3A       		.uleb128 0x3a
 4920 0019 0B       		.uleb128 0xb
 4921 001a 3B       		.uleb128 0x3b
 4922 001b 0B       		.uleb128 0xb
 4923 001c 49       		.uleb128 0x49
 4924 001d 13       		.uleb128 0x13
 4925 001e 00       		.byte	0
 4926 001f 00       		.byte	0
 4927 0020 03       		.uleb128 0x3
 4928 0021 24       		.uleb128 0x24
 4929 0022 00       		.byte	0
 4930 0023 0B       		.uleb128 0xb
 4931 0024 0B       		.uleb128 0xb
 4932 0025 3E       		.uleb128 0x3e
 4933 0026 0B       		.uleb128 0xb
 4934 0027 03       		.uleb128 0x3
 4935 0028 0E       		.uleb128 0xe
 4936 0029 00       		.byte	0
 4937 002a 00       		.byte	0
 4938 002b 04       		.uleb128 0x4
 4939 002c 24       		.uleb128 0x24
 4940 002d 00       		.byte	0
 4941 002e 0B       		.uleb128 0xb
 4942 002f 0B       		.uleb128 0xb
 4943 0030 3E       		.uleb128 0x3e
 4944 0031 0B       		.uleb128 0xb
 4945 0032 03       		.uleb128 0x3
 4946 0033 08       		.uleb128 0x8
 4947 0034 00       		.byte	0
ARM GAS  C:\Users\EDULU~1.DES\AppData\Local\Temp\ccyhp2HA.s 			page 133


 4948 0035 00       		.byte	0
 4949 0036 05       		.uleb128 0x5
 4950 0037 0F       		.uleb128 0xf
 4951 0038 00       		.byte	0
 4952 0039 0B       		.uleb128 0xb
 4953 003a 0B       		.uleb128 0xb
 4954 003b 49       		.uleb128 0x49
 4955 003c 13       		.uleb128 0x13
 4956 003d 00       		.byte	0
 4957 003e 00       		.byte	0
 4958 003f 06       		.uleb128 0x6
 4959 0040 15       		.uleb128 0x15
 4960 0041 01       		.byte	0x1
 4961 0042 27       		.uleb128 0x27
 4962 0043 19       		.uleb128 0x19
 4963 0044 01       		.uleb128 0x1
 4964 0045 13       		.uleb128 0x13
 4965 0046 00       		.byte	0
 4966 0047 00       		.byte	0
 4967 0048 07       		.uleb128 0x7
 4968 0049 05       		.uleb128 0x5
 4969 004a 00       		.byte	0
 4970 004b 49       		.uleb128 0x49
 4971 004c 13       		.uleb128 0x13
 4972 004d 00       		.byte	0
 4973 004e 00       		.byte	0
 4974 004f 08       		.uleb128 0x8
 4975 0050 0F       		.uleb128 0xf
 4976 0051 00       		.byte	0
 4977 0052 0B       		.uleb128 0xb
 4978 0053 0B       		.uleb128 0xb
 4979 0054 00       		.byte	0
 4980 0055 00       		.byte	0
 4981 0056 09       		.uleb128 0x9
 4982 0057 16       		.uleb128 0x16
 4983 0058 00       		.byte	0
 4984 0059 03       		.uleb128 0x3
 4985 005a 0E       		.uleb128 0xe
 4986 005b 3A       		.uleb128 0x3a
 4987 005c 0B       		.uleb128 0xb
 4988 005d 3B       		.uleb128 0x3b
 4989 005e 05       		.uleb128 0x5
 4990 005f 49       		.uleb128 0x49
 4991 0060 13       		.uleb128 0x13
 4992 0061 00       		.byte	0
 4993 0062 00       		.byte	0
 4994 0063 0A       		.uleb128 0xa
 4995 0064 04       		.uleb128 0x4
 4996 0065 01       		.byte	0x1
 4997 0066 03       		.uleb128 0x3
 4998 0067 0E       		.uleb128 0xe
 4999 0068 0B       		.uleb128 0xb
 5000 0069 0B       		.uleb128 0xb
 5001 006a 49       		.uleb128 0x49
 5002 006b 13       		.uleb128 0x13
 5003 006c 3A       		.uleb128 0x3a
 5004 006d 0B       		.uleb128 0xb
ARM GAS  C:\Users\EDULU~1.DES\AppData\Local\Temp\ccyhp2HA.s 			page 134


 5005 006e 3B       		.uleb128 0x3b
 5006 006f 05       		.uleb128 0x5
 5007 0070 01       		.uleb128 0x1
 5008 0071 13       		.uleb128 0x13
 5009 0072 00       		.byte	0
 5010 0073 00       		.byte	0
 5011 0074 0B       		.uleb128 0xb
 5012 0075 28       		.uleb128 0x28
 5013 0076 00       		.byte	0
 5014 0077 03       		.uleb128 0x3
 5015 0078 0E       		.uleb128 0xe
 5016 0079 1C       		.uleb128 0x1c
 5017 007a 0B       		.uleb128 0xb
 5018 007b 00       		.byte	0
 5019 007c 00       		.byte	0
 5020 007d 0C       		.uleb128 0xc
 5021 007e 28       		.uleb128 0x28
 5022 007f 00       		.byte	0
 5023 0080 03       		.uleb128 0x3
 5024 0081 0E       		.uleb128 0xe
 5025 0082 1C       		.uleb128 0x1c
 5026 0083 05       		.uleb128 0x5
 5027 0084 00       		.byte	0
 5028 0085 00       		.byte	0
 5029 0086 0D       		.uleb128 0xd
 5030 0087 13       		.uleb128 0x13
 5031 0088 01       		.byte	0x1
 5032 0089 03       		.uleb128 0x3
 5033 008a 0E       		.uleb128 0xe
 5034 008b 0B       		.uleb128 0xb
 5035 008c 0B       		.uleb128 0xb
 5036 008d 3A       		.uleb128 0x3a
 5037 008e 0B       		.uleb128 0xb
 5038 008f 3B       		.uleb128 0x3b
 5039 0090 05       		.uleb128 0x5
 5040 0091 01       		.uleb128 0x1
 5041 0092 13       		.uleb128 0x13
 5042 0093 00       		.byte	0
 5043 0094 00       		.byte	0
 5044 0095 0E       		.uleb128 0xe
 5045 0096 0D       		.uleb128 0xd
 5046 0097 00       		.byte	0
 5047 0098 03       		.uleb128 0x3
 5048 0099 0E       		.uleb128 0xe
 5049 009a 3A       		.uleb128 0x3a
 5050 009b 0B       		.uleb128 0xb
 5051 009c 3B       		.uleb128 0x3b
 5052 009d 05       		.uleb128 0x5
 5053 009e 49       		.uleb128 0x49
 5054 009f 13       		.uleb128 0x13
 5055 00a0 38       		.uleb128 0x38
 5056 00a1 0B       		.uleb128 0xb
 5057 00a2 00       		.byte	0
 5058 00a3 00       		.byte	0
 5059 00a4 0F       		.uleb128 0xf
 5060 00a5 0D       		.uleb128 0xd
 5061 00a6 00       		.byte	0
ARM GAS  C:\Users\EDULU~1.DES\AppData\Local\Temp\ccyhp2HA.s 			page 135


 5062 00a7 03       		.uleb128 0x3
 5063 00a8 08       		.uleb128 0x8
 5064 00a9 3A       		.uleb128 0x3a
 5065 00aa 0B       		.uleb128 0xb
 5066 00ab 3B       		.uleb128 0x3b
 5067 00ac 05       		.uleb128 0x5
 5068 00ad 49       		.uleb128 0x49
 5069 00ae 13       		.uleb128 0x13
 5070 00af 38       		.uleb128 0x38
 5071 00b0 0B       		.uleb128 0xb
 5072 00b1 00       		.byte	0
 5073 00b2 00       		.byte	0
 5074 00b3 10       		.uleb128 0x10
 5075 00b4 01       		.uleb128 0x1
 5076 00b5 01       		.byte	0x1
 5077 00b6 49       		.uleb128 0x49
 5078 00b7 13       		.uleb128 0x13
 5079 00b8 01       		.uleb128 0x1
 5080 00b9 13       		.uleb128 0x13
 5081 00ba 00       		.byte	0
 5082 00bb 00       		.byte	0
 5083 00bc 11       		.uleb128 0x11
 5084 00bd 21       		.uleb128 0x21
 5085 00be 00       		.byte	0
 5086 00bf 49       		.uleb128 0x49
 5087 00c0 13       		.uleb128 0x13
 5088 00c1 2F       		.uleb128 0x2f
 5089 00c2 0B       		.uleb128 0xb
 5090 00c3 00       		.byte	0
 5091 00c4 00       		.byte	0
 5092 00c5 12       		.uleb128 0x12
 5093 00c6 2E       		.uleb128 0x2e
 5094 00c7 01       		.byte	0x1
 5095 00c8 3F       		.uleb128 0x3f
 5096 00c9 19       		.uleb128 0x19
 5097 00ca 03       		.uleb128 0x3
 5098 00cb 0E       		.uleb128 0xe
 5099 00cc 3A       		.uleb128 0x3a
 5100 00cd 0B       		.uleb128 0xb
 5101 00ce 3B       		.uleb128 0x3b
 5102 00cf 0B       		.uleb128 0xb
 5103 00d0 27       		.uleb128 0x27
 5104 00d1 19       		.uleb128 0x19
 5105 00d2 11       		.uleb128 0x11
 5106 00d3 01       		.uleb128 0x1
 5107 00d4 12       		.uleb128 0x12
 5108 00d5 06       		.uleb128 0x6
 5109 00d6 40       		.uleb128 0x40
 5110 00d7 18       		.uleb128 0x18
 5111 00d8 9642     		.uleb128 0x2116
 5112 00da 19       		.uleb128 0x19
 5113 00db 01       		.uleb128 0x1
 5114 00dc 13       		.uleb128 0x13
 5115 00dd 00       		.byte	0
 5116 00de 00       		.byte	0
 5117 00df 13       		.uleb128 0x13
 5118 00e0 05       		.uleb128 0x5
ARM GAS  C:\Users\EDULU~1.DES\AppData\Local\Temp\ccyhp2HA.s 			page 136


 5119 00e1 00       		.byte	0
 5120 00e2 03       		.uleb128 0x3
 5121 00e3 0E       		.uleb128 0xe
 5122 00e4 3A       		.uleb128 0x3a
 5123 00e5 0B       		.uleb128 0xb
 5124 00e6 3B       		.uleb128 0x3b
 5125 00e7 0B       		.uleb128 0xb
 5126 00e8 49       		.uleb128 0x49
 5127 00e9 13       		.uleb128 0x13
 5128 00ea 02       		.uleb128 0x2
 5129 00eb 18       		.uleb128 0x18
 5130 00ec 00       		.byte	0
 5131 00ed 00       		.byte	0
 5132 00ee 14       		.uleb128 0x14
 5133 00ef 34       		.uleb128 0x34
 5134 00f0 00       		.byte	0
 5135 00f1 03       		.uleb128 0x3
 5136 00f2 0E       		.uleb128 0xe
 5137 00f3 3A       		.uleb128 0x3a
 5138 00f4 0B       		.uleb128 0xb
 5139 00f5 3B       		.uleb128 0x3b
 5140 00f6 0B       		.uleb128 0xb
 5141 00f7 49       		.uleb128 0x49
 5142 00f8 13       		.uleb128 0x13
 5143 00f9 02       		.uleb128 0x2
 5144 00fa 18       		.uleb128 0x18
 5145 00fb 00       		.byte	0
 5146 00fc 00       		.byte	0
 5147 00fd 15       		.uleb128 0x15
 5148 00fe 05       		.uleb128 0x5
 5149 00ff 00       		.byte	0
 5150 0100 03       		.uleb128 0x3
 5151 0101 0E       		.uleb128 0xe
 5152 0102 3A       		.uleb128 0x3a
 5153 0103 0B       		.uleb128 0xb
 5154 0104 3B       		.uleb128 0x3b
 5155 0105 05       		.uleb128 0x5
 5156 0106 49       		.uleb128 0x49
 5157 0107 13       		.uleb128 0x13
 5158 0108 02       		.uleb128 0x2
 5159 0109 18       		.uleb128 0x18
 5160 010a 00       		.byte	0
 5161 010b 00       		.byte	0
 5162 010c 16       		.uleb128 0x16
 5163 010d 05       		.uleb128 0x5
 5164 010e 00       		.byte	0
 5165 010f 03       		.uleb128 0x3
 5166 0110 08       		.uleb128 0x8
 5167 0111 3A       		.uleb128 0x3a
 5168 0112 0B       		.uleb128 0xb
 5169 0113 3B       		.uleb128 0x3b
 5170 0114 05       		.uleb128 0x5
 5171 0115 49       		.uleb128 0x49
 5172 0116 13       		.uleb128 0x13
 5173 0117 02       		.uleb128 0x2
 5174 0118 18       		.uleb128 0x18
 5175 0119 00       		.byte	0
ARM GAS  C:\Users\EDULU~1.DES\AppData\Local\Temp\ccyhp2HA.s 			page 137


 5176 011a 00       		.byte	0
 5177 011b 17       		.uleb128 0x17
 5178 011c 34       		.uleb128 0x34
 5179 011d 00       		.byte	0
 5180 011e 03       		.uleb128 0x3
 5181 011f 08       		.uleb128 0x8
 5182 0120 3A       		.uleb128 0x3a
 5183 0121 0B       		.uleb128 0xb
 5184 0122 3B       		.uleb128 0x3b
 5185 0123 05       		.uleb128 0x5
 5186 0124 49       		.uleb128 0x49
 5187 0125 13       		.uleb128 0x13
 5188 0126 02       		.uleb128 0x2
 5189 0127 18       		.uleb128 0x18
 5190 0128 00       		.byte	0
 5191 0129 00       		.byte	0
 5192 012a 18       		.uleb128 0x18
 5193 012b 34       		.uleb128 0x34
 5194 012c 00       		.byte	0
 5195 012d 03       		.uleb128 0x3
 5196 012e 0E       		.uleb128 0xe
 5197 012f 3A       		.uleb128 0x3a
 5198 0130 0B       		.uleb128 0xb
 5199 0131 3B       		.uleb128 0x3b
 5200 0132 05       		.uleb128 0x5
 5201 0133 49       		.uleb128 0x49
 5202 0134 13       		.uleb128 0x13
 5203 0135 02       		.uleb128 0x2
 5204 0136 18       		.uleb128 0x18
 5205 0137 00       		.byte	0
 5206 0138 00       		.byte	0
 5207 0139 19       		.uleb128 0x19
 5208 013a 2E       		.uleb128 0x2e
 5209 013b 01       		.byte	0x1
 5210 013c 3F       		.uleb128 0x3f
 5211 013d 19       		.uleb128 0x19
 5212 013e 03       		.uleb128 0x3
 5213 013f 0E       		.uleb128 0xe
 5214 0140 3A       		.uleb128 0x3a
 5215 0141 0B       		.uleb128 0xb
 5216 0142 3B       		.uleb128 0x3b
 5217 0143 05       		.uleb128 0x5
 5218 0144 27       		.uleb128 0x27
 5219 0145 19       		.uleb128 0x19
 5220 0146 49       		.uleb128 0x49
 5221 0147 13       		.uleb128 0x13
 5222 0148 11       		.uleb128 0x11
 5223 0149 01       		.uleb128 0x1
 5224 014a 12       		.uleb128 0x12
 5225 014b 06       		.uleb128 0x6
 5226 014c 40       		.uleb128 0x40
 5227 014d 18       		.uleb128 0x18
 5228 014e 9642     		.uleb128 0x2116
 5229 0150 19       		.uleb128 0x19
 5230 0151 01       		.uleb128 0x1
 5231 0152 13       		.uleb128 0x13
 5232 0153 00       		.byte	0
ARM GAS  C:\Users\EDULU~1.DES\AppData\Local\Temp\ccyhp2HA.s 			page 138


 5233 0154 00       		.byte	0
 5234 0155 1A       		.uleb128 0x1a
 5235 0156 2E       		.uleb128 0x2e
 5236 0157 01       		.byte	0x1
 5237 0158 3F       		.uleb128 0x3f
 5238 0159 19       		.uleb128 0x19
 5239 015a 03       		.uleb128 0x3
 5240 015b 0E       		.uleb128 0xe
 5241 015c 3A       		.uleb128 0x3a
 5242 015d 0B       		.uleb128 0xb
 5243 015e 3B       		.uleb128 0x3b
 5244 015f 05       		.uleb128 0x5
 5245 0160 27       		.uleb128 0x27
 5246 0161 19       		.uleb128 0x19
 5247 0162 11       		.uleb128 0x11
 5248 0163 01       		.uleb128 0x1
 5249 0164 12       		.uleb128 0x12
 5250 0165 06       		.uleb128 0x6
 5251 0166 40       		.uleb128 0x40
 5252 0167 18       		.uleb128 0x18
 5253 0168 9642     		.uleb128 0x2116
 5254 016a 19       		.uleb128 0x19
 5255 016b 01       		.uleb128 0x1
 5256 016c 13       		.uleb128 0x13
 5257 016d 00       		.byte	0
 5258 016e 00       		.byte	0
 5259 016f 1B       		.uleb128 0x1b
 5260 0170 2E       		.uleb128 0x2e
 5261 0171 01       		.byte	0x1
 5262 0172 3F       		.uleb128 0x3f
 5263 0173 19       		.uleb128 0x19
 5264 0174 03       		.uleb128 0x3
 5265 0175 0E       		.uleb128 0xe
 5266 0176 3A       		.uleb128 0x3a
 5267 0177 0B       		.uleb128 0xb
 5268 0178 3B       		.uleb128 0x3b
 5269 0179 05       		.uleb128 0x5
 5270 017a 27       		.uleb128 0x27
 5271 017b 19       		.uleb128 0x19
 5272 017c 11       		.uleb128 0x11
 5273 017d 01       		.uleb128 0x1
 5274 017e 12       		.uleb128 0x12
 5275 017f 06       		.uleb128 0x6
 5276 0180 40       		.uleb128 0x40
 5277 0181 18       		.uleb128 0x18
 5278 0182 9742     		.uleb128 0x2117
 5279 0184 19       		.uleb128 0x19
 5280 0185 01       		.uleb128 0x1
 5281 0186 13       		.uleb128 0x13
 5282 0187 00       		.byte	0
 5283 0188 00       		.byte	0
 5284 0189 1C       		.uleb128 0x1c
 5285 018a 34       		.uleb128 0x34
 5286 018b 00       		.byte	0
 5287 018c 03       		.uleb128 0x3
 5288 018d 0E       		.uleb128 0xe
 5289 018e 3A       		.uleb128 0x3a
ARM GAS  C:\Users\EDULU~1.DES\AppData\Local\Temp\ccyhp2HA.s 			page 139


 5290 018f 0B       		.uleb128 0xb
 5291 0190 3B       		.uleb128 0x3b
 5292 0191 05       		.uleb128 0x5
 5293 0192 49       		.uleb128 0x49
 5294 0193 13       		.uleb128 0x13
 5295 0194 3F       		.uleb128 0x3f
 5296 0195 19       		.uleb128 0x19
 5297 0196 3C       		.uleb128 0x3c
 5298 0197 19       		.uleb128 0x19
 5299 0198 00       		.byte	0
 5300 0199 00       		.byte	0
 5301 019a 1D       		.uleb128 0x1d
 5302 019b 26       		.uleb128 0x26
 5303 019c 00       		.byte	0
 5304 019d 49       		.uleb128 0x49
 5305 019e 13       		.uleb128 0x13
 5306 019f 00       		.byte	0
 5307 01a0 00       		.byte	0
 5308 01a1 00       		.byte	0
 5309              		.section	.debug_aranges,"",%progbits
 5310 0000 AC000000 		.4byte	0xac
 5311 0004 0200     		.2byte	0x2
 5312 0006 00000000 		.4byte	.Ldebug_info0
 5313 000a 04       		.byte	0x4
 5314 000b 00       		.byte	0
 5315 000c 0000     		.2byte	0
 5316 000e 0000     		.2byte	0
 5317 0010 00000000 		.4byte	.LFB1
 5318 0014 60010000 		.4byte	.LFE1-.LFB1
 5319 0018 00000000 		.4byte	.LFB2
 5320 001c 28020000 		.4byte	.LFE2-.LFB2
 5321 0020 00000000 		.4byte	.LFB3
 5322 0024 7C000000 		.4byte	.LFE3-.LFB3
 5323 0028 00000000 		.4byte	.LFB4
 5324 002c 74000000 		.4byte	.LFE4-.LFB4
 5325 0030 00000000 		.4byte	.LFB5
 5326 0034 78000000 		.4byte	.LFE5-.LFB5
 5327 0038 00000000 		.4byte	.LFB6
 5328 003c 7C000000 		.4byte	.LFE6-.LFB6
 5329 0040 00000000 		.4byte	.LFB7
 5330 0044 B0010000 		.4byte	.LFE7-.LFB7
 5331 0048 00000000 		.4byte	.LFB8
 5332 004c 5C000000 		.4byte	.LFE8-.LFB8
 5333 0050 00000000 		.4byte	.LFB9
 5334 0054 70000000 		.4byte	.LFE9-.LFB9
 5335 0058 00000000 		.4byte	.LFB10
 5336 005c 0C010000 		.4byte	.LFE10-.LFB10
 5337 0060 00000000 		.4byte	.LFB11
 5338 0064 4C000000 		.4byte	.LFE11-.LFB11
 5339 0068 00000000 		.4byte	.LFB12
 5340 006c 40000000 		.4byte	.LFE12-.LFB12
 5341 0070 00000000 		.4byte	.LFB13
 5342 0074 6C000000 		.4byte	.LFE13-.LFB13
 5343 0078 00000000 		.4byte	.LFB14
 5344 007c 34000000 		.4byte	.LFE14-.LFB14
 5345 0080 00000000 		.4byte	.LFB15
 5346 0084 1C010000 		.4byte	.LFE15-.LFB15
ARM GAS  C:\Users\EDULU~1.DES\AppData\Local\Temp\ccyhp2HA.s 			page 140


 5347 0088 00000000 		.4byte	.LFB16
 5348 008c 3C010000 		.4byte	.LFE16-.LFB16
 5349 0090 00000000 		.4byte	.LFB17
 5350 0094 28000000 		.4byte	.LFE17-.LFB17
 5351 0098 00000000 		.4byte	.LFB18
 5352 009c 40010000 		.4byte	.LFE18-.LFB18
 5353 00a0 00000000 		.4byte	.LFB19
 5354 00a4 38010000 		.4byte	.LFE19-.LFB19
 5355 00a8 00000000 		.4byte	0
 5356 00ac 00000000 		.4byte	0
 5357              		.section	.debug_ranges,"",%progbits
 5358              	.Ldebug_ranges0:
 5359 0000 00000000 		.4byte	.LFB1
 5360 0004 60010000 		.4byte	.LFE1
 5361 0008 00000000 		.4byte	.LFB2
 5362 000c 28020000 		.4byte	.LFE2
 5363 0010 00000000 		.4byte	.LFB3
 5364 0014 7C000000 		.4byte	.LFE3
 5365 0018 00000000 		.4byte	.LFB4
 5366 001c 74000000 		.4byte	.LFE4
 5367 0020 00000000 		.4byte	.LFB5
 5368 0024 78000000 		.4byte	.LFE5
 5369 0028 00000000 		.4byte	.LFB6
 5370 002c 7C000000 		.4byte	.LFE6
 5371 0030 00000000 		.4byte	.LFB7
 5372 0034 B0010000 		.4byte	.LFE7
 5373 0038 00000000 		.4byte	.LFB8
 5374 003c 5C000000 		.4byte	.LFE8
 5375 0040 00000000 		.4byte	.LFB9
 5376 0044 70000000 		.4byte	.LFE9
 5377 0048 00000000 		.4byte	.LFB10
 5378 004c 0C010000 		.4byte	.LFE10
 5379 0050 00000000 		.4byte	.LFB11
 5380 0054 4C000000 		.4byte	.LFE11
 5381 0058 00000000 		.4byte	.LFB12
 5382 005c 40000000 		.4byte	.LFE12
 5383 0060 00000000 		.4byte	.LFB13
 5384 0064 6C000000 		.4byte	.LFE13
 5385 0068 00000000 		.4byte	.LFB14
 5386 006c 34000000 		.4byte	.LFE14
 5387 0070 00000000 		.4byte	.LFB15
 5388 0074 1C010000 		.4byte	.LFE15
 5389 0078 00000000 		.4byte	.LFB16
 5390 007c 3C010000 		.4byte	.LFE16
 5391 0080 00000000 		.4byte	.LFB17
 5392 0084 28000000 		.4byte	.LFE17
 5393 0088 00000000 		.4byte	.LFB18
 5394 008c 40010000 		.4byte	.LFE18
 5395 0090 00000000 		.4byte	.LFB19
 5396 0094 38010000 		.4byte	.LFE19
 5397 0098 00000000 		.4byte	0
 5398 009c 00000000 		.4byte	0
 5399              		.section	.debug_line,"",%progbits
 5400              	.Ldebug_line0:
 5401 0000 40040000 		.section	.debug_str,"MS",%progbits,1
 5401      0200CD00 
 5401      00000201 
ARM GAS  C:\Users\EDULU~1.DES\AppData\Local\Temp\ccyhp2HA.s 			page 141


 5401      FB0E0D00 
 5401      01010101 
 5402              	.LASF238:
 5403 0000 6F735F74 		.ascii	"os_tcb\000"
 5403      636200
 5404              	.LASF265:
 5405 0007 4F535461 		.ascii	"OSTaskCreate\000"
 5405      736B4372 
 5405      65617465 
 5405      00
 5406              	.LASF108:
 5407 0014 4F535F45 		.ascii	"OS_ERR_PRIO_INVALID\000"
 5407      52525F50 
 5407      52494F5F 
 5407      494E5641 
 5407      4C494400 
 5408              	.LASF201:
 5409 0028 4F535F45 		.ascii	"OS_ERR\000"
 5409      525200
 5410              	.LASF25:
 5411 002f 4F535F43 		.ascii	"OS_CTX_SW_CTR\000"
 5411      54585F53 
 5411      575F4354 
 5411      5200
 5412              	.LASF187:
 5413 003d 4F535F45 		.ascii	"OS_ERR_TMR_ISR\000"
 5413      52525F54 
 5413      4D525F49 
 5413      535200
 5414              	.LASF174:
 5415 004c 4F535F45 		.ascii	"OS_ERR_TIME_INVALID_MINUTES\000"
 5415      52525F54 
 5415      494D455F 
 5415      494E5641 
 5415      4C49445F 
 5416              	.LASF41:
 5417 0068 4F535F45 		.ascii	"OS_ERR_A\000"
 5417      52525F41 
 5417      00
 5418              	.LASF43:
 5419 0071 4F535F45 		.ascii	"OS_ERR_B\000"
 5419      52525F42 
 5419      00
 5420              	.LASF44:
 5421 007a 4F535F45 		.ascii	"OS_ERR_C\000"
 5421      52525F43 
 5421      00
 5422              	.LASF46:
 5423 0083 4F535F45 		.ascii	"OS_ERR_D\000"
 5423      52525F44 
 5423      00
 5424              	.LASF48:
 5425 008c 4F535F45 		.ascii	"OS_ERR_E\000"
 5425      52525F45 
 5425      00
 5426              	.LASF49:
 5427 0095 4F535F45 		.ascii	"OS_ERR_F\000"
ARM GAS  C:\Users\EDULU~1.DES\AppData\Local\Temp\ccyhp2HA.s 			page 142


 5427      52525F46 
 5427      00
 5428              	.LASF55:
 5429 009e 4F535F45 		.ascii	"OS_ERR_G\000"
 5429      52525F47 
 5429      00
 5430              	.LASF56:
 5431 00a7 4F535F45 		.ascii	"OS_ERR_H\000"
 5431      52525F48 
 5431      00
 5432              	.LASF57:
 5433 00b0 4F535F45 		.ascii	"OS_ERR_I\000"
 5433      52525F49 
 5433      00
 5434              	.LASF64:
 5435 00b9 4F535F45 		.ascii	"OS_ERR_J\000"
 5435      52525F4A 
 5435      00
 5436              	.LASF65:
 5437 00c2 4F535F45 		.ascii	"OS_ERR_K\000"
 5437      52525F4B 
 5437      00
 5438              	.LASF66:
 5439 00cb 4F535F45 		.ascii	"OS_ERR_L\000"
 5439      52525F4C 
 5439      00
 5440              	.LASF68:
 5441 00d4 4F535F45 		.ascii	"OS_ERR_M\000"
 5441      52525F4D 
 5441      00
 5442              	.LASF84:
 5443 00dd 4F535F45 		.ascii	"OS_ERR_N\000"
 5443      52525F4E 
 5443      00
 5444              	.LASF87:
 5445 00e6 4F535F45 		.ascii	"OS_ERR_O\000"
 5445      52525F4F 
 5445      00
 5446              	.LASF95:
 5447 00ef 4F535F45 		.ascii	"OS_ERR_P\000"
 5447      52525F50 
 5447      00
 5448              	.LASF110:
 5449 00f8 4F535F45 		.ascii	"OS_ERR_Q\000"
 5449      52525F51 
 5449      00
 5450              	.LASF115:
 5451 0101 4F535F45 		.ascii	"OS_ERR_R\000"
 5451      52525F52 
 5451      00
 5452              	.LASF119:
 5453 010a 4F535F45 		.ascii	"OS_ERR_S\000"
 5453      52525F53 
 5453      00
 5454              	.LASF136:
 5455 0113 4F535F45 		.ascii	"OS_ERR_T\000"
 5455      52525F54 
ARM GAS  C:\Users\EDULU~1.DES\AppData\Local\Temp\ccyhp2HA.s 			page 143


 5455      00
 5456              	.LASF194:
 5457 011c 4F535F45 		.ascii	"OS_ERR_U\000"
 5457      52525F55 
 5457      00
 5458              	.LASF195:
 5459 0125 4F535F45 		.ascii	"OS_ERR_V\000"
 5459      52525F56 
 5459      00
 5460              	.LASF196:
 5461 012e 4F535F45 		.ascii	"OS_ERR_W\000"
 5461      52525F57 
 5461      00
 5462              	.LASF197:
 5463 0137 4F535F45 		.ascii	"OS_ERR_X\000"
 5463      52525F58 
 5463      00
 5464              	.LASF184:
 5465 0140 4F535F45 		.ascii	"OS_ERR_TMR_INVALID_PERIOD\000"
 5465      52525F54 
 5465      4D525F49 
 5465      4E56414C 
 5465      49445F50 
 5466              	.LASF320:
 5467 015a 6F735F65 		.ascii	"os_err\000"
 5467      727200
 5468              	.LASF262:
 5469 0161 73656C66 		.ascii	"self\000"
 5469      00
 5470              	.LASF241:
 5471 0166 4E627245 		.ascii	"NbrEntries\000"
 5471      6E747269 
 5471      657300
 5472              	.LASF61:
 5473 0171 4F535F45 		.ascii	"OS_ERR_INT_Q_SIZE\000"
 5473      52525F49 
 5473      4E545F51 
 5473      5F53495A 
 5473      4500
 5474              	.LASF45:
 5475 0183 4F535F45 		.ascii	"OS_ERR_CREATE_ISR\000"
 5475      52525F43 
 5475      52454154 
 5475      455F4953 
 5475      5200
 5476              	.LASF168:
 5477 0195 4F535F45 		.ascii	"OS_ERR_TICK_STK_SIZE_INVALID\000"
 5477      52525F54 
 5477      49434B5F 
 5477      53544B5F 
 5477      53495A45 
 5478              	.LASF9:
 5479 01b2 4350555F 		.ascii	"CPU_INT32U\000"
 5479      494E5433 
 5479      325500
 5480              	.LASF314:
 5481 01bd 4F535443 		.ascii	"OSTCBCurPtr\000"
ARM GAS  C:\Users\EDULU~1.DES\AppData\Local\Temp\ccyhp2HA.s 			page 144


 5481      42437572 
 5481      50747200 
 5482              	.LASF133:
 5483 01c9 4F535F45 		.ascii	"OS_ERR_STK_INVALID\000"
 5483      52525F53 
 5483      544B5F49 
 5483      4E56414C 
 5483      494400
 5484              	.LASF276:
 5485 01dc 7265675F 		.ascii	"reg_nbr\000"
 5485      6E627200 
 5486              	.LASF149:
 5487 01e4 4F535F45 		.ascii	"OS_ERR_TASK_RESUME_ISR\000"
 5487      52525F54 
 5487      41534B5F 
 5487      52455355 
 5487      4D455F49 
 5488              	.LASF103:
 5489 01fb 4F535F45 		.ascii	"OS_ERR_PEND_WOULD_BLOCK\000"
 5489      52525F50 
 5489      454E445F 
 5489      574F554C 
 5489      445F424C 
 5490              	.LASF137:
 5491 0213 4F535F45 		.ascii	"OS_ERR_TASK_CHANGE_PRIO_ISR\000"
 5491      52525F54 
 5491      41534B5F 
 5491      4348414E 
 5491      47455F50 
 5492              	.LASF127:
 5493 022f 4F535F45 		.ascii	"OS_ERR_STAT_RESET_ISR\000"
 5493      52525F53 
 5493      5441545F 
 5493      52455345 
 5493      545F4953 
 5494              	.LASF102:
 5495 0245 4F535F45 		.ascii	"OS_ERR_PEND_LOCKED\000"
 5495      52525F50 
 5495      454E445F 
 5495      4C4F434B 
 5495      454400
 5496              	.LASF317:
 5497 0258 474E5520 		.ascii	"GNU C11 5.4.1 20160609 (release) [ARM/embedded-5-br"
 5497      43313120 
 5497      352E342E 
 5497      31203230 
 5497      31363036 
 5498 028b 616E6368 		.ascii	"anch revision 237715] -mcpu=cortex-m0 -mthumb -g -O"
 5498      20726576 
 5498      6973696F 
 5498      6E203233 
 5498      37373135 
 5499 02be 30202D66 		.ascii	"0 -ffunction-sections -ffat-lto-objects\000"
 5499      66756E63 
 5499      74696F6E 
 5499      2D736563 
 5499      74696F6E 
ARM GAS  C:\Users\EDULU~1.DES\AppData\Local\Temp\ccyhp2HA.s 			page 145


 5500              	.LASF287:
 5501 02e6 4F535461 		.ascii	"OSTaskSemPost\000"
 5501      736B5365 
 5501      6D506F73 
 5501      7400
 5502              	.LASF147:
 5503 02f4 4F535F45 		.ascii	"OS_ERR_TASK_NOT_SUSPENDED\000"
 5503      52525F54 
 5503      41534B5F 
 5503      4E4F545F 
 5503      53555350 
 5504              	.LASF145:
 5505 030e 4F535F45 		.ascii	"OS_ERR_TASK_NOT_DLY\000"
 5505      52525F54 
 5505      41534B5F 
 5505      4E4F545F 
 5505      444C5900 
 5506              	.LASF234:
 5507 0322 44626750 		.ascii	"DbgPrevPtr\000"
 5507      72657650 
 5507      747200
 5508              	.LASF59:
 5509 032d 4F535F45 		.ascii	"OS_ERR_INT_Q\000"
 5509      52525F49 
 5509      4E545F51 
 5509      00
 5510              	.LASF235:
 5511 033a 4462674E 		.ascii	"DbgNextPtr\000"
 5511      65787450 
 5511      747200
 5512              	.LASF291:
 5513 0345 705F7573 		.ascii	"p_used\000"
 5513      656400
 5514              	.LASF159:
 5515 034c 4F535F45 		.ascii	"OS_ERR_TASK_WAITING\000"
 5515      52525F54 
 5515      41534B5F 
 5515      57414954 
 5515      494E4700 
 5516              	.LASF42:
 5517 0360 4F535F45 		.ascii	"OS_ERR_ACCEPT_ISR\000"
 5517      52525F41 
 5517      43434550 
 5517      545F4953 
 5517      5200
 5518              	.LASF157:
 5519 0372 4F535F45 		.ascii	"OS_ERR_TASK_SUSPEND_ISR\000"
 5519      52525F54 
 5519      41534B5F 
 5519      53555350 
 5519      454E445F 
 5520              	.LASF83:
 5521 038a 4F535F45 		.ascii	"OS_ERR_MUTEX_NESTING\000"
 5521      52525F4D 
 5521      55544558 
 5521      5F4E4553 
 5521      54494E47 
ARM GAS  C:\Users\EDULU~1.DES\AppData\Local\Temp\ccyhp2HA.s 			page 146


 5522              	.LASF185:
 5523 039f 4F535F45 		.ascii	"OS_ERR_TMR_INVALID_STATE\000"
 5523      52525F54 
 5523      4D525F49 
 5523      4E56414C 
 5523      49445F53 
 5524              	.LASF217:
 5525 03b8 50656E64 		.ascii	"PendOn\000"
 5525      4F6E00
 5526              	.LASF222:
 5527 03bf 50656E64 		.ascii	"PendDataTblEntries\000"
 5527      44617461 
 5527      54626C45 
 5527      6E747269 
 5527      657300
 5528              	.LASF88:
 5529 03d2 4F535F45 		.ascii	"OS_ERR_OBJ_CREATED\000"
 5529      52525F4F 
 5529      424A5F43 
 5529      52454154 
 5529      454400
 5530              	.LASF254:
 5531 03e5 5461696C 		.ascii	"TailPtr\000"
 5531      50747200 
 5532              	.LASF155:
 5533 03ed 4F535F45 		.ascii	"OS_ERR_TASK_SUSPEND_IDLE\000"
 5533      52525F54 
 5533      41534B5F 
 5533      53555350 
 5533      454E445F 
 5534              	.LASF60:
 5535 0406 4F535F45 		.ascii	"OS_ERR_INT_Q_FULL\000"
 5535      52525F49 
 5535      4E545F51 
 5535      5F46554C 
 5535      4C00
 5536              	.LASF225:
 5537 0418 5469636B 		.ascii	"TickCtrMatch\000"
 5537      4374724D 
 5537      61746368 
 5537      00
 5538              	.LASF248:
 5539 0425 5264794D 		.ascii	"RdyMsgPtr\000"
 5539      73675074 
 5539      7200
 5540              	.LASF256:
 5541 042f 6F735F70 		.ascii	"os_pend_obj\000"
 5541      656E645F 
 5541      6F626A00 
 5542              	.LASF292:
 5543 043b 66726565 		.ascii	"free_stk\000"
 5543      5F73746B 
 5543      00
 5544              	.LASF58:
 5545 0444 4F535F45 		.ascii	"OS_ERR_ILLEGAL_CREATE_RUN_TIME\000"
 5545      52525F49 
 5545      4C4C4547 
ARM GAS  C:\Users\EDULU~1.DES\AppData\Local\Temp\ccyhp2HA.s 			page 147


 5545      414C5F43 
 5545      52454154 
 5546              	.LASF183:
 5547 0463 4F535F45 		.ascii	"OS_ERR_TMR_INVALID_DLY\000"
 5547      52525F54 
 5547      4D525F49 
 5547      4E56414C 
 5547      49445F44 
 5548              	.LASF29:
 5549 047a 4F535F4F 		.ascii	"OS_OBJ_QTY\000"
 5549      424A5F51 
 5549      545900
 5550              	.LASF150:
 5551 0485 4F535F45 		.ascii	"OS_ERR_TASK_RESUME_PRIO\000"
 5551      52525F54 
 5551      41534B5F 
 5551      52455355 
 5551      4D455F50 
 5552              	.LASF297:
 5553 049d 705F7463 		.ascii	"p_tcb_next\000"
 5553      625F6E65 
 5553      787400
 5554              	.LASF32:
 5555 04a8 4F535F50 		.ascii	"OS_PRIO\000"
 5555      52494F00 
 5556              	.LASF13:
 5557 04b0 666C6F61 		.ascii	"float\000"
 5557      7400
 5558              	.LASF282:
 5559 04b6 4F535461 		.ascii	"OSTaskRegSet\000"
 5559      736B5265 
 5559      67536574 
 5559      00
 5560              	.LASF283:
 5561 04c3 4F535461 		.ascii	"OSTaskResume\000"
 5561      736B5265 
 5561      73756D65 
 5561      00
 5562              	.LASF104:
 5563 04d0 4F535F45 		.ascii	"OS_ERR_POST_NULL_PTR\000"
 5563      52525F50 
 5563      4F53545F 
 5563      4E554C4C 
 5563      5F505452 
 5564              	.LASF86:
 5565 04e5 4F535F45 		.ascii	"OS_ERR_NO_MORE_ID_AVAIL\000"
 5565      52525F4E 
 5565      4F5F4D4F 
 5565      52455F49 
 5565      445F4156 
 5566              	.LASF237:
 5567 04fd 4F535F54 		.ascii	"OS_TICK_SPOKE\000"
 5567      49434B5F 
 5567      53504F4B 
 5567      4500
 5568              	.LASF76:
 5569 050b 4F535F45 		.ascii	"OS_ERR_MEM_INVALID_P_DATA\000"
ARM GAS  C:\Users\EDULU~1.DES\AppData\Local\Temp\ccyhp2HA.s 			page 148


 5569      52525F4D 
 5569      454D5F49 
 5569      4E56414C 
 5569      49445F50 
 5570              	.LASF263:
 5571 0525 6370755F 		.ascii	"cpu_sr\000"
 5571      737200
 5572              	.LASF188:
 5573 052c 4F535F45 		.ascii	"OS_ERR_TMR_NO_CALLBACK\000"
 5573      52525F54 
 5573      4D525F4E 
 5573      4F5F4341 
 5573      4C4C4241 
 5574              	.LASF181:
 5575 0543 4F535F45 		.ascii	"OS_ERR_TMR_INACTIVE\000"
 5575      52525F54 
 5575      4D525F49 
 5575      4E414354 
 5575      49564500 
 5576              	.LASF161:
 5577 0557 4F535F45 		.ascii	"OS_ERR_TLS_ID_INVALID\000"
 5577      52525F54 
 5577      4C535F49 
 5577      445F494E 
 5577      56414C49 
 5578              	.LASF11:
 5579 056d 6C6F6E67 		.ascii	"long long unsigned int\000"
 5579      206C6F6E 
 5579      6720756E 
 5579      7369676E 
 5579      65642069 
 5580              	.LASF152:
 5581 0584 4F535F45 		.ascii	"OS_ERR_TASK_RUNNING\000"
 5581      52525F54 
 5581      41534B5F 
 5581      52554E4E 
 5581      494E4700 
 5582              	.LASF231:
 5583 0598 53746B55 		.ascii	"StkUsed\000"
 5583      73656400 
 5584              	.LASF186:
 5585 05a0 4F535F45 		.ascii	"OS_ERR_TMR_INVALID\000"
 5585      52525F54 
 5585      4D525F49 
 5585      4E56414C 
 5585      494400
 5586              	.LASF243:
 5587 05b3 4F535F50 		.ascii	"OS_PEND_DATA\000"
 5587      454E445F 
 5587      44415441 
 5587      00
 5588              	.LASF156:
 5589 05c0 4F535F45 		.ascii	"OS_ERR_TASK_SUSPEND_INT_HANDLER\000"
 5589      52525F54 
 5589      41534B5F 
 5589      53555350 
 5589      454E445F 
ARM GAS  C:\Users\EDULU~1.DES\AppData\Local\Temp\ccyhp2HA.s 			page 149


 5590              	.LASF141:
 5591 05e0 4F535F45 		.ascii	"OS_ERR_TASK_DEL_INVALID\000"
 5591      52525F54 
 5591      41534B5F 
 5591      44454C5F 
 5591      494E5641 
 5592              	.LASF191:
 5593 05f8 4F535F45 		.ascii	"OS_ERR_TMR_STK_INVALID\000"
 5593      52525F54 
 5593      4D525F53 
 5593      544B5F49 
 5593      4E56414C 
 5594              	.LASF4:
 5595 060f 4350555F 		.ascii	"CPU_INT08U\000"
 5595      494E5430 
 5595      385500
 5596              	.LASF160:
 5597 061a 4F535F45 		.ascii	"OS_ERR_TCB_INVALID\000"
 5597      52525F54 
 5597      43425F49 
 5597      4E56414C 
 5597      494400
 5598              	.LASF221:
 5599 062d 53746B53 		.ascii	"StkSize\000"
 5599      697A6500 
 5600              	.LASF213:
 5601 0635 53746B42 		.ascii	"StkBasePtr\000"
 5601      61736550 
 5601      747200
 5602              	.LASF279:
 5603 0640 76616C75 		.ascii	"value\000"
 5603      6500
 5604              	.LASF112:
 5605 0646 4F535F45 		.ascii	"OS_ERR_Q_EMPTY\000"
 5605      52525F51 
 5605      5F454D50 
 5605      545900
 5606              	.LASF176:
 5607 0655 4F535F45 		.ascii	"OS_ERR_TIME_INVALID_MILLISECONDS\000"
 5607      52525F54 
 5607      494D455F 
 5607      494E5641 
 5607      4C49445F 
 5608              	.LASF34:
 5609 0676 4F535F52 		.ascii	"OS_REG\000"
 5609      454700
 5610              	.LASF85:
 5611 067d 4F535F45 		.ascii	"OS_ERR_NAME\000"
 5611      52525F4E 
 5611      414D4500 
 5612              	.LASF306:
 5613 0689 4F534964 		.ascii	"OSIdleTaskTCB\000"
 5613      6C655461 
 5613      736B5443 
 5613      4200
 5614              	.LASF38:
 5615 0697 4F535F53 		.ascii	"OS_STATUS\000"
ARM GAS  C:\Users\EDULU~1.DES\AppData\Local\Temp\ccyhp2HA.s 			page 150


 5615      54415455 
 5615      5300
 5616              	.LASF219:
 5617 06a1 5461736B 		.ascii	"TaskState\000"
 5617      53746174 
 5617      6500
 5618              	.LASF288:
 5619 06ab 4F535461 		.ascii	"OSTaskSemSet\000"
 5619      736B5365 
 5619      6D536574 
 5619      00
 5620              	.LASF165:
 5621 06b8 4F535F45 		.ascii	"OS_ERR_TLS_DESTRUCT_ASSIGNED\000"
 5621      52525F54 
 5621      4C535F44 
 5621      45535452 
 5621      5543545F 
 5622              	.LASF81:
 5623 06d5 4F535F45 		.ascii	"OS_ERR_MUTEX_NOT_OWNER\000"
 5623      52525F4D 
 5623      55544558 
 5623      5F4E4F54 
 5623      5F4F574E 
 5624              	.LASF27:
 5625 06ec 4F535F4D 		.ascii	"OS_MSG_SIZE\000"
 5625      53475F53 
 5625      495A4500 
 5626              	.LASF173:
 5627 06f8 4F535F45 		.ascii	"OS_ERR_TIME_INVALID_HOURS\000"
 5627      52525F54 
 5627      494D455F 
 5627      494E5641 
 5627      4C49445F 
 5628              	.LASF189:
 5629 0712 4F535F45 		.ascii	"OS_ERR_TMR_NON_AVAIL\000"
 5629      52525F54 
 5629      4D525F4E 
 5629      4F4E5F41 
 5629      5641494C 
 5630              	.LASF0:
 5631 0727 4350555F 		.ascii	"CPU_CHAR\000"
 5631      43484152 
 5631      00
 5632              	.LASF138:
 5633 0730 4F535F45 		.ascii	"OS_ERR_TASK_CREATE_ISR\000"
 5633      52525F54 
 5633      41534B5F 
 5633      43524541 
 5633      54455F49 
 5634              	.LASF17:
 5635 0747 4350555F 		.ascii	"CPU_STK_SIZE\000"
 5635      53544B5F 
 5635      53495A45 
 5635      00
 5636              	.LASF290:
 5637 0754 705F6672 		.ascii	"p_free\000"
 5637      656500
ARM GAS  C:\Users\EDULU~1.DES\AppData\Local\Temp\ccyhp2HA.s 			page 151


 5638              	.LASF26:
 5639 075b 4F535F4D 		.ascii	"OS_MSG_QTY\000"
 5639      53475F51 
 5639      545900
 5640              	.LASF94:
 5641 0766 4F535F45 		.ascii	"OS_ERR_OS_RUNNING\000"
 5641      52525F4F 
 5641      535F5255 
 5641      4E4E494E 
 5641      4700
 5642              	.LASF232:
 5643 0778 53746B46 		.ascii	"StkFree\000"
 5643      72656500 
 5644              	.LASF224:
 5645 0780 5469636B 		.ascii	"TickCtrPrev\000"
 5645      43747250 
 5645      72657600 
 5646              	.LASF179:
 5647 078c 4F535F45 		.ascii	"OS_ERR_TIME_ZERO_DLY\000"
 5647      52525F54 
 5647      494D455F 
 5647      5A45524F 
 5647      5F444C59 
 5648              	.LASF301:
 5649 07a1 7265675F 		.ascii	"reg_id\000"
 5649      696400
 5650              	.LASF210:
 5651 07a8 5469636B 		.ascii	"TickPrevPtr\000"
 5651      50726576 
 5651      50747200 
 5652              	.LASF293:
 5653 07b4 705F7374 		.ascii	"p_stk\000"
 5653      6B00
 5654              	.LASF129:
 5655 07ba 4F535F45 		.ascii	"OS_ERR_STAT_STK_INVALID\000"
 5655      52525F53 
 5655      5441545F 
 5655      53544B5F 
 5655      494E5641 
 5656              	.LASF51:
 5657 07d2 4F535F45 		.ascii	"OS_ERR_FLAG_GRP_DEPLETED\000"
 5657      52525F46 
 5657      4C41475F 
 5657      4752505F 
 5657      4445504C 
 5658              	.LASF72:
 5659 07eb 4F535F45 		.ascii	"OS_ERR_MEM_INVALID_BLKS\000"
 5659      52525F4D 
 5659      454D5F49 
 5659      4E56414C 
 5659      49445F42 
 5660              	.LASF261:
 5661 0803 705F6572 		.ascii	"p_err\000"
 5661      7200
 5662              	.LASF308:
 5663 0809 4F535275 		.ascii	"OSRunning\000"
 5663      6E6E696E 
ARM GAS  C:\Users\EDULU~1.DES\AppData\Local\Temp\ccyhp2HA.s 			page 152


 5663      6700
 5664              	.LASF266:
 5665 0813 705F6E61 		.ascii	"p_name\000"
 5665      6D6500
 5666              	.LASF182:
 5667 081a 4F535F45 		.ascii	"OS_ERR_TMR_INVALID_DEST\000"
 5667      52525F54 
 5667      4D525F49 
 5667      4E56414C 
 5667      49445F44 
 5668              	.LASF310:
 5669 0832 4F535461 		.ascii	"OSTaskCtxSwCtr\000"
 5669      736B4374 
 5669      78537743 
 5669      747200
 5670              	.LASF269:
 5671 0841 7072696F 		.ascii	"prio\000"
 5671      00
 5672              	.LASF121:
 5673 0846 4F535F45 		.ascii	"OS_ERR_SCHED_LOCK_ISR\000"
 5673      52525F53 
 5673      43484544 
 5673      5F4C4F43 
 5673      4B5F4953 
 5674              	.LASF47:
 5675 085c 4F535F45 		.ascii	"OS_ERR_DEL_ISR\000"
 5675      52525F44 
 5675      454C5F49 
 5675      535200
 5676              	.LASF113:
 5677 086b 4F535F45 		.ascii	"OS_ERR_Q_MAX\000"
 5677      52525F51 
 5677      5F4D4158 
 5677      00
 5678              	.LASF208:
 5679 0878 50726576 		.ascii	"PrevPtr\000"
 5679      50747200 
 5680              	.LASF2:
 5681 0880 63686172 		.ascii	"char\000"
 5681      00
 5682              	.LASF30:
 5683 0885 4F535F4F 		.ascii	"OS_OBJ_TYPE\000"
 5683      424A5F54 
 5683      59504500 
 5684              	.LASF278:
 5685 0891 705F7374 		.ascii	"p_stk_limit\000"
 5685      6B5F6C69 
 5685      6D697400 
 5686              	.LASF164:
 5687 089d 4F535F45 		.ascii	"OS_ERR_TLS_NOT_EN\000"
 5687      52525F54 
 5687      4C535F4E 
 5687      4F545F45 
 5687      4E00
 5688              	.LASF92:
 5689 08af 4F535F45 		.ascii	"OS_ERR_OPT_INVALID\000"
 5689      52525F4F 
ARM GAS  C:\Users\EDULU~1.DES\AppData\Local\Temp\ccyhp2HA.s 			page 153


 5689      50545F49 
 5689      4E56414C 
 5689      494400
 5690              	.LASF18:
 5691 08c2 4350555F 		.ascii	"CPU_SR\000"
 5691      535200
 5692              	.LASF274:
 5693 08c9 74696D65 		.ascii	"time_quanta\000"
 5693      5F717561 
 5693      6E746100 
 5694              	.LASF120:
 5695 08d5 4F535F45 		.ascii	"OS_ERR_SCHED_INVALID_TIME_SLICE\000"
 5695      52525F53 
 5695      43484544 
 5695      5F494E56 
 5695      414C4944 
 5696              	.LASF281:
 5697 08f5 4F535461 		.ascii	"OSTaskRegGetID\000"
 5697      736B5265 
 5697      67476574 
 5697      494400
 5698              	.LASF33:
 5699 0904 4F535F52 		.ascii	"OS_RATE_HZ\000"
 5699      4154455F 
 5699      485A00
 5700              	.LASF214:
 5701 090f 5461736B 		.ascii	"TaskEntryAddr\000"
 5701      456E7472 
 5701      79416464 
 5701      7200
 5702              	.LASF128:
 5703 091d 4F535F45 		.ascii	"OS_ERR_STAT_PRIO_INVALID\000"
 5703      52525F53 
 5703      5441545F 
 5703      5052494F 
 5703      5F494E56 
 5704              	.LASF177:
 5705 0936 4F535F45 		.ascii	"OS_ERR_TIME_NOT_DLY\000"
 5705      52525F54 
 5705      494D455F 
 5705      4E4F545F 
 5705      444C5900 
 5706              	.LASF280:
 5707 094a 4F535461 		.ascii	"OSTaskRegGet\000"
 5707      736B5265 
 5707      67476574 
 5707      00
 5708              	.LASF212:
 5709 0957 4E616D65 		.ascii	"NamePtr\000"
 5709      50747200 
 5710              	.LASF218:
 5711 095f 50656E64 		.ascii	"PendStatus\000"
 5711      53746174 
 5711      757300
 5712              	.LASF228:
 5713 096a 54696D65 		.ascii	"TimeQuantaCtr\000"
 5713      5175616E 
ARM GAS  C:\Users\EDULU~1.DES\AppData\Local\Temp\ccyhp2HA.s 			page 154


 5713      74614374 
 5713      7200
 5714              	.LASF271:
 5715 0978 73746B5F 		.ascii	"stk_limit\000"
 5715      6C696D69 
 5715      7400
 5716              	.LASF199:
 5717 0982 4F535F45 		.ascii	"OS_ERR_YIELD_ISR\000"
 5717      52525F59 
 5717      49454C44 
 5717      5F495352 
 5717      00
 5718              	.LASF89:
 5719 0993 4F535F45 		.ascii	"OS_ERR_OBJ_DEL\000"
 5719      52525F4F 
 5719      424A5F44 
 5719      454C00
 5720              	.LASF24:
 5721 09a2 4350555F 		.ascii	"CPU_TS\000"
 5721      545300
 5722              	.LASF12:
 5723 09a9 6C6F6E67 		.ascii	"long long int\000"
 5723      206C6F6E 
 5723      6720696E 
 5723      7400
 5724              	.LASF53:
 5725 09b7 4F535F45 		.ascii	"OS_ERR_FLAG_PEND_OPT\000"
 5725      52525F46 
 5725      4C41475F 
 5725      50454E44 
 5725      5F4F5054 
 5726              	.LASF204:
 5727 09cc 53746B50 		.ascii	"StkPtr\000"
 5727      747200
 5728              	.LASF239:
 5729 09d3 6F735F74 		.ascii	"os_tick_spoke\000"
 5729      69636B5F 
 5729      73706F6B 
 5729      6500
 5730              	.LASF277:
 5731 09e1 705F7370 		.ascii	"p_sp\000"
 5731      00
 5732              	.LASF114:
 5733 09e6 4F535F45 		.ascii	"OS_ERR_Q_SIZE\000"
 5733      52525F51 
 5733      5F53495A 
 5733      4500
 5734              	.LASF313:
 5735 09f4 4F535461 		.ascii	"OSTaskRegNextAvailID\000"
 5735      736B5265 
 5735      674E6578 
 5735      74417661 
 5735      696C4944 
 5736              	.LASF312:
 5737 0a09 4F535461 		.ascii	"OSTaskQty\000"
 5737      736B5174 
 5737      7900
ARM GAS  C:\Users\EDULU~1.DES\AppData\Local\Temp\ccyhp2HA.s 			page 155


 5738              	.LASF245:
 5739 0a13 54434250 		.ascii	"TCBPtr\000"
 5739      747200
 5740              	.LASF99:
 5741 0a1a 4F535F45 		.ascii	"OS_ERR_PEND_ABORT_SELF\000"
 5741      52525F50 
 5741      454E445F 
 5741      41424F52 
 5741      545F5345 
 5742              	.LASF6:
 5743 0a31 4350555F 		.ascii	"CPU_INT16U\000"
 5743      494E5431 
 5743      365500
 5744              	.LASF118:
 5745 0a3c 4F535F45 		.ascii	"OS_ERR_ROUND_ROBIN_DISABLED\000"
 5745      52525F52 
 5745      4F554E44 
 5745      5F524F42 
 5745      494E5F44 
 5746              	.LASF73:
 5747 0a58 4F535F45 		.ascii	"OS_ERR_MEM_INVALID_PART\000"
 5747      52525F4D 
 5747      454D5F49 
 5747      4E56414C 
 5747      49445F50 
 5748              	.LASF90:
 5749 0a70 4F535F45 		.ascii	"OS_ERR_OBJ_PTR_NULL\000"
 5749      52525F4F 
 5749      424A5F50 
 5749      54525F4E 
 5749      554C4C00 
 5750              	.LASF116:
 5751 0a84 4F535F45 		.ascii	"OS_ERR_REG_ID_INVALID\000"
 5751      52525F52 
 5751      45475F49 
 5751      445F494E 
 5751      56414C49 
 5752              	.LASF39:
 5753 0a9a 4F535F54 		.ascii	"OS_TICK\000"
 5753      49434B00 
 5754              	.LASF70:
 5755 0aa2 4F535F45 		.ascii	"OS_ERR_MEM_FULL\000"
 5755      52525F4D 
 5755      454D5F46 
 5755      554C4C00 
 5756              	.LASF144:
 5757 0ab2 4F535F45 		.ascii	"OS_ERR_TASK_NO_MORE_TCB\000"
 5757      52525F54 
 5757      41534B5F 
 5757      4E4F5F4D 
 5757      4F52455F 
 5758              	.LASF75:
 5759 0aca 4F535F45 		.ascii	"OS_ERR_MEM_INVALID_P_MEM\000"
 5759      52525F4D 
 5759      454D5F49 
 5759      4E56414C 
 5759      49445F50 
ARM GAS  C:\Users\EDULU~1.DES\AppData\Local\Temp\ccyhp2HA.s 			page 156


 5760              	.LASF319:
 5761 0ae3 433A5C55 		.ascii	"C:\\Users\\edulu.DESKTOP-961TG4K\\Documents\\PSoC C"
 5761      73657273 
 5761      5C656475 
 5761      6C752E44 
 5761      45534B54 
 5762 0b12 72656174 		.ascii	"reator\\Micrium\\Examples\\Cypress\\CY8CKIT-044\\OS"
 5762      6F725C4D 
 5762      69637269 
 5762      756D5C45 
 5762      78616D70 
 5763 0b40 335C5053 		.ascii	"3\\PSoC\\OS3.cydsn\000"
 5763      6F435C4F 
 5763      53332E63 
 5763      7964736E 
 5763      00
 5764              	.LASF23:
 5765 0b51 4350555F 		.ascii	"CPU_TS32\000"
 5765      54533332 
 5765      00
 5766              	.LASF230:
 5767 0b5a 53757370 		.ascii	"SuspendCtr\000"
 5767      656E6443 
 5767      747200
 5768              	.LASF206:
 5769 0b65 53746B4C 		.ascii	"StkLimitPtr\000"
 5769      696D6974 
 5769      50747200 
 5770              	.LASF300:
 5771 0b71 4F535F54 		.ascii	"OS_TaskInitTCB\000"
 5771      61736B49 
 5771      6E697454 
 5771      434200
 5772              	.LASF36:
 5773 0b80 4F535F53 		.ascii	"OS_SEM_CTR\000"
 5773      454D5F43 
 5773      545200
 5774              	.LASF192:
 5775 0b8b 4F535F45 		.ascii	"OS_ERR_TMR_STK_SIZE_INVALID\000"
 5775      52525F54 
 5775      4D525F53 
 5775      544B5F53 
 5775      495A455F 
 5776              	.LASF169:
 5777 0ba7 4F535F45 		.ascii	"OS_ERR_TICK_WHEEL_SIZE\000"
 5777      52525F54 
 5777      49434B5F 
 5777      57484545 
 5777      4C5F5349 
 5778              	.LASF209:
 5779 0bbe 5469636B 		.ascii	"TickNextPtr\000"
 5779      4E657874 
 5779      50747200 
 5780              	.LASF146:
 5781 0bca 4F535F45 		.ascii	"OS_ERR_TASK_NOT_EXIST\000"
 5781      52525F54 
 5781      41534B5F 
ARM GAS  C:\Users\EDULU~1.DES\AppData\Local\Temp\ccyhp2HA.s 			page 157


 5781      4E4F545F 
 5781      45584953 
 5782              	.LASF315:
 5783 0be0 4F534366 		.ascii	"OSCfg_StkSizeMin\000"
 5783      675F5374 
 5783      6B53697A 
 5783      654D696E 
 5783      00
 5784              	.LASF143:
 5785 0bf1 4F535F45 		.ascii	"OS_ERR_TASK_INVALID\000"
 5785      52525F54 
 5785      41534B5F 
 5785      494E5641 
 5785      4C494400 
 5786              	.LASF190:
 5787 0c05 4F535F45 		.ascii	"OS_ERR_TMR_PRIO_INVALID\000"
 5787      52525F54 
 5787      4D525F50 
 5787      52494F5F 
 5787      494E5641 
 5788              	.LASF286:
 5789 0c1d 705F7473 		.ascii	"p_ts\000"
 5789      00
 5790              	.LASF158:
 5791 0c22 4F535F45 		.ascii	"OS_ERR_TASK_SUSPEND_PRIO\000"
 5791      52525F54 
 5791      41534B5F 
 5791      53555350 
 5791      454E445F 
 5792              	.LASF247:
 5793 0c3b 5264794F 		.ascii	"RdyObjPtr\000"
 5793      626A5074 
 5793      7200
 5794              	.LASF63:
 5795 0c45 4F535F45 		.ascii	"OS_ERR_INT_Q_STK_SIZE_INVALID\000"
 5795      52525F49 
 5795      4E545F51 
 5795      5F53544B 
 5795      5F53495A 
 5796              	.LASF162:
 5797 0c63 4F535F45 		.ascii	"OS_ERR_TLS_ISR\000"
 5797      52525F54 
 5797      4C535F49 
 5797      535200
 5798              	.LASF298:
 5799 0c72 705F7463 		.ascii	"p_tcb_prev\000"
 5799      625F7072 
 5799      657600
 5800              	.LASF142:
 5801 0c7d 4F535F45 		.ascii	"OS_ERR_TASK_DEL_ISR\000"
 5801      52525F54 
 5801      41534B5F 
 5801      44454C5F 
 5801      49535200 
 5802              	.LASF109:
 5803 0c91 4F535F45 		.ascii	"OS_ERR_PTR_INVALID\000"
 5803      52525F50 
ARM GAS  C:\Users\EDULU~1.DES\AppData\Local\Temp\ccyhp2HA.s 			page 158


 5803      54525F49 
 5803      4E56414C 
 5803      494400
 5804              	.LASF131:
 5805 0ca4 4F535F45 		.ascii	"OS_ERR_STATE_INVALID\000"
 5805      52525F53 
 5805      54415445 
 5805      5F494E56 
 5805      414C4944 
 5806              	.LASF207:
 5807 0cb9 4E657874 		.ascii	"NextPtr\000"
 5807      50747200 
 5808              	.LASF21:
 5809 0cc1 6C6F6E67 		.ascii	"long double\000"
 5809      20646F75 
 5809      626C6500 
 5810              	.LASF93:
 5811 0ccd 4F535F45 		.ascii	"OS_ERR_OS_NOT_RUNNING\000"
 5811      52525F4F 
 5811      535F4E4F 
 5811      545F5255 
 5811      4E4E494E 
 5812              	.LASF257:
 5813 0ce3 54797065 		.ascii	"Type\000"
 5813      00
 5814              	.LASF307:
 5815 0ce8 4F53496E 		.ascii	"OSIntNestingCtr\000"
 5815      744E6573 
 5815      74696E67 
 5815      43747200 
 5816              	.LASF178:
 5817 0cf8 4F535F45 		.ascii	"OS_ERR_TIME_SET_ISR\000"
 5817      52525F54 
 5817      494D455F 
 5817      5345545F 
 5817      49535200 
 5818              	.LASF117:
 5819 0d0c 4F535F45 		.ascii	"OS_ERR_ROUND_ROBIN_1\000"
 5819      52525F52 
 5819      4F554E44 
 5819      5F524F42 
 5819      494E5F31 
 5820              	.LASF74:
 5821 0d21 4F535F45 		.ascii	"OS_ERR_MEM_INVALID_P_BLK\000"
 5821      52525F4D 
 5821      454D5F49 
 5821      4E56414C 
 5821      49445F50 
 5822              	.LASF71:
 5823 0d3a 4F535F45 		.ascii	"OS_ERR_MEM_INVALID_P_ADDR\000"
 5823      52525F4D 
 5823      454D5F49 
 5823      4E56414C 
 5823      49445F50 
 5824              	.LASF250:
 5825 0d54 52647954 		.ascii	"RdyTS\000"
 5825      5300
ARM GAS  C:\Users\EDULU~1.DES\AppData\Local\Temp\ccyhp2HA.s 			page 159


 5826              	.LASF272:
 5827 0d5a 73746B5F 		.ascii	"stk_size\000"
 5827      73697A65 
 5827      00
 5828              	.LASF67:
 5829 0d63 4F535F45 		.ascii	"OS_ERR_LOCK_NESTING_OVF\000"
 5829      52525F4C 
 5829      4F434B5F 
 5829      4E455354 
 5829      494E475F 
 5830              	.LASF153:
 5831 0d7b 4F535F45 		.ascii	"OS_ERR_TASK_STK_CHK_ISR\000"
 5831      52525F54 
 5831      41534B5F 
 5831      53544B5F 
 5831      43484B5F 
 5832              	.LASF305:
 5833 0d93 4F535F54 		.ascii	"OS_TaskSuspend\000"
 5833      61736B53 
 5833      75737065 
 5833      6E6400
 5834              	.LASF8:
 5835 0da2 73686F72 		.ascii	"short int\000"
 5835      7420696E 
 5835      7400
 5836              	.LASF249:
 5837 0dac 5264794D 		.ascii	"RdyMsgSize\000"
 5837      73675369 
 5837      7A6500
 5838              	.LASF79:
 5839 0db7 4F535F45 		.ascii	"OS_ERR_MSG_POOL_EMPTY\000"
 5839      52525F4D 
 5839      53475F50 
 5839      4F4F4C5F 
 5839      454D5054 
 5840              	.LASF233:
 5841 0dcd 496E7444 		.ascii	"IntDisTimeMax\000"
 5841      69735469 
 5841      6D654D61 
 5841      7800
 5842              	.LASF275:
 5843 0ddb 705F6578 		.ascii	"p_ext\000"
 5843      7400
 5844              	.LASF19:
 5845 0de1 6C6F6E67 		.ascii	"long int\000"
 5845      20696E74 
 5845      00
 5846              	.LASF124:
 5847 0dea 4F535F45 		.ascii	"OS_ERR_SCHED_UNLOCK_ISR\000"
 5847      52525F53 
 5847      43484544 
 5847      5F554E4C 
 5847      4F434B5F 
 5848              	.LASF295:
 5849 0e02 4F535F54 		.ascii	"OS_TaskDbgListAdd\000"
 5849      61736B44 
 5849      62674C69 
ARM GAS  C:\Users\EDULU~1.DES\AppData\Local\Temp\ccyhp2HA.s 			page 160


 5849      73744164 
 5849      6400
 5850              	.LASF167:
 5851 0e14 4F535F45 		.ascii	"OS_ERR_TICK_STK_INVALID\000"
 5851      52525F54 
 5851      49434B5F 
 5851      53544B5F 
 5851      494E5641 
 5852              	.LASF80:
 5853 0e2c 4F535F45 		.ascii	"OS_ERR_MSG_POOL_NULL_PTR\000"
 5853      52525F4D 
 5853      53475F50 
 5853      4F4F4C5F 
 5853      4E554C4C 
 5854              	.LASF28:
 5855 0e45 4F535F4E 		.ascii	"OS_NESTING_CTR\000"
 5855      45535449 
 5855      4E475F43 
 5855      545200
 5856              	.LASF255:
 5857 0e54 4F535F50 		.ascii	"OS_PEND_OBJ\000"
 5857      454E445F 
 5857      4F424A00 
 5858              	.LASF151:
 5859 0e60 4F535F45 		.ascii	"OS_ERR_TASK_RESUME_SELF\000"
 5859      52525F54 
 5859      41534B5F 
 5859      52455355 
 5859      4D455F53 
 5860              	.LASF303:
 5861 0e78 4F535F54 		.ascii	"OS_TaskReturn\000"
 5861      61736B52 
 5861      65747572 
 5861      6E00
 5862              	.LASF258:
 5863 0e86 50656E64 		.ascii	"PendList\000"
 5863      4C697374 
 5863      00
 5864              	.LASF91:
 5865 0e8f 4F535F45 		.ascii	"OS_ERR_OBJ_TYPE\000"
 5865      52525F4F 
 5865      424A5F54 
 5865      59504500 
 5866              	.LASF216:
 5867 0e9f 50656E64 		.ascii	"PendDataTblPtr\000"
 5867      44617461 
 5867      54626C50 
 5867      747200
 5868              	.LASF296:
 5869 0eae 4F535F54 		.ascii	"OS_TaskDbgListRemove\000"
 5869      61736B44 
 5869      62674C69 
 5869      73745265 
 5869      6D6F7665 
 5870              	.LASF223:
 5871 0ec3 53656D43 		.ascii	"SemCtr\000"
 5871      747200
ARM GAS  C:\Users\EDULU~1.DES\AppData\Local\Temp\ccyhp2HA.s 			page 161


 5872              	.LASF260:
 5873 0eca 7072696F 		.ascii	"prio_new\000"
 5873      5F6E6577 
 5873      00
 5874              	.LASF226:
 5875 0ed3 5469636B 		.ascii	"TickRemain\000"
 5875      52656D61 
 5875      696E00
 5876              	.LASF253:
 5877 0ede 48656164 		.ascii	"HeadPtr\000"
 5877      50747200 
 5878              	.LASF98:
 5879 0ee6 4F535F45 		.ascii	"OS_ERR_PEND_ABORT_NONE\000"
 5879      52525F50 
 5879      454E445F 
 5879      41424F52 
 5879      545F4E4F 
 5880              	.LASF299:
 5881 0efd 4F535F54 		.ascii	"OS_TaskInit\000"
 5881      61736B49 
 5881      6E697400 
 5882              	.LASF10:
 5883 0f09 756E7369 		.ascii	"unsigned int\000"
 5883      676E6564 
 5883      20696E74 
 5883      00
 5884              	.LASF82:
 5885 0f16 4F535F45 		.ascii	"OS_ERR_MUTEX_OWNER\000"
 5885      52525F4D 
 5885      55544558 
 5885      5F4F574E 
 5885      455200
 5886              	.LASF240:
 5887 0f29 46697273 		.ascii	"FirstPtr\000"
 5887      74507472 
 5887      00
 5888              	.LASF130:
 5889 0f32 4F535F45 		.ascii	"OS_ERR_STAT_STK_SIZE_INVALID\000"
 5889      52525F53 
 5889      5441545F 
 5889      53544B5F 
 5889      53495A45 
 5890              	.LASF52:
 5891 0f4f 4F535F45 		.ascii	"OS_ERR_FLAG_NOT_RDY\000"
 5891      52525F46 
 5891      4C41475F 
 5891      4E4F545F 
 5891      52445900 
 5892              	.LASF289:
 5893 0f63 4F535461 		.ascii	"OSTaskStkChk\000"
 5893      736B5374 
 5893      6B43686B 
 5893      00
 5894              	.LASF268:
 5895 0f70 705F6172 		.ascii	"p_arg\000"
 5895      6700
 5896              	.LASF205:
ARM GAS  C:\Users\EDULU~1.DES\AppData\Local\Temp\ccyhp2HA.s 			page 162


 5897 0f76 45787450 		.ascii	"ExtPtr\000"
 5897      747200
 5898              	.LASF22:
 5899 0f7d 73697A65 		.ascii	"sizetype\000"
 5899      74797065 
 5899      00
 5900              	.LASF20:
 5901 0f86 6C6F6E67 		.ascii	"long unsigned int\000"
 5901      20756E73 
 5901      69676E65 
 5901      6420696E 
 5901      7400
 5902              	.LASF97:
 5903 0f98 4F535F45 		.ascii	"OS_ERR_PEND_ABORT_ISR\000"
 5903      52525F50 
 5903      454E445F 
 5903      41424F52 
 5903      545F4953 
 5904              	.LASF15:
 5905 0fae 4350555F 		.ascii	"CPU_ADDR\000"
 5905      41444452 
 5905      00
 5906              	.LASF105:
 5907 0fb7 4F535F45 		.ascii	"OS_ERR_POST_ISR\000"
 5907      52525F50 
 5907      4F53545F 
 5907      49535200 
 5908              	.LASF170:
 5909 0fc7 4F535F45 		.ascii	"OS_ERR_TIME_DLY_ISR\000"
 5909      52525F54 
 5909      494D455F 
 5909      444C595F 
 5909      49535200 
 5910              	.LASF135:
 5911 0fdb 4F535F45 		.ascii	"OS_ERR_STK_LIMIT_INVALID\000"
 5911      52525F53 
 5911      544B5F4C 
 5911      494D4954 
 5911      5F494E56 
 5912              	.LASF284:
 5913 0ff4 4F535461 		.ascii	"OSTaskSemPend\000"
 5913      736B5365 
 5913      6D50656E 
 5913      6400
 5914              	.LASF1:
 5915 1002 4350555F 		.ascii	"CPU_BOOLEAN\000"
 5915      424F4F4C 
 5915      45414E00 
 5916              	.LASF302:
 5917 100e 4F535F54 		.ascii	"OS_TaskResume\000"
 5917      61736B52 
 5917      6573756D 
 5917      6500
 5918              	.LASF267:
 5919 101c 705F7461 		.ascii	"p_task\000"
 5919      736B00
 5920              	.LASF294:
ARM GAS  C:\Users\EDULU~1.DES\AppData\Local\Temp\ccyhp2HA.s 			page 163


 5921 1023 4F535461 		.ascii	"OSTaskSuspend\000"
 5921      736B5375 
 5921      7370656E 
 5921      6400
 5922              	.LASF134:
 5923 1031 4F535F45 		.ascii	"OS_ERR_STK_SIZE_INVALID\000"
 5923      52525F53 
 5923      544B5F53 
 5923      495A455F 
 5923      494E5641 
 5924              	.LASF270:
 5925 1049 705F7374 		.ascii	"p_stk_base\000"
 5925      6B5F6261 
 5925      736500
 5926              	.LASF193:
 5927 1054 4F535F45 		.ascii	"OS_ERR_TMR_STOPPED\000"
 5927      52525F54 
 5927      4D525F53 
 5927      544F5050 
 5927      454400
 5928              	.LASF3:
 5929 1067 756E7369 		.ascii	"unsigned char\000"
 5929      676E6564 
 5929      20636861 
 5929      7200
 5930              	.LASF148:
 5931 1075 4F535F45 		.ascii	"OS_ERR_TASK_OPT\000"
 5931      52525F54 
 5931      41534B5F 
 5931      4F505400 
 5932              	.LASF309:
 5933 1085 4F535363 		.ascii	"OSSchedLockNestingCtr\000"
 5933      6865644C 
 5933      6F636B4E 
 5933      65737469 
 5933      6E674374 
 5934              	.LASF180:
 5935 109b 4F535F45 		.ascii	"OS_ERR_TIMEOUT\000"
 5935      52525F54 
 5935      494D454F 
 5935      555400
 5936              	.LASF37:
 5937 10aa 4F535F53 		.ascii	"OS_STATE\000"
 5937      54415445 
 5937      00
 5938              	.LASF285:
 5939 10b3 74696D65 		.ascii	"timeout\000"
 5939      6F757400 
 5940              	.LASF31:
 5941 10bb 4F535F4F 		.ascii	"OS_OPT\000"
 5941      505400
 5942              	.LASF202:
 5943 10c2 4F535F54 		.ascii	"OS_TASK_PTR\000"
 5943      41534B5F 
 5943      50545200 
 5944              	.LASF69:
 5945 10ce 4F535F45 		.ascii	"OS_ERR_MEM_CREATE_ISR\000"
ARM GAS  C:\Users\EDULU~1.DES\AppData\Local\Temp\ccyhp2HA.s 			page 164


 5945      52525F4D 
 5945      454D5F43 
 5945      52454154 
 5945      455F4953 
 5946              	.LASF132:
 5947 10e4 4F535F45 		.ascii	"OS_ERR_STATUS_INVALID\000"
 5947      52525F53 
 5947      54415455 
 5947      535F494E 
 5947      56414C49 
 5948              	.LASF198:
 5949 10fa 4F535F45 		.ascii	"OS_ERR_Y\000"
 5949      52525F59 
 5949      00
 5950              	.LASF101:
 5951 1103 4F535F45 		.ascii	"OS_ERR_PEND_ISR\000"
 5951      52525F50 
 5951      454E445F 
 5951      49535200 
 5952              	.LASF200:
 5953 1113 4F535F45 		.ascii	"OS_ERR_Z\000"
 5953      52525F5A 
 5953      00
 5954              	.LASF211:
 5955 111c 5469636B 		.ascii	"TickSpokePtr\000"
 5955      53706F6B 
 5955      65507472 
 5955      00
 5956              	.LASF236:
 5957 1129 4462674E 		.ascii	"DbgNamePtr\000"
 5957      616D6550 
 5957      747200
 5958              	.LASF215:
 5959 1134 5461736B 		.ascii	"TaskEntryArg\000"
 5959      456E7472 
 5959      79417267 
 5959      00
 5960              	.LASF111:
 5961 1141 4F535F45 		.ascii	"OS_ERR_Q_FULL\000"
 5961      52525F51 
 5961      5F46554C 
 5961      4C00
 5962              	.LASF264:
 5963 114f 4F535461 		.ascii	"OSTaskChangePrio\000"
 5963      736B4368 
 5963      616E6765 
 5963      5072696F 
 5963      00
 5964              	.LASF242:
 5965 1160 4E627245 		.ascii	"NbrEntriesMax\000"
 5965      6E747269 
 5965      65734D61 
 5965      7800
 5966              	.LASF62:
 5967 116e 4F535F45 		.ascii	"OS_ERR_INT_Q_STK_INVALID\000"
 5967      52525F49 
 5967      4E545F51 
ARM GAS  C:\Users\EDULU~1.DES\AppData\Local\Temp\ccyhp2HA.s 			page 165


 5967      5F53544B 
 5967      5F494E56 
 5968              	.LASF175:
 5969 1187 4F535F45 		.ascii	"OS_ERR_TIME_INVALID_SECONDS\000"
 5969      52525F54 
 5969      494D455F 
 5969      494E5641 
 5969      4C49445F 
 5970              	.LASF139:
 5971 11a3 4F535F45 		.ascii	"OS_ERR_TASK_DEL\000"
 5971      52525F54 
 5971      41534B5F 
 5971      44454C00 
 5972              	.LASF251:
 5973 11b3 4F535F50 		.ascii	"OS_PEND_LIST\000"
 5973      454E445F 
 5973      4C495354 
 5973      00
 5974              	.LASF318:
 5975 11c0 2E2E5C2E 		.ascii	"..\\..\\..\\..\\..\\..\\Software\\uCOS-III\\Source\\"
 5975      2E5C2E2E 
 5975      5C2E2E5C 
 5975      2E2E5C2E 
 5975      2E5C536F 
 5976 11eb 6F735F74 		.ascii	"os_task.c\000"
 5976      61736B2E 
 5976      6300
 5977              	.LASF5:
 5978 11f5 7369676E 		.ascii	"signed char\000"
 5978      65642063 
 5978      68617200 
 5979              	.LASF50:
 5980 1201 4F535F45 		.ascii	"OS_ERR_FATAL_RETURN\000"
 5980      52525F46 
 5980      4154414C 
 5980      5F524554 
 5980      55524E00 
 5981              	.LASF7:
 5982 1215 73686F72 		.ascii	"short unsigned int\000"
 5982      7420756E 
 5982      7369676E 
 5982      65642069 
 5982      6E7400
 5983              	.LASF259:
 5984 1228 705F7463 		.ascii	"p_tcb\000"
 5984      6200
 5985              	.LASF304:
 5986 122e 4F535F54 		.ascii	"OS_TaskSemPost\000"
 5986      61736B53 
 5986      656D506F 
 5986      737400
 5987              	.LASF163:
 5988 123d 4F535F45 		.ascii	"OS_ERR_TLS_NO_MORE_AVAIL\000"
 5988      52525F54 
 5988      4C535F4E 
 5988      4F5F4D4F 
 5988      52455F41 
ARM GAS  C:\Users\EDULU~1.DES\AppData\Local\Temp\ccyhp2HA.s 			page 166


 5989              	.LASF40:
 5990 1256 4F535F45 		.ascii	"OS_ERR_NONE\000"
 5990      52525F4E 
 5990      4F4E4500 
 5991              	.LASF244:
 5992 1262 6F735F70 		.ascii	"os_pend_data\000"
 5992      656E645F 
 5992      64617461 
 5992      00
 5993              	.LASF35:
 5994 126f 4F535F52 		.ascii	"OS_REG_ID\000"
 5994      45475F49 
 5994      4400
 5995              	.LASF122:
 5996 1279 4F535F45 		.ascii	"OS_ERR_SCHED_LOCKED\000"
 5996      52525F53 
 5996      43484544 
 5996      5F4C4F43 
 5996      4B454400 
 5997              	.LASF54:
 5998 128d 4F535F45 		.ascii	"OS_ERR_FLUSH_ISR\000"
 5998      52525F46 
 5998      4C555348 
 5998      5F495352 
 5998      00
 5999              	.LASF220:
 6000 129e 5072696F 		.ascii	"Prio\000"
 6000      00
 6001              	.LASF273:
 6002 12a3 715F7369 		.ascii	"q_size\000"
 6002      7A6500
 6003              	.LASF14:
 6004 12aa 646F7562 		.ascii	"double\000"
 6004      6C6500
 6005              	.LASF96:
 6006 12b1 4F535F45 		.ascii	"OS_ERR_PEND_ABORT\000"
 6006      52525F50 
 6006      454E445F 
 6006      41424F52 
 6006      5400
 6007              	.LASF123:
 6008 12c3 4F535F45 		.ascii	"OS_ERR_SCHED_NOT_LOCKED\000"
 6008      52525F53 
 6008      43484544 
 6008      5F4E4F54 
 6008      5F4C4F43 
 6009              	.LASF107:
 6010 12db 4F535F45 		.ascii	"OS_ERR_PRIO\000"
 6010      52525F50 
 6010      52494F00 
 6011              	.LASF100:
 6012 12e7 4F535F45 		.ascii	"OS_ERR_PEND_DEL\000"
 6012      52525F50 
 6012      454E445F 
 6012      44454C00 
 6013              	.LASF246:
 6014 12f7 50656E64 		.ascii	"PendObjPtr\000"
ARM GAS  C:\Users\EDULU~1.DES\AppData\Local\Temp\ccyhp2HA.s 			page 167


 6014      4F626A50 
 6014      747200
 6015              	.LASF203:
 6016 1302 4F535F54 		.ascii	"OS_TCB\000"
 6016      434200
 6017              	.LASF311:
 6018 1309 4F535461 		.ascii	"OSTaskDbgListPtr\000"
 6018      736B4462 
 6018      674C6973 
 6018      74507472 
 6018      00
 6019              	.LASF252:
 6020 131a 6F735F70 		.ascii	"os_pend_list\000"
 6020      656E645F 
 6020      6C697374 
 6020      00
 6021              	.LASF77:
 6022 1327 4F535F45 		.ascii	"OS_ERR_MEM_INVALID_SIZE\000"
 6022      52525F4D 
 6022      454D5F49 
 6022      4E56414C 
 6022      49445F53 
 6023              	.LASF154:
 6024 133f 4F535F45 		.ascii	"OS_ERR_TASK_SUSPENDED\000"
 6024      52525F54 
 6024      41534B5F 
 6024      53555350 
 6024      454E4445 
 6025              	.LASF126:
 6026 1355 4F535F45 		.ascii	"OS_ERR_SET_ISR\000"
 6026      52525F53 
 6026      45545F49 
 6026      535200
 6027              	.LASF229:
 6028 1364 52656754 		.ascii	"RegTbl\000"
 6028      626C00
 6029              	.LASF125:
 6030 136b 4F535F45 		.ascii	"OS_ERR_SEM_OVF\000"
 6030      52525F53 
 6030      454D5F4F 
 6030      564600
 6031              	.LASF140:
 6032 137a 4F535F45 		.ascii	"OS_ERR_TASK_DEL_IDLE\000"
 6032      52525F54 
 6032      41534B5F 
 6032      44454C5F 
 6032      49444C45 
 6033              	.LASF172:
 6034 138f 4F535F45 		.ascii	"OS_ERR_TIME_GET_ISR\000"
 6034      52525F54 
 6034      494D455F 
 6034      4745545F 
 6034      49535200 
 6035              	.LASF227:
 6036 13a3 54696D65 		.ascii	"TimeQuanta\000"
 6036      5175616E 
 6036      746100
ARM GAS  C:\Users\EDULU~1.DES\AppData\Local\Temp\ccyhp2HA.s 			page 168


 6037              	.LASF171:
 6038 13ae 4F535F45 		.ascii	"OS_ERR_TIME_DLY_RESUME_ISR\000"
 6038      52525F54 
 6038      494D455F 
 6038      444C595F 
 6038      52455355 
 6039              	.LASF166:
 6040 13c9 4F535F45 		.ascii	"OS_ERR_TICK_PRIO_INVALID\000"
 6040      52525F54 
 6040      49434B5F 
 6040      5052494F 
 6040      5F494E56 
 6041              	.LASF106:
 6042 13e2 4F535F45 		.ascii	"OS_ERR_PRIO_EXIST\000"
 6042      52525F50 
 6042      52494F5F 
 6042      45584953 
 6042      5400
 6043              	.LASF316:
 6044 13f4 4F534366 		.ascii	"OSCfg_TickRate_Hz\000"
 6044      675F5469 
 6044      636B5261 
 6044      74655F48 
 6044      7A00
 6045              	.LASF78:
 6046 1406 4F535F45 		.ascii	"OS_ERR_MEM_NO_FREE_BLKS\000"
 6046      52525F4D 
 6046      454D5F4E 
 6046      4F5F4652 
 6046      45455F42 
 6047              	.LASF16:
 6048 141e 4350555F 		.ascii	"CPU_STK\000"
 6048      53544B00 
 6049              		.ident	"GCC: (GNU Tools for ARM Embedded Processors) 5.4.1 20160609 (release) [ARM/embedded-5-bran
