ARM GAS  C:\Users\EDULU~1.DES\AppData\Local\Temp\ccsWe06d.s 			page 1


   1              		.syntax unified
   2              		.cpu cortex-m0
   3              		.fpu softvfp
   4              		.eabi_attribute 20, 1
   5              		.eabi_attribute 21, 1
   6              		.eabi_attribute 23, 3
   7              		.eabi_attribute 24, 1
   8              		.eabi_attribute 25, 1
   9              		.eabi_attribute 26, 1
  10              		.eabi_attribute 30, 6
  11              		.eabi_attribute 34, 0
  12              		.eabi_attribute 18, 4
  13              		.thumb
  14              		.syntax unified
  15              		.file	"os_tmr.c"
  16              		.text
  17              	.Ltext0:
  18              		.cfi_sections	.debug_frame
  19              		.section	.text.OSTmrCreate,"ax",%progbits
  20              		.align	2
  21              		.global	OSTmrCreate
  22              		.code	16
  23              		.thumb_func
  24              		.type	OSTmrCreate, %function
  25              	OSTmrCreate:
  26              	.LFB1:
  27              		.file 1 "..\\..\\..\\..\\..\\..\\Software\\uCOS-III\\Source\\os_tmr.c"
   1:..\..\..\..\..\..\Software\uCOS-III\Source/os_tmr.c **** /*
   2:..\..\..\..\..\..\Software\uCOS-III\Source/os_tmr.c **** ***************************************************************************************************
   3:..\..\..\..\..\..\Software\uCOS-III\Source/os_tmr.c **** *                                                      uC/OS-III
   4:..\..\..\..\..\..\Software\uCOS-III\Source/os_tmr.c **** *                                                 The Real-Time Kernel
   5:..\..\..\..\..\..\Software\uCOS-III\Source/os_tmr.c **** *
   6:..\..\..\..\..\..\Software\uCOS-III\Source/os_tmr.c **** *                                  (c) Copyright 2009-2012; Micrium, Inc.; Weston, FL
   7:..\..\..\..\..\..\Software\uCOS-III\Source/os_tmr.c **** *                           All rights reserved.  Protected by international copyright laws.
   8:..\..\..\..\..\..\Software\uCOS-III\Source/os_tmr.c **** *
   9:..\..\..\..\..\..\Software\uCOS-III\Source/os_tmr.c **** *                                                   TIMER MANAGEMENT
  10:..\..\..\..\..\..\Software\uCOS-III\Source/os_tmr.c **** *
  11:..\..\..\..\..\..\Software\uCOS-III\Source/os_tmr.c **** * File    : OS_TMR.C
  12:..\..\..\..\..\..\Software\uCOS-III\Source/os_tmr.c **** * By      : JJL
  13:..\..\..\..\..\..\Software\uCOS-III\Source/os_tmr.c **** * Version : V3.03.01
  14:..\..\..\..\..\..\Software\uCOS-III\Source/os_tmr.c **** *
  15:..\..\..\..\..\..\Software\uCOS-III\Source/os_tmr.c **** * LICENSING TERMS:
  16:..\..\..\..\..\..\Software\uCOS-III\Source/os_tmr.c **** * ---------------
  17:..\..\..\..\..\..\Software\uCOS-III\Source/os_tmr.c **** *           uC/OS-III is provided in source form for FREE short-term evaluation, for educational us
  18:..\..\..\..\..\..\Software\uCOS-III\Source/os_tmr.c **** *           for peaceful research.  If you plan or intend to use uC/OS-III in a commercial applicat
  19:..\..\..\..\..\..\Software\uCOS-III\Source/os_tmr.c **** *           product then, you need to contact Micrium to properly license uC/OS-III for its use in 
  20:..\..\..\..\..\..\Software\uCOS-III\Source/os_tmr.c **** *           application/product.   We provide ALL the source code for your convenience and to help 
  21:..\..\..\..\..\..\Software\uCOS-III\Source/os_tmr.c **** *           experience uC/OS-III.  The fact that the source is provided does NOT mean that you can 
  22:..\..\..\..\..\..\Software\uCOS-III\Source/os_tmr.c **** *           it commercially without paying a licensing fee.
  23:..\..\..\..\..\..\Software\uCOS-III\Source/os_tmr.c **** *
  24:..\..\..\..\..\..\Software\uCOS-III\Source/os_tmr.c **** *           Knowledge of the source code may NOT be used to develop a similar product.
  25:..\..\..\..\..\..\Software\uCOS-III\Source/os_tmr.c **** *
  26:..\..\..\..\..\..\Software\uCOS-III\Source/os_tmr.c **** *           Please help us continue to provide the embedded community with the finest software avai
  27:..\..\..\..\..\..\Software\uCOS-III\Source/os_tmr.c **** *           Your honesty is greatly appreciated.
  28:..\..\..\..\..\..\Software\uCOS-III\Source/os_tmr.c **** *
  29:..\..\..\..\..\..\Software\uCOS-III\Source/os_tmr.c **** *           You can contact us at www.micrium.com, or by phone at +1 (954) 217-2036.
  30:..\..\..\..\..\..\Software\uCOS-III\Source/os_tmr.c **** ***************************************************************************************************
ARM GAS  C:\Users\EDULU~1.DES\AppData\Local\Temp\ccsWe06d.s 			page 2


  31:..\..\..\..\..\..\Software\uCOS-III\Source/os_tmr.c **** */
  32:..\..\..\..\..\..\Software\uCOS-III\Source/os_tmr.c **** 
  33:..\..\..\..\..\..\Software\uCOS-III\Source/os_tmr.c **** #define  MICRIUM_SOURCE
  34:..\..\..\..\..\..\Software\uCOS-III\Source/os_tmr.c **** #include <os.h>
  35:..\..\..\..\..\..\Software\uCOS-III\Source/os_tmr.c **** 
  36:..\..\..\..\..\..\Software\uCOS-III\Source/os_tmr.c **** #ifdef VSC_INCLUDE_SOURCE_FILE_NAMES
  37:..\..\..\..\..\..\Software\uCOS-III\Source/os_tmr.c **** const  CPU_CHAR  *os_tmr__c = "$Id: $";
  38:..\..\..\..\..\..\Software\uCOS-III\Source/os_tmr.c **** #endif
  39:..\..\..\..\..\..\Software\uCOS-III\Source/os_tmr.c **** 
  40:..\..\..\..\..\..\Software\uCOS-III\Source/os_tmr.c **** 
  41:..\..\..\..\..\..\Software\uCOS-III\Source/os_tmr.c **** #if OS_CFG_TMR_EN > 0u
  42:..\..\..\..\..\..\Software\uCOS-III\Source/os_tmr.c **** /*
  43:..\..\..\..\..\..\Software\uCOS-III\Source/os_tmr.c **** ***************************************************************************************************
  44:..\..\..\..\..\..\Software\uCOS-III\Source/os_tmr.c **** *                                                     CONSTANTS
  45:..\..\..\..\..\..\Software\uCOS-III\Source/os_tmr.c **** ***************************************************************************************************
  46:..\..\..\..\..\..\Software\uCOS-III\Source/os_tmr.c **** */
  47:..\..\..\..\..\..\Software\uCOS-III\Source/os_tmr.c **** 
  48:..\..\..\..\..\..\Software\uCOS-III\Source/os_tmr.c **** #define  OS_OPT_LINK_DLY       (OS_OPT)(0u)
  49:..\..\..\..\..\..\Software\uCOS-III\Source/os_tmr.c **** #define  OS_OPT_LINK_PERIODIC  (OS_OPT)(1u)
  50:..\..\..\..\..\..\Software\uCOS-III\Source/os_tmr.c **** 
  51:..\..\..\..\..\..\Software\uCOS-III\Source/os_tmr.c **** /*$PAGE*/
  52:..\..\..\..\..\..\Software\uCOS-III\Source/os_tmr.c **** /*
  53:..\..\..\..\..\..\Software\uCOS-III\Source/os_tmr.c **** ***************************************************************************************************
  54:..\..\..\..\..\..\Software\uCOS-III\Source/os_tmr.c **** *                                                   CREATE A TIMER
  55:..\..\..\..\..\..\Software\uCOS-III\Source/os_tmr.c **** *
  56:..\..\..\..\..\..\Software\uCOS-III\Source/os_tmr.c **** * Description: This function is called by your application code to create a timer.
  57:..\..\..\..\..\..\Software\uCOS-III\Source/os_tmr.c **** *
  58:..\..\..\..\..\..\Software\uCOS-III\Source/os_tmr.c **** * Arguments  : p_tmr           Is a pointer to a timer control block
  59:..\..\..\..\..\..\Software\uCOS-III\Source/os_tmr.c **** *
  60:..\..\..\..\..\..\Software\uCOS-III\Source/os_tmr.c **** *              p_name          Is a pointer to an ASCII string that is used to name the timer.  Nam
  61:..\..\..\..\..\..\Software\uCOS-III\Source/os_tmr.c **** *                              debugging.
  62:..\..\..\..\..\..\Software\uCOS-III\Source/os_tmr.c **** *
  63:..\..\..\..\..\..\Software\uCOS-III\Source/os_tmr.c **** *              dly             Initial delay.
  64:..\..\..\..\..\..\Software\uCOS-III\Source/os_tmr.c **** *                              If the timer is configured for ONE-SHOT mode, this is the timeout us
  65:..\..\..\..\..\..\Software\uCOS-III\Source/os_tmr.c **** *                              If the timer is configured for PERIODIC mode, this is the first time
  66:..\..\..\..\..\..\Software\uCOS-III\Source/os_tmr.c **** *                              before the timer starts entering periodic mode
  67:..\..\..\..\..\..\Software\uCOS-III\Source/os_tmr.c **** *
  68:..\..\..\..\..\..\Software\uCOS-III\Source/os_tmr.c **** *              period          The 'period' being repeated for the timer.
  69:..\..\..\..\..\..\Software\uCOS-III\Source/os_tmr.c **** *                              If you specified 'OS_OPT_TMR_PERIODIC' as an option, when the timer 
  70:..\..\..\..\..\..\Software\uCOS-III\Source/os_tmr.c **** *                              automatically restart with the same period.
  71:..\..\..\..\..\..\Software\uCOS-III\Source/os_tmr.c **** *
  72:..\..\..\..\..\..\Software\uCOS-III\Source/os_tmr.c **** *              opt             Specifies either:
  73:..\..\..\..\..\..\Software\uCOS-III\Source/os_tmr.c **** *
  74:..\..\..\..\..\..\Software\uCOS-III\Source/os_tmr.c **** *                                  OS_OPT_TMR_ONE_SHOT       The timer counts down only once
  75:..\..\..\..\..\..\Software\uCOS-III\Source/os_tmr.c **** *                                  OS_OPT_TMR_PERIODIC       The timer counts down and then reloads
  76:..\..\..\..\..\..\Software\uCOS-III\Source/os_tmr.c **** *
  77:..\..\..\..\..\..\Software\uCOS-III\Source/os_tmr.c **** *              p_callback      Is a pointer to a callback function that will be called when the tim
  78:..\..\..\..\..\..\Software\uCOS-III\Source/os_tmr.c **** *                              callback function must be declared as follows:
  79:..\..\..\..\..\..\Software\uCOS-III\Source/os_tmr.c **** *
  80:..\..\..\..\..\..\Software\uCOS-III\Source/os_tmr.c **** *                                  void  MyCallback (OS_TMR *p_tmr, void *p_arg);
  81:..\..\..\..\..\..\Software\uCOS-III\Source/os_tmr.c **** *
  82:..\..\..\..\..\..\Software\uCOS-III\Source/os_tmr.c **** *              p_callback_arg  Is an argument (a pointer) that is passed to the callback function w
  83:..\..\..\..\..\..\Software\uCOS-III\Source/os_tmr.c **** *
  84:..\..\..\..\..\..\Software\uCOS-III\Source/os_tmr.c **** *              p_err           Is a pointer to an error code.  '*p_err' will contain one of the fol
  85:..\..\..\..\..\..\Software\uCOS-III\Source/os_tmr.c **** *
  86:..\..\..\..\..\..\Software\uCOS-III\Source/os_tmr.c **** *                                 OS_ERR_NONE
  87:..\..\..\..\..\..\Software\uCOS-III\Source/os_tmr.c **** *                                 OS_ERR_ILLEGAL_CREATE_RUN_TIME if you are trying to create the ti
ARM GAS  C:\Users\EDULU~1.DES\AppData\Local\Temp\ccsWe06d.s 			page 3


  88:..\..\..\..\..\..\Software\uCOS-III\Source/os_tmr.c **** *                                                                  OSSafetyCriticalStart().
  89:..\..\..\..\..\..\Software\uCOS-III\Source/os_tmr.c **** *                                 OS_ERR_OBJ_CREATED             if the timer has already been crea
  90:..\..\..\..\..\..\Software\uCOS-III\Source/os_tmr.c **** *                                 OS_ERR_OBJ_PTR_NULL            is 'p_tmr' is a NULL pointer
  91:..\..\..\..\..\..\Software\uCOS-III\Source/os_tmr.c **** *                                 OS_ERR_OBJ_TYPE                if the object type is invalid
  92:..\..\..\..\..\..\Software\uCOS-III\Source/os_tmr.c **** *                                 OS_ERR_OPT_INVALID             you specified an invalid option
  93:..\..\..\..\..\..\Software\uCOS-III\Source/os_tmr.c **** *                                 OS_ERR_TMR_INVALID_DLY         you specified an invalid delay
  94:..\..\..\..\..\..\Software\uCOS-III\Source/os_tmr.c **** *                                 OS_ERR_TMR_INVALID_PERIOD      you specified an invalid period
  95:..\..\..\..\..\..\Software\uCOS-III\Source/os_tmr.c **** *                                 OS_ERR_TMR_ISR                 if the call was made from an ISR
  96:..\..\..\..\..\..\Software\uCOS-III\Source/os_tmr.c **** *
  97:..\..\..\..\..\..\Software\uCOS-III\Source/os_tmr.c **** * Returns    : none
  98:..\..\..\..\..\..\Software\uCOS-III\Source/os_tmr.c **** *
  99:..\..\..\..\..\..\Software\uCOS-III\Source/os_tmr.c **** * Note(s)    : 1) This function only creates the timer.  In other words, the timer is not started w
 100:..\..\..\..\..\..\Software\uCOS-III\Source/os_tmr.c **** *                 start the timer, call OSTmrStart().
 101:..\..\..\..\..\..\Software\uCOS-III\Source/os_tmr.c **** ***************************************************************************************************
 102:..\..\..\..\..\..\Software\uCOS-III\Source/os_tmr.c **** */
 103:..\..\..\..\..\..\Software\uCOS-III\Source/os_tmr.c **** 
 104:..\..\..\..\..\..\Software\uCOS-III\Source/os_tmr.c **** void  OSTmrCreate (OS_TMR               *p_tmr,
 105:..\..\..\..\..\..\Software\uCOS-III\Source/os_tmr.c ****                    CPU_CHAR             *p_name,
 106:..\..\..\..\..\..\Software\uCOS-III\Source/os_tmr.c ****                    OS_TICK               dly,
 107:..\..\..\..\..\..\Software\uCOS-III\Source/os_tmr.c ****                    OS_TICK               period,
 108:..\..\..\..\..\..\Software\uCOS-III\Source/os_tmr.c ****                    OS_OPT                opt,
 109:..\..\..\..\..\..\Software\uCOS-III\Source/os_tmr.c ****                    OS_TMR_CALLBACK_PTR   p_callback,
 110:..\..\..\..\..\..\Software\uCOS-III\Source/os_tmr.c ****                    void                 *p_callback_arg,
 111:..\..\..\..\..\..\Software\uCOS-III\Source/os_tmr.c ****                    OS_ERR               *p_err)
 112:..\..\..\..\..\..\Software\uCOS-III\Source/os_tmr.c **** {
  28              		.loc 1 112 0
  29              		.cfi_startproc
  30              		@ args = 16, pretend = 0, frame = 24
  31              		@ frame_needed = 1, uses_anonymous_args = 0
  32 0000 80B5     		push	{r7, lr}
  33              		.cfi_def_cfa_offset 8
  34              		.cfi_offset 7, -8
  35              		.cfi_offset 14, -4
  36 0002 86B0     		sub	sp, sp, #24
  37              		.cfi_def_cfa_offset 32
  38 0004 00AF     		add	r7, sp, #0
  39              		.cfi_def_cfa_register 7
  40 0006 F860     		str	r0, [r7, #12]
  41 0008 B960     		str	r1, [r7, #8]
  42 000a 7A60     		str	r2, [r7, #4]
  43 000c 3B60     		str	r3, [r7]
 113:..\..\..\..\..\..\Software\uCOS-III\Source/os_tmr.c ****     CPU_SR_ALLOC();
  44              		.loc 1 113 0
  45 000e 0023     		movs	r3, #0
  46 0010 7B61     		str	r3, [r7, #20]
 114:..\..\..\..\..\..\Software\uCOS-III\Source/os_tmr.c **** 
 115:..\..\..\..\..\..\Software\uCOS-III\Source/os_tmr.c **** 
 116:..\..\..\..\..\..\Software\uCOS-III\Source/os_tmr.c **** 
 117:..\..\..\..\..\..\Software\uCOS-III\Source/os_tmr.c **** #ifdef OS_SAFETY_CRITICAL
 118:..\..\..\..\..\..\Software\uCOS-III\Source/os_tmr.c ****     if (p_err == (OS_ERR *)0) {
 119:..\..\..\..\..\..\Software\uCOS-III\Source/os_tmr.c ****         OS_SAFETY_CRITICAL_EXCEPTION();
 120:..\..\..\..\..\..\Software\uCOS-III\Source/os_tmr.c ****         return;
 121:..\..\..\..\..\..\Software\uCOS-III\Source/os_tmr.c ****     }
 122:..\..\..\..\..\..\Software\uCOS-III\Source/os_tmr.c **** #endif
 123:..\..\..\..\..\..\Software\uCOS-III\Source/os_tmr.c **** 
 124:..\..\..\..\..\..\Software\uCOS-III\Source/os_tmr.c **** #ifdef OS_SAFETY_CRITICAL_IEC61508
 125:..\..\..\..\..\..\Software\uCOS-III\Source/os_tmr.c ****     if (OSSafetyCriticalStartFlag == DEF_TRUE) {
ARM GAS  C:\Users\EDULU~1.DES\AppData\Local\Temp\ccsWe06d.s 			page 4


 126:..\..\..\..\..\..\Software\uCOS-III\Source/os_tmr.c ****        *p_err = OS_ERR_ILLEGAL_CREATE_RUN_TIME;
 127:..\..\..\..\..\..\Software\uCOS-III\Source/os_tmr.c ****         return;
 128:..\..\..\..\..\..\Software\uCOS-III\Source/os_tmr.c ****     }
 129:..\..\..\..\..\..\Software\uCOS-III\Source/os_tmr.c **** #endif
 130:..\..\..\..\..\..\Software\uCOS-III\Source/os_tmr.c **** 
 131:..\..\..\..\..\..\Software\uCOS-III\Source/os_tmr.c **** #if OS_CFG_CALLED_FROM_ISR_CHK_EN > 0u
 132:..\..\..\..\..\..\Software\uCOS-III\Source/os_tmr.c ****     if (OSIntNestingCtr > (OS_NESTING_CTR)0) {              /* See if trying to call from an ISR   
  47              		.loc 1 132 0
  48 0012 374B     		ldr	r3, .L14
  49 0014 1B78     		ldrb	r3, [r3]
  50 0016 002B     		cmp	r3, #0
  51 0018 03D0     		beq	.L2
 133:..\..\..\..\..\..\Software\uCOS-III\Source/os_tmr.c ****        *p_err = OS_ERR_TMR_ISR;
  52              		.loc 1 133 0
  53 001a FB6A     		ldr	r3, [r7, #44]
  54 001c 354A     		ldr	r2, .L14+4
  55 001e 1A80     		strh	r2, [r3]
 134:..\..\..\..\..\..\Software\uCOS-III\Source/os_tmr.c ****         return;
  56              		.loc 1 134 0
  57 0020 62E0     		b	.L1
  58              	.L2:
 135:..\..\..\..\..\..\Software\uCOS-III\Source/os_tmr.c ****     }
 136:..\..\..\..\..\..\Software\uCOS-III\Source/os_tmr.c **** #endif
 137:..\..\..\..\..\..\Software\uCOS-III\Source/os_tmr.c **** 
 138:..\..\..\..\..\..\Software\uCOS-III\Source/os_tmr.c **** #if OS_CFG_ARG_CHK_EN > 0u
 139:..\..\..\..\..\..\Software\uCOS-III\Source/os_tmr.c ****     if (p_tmr == (OS_TMR *)0) {                             /* Validate 'p_tmr'                    
  59              		.loc 1 139 0
  60 0022 FB68     		ldr	r3, [r7, #12]
  61 0024 002B     		cmp	r3, #0
  62 0026 03D1     		bne	.L4
 140:..\..\..\..\..\..\Software\uCOS-III\Source/os_tmr.c ****        *p_err = OS_ERR_OBJ_PTR_NULL;
  63              		.loc 1 140 0
  64 0028 FB6A     		ldr	r3, [r7, #44]
  65 002a 334A     		ldr	r2, .L14+8
  66 002c 1A80     		strh	r2, [r3]
 141:..\..\..\..\..\..\Software\uCOS-III\Source/os_tmr.c ****         return;
  67              		.loc 1 141 0
  68 002e 5BE0     		b	.L1
  69              	.L4:
 142:..\..\..\..\..\..\Software\uCOS-III\Source/os_tmr.c ****     }
 143:..\..\..\..\..\..\Software\uCOS-III\Source/os_tmr.c **** 
 144:..\..\..\..\..\..\Software\uCOS-III\Source/os_tmr.c ****     switch (opt) {
  70              		.loc 1 144 0
  71 0030 2023     		movs	r3, #32
  72 0032 FB18     		adds	r3, r7, r3
  73 0034 1B88     		ldrh	r3, [r3]
  74 0036 012B     		cmp	r3, #1
  75 0038 08D0     		beq	.L6
  76 003a 022B     		cmp	r3, #2
  77 003c 0DD1     		bne	.L11
 145:..\..\..\..\..\..\Software\uCOS-III\Source/os_tmr.c ****         case OS_OPT_TMR_PERIODIC:
 146:..\..\..\..\..\..\Software\uCOS-III\Source/os_tmr.c ****              if (period == (OS_TICK)0) {
  78              		.loc 1 146 0
  79 003e 3B68     		ldr	r3, [r7]
  80 0040 002B     		cmp	r3, #0
  81 0042 0ED1     		bne	.L12
 147:..\..\..\..\..\..\Software\uCOS-III\Source/os_tmr.c ****                 *p_err = OS_ERR_TMR_INVALID_PERIOD;
ARM GAS  C:\Users\EDULU~1.DES\AppData\Local\Temp\ccsWe06d.s 			page 5


  82              		.loc 1 147 0
  83 0044 FB6A     		ldr	r3, [r7, #44]
  84 0046 2D4A     		ldr	r2, .L14+12
  85 0048 1A80     		strh	r2, [r3]
 148:..\..\..\..\..\..\Software\uCOS-III\Source/os_tmr.c ****                  return;
  86              		.loc 1 148 0
  87 004a 4DE0     		b	.L1
  88              	.L6:
 149:..\..\..\..\..\..\Software\uCOS-III\Source/os_tmr.c ****              }
 150:..\..\..\..\..\..\Software\uCOS-III\Source/os_tmr.c ****              break;
 151:..\..\..\..\..\..\Software\uCOS-III\Source/os_tmr.c **** 
 152:..\..\..\..\..\..\Software\uCOS-III\Source/os_tmr.c ****         case OS_OPT_TMR_ONE_SHOT:
 153:..\..\..\..\..\..\Software\uCOS-III\Source/os_tmr.c ****              if (dly == (OS_TICK)0) {
  89              		.loc 1 153 0
  90 004c 7B68     		ldr	r3, [r7, #4]
  91 004e 002B     		cmp	r3, #0
  92 0050 09D1     		bne	.L13
 154:..\..\..\..\..\..\Software\uCOS-III\Source/os_tmr.c ****                 *p_err = OS_ERR_TMR_INVALID_DLY;
  93              		.loc 1 154 0
  94 0052 FB6A     		ldr	r3, [r7, #44]
  95 0054 2A4A     		ldr	r2, .L14+16
  96 0056 1A80     		strh	r2, [r3]
 155:..\..\..\..\..\..\Software\uCOS-III\Source/os_tmr.c ****                  return;
  97              		.loc 1 155 0
  98 0058 46E0     		b	.L1
  99              	.L11:
 156:..\..\..\..\..\..\Software\uCOS-III\Source/os_tmr.c ****              }
 157:..\..\..\..\..\..\Software\uCOS-III\Source/os_tmr.c ****              break;
 158:..\..\..\..\..\..\Software\uCOS-III\Source/os_tmr.c **** 
 159:..\..\..\..\..\..\Software\uCOS-III\Source/os_tmr.c ****         default:
 160:..\..\..\..\..\..\Software\uCOS-III\Source/os_tmr.c ****             *p_err = OS_ERR_OPT_INVALID;
 100              		.loc 1 160 0
 101 005a FB6A     		ldr	r3, [r7, #44]
 102 005c 294A     		ldr	r2, .L14+20
 103 005e 1A80     		strh	r2, [r3]
 161:..\..\..\..\..\..\Software\uCOS-III\Source/os_tmr.c ****              return;
 104              		.loc 1 161 0
 105 0060 42E0     		b	.L1
 106              	.L12:
 150:..\..\..\..\..\..\Software\uCOS-III\Source/os_tmr.c **** 
 107              		.loc 1 150 0
 108 0062 C046     		nop
 109 0064 00E0     		b	.L9
 110              	.L13:
 157:..\..\..\..\..\..\Software\uCOS-III\Source/os_tmr.c **** 
 111              		.loc 1 157 0
 112 0066 C046     		nop
 113              	.L9:
 162:..\..\..\..\..\..\Software\uCOS-III\Source/os_tmr.c ****     }
 163:..\..\..\..\..\..\Software\uCOS-III\Source/os_tmr.c **** #endif
 164:..\..\..\..\..\..\Software\uCOS-III\Source/os_tmr.c **** 
 165:..\..\..\..\..\..\Software\uCOS-III\Source/os_tmr.c ****     OS_CRITICAL_ENTER();
 114              		.loc 1 165 0
 115 0068 FFF7FEFF 		bl	CPU_SR_Save
 116 006c 0300     		movs	r3, r0
 117 006e 7B61     		str	r3, [r7, #20]
 118 0070 FFF7FEFF 		bl	CPU_IntDisMeasStart
ARM GAS  C:\Users\EDULU~1.DES\AppData\Local\Temp\ccsWe06d.s 			page 6


 166:..\..\..\..\..\..\Software\uCOS-III\Source/os_tmr.c ****     p_tmr->State          = (OS_STATE           )OS_TMR_STATE_STOPPED;     /* Initialize the timer 
 119              		.loc 1 166 0
 120 0074 FB68     		ldr	r3, [r7, #12]
 121 0076 2A22     		movs	r2, #42
 122 0078 0121     		movs	r1, #1
 123 007a 9954     		strb	r1, [r3, r2]
 167:..\..\..\..\..\..\Software\uCOS-III\Source/os_tmr.c ****     p_tmr->Type           = (OS_OBJ_TYPE        )OS_OBJ_TYPE_TMR;
 124              		.loc 1 167 0
 125 007c FB68     		ldr	r3, [r7, #12]
 126 007e 224A     		ldr	r2, .L14+24
 127 0080 1A60     		str	r2, [r3]
 168:..\..\..\..\..\..\Software\uCOS-III\Source/os_tmr.c ****     p_tmr->NamePtr        = (CPU_CHAR          *)p_name;
 128              		.loc 1 168 0
 129 0082 FB68     		ldr	r3, [r7, #12]
 130 0084 BA68     		ldr	r2, [r7, #8]
 131 0086 5A60     		str	r2, [r3, #4]
 169:..\..\..\..\..\..\Software\uCOS-III\Source/os_tmr.c ****     p_tmr->Dly            = (OS_TICK            )dly;
 132              		.loc 1 169 0
 133 0088 FB68     		ldr	r3, [r7, #12]
 134 008a 7A68     		ldr	r2, [r7, #4]
 135 008c 1A62     		str	r2, [r3, #32]
 170:..\..\..\..\..\..\Software\uCOS-III\Source/os_tmr.c ****     p_tmr->Match          = (OS_TICK            )0;
 136              		.loc 1 170 0
 137 008e FB68     		ldr	r3, [r7, #12]
 138 0090 0022     		movs	r2, #0
 139 0092 9A61     		str	r2, [r3, #24]
 171:..\..\..\..\..\..\Software\uCOS-III\Source/os_tmr.c ****     p_tmr->Remain         = (OS_TICK            )0;
 140              		.loc 1 171 0
 141 0094 FB68     		ldr	r3, [r7, #12]
 142 0096 0022     		movs	r2, #0
 143 0098 DA61     		str	r2, [r3, #28]
 172:..\..\..\..\..\..\Software\uCOS-III\Source/os_tmr.c ****     p_tmr->Period         = (OS_TICK            )period;
 144              		.loc 1 172 0
 145 009a FB68     		ldr	r3, [r7, #12]
 146 009c 3A68     		ldr	r2, [r7]
 147 009e 5A62     		str	r2, [r3, #36]
 173:..\..\..\..\..\..\Software\uCOS-III\Source/os_tmr.c ****     p_tmr->Opt            = (OS_OPT             )opt;
 148              		.loc 1 173 0
 149 00a0 FB68     		ldr	r3, [r7, #12]
 150 00a2 2022     		movs	r2, #32
 151 00a4 BA18     		adds	r2, r7, r2
 152 00a6 1288     		ldrh	r2, [r2]
 153 00a8 1A85     		strh	r2, [r3, #40]
 174:..\..\..\..\..\..\Software\uCOS-III\Source/os_tmr.c ****     p_tmr->CallbackPtr    = (OS_TMR_CALLBACK_PTR)p_callback;
 154              		.loc 1 174 0
 155 00aa FB68     		ldr	r3, [r7, #12]
 156 00ac 7A6A     		ldr	r2, [r7, #36]
 157 00ae 9A60     		str	r2, [r3, #8]
 175:..\..\..\..\..\..\Software\uCOS-III\Source/os_tmr.c ****     p_tmr->CallbackPtrArg = (void              *)p_callback_arg;
 158              		.loc 1 175 0
 159 00b0 FB68     		ldr	r3, [r7, #12]
 160 00b2 BA6A     		ldr	r2, [r7, #40]
 161 00b4 DA60     		str	r2, [r3, #12]
 176:..\..\..\..\..\..\Software\uCOS-III\Source/os_tmr.c ****     p_tmr->NextPtr        = (OS_TMR            *)0;
 162              		.loc 1 176 0
 163 00b6 FB68     		ldr	r3, [r7, #12]
 164 00b8 0022     		movs	r2, #0
ARM GAS  C:\Users\EDULU~1.DES\AppData\Local\Temp\ccsWe06d.s 			page 7


 165 00ba 1A61     		str	r2, [r3, #16]
 177:..\..\..\..\..\..\Software\uCOS-III\Source/os_tmr.c ****     p_tmr->PrevPtr        = (OS_TMR            *)0;
 166              		.loc 1 177 0
 167 00bc FB68     		ldr	r3, [r7, #12]
 168 00be 0022     		movs	r2, #0
 169 00c0 5A61     		str	r2, [r3, #20]
 178:..\..\..\..\..\..\Software\uCOS-III\Source/os_tmr.c **** 
 179:..\..\..\..\..\..\Software\uCOS-III\Source/os_tmr.c **** #if OS_CFG_DBG_EN > 0u
 180:..\..\..\..\..\..\Software\uCOS-III\Source/os_tmr.c ****     OS_TmrDbgListAdd(p_tmr);
 170              		.loc 1 180 0
 171 00c2 FB68     		ldr	r3, [r7, #12]
 172 00c4 1800     		movs	r0, r3
 173 00c6 FFF7FEFF 		bl	OS_TmrDbgListAdd
 181:..\..\..\..\..\..\Software\uCOS-III\Source/os_tmr.c **** #endif
 182:..\..\..\..\..\..\Software\uCOS-III\Source/os_tmr.c ****     OSTmrQty++;                                             /* Keep track of the number of timers c
 174              		.loc 1 182 0
 175 00ca 104B     		ldr	r3, .L14+28
 176 00cc 1B88     		ldrh	r3, [r3]
 177 00ce 0133     		adds	r3, r3, #1
 178 00d0 9AB2     		uxth	r2, r3
 179 00d2 0E4B     		ldr	r3, .L14+28
 180 00d4 1A80     		strh	r2, [r3]
 183:..\..\..\..\..\..\Software\uCOS-III\Source/os_tmr.c **** 
 184:..\..\..\..\..\..\Software\uCOS-III\Source/os_tmr.c ****     OS_CRITICAL_EXIT_NO_SCHED();
 181              		.loc 1 184 0
 182 00d6 FFF7FEFF 		bl	CPU_IntDisMeasStop
 183 00da 7B69     		ldr	r3, [r7, #20]
 184 00dc 1800     		movs	r0, r3
 185 00de FFF7FEFF 		bl	CPU_SR_Restore
 185:..\..\..\..\..\..\Software\uCOS-III\Source/os_tmr.c ****    *p_err = OS_ERR_NONE;
 186              		.loc 1 185 0
 187 00e2 FB6A     		ldr	r3, [r7, #44]
 188 00e4 0022     		movs	r2, #0
 189 00e6 1A80     		strh	r2, [r3]
 190              	.L1:
 186:..\..\..\..\..\..\Software\uCOS-III\Source/os_tmr.c **** }
 191              		.loc 1 186 0
 192 00e8 BD46     		mov	sp, r7
 193 00ea 06B0     		add	sp, sp, #24
 194              		@ sp needed
 195 00ec 80BD     		pop	{r7, pc}
 196              	.L15:
 197 00ee C046     		.align	2
 198              	.L14:
 199 00f0 00000000 		.word	OSIntNestingCtr
 200 00f4 43730000 		.word	29507
 201 00f8 C35D0000 		.word	24003
 202 00fc 40730000 		.word	29504
 203 0100 3F730000 		.word	29503
 204 0104 255E0000 		.word	24101
 205 0108 544D5220 		.word	542264660
 206 010c 00000000 		.word	OSTmrQty
 207              		.cfi_endproc
 208              	.LFE1:
 209              		.size	OSTmrCreate, .-OSTmrCreate
 210              		.section	.text.OSTmrRemainGet,"ax",%progbits
 211              		.align	2
ARM GAS  C:\Users\EDULU~1.DES\AppData\Local\Temp\ccsWe06d.s 			page 8


 212              		.global	OSTmrRemainGet
 213              		.code	16
 214              		.thumb_func
 215              		.type	OSTmrRemainGet, %function
 216              	OSTmrRemainGet:
 217              	.LFB2:
 187:..\..\..\..\..\..\Software\uCOS-III\Source/os_tmr.c **** 
 188:..\..\..\..\..\..\Software\uCOS-III\Source/os_tmr.c **** /*$PAGE*/
 189:..\..\..\..\..\..\Software\uCOS-III\Source/os_tmr.c **** /*
 190:..\..\..\..\..\..\Software\uCOS-III\Source/os_tmr.c **** ***************************************************************************************************
 191:..\..\..\..\..\..\Software\uCOS-III\Source/os_tmr.c **** *                                                   DELETE A TIMER
 192:..\..\..\..\..\..\Software\uCOS-III\Source/os_tmr.c **** *
 193:..\..\..\..\..\..\Software\uCOS-III\Source/os_tmr.c **** * Description: This function is called by your application code to delete a timer.
 194:..\..\..\..\..\..\Software\uCOS-III\Source/os_tmr.c **** *
 195:..\..\..\..\..\..\Software\uCOS-III\Source/os_tmr.c **** * Arguments  : p_tmr          Is a pointer to the timer to stop and delete.
 196:..\..\..\..\..\..\Software\uCOS-III\Source/os_tmr.c **** *
 197:..\..\..\..\..\..\Software\uCOS-III\Source/os_tmr.c **** *              p_err          Is a pointer to an error code.  '*p_err' will contain one of the foll
 198:..\..\..\..\..\..\Software\uCOS-III\Source/os_tmr.c **** *
 199:..\..\..\..\..\..\Software\uCOS-III\Source/os_tmr.c **** *                                 OS_ERR_NONE
 200:..\..\..\..\..\..\Software\uCOS-III\Source/os_tmr.c **** *                                 OS_ERR_OBJ_TYPE             'p_tmr' is not pointing to a timer
 201:..\..\..\..\..\..\Software\uCOS-III\Source/os_tmr.c **** *                                 OS_ERR_TMR_INVALID          'p_tmr' is a NULL pointer
 202:..\..\..\..\..\..\Software\uCOS-III\Source/os_tmr.c **** *                                 OS_ERR_TMR_ISR              if the function was called from an IS
 203:..\..\..\..\..\..\Software\uCOS-III\Source/os_tmr.c **** *                                 OS_ERR_TMR_INACTIVE         if the timer was not created
 204:..\..\..\..\..\..\Software\uCOS-III\Source/os_tmr.c **** *                                 OS_ERR_TMR_INVALID_STATE    the timer is in an invalid state
 205:..\..\..\..\..\..\Software\uCOS-III\Source/os_tmr.c **** *
 206:..\..\..\..\..\..\Software\uCOS-III\Source/os_tmr.c **** * Returns    : DEF_TRUE   if the timer was deleted
 207:..\..\..\..\..\..\Software\uCOS-III\Source/os_tmr.c **** *              DEF_FALSE  if not or upon an error
 208:..\..\..\..\..\..\Software\uCOS-III\Source/os_tmr.c **** ***************************************************************************************************
 209:..\..\..\..\..\..\Software\uCOS-III\Source/os_tmr.c **** */
 210:..\..\..\..\..\..\Software\uCOS-III\Source/os_tmr.c **** 
 211:..\..\..\..\..\..\Software\uCOS-III\Source/os_tmr.c **** #if OS_CFG_TMR_DEL_EN > 0u
 212:..\..\..\..\..\..\Software\uCOS-III\Source/os_tmr.c **** CPU_BOOLEAN  OSTmrDel (OS_TMR  *p_tmr,
 213:..\..\..\..\..\..\Software\uCOS-III\Source/os_tmr.c ****                        OS_ERR  *p_err)
 214:..\..\..\..\..\..\Software\uCOS-III\Source/os_tmr.c **** {
 215:..\..\..\..\..\..\Software\uCOS-III\Source/os_tmr.c ****     OS_ERR       err;
 216:..\..\..\..\..\..\Software\uCOS-III\Source/os_tmr.c ****     CPU_BOOLEAN  success;
 217:..\..\..\..\..\..\Software\uCOS-III\Source/os_tmr.c **** 
 218:..\..\..\..\..\..\Software\uCOS-III\Source/os_tmr.c **** 
 219:..\..\..\..\..\..\Software\uCOS-III\Source/os_tmr.c **** 
 220:..\..\..\..\..\..\Software\uCOS-III\Source/os_tmr.c **** #ifdef OS_SAFETY_CRITICAL
 221:..\..\..\..\..\..\Software\uCOS-III\Source/os_tmr.c ****     if (p_err == (OS_ERR *)0) {
 222:..\..\..\..\..\..\Software\uCOS-III\Source/os_tmr.c ****         OS_SAFETY_CRITICAL_EXCEPTION();
 223:..\..\..\..\..\..\Software\uCOS-III\Source/os_tmr.c ****         return (DEF_FALSE);
 224:..\..\..\..\..\..\Software\uCOS-III\Source/os_tmr.c ****     }
 225:..\..\..\..\..\..\Software\uCOS-III\Source/os_tmr.c **** #endif
 226:..\..\..\..\..\..\Software\uCOS-III\Source/os_tmr.c **** 
 227:..\..\..\..\..\..\Software\uCOS-III\Source/os_tmr.c **** #if OS_CFG_CALLED_FROM_ISR_CHK_EN > 0u
 228:..\..\..\..\..\..\Software\uCOS-III\Source/os_tmr.c ****     if (OSIntNestingCtr > (OS_NESTING_CTR)0) {              /* See if trying to call from an ISR   
 229:..\..\..\..\..\..\Software\uCOS-III\Source/os_tmr.c ****        *p_err  = OS_ERR_TMR_ISR;
 230:..\..\..\..\..\..\Software\uCOS-III\Source/os_tmr.c ****         return (DEF_FALSE);
 231:..\..\..\..\..\..\Software\uCOS-III\Source/os_tmr.c ****     }
 232:..\..\..\..\..\..\Software\uCOS-III\Source/os_tmr.c **** #endif
 233:..\..\..\..\..\..\Software\uCOS-III\Source/os_tmr.c **** 
 234:..\..\..\..\..\..\Software\uCOS-III\Source/os_tmr.c **** #if OS_CFG_ARG_CHK_EN > 0u
 235:..\..\..\..\..\..\Software\uCOS-III\Source/os_tmr.c ****     if (p_tmr == (OS_TMR *)0) {
 236:..\..\..\..\..\..\Software\uCOS-III\Source/os_tmr.c ****        *p_err = OS_ERR_TMR_INVALID;
 237:..\..\..\..\..\..\Software\uCOS-III\Source/os_tmr.c ****         return (DEF_FALSE);
ARM GAS  C:\Users\EDULU~1.DES\AppData\Local\Temp\ccsWe06d.s 			page 9


 238:..\..\..\..\..\..\Software\uCOS-III\Source/os_tmr.c ****     }
 239:..\..\..\..\..\..\Software\uCOS-III\Source/os_tmr.c **** #endif
 240:..\..\..\..\..\..\Software\uCOS-III\Source/os_tmr.c **** 
 241:..\..\..\..\..\..\Software\uCOS-III\Source/os_tmr.c **** #if OS_CFG_OBJ_TYPE_CHK_EN > 0u
 242:..\..\..\..\..\..\Software\uCOS-III\Source/os_tmr.c ****     if (p_tmr->Type != OS_OBJ_TYPE_TMR) {                   /* Make sure timer was created         
 243:..\..\..\..\..\..\Software\uCOS-III\Source/os_tmr.c ****        *p_err = OS_ERR_OBJ_TYPE;
 244:..\..\..\..\..\..\Software\uCOS-III\Source/os_tmr.c ****         return (DEF_FALSE);
 245:..\..\..\..\..\..\Software\uCOS-III\Source/os_tmr.c ****     }
 246:..\..\..\..\..\..\Software\uCOS-III\Source/os_tmr.c **** #endif
 247:..\..\..\..\..\..\Software\uCOS-III\Source/os_tmr.c **** 
 248:..\..\..\..\..\..\Software\uCOS-III\Source/os_tmr.c ****     OSSchedLock(&err);
 249:..\..\..\..\..\..\Software\uCOS-III\Source/os_tmr.c **** #if OS_CFG_DBG_EN > 0u
 250:..\..\..\..\..\..\Software\uCOS-III\Source/os_tmr.c ****     OS_TmrDbgListRemove(p_tmr);
 251:..\..\..\..\..\..\Software\uCOS-III\Source/os_tmr.c **** #endif
 252:..\..\..\..\..\..\Software\uCOS-III\Source/os_tmr.c ****     OSTmrQty--;                                             /* One less timer                      
 253:..\..\..\..\..\..\Software\uCOS-III\Source/os_tmr.c **** 
 254:..\..\..\..\..\..\Software\uCOS-III\Source/os_tmr.c ****     switch (p_tmr->State) {
 255:..\..\..\..\..\..\Software\uCOS-III\Source/os_tmr.c ****         case OS_TMR_STATE_RUNNING:
 256:..\..\..\..\..\..\Software\uCOS-III\Source/os_tmr.c ****              OS_TmrUnlink(p_tmr);                           /* Remove from current wheel spoke     
 257:..\..\..\..\..\..\Software\uCOS-III\Source/os_tmr.c ****              OS_TmrClr(p_tmr);
 258:..\..\..\..\..\..\Software\uCOS-III\Source/os_tmr.c ****              OSSchedUnlock(&err);
 259:..\..\..\..\..\..\Software\uCOS-III\Source/os_tmr.c ****             *p_err   = OS_ERR_NONE;
 260:..\..\..\..\..\..\Software\uCOS-III\Source/os_tmr.c ****              success = DEF_TRUE;
 261:..\..\..\..\..\..\Software\uCOS-III\Source/os_tmr.c ****              break;
 262:..\..\..\..\..\..\Software\uCOS-III\Source/os_tmr.c **** 
 263:..\..\..\..\..\..\Software\uCOS-III\Source/os_tmr.c ****         case OS_TMR_STATE_STOPPED:                          /* Timer has not started or ...        
 264:..\..\..\..\..\..\Software\uCOS-III\Source/os_tmr.c ****         case OS_TMR_STATE_COMPLETED:                        /* ... timer has completed the ONE-SHOT
 265:..\..\..\..\..\..\Software\uCOS-III\Source/os_tmr.c ****              OS_TmrClr(p_tmr);                              /* Clear timer fields                  
 266:..\..\..\..\..\..\Software\uCOS-III\Source/os_tmr.c ****              OSSchedUnlock(&err);
 267:..\..\..\..\..\..\Software\uCOS-III\Source/os_tmr.c ****             *p_err   = OS_ERR_NONE;
 268:..\..\..\..\..\..\Software\uCOS-III\Source/os_tmr.c ****              success = DEF_TRUE;
 269:..\..\..\..\..\..\Software\uCOS-III\Source/os_tmr.c ****              break;
 270:..\..\..\..\..\..\Software\uCOS-III\Source/os_tmr.c ****              
 271:..\..\..\..\..\..\Software\uCOS-III\Source/os_tmr.c ****         case OS_TMR_STATE_UNUSED:                           /* Already deleted                     
 272:..\..\..\..\..\..\Software\uCOS-III\Source/os_tmr.c ****              OSSchedUnlock(&err);
 273:..\..\..\..\..\..\Software\uCOS-III\Source/os_tmr.c ****             *p_err   = OS_ERR_TMR_INACTIVE;
 274:..\..\..\..\..\..\Software\uCOS-III\Source/os_tmr.c ****              success = DEF_FALSE;
 275:..\..\..\..\..\..\Software\uCOS-III\Source/os_tmr.c ****              break;
 276:..\..\..\..\..\..\Software\uCOS-III\Source/os_tmr.c **** 
 277:..\..\..\..\..\..\Software\uCOS-III\Source/os_tmr.c ****         default:
 278:..\..\..\..\..\..\Software\uCOS-III\Source/os_tmr.c ****              OSSchedUnlock(&err);
 279:..\..\..\..\..\..\Software\uCOS-III\Source/os_tmr.c ****             *p_err   = OS_ERR_TMR_INVALID_STATE;
 280:..\..\..\..\..\..\Software\uCOS-III\Source/os_tmr.c ****              success = DEF_FALSE;
 281:..\..\..\..\..\..\Software\uCOS-III\Source/os_tmr.c ****              break;
 282:..\..\..\..\..\..\Software\uCOS-III\Source/os_tmr.c ****     }
 283:..\..\..\..\..\..\Software\uCOS-III\Source/os_tmr.c ****     return (success);
 284:..\..\..\..\..\..\Software\uCOS-III\Source/os_tmr.c **** }
 285:..\..\..\..\..\..\Software\uCOS-III\Source/os_tmr.c **** #endif
 286:..\..\..\..\..\..\Software\uCOS-III\Source/os_tmr.c **** 
 287:..\..\..\..\..\..\Software\uCOS-III\Source/os_tmr.c **** /*$PAGE*/
 288:..\..\..\..\..\..\Software\uCOS-III\Source/os_tmr.c **** /*
 289:..\..\..\..\..\..\Software\uCOS-III\Source/os_tmr.c **** ***************************************************************************************************
 290:..\..\..\..\..\..\Software\uCOS-III\Source/os_tmr.c **** *                                    GET HOW MUCH TIME IS LEFT BEFORE A TIMER EXPIRES
 291:..\..\..\..\..\..\Software\uCOS-III\Source/os_tmr.c **** *
 292:..\..\..\..\..\..\Software\uCOS-III\Source/os_tmr.c **** * Description: This function is called to get the number of ticks before a timer times out.
 293:..\..\..\..\..\..\Software\uCOS-III\Source/os_tmr.c **** *
 294:..\..\..\..\..\..\Software\uCOS-III\Source/os_tmr.c **** * Arguments  : p_tmr    Is a pointer to the timer to obtain the remaining time from.
ARM GAS  C:\Users\EDULU~1.DES\AppData\Local\Temp\ccsWe06d.s 			page 10


 295:..\..\..\..\..\..\Software\uCOS-III\Source/os_tmr.c **** *
 296:..\..\..\..\..\..\Software\uCOS-III\Source/os_tmr.c **** *              p_err    Is a pointer to an error code.  '*p_err' will contain one of the following:
 297:..\..\..\..\..\..\Software\uCOS-III\Source/os_tmr.c **** *
 298:..\..\..\..\..\..\Software\uCOS-III\Source/os_tmr.c **** *                           OS_ERR_NONE
 299:..\..\..\..\..\..\Software\uCOS-III\Source/os_tmr.c **** *                           OS_ERR_OBJ_TYPE           'p_tmr' is not pointing to a timer
 300:..\..\..\..\..\..\Software\uCOS-III\Source/os_tmr.c **** *                           OS_ERR_TMR_INVALID        'p_tmr' is a NULL pointer
 301:..\..\..\..\..\..\Software\uCOS-III\Source/os_tmr.c **** *                           OS_ERR_TMR_ISR            if the call was made from an ISR
 302:..\..\..\..\..\..\Software\uCOS-III\Source/os_tmr.c **** *                           OS_ERR_TMR_INACTIVE       'p_tmr' points to a timer that is not active
 303:..\..\..\..\..\..\Software\uCOS-III\Source/os_tmr.c **** *                           OS_ERR_TMR_INVALID_STATE  the timer is in an invalid state
 304:..\..\..\..\..\..\Software\uCOS-III\Source/os_tmr.c **** *
 305:..\..\..\..\..\..\Software\uCOS-III\Source/os_tmr.c **** * Returns    : The time remaining for the timer to expire.  The time represents 'timer' increments.
 306:..\..\..\..\..\..\Software\uCOS-III\Source/os_tmr.c **** *              OS_TmrTask() is signaled every 1/10 of a second then the returned value represents t
 307:..\..\..\..\..\..\Software\uCOS-III\Source/os_tmr.c **** *              a second remaining before the timer expires.
 308:..\..\..\..\..\..\Software\uCOS-III\Source/os_tmr.c **** ***************************************************************************************************
 309:..\..\..\..\..\..\Software\uCOS-III\Source/os_tmr.c **** */
 310:..\..\..\..\..\..\Software\uCOS-III\Source/os_tmr.c **** 
 311:..\..\..\..\..\..\Software\uCOS-III\Source/os_tmr.c **** OS_TICK  OSTmrRemainGet (OS_TMR  *p_tmr,
 312:..\..\..\..\..\..\Software\uCOS-III\Source/os_tmr.c ****                          OS_ERR  *p_err)
 313:..\..\..\..\..\..\Software\uCOS-III\Source/os_tmr.c **** {
 218              		.loc 1 313 0
 219              		.cfi_startproc
 220              		@ args = 0, pretend = 0, frame = 16
 221              		@ frame_needed = 1, uses_anonymous_args = 0
 222 0000 80B5     		push	{r7, lr}
 223              		.cfi_def_cfa_offset 8
 224              		.cfi_offset 7, -8
 225              		.cfi_offset 14, -4
 226 0002 84B0     		sub	sp, sp, #16
 227              		.cfi_def_cfa_offset 24
 228 0004 00AF     		add	r7, sp, #0
 229              		.cfi_def_cfa_register 7
 230 0006 7860     		str	r0, [r7, #4]
 231 0008 3960     		str	r1, [r7]
 314:..\..\..\..\..\..\Software\uCOS-III\Source/os_tmr.c ****     OS_TICK  remain;
 315:..\..\..\..\..\..\Software\uCOS-III\Source/os_tmr.c ****     OS_ERR   err;
 316:..\..\..\..\..\..\Software\uCOS-III\Source/os_tmr.c **** 
 317:..\..\..\..\..\..\Software\uCOS-III\Source/os_tmr.c **** 
 318:..\..\..\..\..\..\Software\uCOS-III\Source/os_tmr.c **** 
 319:..\..\..\..\..\..\Software\uCOS-III\Source/os_tmr.c **** #ifdef OS_SAFETY_CRITICAL
 320:..\..\..\..\..\..\Software\uCOS-III\Source/os_tmr.c ****     if (p_err == (OS_ERR *)0) {
 321:..\..\..\..\..\..\Software\uCOS-III\Source/os_tmr.c ****         OS_SAFETY_CRITICAL_EXCEPTION();
 322:..\..\..\..\..\..\Software\uCOS-III\Source/os_tmr.c ****         return ((OS_TICK)0);
 323:..\..\..\..\..\..\Software\uCOS-III\Source/os_tmr.c ****     }
 324:..\..\..\..\..\..\Software\uCOS-III\Source/os_tmr.c **** #endif
 325:..\..\..\..\..\..\Software\uCOS-III\Source/os_tmr.c **** 
 326:..\..\..\..\..\..\Software\uCOS-III\Source/os_tmr.c **** #if OS_CFG_CALLED_FROM_ISR_CHK_EN > 0u
 327:..\..\..\..\..\..\Software\uCOS-III\Source/os_tmr.c ****     if (OSIntNestingCtr > (OS_NESTING_CTR)0) {              /* See if trying to call from an ISR   
 232              		.loc 1 327 0
 233 000a 3D4B     		ldr	r3, .L32
 234 000c 1B78     		ldrb	r3, [r3]
 235 000e 002B     		cmp	r3, #0
 236 0010 04D0     		beq	.L17
 328:..\..\..\..\..\..\Software\uCOS-III\Source/os_tmr.c ****        *p_err = OS_ERR_TMR_ISR;
 237              		.loc 1 328 0
 238 0012 3B68     		ldr	r3, [r7]
 239 0014 3B4A     		ldr	r2, .L32+4
 240 0016 1A80     		strh	r2, [r3]
ARM GAS  C:\Users\EDULU~1.DES\AppData\Local\Temp\ccsWe06d.s 			page 11


 329:..\..\..\..\..\..\Software\uCOS-III\Source/os_tmr.c ****         return ((OS_TICK)0);
 241              		.loc 1 329 0
 242 0018 0023     		movs	r3, #0
 243 001a 6DE0     		b	.L31
 244              	.L17:
 330:..\..\..\..\..\..\Software\uCOS-III\Source/os_tmr.c ****     }
 331:..\..\..\..\..\..\Software\uCOS-III\Source/os_tmr.c **** #endif
 332:..\..\..\..\..\..\Software\uCOS-III\Source/os_tmr.c **** 
 333:..\..\..\..\..\..\Software\uCOS-III\Source/os_tmr.c **** #if OS_CFG_ARG_CHK_EN > 0u
 334:..\..\..\..\..\..\Software\uCOS-III\Source/os_tmr.c ****     if (p_tmr == (OS_TMR *)0) {
 245              		.loc 1 334 0
 246 001c 7B68     		ldr	r3, [r7, #4]
 247 001e 002B     		cmp	r3, #0
 248 0020 04D1     		bne	.L19
 335:..\..\..\..\..\..\Software\uCOS-III\Source/os_tmr.c ****        *p_err = OS_ERR_TMR_INVALID;
 249              		.loc 1 335 0
 250 0022 3B68     		ldr	r3, [r7]
 251 0024 384A     		ldr	r2, .L32+8
 252 0026 1A80     		strh	r2, [r3]
 336:..\..\..\..\..\..\Software\uCOS-III\Source/os_tmr.c ****         return ((OS_TICK)0);
 253              		.loc 1 336 0
 254 0028 0023     		movs	r3, #0
 255 002a 65E0     		b	.L31
 256              	.L19:
 337:..\..\..\..\..\..\Software\uCOS-III\Source/os_tmr.c ****     }
 338:..\..\..\..\..\..\Software\uCOS-III\Source/os_tmr.c **** #endif
 339:..\..\..\..\..\..\Software\uCOS-III\Source/os_tmr.c **** 
 340:..\..\..\..\..\..\Software\uCOS-III\Source/os_tmr.c **** #if OS_CFG_OBJ_TYPE_CHK_EN > 0u
 341:..\..\..\..\..\..\Software\uCOS-III\Source/os_tmr.c ****     if (p_tmr->Type != OS_OBJ_TYPE_TMR) {                   /* Make sure timer was created         
 342:..\..\..\..\..\..\Software\uCOS-III\Source/os_tmr.c ****        *p_err = OS_ERR_OBJ_TYPE;
 343:..\..\..\..\..\..\Software\uCOS-III\Source/os_tmr.c ****         return ((OS_TICK)0);
 344:..\..\..\..\..\..\Software\uCOS-III\Source/os_tmr.c ****     }
 345:..\..\..\..\..\..\Software\uCOS-III\Source/os_tmr.c **** #endif
 346:..\..\..\..\..\..\Software\uCOS-III\Source/os_tmr.c **** 
 347:..\..\..\..\..\..\Software\uCOS-III\Source/os_tmr.c ****     OSSchedLock(&err);
 257              		.loc 1 347 0
 258 002c 0A23     		movs	r3, #10
 259 002e FB18     		adds	r3, r7, r3
 260 0030 1800     		movs	r0, r3
 261 0032 FFF7FEFF 		bl	OSSchedLock
 348:..\..\..\..\..\..\Software\uCOS-III\Source/os_tmr.c ****     switch (p_tmr->State) {
 262              		.loc 1 348 0
 263 0036 7B68     		ldr	r3, [r7, #4]
 264 0038 2A22     		movs	r2, #42
 265 003a 9B5C     		ldrb	r3, [r3, r2]
 266 003c 012B     		cmp	r3, #1
 267 003e 1AD0     		beq	.L21
 268 0040 02DC     		bgt	.L22
 269 0042 002B     		cmp	r3, #0
 270 0044 41D0     		beq	.L23
 271 0046 4BE0     		b	.L20
 272              	.L22:
 273 0048 022B     		cmp	r3, #2
 274 004a 02D0     		beq	.L24
 275 004c 032B     		cmp	r3, #3
 276 004e 31D0     		beq	.L25
 277 0050 46E0     		b	.L20
ARM GAS  C:\Users\EDULU~1.DES\AppData\Local\Temp\ccsWe06d.s 			page 12


 278              	.L24:
 349:..\..\..\..\..\..\Software\uCOS-III\Source/os_tmr.c ****         case OS_TMR_STATE_RUNNING:
 350:..\..\..\..\..\..\Software\uCOS-III\Source/os_tmr.c ****              remain        = p_tmr->Match                   /* Determine how much time is left to t
 279              		.loc 1 350 0
 280 0052 7B68     		ldr	r3, [r7, #4]
 281 0054 9A69     		ldr	r2, [r3, #24]
 351:..\..\..\..\..\..\Software\uCOS-III\Source/os_tmr.c ****                            - OSTmrTickCtr;
 282              		.loc 1 351 0
 283 0056 2D4B     		ldr	r3, .L32+12
 284 0058 1B68     		ldr	r3, [r3]
 350:..\..\..\..\..\..\Software\uCOS-III\Source/os_tmr.c ****                            - OSTmrTickCtr;
 285              		.loc 1 350 0
 286 005a D31A     		subs	r3, r2, r3
 287 005c FB60     		str	r3, [r7, #12]
 352:..\..\..\..\..\..\Software\uCOS-III\Source/os_tmr.c ****              p_tmr->Remain = remain;
 288              		.loc 1 352 0
 289 005e 7B68     		ldr	r3, [r7, #4]
 290 0060 FA68     		ldr	r2, [r7, #12]
 291 0062 DA61     		str	r2, [r3, #28]
 353:..\..\..\..\..\..\Software\uCOS-III\Source/os_tmr.c ****              OSSchedUnlock(&err);
 292              		.loc 1 353 0
 293 0064 0A23     		movs	r3, #10
 294 0066 FB18     		adds	r3, r7, r3
 295 0068 1800     		movs	r0, r3
 296 006a FFF7FEFF 		bl	OSSchedUnlock
 354:..\..\..\..\..\..\Software\uCOS-III\Source/os_tmr.c ****             *p_err         = OS_ERR_NONE;
 297              		.loc 1 354 0
 298 006e 3B68     		ldr	r3, [r7]
 299 0070 0022     		movs	r2, #0
 300 0072 1A80     		strh	r2, [r3]
 355:..\..\..\..\..\..\Software\uCOS-III\Source/os_tmr.c ****              break;
 301              		.loc 1 355 0
 302 0074 3FE0     		b	.L26
 303              	.L21:
 356:..\..\..\..\..\..\Software\uCOS-III\Source/os_tmr.c **** 
 357:..\..\..\..\..\..\Software\uCOS-III\Source/os_tmr.c ****         case OS_TMR_STATE_STOPPED:                          /* It's assumed that the timer has not 
 358:..\..\..\..\..\..\Software\uCOS-III\Source/os_tmr.c ****              if (p_tmr->Opt == OS_OPT_TMR_PERIODIC) {
 304              		.loc 1 358 0
 305 0076 7B68     		ldr	r3, [r7, #4]
 306 0078 1B8D     		ldrh	r3, [r3, #40]
 307 007a 022B     		cmp	r3, #2
 308 007c 0BD1     		bne	.L27
 359:..\..\..\..\..\..\Software\uCOS-III\Source/os_tmr.c ****                  if (p_tmr->Dly == 0u) {
 309              		.loc 1 359 0
 310 007e 7B68     		ldr	r3, [r7, #4]
 311 0080 1B6A     		ldr	r3, [r3, #32]
 312 0082 002B     		cmp	r3, #0
 313 0084 03D1     		bne	.L28
 360:..\..\..\..\..\..\Software\uCOS-III\Source/os_tmr.c ****                      remain = p_tmr->Period;
 314              		.loc 1 360 0
 315 0086 7B68     		ldr	r3, [r7, #4]
 316 0088 5B6A     		ldr	r3, [r3, #36]
 317 008a FB60     		str	r3, [r7, #12]
 318 008c 06E0     		b	.L30
 319              	.L28:
 361:..\..\..\..\..\..\Software\uCOS-III\Source/os_tmr.c ****                  } else {
 362:..\..\..\..\..\..\Software\uCOS-III\Source/os_tmr.c ****                      remain = p_tmr->Dly;
ARM GAS  C:\Users\EDULU~1.DES\AppData\Local\Temp\ccsWe06d.s 			page 13


 320              		.loc 1 362 0
 321 008e 7B68     		ldr	r3, [r7, #4]
 322 0090 1B6A     		ldr	r3, [r3, #32]
 323 0092 FB60     		str	r3, [r7, #12]
 324 0094 02E0     		b	.L30
 325              	.L27:
 363:..\..\..\..\..\..\Software\uCOS-III\Source/os_tmr.c ****                  }
 364:..\..\..\..\..\..\Software\uCOS-III\Source/os_tmr.c ****              } else {
 365:..\..\..\..\..\..\Software\uCOS-III\Source/os_tmr.c ****                  remain = p_tmr->Dly;
 326              		.loc 1 365 0
 327 0096 7B68     		ldr	r3, [r7, #4]
 328 0098 1B6A     		ldr	r3, [r3, #32]
 329 009a FB60     		str	r3, [r7, #12]
 330              	.L30:
 366:..\..\..\..\..\..\Software\uCOS-III\Source/os_tmr.c ****              }
 367:..\..\..\..\..\..\Software\uCOS-III\Source/os_tmr.c ****              p_tmr->Remain = remain;
 331              		.loc 1 367 0
 332 009c 7B68     		ldr	r3, [r7, #4]
 333 009e FA68     		ldr	r2, [r7, #12]
 334 00a0 DA61     		str	r2, [r3, #28]
 368:..\..\..\..\..\..\Software\uCOS-III\Source/os_tmr.c ****              OSSchedUnlock(&err);
 335              		.loc 1 368 0
 336 00a2 0A23     		movs	r3, #10
 337 00a4 FB18     		adds	r3, r7, r3
 338 00a6 1800     		movs	r0, r3
 339 00a8 FFF7FEFF 		bl	OSSchedUnlock
 369:..\..\..\..\..\..\Software\uCOS-III\Source/os_tmr.c ****             *p_err         = OS_ERR_NONE;
 340              		.loc 1 369 0
 341 00ac 3B68     		ldr	r3, [r7]
 342 00ae 0022     		movs	r2, #0
 343 00b0 1A80     		strh	r2, [r3]
 370:..\..\..\..\..\..\Software\uCOS-III\Source/os_tmr.c ****              break;
 344              		.loc 1 370 0
 345 00b2 20E0     		b	.L26
 346              	.L25:
 371:..\..\..\..\..\..\Software\uCOS-III\Source/os_tmr.c **** 
 372:..\..\..\..\..\..\Software\uCOS-III\Source/os_tmr.c ****         case OS_TMR_STATE_COMPLETED:                        /* Only ONE-SHOT that timed out can be 
 373:..\..\..\..\..\..\Software\uCOS-III\Source/os_tmr.c ****              OSSchedUnlock(&err);
 347              		.loc 1 373 0
 348 00b4 0A23     		movs	r3, #10
 349 00b6 FB18     		adds	r3, r7, r3
 350 00b8 1800     		movs	r0, r3
 351 00ba FFF7FEFF 		bl	OSSchedUnlock
 374:..\..\..\..\..\..\Software\uCOS-III\Source/os_tmr.c ****             *p_err  = OS_ERR_NONE;
 352              		.loc 1 374 0
 353 00be 3B68     		ldr	r3, [r7]
 354 00c0 0022     		movs	r2, #0
 355 00c2 1A80     		strh	r2, [r3]
 375:..\..\..\..\..\..\Software\uCOS-III\Source/os_tmr.c ****              remain = (OS_TICK)0;
 356              		.loc 1 375 0
 357 00c4 0023     		movs	r3, #0
 358 00c6 FB60     		str	r3, [r7, #12]
 376:..\..\..\..\..\..\Software\uCOS-III\Source/os_tmr.c ****              break;
 359              		.loc 1 376 0
 360 00c8 15E0     		b	.L26
 361              	.L23:
 377:..\..\..\..\..\..\Software\uCOS-III\Source/os_tmr.c **** 
ARM GAS  C:\Users\EDULU~1.DES\AppData\Local\Temp\ccsWe06d.s 			page 14


 378:..\..\..\..\..\..\Software\uCOS-III\Source/os_tmr.c ****         case OS_TMR_STATE_UNUSED:
 379:..\..\..\..\..\..\Software\uCOS-III\Source/os_tmr.c ****              OSSchedUnlock(&err);
 362              		.loc 1 379 0
 363 00ca 0A23     		movs	r3, #10
 364 00cc FB18     		adds	r3, r7, r3
 365 00ce 1800     		movs	r0, r3
 366 00d0 FFF7FEFF 		bl	OSSchedUnlock
 380:..\..\..\..\..\..\Software\uCOS-III\Source/os_tmr.c ****             *p_err  = OS_ERR_TMR_INACTIVE;
 367              		.loc 1 380 0
 368 00d4 3B68     		ldr	r3, [r7]
 369 00d6 0E4A     		ldr	r2, .L32+16
 370 00d8 1A80     		strh	r2, [r3]
 381:..\..\..\..\..\..\Software\uCOS-III\Source/os_tmr.c ****              remain = (OS_TICK)0;
 371              		.loc 1 381 0
 372 00da 0023     		movs	r3, #0
 373 00dc FB60     		str	r3, [r7, #12]
 382:..\..\..\..\..\..\Software\uCOS-III\Source/os_tmr.c ****              break;
 374              		.loc 1 382 0
 375 00de 0AE0     		b	.L26
 376              	.L20:
 383:..\..\..\..\..\..\Software\uCOS-III\Source/os_tmr.c **** 
 384:..\..\..\..\..\..\Software\uCOS-III\Source/os_tmr.c ****         default:
 385:..\..\..\..\..\..\Software\uCOS-III\Source/os_tmr.c ****              OSSchedUnlock(&err);
 377              		.loc 1 385 0
 378 00e0 0A23     		movs	r3, #10
 379 00e2 FB18     		adds	r3, r7, r3
 380 00e4 1800     		movs	r0, r3
 381 00e6 FFF7FEFF 		bl	OSSchedUnlock
 386:..\..\..\..\..\..\Software\uCOS-III\Source/os_tmr.c ****             *p_err = OS_ERR_TMR_INVALID_STATE;
 382              		.loc 1 386 0
 383 00ea 3B68     		ldr	r3, [r7]
 384 00ec 094A     		ldr	r2, .L32+20
 385 00ee 1A80     		strh	r2, [r3]
 387:..\..\..\..\..\..\Software\uCOS-III\Source/os_tmr.c ****              remain = (OS_TICK)0;
 386              		.loc 1 387 0
 387 00f0 0023     		movs	r3, #0
 388 00f2 FB60     		str	r3, [r7, #12]
 388:..\..\..\..\..\..\Software\uCOS-III\Source/os_tmr.c ****              break;
 389              		.loc 1 388 0
 390 00f4 C046     		nop
 391              	.L26:
 389:..\..\..\..\..\..\Software\uCOS-III\Source/os_tmr.c ****     }
 390:..\..\..\..\..\..\Software\uCOS-III\Source/os_tmr.c ****     return (remain);
 392              		.loc 1 390 0
 393 00f6 FB68     		ldr	r3, [r7, #12]
 394              	.L31:
 391:..\..\..\..\..\..\Software\uCOS-III\Source/os_tmr.c **** }
 395              		.loc 1 391 0 discriminator 1
 396 00f8 1800     		movs	r0, r3
 397 00fa BD46     		mov	sp, r7
 398 00fc 04B0     		add	sp, sp, #16
 399              		@ sp needed
 400 00fe 80BD     		pop	{r7, pc}
 401              	.L33:
 402              		.align	2
 403              	.L32:
 404 0100 00000000 		.word	OSIntNestingCtr
ARM GAS  C:\Users\EDULU~1.DES\AppData\Local\Temp\ccsWe06d.s 			page 15


 405 0104 43730000 		.word	29507
 406 0108 42730000 		.word	29506
 407 010c 00000000 		.word	OSTmrTickCtr
 408 0110 3D730000 		.word	29501
 409 0114 41730000 		.word	29505
 410              		.cfi_endproc
 411              	.LFE2:
 412              		.size	OSTmrRemainGet, .-OSTmrRemainGet
 413              		.section	.text.OSTmrStart,"ax",%progbits
 414              		.align	2
 415              		.global	OSTmrStart
 416              		.code	16
 417              		.thumb_func
 418              		.type	OSTmrStart, %function
 419              	OSTmrStart:
 420              	.LFB3:
 392:..\..\..\..\..\..\Software\uCOS-III\Source/os_tmr.c **** 
 393:..\..\..\..\..\..\Software\uCOS-III\Source/os_tmr.c **** /*$PAGE*/
 394:..\..\..\..\..\..\Software\uCOS-III\Source/os_tmr.c **** /*
 395:..\..\..\..\..\..\Software\uCOS-III\Source/os_tmr.c **** ***************************************************************************************************
 396:..\..\..\..\..\..\Software\uCOS-III\Source/os_tmr.c **** *                                                   START A TIMER
 397:..\..\..\..\..\..\Software\uCOS-III\Source/os_tmr.c **** *
 398:..\..\..\..\..\..\Software\uCOS-III\Source/os_tmr.c **** * Description: This function is called by your application code to start a timer.
 399:..\..\..\..\..\..\Software\uCOS-III\Source/os_tmr.c **** *
 400:..\..\..\..\..\..\Software\uCOS-III\Source/os_tmr.c **** * Arguments  : p_tmr    Is a pointer to an OS_TMR
 401:..\..\..\..\..\..\Software\uCOS-III\Source/os_tmr.c **** *
 402:..\..\..\..\..\..\Software\uCOS-III\Source/os_tmr.c **** *              p_err    Is a pointer to an error code.  '*p_err' will contain one of the following:
 403:..\..\..\..\..\..\Software\uCOS-III\Source/os_tmr.c **** *
 404:..\..\..\..\..\..\Software\uCOS-III\Source/os_tmr.c **** *                           OS_ERR_NONE
 405:..\..\..\..\..\..\Software\uCOS-III\Source/os_tmr.c **** *                           OS_ERR_OBJ_TYPE            if 'p_tmr' is not pointing to a timer
 406:..\..\..\..\..\..\Software\uCOS-III\Source/os_tmr.c **** *                           OS_ERR_TMR_INVALID
 407:..\..\..\..\..\..\Software\uCOS-III\Source/os_tmr.c **** *                           OS_ERR_TMR_INACTIVE        if the timer was not created
 408:..\..\..\..\..\..\Software\uCOS-III\Source/os_tmr.c **** *                           OS_ERR_TMR_INVALID_STATE   the timer is in an invalid state
 409:..\..\..\..\..\..\Software\uCOS-III\Source/os_tmr.c **** *                           OS_ERR_TMR_ISR             if the call was made from an ISR
 410:..\..\..\..\..\..\Software\uCOS-III\Source/os_tmr.c **** *
 411:..\..\..\..\..\..\Software\uCOS-III\Source/os_tmr.c **** * Returns    : DEF_TRUE      is the timer was started
 412:..\..\..\..\..\..\Software\uCOS-III\Source/os_tmr.c **** *              DEF_FALSE     if not or upon an error
 413:..\..\..\..\..\..\Software\uCOS-III\Source/os_tmr.c **** *
 414:..\..\..\..\..\..\Software\uCOS-III\Source/os_tmr.c **** * Note(s)    : 1) When starting/restarting a timer, regardless if it is in PERIODIC or ONE-SHOT mod
 415:..\..\..\..\..\..\Software\uCOS-III\Source/os_tmr.c **** *                 linked to the timer wheel with the OS_OPT_LINK_DLY option. This option sets the i
 416:..\..\..\..\..\..\Software\uCOS-III\Source/os_tmr.c **** *                 time for the timer. For timers in PERIODIC mode, subsequent expiration times are 
 417:..\..\..\..\..\..\Software\uCOS-III\Source/os_tmr.c **** *                 the OS_TmrTask().
 418:..\..\..\..\..\..\Software\uCOS-III\Source/os_tmr.c **** ***************************************************************************************************
 419:..\..\..\..\..\..\Software\uCOS-III\Source/os_tmr.c **** */
 420:..\..\..\..\..\..\Software\uCOS-III\Source/os_tmr.c **** 
 421:..\..\..\..\..\..\Software\uCOS-III\Source/os_tmr.c **** CPU_BOOLEAN  OSTmrStart (OS_TMR  *p_tmr,
 422:..\..\..\..\..\..\Software\uCOS-III\Source/os_tmr.c ****                          OS_ERR  *p_err)
 423:..\..\..\..\..\..\Software\uCOS-III\Source/os_tmr.c **** {
 421              		.loc 1 423 0
 422              		.cfi_startproc
 423              		@ args = 0, pretend = 0, frame = 16
 424              		@ frame_needed = 1, uses_anonymous_args = 0
 425 0000 80B5     		push	{r7, lr}
 426              		.cfi_def_cfa_offset 8
 427              		.cfi_offset 7, -8
 428              		.cfi_offset 14, -4
 429 0002 84B0     		sub	sp, sp, #16
ARM GAS  C:\Users\EDULU~1.DES\AppData\Local\Temp\ccsWe06d.s 			page 16


 430              		.cfi_def_cfa_offset 24
 431 0004 00AF     		add	r7, sp, #0
 432              		.cfi_def_cfa_register 7
 433 0006 7860     		str	r0, [r7, #4]
 434 0008 3960     		str	r1, [r7]
 424:..\..\..\..\..\..\Software\uCOS-III\Source/os_tmr.c ****     OS_ERR       err;
 425:..\..\..\..\..\..\Software\uCOS-III\Source/os_tmr.c ****     CPU_BOOLEAN  success;
 426:..\..\..\..\..\..\Software\uCOS-III\Source/os_tmr.c **** 
 427:..\..\..\..\..\..\Software\uCOS-III\Source/os_tmr.c **** 
 428:..\..\..\..\..\..\Software\uCOS-III\Source/os_tmr.c **** 
 429:..\..\..\..\..\..\Software\uCOS-III\Source/os_tmr.c **** #ifdef OS_SAFETY_CRITICAL
 430:..\..\..\..\..\..\Software\uCOS-III\Source/os_tmr.c ****     if (p_err == (OS_ERR *)0) {
 431:..\..\..\..\..\..\Software\uCOS-III\Source/os_tmr.c ****         OS_SAFETY_CRITICAL_EXCEPTION();
 432:..\..\..\..\..\..\Software\uCOS-III\Source/os_tmr.c ****         return (DEF_FALSE);
 433:..\..\..\..\..\..\Software\uCOS-III\Source/os_tmr.c ****     }
 434:..\..\..\..\..\..\Software\uCOS-III\Source/os_tmr.c **** #endif
 435:..\..\..\..\..\..\Software\uCOS-III\Source/os_tmr.c **** 
 436:..\..\..\..\..\..\Software\uCOS-III\Source/os_tmr.c **** #if OS_CFG_CALLED_FROM_ISR_CHK_EN > 0u
 437:..\..\..\..\..\..\Software\uCOS-III\Source/os_tmr.c ****     if (OSIntNestingCtr > (OS_NESTING_CTR)0) {              /* See if trying to call from an ISR   
 435              		.loc 1 437 0
 436 000a 364B     		ldr	r3, .L45
 437 000c 1B78     		ldrb	r3, [r3]
 438 000e 002B     		cmp	r3, #0
 439 0010 04D0     		beq	.L35
 438:..\..\..\..\..\..\Software\uCOS-III\Source/os_tmr.c ****        *p_err = OS_ERR_TMR_ISR;
 440              		.loc 1 438 0
 441 0012 3B68     		ldr	r3, [r7]
 442 0014 344A     		ldr	r2, .L45+4
 443 0016 1A80     		strh	r2, [r3]
 439:..\..\..\..\..\..\Software\uCOS-III\Source/os_tmr.c ****         return (DEF_FALSE);
 444              		.loc 1 439 0
 445 0018 0023     		movs	r3, #0
 446 001a 5FE0     		b	.L44
 447              	.L35:
 440:..\..\..\..\..\..\Software\uCOS-III\Source/os_tmr.c ****     }
 441:..\..\..\..\..\..\Software\uCOS-III\Source/os_tmr.c **** #endif
 442:..\..\..\..\..\..\Software\uCOS-III\Source/os_tmr.c **** 
 443:..\..\..\..\..\..\Software\uCOS-III\Source/os_tmr.c **** #if OS_CFG_ARG_CHK_EN > 0u
 444:..\..\..\..\..\..\Software\uCOS-III\Source/os_tmr.c ****     if (p_tmr == (OS_TMR *)0) {
 448              		.loc 1 444 0
 449 001c 7B68     		ldr	r3, [r7, #4]
 450 001e 002B     		cmp	r3, #0
 451 0020 04D1     		bne	.L37
 445:..\..\..\..\..\..\Software\uCOS-III\Source/os_tmr.c ****        *p_err = OS_ERR_TMR_INVALID;
 452              		.loc 1 445 0
 453 0022 3B68     		ldr	r3, [r7]
 454 0024 314A     		ldr	r2, .L45+8
 455 0026 1A80     		strh	r2, [r3]
 446:..\..\..\..\..\..\Software\uCOS-III\Source/os_tmr.c ****         return (DEF_FALSE);
 456              		.loc 1 446 0
 457 0028 0023     		movs	r3, #0
 458 002a 57E0     		b	.L44
 459              	.L37:
 447:..\..\..\..\..\..\Software\uCOS-III\Source/os_tmr.c ****     }
 448:..\..\..\..\..\..\Software\uCOS-III\Source/os_tmr.c **** #endif
 449:..\..\..\..\..\..\Software\uCOS-III\Source/os_tmr.c **** 
 450:..\..\..\..\..\..\Software\uCOS-III\Source/os_tmr.c **** #if OS_CFG_OBJ_TYPE_CHK_EN > 0u
ARM GAS  C:\Users\EDULU~1.DES\AppData\Local\Temp\ccsWe06d.s 			page 17


 451:..\..\..\..\..\..\Software\uCOS-III\Source/os_tmr.c ****     if (p_tmr->Type != OS_OBJ_TYPE_TMR) {                   /* Make sure timer was created         
 452:..\..\..\..\..\..\Software\uCOS-III\Source/os_tmr.c ****        *p_err = OS_ERR_OBJ_TYPE;
 453:..\..\..\..\..\..\Software\uCOS-III\Source/os_tmr.c ****         return (DEF_FALSE);
 454:..\..\..\..\..\..\Software\uCOS-III\Source/os_tmr.c ****     }
 455:..\..\..\..\..\..\Software\uCOS-III\Source/os_tmr.c **** #endif
 456:..\..\..\..\..\..\Software\uCOS-III\Source/os_tmr.c **** 
 457:..\..\..\..\..\..\Software\uCOS-III\Source/os_tmr.c ****     OSSchedLock(&err);
 460              		.loc 1 457 0
 461 002c 0C23     		movs	r3, #12
 462 002e FB18     		adds	r3, r7, r3
 463 0030 1800     		movs	r0, r3
 464 0032 FFF7FEFF 		bl	OSSchedLock
 458:..\..\..\..\..\..\Software\uCOS-III\Source/os_tmr.c ****     switch (p_tmr->State) {
 465              		.loc 1 458 0
 466 0036 7B68     		ldr	r3, [r7, #4]
 467 0038 2A22     		movs	r2, #42
 468 003a 9B5C     		ldrb	r3, [r3, r2]
 469 003c 012B     		cmp	r3, #1
 470 003e 1ED0     		beq	.L39
 471 0040 02DC     		bgt	.L40
 472 0042 002B     		cmp	r3, #0
 473 0044 2DD0     		beq	.L41
 474 0046 39E0     		b	.L38
 475              	.L40:
 476 0048 022B     		cmp	r3, #2
 477 004a 02D0     		beq	.L42
 478 004c 032B     		cmp	r3, #3
 479 004e 16D0     		beq	.L39
 480 0050 34E0     		b	.L38
 481              	.L42:
 459:..\..\..\..\..\..\Software\uCOS-III\Source/os_tmr.c ****         case OS_TMR_STATE_RUNNING:                          /* Restart the timer                   
 460:..\..\..\..\..\..\Software\uCOS-III\Source/os_tmr.c ****              OS_TmrUnlink(p_tmr);                           /* ... Stop the timer                  
 482              		.loc 1 460 0
 483 0052 7B68     		ldr	r3, [r7, #4]
 484 0054 1800     		movs	r0, r3
 485 0056 FFF7FEFF 		bl	OS_TmrUnlink
 461:..\..\..\..\..\..\Software\uCOS-III\Source/os_tmr.c ****              OS_TmrLink(p_tmr, OS_OPT_LINK_DLY);            /* ... Link timer to timer wheel (see N
 486              		.loc 1 461 0
 487 005a 7B68     		ldr	r3, [r7, #4]
 488 005c 0021     		movs	r1, #0
 489 005e 1800     		movs	r0, r3
 490 0060 FFF7FEFF 		bl	OS_TmrLink
 462:..\..\..\..\..\..\Software\uCOS-III\Source/os_tmr.c ****              OSSchedUnlock(&err);
 491              		.loc 1 462 0
 492 0064 0C23     		movs	r3, #12
 493 0066 FB18     		adds	r3, r7, r3
 494 0068 1800     		movs	r0, r3
 495 006a FFF7FEFF 		bl	OSSchedUnlock
 463:..\..\..\..\..\..\Software\uCOS-III\Source/os_tmr.c ****             *p_err   = OS_ERR_NONE;
 496              		.loc 1 463 0
 497 006e 3B68     		ldr	r3, [r7]
 498 0070 0022     		movs	r2, #0
 499 0072 1A80     		strh	r2, [r3]
 464:..\..\..\..\..\..\Software\uCOS-III\Source/os_tmr.c ****              success = DEF_TRUE;
 500              		.loc 1 464 0
 501 0074 0F23     		movs	r3, #15
 502 0076 FB18     		adds	r3, r7, r3
ARM GAS  C:\Users\EDULU~1.DES\AppData\Local\Temp\ccsWe06d.s 			page 18


 503 0078 0122     		movs	r2, #1
 504 007a 1A70     		strb	r2, [r3]
 465:..\..\..\..\..\..\Software\uCOS-III\Source/os_tmr.c ****              break;
 505              		.loc 1 465 0
 506 007c 2BE0     		b	.L43
 507              	.L39:
 466:..\..\..\..\..\..\Software\uCOS-III\Source/os_tmr.c **** 
 467:..\..\..\..\..\..\Software\uCOS-III\Source/os_tmr.c ****         case OS_TMR_STATE_STOPPED:                          /* Start the timer                     
 468:..\..\..\..\..\..\Software\uCOS-III\Source/os_tmr.c ****         case OS_TMR_STATE_COMPLETED:
 469:..\..\..\..\..\..\Software\uCOS-III\Source/os_tmr.c ****              OS_TmrLink(p_tmr, OS_OPT_LINK_DLY);            /* ... Link timer to timer wheel (see N
 508              		.loc 1 469 0
 509 007e 7B68     		ldr	r3, [r7, #4]
 510 0080 0021     		movs	r1, #0
 511 0082 1800     		movs	r0, r3
 512 0084 FFF7FEFF 		bl	OS_TmrLink
 470:..\..\..\..\..\..\Software\uCOS-III\Source/os_tmr.c ****              OSSchedUnlock(&err);
 513              		.loc 1 470 0
 514 0088 0C23     		movs	r3, #12
 515 008a FB18     		adds	r3, r7, r3
 516 008c 1800     		movs	r0, r3
 517 008e FFF7FEFF 		bl	OSSchedUnlock
 471:..\..\..\..\..\..\Software\uCOS-III\Source/os_tmr.c ****             *p_err   = OS_ERR_NONE;
 518              		.loc 1 471 0
 519 0092 3B68     		ldr	r3, [r7]
 520 0094 0022     		movs	r2, #0
 521 0096 1A80     		strh	r2, [r3]
 472:..\..\..\..\..\..\Software\uCOS-III\Source/os_tmr.c ****              success = DEF_TRUE;
 522              		.loc 1 472 0
 523 0098 0F23     		movs	r3, #15
 524 009a FB18     		adds	r3, r7, r3
 525 009c 0122     		movs	r2, #1
 526 009e 1A70     		strb	r2, [r3]
 473:..\..\..\..\..\..\Software\uCOS-III\Source/os_tmr.c ****              break;
 527              		.loc 1 473 0
 528 00a0 19E0     		b	.L43
 529              	.L41:
 474:..\..\..\..\..\..\Software\uCOS-III\Source/os_tmr.c **** 
 475:..\..\..\..\..\..\Software\uCOS-III\Source/os_tmr.c ****         case OS_TMR_STATE_UNUSED:                           /* Timer not created                   
 476:..\..\..\..\..\..\Software\uCOS-III\Source/os_tmr.c ****              OSSchedUnlock(&err);
 530              		.loc 1 476 0
 531 00a2 0C23     		movs	r3, #12
 532 00a4 FB18     		adds	r3, r7, r3
 533 00a6 1800     		movs	r0, r3
 534 00a8 FFF7FEFF 		bl	OSSchedUnlock
 477:..\..\..\..\..\..\Software\uCOS-III\Source/os_tmr.c ****             *p_err   = OS_ERR_TMR_INACTIVE;
 535              		.loc 1 477 0
 536 00ac 3B68     		ldr	r3, [r7]
 537 00ae 104A     		ldr	r2, .L45+12
 538 00b0 1A80     		strh	r2, [r3]
 478:..\..\..\..\..\..\Software\uCOS-III\Source/os_tmr.c ****              success = DEF_FALSE;
 539              		.loc 1 478 0
 540 00b2 0F23     		movs	r3, #15
 541 00b4 FB18     		adds	r3, r7, r3
 542 00b6 0022     		movs	r2, #0
 543 00b8 1A70     		strb	r2, [r3]
 479:..\..\..\..\..\..\Software\uCOS-III\Source/os_tmr.c ****              break;
 544              		.loc 1 479 0
ARM GAS  C:\Users\EDULU~1.DES\AppData\Local\Temp\ccsWe06d.s 			page 19


 545 00ba 0CE0     		b	.L43
 546              	.L38:
 480:..\..\..\..\..\..\Software\uCOS-III\Source/os_tmr.c **** 
 481:..\..\..\..\..\..\Software\uCOS-III\Source/os_tmr.c ****         default:
 482:..\..\..\..\..\..\Software\uCOS-III\Source/os_tmr.c ****              OSSchedUnlock(&err);
 547              		.loc 1 482 0
 548 00bc 0C23     		movs	r3, #12
 549 00be FB18     		adds	r3, r7, r3
 550 00c0 1800     		movs	r0, r3
 551 00c2 FFF7FEFF 		bl	OSSchedUnlock
 483:..\..\..\..\..\..\Software\uCOS-III\Source/os_tmr.c ****             *p_err = OS_ERR_TMR_INVALID_STATE;
 552              		.loc 1 483 0
 553 00c6 3B68     		ldr	r3, [r7]
 554 00c8 0A4A     		ldr	r2, .L45+16
 555 00ca 1A80     		strh	r2, [r3]
 484:..\..\..\..\..\..\Software\uCOS-III\Source/os_tmr.c ****              success = DEF_FALSE;
 556              		.loc 1 484 0
 557 00cc 0F23     		movs	r3, #15
 558 00ce FB18     		adds	r3, r7, r3
 559 00d0 0022     		movs	r2, #0
 560 00d2 1A70     		strb	r2, [r3]
 485:..\..\..\..\..\..\Software\uCOS-III\Source/os_tmr.c ****              break;
 561              		.loc 1 485 0
 562 00d4 C046     		nop
 563              	.L43:
 486:..\..\..\..\..\..\Software\uCOS-III\Source/os_tmr.c ****     }
 487:..\..\..\..\..\..\Software\uCOS-III\Source/os_tmr.c ****     return (success);
 564              		.loc 1 487 0
 565 00d6 0F23     		movs	r3, #15
 566 00d8 FB18     		adds	r3, r7, r3
 567 00da 1B78     		ldrb	r3, [r3]
 568              	.L44:
 488:..\..\..\..\..\..\Software\uCOS-III\Source/os_tmr.c **** }
 569              		.loc 1 488 0 discriminator 1
 570 00dc 1800     		movs	r0, r3
 571 00de BD46     		mov	sp, r7
 572 00e0 04B0     		add	sp, sp, #16
 573              		@ sp needed
 574 00e2 80BD     		pop	{r7, pc}
 575              	.L46:
 576              		.align	2
 577              	.L45:
 578 00e4 00000000 		.word	OSIntNestingCtr
 579 00e8 43730000 		.word	29507
 580 00ec 42730000 		.word	29506
 581 00f0 3D730000 		.word	29501
 582 00f4 41730000 		.word	29505
 583              		.cfi_endproc
 584              	.LFE3:
 585              		.size	OSTmrStart, .-OSTmrStart
 586              		.section	.text.OSTmrStateGet,"ax",%progbits
 587              		.align	2
 588              		.global	OSTmrStateGet
 589              		.code	16
 590              		.thumb_func
 591              		.type	OSTmrStateGet, %function
 592              	OSTmrStateGet:
ARM GAS  C:\Users\EDULU~1.DES\AppData\Local\Temp\ccsWe06d.s 			page 20


 593              	.LFB4:
 489:..\..\..\..\..\..\Software\uCOS-III\Source/os_tmr.c **** 
 490:..\..\..\..\..\..\Software\uCOS-III\Source/os_tmr.c **** /*$PAGE*/
 491:..\..\..\..\..\..\Software\uCOS-III\Source/os_tmr.c **** /*
 492:..\..\..\..\..\..\Software\uCOS-III\Source/os_tmr.c **** ***************************************************************************************************
 493:..\..\..\..\..\..\Software\uCOS-III\Source/os_tmr.c **** *                                           FIND OUT WHAT STATE A TIMER IS IN
 494:..\..\..\..\..\..\Software\uCOS-III\Source/os_tmr.c **** *
 495:..\..\..\..\..\..\Software\uCOS-III\Source/os_tmr.c **** * Description: This function is called to determine what state the timer is in:
 496:..\..\..\..\..\..\Software\uCOS-III\Source/os_tmr.c **** *
 497:..\..\..\..\..\..\Software\uCOS-III\Source/os_tmr.c **** *                  OS_TMR_STATE_UNUSED     the timer has not been created
 498:..\..\..\..\..\..\Software\uCOS-III\Source/os_tmr.c **** *                  OS_TMR_STATE_STOPPED    the timer has been created but has not been started or h
 499:..\..\..\..\..\..\Software\uCOS-III\Source/os_tmr.c **** *                  OS_TMR_COMPLETED        the timer is in ONE-SHOT mode and has completed it's tim
 500:..\..\..\..\..\..\Software\uCOS-III\Source/os_tmr.c **** *                  OS_TMR_RUNNING          the timer is currently running
 501:..\..\..\..\..\..\Software\uCOS-III\Source/os_tmr.c **** *
 502:..\..\..\..\..\..\Software\uCOS-III\Source/os_tmr.c **** * Arguments  : p_tmr    Is a pointer to the desired timer
 503:..\..\..\..\..\..\Software\uCOS-III\Source/os_tmr.c **** *
 504:..\..\..\..\..\..\Software\uCOS-III\Source/os_tmr.c **** *              p_err    Is a pointer to an error code.  '*p_err' will contain one of the following:
 505:..\..\..\..\..\..\Software\uCOS-III\Source/os_tmr.c **** *
 506:..\..\..\..\..\..\Software\uCOS-III\Source/os_tmr.c **** *                           OS_ERR_NONE
 507:..\..\..\..\..\..\Software\uCOS-III\Source/os_tmr.c **** *                           OS_ERR_OBJ_TYPE            if 'p_tmr' is not pointing to a timer
 508:..\..\..\..\..\..\Software\uCOS-III\Source/os_tmr.c **** *                           OS_ERR_TMR_INVALID        'p_tmr' is a NULL pointer
 509:..\..\..\..\..\..\Software\uCOS-III\Source/os_tmr.c **** *                           OS_ERR_TMR_INVALID_STATE  if the timer is not in a valid state
 510:..\..\..\..\..\..\Software\uCOS-III\Source/os_tmr.c **** *                           OS_ERR_TMR_ISR            if the call was made from an ISR
 511:..\..\..\..\..\..\Software\uCOS-III\Source/os_tmr.c **** *
 512:..\..\..\..\..\..\Software\uCOS-III\Source/os_tmr.c **** * Returns    : The current state of the timer (see description).
 513:..\..\..\..\..\..\Software\uCOS-III\Source/os_tmr.c **** ***************************************************************************************************
 514:..\..\..\..\..\..\Software\uCOS-III\Source/os_tmr.c **** */
 515:..\..\..\..\..\..\Software\uCOS-III\Source/os_tmr.c **** 
 516:..\..\..\..\..\..\Software\uCOS-III\Source/os_tmr.c **** OS_STATE  OSTmrStateGet (OS_TMR  *p_tmr,
 517:..\..\..\..\..\..\Software\uCOS-III\Source/os_tmr.c ****                          OS_ERR  *p_err)
 518:..\..\..\..\..\..\Software\uCOS-III\Source/os_tmr.c **** {
 594              		.loc 1 518 0
 595              		.cfi_startproc
 596              		@ args = 0, pretend = 0, frame = 16
 597              		@ frame_needed = 1, uses_anonymous_args = 0
 598 0000 80B5     		push	{r7, lr}
 599              		.cfi_def_cfa_offset 8
 600              		.cfi_offset 7, -8
 601              		.cfi_offset 14, -4
 602 0002 84B0     		sub	sp, sp, #16
 603              		.cfi_def_cfa_offset 24
 604 0004 00AF     		add	r7, sp, #0
 605              		.cfi_def_cfa_register 7
 606 0006 7860     		str	r0, [r7, #4]
 607 0008 3960     		str	r1, [r7]
 519:..\..\..\..\..\..\Software\uCOS-III\Source/os_tmr.c ****     OS_STATE  state;
 520:..\..\..\..\..\..\Software\uCOS-III\Source/os_tmr.c ****     CPU_SR_ALLOC();
 608              		.loc 1 520 0
 609 000a 0023     		movs	r3, #0
 610 000c FB60     		str	r3, [r7, #12]
 521:..\..\..\..\..\..\Software\uCOS-III\Source/os_tmr.c **** 
 522:..\..\..\..\..\..\Software\uCOS-III\Source/os_tmr.c **** 
 523:..\..\..\..\..\..\Software\uCOS-III\Source/os_tmr.c **** 
 524:..\..\..\..\..\..\Software\uCOS-III\Source/os_tmr.c **** #ifdef OS_SAFETY_CRITICAL
 525:..\..\..\..\..\..\Software\uCOS-III\Source/os_tmr.c ****     if (p_err == (OS_ERR *)0) {
 526:..\..\..\..\..\..\Software\uCOS-III\Source/os_tmr.c ****         OS_SAFETY_CRITICAL_EXCEPTION();
 527:..\..\..\..\..\..\Software\uCOS-III\Source/os_tmr.c ****         return (OS_TMR_STATE_UNUSED);
ARM GAS  C:\Users\EDULU~1.DES\AppData\Local\Temp\ccsWe06d.s 			page 21


 528:..\..\..\..\..\..\Software\uCOS-III\Source/os_tmr.c ****     }
 529:..\..\..\..\..\..\Software\uCOS-III\Source/os_tmr.c **** #endif
 530:..\..\..\..\..\..\Software\uCOS-III\Source/os_tmr.c **** 
 531:..\..\..\..\..\..\Software\uCOS-III\Source/os_tmr.c **** #if OS_CFG_CALLED_FROM_ISR_CHK_EN > 0u
 532:..\..\..\..\..\..\Software\uCOS-III\Source/os_tmr.c ****     if (OSIntNestingCtr > (OS_NESTING_CTR)0) {              /* See if trying to call from an ISR   
 611              		.loc 1 532 0
 612 000e 1C4B     		ldr	r3, .L54
 613 0010 1B78     		ldrb	r3, [r3]
 614 0012 002B     		cmp	r3, #0
 615 0014 04D0     		beq	.L48
 533:..\..\..\..\..\..\Software\uCOS-III\Source/os_tmr.c ****        *p_err = OS_ERR_TMR_ISR;
 616              		.loc 1 533 0
 617 0016 3B68     		ldr	r3, [r7]
 618 0018 1A4A     		ldr	r2, .L54+4
 619 001a 1A80     		strh	r2, [r3]
 534:..\..\..\..\..\..\Software\uCOS-III\Source/os_tmr.c ****         return (OS_TMR_STATE_UNUSED);
 620              		.loc 1 534 0
 621 001c 0023     		movs	r3, #0
 622 001e 2AE0     		b	.L49
 623              	.L48:
 535:..\..\..\..\..\..\Software\uCOS-III\Source/os_tmr.c ****     }
 536:..\..\..\..\..\..\Software\uCOS-III\Source/os_tmr.c **** #endif
 537:..\..\..\..\..\..\Software\uCOS-III\Source/os_tmr.c **** 
 538:..\..\..\..\..\..\Software\uCOS-III\Source/os_tmr.c **** #if OS_CFG_ARG_CHK_EN > 0u
 539:..\..\..\..\..\..\Software\uCOS-III\Source/os_tmr.c ****     if (p_tmr == (OS_TMR *)0) {
 624              		.loc 1 539 0
 625 0020 7B68     		ldr	r3, [r7, #4]
 626 0022 002B     		cmp	r3, #0
 627 0024 04D1     		bne	.L50
 540:..\..\..\..\..\..\Software\uCOS-III\Source/os_tmr.c ****        *p_err = OS_ERR_TMR_INVALID;
 628              		.loc 1 540 0
 629 0026 3B68     		ldr	r3, [r7]
 630 0028 174A     		ldr	r2, .L54+8
 631 002a 1A80     		strh	r2, [r3]
 541:..\..\..\..\..\..\Software\uCOS-III\Source/os_tmr.c ****         return (OS_TMR_STATE_UNUSED);
 632              		.loc 1 541 0
 633 002c 0023     		movs	r3, #0
 634 002e 22E0     		b	.L49
 635              	.L50:
 542:..\..\..\..\..\..\Software\uCOS-III\Source/os_tmr.c ****     }
 543:..\..\..\..\..\..\Software\uCOS-III\Source/os_tmr.c **** #endif
 544:..\..\..\..\..\..\Software\uCOS-III\Source/os_tmr.c **** 
 545:..\..\..\..\..\..\Software\uCOS-III\Source/os_tmr.c **** #if OS_CFG_OBJ_TYPE_CHK_EN > 0u
 546:..\..\..\..\..\..\Software\uCOS-III\Source/os_tmr.c ****     if (p_tmr->Type != OS_OBJ_TYPE_TMR) {                   /* Make sure timer was created         
 547:..\..\..\..\..\..\Software\uCOS-III\Source/os_tmr.c ****        *p_err = OS_ERR_OBJ_TYPE;
 548:..\..\..\..\..\..\Software\uCOS-III\Source/os_tmr.c ****         return (OS_TMR_STATE_UNUSED);
 549:..\..\..\..\..\..\Software\uCOS-III\Source/os_tmr.c ****     }
 550:..\..\..\..\..\..\Software\uCOS-III\Source/os_tmr.c **** #endif
 551:..\..\..\..\..\..\Software\uCOS-III\Source/os_tmr.c **** 
 552:..\..\..\..\..\..\Software\uCOS-III\Source/os_tmr.c ****     CPU_CRITICAL_ENTER();
 636              		.loc 1 552 0
 637 0030 FFF7FEFF 		bl	CPU_SR_Save
 638 0034 0300     		movs	r3, r0
 639 0036 FB60     		str	r3, [r7, #12]
 640 0038 FFF7FEFF 		bl	CPU_IntDisMeasStart
 553:..\..\..\..\..\..\Software\uCOS-III\Source/os_tmr.c ****     state = p_tmr->State;
 641              		.loc 1 553 0
ARM GAS  C:\Users\EDULU~1.DES\AppData\Local\Temp\ccsWe06d.s 			page 22


 642 003c 0B23     		movs	r3, #11
 643 003e FB18     		adds	r3, r7, r3
 644 0040 7A68     		ldr	r2, [r7, #4]
 645 0042 2A21     		movs	r1, #42
 646 0044 525C     		ldrb	r2, [r2, r1]
 647 0046 1A70     		strb	r2, [r3]
 554:..\..\..\..\..\..\Software\uCOS-III\Source/os_tmr.c ****     switch (state) {
 648              		.loc 1 554 0
 649 0048 0B23     		movs	r3, #11
 650 004a FB18     		adds	r3, r7, r3
 651 004c 1B78     		ldrb	r3, [r3]
 652 004e 0033     		adds	r3, r3, #0
 653 0050 032B     		cmp	r3, #3
 654 0052 03D8     		bhi	.L51
 555:..\..\..\..\..\..\Software\uCOS-III\Source/os_tmr.c ****         case OS_TMR_STATE_UNUSED:
 556:..\..\..\..\..\..\Software\uCOS-III\Source/os_tmr.c ****         case OS_TMR_STATE_STOPPED:
 557:..\..\..\..\..\..\Software\uCOS-III\Source/os_tmr.c ****         case OS_TMR_STATE_COMPLETED:
 558:..\..\..\..\..\..\Software\uCOS-III\Source/os_tmr.c ****         case OS_TMR_STATE_RUNNING:
 559:..\..\..\..\..\..\Software\uCOS-III\Source/os_tmr.c ****             *p_err = OS_ERR_NONE;
 655              		.loc 1 559 0
 656 0054 3B68     		ldr	r3, [r7]
 657 0056 0022     		movs	r2, #0
 658 0058 1A80     		strh	r2, [r3]
 560:..\..\..\..\..\..\Software\uCOS-III\Source/os_tmr.c ****              break;
 659              		.loc 1 560 0
 660 005a 03E0     		b	.L53
 661              	.L51:
 561:..\..\..\..\..\..\Software\uCOS-III\Source/os_tmr.c **** 
 562:..\..\..\..\..\..\Software\uCOS-III\Source/os_tmr.c ****         default:
 563:..\..\..\..\..\..\Software\uCOS-III\Source/os_tmr.c ****             *p_err = OS_ERR_TMR_INVALID_STATE;
 662              		.loc 1 563 0
 663 005c 3B68     		ldr	r3, [r7]
 664 005e 0B4A     		ldr	r2, .L54+12
 665 0060 1A80     		strh	r2, [r3]
 564:..\..\..\..\..\..\Software\uCOS-III\Source/os_tmr.c ****              break;
 666              		.loc 1 564 0
 667 0062 C046     		nop
 668              	.L53:
 565:..\..\..\..\..\..\Software\uCOS-III\Source/os_tmr.c ****     }
 566:..\..\..\..\..\..\Software\uCOS-III\Source/os_tmr.c ****     CPU_CRITICAL_EXIT();
 669              		.loc 1 566 0
 670 0064 FFF7FEFF 		bl	CPU_IntDisMeasStop
 671 0068 FB68     		ldr	r3, [r7, #12]
 672 006a 1800     		movs	r0, r3
 673 006c FFF7FEFF 		bl	CPU_SR_Restore
 567:..\..\..\..\..\..\Software\uCOS-III\Source/os_tmr.c ****     return (state);
 674              		.loc 1 567 0
 675 0070 0B23     		movs	r3, #11
 676 0072 FB18     		adds	r3, r7, r3
 677 0074 1B78     		ldrb	r3, [r3]
 678              	.L49:
 568:..\..\..\..\..\..\Software\uCOS-III\Source/os_tmr.c **** }
 679              		.loc 1 568 0
 680 0076 1800     		movs	r0, r3
 681 0078 BD46     		mov	sp, r7
 682 007a 04B0     		add	sp, sp, #16
 683              		@ sp needed
ARM GAS  C:\Users\EDULU~1.DES\AppData\Local\Temp\ccsWe06d.s 			page 23


 684 007c 80BD     		pop	{r7, pc}
 685              	.L55:
 686 007e C046     		.align	2
 687              	.L54:
 688 0080 00000000 		.word	OSIntNestingCtr
 689 0084 43730000 		.word	29507
 690 0088 42730000 		.word	29506
 691 008c 41730000 		.word	29505
 692              		.cfi_endproc
 693              	.LFE4:
 694              		.size	OSTmrStateGet, .-OSTmrStateGet
 695              		.section	.text.OSTmrStop,"ax",%progbits
 696              		.align	2
 697              		.global	OSTmrStop
 698              		.code	16
 699              		.thumb_func
 700              		.type	OSTmrStop, %function
 701              	OSTmrStop:
 702              	.LFB5:
 569:..\..\..\..\..\..\Software\uCOS-III\Source/os_tmr.c **** 
 570:..\..\..\..\..\..\Software\uCOS-III\Source/os_tmr.c **** /*$PAGE*/
 571:..\..\..\..\..\..\Software\uCOS-III\Source/os_tmr.c **** /*
 572:..\..\..\..\..\..\Software\uCOS-III\Source/os_tmr.c **** ***************************************************************************************************
 573:..\..\..\..\..\..\Software\uCOS-III\Source/os_tmr.c **** *                                                    STOP A TIMER
 574:..\..\..\..\..\..\Software\uCOS-III\Source/os_tmr.c **** *
 575:..\..\..\..\..\..\Software\uCOS-III\Source/os_tmr.c **** * Description: This function is called by your application code to stop a timer.
 576:..\..\..\..\..\..\Software\uCOS-III\Source/os_tmr.c **** *
 577:..\..\..\..\..\..\Software\uCOS-III\Source/os_tmr.c **** * Arguments  : p_tmr          Is a pointer to the timer to stop.
 578:..\..\..\..\..\..\Software\uCOS-III\Source/os_tmr.c **** *
 579:..\..\..\..\..\..\Software\uCOS-III\Source/os_tmr.c **** *              opt           Allows you to specify an option to this functions which can be:
 580:..\..\..\..\..\..\Software\uCOS-III\Source/os_tmr.c **** *
 581:..\..\..\..\..\..\Software\uCOS-III\Source/os_tmr.c **** *                               OS_OPT_TMR_NONE            Do nothing special but stop the timer
 582:..\..\..\..\..\..\Software\uCOS-III\Source/os_tmr.c **** *                               OS_OPT_TMR_CALLBACK        Execute the callback function, pass it t
 583:..\..\..\..\..\..\Software\uCOS-III\Source/os_tmr.c **** *                                                          specified when the timer was created.
 584:..\..\..\..\..\..\Software\uCOS-III\Source/os_tmr.c **** *                               OS_OPT_TMR_CALLBACK_ARG    Execute the callback function, pass it t
 585:..\..\..\..\..\..\Software\uCOS-III\Source/os_tmr.c **** *                                                          specified in THIS function call
 586:..\..\..\..\..\..\Software\uCOS-III\Source/os_tmr.c **** *
 587:..\..\..\..\..\..\Software\uCOS-III\Source/os_tmr.c **** *              callback_arg  Is a pointer to a 'new' callback argument that can be passed to the ca
 588:..\..\..\..\..\..\Software\uCOS-III\Source/os_tmr.c **** *                               instead of the timer's callback argument.  In other words, use 'cal
 589:..\..\..\..\..\..\Software\uCOS-III\Source/os_tmr.c **** *                               THIS function INSTEAD of p_tmr->OSTmrCallbackArg
 590:..\..\..\..\..\..\Software\uCOS-III\Source/os_tmr.c **** *
 591:..\..\..\..\..\..\Software\uCOS-III\Source/os_tmr.c **** *              p_err          Is a pointer to an error code.  '*p_err' will contain one of the foll
 592:..\..\..\..\..\..\Software\uCOS-III\Source/os_tmr.c **** *                               OS_ERR_NONE
 593:..\..\..\..\..\..\Software\uCOS-III\Source/os_tmr.c **** *                               OS_ERR_OBJ_TYPE            if 'p_tmr' is not pointing to a timer
 594:..\..\..\..\..\..\Software\uCOS-III\Source/os_tmr.c **** *                               OS_ERR_OPT_INVALID         if you specified an invalid option for '
 595:..\..\..\..\..\..\Software\uCOS-III\Source/os_tmr.c **** *                               OS_ERR_TMR_INACTIVE        if the timer was not created
 596:..\..\..\..\..\..\Software\uCOS-III\Source/os_tmr.c **** *                               OS_ERR_TMR_INVALID         'p_tmr' is a NULL pointer
 597:..\..\..\..\..\..\Software\uCOS-III\Source/os_tmr.c **** *                               OS_ERR_TMR_INVALID_STATE   the timer is in an invalid state
 598:..\..\..\..\..\..\Software\uCOS-III\Source/os_tmr.c **** *                               OS_ERR_TMR_ISR             if the function was called from an ISR
 599:..\..\..\..\..\..\Software\uCOS-III\Source/os_tmr.c **** *                               OS_ERR_TMR_NO_CALLBACK     if the timer does not have a callback fu
 600:..\..\..\..\..\..\Software\uCOS-III\Source/os_tmr.c **** *                               OS_ERR_TMR_STOPPED         if the timer was already stopped
 601:..\..\..\..\..\..\Software\uCOS-III\Source/os_tmr.c **** *
 602:..\..\..\..\..\..\Software\uCOS-III\Source/os_tmr.c **** * Returns    : DEF_TRUE       If we stopped the timer (if the timer is already stopped, we also ret
 603:..\..\..\..\..\..\Software\uCOS-III\Source/os_tmr.c **** *              DEF_FALSE      If not
 604:..\..\..\..\..\..\Software\uCOS-III\Source/os_tmr.c **** ***************************************************************************************************
 605:..\..\..\..\..\..\Software\uCOS-III\Source/os_tmr.c **** */
 606:..\..\..\..\..\..\Software\uCOS-III\Source/os_tmr.c **** 
ARM GAS  C:\Users\EDULU~1.DES\AppData\Local\Temp\ccsWe06d.s 			page 24


 607:..\..\..\..\..\..\Software\uCOS-III\Source/os_tmr.c **** CPU_BOOLEAN  OSTmrStop (OS_TMR  *p_tmr,
 608:..\..\..\..\..\..\Software\uCOS-III\Source/os_tmr.c ****                         OS_OPT   opt,
 609:..\..\..\..\..\..\Software\uCOS-III\Source/os_tmr.c ****                         void    *p_callback_arg,
 610:..\..\..\..\..\..\Software\uCOS-III\Source/os_tmr.c ****                         OS_ERR  *p_err)
 611:..\..\..\..\..\..\Software\uCOS-III\Source/os_tmr.c **** {
 703              		.loc 1 611 0
 704              		.cfi_startproc
 705              		@ args = 0, pretend = 0, frame = 32
 706              		@ frame_needed = 1, uses_anonymous_args = 0
 707 0000 80B5     		push	{r7, lr}
 708              		.cfi_def_cfa_offset 8
 709              		.cfi_offset 7, -8
 710              		.cfi_offset 14, -4
 711 0002 88B0     		sub	sp, sp, #32
 712              		.cfi_def_cfa_offset 40
 713 0004 00AF     		add	r7, sp, #0
 714              		.cfi_def_cfa_register 7
 715 0006 F860     		str	r0, [r7, #12]
 716 0008 7A60     		str	r2, [r7, #4]
 717 000a 3B60     		str	r3, [r7]
 718 000c 0A23     		movs	r3, #10
 719 000e FB18     		adds	r3, r7, r3
 720 0010 0A1C     		adds	r2, r1, #0
 721 0012 1A80     		strh	r2, [r3]
 612:..\..\..\..\..\..\Software\uCOS-III\Source/os_tmr.c ****     OS_TMR_CALLBACK_PTR  p_fnct;
 613:..\..\..\..\..\..\Software\uCOS-III\Source/os_tmr.c ****     OS_ERR               err;
 614:..\..\..\..\..\..\Software\uCOS-III\Source/os_tmr.c ****     CPU_BOOLEAN          success;
 615:..\..\..\..\..\..\Software\uCOS-III\Source/os_tmr.c **** 
 616:..\..\..\..\..\..\Software\uCOS-III\Source/os_tmr.c **** 
 617:..\..\..\..\..\..\Software\uCOS-III\Source/os_tmr.c **** 
 618:..\..\..\..\..\..\Software\uCOS-III\Source/os_tmr.c **** #ifdef OS_SAFETY_CRITICAL
 619:..\..\..\..\..\..\Software\uCOS-III\Source/os_tmr.c ****     if (p_err == (OS_ERR *)0) {
 620:..\..\..\..\..\..\Software\uCOS-III\Source/os_tmr.c ****         OS_SAFETY_CRITICAL_EXCEPTION();
 621:..\..\..\..\..\..\Software\uCOS-III\Source/os_tmr.c ****         return (DEF_FALSE);
 622:..\..\..\..\..\..\Software\uCOS-III\Source/os_tmr.c ****     }
 623:..\..\..\..\..\..\Software\uCOS-III\Source/os_tmr.c **** #endif
 624:..\..\..\..\..\..\Software\uCOS-III\Source/os_tmr.c **** 
 625:..\..\..\..\..\..\Software\uCOS-III\Source/os_tmr.c **** #if OS_CFG_CALLED_FROM_ISR_CHK_EN > 0u
 626:..\..\..\..\..\..\Software\uCOS-III\Source/os_tmr.c ****     if (OSIntNestingCtr > (OS_NESTING_CTR)0) {                        /* See if trying to call from
 722              		.loc 1 626 0
 723 0014 4C4B     		ldr	r3, .L78
 724 0016 1B78     		ldrb	r3, [r3]
 725 0018 002B     		cmp	r3, #0
 726 001a 04D0     		beq	.L57
 627:..\..\..\..\..\..\Software\uCOS-III\Source/os_tmr.c ****        *p_err = OS_ERR_TMR_ISR;
 727              		.loc 1 627 0
 728 001c 3B68     		ldr	r3, [r7]
 729 001e 4B4A     		ldr	r2, .L78+4
 730 0020 1A80     		strh	r2, [r3]
 628:..\..\..\..\..\..\Software\uCOS-III\Source/os_tmr.c ****         return (DEF_FALSE);
 731              		.loc 1 628 0
 732 0022 0023     		movs	r3, #0
 733 0024 8BE0     		b	.L75
 734              	.L57:
 629:..\..\..\..\..\..\Software\uCOS-III\Source/os_tmr.c ****     }
 630:..\..\..\..\..\..\Software\uCOS-III\Source/os_tmr.c **** #endif
 631:..\..\..\..\..\..\Software\uCOS-III\Source/os_tmr.c **** 
ARM GAS  C:\Users\EDULU~1.DES\AppData\Local\Temp\ccsWe06d.s 			page 25


 632:..\..\..\..\..\..\Software\uCOS-III\Source/os_tmr.c **** #if OS_CFG_ARG_CHK_EN > 0u
 633:..\..\..\..\..\..\Software\uCOS-III\Source/os_tmr.c ****     if (p_tmr == (OS_TMR *)0) {
 735              		.loc 1 633 0
 736 0026 FB68     		ldr	r3, [r7, #12]
 737 0028 002B     		cmp	r3, #0
 738 002a 04D1     		bne	.L59
 634:..\..\..\..\..\..\Software\uCOS-III\Source/os_tmr.c ****        *p_err = OS_ERR_TMR_INVALID;
 739              		.loc 1 634 0
 740 002c 3B68     		ldr	r3, [r7]
 741 002e 484A     		ldr	r2, .L78+8
 742 0030 1A80     		strh	r2, [r3]
 635:..\..\..\..\..\..\Software\uCOS-III\Source/os_tmr.c ****         return (DEF_FALSE);
 743              		.loc 1 635 0
 744 0032 0023     		movs	r3, #0
 745 0034 83E0     		b	.L75
 746              	.L59:
 636:..\..\..\..\..\..\Software\uCOS-III\Source/os_tmr.c ****     }
 637:..\..\..\..\..\..\Software\uCOS-III\Source/os_tmr.c **** #endif
 638:..\..\..\..\..\..\Software\uCOS-III\Source/os_tmr.c **** 
 639:..\..\..\..\..\..\Software\uCOS-III\Source/os_tmr.c **** #if OS_CFG_OBJ_TYPE_CHK_EN > 0u
 640:..\..\..\..\..\..\Software\uCOS-III\Source/os_tmr.c ****     if (p_tmr->Type != OS_OBJ_TYPE_TMR) {                             /* Make sure timer was create
 641:..\..\..\..\..\..\Software\uCOS-III\Source/os_tmr.c ****        *p_err = OS_ERR_OBJ_TYPE;
 642:..\..\..\..\..\..\Software\uCOS-III\Source/os_tmr.c ****         return (DEF_FALSE);
 643:..\..\..\..\..\..\Software\uCOS-III\Source/os_tmr.c ****     }
 644:..\..\..\..\..\..\Software\uCOS-III\Source/os_tmr.c **** #endif
 645:..\..\..\..\..\..\Software\uCOS-III\Source/os_tmr.c **** 
 646:..\..\..\..\..\..\Software\uCOS-III\Source/os_tmr.c ****     OSSchedLock(&err);
 747              		.loc 1 646 0
 748 0036 1623     		movs	r3, #22
 749 0038 FB18     		adds	r3, r7, r3
 750 003a 1800     		movs	r0, r3
 751 003c FFF7FEFF 		bl	OSSchedLock
 647:..\..\..\..\..\..\Software\uCOS-III\Source/os_tmr.c ****     switch (p_tmr->State) {
 752              		.loc 1 647 0
 753 0040 FB68     		ldr	r3, [r7, #12]
 754 0042 2A22     		movs	r2, #42
 755 0044 9B5C     		ldrb	r3, [r3, r2]
 756 0046 012B     		cmp	r3, #1
 757 0048 4FD0     		beq	.L61
 758 004a 02DC     		bgt	.L62
 759 004c 002B     		cmp	r3, #0
 760 004e 59D0     		beq	.L63
 761 0050 65E0     		b	.L60
 762              	.L62:
 763 0052 022B     		cmp	r3, #2
 764 0054 02D0     		beq	.L64
 765 0056 032B     		cmp	r3, #3
 766 0058 47D0     		beq	.L61
 767 005a 60E0     		b	.L60
 768              	.L64:
 648:..\..\..\..\..\..\Software\uCOS-III\Source/os_tmr.c ****         case OS_TMR_STATE_RUNNING:
 649:..\..\..\..\..\..\Software\uCOS-III\Source/os_tmr.c ****              OS_TmrUnlink(p_tmr);                                     /* Remove from current wheel 
 769              		.loc 1 649 0
 770 005c FB68     		ldr	r3, [r7, #12]
 771 005e 1800     		movs	r0, r3
 772 0060 FFF7FEFF 		bl	OS_TmrUnlink
 650:..\..\..\..\..\..\Software\uCOS-III\Source/os_tmr.c ****             *p_err = OS_ERR_NONE;
ARM GAS  C:\Users\EDULU~1.DES\AppData\Local\Temp\ccsWe06d.s 			page 26


 773              		.loc 1 650 0
 774 0064 3B68     		ldr	r3, [r7]
 775 0066 0022     		movs	r2, #0
 776 0068 1A80     		strh	r2, [r3]
 651:..\..\..\..\..\..\Software\uCOS-III\Source/os_tmr.c ****              switch (opt) {
 777              		.loc 1 651 0
 778 006a 0A23     		movs	r3, #10
 779 006c FB18     		adds	r3, r7, r3
 780 006e 1B88     		ldrh	r3, [r3]
 781 0070 032B     		cmp	r3, #3
 782 0072 04D0     		beq	.L66
 783 0074 042B     		cmp	r3, #4
 784 0076 13D0     		beq	.L67
 785 0078 002B     		cmp	r3, #0
 786 007a 2BD0     		beq	.L77
 787 007c 20E0     		b	.L76
 788              	.L66:
 652:..\..\..\..\..\..\Software\uCOS-III\Source/os_tmr.c ****                  case OS_OPT_TMR_CALLBACK:
 653:..\..\..\..\..\..\Software\uCOS-III\Source/os_tmr.c ****                       p_fnct = p_tmr->CallbackPtr;                         /* Execute callback func
 789              		.loc 1 653 0
 790 007e FB68     		ldr	r3, [r7, #12]
 791 0080 9B68     		ldr	r3, [r3, #8]
 792 0082 BB61     		str	r3, [r7, #24]
 654:..\..\..\..\..\..\Software\uCOS-III\Source/os_tmr.c ****                       if (p_fnct != (OS_TMR_CALLBACK_PTR)0) {              /* ... if available     
 793              		.loc 1 654 0
 794 0084 BB69     		ldr	r3, [r7, #24]
 795 0086 002B     		cmp	r3, #0
 796 0088 06D0     		beq	.L69
 655:..\..\..\..\..\..\Software\uCOS-III\Source/os_tmr.c ****                         (*p_fnct)((void *)p_tmr, p_tmr->CallbackPtrArg);   /* Use callback arg when
 797              		.loc 1 655 0
 798 008a FB68     		ldr	r3, [r7, #12]
 799 008c D968     		ldr	r1, [r3, #12]
 800 008e FA68     		ldr	r2, [r7, #12]
 801 0090 BB69     		ldr	r3, [r7, #24]
 802 0092 1000     		movs	r0, r2
 803 0094 9847     		blx	r3
 656:..\..\..\..\..\..\Software\uCOS-III\Source/os_tmr.c ****                       } else {
 657:..\..\..\..\..\..\Software\uCOS-III\Source/os_tmr.c ****                          *p_err = OS_ERR_TMR_NO_CALLBACK;
 658:..\..\..\..\..\..\Software\uCOS-III\Source/os_tmr.c ****                       }
 659:..\..\..\..\..\..\Software\uCOS-III\Source/os_tmr.c ****                       break;
 804              		.loc 1 659 0
 805 0096 1EE0     		b	.L71
 806              	.L69:
 657:..\..\..\..\..\..\Software\uCOS-III\Source/os_tmr.c ****                       }
 807              		.loc 1 657 0
 808 0098 3B68     		ldr	r3, [r7]
 809 009a 2E4A     		ldr	r2, .L78+12
 810 009c 1A80     		strh	r2, [r3]
 811              		.loc 1 659 0
 812 009e 1AE0     		b	.L71
 813              	.L67:
 660:..\..\..\..\..\..\Software\uCOS-III\Source/os_tmr.c **** 
 661:..\..\..\..\..\..\Software\uCOS-III\Source/os_tmr.c ****                  case OS_OPT_TMR_CALLBACK_ARG:
 662:..\..\..\..\..\..\Software\uCOS-III\Source/os_tmr.c ****                       p_fnct = p_tmr->CallbackPtr;                    /* Execute callback function 
 814              		.loc 1 662 0
 815 00a0 FB68     		ldr	r3, [r7, #12]
 816 00a2 9B68     		ldr	r3, [r3, #8]
ARM GAS  C:\Users\EDULU~1.DES\AppData\Local\Temp\ccsWe06d.s 			page 27


 817 00a4 BB61     		str	r3, [r7, #24]
 663:..\..\..\..\..\..\Software\uCOS-III\Source/os_tmr.c ****                       if (p_fnct != (OS_TMR_CALLBACK_PTR)0) {
 818              		.loc 1 663 0
 819 00a6 BB69     		ldr	r3, [r7, #24]
 820 00a8 002B     		cmp	r3, #0
 821 00aa 05D0     		beq	.L72
 664:..\..\..\..\..\..\Software\uCOS-III\Source/os_tmr.c ****                         (*p_fnct)((void *)p_tmr, p_callback_arg);     /* .. using the 'callback_arg
 822              		.loc 1 664 0
 823 00ac 7968     		ldr	r1, [r7, #4]
 824 00ae FA68     		ldr	r2, [r7, #12]
 825 00b0 BB69     		ldr	r3, [r7, #24]
 826 00b2 1000     		movs	r0, r2
 827 00b4 9847     		blx	r3
 665:..\..\..\..\..\..\Software\uCOS-III\Source/os_tmr.c ****                       } else {
 666:..\..\..\..\..\..\Software\uCOS-III\Source/os_tmr.c ****                          *p_err = OS_ERR_TMR_NO_CALLBACK;
 667:..\..\..\..\..\..\Software\uCOS-III\Source/os_tmr.c ****                       }
 668:..\..\..\..\..\..\Software\uCOS-III\Source/os_tmr.c ****                       break;
 828              		.loc 1 668 0
 829 00b6 0EE0     		b	.L71
 830              	.L72:
 666:..\..\..\..\..\..\Software\uCOS-III\Source/os_tmr.c ****                       }
 831              		.loc 1 666 0
 832 00b8 3B68     		ldr	r3, [r7]
 833 00ba 264A     		ldr	r2, .L78+12
 834 00bc 1A80     		strh	r2, [r3]
 835              		.loc 1 668 0
 836 00be 0AE0     		b	.L71
 837              	.L76:
 669:..\..\..\..\..\..\Software\uCOS-III\Source/os_tmr.c **** 
 670:..\..\..\..\..\..\Software\uCOS-III\Source/os_tmr.c ****                  case OS_OPT_TMR_NONE:
 671:..\..\..\..\..\..\Software\uCOS-III\Source/os_tmr.c ****                       break;
 672:..\..\..\..\..\..\Software\uCOS-III\Source/os_tmr.c **** 
 673:..\..\..\..\..\..\Software\uCOS-III\Source/os_tmr.c ****                  default:
 674:..\..\..\..\..\..\Software\uCOS-III\Source/os_tmr.c ****                      OSSchedUnlock(&err);
 838              		.loc 1 674 0
 839 00c0 1623     		movs	r3, #22
 840 00c2 FB18     		adds	r3, r7, r3
 841 00c4 1800     		movs	r0, r3
 842 00c6 FFF7FEFF 		bl	OSSchedUnlock
 675:..\..\..\..\..\..\Software\uCOS-III\Source/os_tmr.c ****                     *p_err = OS_ERR_OPT_INVALID;
 843              		.loc 1 675 0
 844 00ca 3B68     		ldr	r3, [r7]
 845 00cc 224A     		ldr	r2, .L78+16
 846 00ce 1A80     		strh	r2, [r3]
 676:..\..\..\..\..\..\Software\uCOS-III\Source/os_tmr.c ****                      return (DEF_FALSE);
 847              		.loc 1 676 0
 848 00d0 0023     		movs	r3, #0
 849 00d2 34E0     		b	.L75
 850              	.L77:
 671:..\..\..\..\..\..\Software\uCOS-III\Source/os_tmr.c **** 
 851              		.loc 1 671 0
 852 00d4 C046     		nop
 853              	.L71:
 677:..\..\..\..\..\..\Software\uCOS-III\Source/os_tmr.c ****              }
 678:..\..\..\..\..\..\Software\uCOS-III\Source/os_tmr.c ****              OSSchedUnlock(&err);
 854              		.loc 1 678 0
 855 00d6 1623     		movs	r3, #22
ARM GAS  C:\Users\EDULU~1.DES\AppData\Local\Temp\ccsWe06d.s 			page 28


 856 00d8 FB18     		adds	r3, r7, r3
 857 00da 1800     		movs	r0, r3
 858 00dc FFF7FEFF 		bl	OSSchedUnlock
 679:..\..\..\..\..\..\Software\uCOS-III\Source/os_tmr.c ****              success = DEF_TRUE;
 859              		.loc 1 679 0
 860 00e0 1F23     		movs	r3, #31
 861 00e2 FB18     		adds	r3, r7, r3
 862 00e4 0122     		movs	r2, #1
 863 00e6 1A70     		strb	r2, [r3]
 680:..\..\..\..\..\..\Software\uCOS-III\Source/os_tmr.c ****              break;
 864              		.loc 1 680 0
 865 00e8 26E0     		b	.L74
 866              	.L61:
 681:..\..\..\..\..\..\Software\uCOS-III\Source/os_tmr.c **** 
 682:..\..\..\..\..\..\Software\uCOS-III\Source/os_tmr.c ****         case OS_TMR_STATE_COMPLETED:                                  /* Timer has already complete
 683:..\..\..\..\..\..\Software\uCOS-III\Source/os_tmr.c ****         case OS_TMR_STATE_STOPPED:                                    /* ... timer has not started 
 684:..\..\..\..\..\..\Software\uCOS-III\Source/os_tmr.c ****              OSSchedUnlock(&err);
 867              		.loc 1 684 0
 868 00ea 1623     		movs	r3, #22
 869 00ec FB18     		adds	r3, r7, r3
 870 00ee 1800     		movs	r0, r3
 871 00f0 FFF7FEFF 		bl	OSSchedUnlock
 685:..\..\..\..\..\..\Software\uCOS-III\Source/os_tmr.c ****             *p_err   = OS_ERR_TMR_STOPPED;
 872              		.loc 1 685 0
 873 00f4 3B68     		ldr	r3, [r7]
 874 00f6 194A     		ldr	r2, .L78+20
 875 00f8 1A80     		strh	r2, [r3]
 686:..\..\..\..\..\..\Software\uCOS-III\Source/os_tmr.c ****              success = DEF_TRUE;
 876              		.loc 1 686 0
 877 00fa 1F23     		movs	r3, #31
 878 00fc FB18     		adds	r3, r7, r3
 879 00fe 0122     		movs	r2, #1
 880 0100 1A70     		strb	r2, [r3]
 687:..\..\..\..\..\..\Software\uCOS-III\Source/os_tmr.c ****              break;
 881              		.loc 1 687 0
 882 0102 19E0     		b	.L74
 883              	.L63:
 688:..\..\..\..\..\..\Software\uCOS-III\Source/os_tmr.c **** 
 689:..\..\..\..\..\..\Software\uCOS-III\Source/os_tmr.c ****         case OS_TMR_STATE_UNUSED:                                     /* Timer was not created     
 690:..\..\..\..\..\..\Software\uCOS-III\Source/os_tmr.c ****              OSSchedUnlock(&err);
 884              		.loc 1 690 0
 885 0104 1623     		movs	r3, #22
 886 0106 FB18     		adds	r3, r7, r3
 887 0108 1800     		movs	r0, r3
 888 010a FFF7FEFF 		bl	OSSchedUnlock
 691:..\..\..\..\..\..\Software\uCOS-III\Source/os_tmr.c ****             *p_err   = OS_ERR_TMR_INACTIVE;
 889              		.loc 1 691 0
 890 010e 3B68     		ldr	r3, [r7]
 891 0110 134A     		ldr	r2, .L78+24
 892 0112 1A80     		strh	r2, [r3]
 692:..\..\..\..\..\..\Software\uCOS-III\Source/os_tmr.c ****              success = DEF_FALSE;
 893              		.loc 1 692 0
 894 0114 1F23     		movs	r3, #31
 895 0116 FB18     		adds	r3, r7, r3
 896 0118 0022     		movs	r2, #0
 897 011a 1A70     		strb	r2, [r3]
 693:..\..\..\..\..\..\Software\uCOS-III\Source/os_tmr.c ****              break;
ARM GAS  C:\Users\EDULU~1.DES\AppData\Local\Temp\ccsWe06d.s 			page 29


 898              		.loc 1 693 0
 899 011c 0CE0     		b	.L74
 900              	.L60:
 694:..\..\..\..\..\..\Software\uCOS-III\Source/os_tmr.c **** 
 695:..\..\..\..\..\..\Software\uCOS-III\Source/os_tmr.c ****         default:
 696:..\..\..\..\..\..\Software\uCOS-III\Source/os_tmr.c ****              OSSchedUnlock(&err);
 901              		.loc 1 696 0
 902 011e 1623     		movs	r3, #22
 903 0120 FB18     		adds	r3, r7, r3
 904 0122 1800     		movs	r0, r3
 905 0124 FFF7FEFF 		bl	OSSchedUnlock
 697:..\..\..\..\..\..\Software\uCOS-III\Source/os_tmr.c ****             *p_err   = OS_ERR_TMR_INVALID_STATE;
 906              		.loc 1 697 0
 907 0128 3B68     		ldr	r3, [r7]
 908 012a 0E4A     		ldr	r2, .L78+28
 909 012c 1A80     		strh	r2, [r3]
 698:..\..\..\..\..\..\Software\uCOS-III\Source/os_tmr.c ****              success = DEF_FALSE;
 910              		.loc 1 698 0
 911 012e 1F23     		movs	r3, #31
 912 0130 FB18     		adds	r3, r7, r3
 913 0132 0022     		movs	r2, #0
 914 0134 1A70     		strb	r2, [r3]
 699:..\..\..\..\..\..\Software\uCOS-III\Source/os_tmr.c ****              break;
 915              		.loc 1 699 0
 916 0136 C046     		nop
 917              	.L74:
 700:..\..\..\..\..\..\Software\uCOS-III\Source/os_tmr.c ****     }
 701:..\..\..\..\..\..\Software\uCOS-III\Source/os_tmr.c ****     return (success);
 918              		.loc 1 701 0
 919 0138 1F23     		movs	r3, #31
 920 013a FB18     		adds	r3, r7, r3
 921 013c 1B78     		ldrb	r3, [r3]
 922              	.L75:
 702:..\..\..\..\..\..\Software\uCOS-III\Source/os_tmr.c **** }
 923              		.loc 1 702 0 discriminator 1
 924 013e 1800     		movs	r0, r3
 925 0140 BD46     		mov	sp, r7
 926 0142 08B0     		add	sp, sp, #32
 927              		@ sp needed
 928 0144 80BD     		pop	{r7, pc}
 929              	.L79:
 930 0146 C046     		.align	2
 931              	.L78:
 932 0148 00000000 		.word	OSIntNestingCtr
 933 014c 43730000 		.word	29507
 934 0150 42730000 		.word	29506
 935 0154 44730000 		.word	29508
 936 0158 255E0000 		.word	24101
 937 015c 49730000 		.word	29513
 938 0160 3D730000 		.word	29501
 939 0164 41730000 		.word	29505
 940              		.cfi_endproc
 941              	.LFE5:
 942              		.size	OSTmrStop, .-OSTmrStop
 943              		.section	.rodata
 944              		.align	2
 945              	.LC7:
ARM GAS  C:\Users\EDULU~1.DES\AppData\Local\Temp\ccsWe06d.s 			page 30


 946 0000 3F544D52 		.ascii	"?TMR\000"
 946      00
 947              		.section	.text.OS_TmrClr,"ax",%progbits
 948              		.align	2
 949              		.global	OS_TmrClr
 950              		.code	16
 951              		.thumb_func
 952              		.type	OS_TmrClr, %function
 953              	OS_TmrClr:
 954              	.LFB6:
 703:..\..\..\..\..\..\Software\uCOS-III\Source/os_tmr.c **** 
 704:..\..\..\..\..\..\Software\uCOS-III\Source/os_tmr.c **** /*$PAGE*/
 705:..\..\..\..\..\..\Software\uCOS-III\Source/os_tmr.c **** /*
 706:..\..\..\..\..\..\Software\uCOS-III\Source/os_tmr.c **** ***************************************************************************************************
 707:..\..\..\..\..\..\Software\uCOS-III\Source/os_tmr.c **** *                                                 CLEAR TIMER FIELDS
 708:..\..\..\..\..\..\Software\uCOS-III\Source/os_tmr.c **** *
 709:..\..\..\..\..\..\Software\uCOS-III\Source/os_tmr.c **** * Description: This function is called to clear all timer fields.
 710:..\..\..\..\..\..\Software\uCOS-III\Source/os_tmr.c **** *
 711:..\..\..\..\..\..\Software\uCOS-III\Source/os_tmr.c **** * Argument(s): p_tmr    is a pointer to the timer to clear
 712:..\..\..\..\..\..\Software\uCOS-III\Source/os_tmr.c **** *              -----
 713:..\..\..\..\..\..\Software\uCOS-III\Source/os_tmr.c **** *
 714:..\..\..\..\..\..\Software\uCOS-III\Source/os_tmr.c **** * Returns    : none
 715:..\..\..\..\..\..\Software\uCOS-III\Source/os_tmr.c **** *
 716:..\..\..\..\..\..\Software\uCOS-III\Source/os_tmr.c **** * Note(s)    : 1) This function is INTERNAL to uC/OS-III and your application MUST NOT call it.
 717:..\..\..\..\..\..\Software\uCOS-III\Source/os_tmr.c **** ***************************************************************************************************
 718:..\..\..\..\..\..\Software\uCOS-III\Source/os_tmr.c **** */
 719:..\..\..\..\..\..\Software\uCOS-III\Source/os_tmr.c **** 
 720:..\..\..\..\..\..\Software\uCOS-III\Source/os_tmr.c **** void  OS_TmrClr (OS_TMR  *p_tmr)
 721:..\..\..\..\..\..\Software\uCOS-III\Source/os_tmr.c **** {
 955              		.loc 1 721 0
 956              		.cfi_startproc
 957              		@ args = 0, pretend = 0, frame = 8
 958              		@ frame_needed = 1, uses_anonymous_args = 0
 959 0000 80B5     		push	{r7, lr}
 960              		.cfi_def_cfa_offset 8
 961              		.cfi_offset 7, -8
 962              		.cfi_offset 14, -4
 963 0002 82B0     		sub	sp, sp, #8
 964              		.cfi_def_cfa_offset 16
 965 0004 00AF     		add	r7, sp, #0
 966              		.cfi_def_cfa_register 7
 967 0006 7860     		str	r0, [r7, #4]
 722:..\..\..\..\..\..\Software\uCOS-III\Source/os_tmr.c ****     p_tmr->State          = OS_TMR_STATE_UNUSED;            /* Clear timer fields                  
 968              		.loc 1 722 0
 969 0008 7B68     		ldr	r3, [r7, #4]
 970 000a 2A22     		movs	r2, #42
 971 000c 0021     		movs	r1, #0
 972 000e 9954     		strb	r1, [r3, r2]
 723:..\..\..\..\..\..\Software\uCOS-III\Source/os_tmr.c ****     p_tmr->Type           = OS_OBJ_TYPE_NONE;
 973              		.loc 1 723 0
 974 0010 7B68     		ldr	r3, [r7, #4]
 975 0012 124A     		ldr	r2, .L81
 976 0014 1A60     		str	r2, [r3]
 724:..\..\..\..\..\..\Software\uCOS-III\Source/os_tmr.c ****     p_tmr->NamePtr        = (CPU_CHAR          *)((void *)"?TMR");
 977              		.loc 1 724 0
 978 0016 7B68     		ldr	r3, [r7, #4]
 979 0018 114A     		ldr	r2, .L81+4
ARM GAS  C:\Users\EDULU~1.DES\AppData\Local\Temp\ccsWe06d.s 			page 31


 980 001a 5A60     		str	r2, [r3, #4]
 725:..\..\..\..\..\..\Software\uCOS-III\Source/os_tmr.c ****     p_tmr->Dly            = (OS_TICK            )0;
 981              		.loc 1 725 0
 982 001c 7B68     		ldr	r3, [r7, #4]
 983 001e 0022     		movs	r2, #0
 984 0020 1A62     		str	r2, [r3, #32]
 726:..\..\..\..\..\..\Software\uCOS-III\Source/os_tmr.c ****     p_tmr->Match          = (OS_TICK            )0;
 985              		.loc 1 726 0
 986 0022 7B68     		ldr	r3, [r7, #4]
 987 0024 0022     		movs	r2, #0
 988 0026 9A61     		str	r2, [r3, #24]
 727:..\..\..\..\..\..\Software\uCOS-III\Source/os_tmr.c ****     p_tmr->Remain         = (OS_TICK            )0;
 989              		.loc 1 727 0
 990 0028 7B68     		ldr	r3, [r7, #4]
 991 002a 0022     		movs	r2, #0
 992 002c DA61     		str	r2, [r3, #28]
 728:..\..\..\..\..\..\Software\uCOS-III\Source/os_tmr.c ****     p_tmr->Period         = (OS_TICK            )0;
 993              		.loc 1 728 0
 994 002e 7B68     		ldr	r3, [r7, #4]
 995 0030 0022     		movs	r2, #0
 996 0032 5A62     		str	r2, [r3, #36]
 729:..\..\..\..\..\..\Software\uCOS-III\Source/os_tmr.c ****     p_tmr->Opt            = (OS_OPT             )0;
 997              		.loc 1 729 0
 998 0034 7B68     		ldr	r3, [r7, #4]
 999 0036 0022     		movs	r2, #0
 1000 0038 1A85     		strh	r2, [r3, #40]
 730:..\..\..\..\..\..\Software\uCOS-III\Source/os_tmr.c ****     p_tmr->CallbackPtr    = (OS_TMR_CALLBACK_PTR)0;
 1001              		.loc 1 730 0
 1002 003a 7B68     		ldr	r3, [r7, #4]
 1003 003c 0022     		movs	r2, #0
 1004 003e 9A60     		str	r2, [r3, #8]
 731:..\..\..\..\..\..\Software\uCOS-III\Source/os_tmr.c ****     p_tmr->CallbackPtrArg = (void              *)0;
 1005              		.loc 1 731 0
 1006 0040 7B68     		ldr	r3, [r7, #4]
 1007 0042 0022     		movs	r2, #0
 1008 0044 DA60     		str	r2, [r3, #12]
 732:..\..\..\..\..\..\Software\uCOS-III\Source/os_tmr.c ****     p_tmr->NextPtr        = (OS_TMR            *)0;
 1009              		.loc 1 732 0
 1010 0046 7B68     		ldr	r3, [r7, #4]
 1011 0048 0022     		movs	r2, #0
 1012 004a 1A61     		str	r2, [r3, #16]
 733:..\..\..\..\..\..\Software\uCOS-III\Source/os_tmr.c ****     p_tmr->PrevPtr        = (OS_TMR            *)0;
 1013              		.loc 1 733 0
 1014 004c 7B68     		ldr	r3, [r7, #4]
 1015 004e 0022     		movs	r2, #0
 1016 0050 5A61     		str	r2, [r3, #20]
 734:..\..\..\..\..\..\Software\uCOS-III\Source/os_tmr.c **** }
 1017              		.loc 1 734 0
 1018 0052 C046     		nop
 1019 0054 BD46     		mov	sp, r7
 1020 0056 02B0     		add	sp, sp, #8
 1021              		@ sp needed
 1022 0058 80BD     		pop	{r7, pc}
 1023              	.L82:
 1024 005a C046     		.align	2
 1025              	.L81:
 1026 005c 4E4F4E45 		.word	1162760014
ARM GAS  C:\Users\EDULU~1.DES\AppData\Local\Temp\ccsWe06d.s 			page 32


 1027 0060 00000000 		.word	.LC7
 1028              		.cfi_endproc
 1029              	.LFE6:
 1030              		.size	OS_TmrClr, .-OS_TmrClr
 1031              		.section	.text.OS_TmrDbgListAdd,"ax",%progbits
 1032              		.align	2
 1033              		.global	OS_TmrDbgListAdd
 1034              		.code	16
 1035              		.thumb_func
 1036              		.type	OS_TmrDbgListAdd, %function
 1037              	OS_TmrDbgListAdd:
 1038              	.LFB7:
 735:..\..\..\..\..\..\Software\uCOS-III\Source/os_tmr.c **** 
 736:..\..\..\..\..\..\Software\uCOS-III\Source/os_tmr.c **** /*$PAGE*/
 737:..\..\..\..\..\..\Software\uCOS-III\Source/os_tmr.c **** /*
 738:..\..\..\..\..\..\Software\uCOS-III\Source/os_tmr.c **** ***************************************************************************************************
 739:..\..\..\..\..\..\Software\uCOS-III\Source/os_tmr.c **** *                                         ADD/REMOVE TIMER TO/FROM DEBUG TABLE
 740:..\..\..\..\..\..\Software\uCOS-III\Source/os_tmr.c **** *
 741:..\..\..\..\..\..\Software\uCOS-III\Source/os_tmr.c **** * Description: These functions are called by uC/OS-III to add or remove a timer to/from a timer deb
 742:..\..\..\..\..\..\Software\uCOS-III\Source/os_tmr.c **** *
 743:..\..\..\..\..\..\Software\uCOS-III\Source/os_tmr.c **** * Arguments  : p_tmr     is a pointer to the timer to add/remove
 744:..\..\..\..\..\..\Software\uCOS-III\Source/os_tmr.c **** *
 745:..\..\..\..\..\..\Software\uCOS-III\Source/os_tmr.c **** * Returns    : none
 746:..\..\..\..\..\..\Software\uCOS-III\Source/os_tmr.c **** *
 747:..\..\..\..\..\..\Software\uCOS-III\Source/os_tmr.c **** * Note(s)    : These functions are INTERNAL to uC/OS-III and your application should not call it.
 748:..\..\..\..\..\..\Software\uCOS-III\Source/os_tmr.c **** ***************************************************************************************************
 749:..\..\..\..\..\..\Software\uCOS-III\Source/os_tmr.c **** */
 750:..\..\..\..\..\..\Software\uCOS-III\Source/os_tmr.c **** 
 751:..\..\..\..\..\..\Software\uCOS-III\Source/os_tmr.c **** 
 752:..\..\..\..\..\..\Software\uCOS-III\Source/os_tmr.c **** #if OS_CFG_DBG_EN > 0u
 753:..\..\..\..\..\..\Software\uCOS-III\Source/os_tmr.c **** void  OS_TmrDbgListAdd (OS_TMR  *p_tmr)
 754:..\..\..\..\..\..\Software\uCOS-III\Source/os_tmr.c **** {
 1039              		.loc 1 754 0
 1040              		.cfi_startproc
 1041              		@ args = 0, pretend = 0, frame = 8
 1042              		@ frame_needed = 1, uses_anonymous_args = 0
 1043 0000 80B5     		push	{r7, lr}
 1044              		.cfi_def_cfa_offset 8
 1045              		.cfi_offset 7, -8
 1046              		.cfi_offset 14, -4
 1047 0002 82B0     		sub	sp, sp, #8
 1048              		.cfi_def_cfa_offset 16
 1049 0004 00AF     		add	r7, sp, #0
 1050              		.cfi_def_cfa_register 7
 1051 0006 7860     		str	r0, [r7, #4]
 755:..\..\..\..\..\..\Software\uCOS-III\Source/os_tmr.c ****     p_tmr->DbgPrevPtr               = (OS_TMR *)0;
 1052              		.loc 1 755 0
 1053 0008 7B68     		ldr	r3, [r7, #4]
 1054 000a 0022     		movs	r2, #0
 1055 000c DA62     		str	r2, [r3, #44]
 756:..\..\..\..\..\..\Software\uCOS-III\Source/os_tmr.c ****     if (OSTmrDbgListPtr == (OS_TMR *)0) {
 1056              		.loc 1 756 0
 1057 000e 0B4B     		ldr	r3, .L86
 1058 0010 1B68     		ldr	r3, [r3]
 1059 0012 002B     		cmp	r3, #0
 1060 0014 03D1     		bne	.L84
 757:..\..\..\..\..\..\Software\uCOS-III\Source/os_tmr.c ****         p_tmr->DbgNextPtr           = (OS_TMR *)0;
ARM GAS  C:\Users\EDULU~1.DES\AppData\Local\Temp\ccsWe06d.s 			page 33


 1061              		.loc 1 757 0
 1062 0016 7B68     		ldr	r3, [r7, #4]
 1063 0018 0022     		movs	r2, #0
 1064 001a 1A63     		str	r2, [r3, #48]
 1065 001c 07E0     		b	.L85
 1066              	.L84:
 758:..\..\..\..\..\..\Software\uCOS-III\Source/os_tmr.c ****     } else {
 759:..\..\..\..\..\..\Software\uCOS-III\Source/os_tmr.c ****         p_tmr->DbgNextPtr           =  OSTmrDbgListPtr;
 1067              		.loc 1 759 0
 1068 001e 074B     		ldr	r3, .L86
 1069 0020 1A68     		ldr	r2, [r3]
 1070 0022 7B68     		ldr	r3, [r7, #4]
 1071 0024 1A63     		str	r2, [r3, #48]
 760:..\..\..\..\..\..\Software\uCOS-III\Source/os_tmr.c ****         OSTmrDbgListPtr->DbgPrevPtr =  p_tmr;
 1072              		.loc 1 760 0
 1073 0026 054B     		ldr	r3, .L86
 1074 0028 1B68     		ldr	r3, [r3]
 1075 002a 7A68     		ldr	r2, [r7, #4]
 1076 002c DA62     		str	r2, [r3, #44]
 1077              	.L85:
 761:..\..\..\..\..\..\Software\uCOS-III\Source/os_tmr.c ****     }
 762:..\..\..\..\..\..\Software\uCOS-III\Source/os_tmr.c ****     OSTmrDbgListPtr                 =  p_tmr;
 1078              		.loc 1 762 0
 1079 002e 034B     		ldr	r3, .L86
 1080 0030 7A68     		ldr	r2, [r7, #4]
 1081 0032 1A60     		str	r2, [r3]
 763:..\..\..\..\..\..\Software\uCOS-III\Source/os_tmr.c **** }
 1082              		.loc 1 763 0
 1083 0034 C046     		nop
 1084 0036 BD46     		mov	sp, r7
 1085 0038 02B0     		add	sp, sp, #8
 1086              		@ sp needed
 1087 003a 80BD     		pop	{r7, pc}
 1088              	.L87:
 1089              		.align	2
 1090              	.L86:
 1091 003c 00000000 		.word	OSTmrDbgListPtr
 1092              		.cfi_endproc
 1093              	.LFE7:
 1094              		.size	OS_TmrDbgListAdd, .-OS_TmrDbgListAdd
 1095              		.section	.text.OS_TmrDbgListRemove,"ax",%progbits
 1096              		.align	2
 1097              		.global	OS_TmrDbgListRemove
 1098              		.code	16
 1099              		.thumb_func
 1100              		.type	OS_TmrDbgListRemove, %function
 1101              	OS_TmrDbgListRemove:
 1102              	.LFB8:
 764:..\..\..\..\..\..\Software\uCOS-III\Source/os_tmr.c **** 
 765:..\..\..\..\..\..\Software\uCOS-III\Source/os_tmr.c **** 
 766:..\..\..\..\..\..\Software\uCOS-III\Source/os_tmr.c **** 
 767:..\..\..\..\..\..\Software\uCOS-III\Source/os_tmr.c **** void  OS_TmrDbgListRemove (OS_TMR  *p_tmr)
 768:..\..\..\..\..\..\Software\uCOS-III\Source/os_tmr.c **** {
 1103              		.loc 1 768 0
 1104              		.cfi_startproc
 1105              		@ args = 0, pretend = 0, frame = 16
 1106              		@ frame_needed = 1, uses_anonymous_args = 0
ARM GAS  C:\Users\EDULU~1.DES\AppData\Local\Temp\ccsWe06d.s 			page 34


 1107 0000 80B5     		push	{r7, lr}
 1108              		.cfi_def_cfa_offset 8
 1109              		.cfi_offset 7, -8
 1110              		.cfi_offset 14, -4
 1111 0002 84B0     		sub	sp, sp, #16
 1112              		.cfi_def_cfa_offset 24
 1113 0004 00AF     		add	r7, sp, #0
 1114              		.cfi_def_cfa_register 7
 1115 0006 7860     		str	r0, [r7, #4]
 769:..\..\..\..\..\..\Software\uCOS-III\Source/os_tmr.c ****     OS_TMR  *p_tmr_next;
 770:..\..\..\..\..\..\Software\uCOS-III\Source/os_tmr.c ****     OS_TMR  *p_tmr_prev;
 771:..\..\..\..\..\..\Software\uCOS-III\Source/os_tmr.c **** 
 772:..\..\..\..\..\..\Software\uCOS-III\Source/os_tmr.c **** 
 773:..\..\..\..\..\..\Software\uCOS-III\Source/os_tmr.c ****     p_tmr_prev = p_tmr->DbgPrevPtr;
 1116              		.loc 1 773 0
 1117 0008 7B68     		ldr	r3, [r7, #4]
 1118 000a DB6A     		ldr	r3, [r3, #44]
 1119 000c FB60     		str	r3, [r7, #12]
 774:..\..\..\..\..\..\Software\uCOS-III\Source/os_tmr.c ****     p_tmr_next = p_tmr->DbgNextPtr;
 1120              		.loc 1 774 0
 1121 000e 7B68     		ldr	r3, [r7, #4]
 1122 0010 1B6B     		ldr	r3, [r3, #48]
 1123 0012 BB60     		str	r3, [r7, #8]
 775:..\..\..\..\..\..\Software\uCOS-III\Source/os_tmr.c **** 
 776:..\..\..\..\..\..\Software\uCOS-III\Source/os_tmr.c ****     if (p_tmr_prev == (OS_TMR *)0) {
 1124              		.loc 1 776 0
 1125 0014 FB68     		ldr	r3, [r7, #12]
 1126 0016 002B     		cmp	r3, #0
 1127 0018 0CD1     		bne	.L89
 777:..\..\..\..\..\..\Software\uCOS-III\Source/os_tmr.c ****         OSTmrDbgListPtr = p_tmr_next;
 1128              		.loc 1 777 0
 1129 001a 134B     		ldr	r3, .L94
 1130 001c BA68     		ldr	r2, [r7, #8]
 1131 001e 1A60     		str	r2, [r3]
 778:..\..\..\..\..\..\Software\uCOS-III\Source/os_tmr.c ****         if (p_tmr_next != (OS_TMR *)0) {
 1132              		.loc 1 778 0
 1133 0020 BB68     		ldr	r3, [r7, #8]
 1134 0022 002B     		cmp	r3, #0
 1135 0024 02D0     		beq	.L90
 779:..\..\..\..\..\..\Software\uCOS-III\Source/os_tmr.c ****             p_tmr_next->DbgPrevPtr = (OS_TMR *)0;
 1136              		.loc 1 779 0
 1137 0026 BB68     		ldr	r3, [r7, #8]
 1138 0028 0022     		movs	r2, #0
 1139 002a DA62     		str	r2, [r3, #44]
 1140              	.L90:
 780:..\..\..\..\..\..\Software\uCOS-III\Source/os_tmr.c ****         }
 781:..\..\..\..\..\..\Software\uCOS-III\Source/os_tmr.c ****         p_tmr->DbgNextPtr = (OS_TMR *)0;
 1141              		.loc 1 781 0
 1142 002c 7B68     		ldr	r3, [r7, #4]
 1143 002e 0022     		movs	r2, #0
 1144 0030 1A63     		str	r2, [r3, #48]
 782:..\..\..\..\..\..\Software\uCOS-III\Source/os_tmr.c **** 
 783:..\..\..\..\..\..\Software\uCOS-III\Source/os_tmr.c ****     } else if (p_tmr_next == (OS_TMR *)0) {
 784:..\..\..\..\..\..\Software\uCOS-III\Source/os_tmr.c ****         p_tmr_prev->DbgNextPtr = (OS_TMR *)0;
 785:..\..\..\..\..\..\Software\uCOS-III\Source/os_tmr.c ****         p_tmr->DbgPrevPtr      = (OS_TMR *)0;
 786:..\..\..\..\..\..\Software\uCOS-III\Source/os_tmr.c **** 
 787:..\..\..\..\..\..\Software\uCOS-III\Source/os_tmr.c ****     } else {
ARM GAS  C:\Users\EDULU~1.DES\AppData\Local\Temp\ccsWe06d.s 			page 35


 788:..\..\..\..\..\..\Software\uCOS-III\Source/os_tmr.c ****         p_tmr_prev->DbgNextPtr =  p_tmr_next;
 789:..\..\..\..\..\..\Software\uCOS-III\Source/os_tmr.c ****         p_tmr_next->DbgPrevPtr =  p_tmr_prev;
 790:..\..\..\..\..\..\Software\uCOS-III\Source/os_tmr.c ****         p_tmr->DbgNextPtr      = (OS_TMR *)0;
 791:..\..\..\..\..\..\Software\uCOS-III\Source/os_tmr.c ****         p_tmr->DbgPrevPtr      = (OS_TMR *)0;
 792:..\..\..\..\..\..\Software\uCOS-III\Source/os_tmr.c ****     }
 793:..\..\..\..\..\..\Software\uCOS-III\Source/os_tmr.c **** }
 1145              		.loc 1 793 0
 1146 0032 15E0     		b	.L93
 1147              	.L89:
 783:..\..\..\..\..\..\Software\uCOS-III\Source/os_tmr.c ****         p_tmr_prev->DbgNextPtr = (OS_TMR *)0;
 1148              		.loc 1 783 0
 1149 0034 BB68     		ldr	r3, [r7, #8]
 1150 0036 002B     		cmp	r3, #0
 1151 0038 06D1     		bne	.L92
 784:..\..\..\..\..\..\Software\uCOS-III\Source/os_tmr.c ****         p_tmr->DbgPrevPtr      = (OS_TMR *)0;
 1152              		.loc 1 784 0
 1153 003a FB68     		ldr	r3, [r7, #12]
 1154 003c 0022     		movs	r2, #0
 1155 003e 1A63     		str	r2, [r3, #48]
 785:..\..\..\..\..\..\Software\uCOS-III\Source/os_tmr.c **** 
 1156              		.loc 1 785 0
 1157 0040 7B68     		ldr	r3, [r7, #4]
 1158 0042 0022     		movs	r2, #0
 1159 0044 DA62     		str	r2, [r3, #44]
 1160              		.loc 1 793 0
 1161 0046 0BE0     		b	.L93
 1162              	.L92:
 788:..\..\..\..\..\..\Software\uCOS-III\Source/os_tmr.c ****         p_tmr_next->DbgPrevPtr =  p_tmr_prev;
 1163              		.loc 1 788 0
 1164 0048 FB68     		ldr	r3, [r7, #12]
 1165 004a BA68     		ldr	r2, [r7, #8]
 1166 004c 1A63     		str	r2, [r3, #48]
 789:..\..\..\..\..\..\Software\uCOS-III\Source/os_tmr.c ****         p_tmr->DbgNextPtr      = (OS_TMR *)0;
 1167              		.loc 1 789 0
 1168 004e BB68     		ldr	r3, [r7, #8]
 1169 0050 FA68     		ldr	r2, [r7, #12]
 1170 0052 DA62     		str	r2, [r3, #44]
 790:..\..\..\..\..\..\Software\uCOS-III\Source/os_tmr.c ****         p_tmr->DbgPrevPtr      = (OS_TMR *)0;
 1171              		.loc 1 790 0
 1172 0054 7B68     		ldr	r3, [r7, #4]
 1173 0056 0022     		movs	r2, #0
 1174 0058 1A63     		str	r2, [r3, #48]
 791:..\..\..\..\..\..\Software\uCOS-III\Source/os_tmr.c ****     }
 1175              		.loc 1 791 0
 1176 005a 7B68     		ldr	r3, [r7, #4]
 1177 005c 0022     		movs	r2, #0
 1178 005e DA62     		str	r2, [r3, #44]
 1179              	.L93:
 1180              		.loc 1 793 0
 1181 0060 C046     		nop
 1182 0062 BD46     		mov	sp, r7
 1183 0064 04B0     		add	sp, sp, #16
 1184              		@ sp needed
 1185 0066 80BD     		pop	{r7, pc}
 1186              	.L95:
 1187              		.align	2
 1188              	.L94:
ARM GAS  C:\Users\EDULU~1.DES\AppData\Local\Temp\ccsWe06d.s 			page 36


 1189 0068 00000000 		.word	OSTmrDbgListPtr
 1190              		.cfi_endproc
 1191              	.LFE8:
 1192              		.size	OS_TmrDbgListRemove, .-OS_TmrDbgListRemove
 1193              		.global	__aeabi_uidiv
 1194              		.section	.rodata
 1195 0005 000000   		.align	2
 1196              	.LC26:
 1197 0008 75432F4F 		.ascii	"uC/OS-III Timer Task\000"
 1197      532D4949 
 1197      49205469 
 1197      6D657220 
 1197      5461736B 
 1198              		.section	.text.OS_TmrInit,"ax",%progbits
 1199              		.align	2
 1200              		.global	OS_TmrInit
 1201              		.code	16
 1202              		.thumb_func
 1203              		.type	OS_TmrInit, %function
 1204              	OS_TmrInit:
 1205              	.LFB9:
 794:..\..\..\..\..\..\Software\uCOS-III\Source/os_tmr.c **** #endif
 795:..\..\..\..\..\..\Software\uCOS-III\Source/os_tmr.c **** 
 796:..\..\..\..\..\..\Software\uCOS-III\Source/os_tmr.c **** /*$PAGE*/
 797:..\..\..\..\..\..\Software\uCOS-III\Source/os_tmr.c **** /*
 798:..\..\..\..\..\..\Software\uCOS-III\Source/os_tmr.c **** ***************************************************************************************************
 799:..\..\..\..\..\..\Software\uCOS-III\Source/os_tmr.c **** *                                             INITIALIZE THE TIMER MANAGER
 800:..\..\..\..\..\..\Software\uCOS-III\Source/os_tmr.c **** *
 801:..\..\..\..\..\..\Software\uCOS-III\Source/os_tmr.c **** * Description: This function is called by OSInit() to initialize the timer manager module.
 802:..\..\..\..\..\..\Software\uCOS-III\Source/os_tmr.c **** *
 803:..\..\..\..\..\..\Software\uCOS-III\Source/os_tmr.c **** * Argument(s): p_err    is a pointer to a variable that will contain an error code returned by this
 804:..\..\..\..\..\..\Software\uCOS-III\Source/os_tmr.c **** *
 805:..\..\..\..\..\..\Software\uCOS-III\Source/os_tmr.c **** *                           OS_ERR_NONE
 806:..\..\..\..\..\..\Software\uCOS-III\Source/os_tmr.c **** *                           OS_ERR_TMR_STK_INVALID       if you didn't specify a stack for the time
 807:..\..\..\..\..\..\Software\uCOS-III\Source/os_tmr.c **** *                           OS_ERR_TMR_STK_SIZE_INVALID  if you didn't allocate enough space for th
 808:..\..\..\..\..\..\Software\uCOS-III\Source/os_tmr.c **** *                           OS_ERR_PRIO_INVALID          if you specified the same priority as the 
 809:..\..\..\..\..\..\Software\uCOS-III\Source/os_tmr.c **** *                           OS_ERR_xxx                   any error code returned by OSTaskCreate()
 810:..\..\..\..\..\..\Software\uCOS-III\Source/os_tmr.c **** *
 811:..\..\..\..\..\..\Software\uCOS-III\Source/os_tmr.c **** * Returns    : none
 812:..\..\..\..\..\..\Software\uCOS-III\Source/os_tmr.c **** *
 813:..\..\..\..\..\..\Software\uCOS-III\Source/os_tmr.c **** * Note(s)    : 1) This function is INTERNAL to uC/OS-III and your application MUST NOT call it.
 814:..\..\..\..\..\..\Software\uCOS-III\Source/os_tmr.c **** ***************************************************************************************************
 815:..\..\..\..\..\..\Software\uCOS-III\Source/os_tmr.c **** */
 816:..\..\..\..\..\..\Software\uCOS-III\Source/os_tmr.c **** 
 817:..\..\..\..\..\..\Software\uCOS-III\Source/os_tmr.c **** void  OS_TmrInit (OS_ERR  *p_err)
 818:..\..\..\..\..\..\Software\uCOS-III\Source/os_tmr.c **** {
 1206              		.loc 1 818 0
 1207              		.cfi_startproc
 1208              		@ args = 0, pretend = 0, frame = 16
 1209              		@ frame_needed = 1, uses_anonymous_args = 0
 1210 0000 F0B5     		push	{r4, r5, r6, r7, lr}
 1211              		.cfi_def_cfa_offset 20
 1212              		.cfi_offset 4, -20
 1213              		.cfi_offset 5, -16
 1214              		.cfi_offset 6, -12
 1215              		.cfi_offset 7, -8
 1216              		.cfi_offset 14, -4
ARM GAS  C:\Users\EDULU~1.DES\AppData\Local\Temp\ccsWe06d.s 			page 37


 1217 0002 8FB0     		sub	sp, sp, #60
 1218              		.cfi_def_cfa_offset 80
 1219 0004 0AAF     		add	r7, sp, #40
 1220              		.cfi_def_cfa 7, 40
 1221 0006 7860     		str	r0, [r7, #4]
 819:..\..\..\..\..\..\Software\uCOS-III\Source/os_tmr.c ****     OS_TMR_SPOKE_IX   i;
 820:..\..\..\..\..\..\Software\uCOS-III\Source/os_tmr.c ****     OS_TMR_SPOKE     *p_spoke;
 821:..\..\..\..\..\..\Software\uCOS-III\Source/os_tmr.c **** 
 822:..\..\..\..\..\..\Software\uCOS-III\Source/os_tmr.c **** 
 823:..\..\..\..\..\..\Software\uCOS-III\Source/os_tmr.c **** 
 824:..\..\..\..\..\..\Software\uCOS-III\Source/os_tmr.c **** #ifdef OS_SAFETY_CRITICAL
 825:..\..\..\..\..\..\Software\uCOS-III\Source/os_tmr.c ****     if (p_err == (OS_ERR *)0) {
 826:..\..\..\..\..\..\Software\uCOS-III\Source/os_tmr.c ****         OS_SAFETY_CRITICAL_EXCEPTION();
 827:..\..\..\..\..\..\Software\uCOS-III\Source/os_tmr.c ****         return;
 828:..\..\..\..\..\..\Software\uCOS-III\Source/os_tmr.c ****     }
 829:..\..\..\..\..\..\Software\uCOS-III\Source/os_tmr.c **** #endif
 830:..\..\..\..\..\..\Software\uCOS-III\Source/os_tmr.c **** 
 831:..\..\..\..\..\..\Software\uCOS-III\Source/os_tmr.c **** #if OS_CFG_DBG_EN > 0u
 832:..\..\..\..\..\..\Software\uCOS-III\Source/os_tmr.c ****     OSTmrDbgListPtr = (OS_TMR *)0;
 1222              		.loc 1 832 0
 1223 0008 434B     		ldr	r3, .L105
 1224 000a 0022     		movs	r2, #0
 1225 000c 1A60     		str	r2, [r3]
 833:..\..\..\..\..\..\Software\uCOS-III\Source/os_tmr.c **** #endif
 834:..\..\..\..\..\..\Software\uCOS-III\Source/os_tmr.c **** 
 835:..\..\..\..\..\..\Software\uCOS-III\Source/os_tmr.c ****     if (OSCfg_TmrTaskRate_Hz > (OS_RATE_HZ)0) {
 1226              		.loc 1 835 0
 1227 000e 434B     		ldr	r3, .L105+4
 1228 0010 1B68     		ldr	r3, [r3]
 1229 0012 002B     		cmp	r3, #0
 1230 0014 0CD0     		beq	.L97
 836:..\..\..\..\..\..\Software\uCOS-III\Source/os_tmr.c ****         OSTmrUpdateCnt = OSCfg_TickRate_Hz / OSCfg_TmrTaskRate_Hz;
 1231              		.loc 1 836 0
 1232 0016 424B     		ldr	r3, .L105+8
 1233 0018 1A68     		ldr	r2, [r3]
 1234 001a 404B     		ldr	r3, .L105+4
 1235 001c 1B68     		ldr	r3, [r3]
 1236 001e 1900     		movs	r1, r3
 1237 0020 1000     		movs	r0, r2
 1238 0022 FFF7FEFF 		bl	__aeabi_uidiv
 1239 0026 0300     		movs	r3, r0
 1240 0028 1A00     		movs	r2, r3
 1241 002a 3E4B     		ldr	r3, .L105+12
 1242 002c 1A60     		str	r2, [r3]
 1243 002e 09E0     		b	.L98
 1244              	.L97:
 837:..\..\..\..\..\..\Software\uCOS-III\Source/os_tmr.c ****     } else {
 838:..\..\..\..\..\..\Software\uCOS-III\Source/os_tmr.c ****         OSTmrUpdateCnt = OSCfg_TickRate_Hz / (OS_RATE_HZ)10;
 1245              		.loc 1 838 0
 1246 0030 3B4B     		ldr	r3, .L105+8
 1247 0032 1B68     		ldr	r3, [r3]
 1248 0034 0A21     		movs	r1, #10
 1249 0036 1800     		movs	r0, r3
 1250 0038 FFF7FEFF 		bl	__aeabi_uidiv
 1251 003c 0300     		movs	r3, r0
 1252 003e 1A00     		movs	r2, r3
 1253 0040 384B     		ldr	r3, .L105+12
ARM GAS  C:\Users\EDULU~1.DES\AppData\Local\Temp\ccsWe06d.s 			page 38


 1254 0042 1A60     		str	r2, [r3]
 1255              	.L98:
 839:..\..\..\..\..\..\Software\uCOS-III\Source/os_tmr.c ****     }
 840:..\..\..\..\..\..\Software\uCOS-III\Source/os_tmr.c ****     OSTmrUpdateCtr   = OSTmrUpdateCnt;
 1256              		.loc 1 840 0
 1257 0044 374B     		ldr	r3, .L105+12
 1258 0046 1A68     		ldr	r2, [r3]
 1259 0048 374B     		ldr	r3, .L105+16
 1260 004a 1A60     		str	r2, [r3]
 841:..\..\..\..\..\..\Software\uCOS-III\Source/os_tmr.c **** 
 842:..\..\..\..\..\..\Software\uCOS-III\Source/os_tmr.c ****     OSTmrTickCtr     = (OS_TICK)0;
 1261              		.loc 1 842 0
 1262 004c 374B     		ldr	r3, .L105+20
 1263 004e 0022     		movs	r2, #0
 1264 0050 1A60     		str	r2, [r3]
 843:..\..\..\..\..\..\Software\uCOS-III\Source/os_tmr.c **** 
 844:..\..\..\..\..\..\Software\uCOS-III\Source/os_tmr.c ****     OSTmrTaskTimeMax = (CPU_TS)0;
 1265              		.loc 1 844 0
 1266 0052 374B     		ldr	r3, .L105+24
 1267 0054 0022     		movs	r2, #0
 1268 0056 1A60     		str	r2, [r3]
 845:..\..\..\..\..\..\Software\uCOS-III\Source/os_tmr.c **** 
 846:..\..\..\..\..\..\Software\uCOS-III\Source/os_tmr.c ****     for (i = 0u; i < OSCfg_TmrWheelSize; i++) {
 1269              		.loc 1 846 0
 1270 0058 0E23     		movs	r3, #14
 1271 005a FB18     		adds	r3, r7, r3
 1272 005c 0022     		movs	r2, #0
 1273 005e 1A80     		strh	r2, [r3]
 1274 0060 16E0     		b	.L99
 1275              	.L100:
 847:..\..\..\..\..\..\Software\uCOS-III\Source/os_tmr.c ****         p_spoke                = &OSCfg_TmrWheel[i];
 1276              		.loc 1 847 0 discriminator 3
 1277 0062 0E23     		movs	r3, #14
 1278 0064 FB18     		adds	r3, r7, r3
 1279 0066 1B88     		ldrh	r3, [r3]
 1280 0068 DA00     		lsls	r2, r3, #3
 1281 006a 324B     		ldr	r3, .L105+28
 1282 006c D318     		adds	r3, r2, r3
 1283 006e BB60     		str	r3, [r7, #8]
 848:..\..\..\..\..\..\Software\uCOS-III\Source/os_tmr.c ****         p_spoke->NbrEntries    = (OS_OBJ_QTY)0;
 1284              		.loc 1 848 0 discriminator 3
 1285 0070 BB68     		ldr	r3, [r7, #8]
 1286 0072 0022     		movs	r2, #0
 1287 0074 9A80     		strh	r2, [r3, #4]
 849:..\..\..\..\..\..\Software\uCOS-III\Source/os_tmr.c ****         p_spoke->NbrEntriesMax = (OS_OBJ_QTY)0;
 1288              		.loc 1 849 0 discriminator 3
 1289 0076 BB68     		ldr	r3, [r7, #8]
 1290 0078 0022     		movs	r2, #0
 1291 007a DA80     		strh	r2, [r3, #6]
 850:..\..\..\..\..\..\Software\uCOS-III\Source/os_tmr.c ****         p_spoke->FirstPtr      = (OS_TMR   *)0;
 1292              		.loc 1 850 0 discriminator 3
 1293 007c BB68     		ldr	r3, [r7, #8]
 1294 007e 0022     		movs	r2, #0
 1295 0080 1A60     		str	r2, [r3]
 846:..\..\..\..\..\..\Software\uCOS-III\Source/os_tmr.c ****         p_spoke                = &OSCfg_TmrWheel[i];
 1296              		.loc 1 846 0 discriminator 3
 1297 0082 0E23     		movs	r3, #14
ARM GAS  C:\Users\EDULU~1.DES\AppData\Local\Temp\ccsWe06d.s 			page 39


 1298 0084 FB18     		adds	r3, r7, r3
 1299 0086 1A88     		ldrh	r2, [r3]
 1300 0088 0E23     		movs	r3, #14
 1301 008a FB18     		adds	r3, r7, r3
 1302 008c 0132     		adds	r2, r2, #1
 1303 008e 1A80     		strh	r2, [r3]
 1304              	.L99:
 846:..\..\..\..\..\..\Software\uCOS-III\Source/os_tmr.c ****         p_spoke                = &OSCfg_TmrWheel[i];
 1305              		.loc 1 846 0 is_stmt 0 discriminator 1
 1306 0090 294B     		ldr	r3, .L105+32
 1307 0092 1B88     		ldrh	r3, [r3]
 1308 0094 0E22     		movs	r2, #14
 1309 0096 BA18     		adds	r2, r7, r2
 1310 0098 1288     		ldrh	r2, [r2]
 1311 009a 9A42     		cmp	r2, r3
 1312 009c E1D3     		bcc	.L100
 851:..\..\..\..\..\..\Software\uCOS-III\Source/os_tmr.c ****     }
 852:..\..\..\..\..\..\Software\uCOS-III\Source/os_tmr.c **** 
 853:..\..\..\..\..\..\Software\uCOS-III\Source/os_tmr.c ****                                                             /* ---------------- CREATE THE TIMER TA
 854:..\..\..\..\..\..\Software\uCOS-III\Source/os_tmr.c ****     if (OSCfg_TmrTaskStkBasePtr == (CPU_STK*)0) {
 1313              		.loc 1 854 0 is_stmt 1
 1314 009e 274B     		ldr	r3, .L105+36
 1315 00a0 1B68     		ldr	r3, [r3]
 1316 00a2 002B     		cmp	r3, #0
 1317 00a4 03D1     		bne	.L101
 855:..\..\..\..\..\..\Software\uCOS-III\Source/os_tmr.c ****        *p_err = OS_ERR_TMR_STK_INVALID;
 1318              		.loc 1 855 0
 1319 00a6 7B68     		ldr	r3, [r7, #4]
 1320 00a8 254A     		ldr	r2, .L105+40
 1321 00aa 1A80     		strh	r2, [r3]
 856:..\..\..\..\..\..\Software\uCOS-III\Source/os_tmr.c ****         return;
 1322              		.loc 1 856 0
 1323 00ac 31E0     		b	.L96
 1324              	.L101:
 857:..\..\..\..\..\..\Software\uCOS-III\Source/os_tmr.c ****     }
 858:..\..\..\..\..\..\Software\uCOS-III\Source/os_tmr.c **** 
 859:..\..\..\..\..\..\Software\uCOS-III\Source/os_tmr.c ****     if (OSCfg_TmrTaskStkSize < OSCfg_StkSizeMin) {
 1325              		.loc 1 859 0
 1326 00ae 254B     		ldr	r3, .L105+44
 1327 00b0 1A68     		ldr	r2, [r3]
 1328 00b2 254B     		ldr	r3, .L105+48
 1329 00b4 1B68     		ldr	r3, [r3]
 1330 00b6 9A42     		cmp	r2, r3
 1331 00b8 03D2     		bcs	.L103
 860:..\..\..\..\..\..\Software\uCOS-III\Source/os_tmr.c ****        *p_err = OS_ERR_TMR_STK_SIZE_INVALID;
 1332              		.loc 1 860 0
 1333 00ba 7B68     		ldr	r3, [r7, #4]
 1334 00bc 234A     		ldr	r2, .L105+52
 1335 00be 1A80     		strh	r2, [r3]
 861:..\..\..\..\..\..\Software\uCOS-III\Source/os_tmr.c ****         return;
 1336              		.loc 1 861 0
 1337 00c0 27E0     		b	.L96
 1338              	.L103:
 862:..\..\..\..\..\..\Software\uCOS-III\Source/os_tmr.c ****     }
 863:..\..\..\..\..\..\Software\uCOS-III\Source/os_tmr.c **** 
 864:..\..\..\..\..\..\Software\uCOS-III\Source/os_tmr.c ****     if (OSCfg_TmrTaskPrio >= (OS_CFG_PRIO_MAX - 1u)) {
 1339              		.loc 1 864 0
ARM GAS  C:\Users\EDULU~1.DES\AppData\Local\Temp\ccsWe06d.s 			page 40


 1340 00c2 234B     		ldr	r3, .L105+56
 1341 00c4 1B78     		ldrb	r3, [r3]
 1342 00c6 1E2B     		cmp	r3, #30
 1343 00c8 03D9     		bls	.L104
 865:..\..\..\..\..\..\Software\uCOS-III\Source/os_tmr.c ****        *p_err = OS_ERR_TMR_PRIO_INVALID;
 1344              		.loc 1 865 0
 1345 00ca 7B68     		ldr	r3, [r7, #4]
 1346 00cc 214A     		ldr	r2, .L105+60
 1347 00ce 1A80     		strh	r2, [r3]
 866:..\..\..\..\..\..\Software\uCOS-III\Source/os_tmr.c ****         return;
 1348              		.loc 1 866 0
 1349 00d0 1FE0     		b	.L96
 1350              	.L104:
 867:..\..\..\..\..\..\Software\uCOS-III\Source/os_tmr.c ****     }
 868:..\..\..\..\..\..\Software\uCOS-III\Source/os_tmr.c **** 
 869:..\..\..\..\..\..\Software\uCOS-III\Source/os_tmr.c ****     OSTaskCreate((OS_TCB     *)&OSTmrTaskTCB,
 1351              		.loc 1 869 0
 1352 00d2 1F4B     		ldr	r3, .L105+56
 1353 00d4 1A78     		ldrb	r2, [r3]
 1354 00d6 194B     		ldr	r3, .L105+36
 1355 00d8 1968     		ldr	r1, [r3]
 1356 00da 1F4B     		ldr	r3, .L105+64
 1357 00dc 1868     		ldr	r0, [r3]
 1358 00de 194B     		ldr	r3, .L105+44
 1359 00e0 1B68     		ldr	r3, [r3]
 1360 00e2 1E4C     		ldr	r4, .L105+68
 1361 00e4 A446     		mov	ip, r4
 1362 00e6 1E4E     		ldr	r6, .L105+72
 1363 00e8 1E4D     		ldr	r5, .L105+76
 1364 00ea 7C68     		ldr	r4, [r7, #4]
 1365 00ec 0894     		str	r4, [sp, #32]
 1366 00ee 0B24     		movs	r4, #11
 1367 00f0 0794     		str	r4, [sp, #28]
 1368 00f2 0024     		movs	r4, #0
 1369 00f4 0694     		str	r4, [sp, #24]
 1370 00f6 0024     		movs	r4, #0
 1371 00f8 0594     		str	r4, [sp, #20]
 1372 00fa 0024     		movs	r4, #0
 1373 00fc 0494     		str	r4, [sp, #16]
 1374 00fe 0393     		str	r3, [sp, #12]
 1375 0100 0290     		str	r0, [sp, #8]
 1376 0102 0191     		str	r1, [sp, #4]
 1377 0104 0092     		str	r2, [sp]
 1378 0106 0023     		movs	r3, #0
 1379 0108 6246     		mov	r2, ip
 1380 010a 3100     		movs	r1, r6
 1381 010c 2800     		movs	r0, r5
 1382 010e FFF7FEFF 		bl	OSTaskCreate
 1383              	.L96:
 870:..\..\..\..\..\..\Software\uCOS-III\Source/os_tmr.c ****                  (CPU_CHAR   *)((void *)"uC/OS-III Timer Task"),
 871:..\..\..\..\..\..\Software\uCOS-III\Source/os_tmr.c ****                  (OS_TASK_PTR )OS_TmrTask,
 872:..\..\..\..\..\..\Software\uCOS-III\Source/os_tmr.c ****                  (void       *)0,
 873:..\..\..\..\..\..\Software\uCOS-III\Source/os_tmr.c ****                  (OS_PRIO     )OSCfg_TmrTaskPrio,
 874:..\..\..\..\..\..\Software\uCOS-III\Source/os_tmr.c ****                  (CPU_STK    *)OSCfg_TmrTaskStkBasePtr,
 875:..\..\..\..\..\..\Software\uCOS-III\Source/os_tmr.c ****                  (CPU_STK_SIZE)OSCfg_TmrTaskStkLimit,
 876:..\..\..\..\..\..\Software\uCOS-III\Source/os_tmr.c ****                  (CPU_STK_SIZE)OSCfg_TmrTaskStkSize,
 877:..\..\..\..\..\..\Software\uCOS-III\Source/os_tmr.c ****                  (OS_MSG_QTY  )0,
ARM GAS  C:\Users\EDULU~1.DES\AppData\Local\Temp\ccsWe06d.s 			page 41


 878:..\..\..\..\..\..\Software\uCOS-III\Source/os_tmr.c ****                  (OS_TICK     )0,
 879:..\..\..\..\..\..\Software\uCOS-III\Source/os_tmr.c ****                  (void       *)0,
 880:..\..\..\..\..\..\Software\uCOS-III\Source/os_tmr.c ****                  (OS_OPT      )(OS_OPT_TASK_STK_CHK | OS_OPT_TASK_STK_CLR | OS_OPT_TASK_NO_TLS),
 881:..\..\..\..\..\..\Software\uCOS-III\Source/os_tmr.c ****                  (OS_ERR     *)p_err);
 882:..\..\..\..\..\..\Software\uCOS-III\Source/os_tmr.c **** }
 1384              		.loc 1 882 0
 1385 0112 BD46     		mov	sp, r7
 1386 0114 05B0     		add	sp, sp, #20
 1387              		@ sp needed
 1388 0116 F0BD     		pop	{r4, r5, r6, r7, pc}
 1389              	.L106:
 1390              		.align	2
 1391              	.L105:
 1392 0118 00000000 		.word	OSTmrDbgListPtr
 1393 011c 00000000 		.word	OSCfg_TmrTaskRate_Hz
 1394 0120 00000000 		.word	OSCfg_TickRate_Hz
 1395 0124 00000000 		.word	OSTmrUpdateCnt
 1396 0128 00000000 		.word	OSTmrUpdateCtr
 1397 012c 00000000 		.word	OSTmrTickCtr
 1398 0130 00000000 		.word	OSTmrTaskTimeMax
 1399 0134 00000000 		.word	OSCfg_TmrWheel
 1400 0138 00000000 		.word	OSCfg_TmrWheelSize
 1401 013c 00000000 		.word	OSCfg_TmrTaskStkBasePtr
 1402 0140 47730000 		.word	29511
 1403 0144 00000000 		.word	OSCfg_TmrTaskStkSize
 1404 0148 00000000 		.word	OSCfg_StkSizeMin
 1405 014c 48730000 		.word	29512
 1406 0150 00000000 		.word	OSCfg_TmrTaskPrio
 1407 0154 46730000 		.word	29510
 1408 0158 00000000 		.word	OSCfg_TmrTaskStkLimit
 1409 015c 00000000 		.word	OS_TmrTask
 1410 0160 08000000 		.word	.LC26
 1411 0164 00000000 		.word	OSTmrTaskTCB
 1412              		.cfi_endproc
 1413              	.LFE9:
 1414              		.size	OS_TmrInit, .-OS_TmrInit
 1415              		.global	__aeabi_uidivmod
 1416              		.section	.text.OS_TmrLink,"ax",%progbits
 1417              		.align	2
 1418              		.global	OS_TmrLink
 1419              		.code	16
 1420              		.thumb_func
 1421              		.type	OS_TmrLink, %function
 1422              	OS_TmrLink:
 1423              	.LFB10:
 883:..\..\..\..\..\..\Software\uCOS-III\Source/os_tmr.c **** 
 884:..\..\..\..\..\..\Software\uCOS-III\Source/os_tmr.c **** /*$PAGE*/
 885:..\..\..\..\..\..\Software\uCOS-III\Source/os_tmr.c **** /*
 886:..\..\..\..\..\..\Software\uCOS-III\Source/os_tmr.c **** ***************************************************************************************************
 887:..\..\..\..\..\..\Software\uCOS-III\Source/os_tmr.c **** *                                         INSERT A TIMER INTO THE TIMER WHEEL
 888:..\..\..\..\..\..\Software\uCOS-III\Source/os_tmr.c **** *
 889:..\..\..\..\..\..\Software\uCOS-III\Source/os_tmr.c **** * Description: This function is called to insert the timer into the timer wheel.  The timer is alwa
 890:..\..\..\..\..\..\Software\uCOS-III\Source/os_tmr.c **** *              beginning of the list.
 891:..\..\..\..\..\..\Software\uCOS-III\Source/os_tmr.c **** *
 892:..\..\..\..\..\..\Software\uCOS-III\Source/os_tmr.c **** * Arguments  : p_tmr          Is a pointer to the timer to insert.
 893:..\..\..\..\..\..\Software\uCOS-III\Source/os_tmr.c **** *              -----
 894:..\..\..\..\..\..\Software\uCOS-III\Source/os_tmr.c **** *
ARM GAS  C:\Users\EDULU~1.DES\AppData\Local\Temp\ccsWe06d.s 			page 42


 895:..\..\..\..\..\..\Software\uCOS-III\Source/os_tmr.c **** *              opt            Is either:
 896:..\..\..\..\..\..\Software\uCOS-III\Source/os_tmr.c **** *
 897:..\..\..\..\..\..\Software\uCOS-III\Source/os_tmr.c **** *                               OS_OPT_LINK_PERIODIC    Means to re-insert the timer after a period
 898:..\..\..\..\..\..\Software\uCOS-III\Source/os_tmr.c **** *                               OS_OPT_LINK_DLY         Means to insert    the timer the first time
 899:..\..\..\..\..\..\Software\uCOS-III\Source/os_tmr.c **** *
 900:..\..\..\..\..\..\Software\uCOS-III\Source/os_tmr.c **** * Returns    : none
 901:..\..\..\..\..\..\Software\uCOS-III\Source/os_tmr.c **** *
 902:..\..\..\..\..\..\Software\uCOS-III\Source/os_tmr.c **** * Note(s)    : 1) This function is INTERNAL to uC/OS-III and your application MUST NOT call it.
 903:..\..\..\..\..\..\Software\uCOS-III\Source/os_tmr.c **** ***************************************************************************************************
 904:..\..\..\..\..\..\Software\uCOS-III\Source/os_tmr.c **** */
 905:..\..\..\..\..\..\Software\uCOS-III\Source/os_tmr.c **** 
 906:..\..\..\..\..\..\Software\uCOS-III\Source/os_tmr.c **** void  OS_TmrLink (OS_TMR  *p_tmr,
 907:..\..\..\..\..\..\Software\uCOS-III\Source/os_tmr.c ****                   OS_OPT   opt)
 908:..\..\..\..\..\..\Software\uCOS-III\Source/os_tmr.c **** {
 1424              		.loc 1 908 0
 1425              		.cfi_startproc
 1426              		@ args = 0, pretend = 0, frame = 24
 1427              		@ frame_needed = 1, uses_anonymous_args = 0
 1428 0000 80B5     		push	{r7, lr}
 1429              		.cfi_def_cfa_offset 8
 1430              		.cfi_offset 7, -8
 1431              		.cfi_offset 14, -4
 1432 0002 86B0     		sub	sp, sp, #24
 1433              		.cfi_def_cfa_offset 32
 1434 0004 00AF     		add	r7, sp, #0
 1435              		.cfi_def_cfa_register 7
 1436 0006 7860     		str	r0, [r7, #4]
 1437 0008 0A00     		movs	r2, r1
 1438 000a BB1C     		adds	r3, r7, #2
 1439 000c 1A80     		strh	r2, [r3]
 909:..\..\..\..\..\..\Software\uCOS-III\Source/os_tmr.c ****     OS_TMR_SPOKE     *p_spoke;
 910:..\..\..\..\..\..\Software\uCOS-III\Source/os_tmr.c ****     OS_TMR           *p_tmr0;
 911:..\..\..\..\..\..\Software\uCOS-III\Source/os_tmr.c ****     OS_TMR           *p_tmr1;
 912:..\..\..\..\..\..\Software\uCOS-III\Source/os_tmr.c ****     OS_TMR_SPOKE_IX   spoke;
 913:..\..\..\..\..\..\Software\uCOS-III\Source/os_tmr.c **** 
 914:..\..\..\..\..\..\Software\uCOS-III\Source/os_tmr.c **** 
 915:..\..\..\..\..\..\Software\uCOS-III\Source/os_tmr.c **** 
 916:..\..\..\..\..\..\Software\uCOS-III\Source/os_tmr.c ****     p_tmr->State = OS_TMR_STATE_RUNNING;
 1440              		.loc 1 916 0
 1441 000e 7B68     		ldr	r3, [r7, #4]
 1442 0010 2A22     		movs	r2, #42
 1443 0012 0221     		movs	r1, #2
 1444 0014 9954     		strb	r1, [r3, r2]
 917:..\..\..\..\..\..\Software\uCOS-III\Source/os_tmr.c ****     if (opt == OS_OPT_LINK_PERIODIC) {                      /* Determine when timer will expire    
 1445              		.loc 1 917 0
 1446 0016 BB1C     		adds	r3, r7, #2
 1447 0018 1B88     		ldrh	r3, [r3]
 1448 001a 012B     		cmp	r3, #1
 1449 001c 07D1     		bne	.L108
 918:..\..\..\..\..\..\Software\uCOS-III\Source/os_tmr.c ****         p_tmr->Match = p_tmr->Period + OSTmrTickCtr;
 1450              		.loc 1 918 0
 1451 001e 7B68     		ldr	r3, [r7, #4]
 1452 0020 5A6A     		ldr	r2, [r3, #36]
 1453 0022 514B     		ldr	r3, .L122
 1454 0024 1B68     		ldr	r3, [r3]
 1455 0026 D218     		adds	r2, r2, r3
 1456 0028 7B68     		ldr	r3, [r7, #4]
ARM GAS  C:\Users\EDULU~1.DES\AppData\Local\Temp\ccsWe06d.s 			page 43


 1457 002a 9A61     		str	r2, [r3, #24]
 1458 002c 12E0     		b	.L109
 1459              	.L108:
 919:..\..\..\..\..\..\Software\uCOS-III\Source/os_tmr.c ****     } else {
 920:..\..\..\..\..\..\Software\uCOS-III\Source/os_tmr.c ****         if (p_tmr->Dly == (OS_TICK)0) {
 1460              		.loc 1 920 0
 1461 002e 7B68     		ldr	r3, [r7, #4]
 1462 0030 1B6A     		ldr	r3, [r3, #32]
 1463 0032 002B     		cmp	r3, #0
 1464 0034 07D1     		bne	.L110
 921:..\..\..\..\..\..\Software\uCOS-III\Source/os_tmr.c ****             p_tmr->Match = p_tmr->Period + OSTmrTickCtr;
 1465              		.loc 1 921 0
 1466 0036 7B68     		ldr	r3, [r7, #4]
 1467 0038 5A6A     		ldr	r2, [r3, #36]
 1468 003a 4B4B     		ldr	r3, .L122
 1469 003c 1B68     		ldr	r3, [r3]
 1470 003e D218     		adds	r2, r2, r3
 1471 0040 7B68     		ldr	r3, [r7, #4]
 1472 0042 9A61     		str	r2, [r3, #24]
 1473 0044 06E0     		b	.L109
 1474              	.L110:
 922:..\..\..\..\..\..\Software\uCOS-III\Source/os_tmr.c ****         } else {
 923:..\..\..\..\..\..\Software\uCOS-III\Source/os_tmr.c ****             p_tmr->Match = p_tmr->Dly    + OSTmrTickCtr;
 1475              		.loc 1 923 0
 1476 0046 7B68     		ldr	r3, [r7, #4]
 1477 0048 1A6A     		ldr	r2, [r3, #32]
 1478 004a 474B     		ldr	r3, .L122
 1479 004c 1B68     		ldr	r3, [r3]
 1480 004e D218     		adds	r2, r2, r3
 1481 0050 7B68     		ldr	r3, [r7, #4]
 1482 0052 9A61     		str	r2, [r3, #24]
 1483              	.L109:
 924:..\..\..\..\..\..\Software\uCOS-III\Source/os_tmr.c ****         }
 925:..\..\..\..\..\..\Software\uCOS-III\Source/os_tmr.c ****     }
 926:..\..\..\..\..\..\Software\uCOS-III\Source/os_tmr.c ****     spoke  = (OS_TMR_SPOKE_IX)(p_tmr->Match % OSCfg_TmrWheelSize);
 1484              		.loc 1 926 0
 1485 0054 7B68     		ldr	r3, [r7, #4]
 1486 0056 9A69     		ldr	r2, [r3, #24]
 1487 0058 444B     		ldr	r3, .L122+4
 1488 005a 1B88     		ldrh	r3, [r3]
 1489 005c 1900     		movs	r1, r3
 1490 005e 1000     		movs	r0, r2
 1491 0060 FFF7FEFF 		bl	__aeabi_uidivmod
 1492 0064 0B00     		movs	r3, r1
 1493 0066 1A00     		movs	r2, r3
 1494 0068 1223     		movs	r3, #18
 1495 006a FB18     		adds	r3, r7, r3
 1496 006c 1A80     		strh	r2, [r3]
 927:..\..\..\..\..\..\Software\uCOS-III\Source/os_tmr.c ****     p_spoke = &OSCfg_TmrWheel[spoke];
 1497              		.loc 1 927 0
 1498 006e 1223     		movs	r3, #18
 1499 0070 FB18     		adds	r3, r7, r3
 1500 0072 1B88     		ldrh	r3, [r3]
 1501 0074 DA00     		lsls	r2, r3, #3
 1502 0076 3E4B     		ldr	r3, .L122+8
 1503 0078 D318     		adds	r3, r2, r3
 1504 007a FB60     		str	r3, [r7, #12]
ARM GAS  C:\Users\EDULU~1.DES\AppData\Local\Temp\ccsWe06d.s 			page 44


 928:..\..\..\..\..\..\Software\uCOS-III\Source/os_tmr.c **** 
 929:..\..\..\..\..\..\Software\uCOS-III\Source/os_tmr.c ****     if (p_spoke->FirstPtr ==  (OS_TMR *)0) {                /* Link into timer wheel               
 1505              		.loc 1 929 0
 1506 007c FB68     		ldr	r3, [r7, #12]
 1507 007e 1B68     		ldr	r3, [r3]
 1508 0080 002B     		cmp	r3, #0
 1509 0082 0CD1     		bne	.L111
 930:..\..\..\..\..\..\Software\uCOS-III\Source/os_tmr.c ****         p_tmr->NextPtr      = (OS_TMR *)0;
 1510              		.loc 1 930 0
 1511 0084 7B68     		ldr	r3, [r7, #4]
 1512 0086 0022     		movs	r2, #0
 1513 0088 1A61     		str	r2, [r3, #16]
 931:..\..\..\..\..\..\Software\uCOS-III\Source/os_tmr.c ****         p_tmr->PrevPtr      = (OS_TMR *)0;
 1514              		.loc 1 931 0
 1515 008a 7B68     		ldr	r3, [r7, #4]
 1516 008c 0022     		movs	r2, #0
 1517 008e 5A61     		str	r2, [r3, #20]
 932:..\..\..\..\..\..\Software\uCOS-III\Source/os_tmr.c ****         p_spoke->FirstPtr   = p_tmr;
 1518              		.loc 1 932 0
 1519 0090 FB68     		ldr	r3, [r7, #12]
 1520 0092 7A68     		ldr	r2, [r7, #4]
 1521 0094 1A60     		str	r2, [r3]
 933:..\..\..\..\..\..\Software\uCOS-III\Source/os_tmr.c ****         p_spoke->NbrEntries = 1u;
 1522              		.loc 1 933 0
 1523 0096 FB68     		ldr	r3, [r7, #12]
 1524 0098 0122     		movs	r2, #1
 1525 009a 9A80     		strh	r2, [r3, #4]
 1526 009c 56E0     		b	.L112
 1527              	.L111:
 934:..\..\..\..\..\..\Software\uCOS-III\Source/os_tmr.c ****     } else {
 935:..\..\..\..\..\..\Software\uCOS-III\Source/os_tmr.c ****         p_tmr->Remain  = p_tmr->Match                       /* Compute remaining time for timer    
 1528              		.loc 1 935 0
 1529 009e 7B68     		ldr	r3, [r7, #4]
 1530 00a0 9A69     		ldr	r2, [r3, #24]
 936:..\..\..\..\..\..\Software\uCOS-III\Source/os_tmr.c ****                        - OSTmrTickCtr;
 1531              		.loc 1 936 0
 1532 00a2 314B     		ldr	r3, .L122
 1533 00a4 1B68     		ldr	r3, [r3]
 1534 00a6 D21A     		subs	r2, r2, r3
 935:..\..\..\..\..\..\Software\uCOS-III\Source/os_tmr.c ****                        - OSTmrTickCtr;
 1535              		.loc 1 935 0
 1536 00a8 7B68     		ldr	r3, [r7, #4]
 1537 00aa DA61     		str	r2, [r3, #28]
 937:..\..\..\..\..\..\Software\uCOS-III\Source/os_tmr.c ****         p_tmr1         = p_spoke->FirstPtr;                 /* Point to current first timer in the 
 1538              		.loc 1 937 0
 1539 00ac FB68     		ldr	r3, [r7, #12]
 1540 00ae 1B68     		ldr	r3, [r3]
 1541 00b0 7B61     		str	r3, [r7, #20]
 938:..\..\..\..\..\..\Software\uCOS-III\Source/os_tmr.c ****         while (p_tmr1 != (OS_TMR *)0) {
 1542              		.loc 1 938 0
 1543 00b2 42E0     		b	.L113
 1544              	.L119:
 939:..\..\..\..\..\..\Software\uCOS-III\Source/os_tmr.c ****             p_tmr1->Remain = p_tmr1->Match                  /* Compute time remaining of current ti
 1545              		.loc 1 939 0
 1546 00b4 7B69     		ldr	r3, [r7, #20]
 1547 00b6 9A69     		ldr	r2, [r3, #24]
 940:..\..\..\..\..\..\Software\uCOS-III\Source/os_tmr.c ****                            - OSTmrTickCtr;
ARM GAS  C:\Users\EDULU~1.DES\AppData\Local\Temp\ccsWe06d.s 			page 45


 1548              		.loc 1 940 0
 1549 00b8 2B4B     		ldr	r3, .L122
 1550 00ba 1B68     		ldr	r3, [r3]
 1551 00bc D21A     		subs	r2, r2, r3
 939:..\..\..\..\..\..\Software\uCOS-III\Source/os_tmr.c ****             p_tmr1->Remain = p_tmr1->Match                  /* Compute time remaining of current ti
 1552              		.loc 1 939 0
 1553 00be 7B69     		ldr	r3, [r7, #20]
 1554 00c0 DA61     		str	r2, [r3, #28]
 941:..\..\..\..\..\..\Software\uCOS-III\Source/os_tmr.c ****             if (p_tmr->Remain > p_tmr1->Remain) {           /* Do we need to insert AFTER current t
 1555              		.loc 1 941 0
 1556 00c2 7B68     		ldr	r3, [r7, #4]
 1557 00c4 DA69     		ldr	r2, [r3, #28]
 1558 00c6 7B69     		ldr	r3, [r7, #20]
 1559 00c8 DB69     		ldr	r3, [r3, #28]
 1560 00ca 9A42     		cmp	r2, r3
 1561 00cc 13D9     		bls	.L114
 942:..\..\..\..\..\..\Software\uCOS-III\Source/os_tmr.c ****                 if (p_tmr1->NextPtr  != (OS_TMR *)0) {      /* Yes, are we pointing at the last tim
 1562              		.loc 1 942 0
 1563 00ce 7B69     		ldr	r3, [r7, #20]
 1564 00d0 1B69     		ldr	r3, [r3, #16]
 1565 00d2 002B     		cmp	r3, #0
 1566 00d4 03D0     		beq	.L115
 943:..\..\..\..\..\..\Software\uCOS-III\Source/os_tmr.c ****                     p_tmr1            = p_tmr1->NextPtr;    /* No,  Point to next timer in the list
 1567              		.loc 1 943 0
 1568 00d6 7B69     		ldr	r3, [r7, #20]
 1569 00d8 1B69     		ldr	r3, [r3, #16]
 1570 00da 7B61     		str	r3, [r7, #20]
 1571 00dc 2DE0     		b	.L113
 1572              	.L115:
 944:..\..\..\..\..\..\Software\uCOS-III\Source/os_tmr.c ****                 } else {
 945:..\..\..\..\..\..\Software\uCOS-III\Source/os_tmr.c ****                     p_tmr->NextPtr    = (OS_TMR *)0;
 1573              		.loc 1 945 0
 1574 00de 7B68     		ldr	r3, [r7, #4]
 1575 00e0 0022     		movs	r2, #0
 1576 00e2 1A61     		str	r2, [r3, #16]
 946:..\..\..\..\..\..\Software\uCOS-III\Source/os_tmr.c ****                     p_tmr->PrevPtr    =  p_tmr1;
 1577              		.loc 1 946 0
 1578 00e4 7B68     		ldr	r3, [r7, #4]
 1579 00e6 7A69     		ldr	r2, [r7, #20]
 1580 00e8 5A61     		str	r2, [r3, #20]
 947:..\..\..\..\..\..\Software\uCOS-III\Source/os_tmr.c ****                     p_tmr1->NextPtr   =  p_tmr;             /* Yes, timer to insert is now new last
 1581              		.loc 1 947 0
 1582 00ea 7B69     		ldr	r3, [r7, #20]
 1583 00ec 7A68     		ldr	r2, [r7, #4]
 1584 00ee 1A61     		str	r2, [r3, #16]
 948:..\..\..\..\..\..\Software\uCOS-III\Source/os_tmr.c ****                     p_tmr1            = (OS_TMR *)0;        /* Break loop                          
 1585              		.loc 1 948 0
 1586 00f0 0023     		movs	r3, #0
 1587 00f2 7B61     		str	r3, [r7, #20]
 1588 00f4 21E0     		b	.L113
 1589              	.L114:
 949:..\..\..\..\..\..\Software\uCOS-III\Source/os_tmr.c ****                 }
 950:..\..\..\..\..\..\Software\uCOS-III\Source/os_tmr.c ****             } else {                                        /* Insert before the current timer     
 951:..\..\..\..\..\..\Software\uCOS-III\Source/os_tmr.c ****                 if (p_tmr1->PrevPtr == (OS_TMR *)0) {       /* Are we inserting before the first ti
 1590              		.loc 1 951 0
 1591 00f6 7B69     		ldr	r3, [r7, #20]
 1592 00f8 5B69     		ldr	r3, [r3, #20]
ARM GAS  C:\Users\EDULU~1.DES\AppData\Local\Temp\ccsWe06d.s 			page 46


 1593 00fa 002B     		cmp	r3, #0
 1594 00fc 0CD1     		bne	.L117
 952:..\..\..\..\..\..\Software\uCOS-III\Source/os_tmr.c ****                     p_tmr->PrevPtr    = (OS_TMR *)0;
 1595              		.loc 1 952 0
 1596 00fe 7B68     		ldr	r3, [r7, #4]
 1597 0100 0022     		movs	r2, #0
 1598 0102 5A61     		str	r2, [r3, #20]
 953:..\..\..\..\..\..\Software\uCOS-III\Source/os_tmr.c ****                     p_tmr->NextPtr    = p_tmr1;
 1599              		.loc 1 953 0
 1600 0104 7B68     		ldr	r3, [r7, #4]
 1601 0106 7A69     		ldr	r2, [r7, #20]
 1602 0108 1A61     		str	r2, [r3, #16]
 954:..\..\..\..\..\..\Software\uCOS-III\Source/os_tmr.c ****                     p_tmr1->PrevPtr   = p_tmr;
 1603              		.loc 1 954 0
 1604 010a 7B69     		ldr	r3, [r7, #20]
 1605 010c 7A68     		ldr	r2, [r7, #4]
 1606 010e 5A61     		str	r2, [r3, #20]
 955:..\..\..\..\..\..\Software\uCOS-III\Source/os_tmr.c ****                     p_spoke->FirstPtr = p_tmr;
 1607              		.loc 1 955 0
 1608 0110 FB68     		ldr	r3, [r7, #12]
 1609 0112 7A68     		ldr	r2, [r7, #4]
 1610 0114 1A60     		str	r2, [r3]
 1611 0116 0EE0     		b	.L118
 1612              	.L117:
 956:..\..\..\..\..\..\Software\uCOS-III\Source/os_tmr.c ****                 } else {                                    /* Insert in between 2 timers already i
 957:..\..\..\..\..\..\Software\uCOS-III\Source/os_tmr.c ****                     p_tmr0            = p_tmr1->PrevPtr;
 1613              		.loc 1 957 0
 1614 0118 7B69     		ldr	r3, [r7, #20]
 1615 011a 5B69     		ldr	r3, [r3, #20]
 1616 011c BB60     		str	r3, [r7, #8]
 958:..\..\..\..\..\..\Software\uCOS-III\Source/os_tmr.c ****                     p_tmr->PrevPtr    = p_tmr0;
 1617              		.loc 1 958 0
 1618 011e 7B68     		ldr	r3, [r7, #4]
 1619 0120 BA68     		ldr	r2, [r7, #8]
 1620 0122 5A61     		str	r2, [r3, #20]
 959:..\..\..\..\..\..\Software\uCOS-III\Source/os_tmr.c ****                     p_tmr->NextPtr    = p_tmr1;
 1621              		.loc 1 959 0
 1622 0124 7B68     		ldr	r3, [r7, #4]
 1623 0126 7A69     		ldr	r2, [r7, #20]
 1624 0128 1A61     		str	r2, [r3, #16]
 960:..\..\..\..\..\..\Software\uCOS-III\Source/os_tmr.c ****                     p_tmr0->NextPtr   = p_tmr;
 1625              		.loc 1 960 0
 1626 012a BB68     		ldr	r3, [r7, #8]
 1627 012c 7A68     		ldr	r2, [r7, #4]
 1628 012e 1A61     		str	r2, [r3, #16]
 961:..\..\..\..\..\..\Software\uCOS-III\Source/os_tmr.c ****                     p_tmr1->PrevPtr   = p_tmr;
 1629              		.loc 1 961 0
 1630 0130 7B69     		ldr	r3, [r7, #20]
 1631 0132 7A68     		ldr	r2, [r7, #4]
 1632 0134 5A61     		str	r2, [r3, #20]
 1633              	.L118:
 962:..\..\..\..\..\..\Software\uCOS-III\Source/os_tmr.c ****                 }
 963:..\..\..\..\..\..\Software\uCOS-III\Source/os_tmr.c ****                 p_tmr1 = (OS_TMR *)0;                       /* Break loop                          
 1634              		.loc 1 963 0
 1635 0136 0023     		movs	r3, #0
 1636 0138 7B61     		str	r3, [r7, #20]
 1637              	.L113:
ARM GAS  C:\Users\EDULU~1.DES\AppData\Local\Temp\ccsWe06d.s 			page 47


 938:..\..\..\..\..\..\Software\uCOS-III\Source/os_tmr.c ****             p_tmr1->Remain = p_tmr1->Match                  /* Compute time remaining of current ti
 1638              		.loc 1 938 0
 1639 013a 7B69     		ldr	r3, [r7, #20]
 1640 013c 002B     		cmp	r3, #0
 1641 013e B9D1     		bne	.L119
 964:..\..\..\..\..\..\Software\uCOS-III\Source/os_tmr.c ****             }
 965:..\..\..\..\..\..\Software\uCOS-III\Source/os_tmr.c ****         }
 966:..\..\..\..\..\..\Software\uCOS-III\Source/os_tmr.c ****         p_spoke->NbrEntries++;
 1642              		.loc 1 966 0
 1643 0140 FB68     		ldr	r3, [r7, #12]
 1644 0142 9B88     		ldrh	r3, [r3, #4]
 1645 0144 0133     		adds	r3, r3, #1
 1646 0146 9AB2     		uxth	r2, r3
 1647 0148 FB68     		ldr	r3, [r7, #12]
 1648 014a 9A80     		strh	r2, [r3, #4]
 1649              	.L112:
 967:..\..\..\..\..\..\Software\uCOS-III\Source/os_tmr.c ****     }
 968:..\..\..\..\..\..\Software\uCOS-III\Source/os_tmr.c ****     if (p_spoke->NbrEntriesMax < p_spoke->NbrEntries) {     /* Keep track of maximum number of entr
 1650              		.loc 1 968 0
 1651 014c FB68     		ldr	r3, [r7, #12]
 1652 014e DA88     		ldrh	r2, [r3, #6]
 1653 0150 FB68     		ldr	r3, [r7, #12]
 1654 0152 9B88     		ldrh	r3, [r3, #4]
 1655 0154 9A42     		cmp	r2, r3
 1656 0156 03D2     		bcs	.L121
 969:..\..\..\..\..\..\Software\uCOS-III\Source/os_tmr.c ****         p_spoke->NbrEntriesMax = p_spoke->NbrEntries;
 1657              		.loc 1 969 0
 1658 0158 FB68     		ldr	r3, [r7, #12]
 1659 015a 9A88     		ldrh	r2, [r3, #4]
 1660 015c FB68     		ldr	r3, [r7, #12]
 1661 015e DA80     		strh	r2, [r3, #6]
 1662              	.L121:
 970:..\..\..\..\..\..\Software\uCOS-III\Source/os_tmr.c ****     }
 971:..\..\..\..\..\..\Software\uCOS-III\Source/os_tmr.c **** }
 1663              		.loc 1 971 0
 1664 0160 C046     		nop
 1665 0162 BD46     		mov	sp, r7
 1666 0164 06B0     		add	sp, sp, #24
 1667              		@ sp needed
 1668 0166 80BD     		pop	{r7, pc}
 1669              	.L123:
 1670              		.align	2
 1671              	.L122:
 1672 0168 00000000 		.word	OSTmrTickCtr
 1673 016c 00000000 		.word	OSCfg_TmrWheelSize
 1674 0170 00000000 		.word	OSCfg_TmrWheel
 1675              		.cfi_endproc
 1676              	.LFE10:
 1677              		.size	OS_TmrLink, .-OS_TmrLink
 1678              		.section	.text.OS_TmrResetPeak,"ax",%progbits
 1679              		.align	2
 1680              		.global	OS_TmrResetPeak
 1681              		.code	16
 1682              		.thumb_func
 1683              		.type	OS_TmrResetPeak, %function
 1684              	OS_TmrResetPeak:
 1685              	.LFB11:
ARM GAS  C:\Users\EDULU~1.DES\AppData\Local\Temp\ccsWe06d.s 			page 48


 972:..\..\..\..\..\..\Software\uCOS-III\Source/os_tmr.c **** 
 973:..\..\..\..\..\..\Software\uCOS-III\Source/os_tmr.c **** /*$PAGE*/
 974:..\..\..\..\..\..\Software\uCOS-III\Source/os_tmr.c **** /*
 975:..\..\..\..\..\..\Software\uCOS-III\Source/os_tmr.c **** ***************************************************************************************************
 976:..\..\..\..\..\..\Software\uCOS-III\Source/os_tmr.c **** *                                              RESET TIMER LIST PEAK DETECTOR
 977:..\..\..\..\..\..\Software\uCOS-III\Source/os_tmr.c **** *
 978:..\..\..\..\..\..\Software\uCOS-III\Source/os_tmr.c **** * Description: This function is used to reset the peak detector for the number of entries in each s
 979:..\..\..\..\..\..\Software\uCOS-III\Source/os_tmr.c **** *
 980:..\..\..\..\..\..\Software\uCOS-III\Source/os_tmr.c **** * Arguments  : void
 981:..\..\..\..\..\..\Software\uCOS-III\Source/os_tmr.c **** *
 982:..\..\..\..\..\..\Software\uCOS-III\Source/os_tmr.c **** * Returns    : none
 983:..\..\..\..\..\..\Software\uCOS-III\Source/os_tmr.c **** *
 984:..\..\..\..\..\..\Software\uCOS-III\Source/os_tmr.c **** * Note(s)    : This function is INTERNAL to uC/OS-III and your application should not call it.
 985:..\..\..\..\..\..\Software\uCOS-III\Source/os_tmr.c **** ***************************************************************************************************
 986:..\..\..\..\..\..\Software\uCOS-III\Source/os_tmr.c **** */
 987:..\..\..\..\..\..\Software\uCOS-III\Source/os_tmr.c **** 
 988:..\..\..\..\..\..\Software\uCOS-III\Source/os_tmr.c **** void  OS_TmrResetPeak (void)
 989:..\..\..\..\..\..\Software\uCOS-III\Source/os_tmr.c **** {
 1686              		.loc 1 989 0
 1687              		.cfi_startproc
 1688              		@ args = 0, pretend = 0, frame = 8
 1689              		@ frame_needed = 1, uses_anonymous_args = 0
 1690 0000 80B5     		push	{r7, lr}
 1691              		.cfi_def_cfa_offset 8
 1692              		.cfi_offset 7, -8
 1693              		.cfi_offset 14, -4
 1694 0002 82B0     		sub	sp, sp, #8
 1695              		.cfi_def_cfa_offset 16
 1696 0004 00AF     		add	r7, sp, #0
 1697              		.cfi_def_cfa_register 7
 990:..\..\..\..\..\..\Software\uCOS-III\Source/os_tmr.c ****     OS_TMR_SPOKE     *p_spoke;
 991:..\..\..\..\..\..\Software\uCOS-III\Source/os_tmr.c ****     OS_TMR_SPOKE_IX   i;
 992:..\..\..\..\..\..\Software\uCOS-III\Source/os_tmr.c **** 
 993:..\..\..\..\..\..\Software\uCOS-III\Source/os_tmr.c **** 
 994:..\..\..\..\..\..\Software\uCOS-III\Source/os_tmr.c **** 
 995:..\..\..\..\..\..\Software\uCOS-III\Source/os_tmr.c ****     for (i = 0u; i < OSCfg_TmrWheelSize; i++) {
 1698              		.loc 1 995 0
 1699 0006 BB1D     		adds	r3, r7, #6
 1700 0008 0022     		movs	r2, #0
 1701 000a 1A80     		strh	r2, [r3]
 1702 000c 0DE0     		b	.L125
 1703              	.L126:
 996:..\..\..\..\..\..\Software\uCOS-III\Source/os_tmr.c ****         p_spoke                = (OS_TMR_SPOKE *)&OSCfg_TmrWheel[i];
 1704              		.loc 1 996 0 discriminator 3
 1705 000e BB1D     		adds	r3, r7, #6
 1706 0010 1B88     		ldrh	r3, [r3]
 1707 0012 DA00     		lsls	r2, r3, #3
 1708 0014 0A4B     		ldr	r3, .L127
 1709 0016 D318     		adds	r3, r2, r3
 1710 0018 3B60     		str	r3, [r7]
 997:..\..\..\..\..\..\Software\uCOS-III\Source/os_tmr.c ****         p_spoke->NbrEntriesMax = (OS_OBJ_QTY    )0u;
 1711              		.loc 1 997 0 discriminator 3
 1712 001a 3B68     		ldr	r3, [r7]
 1713 001c 0022     		movs	r2, #0
 1714 001e DA80     		strh	r2, [r3, #6]
 995:..\..\..\..\..\..\Software\uCOS-III\Source/os_tmr.c ****         p_spoke                = (OS_TMR_SPOKE *)&OSCfg_TmrWheel[i];
 1715              		.loc 1 995 0 discriminator 3
ARM GAS  C:\Users\EDULU~1.DES\AppData\Local\Temp\ccsWe06d.s 			page 49


 1716 0020 BB1D     		adds	r3, r7, #6
 1717 0022 1A88     		ldrh	r2, [r3]
 1718 0024 BB1D     		adds	r3, r7, #6
 1719 0026 0132     		adds	r2, r2, #1
 1720 0028 1A80     		strh	r2, [r3]
 1721              	.L125:
 995:..\..\..\..\..\..\Software\uCOS-III\Source/os_tmr.c ****         p_spoke                = (OS_TMR_SPOKE *)&OSCfg_TmrWheel[i];
 1722              		.loc 1 995 0 is_stmt 0 discriminator 1
 1723 002a 064B     		ldr	r3, .L127+4
 1724 002c 1B88     		ldrh	r3, [r3]
 1725 002e BA1D     		adds	r2, r7, #6
 1726 0030 1288     		ldrh	r2, [r2]
 1727 0032 9A42     		cmp	r2, r3
 1728 0034 EBD3     		bcc	.L126
 998:..\..\..\..\..\..\Software\uCOS-III\Source/os_tmr.c ****     }
 999:..\..\..\..\..\..\Software\uCOS-III\Source/os_tmr.c **** }
 1729              		.loc 1 999 0 is_stmt 1
 1730 0036 C046     		nop
 1731 0038 BD46     		mov	sp, r7
 1732 003a 02B0     		add	sp, sp, #8
 1733              		@ sp needed
 1734 003c 80BD     		pop	{r7, pc}
 1735              	.L128:
 1736 003e C046     		.align	2
 1737              	.L127:
 1738 0040 00000000 		.word	OSCfg_TmrWheel
 1739 0044 00000000 		.word	OSCfg_TmrWheelSize
 1740              		.cfi_endproc
 1741              	.LFE11:
 1742              		.size	OS_TmrResetPeak, .-OS_TmrResetPeak
 1743              		.section	.text.OS_TmrUnlink,"ax",%progbits
 1744              		.align	2
 1745              		.global	OS_TmrUnlink
 1746              		.code	16
 1747              		.thumb_func
 1748              		.type	OS_TmrUnlink, %function
 1749              	OS_TmrUnlink:
 1750              	.LFB12:
1000:..\..\..\..\..\..\Software\uCOS-III\Source/os_tmr.c **** 
1001:..\..\..\..\..\..\Software\uCOS-III\Source/os_tmr.c **** /*$PAGE*/
1002:..\..\..\..\..\..\Software\uCOS-III\Source/os_tmr.c **** /*
1003:..\..\..\..\..\..\Software\uCOS-III\Source/os_tmr.c **** ***************************************************************************************************
1004:..\..\..\..\..\..\Software\uCOS-III\Source/os_tmr.c **** *                                         REMOVE A TIMER FROM THE TIMER WHEEL
1005:..\..\..\..\..\..\Software\uCOS-III\Source/os_tmr.c **** *
1006:..\..\..\..\..\..\Software\uCOS-III\Source/os_tmr.c **** * Description: This function is called to remove the timer from the timer wheel.
1007:..\..\..\..\..\..\Software\uCOS-III\Source/os_tmr.c **** *
1008:..\..\..\..\..\..\Software\uCOS-III\Source/os_tmr.c **** * Arguments  : p_tmr          Is a pointer to the timer to remove.
1009:..\..\..\..\..\..\Software\uCOS-III\Source/os_tmr.c **** *              -----
1010:..\..\..\..\..\..\Software\uCOS-III\Source/os_tmr.c **** *
1011:..\..\..\..\..\..\Software\uCOS-III\Source/os_tmr.c **** * Returns    : none
1012:..\..\..\..\..\..\Software\uCOS-III\Source/os_tmr.c **** *
1013:..\..\..\..\..\..\Software\uCOS-III\Source/os_tmr.c **** * Note(s)    : 1) This function is INTERNAL to uC/OS-III and your application MUST NOT call it.
1014:..\..\..\..\..\..\Software\uCOS-III\Source/os_tmr.c **** ***************************************************************************************************
1015:..\..\..\..\..\..\Software\uCOS-III\Source/os_tmr.c **** */
1016:..\..\..\..\..\..\Software\uCOS-III\Source/os_tmr.c **** 
1017:..\..\..\..\..\..\Software\uCOS-III\Source/os_tmr.c **** void  OS_TmrUnlink (OS_TMR  *p_tmr)
1018:..\..\..\..\..\..\Software\uCOS-III\Source/os_tmr.c **** {
ARM GAS  C:\Users\EDULU~1.DES\AppData\Local\Temp\ccsWe06d.s 			page 50


 1751              		.loc 1 1018 0
 1752              		.cfi_startproc
 1753              		@ args = 0, pretend = 0, frame = 24
 1754              		@ frame_needed = 1, uses_anonymous_args = 0
 1755 0000 80B5     		push	{r7, lr}
 1756              		.cfi_def_cfa_offset 8
 1757              		.cfi_offset 7, -8
 1758              		.cfi_offset 14, -4
 1759 0002 86B0     		sub	sp, sp, #24
 1760              		.cfi_def_cfa_offset 32
 1761 0004 00AF     		add	r7, sp, #0
 1762              		.cfi_def_cfa_register 7
 1763 0006 7860     		str	r0, [r7, #4]
1019:..\..\..\..\..\..\Software\uCOS-III\Source/os_tmr.c ****     OS_TMR_SPOKE    *p_spoke;
1020:..\..\..\..\..\..\Software\uCOS-III\Source/os_tmr.c ****     OS_TMR          *p_tmr1;
1021:..\..\..\..\..\..\Software\uCOS-III\Source/os_tmr.c ****     OS_TMR          *p_tmr2;
1022:..\..\..\..\..\..\Software\uCOS-III\Source/os_tmr.c ****     OS_TMR_SPOKE_IX  spoke;
1023:..\..\..\..\..\..\Software\uCOS-III\Source/os_tmr.c **** 
1024:..\..\..\..\..\..\Software\uCOS-III\Source/os_tmr.c **** 
1025:..\..\..\..\..\..\Software\uCOS-III\Source/os_tmr.c **** 
1026:..\..\..\..\..\..\Software\uCOS-III\Source/os_tmr.c ****     spoke   = (OS_TMR_SPOKE_IX)(p_tmr->Match % OSCfg_TmrWheelSize);
 1764              		.loc 1 1026 0
 1765 0008 7B68     		ldr	r3, [r7, #4]
 1766 000a 9A69     		ldr	r2, [r3, #24]
 1767 000c 234B     		ldr	r3, .L133
 1768 000e 1B88     		ldrh	r3, [r3]
 1769 0010 1900     		movs	r1, r3
 1770 0012 1000     		movs	r0, r2
 1771 0014 FFF7FEFF 		bl	__aeabi_uidivmod
 1772 0018 0B00     		movs	r3, r1
 1773 001a 1A00     		movs	r2, r3
 1774 001c 1623     		movs	r3, #22
 1775 001e FB18     		adds	r3, r7, r3
 1776 0020 1A80     		strh	r2, [r3]
1027:..\..\..\..\..\..\Software\uCOS-III\Source/os_tmr.c ****     p_spoke = &OSCfg_TmrWheel[spoke];
 1777              		.loc 1 1027 0
 1778 0022 1623     		movs	r3, #22
 1779 0024 FB18     		adds	r3, r7, r3
 1780 0026 1B88     		ldrh	r3, [r3]
 1781 0028 DA00     		lsls	r2, r3, #3
 1782 002a 1D4B     		ldr	r3, .L133+4
 1783 002c D318     		adds	r3, r2, r3
 1784 002e 3B61     		str	r3, [r7, #16]
1028:..\..\..\..\..\..\Software\uCOS-III\Source/os_tmr.c **** 
1029:..\..\..\..\..\..\Software\uCOS-III\Source/os_tmr.c ****     if (p_spoke->FirstPtr == p_tmr) {                       /* See if timer to remove is at the beg
 1785              		.loc 1 1029 0
 1786 0030 3B69     		ldr	r3, [r7, #16]
 1787 0032 1A68     		ldr	r2, [r3]
 1788 0034 7B68     		ldr	r3, [r7, #4]
 1789 0036 9A42     		cmp	r2, r3
 1790 0038 0CD1     		bne	.L130
1030:..\..\..\..\..\..\Software\uCOS-III\Source/os_tmr.c ****         p_tmr1            = (OS_TMR *)p_tmr->NextPtr;
 1791              		.loc 1 1030 0
 1792 003a 7B68     		ldr	r3, [r7, #4]
 1793 003c 1B69     		ldr	r3, [r3, #16]
 1794 003e FB60     		str	r3, [r7, #12]
1031:..\..\..\..\..\..\Software\uCOS-III\Source/os_tmr.c ****         p_spoke->FirstPtr = (OS_TMR *)p_tmr1;
ARM GAS  C:\Users\EDULU~1.DES\AppData\Local\Temp\ccsWe06d.s 			page 51


 1795              		.loc 1 1031 0
 1796 0040 3B69     		ldr	r3, [r7, #16]
 1797 0042 FA68     		ldr	r2, [r7, #12]
 1798 0044 1A60     		str	r2, [r3]
1032:..\..\..\..\..\..\Software\uCOS-III\Source/os_tmr.c ****         if (p_tmr1 != (OS_TMR *)0) {
 1799              		.loc 1 1032 0
 1800 0046 FB68     		ldr	r3, [r7, #12]
 1801 0048 002B     		cmp	r3, #0
 1802 004a 12D0     		beq	.L132
1033:..\..\..\..\..\..\Software\uCOS-III\Source/os_tmr.c ****             p_tmr1->PrevPtr = (OS_TMR *)0;
 1803              		.loc 1 1033 0
 1804 004c FB68     		ldr	r3, [r7, #12]
 1805 004e 0022     		movs	r2, #0
 1806 0050 5A61     		str	r2, [r3, #20]
 1807 0052 0EE0     		b	.L132
 1808              	.L130:
1034:..\..\..\..\..\..\Software\uCOS-III\Source/os_tmr.c ****         }
1035:..\..\..\..\..\..\Software\uCOS-III\Source/os_tmr.c ****     } else {
1036:..\..\..\..\..\..\Software\uCOS-III\Source/os_tmr.c ****         p_tmr1          = (OS_TMR *)p_tmr->PrevPtr;         /* Remove timer from somewhere in the l
 1809              		.loc 1 1036 0
 1810 0054 7B68     		ldr	r3, [r7, #4]
 1811 0056 5B69     		ldr	r3, [r3, #20]
 1812 0058 FB60     		str	r3, [r7, #12]
1037:..\..\..\..\..\..\Software\uCOS-III\Source/os_tmr.c ****         p_tmr2          = (OS_TMR *)p_tmr->NextPtr;
 1813              		.loc 1 1037 0
 1814 005a 7B68     		ldr	r3, [r7, #4]
 1815 005c 1B69     		ldr	r3, [r3, #16]
 1816 005e BB60     		str	r3, [r7, #8]
1038:..\..\..\..\..\..\Software\uCOS-III\Source/os_tmr.c ****         p_tmr1->NextPtr = p_tmr2;
 1817              		.loc 1 1038 0
 1818 0060 FB68     		ldr	r3, [r7, #12]
 1819 0062 BA68     		ldr	r2, [r7, #8]
 1820 0064 1A61     		str	r2, [r3, #16]
1039:..\..\..\..\..\..\Software\uCOS-III\Source/os_tmr.c ****         if (p_tmr2 != (OS_TMR *)0) {
 1821              		.loc 1 1039 0
 1822 0066 BB68     		ldr	r3, [r7, #8]
 1823 0068 002B     		cmp	r3, #0
 1824 006a 02D0     		beq	.L132
1040:..\..\..\..\..\..\Software\uCOS-III\Source/os_tmr.c ****             p_tmr2->PrevPtr = (OS_TMR *)p_tmr1;
 1825              		.loc 1 1040 0
 1826 006c BB68     		ldr	r3, [r7, #8]
 1827 006e FA68     		ldr	r2, [r7, #12]
 1828 0070 5A61     		str	r2, [r3, #20]
 1829              	.L132:
1041:..\..\..\..\..\..\Software\uCOS-III\Source/os_tmr.c ****         }
1042:..\..\..\..\..\..\Software\uCOS-III\Source/os_tmr.c ****     }
1043:..\..\..\..\..\..\Software\uCOS-III\Source/os_tmr.c ****     p_tmr->State   = OS_TMR_STATE_STOPPED;
 1830              		.loc 1 1043 0
 1831 0072 7B68     		ldr	r3, [r7, #4]
 1832 0074 2A22     		movs	r2, #42
 1833 0076 0121     		movs	r1, #1
 1834 0078 9954     		strb	r1, [r3, r2]
1044:..\..\..\..\..\..\Software\uCOS-III\Source/os_tmr.c ****     p_tmr->NextPtr = (OS_TMR *)0;
 1835              		.loc 1 1044 0
 1836 007a 7B68     		ldr	r3, [r7, #4]
 1837 007c 0022     		movs	r2, #0
 1838 007e 1A61     		str	r2, [r3, #16]
ARM GAS  C:\Users\EDULU~1.DES\AppData\Local\Temp\ccsWe06d.s 			page 52


1045:..\..\..\..\..\..\Software\uCOS-III\Source/os_tmr.c ****     p_tmr->PrevPtr = (OS_TMR *)0;
 1839              		.loc 1 1045 0
 1840 0080 7B68     		ldr	r3, [r7, #4]
 1841 0082 0022     		movs	r2, #0
 1842 0084 5A61     		str	r2, [r3, #20]
1046:..\..\..\..\..\..\Software\uCOS-III\Source/os_tmr.c ****     p_spoke->NbrEntries--;
 1843              		.loc 1 1046 0
 1844 0086 3B69     		ldr	r3, [r7, #16]
 1845 0088 9B88     		ldrh	r3, [r3, #4]
 1846 008a 013B     		subs	r3, r3, #1
 1847 008c 9AB2     		uxth	r2, r3
 1848 008e 3B69     		ldr	r3, [r7, #16]
 1849 0090 9A80     		strh	r2, [r3, #4]
1047:..\..\..\..\..\..\Software\uCOS-III\Source/os_tmr.c **** }
 1850              		.loc 1 1047 0
 1851 0092 C046     		nop
 1852 0094 BD46     		mov	sp, r7
 1853 0096 06B0     		add	sp, sp, #24
 1854              		@ sp needed
 1855 0098 80BD     		pop	{r7, pc}
 1856              	.L134:
 1857 009a C046     		.align	2
 1858              	.L133:
 1859 009c 00000000 		.word	OSCfg_TmrWheelSize
 1860 00a0 00000000 		.word	OSCfg_TmrWheel
 1861              		.cfi_endproc
 1862              	.LFE12:
 1863              		.size	OS_TmrUnlink, .-OS_TmrUnlink
 1864              		.section	.text.OS_TmrTask,"ax",%progbits
 1865              		.align	2
 1866              		.global	OS_TmrTask
 1867              		.code	16
 1868              		.thumb_func
 1869              		.type	OS_TmrTask, %function
 1870              	OS_TmrTask:
 1871              	.LFB13:
1048:..\..\..\..\..\..\Software\uCOS-III\Source/os_tmr.c **** 
1049:..\..\..\..\..\..\Software\uCOS-III\Source/os_tmr.c **** /*$PAGE*/
1050:..\..\..\..\..\..\Software\uCOS-III\Source/os_tmr.c **** /*
1051:..\..\..\..\..\..\Software\uCOS-III\Source/os_tmr.c **** ***************************************************************************************************
1052:..\..\..\..\..\..\Software\uCOS-III\Source/os_tmr.c **** *                                                 TIMER MANAGEMENT TASK
1053:..\..\..\..\..\..\Software\uCOS-III\Source/os_tmr.c **** *
1054:..\..\..\..\..\..\Software\uCOS-III\Source/os_tmr.c **** * Description: This task is created by OS_TmrInit().
1055:..\..\..\..\..\..\Software\uCOS-III\Source/os_tmr.c **** *
1056:..\..\..\..\..\..\Software\uCOS-III\Source/os_tmr.c **** * Arguments  : none
1057:..\..\..\..\..\..\Software\uCOS-III\Source/os_tmr.c **** *
1058:..\..\..\..\..\..\Software\uCOS-III\Source/os_tmr.c **** * Returns    : none
1059:..\..\..\..\..\..\Software\uCOS-III\Source/os_tmr.c **** *
1060:..\..\..\..\..\..\Software\uCOS-III\Source/os_tmr.c **** * Note(s)    : 1) This function is INTERNAL to uC/OS-III and your application MUST NOT call it.
1061:..\..\..\..\..\..\Software\uCOS-III\Source/os_tmr.c **** ***************************************************************************************************
1062:..\..\..\..\..\..\Software\uCOS-III\Source/os_tmr.c **** */
1063:..\..\..\..\..\..\Software\uCOS-III\Source/os_tmr.c **** 
1064:..\..\..\..\..\..\Software\uCOS-III\Source/os_tmr.c **** void  OS_TmrTask (void  *p_arg)
1065:..\..\..\..\..\..\Software\uCOS-III\Source/os_tmr.c **** {
 1872              		.loc 1 1065 0
 1873              		.cfi_startproc
 1874              		@ args = 0, pretend = 0, frame = 48
ARM GAS  C:\Users\EDULU~1.DES\AppData\Local\Temp\ccsWe06d.s 			page 53


 1875              		@ frame_needed = 1, uses_anonymous_args = 0
 1876 0000 80B5     		push	{r7, lr}
 1877              		.cfi_def_cfa_offset 8
 1878              		.cfi_offset 7, -8
 1879              		.cfi_offset 14, -4
 1880 0002 8CB0     		sub	sp, sp, #48
 1881              		.cfi_def_cfa_offset 56
 1882 0004 00AF     		add	r7, sp, #0
 1883              		.cfi_def_cfa_register 7
 1884 0006 7860     		str	r0, [r7, #4]
 1885              	.L145:
1066:..\..\..\..\..\..\Software\uCOS-III\Source/os_tmr.c ****     CPU_BOOLEAN          done;
1067:..\..\..\..\..\..\Software\uCOS-III\Source/os_tmr.c ****     OS_ERR               err;
1068:..\..\..\..\..\..\Software\uCOS-III\Source/os_tmr.c ****     OS_TMR_CALLBACK_PTR  p_fnct;
1069:..\..\..\..\..\..\Software\uCOS-III\Source/os_tmr.c ****     OS_TMR_SPOKE        *p_spoke;
1070:..\..\..\..\..\..\Software\uCOS-III\Source/os_tmr.c ****     OS_TMR              *p_tmr;
1071:..\..\..\..\..\..\Software\uCOS-III\Source/os_tmr.c ****     OS_TMR              *p_tmr_next;
1072:..\..\..\..\..\..\Software\uCOS-III\Source/os_tmr.c ****     OS_TMR_SPOKE_IX      spoke;
1073:..\..\..\..\..\..\Software\uCOS-III\Source/os_tmr.c ****     CPU_TS               ts;
1074:..\..\..\..\..\..\Software\uCOS-III\Source/os_tmr.c ****     CPU_TS               ts_start;
1075:..\..\..\..\..\..\Software\uCOS-III\Source/os_tmr.c ****     CPU_TS               ts_end;
1076:..\..\..\..\..\..\Software\uCOS-III\Source/os_tmr.c **** 
1077:..\..\..\..\..\..\Software\uCOS-III\Source/os_tmr.c **** 
1078:..\..\..\..\..\..\Software\uCOS-III\Source/os_tmr.c **** 
1079:..\..\..\..\..\..\Software\uCOS-III\Source/os_tmr.c ****     p_arg = p_arg;                                               /* Not using 'p_arg', prevent comp
1080:..\..\..\..\..\..\Software\uCOS-III\Source/os_tmr.c ****     while (DEF_ON) {
1081:..\..\..\..\..\..\Software\uCOS-III\Source/os_tmr.c ****         (void)OSTaskSemPend((OS_TICK )0,                         /* Wait for signal indicating time
 1886              		.loc 1 1081 0
 1887 0008 0E23     		movs	r3, #14
 1888 000a FB18     		adds	r3, r7, r3
 1889 000c 0822     		movs	r2, #8
 1890 000e BA18     		adds	r2, r7, r2
 1891 0010 0021     		movs	r1, #0
 1892 0012 0020     		movs	r0, #0
 1893 0014 FFF7FEFF 		bl	OSTaskSemPend
1082:..\..\..\..\..\..\Software\uCOS-III\Source/os_tmr.c ****                             (OS_OPT  )OS_OPT_PEND_BLOCKING,
1083:..\..\..\..\..\..\Software\uCOS-III\Source/os_tmr.c ****                             (CPU_TS *)&ts,
1084:..\..\..\..\..\..\Software\uCOS-III\Source/os_tmr.c ****                             (OS_ERR *)&err);
1085:..\..\..\..\..\..\Software\uCOS-III\Source/os_tmr.c **** 
1086:..\..\..\..\..\..\Software\uCOS-III\Source/os_tmr.c ****         OSSchedLock(&err);
 1894              		.loc 1 1086 0
 1895 0018 0E23     		movs	r3, #14
 1896 001a FB18     		adds	r3, r7, r3
 1897 001c 1800     		movs	r0, r3
 1898 001e FFF7FEFF 		bl	OSSchedLock
1087:..\..\..\..\..\..\Software\uCOS-III\Source/os_tmr.c ****         ts_start = OS_TS_GET();
 1899              		.loc 1 1087 0
 1900 0022 FFF7FEFF 		bl	CPU_TS_TmrRd
 1901 0026 0300     		movs	r3, r0
 1902 0028 7B62     		str	r3, [r7, #36]
1088:..\..\..\..\..\..\Software\uCOS-III\Source/os_tmr.c ****         OSTmrTickCtr++;                                          /* Increment the current time     
 1903              		.loc 1 1088 0
 1904 002a 384B     		ldr	r3, .L146
 1905 002c 1B68     		ldr	r3, [r3]
 1906 002e 5A1C     		adds	r2, r3, #1
 1907 0030 364B     		ldr	r3, .L146
 1908 0032 1A60     		str	r2, [r3]
ARM GAS  C:\Users\EDULU~1.DES\AppData\Local\Temp\ccsWe06d.s 			page 54


1089:..\..\..\..\..\..\Software\uCOS-III\Source/os_tmr.c ****         spoke    = (OS_TMR_SPOKE_IX)(OSTmrTickCtr % OSCfg_TmrWheelSize);
 1909              		.loc 1 1089 0
 1910 0034 354B     		ldr	r3, .L146
 1911 0036 1A68     		ldr	r2, [r3]
 1912 0038 354B     		ldr	r3, .L146+4
 1913 003a 1B88     		ldrh	r3, [r3]
 1914 003c 1900     		movs	r1, r3
 1915 003e 1000     		movs	r0, r2
 1916 0040 FFF7FEFF 		bl	__aeabi_uidivmod
 1917 0044 0B00     		movs	r3, r1
 1918 0046 1A00     		movs	r2, r3
 1919 0048 2223     		movs	r3, #34
 1920 004a FB18     		adds	r3, r7, r3
 1921 004c 1A80     		strh	r2, [r3]
1090:..\..\..\..\..\..\Software\uCOS-III\Source/os_tmr.c ****         p_spoke  = &OSCfg_TmrWheel[spoke];
 1922              		.loc 1 1090 0
 1923 004e 2223     		movs	r3, #34
 1924 0050 FB18     		adds	r3, r7, r3
 1925 0052 1B88     		ldrh	r3, [r3]
 1926 0054 DA00     		lsls	r2, r3, #3
 1927 0056 2F4B     		ldr	r3, .L146+8
 1928 0058 D318     		adds	r3, r2, r3
 1929 005a FB61     		str	r3, [r7, #28]
1091:..\..\..\..\..\..\Software\uCOS-III\Source/os_tmr.c ****         p_tmr    = p_spoke->FirstPtr;
 1930              		.loc 1 1091 0
 1931 005c FB69     		ldr	r3, [r7, #28]
 1932 005e 1B68     		ldr	r3, [r3]
 1933 0060 BB62     		str	r3, [r7, #40]
1092:..\..\..\..\..\..\Software\uCOS-III\Source/os_tmr.c ****         done     = DEF_FALSE;
 1934              		.loc 1 1092 0
 1935 0062 2F23     		movs	r3, #47
 1936 0064 FB18     		adds	r3, r7, r3
 1937 0066 0022     		movs	r2, #0
 1938 0068 1A70     		strb	r2, [r3]
1093:..\..\..\..\..\..\Software\uCOS-III\Source/os_tmr.c ****         while (done == DEF_FALSE) {
 1939              		.loc 1 1093 0
 1940 006a 35E0     		b	.L136
 1941              	.L143:
1094:..\..\..\..\..\..\Software\uCOS-III\Source/os_tmr.c ****             if (p_tmr != (OS_TMR *)0) {
 1942              		.loc 1 1094 0
 1943 006c BB6A     		ldr	r3, [r7, #40]
 1944 006e 002B     		cmp	r3, #0
 1945 0070 2ED0     		beq	.L137
1095:..\..\..\..\..\..\Software\uCOS-III\Source/os_tmr.c ****                 p_tmr_next = (OS_TMR *)p_tmr->NextPtr;           /* Point to next tmr to update bec
 1946              		.loc 1 1095 0
 1947 0072 BB6A     		ldr	r3, [r7, #40]
 1948 0074 1B69     		ldr	r3, [r3, #16]
 1949 0076 7B61     		str	r3, [r7, #20]
1096:..\..\..\..\..\..\Software\uCOS-III\Source/os_tmr.c ****                                                                  /* ... timer could get unlinked fr
1097:..\..\..\..\..\..\Software\uCOS-III\Source/os_tmr.c ****                 if (OSTmrTickCtr == p_tmr->Match) {              /* Process each timer that expires
 1950              		.loc 1 1097 0
 1951 0078 BB6A     		ldr	r3, [r7, #40]
 1952 007a 9A69     		ldr	r2, [r3, #24]
 1953 007c 234B     		ldr	r3, .L146
 1954 007e 1B68     		ldr	r3, [r3]
 1955 0080 9A42     		cmp	r2, r3
 1956 0082 20D1     		bne	.L138
ARM GAS  C:\Users\EDULU~1.DES\AppData\Local\Temp\ccsWe06d.s 			page 55


1098:..\..\..\..\..\..\Software\uCOS-III\Source/os_tmr.c ****                     OS_TmrUnlink(p_tmr);                         /* Remove from current wheel spoke
 1957              		.loc 1 1098 0
 1958 0084 BB6A     		ldr	r3, [r7, #40]
 1959 0086 1800     		movs	r0, r3
 1960 0088 FFF7FEFF 		bl	OS_TmrUnlink
1099:..\..\..\..\..\..\Software\uCOS-III\Source/os_tmr.c ****                     if (p_tmr->Opt == OS_OPT_TMR_PERIODIC) {
 1961              		.loc 1 1099 0
 1962 008c BB6A     		ldr	r3, [r7, #40]
 1963 008e 1B8D     		ldrh	r3, [r3, #40]
 1964 0090 022B     		cmp	r3, #2
 1965 0092 05D1     		bne	.L139
1100:..\..\..\..\..\..\Software\uCOS-III\Source/os_tmr.c ****                         OS_TmrLink(p_tmr,
 1966              		.loc 1 1100 0
 1967 0094 BB6A     		ldr	r3, [r7, #40]
 1968 0096 0121     		movs	r1, #1
 1969 0098 1800     		movs	r0, r3
 1970 009a FFF7FEFF 		bl	OS_TmrLink
 1971 009e 03E0     		b	.L140
 1972              	.L139:
1101:..\..\..\..\..\..\Software\uCOS-III\Source/os_tmr.c ****                                    OS_OPT_LINK_PERIODIC);        /* Recalculate new position of tim
1102:..\..\..\..\..\..\Software\uCOS-III\Source/os_tmr.c ****                     } else {
1103:..\..\..\..\..\..\Software\uCOS-III\Source/os_tmr.c ****                         p_tmr->State = OS_TMR_STATE_COMPLETED;   /* Indicate that the timer has com
 1973              		.loc 1 1103 0
 1974 00a0 BB6A     		ldr	r3, [r7, #40]
 1975 00a2 2A22     		movs	r2, #42
 1976 00a4 0321     		movs	r1, #3
 1977 00a6 9954     		strb	r1, [r3, r2]
 1978              	.L140:
1104:..\..\..\..\..\..\Software\uCOS-III\Source/os_tmr.c ****                     }
1105:..\..\..\..\..\..\Software\uCOS-III\Source/os_tmr.c ****                     p_fnct = p_tmr->CallbackPtr;                 /* Execute callback function if av
 1979              		.loc 1 1105 0
 1980 00a8 BB6A     		ldr	r3, [r7, #40]
 1981 00aa 9B68     		ldr	r3, [r3, #8]
 1982 00ac 3B61     		str	r3, [r7, #16]
1106:..\..\..\..\..\..\Software\uCOS-III\Source/os_tmr.c ****                     if (p_fnct != (OS_TMR_CALLBACK_PTR)0) {
 1983              		.loc 1 1106 0
 1984 00ae 3B69     		ldr	r3, [r7, #16]
 1985 00b0 002B     		cmp	r3, #0
 1986 00b2 05D0     		beq	.L141
1107:..\..\..\..\..\..\Software\uCOS-III\Source/os_tmr.c ****                         (*p_fnct)((void *)p_tmr,
 1987              		.loc 1 1107 0
 1988 00b4 BB6A     		ldr	r3, [r7, #40]
 1989 00b6 D968     		ldr	r1, [r3, #12]
 1990 00b8 BA6A     		ldr	r2, [r7, #40]
 1991 00ba 3B69     		ldr	r3, [r7, #16]
 1992 00bc 1000     		movs	r0, r2
 1993 00be 9847     		blx	r3
 1994              	.L141:
1108:..\..\..\..\..\..\Software\uCOS-III\Source/os_tmr.c ****                                   p_tmr->CallbackPtrArg);
1109:..\..\..\..\..\..\Software\uCOS-III\Source/os_tmr.c ****                     }
1110:..\..\..\..\..\..\Software\uCOS-III\Source/os_tmr.c ****                     p_tmr = p_tmr_next;                          /* See if next timer matches      
 1995              		.loc 1 1110 0
 1996 00c0 7B69     		ldr	r3, [r7, #20]
 1997 00c2 BB62     		str	r3, [r7, #40]
 1998 00c4 08E0     		b	.L136
 1999              	.L138:
1111:..\..\..\..\..\..\Software\uCOS-III\Source/os_tmr.c ****                 } else {
ARM GAS  C:\Users\EDULU~1.DES\AppData\Local\Temp\ccsWe06d.s 			page 56


1112:..\..\..\..\..\..\Software\uCOS-III\Source/os_tmr.c ****                     done  = DEF_TRUE;
 2000              		.loc 1 1112 0
 2001 00c6 2F23     		movs	r3, #47
 2002 00c8 FB18     		adds	r3, r7, r3
 2003 00ca 0122     		movs	r2, #1
 2004 00cc 1A70     		strb	r2, [r3]
 2005 00ce 03E0     		b	.L136
 2006              	.L137:
1113:..\..\..\..\..\..\Software\uCOS-III\Source/os_tmr.c ****                 }
1114:..\..\..\..\..\..\Software\uCOS-III\Source/os_tmr.c ****             } else {
1115:..\..\..\..\..\..\Software\uCOS-III\Source/os_tmr.c ****                 done = DEF_TRUE;
 2007              		.loc 1 1115 0
 2008 00d0 2F23     		movs	r3, #47
 2009 00d2 FB18     		adds	r3, r7, r3
 2010 00d4 0122     		movs	r2, #1
 2011 00d6 1A70     		strb	r2, [r3]
 2012              	.L136:
1093:..\..\..\..\..\..\Software\uCOS-III\Source/os_tmr.c ****             if (p_tmr != (OS_TMR *)0) {
 2013              		.loc 1 1093 0
 2014 00d8 2F23     		movs	r3, #47
 2015 00da FB18     		adds	r3, r7, r3
 2016 00dc 1B78     		ldrb	r3, [r3]
 2017 00de 002B     		cmp	r3, #0
 2018 00e0 C4D0     		beq	.L143
1116:..\..\..\..\..\..\Software\uCOS-III\Source/os_tmr.c ****             }
1117:..\..\..\..\..\..\Software\uCOS-III\Source/os_tmr.c ****         }
1118:..\..\..\..\..\..\Software\uCOS-III\Source/os_tmr.c ****         ts_end = OS_TS_GET() - ts_start;                         /* Measure execution time of timer
 2019              		.loc 1 1118 0
 2020 00e2 FFF7FEFF 		bl	CPU_TS_TmrRd
 2021 00e6 0200     		movs	r2, r0
 2022 00e8 7B6A     		ldr	r3, [r7, #36]
 2023 00ea D31A     		subs	r3, r2, r3
 2024 00ec BB61     		str	r3, [r7, #24]
1119:..\..\..\..\..\..\Software\uCOS-III\Source/os_tmr.c ****         OSSchedUnlock(&err);
 2025              		.loc 1 1119 0
 2026 00ee 0E23     		movs	r3, #14
 2027 00f0 FB18     		adds	r3, r7, r3
 2028 00f2 1800     		movs	r0, r3
 2029 00f4 FFF7FEFF 		bl	OSSchedUnlock
1120:..\..\..\..\..\..\Software\uCOS-III\Source/os_tmr.c ****         if (OSTmrTaskTimeMax < ts_end) {
 2030              		.loc 1 1120 0
 2031 00f8 074B     		ldr	r3, .L146+12
 2032 00fa 1A68     		ldr	r2, [r3]
 2033 00fc BB69     		ldr	r3, [r7, #24]
 2034 00fe 9A42     		cmp	r2, r3
 2035 0100 00D3     		bcc	.LCB1793
 2036 0102 81E7     		b	.L145	@long jump
 2037              	.LCB1793:
1121:..\..\..\..\..\..\Software\uCOS-III\Source/os_tmr.c ****             OSTmrTaskTimeMax = ts_end;
 2038              		.loc 1 1121 0
 2039 0104 044B     		ldr	r3, .L146+12
 2040 0106 BA69     		ldr	r2, [r7, #24]
 2041 0108 1A60     		str	r2, [r3]
1122:..\..\..\..\..\..\Software\uCOS-III\Source/os_tmr.c ****         }
1123:..\..\..\..\..\..\Software\uCOS-III\Source/os_tmr.c ****     }
 2042              		.loc 1 1123 0
 2043 010a 7DE7     		b	.L145
ARM GAS  C:\Users\EDULU~1.DES\AppData\Local\Temp\ccsWe06d.s 			page 57


 2044              	.L147:
 2045              		.align	2
 2046              	.L146:
 2047 010c 00000000 		.word	OSTmrTickCtr
 2048 0110 00000000 		.word	OSCfg_TmrWheelSize
 2049 0114 00000000 		.word	OSCfg_TmrWheel
 2050 0118 00000000 		.word	OSTmrTaskTimeMax
 2051              		.cfi_endproc
 2052              	.LFE13:
 2053              		.size	OS_TmrTask, .-OS_TmrTask
 2054              		.text
 2055              	.Letext0:
 2056              		.file 2 "..\\..\\..\\..\\..\\..\\Software\\uC-CPU\\ARM-Cortex-M0\\GNU/cpu.h"
 2057              		.file 3 "..\\..\\..\\..\\..\\..\\Software\\uC-CPU/cpu_core.h"
 2058              		.file 4 "..\\..\\..\\..\\..\\..\\Software\\uCOS-III\\Source/os_type.h"
 2059              		.file 5 "..\\..\\..\\..\\..\\..\\Software\\uCOS-III\\Source/os.h"