ARM GAS  C:\Users\EDULU~1.DES\AppData\Local\Temp\ccojGFGN.s 			page 1


   1              		.cpu cortex-m0
   2              		.eabi_attribute 20, 1
   3              		.eabi_attribute 21, 1
   4              		.eabi_attribute 23, 3
   5              		.eabi_attribute 24, 1
   6              		.eabi_attribute 25, 1
   7              		.eabi_attribute 26, 1
   8              		.eabi_attribute 30, 1
   9              		.eabi_attribute 34, 0
  10              		.eabi_attribute 18, 4
  11              		.file	"app.c"
  12              		.text
  13              	.Ltext0:
  14              		.cfi_sections	.debug_frame
  15              		.section	.text.App_TaskStart,"ax",%progbits
  16              		.align	1
  17              		.arch armv6s-m
  18              		.syntax unified
  19              		.code	16
  20              		.thumb_func
  21              		.fpu softvfp
  22              		.type	App_TaskStart, %function
  23              	App_TaskStart:
  24              	.LVL0:
  25              	.LFB4:
  26              		.file 1 "..\\..\\app.c"
   1:..\../app.c   **** /*
   2:..\../app.c   **** ***************************************************************************************************
   3:..\../app.c   **** *                                             EXAMPLE CODE
   4:..\../app.c   **** *
   5:..\../app.c   **** *                            (c) Copyright 2015; Micrium, Inc.; Weston, FL
   6:..\../app.c   **** *
   7:..\../app.c   **** *               This file is provided as an example on how to use Micrium products.
   8:..\../app.c   **** *
   9:..\../app.c   **** *               Please feel free to use any application code labeled as 'EXAMPLE CODE' in
  10:..\../app.c   **** *               your application products.  Example code may be used as is, in whole or in
  11:..\../app.c   **** *               part, or may be used as a reference only. This file can be modified as
  12:..\../app.c   **** *               required to meet the end-product requirements.
  13:..\../app.c   **** *
  14:..\../app.c   **** *               Please help us continue to provide the Embedded community with the finest
  15:..\../app.c   **** *               software available.  Your honesty is greatly appreciated.
  16:..\../app.c   **** *
  17:..\../app.c   **** *               You can find our product's user manual, API reference, release notes and
  18:..\../app.c   **** *               more information at https://doc.micrium.com.
  19:..\../app.c   **** *               You can contact us at www.micrium.com.
  20:..\../app.c   **** ***************************************************************************************************
  21:..\../app.c   **** */
  22:..\../app.c   **** 
  23:..\../app.c   **** /*
  24:..\../app.c   **** ***************************************************************************************************
  25:..\../app.c   **** *                                           APPLICATION CODE
  26:..\../app.c   **** *
  27:..\../app.c   **** *                                            CYPRESS PSoC4
  28:..\../app.c   **** *                                               with the
  29:..\../app.c   **** *                                      CY8CKIT-044 Development Kit
  30:..\../app.c   **** *
  31:..\../app.c   **** * Filename      : app.c
ARM GAS  C:\Users\EDULU~1.DES\AppData\Local\Temp\ccojGFGN.s 			page 2


  32:..\../app.c   **** * Version       : V1.00
  33:..\../app.c   **** * Programmer(s) : DC
  34:..\../app.c   **** ***************************************************************************************************
  35:..\../app.c   **** */
  36:..\../app.c   **** 
  37:..\../app.c   **** /*
  38:..\../app.c   **** ***************************************************************************************************
  39:..\../app.c   **** *                                             INCLUDE FILES
  40:..\../app.c   **** ***************************************************************************************************
  41:..\../app.c   **** */
  42:..\../app.c   **** 
  43:..\../app.c   **** #include  "app_cfg.h"
  44:..\../app.c   **** #include  <bsp.h>
  45:..\../app.c   **** #include  <os.h>
  46:..\../app.c   **** #include  <cpu.h>
  47:..\../app.c   **** 
  48:..\../app.c   **** #include  <lib_math.h>
  49:..\../app.c   **** #include  <lib_mem.h>
  50:..\../app.c   **** 
  51:..\../app.c   **** 
  52:..\../app.c   **** /*
  53:..\../app.c   **** ***************************************************************************************************
  54:..\../app.c   **** *                                             LOCAL DEFINES
  55:..\../app.c   **** ***************************************************************************************************
  56:..\../app.c   **** */
  57:..\../app.c   ****                                                                 /* ---------------- TEMP SENSOR DEF
  58:..\../app.c   **** #define  APP_TEMP_SENSOR_NUM                        0u
  59:..\../app.c   **** 
  60:..\../app.c   ****                                                                 /* --------------- AMBIENT LIGHT DE
  61:..\../app.c   **** #define  APP_AMBIENT_DEMO_MAX_VAL                  50u          /* See 'App_Demo_TempAccel' Task No
  62:..\../app.c   ****                                                                 
  63:..\../app.c   **** 
  64:..\../app.c   **** /*
  65:..\../app.c   **** ***************************************************************************************************
  66:..\../app.c   **** *                                            GLOBAL DEFINES
  67:..\../app.c   **** ***************************************************************************************************
  68:..\../app.c   **** */
  69:..\../app.c   ****                                                                 /* -------------- uC/PROBE GLOBAL D
  70:..\../app.c   **** CPU_INT32U   uC_Probe_RGB_Val;                                  /*  - RGB LED Color Value.         
  71:..\../app.c   **** CPU_BOOLEAN  uC_Probe_PB_Trigger = DEF_OFF;                     /*  - RGB LED ON/OFF Push Button Tr
  72:..\../app.c   **** CPU_FP32     uC_Probe_Temp_Val;                                 /*  - Temperature Sensor Value (*F)
  73:..\../app.c   **** CPU_INT16U   uC_Probe_AmbientLight;                             /*  - Ambient Light Sensor Value.  
  74:..\../app.c   **** CPU_INT16S   uC_Probe_Accel_X_Axis;                             /*  - Accelerometer X-Axis Value.  
  75:..\../app.c   **** CPU_INT16S   uC_Probe_Accel_Y_Axis;                             /*  - Accelerometer Y-Axis Value.  
  76:..\../app.c   **** CPU_INT16S   uC_Probe_Accel_Z_Axis;                             /*  - Accelerometer Z-Axis Value.  
  77:..\../app.c   **** 
  78:..\../app.c   **** 
  79:..\../app.c   **** /*
  80:..\../app.c   **** ***************************************************************************************************
  81:..\../app.c   **** *                                            LOCAL VARIABLES
  82:..\../app.c   **** ***************************************************************************************************
  83:..\../app.c   **** */
  84:..\../app.c   ****                                                                 /* ------------------ APP TASK VAR(
  85:..\../app.c   **** static  OS_STK      App_TaskStartStk[APP_CFG_TASK_START_STK_SIZE];
  86:..\../app.c   **** 
  87:..\../app.c   ****                                                                 /* ------------- TEMP & ACCEL TASK 
  88:..\../app.c   **** static  OS_STK      App_Demo_SensorTaskStk[APP_CFG_SENSOR_TASK_STK_SIZE];
ARM GAS  C:\Users\EDULU~1.DES\AppData\Local\Temp\ccojGFGN.s 			page 3


  89:..\../app.c   **** 
  90:..\../app.c   ****                                                                 /* --------------- MISCELLANEOUS VA
  91:..\../app.c   **** static  CPU_INT16U  App_Demo_Ambient_InitVar;                   /*  - Ambient Light Initial DMA Sto
  92:..\../app.c   **** 
  93:..\../app.c   **** 
  94:..\../app.c   **** /*
  95:..\../app.c   **** ***************************************************************************************************
  96:..\../app.c   **** *                                         FUNCTION PROTOTYPES
  97:..\../app.c   **** ***************************************************************************************************
  98:..\../app.c   **** */
  99:..\../app.c   **** 
 100:..\../app.c   **** static  void  App_TaskStart      (void *p_arg);
 101:..\../app.c   **** 
 102:..\../app.c   **** static  void  App_TaskCreate     (void);
 103:..\../app.c   **** static  void  App_ObjCreate      (void);
 104:..\../app.c   **** 
 105:..\../app.c   **** 
 106:..\../app.c   **** /*
 107:..\../app.c   **** ***************************************************************************************************
 108:..\../app.c   **** *                                                main()
 109:..\../app.c   **** *
 110:..\../app.c   **** * Description : This is the standard entry point for C code.  It is assumed that your code will cal
 111:..\../app.c   **** *               main() once you have performed all necessary initialization.
 112:..\../app.c   **** *
 113:..\../app.c   **** * Argument(s) : none
 114:..\../app.c   **** *
 115:..\../app.c   **** * Return(s)   : none
 116:..\../app.c   **** *
 117:..\../app.c   **** * Caller(s)   : Startup Code.
 118:..\../app.c   **** *
 119:..\../app.c   **** * Note(s)     : none.
 120:..\../app.c   **** ***************************************************************************************************
 121:..\../app.c   **** */
 122:..\../app.c   **** 
 123:..\../app.c   **** int  main (void)
 124:..\../app.c   **** {
 125:..\../app.c   ****     OS_ERR  os_err;
 126:..\../app.c   **** 
 127:..\../app.c   **** 
 128:..\../app.c   ****     CPU_Init();                                                 /* Initialize the uC/CPU services  
 129:..\../app.c   **** 	Mem_Init();                                                 /* Initialize Memory Managment Module 
 130:..\../app.c   ****     Math_Init();                                                /* Initialize Mathematical Module  
 131:..\../app.c   ****     
 132:..\../app.c   ****     BSP_Init();                                                 /* Initialize BSP Functions.       
 133:..\../app.c   ****     
 134:..\../app.c   ****     OSInit();                                                   /* Init uC/OS-II.                  
 135:..\../app.c   ****     
 136:..\../app.c   ****     OSTaskCreateExt( App_TaskStart,                             /* Create the Start Task           
 137:..\../app.c   ****                      0u,
 138:..\../app.c   ****                     &App_TaskStartStk[APP_CFG_TASK_START_STK_SIZE - 1u],
 139:..\../app.c   ****                      APP_CFG_TASK_START_PRIO,
 140:..\../app.c   ****                      APP_CFG_TASK_START_PRIO,
 141:..\../app.c   ****                     &App_TaskStartStk[0u],
 142:..\../app.c   ****                      APP_CFG_TASK_START_STK_SIZE,
 143:..\../app.c   ****                      0u,
 144:..\../app.c   ****                     (OS_TASK_OPT_STK_CHK | OS_TASK_OPT_STK_CLR));
 145:..\../app.c   **** 
ARM GAS  C:\Users\EDULU~1.DES\AppData\Local\Temp\ccojGFGN.s 			page 4


 146:..\../app.c   **** #if (OS_TASK_NAME_EN > 0u)
 147:..\../app.c   ****     OSTaskNameSet(          APP_CFG_TASK_START_PRIO,
 148:..\../app.c   ****                   (INT8U *)"App Task Start",
 149:..\../app.c   ****                            &os_err);
 150:..\../app.c   **** #endif
 151:..\../app.c   **** 
 152:..\../app.c   ****     OSStart();                                                  /* Start multitasking (i.e. give co
 153:..\../app.c   ****     
 154:..\../app.c   ****     while (DEF_ON);                                             /* Should Never Get Here.          
 155:..\../app.c   **** }
 156:..\../app.c   **** 
 157:..\../app.c   **** 
 158:..\../app.c   **** /*
 159:..\../app.c   **** ***************************************************************************************************
 160:..\../app.c   **** *                                          App_TaskStart()
 161:..\../app.c   **** *
 162:..\../app.c   **** * Description : This is an example of a startup task.  As mentioned in the book's text, you MUST
 163:..\../app.c   **** *               initialize the ticker only once multitasking has started.
 164:..\../app.c   **** *
 165:..\../app.c   **** * Argument(s) : p_arg   is the argument passed to 'App_TaskStart()' by 'OSTaskCreate()'.
 166:..\../app.c   **** *
 167:..\../app.c   **** * Return(s)   : none
 168:..\../app.c   **** *
 169:..\../app.c   **** * Caller(s)   : main()
 170:..\../app.c   **** *
 171:..\../app.c   **** * Note(s)     : (1) The first line of code is used to prevent a compiler warning because 'p_arg' is
 172:..\../app.c   **** *                   used.  The compiler should not generate any code for this statement.
 173:..\../app.c   **** *
 174:..\../app.c   **** *               (2) App_TaskStart Task will manage the RGB LED as well as the Push Button to Turn O
 175:..\../app.c   **** *                   and OFF the RGB LED.
 176:..\../app.c   **** ***************************************************************************************************
 177:..\../app.c   **** */
 178:..\../app.c   **** 
 179:..\../app.c   **** void  App_TaskStart (void *p_arg)
 180:..\../app.c   **** {
  27              		.loc 1 180 1 view -0
  28              		.cfi_startproc
  29              		@ args = 0, pretend = 0, frame = 0
  30              		@ frame_needed = 0, uses_anonymous_args = 0
  31              		.loc 1 180 1 is_stmt 0 view .LVU1
  32 0000 70B5     		push	{r4, r5, r6, lr}
  33              		.cfi_def_cfa_offset 16
  34              		.cfi_offset 4, -16
  35              		.cfi_offset 5, -12
  36              		.cfi_offset 6, -8
  37              		.cfi_offset 14, -4
  38 0002 0025     		movs	r5, #0
 181:..\../app.c   ****     CPU_BOOLEAN  pb_status;
  39              		.loc 1 181 5 is_stmt 1 view .LVU2
 182:..\../app.c   ****     CPU_BOOLEAN  pb_prev;
  40              		.loc 1 182 5 view .LVU3
 183:..\../app.c   ****     CPU_BOOLEAN  led_status;
  41              		.loc 1 183 5 view .LVU4
 184:..\../app.c   ****         
 185:..\../app.c   **** 
 186:..\../app.c   ****    (void)p_arg;
  42              		.loc 1 186 4 view .LVU5
ARM GAS  C:\Users\EDULU~1.DES\AppData\Local\Temp\ccojGFGN.s 			page 5


 187:..\../app.c   ****     led_status = DEF_OFF;                                       /* Initialize Var(s).              
  43              		.loc 1 187 5 view .LVU6
  44              	.LVL1:
 188:..\../app.c   **** 
 189:..\../app.c   ****     BSP_CPU_TickInit();                                         /* Initialize the Tick Interrupt.  
  45              		.loc 1 189 5 view .LVU7
  46 0004 FFF7FEFF 		bl	BSP_CPU_TickInit
  47              	.LVL2:
 190:..\../app.c   ****                                                                 /* --------------- ACCELEROMETER SE
 191:..\../app.c   ****     BSP_Accel_Init();                                           /* Init & Cfg I2C & Accelerometer a
  48              		.loc 1 191 5 view .LVU8
  49 0008 FFF7FEFF 		bl	BSP_Accel_Init
  50              	.LVL3:
 192:..\../app.c   **** 
 193:..\../app.c   **** #if (OS_TASK_STAT_EN > 0u)
 194:..\../app.c   ****     OSStatInit();                                               /* Determine CPU capacity          
  51              		.loc 1 194 5 view .LVU9
  52 000c FFF7FEFF 		bl	OSStatInit
  53              	.LVL4:
 195:..\../app.c   **** #endif
 196:..\../app.c   **** 
 197:..\../app.c   **** #ifdef CPU_CFG_INT_DIS_MEAS_EN
 198:..\../app.c   ****     CPU_IntDisMeasMaxCurReset();
  54              		.loc 1 198 5 view .LVU10
  55 0010 FFF7FEFF 		bl	CPU_IntDisMeasMaxCurReset
  56              	.LVL5:
 199:..\../app.c   **** #endif
 200:..\../app.c   **** 
 201:..\../app.c   ****     APP_TRACE_INFO(("Creating Kernel Objects...\n\r"));
  57              		.loc 1 201 5 view .LVU11
 202:..\../app.c   ****     App_ObjCreate();                                            /* Create Kernel Objects           
  58              		.loc 1 202 5 view .LVU12
 203:..\../app.c   ****     
 204:..\../app.c   ****     APP_TRACE_INFO(("Creating Application Tasks...\n\r"));
  59              		.loc 1 204 5 view .LVU13
 205:..\../app.c   ****     App_TaskCreate();                                           /* Create Application Tasks.       
  60              		.loc 1 205 5 view .LVU14
 206:..\../app.c   ****     
 207:..\../app.c   ****     BSP_RGB_Off();                                              /* Initially Turn off the RGB LED. 
  61              		.loc 1 207 5 view .LVU15
  62 0014 FFF7FEFF 		bl	BSP_RGB_Off
  63              	.LVL6:
 187:..\../app.c   **** 
  64              		.loc 1 187 16 is_stmt 0 view .LVU16
  65 0018 0026     		movs	r6, #0
  66 001a 11E0     		b	.L8
  67              	.LVL7:
  68              	.L3:
 208:..\../app.c   ****     
 209:..\../app.c   ****     while (DEF_TRUE) {                                          /* Task body, always written as an 
 210:..\../app.c   ****         pb_status = BSP_PB_StatusGet();                         /* ------------- PUSH BUTTON (SW2) 
 211:..\../app.c   **** 		
 212:..\../app.c   ****         if((pb_status == DEF_OFF) && (pb_prev != DEF_OFF)) {    /* Push Button Triggers change on B
 213:..\../app.c   ****             if (uC_Probe_PB_Trigger == DEF_ON) {                /* If the Probe Button is Turned ON
 214:..\../app.c   ****                 uC_Probe_PB_Trigger = DEF_OFF;
 215:..\../app.c   ****             } else {                                            /* If the Probe Button is Turned OF
 216:..\../app.c   ****                 uC_Probe_PB_Trigger = DEF_ON;
ARM GAS  C:\Users\EDULU~1.DES\AppData\Local\Temp\ccojGFGN.s 			page 6


  69              		.loc 1 216 17 is_stmt 1 view .LVU17
  70              		.loc 1 216 37 is_stmt 0 view .LVU18
  71 001c 164B     		ldr	r3, .L11
  72 001e 0122     		movs	r2, #1
  73 0020 1A70     		strb	r2, [r3]
  74              	.L2:
 217:..\../app.c   ****             }
 218:..\../app.c   ****         }
 219:..\../app.c   ****         
 220:..\../app.c   ****         pb_prev = pb_status;                                    /* Set the Status as the Button's P
  75              		.loc 1 220 9 is_stmt 1 view .LVU19
  76              	.LVL8:
 221:..\../app.c   ****         
 222:..\../app.c   ****         if (uC_Probe_PB_Trigger == DEF_ON) {                    /* ---------- uC/PROBE BUTTON TRIGG
  77              		.loc 1 222 9 view .LVU20
  78              		.loc 1 222 33 is_stmt 0 view .LVU21
  79 0022 154B     		ldr	r3, .L11
  80 0024 1D78     		ldrb	r5, [r3]
  81              		.loc 1 222 12 view .LVU22
  82 0026 012D     		cmp	r5, #1
  83 0028 18D0     		beq	.L9
 223:..\../app.c   ****             if (led_status == DEF_INACTIVE) {                   /* if LED Status Flag is currently 
 224:..\../app.c   ****                 led_status = DEF_ACTIVE;                        /* ... Status Flag and Turn ON The 
 225:..\../app.c   ****                 BSP_RGB_On();
 226:..\../app.c   ****             }
 227:..\../app.c   ****         } else {
 228:..\../app.c   ****             if (led_status == DEF_YES) {                        /* if LED Status Flag is currently 
  84              		.loc 1 228 13 is_stmt 1 view .LVU23
  85              		.loc 1 228 16 is_stmt 0 view .LVU24
  86 002a 012E     		cmp	r6, #1
  87 002c 20D0     		beq	.L10
  88              	.L5:
 229:..\../app.c   ****                 led_status = DEF_INACTIVE;                      /* .. Status Flag and Turn OFF The 
 230:..\../app.c   ****                 BSP_RGB_Off();
 231:..\../app.c   ****             }
 232:..\../app.c   ****         }
 233:..\../app.c   ****         
 234:..\../app.c   ****         if (led_status == DEF_ACTIVE) {                         /* -------------- UPDATE RGB COLOR 
  89              		.loc 1 234 9 is_stmt 1 view .LVU25
  90              		.loc 1 234 12 is_stmt 0 view .LVU26
  91 002e 012E     		cmp	r6, #1
  92 0030 19D0     		beq	.L6
  93              	.LVL9:
  94              	.L7:
 235:..\../app.c   ****             BSP_RGB_ColorSet(uC_Probe_RGB_Val);                 /* IF LED Status Flag is Active, Up
 236:..\../app.c   ****         }
 237:..\../app.c   ****         
 238:..\../app.c   ****         OSTimeDlyHMSM(0u, 0u, 0u, 100u);
  95              		.loc 1 238 9 is_stmt 1 view .LVU27
  96 0032 6423     		movs	r3, #100
  97 0034 0022     		movs	r2, #0
  98 0036 0021     		movs	r1, #0
  99 0038 0020     		movs	r0, #0
 100 003a FFF7FEFF 		bl	OSTimeDlyHMSM
 101              	.LVL10:
 220:..\../app.c   ****         
 102              		.loc 1 220 17 is_stmt 0 view .LVU28
ARM GAS  C:\Users\EDULU~1.DES\AppData\Local\Temp\ccojGFGN.s 			page 7


 103 003e 2500     		movs	r5, r4
 104              	.LVL11:
 105              	.L8:
 209:..\../app.c   ****         pb_status = BSP_PB_StatusGet();                         /* ------------- PUSH BUTTON (SW2) 
 106              		.loc 1 209 5 is_stmt 1 view .LVU29
 210:..\../app.c   **** 		
 107              		.loc 1 210 9 view .LVU30
 210:..\../app.c   **** 		
 108              		.loc 1 210 21 is_stmt 0 view .LVU31
 109 0040 FFF7FEFF 		bl	BSP_PB_StatusGet
 110              	.LVL12:
 111 0044 041E     		subs	r4, r0, #0
 112              	.LVL13:
 212:..\../app.c   ****             if (uC_Probe_PB_Trigger == DEF_ON) {                /* If the Probe Button is Turned ON
 113              		.loc 1 212 9 is_stmt 1 view .LVU32
 212:..\../app.c   ****             if (uC_Probe_PB_Trigger == DEF_ON) {                /* If the Probe Button is Turned ON
 114              		.loc 1 212 11 is_stmt 0 view .LVU33
 115 0046 ECD1     		bne	.L2
 212:..\../app.c   ****             if (uC_Probe_PB_Trigger == DEF_ON) {                /* If the Probe Button is Turned ON
 116              		.loc 1 212 35 discriminator 1 view .LVU34
 117 0048 002D     		cmp	r5, #0
 118 004a EAD0     		beq	.L2
 213:..\../app.c   ****                 uC_Probe_PB_Trigger = DEF_OFF;
 119              		.loc 1 213 13 is_stmt 1 view .LVU35
 213:..\../app.c   ****                 uC_Probe_PB_Trigger = DEF_OFF;
 120              		.loc 1 213 37 is_stmt 0 view .LVU36
 121 004c 0A4B     		ldr	r3, .L11
 122 004e 1B78     		ldrb	r3, [r3]
 213:..\../app.c   ****                 uC_Probe_PB_Trigger = DEF_OFF;
 123              		.loc 1 213 16 view .LVU37
 124 0050 012B     		cmp	r3, #1
 125 0052 E3D1     		bne	.L3
 214:..\../app.c   ****             } else {                                            /* If the Probe Button is Turned OF
 126              		.loc 1 214 17 is_stmt 1 view .LVU38
 214:..\../app.c   ****             } else {                                            /* If the Probe Button is Turned OF
 127              		.loc 1 214 37 is_stmt 0 view .LVU39
 128 0054 084B     		ldr	r3, .L11
 129 0056 0022     		movs	r2, #0
 130 0058 1A70     		strb	r2, [r3]
 131 005a E2E7     		b	.L2
 132              	.LVL14:
 133              	.L9:
 223:..\../app.c   ****                 led_status = DEF_ACTIVE;                        /* ... Status Flag and Turn ON The 
 134              		.loc 1 223 13 is_stmt 1 view .LVU40
 223:..\../app.c   ****                 led_status = DEF_ACTIVE;                        /* ... Status Flag and Turn ON The 
 135              		.loc 1 223 16 is_stmt 0 view .LVU41
 136 005c 002E     		cmp	r6, #0
 137 005e E6D1     		bne	.L5
 224:..\../app.c   ****                 BSP_RGB_On();
 138              		.loc 1 224 17 is_stmt 1 view .LVU42
 139              	.LVL15:
 225:..\../app.c   ****             }
 140              		.loc 1 225 17 view .LVU43
 141 0060 FFF7FEFF 		bl	BSP_RGB_On
 142              	.LVL16:
 234:..\../app.c   ****             BSP_RGB_ColorSet(uC_Probe_RGB_Val);                 /* IF LED Status Flag is Active, Up
 143              		.loc 1 234 9 view .LVU44
ARM GAS  C:\Users\EDULU~1.DES\AppData\Local\Temp\ccojGFGN.s 			page 8


 224:..\../app.c   ****                 BSP_RGB_On();
 144              		.loc 1 224 28 is_stmt 0 view .LVU45
 145 0064 2E00     		movs	r6, r5
 146              	.LVL17:
 147              	.L6:
 235:..\../app.c   ****         }
 148              		.loc 1 235 13 is_stmt 1 view .LVU46
 149 0066 054B     		ldr	r3, .L11+4
 150 0068 1868     		ldr	r0, [r3]
 151 006a FFF7FEFF 		bl	BSP_RGB_ColorSet
 152              	.LVL18:
 153 006e E0E7     		b	.L7
 154              	.LVL19:
 155              	.L10:
 229:..\../app.c   ****                 BSP_RGB_Off();
 156              		.loc 1 229 17 view .LVU47
 230:..\../app.c   ****             }
 157              		.loc 1 230 17 view .LVU48
 158 0070 FFF7FEFF 		bl	BSP_RGB_Off
 159              	.LVL20:
 234:..\../app.c   ****             BSP_RGB_ColorSet(uC_Probe_RGB_Val);                 /* IF LED Status Flag is Active, Up
 160              		.loc 1 234 9 view .LVU49
 229:..\../app.c   ****                 BSP_RGB_Off();
 161              		.loc 1 229 28 is_stmt 0 view .LVU50
 162 0074 0026     		movs	r6, #0
 163 0076 DCE7     		b	.L7
 164              	.L12:
 165              		.align	2
 166              	.L11:
 167 0078 00000000 		.word	.LANCHOR0
 168 007c 00000000 		.word	uC_Probe_RGB_Val
 169              		.cfi_endproc
 170              	.LFE4:
 171              		.size	App_TaskStart, .-App_TaskStart
 172              		.section	.text.main,"ax",%progbits
 173              		.align	1
 174              		.global	main
 175              		.syntax unified
 176              		.code	16
 177              		.thumb_func
 178              		.fpu softvfp
 179              		.type	main, %function
 180              	main:
 181              	.LFB3:
 124:..\../app.c   ****     OS_ERR  os_err;
 182              		.loc 1 124 1 is_stmt 1 view -0
 183              		.cfi_startproc
 184              		@ Volatile: function does not return.
 185              		@ args = 0, pretend = 0, frame = 0
 186              		@ frame_needed = 0, uses_anonymous_args = 0
 187 0000 00B5     		push	{lr}
 188              		.cfi_def_cfa_offset 4
 189              		.cfi_offset 14, -4
 190 0002 87B0     		sub	sp, sp, #28
 191              		.cfi_def_cfa_offset 32
 125:..\../app.c   **** 
 192              		.loc 1 125 5 view .LVU52
ARM GAS  C:\Users\EDULU~1.DES\AppData\Local\Temp\ccojGFGN.s 			page 9


 128:..\../app.c   **** 	Mem_Init();                                                 /* Initialize Memory Managment Module 
 193              		.loc 1 128 5 view .LVU53
 194 0004 FFF7FEFF 		bl	CPU_Init
 195              	.LVL21:
 129:..\../app.c   ****     Math_Init();                                                /* Initialize Mathematical Module  
 196              		.loc 1 129 2 view .LVU54
 197 0008 FFF7FEFF 		bl	Mem_Init
 198              	.LVL22:
 130:..\../app.c   ****     
 199              		.loc 1 130 5 view .LVU55
 200 000c FFF7FEFF 		bl	Math_Init
 201              	.LVL23:
 132:..\../app.c   ****     
 202              		.loc 1 132 5 view .LVU56
 203 0010 FFF7FEFF 		bl	BSP_Init
 204              	.LVL24:
 134:..\../app.c   ****     
 205              		.loc 1 134 5 view .LVU57
 206 0014 FFF7FEFF 		bl	OSInit
 207              	.LVL25:
 136:..\../app.c   ****                      0u,
 208              		.loc 1 136 5 view .LVU58
 209 0018 094A     		ldr	r2, .L15
 210 001a 0323     		movs	r3, #3
 211 001c 0493     		str	r3, [sp, #16]
 212 001e 0023     		movs	r3, #0
 213 0020 0393     		str	r3, [sp, #12]
 214 0022 8033     		adds	r3, r3, #128
 215 0024 0293     		str	r3, [sp, #8]
 216 0026 1300     		movs	r3, r2
 217 0028 FD3B     		subs	r3, r3, #253
 218 002a FF3B     		subs	r3, r3, #255
 219 002c 0193     		str	r3, [sp, #4]
 220 002e 0223     		movs	r3, #2
 221 0030 0093     		str	r3, [sp]
 222 0032 0021     		movs	r1, #0
 223 0034 0348     		ldr	r0, .L15+4
 224 0036 FFF7FEFF 		bl	OSTaskCreateExt
 225              	.LVL26:
 152:..\../app.c   ****     
 226              		.loc 1 152 5 view .LVU59
 227 003a FFF7FEFF 		bl	OSStart
 228              	.LVL27:
 229              	.L14:
 154:..\../app.c   **** }
 230              		.loc 1 154 5 discriminator 1 view .LVU60
 154:..\../app.c   **** }
 231              		.loc 1 154 19 discriminator 1 view .LVU61
 232 003e FEE7     		b	.L14
 233              	.L16:
 234              		.align	2
 235              	.L15:
 236 0040 00020000 		.word	App_TaskStartStk+508
 237 0044 00000000 		.word	App_TaskStart
 238              		.cfi_endproc
 239              	.LFE3:
 240              		.size	main, .-main
ARM GAS  C:\Users\EDULU~1.DES\AppData\Local\Temp\ccojGFGN.s 			page 10


 241              		.comm	uC_Probe_Accel_Z_Axis,2,2
 242              		.comm	uC_Probe_Accel_Y_Axis,2,2
 243              		.comm	uC_Probe_Accel_X_Axis,2,2
 244              		.comm	uC_Probe_AmbientLight,2,2
 245              		.comm	uC_Probe_Temp_Val,4,4
 246              		.global	uC_Probe_PB_Trigger
 247              		.comm	uC_Probe_RGB_Val,4,4
 248              		.bss
 249              		.align	2
 250              		.set	.LANCHOR0,. + 0
 251              		.type	uC_Probe_PB_Trigger, %object
 252              		.size	uC_Probe_PB_Trigger, 1
 253              	uC_Probe_PB_Trigger:
 254 0000 00       		.space	1
 255 0001 000000   		.space	3
 256              		.type	App_TaskStartStk, %object
 257              		.size	App_TaskStartStk, 512
 258              	App_TaskStartStk:
 259 0004 00000000 		.space	512
 259      00000000 
 259      00000000 
 259      00000000 
 259      00000000 
 260              		.text
 261              	.Letext0:
 262              		.file 2 "c:\\program files (x86)\\gnu tools arm embedded\\8 2018-q4-major\\arm-none-eabi\\include\
 263              		.file 3 "c:\\program files (x86)\\gnu tools arm embedded\\8 2018-q4-major\\arm-none-eabi\\include\
 264              		.file 4 "c:\\program files (x86)\\gnu tools arm embedded\\8 2018-q4-major\\lib\\gcc\\arm-none-eabi
 265              		.file 5 "c:\\program files (x86)\\gnu tools arm embedded\\8 2018-q4-major\\arm-none-eabi\\include\
 266              		.file 6 "..\\..\\..\\..\\..\\..\\Software\\uCOS-II\\Ports\\ARM-Cortex-M0\\Generic\\GNU/os_cpu.h"
 267              		.file 7 "..\\..\\..\\..\\..\\..\\Software\\uCOS-II\\Source/ucos_ii.h"
 268              		.file 8 "..\\..\\..\\..\\..\\..\\Software\\uC-CPU\\ARM-Cortex-M0\\GNU/cpu.h"
 269              		.file 9 "Generated_Source\\PSoC4/cytypes.h"
 270              		.file 10 "c:\\program files (x86)\\gnu tools arm embedded\\8 2018-q4-major\\arm-none-eabi\\include
 271              		.file 11 "Generated_Source\\PSoC4/CyLib.h"
 272              		.file 12 "Generated_Source\\PSoC4/PWM_Red.h"
 273              		.file 13 "Generated_Source\\PSoC4/PWM_Green.h"
 274              		.file 14 "Generated_Source\\PSoC4/PWM_Blue.h"
 275              		.file 15 "Generated_Source\\PSoC4/Temp_Sensor.h"
 276              		.file 16 "Generated_Source\\PSoC4/ADC.h"
 277              		.file 17 "Generated_Source\\PSoC4/Opamp.h"
 278              		.file 18 "Generated_Source\\PSoC4/I2C.h"
 279              		.file 19 "..\\..\\..\\..\\..\\..\\Software\\uCOS-II\\Source/os.h"
 280              		.file 20 "..\\..\\..\\..\\..\\..\\Software\\uC-CPU/cpu_core.h"
 281              		.file 21 "..\\..\\..\\BSP/bsp.h"
 282              		.file 22 "..\\..\\..\\..\\..\\..\\Software\\uC-LIB/lib_mem.h"
 283              		.file 23 "..\\..\\..\\..\\..\\..\\Software\\uC-LIB/lib_math.h"