ARM GAS  C:\Users\EDULU~1.DES\AppData\Local\Temp\ccEHhrS0.s 			page 1


   1              		.cpu cortex-m0
   2              		.eabi_attribute 20, 1
   3              		.eabi_attribute 21, 1
   4              		.eabi_attribute 23, 3
   5              		.eabi_attribute 24, 1
   6              		.eabi_attribute 25, 1
   7              		.eabi_attribute 26, 1
   8              		.eabi_attribute 30, 1
   9              		.eabi_attribute 34, 0
  10              		.eabi_attribute 18, 4
  11              		.file	"app_hooks.c"
  12              		.text
  13              	.Ltext0:
  14              		.cfi_sections	.debug_frame
  15              		.section	.text.App_TaskCreateHook,"ax",%progbits
  16              		.align	1
  17              		.global	App_TaskCreateHook
  18              		.arch armv6s-m
  19              		.syntax unified
  20              		.code	16
  21              		.thumb_func
  22              		.fpu softvfp
  23              		.type	App_TaskCreateHook, %function
  24              	App_TaskCreateHook:
  25              	.LVL0:
  26              	.LFB3:
  27              		.file 1 "..\\..\\app_hooks.c"
   1:..\../app_hooks.c **** /*
   2:..\../app_hooks.c **** ***************************************************************************************************
   3:..\../app_hooks.c **** *                                              EXAMPLE CODE
   4:..\../app_hooks.c **** *
   5:..\../app_hooks.c **** *                          (c) Copyright 2003-2009; Micrium, Inc.; Weston, FL
   6:..\../app_hooks.c **** *
   7:..\../app_hooks.c **** *               All rights reserved.  Protected by international copyright laws.
   8:..\../app_hooks.c **** *               Knowledge of the source code may NOT be used to develop a similar product.
   9:..\../app_hooks.c **** *               Please help us continue to provide the Embedded community with the finest
  10:..\../app_hooks.c **** *               software available.  Your honesty is greatly appreciated.
  11:..\../app_hooks.c **** ***************************************************************************************************
  12:..\../app_hooks.c **** */
  13:..\../app_hooks.c **** 
  14:..\../app_hooks.c **** /*
  15:..\../app_hooks.c **** ***************************************************************************************************
  16:..\../app_hooks.c **** *
  17:..\../app_hooks.c **** *                                             uC/OS-II 
  18:..\../app_hooks.c **** *                                         Application Hooks
  19:..\../app_hooks.c **** *
  20:..\../app_hooks.c **** * Filename      : app_hooks.c
  21:..\../app_hooks.c **** * Version       : V1.00
  22:..\../app_hooks.c **** * Programmer(s) : FT
  23:..\../app_hooks.c **** ***************************************************************************************************
  24:..\../app_hooks.c **** */
  25:..\../app_hooks.c **** 
  26:..\../app_hooks.c **** /*
  27:..\../app_hooks.c **** ***************************************************************************************************
  28:..\../app_hooks.c **** *                                             INCLUDE FILES
  29:..\../app_hooks.c **** ***************************************************************************************************
  30:..\../app_hooks.c **** */
ARM GAS  C:\Users\EDULU~1.DES\AppData\Local\Temp\ccEHhrS0.s 			page 2


  31:..\../app_hooks.c **** 
  32:..\../app_hooks.c **** #include  <os.h>
  33:..\../app_hooks.c **** 
  34:..\../app_hooks.c **** /*
  35:..\../app_hooks.c **** ***************************************************************************************************
  36:..\../app_hooks.c **** *                                       EXTERN  GLOBAL VARIABLES
  37:..\../app_hooks.c **** ***************************************************************************************************
  38:..\../app_hooks.c **** */
  39:..\../app_hooks.c **** 
  40:..\../app_hooks.c **** 
  41:..\../app_hooks.c **** /*
  42:..\../app_hooks.c **** ***************************************************************************************************
  43:..\../app_hooks.c **** *                                           LOCAL CONSTANTS
  44:..\../app_hooks.c **** ***************************************************************************************************
  45:..\../app_hooks.c **** */
  46:..\../app_hooks.c **** 
  47:..\../app_hooks.c **** 
  48:..\../app_hooks.c **** /*
  49:..\../app_hooks.c **** ***************************************************************************************************
  50:..\../app_hooks.c **** *                                          LOCAL DATA TYPES
  51:..\../app_hooks.c **** ***************************************************************************************************
  52:..\../app_hooks.c **** */
  53:..\../app_hooks.c **** 
  54:..\../app_hooks.c **** /*
  55:..\../app_hooks.c **** ***************************************************************************************************
  56:..\../app_hooks.c **** *                                            LOCAL TABLES
  57:..\../app_hooks.c **** ***************************************************************************************************
  58:..\../app_hooks.c **** */
  59:..\../app_hooks.c **** 
  60:..\../app_hooks.c **** 
  61:..\../app_hooks.c **** /*
  62:..\../app_hooks.c **** ***************************************************************************************************
  63:..\../app_hooks.c **** *                                       LOCAL GLOBAL VARIABLES
  64:..\../app_hooks.c **** ***************************************************************************************************
  65:..\../app_hooks.c **** */
  66:..\../app_hooks.c **** 
  67:..\../app_hooks.c **** 
  68:..\../app_hooks.c **** /*
  69:..\../app_hooks.c **** ***************************************************************************************************
  70:..\../app_hooks.c **** *                                      LOCAL FUNCTION PROTOTYPES
  71:..\../app_hooks.c **** ***************************************************************************************************
  72:..\../app_hooks.c **** */
  73:..\../app_hooks.c **** 
  74:..\../app_hooks.c **** 
  75:..\../app_hooks.c **** 
  76:..\../app_hooks.c **** /*
  77:..\../app_hooks.c **** ***************************************************************************************************
  78:..\../app_hooks.c **** ***************************************************************************************************
  79:..\../app_hooks.c **** **                                        GLOBAL FUNCTIONS
  80:..\../app_hooks.c **** ***************************************************************************************************
  81:..\../app_hooks.c **** ***************************************************************************************************
  82:..\../app_hooks.c **** */
  83:..\../app_hooks.c **** 
  84:..\../app_hooks.c **** /*
  85:..\../app_hooks.c **** ***************************************************************************************************
  86:..\../app_hooks.c **** ***************************************************************************************************
  87:..\../app_hooks.c **** **                                         uC/OS-II APP HOOKS
ARM GAS  C:\Users\EDULU~1.DES\AppData\Local\Temp\ccEHhrS0.s 			page 3


  88:..\../app_hooks.c **** ***************************************************************************************************
  89:..\../app_hooks.c **** ***************************************************************************************************
  90:..\../app_hooks.c **** */
  91:..\../app_hooks.c **** 
  92:..\../app_hooks.c **** #if (OS_APP_HOOKS_EN > 0)
  93:..\../app_hooks.c **** 
  94:..\../app_hooks.c **** /*
  95:..\../app_hooks.c **** ***************************************************************************************************
  96:..\../app_hooks.c **** *                                      TASK CREATION HOOK (APPLICATION)
  97:..\../app_hooks.c **** *
  98:..\../app_hooks.c **** * Description : This function is called when a task is created.
  99:..\../app_hooks.c **** *
 100:..\../app_hooks.c **** * Argument(s) : ptcb   is a pointer to the task control block of the task being created.
 101:..\../app_hooks.c **** *
 102:..\../app_hooks.c **** * Note(s)     : (1) Interrupts are disabled during this call.
 103:..\../app_hooks.c **** ***************************************************************************************************
 104:..\../app_hooks.c **** */
 105:..\../app_hooks.c **** 
 106:..\../app_hooks.c **** void  App_TaskCreateHook (OS_TCB *ptcb)
 107:..\../app_hooks.c **** {
  28              		.loc 1 107 1 view -0
  29              		.cfi_startproc
  30              		@ args = 0, pretend = 0, frame = 0
  31              		@ frame_needed = 0, uses_anonymous_args = 0
  32              		@ link register save eliminated.
 108:..\../app_hooks.c **** #if (APP_CFG_PROBE_OS_PLUGIN_EN == DEF_ENABLED) && (OS_PROBE_HOOKS_EN > 0)
 109:..\../app_hooks.c ****     OSProbe_TaskCreateHook(ptcb);
 110:..\../app_hooks.c **** #endif
 111:..\../app_hooks.c **** }
  33              		.loc 1 111 1 view .LVU1
  34              		@ sp needed
  35 0000 7047     		bx	lr
  36              		.cfi_endproc
  37              	.LFE3:
  38              		.size	App_TaskCreateHook, .-App_TaskCreateHook
  39              		.section	.text.App_TaskDelHook,"ax",%progbits
  40              		.align	1
  41              		.global	App_TaskDelHook
  42              		.syntax unified
  43              		.code	16
  44              		.thumb_func
  45              		.fpu softvfp
  46              		.type	App_TaskDelHook, %function
  47              	App_TaskDelHook:
  48              	.LVL1:
  49              	.LFB4:
 112:..\../app_hooks.c **** 
 113:..\../app_hooks.c **** /*
 114:..\../app_hooks.c **** ***************************************************************************************************
 115:..\../app_hooks.c **** *                                    TASK DELETION HOOK (APPLICATION)
 116:..\../app_hooks.c **** *
 117:..\../app_hooks.c **** * Description : This function is called when a task is deleted.
 118:..\../app_hooks.c **** *
 119:..\../app_hooks.c **** * Argument(s) : ptcb   is a pointer to the task control block of the task being deleted.
 120:..\../app_hooks.c **** *
 121:..\../app_hooks.c **** * Note(s)     : (1) Interrupts are disabled during this call.
 122:..\../app_hooks.c **** ***************************************************************************************************
ARM GAS  C:\Users\EDULU~1.DES\AppData\Local\Temp\ccEHhrS0.s 			page 4


 123:..\../app_hooks.c **** */
 124:..\../app_hooks.c **** 
 125:..\../app_hooks.c **** void  App_TaskDelHook (OS_TCB *ptcb)
 126:..\../app_hooks.c **** {
  50              		.loc 1 126 1 view -0
  51              		.cfi_startproc
  52              		@ args = 0, pretend = 0, frame = 0
  53              		@ frame_needed = 0, uses_anonymous_args = 0
  54              		@ link register save eliminated.
 127:..\../app_hooks.c ****     (void)ptcb;
  55              		.loc 1 127 5 view .LVU3
 128:..\../app_hooks.c **** }
  56              		.loc 1 128 1 is_stmt 0 view .LVU4
  57              		@ sp needed
  58 0000 7047     		bx	lr
  59              		.cfi_endproc
  60              	.LFE4:
  61              		.size	App_TaskDelHook, .-App_TaskDelHook
  62              		.section	.text.App_TaskIdleHook,"ax",%progbits
  63              		.align	1
  64              		.global	App_TaskIdleHook
  65              		.syntax unified
  66              		.code	16
  67              		.thumb_func
  68              		.fpu softvfp
  69              		.type	App_TaskIdleHook, %function
  70              	App_TaskIdleHook:
  71              	.LFB5:
 129:..\../app_hooks.c **** 
 130:..\../app_hooks.c **** /*
 131:..\../app_hooks.c **** ***************************************************************************************************
 132:..\../app_hooks.c **** *                                      IDLE TASK HOOK (APPLICATION)
 133:..\../app_hooks.c **** *
 134:..\../app_hooks.c **** * Description : This function is called by OSTaskIdleHook(), which is called by the idle task.  Thi
 135:..\../app_hooks.c **** *               has been added to allow you to do such things as STOP the CPU to conserve power.
 136:..\../app_hooks.c **** *
 137:..\../app_hooks.c **** * Argument(s) : none.
 138:..\../app_hooks.c **** *
 139:..\../app_hooks.c **** * Note(s)     : (1) Interrupts are enabled during this call.
 140:..\../app_hooks.c **** ***************************************************************************************************
 141:..\../app_hooks.c **** */
 142:..\../app_hooks.c **** 
 143:..\../app_hooks.c **** #if OS_VERSION >= 251
 144:..\../app_hooks.c **** void  App_TaskIdleHook (void)
 145:..\../app_hooks.c **** {
  72              		.loc 1 145 1 is_stmt 1 view -0
  73              		.cfi_startproc
  74              		@ args = 0, pretend = 0, frame = 0
  75              		@ frame_needed = 0, uses_anonymous_args = 0
  76              		@ link register save eliminated.
 146:..\../app_hooks.c **** }
  77              		.loc 1 146 1 view .LVU6
  78              		@ sp needed
  79 0000 7047     		bx	lr
  80              		.cfi_endproc
  81              	.LFE5:
  82              		.size	App_TaskIdleHook, .-App_TaskIdleHook
ARM GAS  C:\Users\EDULU~1.DES\AppData\Local\Temp\ccEHhrS0.s 			page 5


  83              		.section	.text.App_TaskStatHook,"ax",%progbits
  84              		.align	1
  85              		.global	App_TaskStatHook
  86              		.syntax unified
  87              		.code	16
  88              		.thumb_func
  89              		.fpu softvfp
  90              		.type	App_TaskStatHook, %function
  91              	App_TaskStatHook:
  92              	.LFB6:
 147:..\../app_hooks.c **** #endif
 148:..\../app_hooks.c **** 
 149:..\../app_hooks.c **** /*
 150:..\../app_hooks.c **** ***************************************************************************************************
 151:..\../app_hooks.c **** *                                        STATISTIC TASK HOOK (APPLICATION)
 152:..\../app_hooks.c **** *
 153:..\../app_hooks.c **** * Description : This function is called by OSTaskStatHook(), which is called every second by uC/OS-
 154:..\../app_hooks.c **** *               statistics task.  This allows your application to add functionality to the statisti
 155:..\../app_hooks.c **** *
 156:..\../app_hooks.c **** * Argument(s) : none.
 157:..\../app_hooks.c **** ***************************************************************************************************
 158:..\../app_hooks.c **** */
 159:..\../app_hooks.c **** 
 160:..\../app_hooks.c **** void  App_TaskStatHook (void)
 161:..\../app_hooks.c **** {
  93              		.loc 1 161 1 view -0
  94              		.cfi_startproc
  95              		@ args = 0, pretend = 0, frame = 0
  96              		@ frame_needed = 0, uses_anonymous_args = 0
  97              		@ link register save eliminated.
 162:..\../app_hooks.c **** }
  98              		.loc 1 162 1 view .LVU8
  99              		@ sp needed
 100 0000 7047     		bx	lr
 101              		.cfi_endproc
 102              	.LFE6:
 103              		.size	App_TaskStatHook, .-App_TaskStatHook
 104              		.section	.text.App_TaskReturnHook,"ax",%progbits
 105              		.align	1
 106              		.global	App_TaskReturnHook
 107              		.syntax unified
 108              		.code	16
 109              		.thumb_func
 110              		.fpu softvfp
 111              		.type	App_TaskReturnHook, %function
 112              	App_TaskReturnHook:
 113              	.LVL2:
 114              	.LFB7:
 163:..\../app_hooks.c **** 
 164:..\../app_hooks.c **** /*
 165:..\../app_hooks.c **** ***************************************************************************************************
 166:..\../app_hooks.c **** *                                            TASK RETURN HOOK (APPLICATION)
 167:..\../app_hooks.c **** *
 168:..\../app_hooks.c **** * Description: This function is called if a task accidentally returns.  In other words, a task shou
 169:..\../app_hooks.c **** *              either be an infinite loop or delete itself when done.
 170:..\../app_hooks.c **** *
 171:..\../app_hooks.c **** * Arguments  : ptcb      is a pointer to the task control block of the task that is returning.
ARM GAS  C:\Users\EDULU~1.DES\AppData\Local\Temp\ccEHhrS0.s 			page 6


 172:..\../app_hooks.c **** *
 173:..\../app_hooks.c **** * Note(s)    : none
 174:..\../app_hooks.c **** ***************************************************************************************************
 175:..\../app_hooks.c **** */
 176:..\../app_hooks.c **** 
 177:..\../app_hooks.c **** 
 178:..\../app_hooks.c **** #if OS_VERSION >= 289
 179:..\../app_hooks.c **** void  App_TaskReturnHook (OS_TCB  *ptcb)
 180:..\../app_hooks.c **** {
 115              		.loc 1 180 1 view -0
 116              		.cfi_startproc
 117              		@ args = 0, pretend = 0, frame = 0
 118              		@ frame_needed = 0, uses_anonymous_args = 0
 119              		@ link register save eliminated.
 181:..\../app_hooks.c ****     (void)ptcb;
 120              		.loc 1 181 5 view .LVU10
 182:..\../app_hooks.c **** }
 121              		.loc 1 182 1 is_stmt 0 view .LVU11
 122              		@ sp needed
 123 0000 7047     		bx	lr
 124              		.cfi_endproc
 125              	.LFE7:
 126              		.size	App_TaskReturnHook, .-App_TaskReturnHook
 127              		.section	.text.App_TaskSwHook,"ax",%progbits
 128              		.align	1
 129              		.global	App_TaskSwHook
 130              		.syntax unified
 131              		.code	16
 132              		.thumb_func
 133              		.fpu softvfp
 134              		.type	App_TaskSwHook, %function
 135              	App_TaskSwHook:
 136              	.LFB8:
 183:..\../app_hooks.c **** #endif
 184:..\../app_hooks.c **** 
 185:..\../app_hooks.c **** /*
 186:..\../app_hooks.c **** ***************************************************************************************************
 187:..\../app_hooks.c **** *                                        TASK SWITCH HOOK (APPLICATION)
 188:..\../app_hooks.c **** *
 189:..\../app_hooks.c **** * Description : This function is called when a task switch is performed.  This allows you to perfor
 190:..\../app_hooks.c **** *               operations during a context switch.
 191:..\../app_hooks.c **** *
 192:..\../app_hooks.c **** * Argument(s) : none.
 193:..\../app_hooks.c **** *
 194:..\../app_hooks.c **** * Note(s)     : (1) Interrupts are disabled during this call.
 195:..\../app_hooks.c **** *
 196:..\../app_hooks.c **** *               (2) It is assumed that the global pointer 'OSTCBHighRdy' points to the TCB of the t
 197:..\../app_hooks.c **** *                   will be 'switched in' (i.e. the highest priority task) and, 'OSTCBCur' points t
 198:..\../app_hooks.c **** *                  task being switched out (i.e. the preempted task).
 199:..\../app_hooks.c **** ***************************************************************************************************
 200:..\../app_hooks.c **** */
 201:..\../app_hooks.c **** 
 202:..\../app_hooks.c **** #if OS_TASK_SW_HOOK_EN > 0
 203:..\../app_hooks.c **** void  App_TaskSwHook (void)
 204:..\../app_hooks.c **** {
 137              		.loc 1 204 1 is_stmt 1 view -0
 138              		.cfi_startproc
ARM GAS  C:\Users\EDULU~1.DES\AppData\Local\Temp\ccEHhrS0.s 			page 7


 139              		@ args = 0, pretend = 0, frame = 0
 140              		@ frame_needed = 0, uses_anonymous_args = 0
 141              		@ link register save eliminated.
 205:..\../app_hooks.c **** #if (APP_CFG_PROBE_OS_PLUGIN_EN > 0) && (OS_PROBE_HOOKS_EN > 0)
 206:..\../app_hooks.c ****     OSProbe_TaskSwHook();
 207:..\../app_hooks.c **** #endif
 208:..\../app_hooks.c **** }
 142              		.loc 1 208 1 view .LVU13
 143              		@ sp needed
 144 0000 7047     		bx	lr
 145              		.cfi_endproc
 146              	.LFE8:
 147              		.size	App_TaskSwHook, .-App_TaskSwHook
 148              		.section	.text.App_TCBInitHook,"ax",%progbits
 149              		.align	1
 150              		.global	App_TCBInitHook
 151              		.syntax unified
 152              		.code	16
 153              		.thumb_func
 154              		.fpu softvfp
 155              		.type	App_TCBInitHook, %function
 156              	App_TCBInitHook:
 157              	.LVL3:
 158              	.LFB9:
 209:..\../app_hooks.c **** #endif
 210:..\../app_hooks.c **** 
 211:..\../app_hooks.c **** /*
 212:..\../app_hooks.c **** ***************************************************************************************************
 213:..\../app_hooks.c **** *                                     OS_TCBInit() HOOK (APPLICATION)
 214:..\../app_hooks.c **** *
 215:..\../app_hooks.c **** * Description : This function is called by OSTCBInitHook(), which is called by OS_TCBInit() after s
 216:..\../app_hooks.c **** *               up most of the TCB.
 217:..\../app_hooks.c **** *
 218:..\../app_hooks.c **** * Argument(s) : ptcb    is a pointer to the TCB of the task being created.
 219:..\../app_hooks.c **** *
 220:..\../app_hooks.c **** * Note(s)     : (1) Interrupts may or may not be ENABLED during this call.
 221:..\../app_hooks.c **** ***************************************************************************************************
 222:..\../app_hooks.c **** */
 223:..\../app_hooks.c **** 
 224:..\../app_hooks.c **** #if OS_VERSION >= 204
 225:..\../app_hooks.c **** void  App_TCBInitHook (OS_TCB *ptcb)
 226:..\../app_hooks.c **** {
 159              		.loc 1 226 1 view -0
 160              		.cfi_startproc
 161              		@ args = 0, pretend = 0, frame = 0
 162              		@ frame_needed = 0, uses_anonymous_args = 0
 163              		@ link register save eliminated.
 227:..\../app_hooks.c ****     (void)ptcb;
 164              		.loc 1 227 5 view .LVU15
 228:..\../app_hooks.c **** }
 165              		.loc 1 228 1 is_stmt 0 view .LVU16
 166              		@ sp needed
 167 0000 7047     		bx	lr
 168              		.cfi_endproc
 169              	.LFE9:
 170              		.size	App_TCBInitHook, .-App_TCBInitHook
 171              		.section	.text.App_TimeTickHook,"ax",%progbits
ARM GAS  C:\Users\EDULU~1.DES\AppData\Local\Temp\ccEHhrS0.s 			page 8


 172              		.align	1
 173              		.global	App_TimeTickHook
 174              		.syntax unified
 175              		.code	16
 176              		.thumb_func
 177              		.fpu softvfp
 178              		.type	App_TimeTickHook, %function
 179              	App_TimeTickHook:
 180              	.LFB10:
 229:..\../app_hooks.c **** #endif
 230:..\../app_hooks.c **** 
 231:..\../app_hooks.c **** /*
 232:..\../app_hooks.c **** ***************************************************************************************************
 233:..\../app_hooks.c **** *                                        TICK HOOK (APPLICATION)
 234:..\../app_hooks.c **** *
 235:..\../app_hooks.c **** * Description : This function is called every tick.
 236:..\../app_hooks.c **** *
 237:..\../app_hooks.c **** * Argument(s) : none.
 238:..\../app_hooks.c **** *
 239:..\../app_hooks.c **** * Note(s)     : (1) Interrupts may or may not be ENABLED during this call.
 240:..\../app_hooks.c **** ***************************************************************************************************
 241:..\../app_hooks.c **** */
 242:..\../app_hooks.c **** 
 243:..\../app_hooks.c **** #if OS_TIME_TICK_HOOK_EN > 0
 244:..\../app_hooks.c **** void  App_TimeTickHook (void)
 245:..\../app_hooks.c **** {
 181              		.loc 1 245 1 is_stmt 1 view -0
 182              		.cfi_startproc
 183              		@ args = 0, pretend = 0, frame = 0
 184              		@ frame_needed = 0, uses_anonymous_args = 0
 185              		@ link register save eliminated.
 246:..\../app_hooks.c **** #if (APP_CFG_PROBE_OS_PLUGIN_EN == DEF_ENABLED) && (OS_PROBE_HOOKS_EN > 0)
 247:..\../app_hooks.c ****     OSProbe_TickHook();
 248:..\../app_hooks.c **** #endif
 249:..\../app_hooks.c **** }
 186              		.loc 1 249 1 view .LVU18
 187              		@ sp needed
 188 0000 7047     		bx	lr
 189              		.cfi_endproc
 190              	.LFE10:
 191              		.size	App_TimeTickHook, .-App_TimeTickHook
 192              		.text
 193              	.Letext0:
 194              		.file 2 "c:\\program files (x86)\\gnu tools arm embedded\\8 2018-q4-major\\arm-none-eabi\\include\
 195              		.file 3 "c:\\program files (x86)\\gnu tools arm embedded\\8 2018-q4-major\\arm-none-eabi\\include\
 196              		.file 4 "c:\\program files (x86)\\gnu tools arm embedded\\8 2018-q4-major\\lib\\gcc\\arm-none-eabi
 197              		.file 5 "c:\\program files (x86)\\gnu tools arm embedded\\8 2018-q4-major\\arm-none-eabi\\include\
 198              		.file 6 "..\\..\\..\\..\\..\\..\\Software\\uCOS-II\\Ports\\ARM-Cortex-M0\\Generic\\GNU/os_cpu.h"
 199              		.file 7 "..\\..\\..\\..\\..\\..\\Software\\uCOS-II\\Source/ucos_ii.h"