ARM GAS  C:\Users\EDULU~1.DES\AppData\Local\Temp\cceod9Md.s 			page 1


   1              		.cpu cortex-m0
   2              		.eabi_attribute 20, 1
   3              		.eabi_attribute 21, 1
   4              		.eabi_attribute 23, 3
   5              		.eabi_attribute 24, 1
   6              		.eabi_attribute 25, 1
   7              		.eabi_attribute 26, 1
   8              		.eabi_attribute 30, 1
   9              		.eabi_attribute 34, 0
  10              		.eabi_attribute 18, 4
  11              		.file	"bsp_os.c"
  12              		.text
  13              	.Ltext0:
  14              		.cfi_sections	.debug_frame
  15              		.section	.text.BSP_OS_SemCreate,"ax",%progbits
  16              		.align	1
  17              		.global	BSP_OS_SemCreate
  18              		.arch armv6s-m
  19              		.syntax unified
  20              		.code	16
  21              		.thumb_func
  22              		.fpu softvfp
  23              		.type	BSP_OS_SemCreate, %function
  24              	BSP_OS_SemCreate:
  25              	.LVL0:
  26              	.LFB3:
  27              		.file 1 "..\\..\\..\\BSP\\OS\\uCOS-II\\bsp_os.c"
   1:..\..\..\BSP\OS\uCOS-II/bsp_os.c **** /*
   2:..\..\..\BSP\OS\uCOS-II/bsp_os.c **** ***************************************************************************************************
   3:..\..\..\BSP\OS\uCOS-II/bsp_os.c **** *                                     MICRIUM BOARD SUPPORT SUPPORT
   4:..\..\..\BSP\OS\uCOS-II/bsp_os.c **** *
   5:..\..\..\BSP\OS\uCOS-II/bsp_os.c **** *                          (c) Copyright 2003-2015; Micrium, Inc.; Weston, FL
   6:..\..\..\BSP\OS\uCOS-II/bsp_os.c **** *
   7:..\..\..\BSP\OS\uCOS-II/bsp_os.c **** *               All rights reserved.  Protected by international copyright laws.
   8:..\..\..\BSP\OS\uCOS-II/bsp_os.c **** *               Knowledge of the source code may NOT be used to develop a similar product.
   9:..\..\..\BSP\OS\uCOS-II/bsp_os.c **** *               Please help us continue to provide the Embedded community with the finest
  10:..\..\..\BSP\OS\uCOS-II/bsp_os.c **** *               software available.  Your honesty is greatly appreciated.
  11:..\..\..\BSP\OS\uCOS-II/bsp_os.c **** ***************************************************************************************************
  12:..\..\..\BSP\OS\uCOS-II/bsp_os.c **** */
  13:..\..\..\BSP\OS\uCOS-II/bsp_os.c **** 
  14:..\..\..\BSP\OS\uCOS-II/bsp_os.c **** /*
  15:..\..\..\BSP\OS\uCOS-II/bsp_os.c **** ***************************************************************************************************
  16:..\..\..\BSP\OS\uCOS-II/bsp_os.c **** *
  17:..\..\..\BSP\OS\uCOS-II/bsp_os.c **** *                                    MICRIUM BOARD SUPPORT PACKAGE
  18:..\..\..\BSP\OS\uCOS-II/bsp_os.c **** *                                             OS LAYER
  19:..\..\..\BSP\OS\uCOS-II/bsp_os.c **** *
  20:..\..\..\BSP\OS\uCOS-II/bsp_os.c **** * Filename      : bsp_os.c
  21:..\..\..\BSP\OS\uCOS-II/bsp_os.c **** * Version       : V1.00
  22:..\..\..\BSP\OS\uCOS-II/bsp_os.c **** * Programmer(s) : FT
  23:..\..\..\BSP\OS\uCOS-II/bsp_os.c **** *                 EHS
  24:..\..\..\BSP\OS\uCOS-II/bsp_os.c **** ***************************************************************************************************
  25:..\..\..\BSP\OS\uCOS-II/bsp_os.c **** */
  26:..\..\..\BSP\OS\uCOS-II/bsp_os.c **** 
  27:..\..\..\BSP\OS\uCOS-II/bsp_os.c **** 
  28:..\..\..\BSP\OS\uCOS-II/bsp_os.c **** /*
  29:..\..\..\BSP\OS\uCOS-II/bsp_os.c **** ***************************************************************************************************
  30:..\..\..\BSP\OS\uCOS-II/bsp_os.c **** *                                             INCLUDE FILES
ARM GAS  C:\Users\EDULU~1.DES\AppData\Local\Temp\cceod9Md.s 			page 2


  31:..\..\..\BSP\OS\uCOS-II/bsp_os.c **** ***************************************************************************************************
  32:..\..\..\BSP\OS\uCOS-II/bsp_os.c **** */
  33:..\..\..\BSP\OS\uCOS-II/bsp_os.c **** 
  34:..\..\..\BSP\OS\uCOS-II/bsp_os.c **** #define  BSP_OS_MODULE
  35:..\..\..\BSP\OS\uCOS-II/bsp_os.c **** #include <bsp.h>
  36:..\..\..\BSP\OS\uCOS-II/bsp_os.c **** #include <bsp_os.h>
  37:..\..\..\BSP\OS\uCOS-II/bsp_os.c **** 
  38:..\..\..\BSP\OS\uCOS-II/bsp_os.c **** 
  39:..\..\..\BSP\OS\uCOS-II/bsp_os.c **** /*
  40:..\..\..\BSP\OS\uCOS-II/bsp_os.c **** ***************************************************************************************************
  41:..\..\..\BSP\OS\uCOS-II/bsp_os.c **** *                                            LOCAL DEFINES
  42:..\..\..\BSP\OS\uCOS-II/bsp_os.c **** ***************************************************************************************************
  43:..\..\..\BSP\OS\uCOS-II/bsp_os.c **** */
  44:..\..\..\BSP\OS\uCOS-II/bsp_os.c **** 
  45:..\..\..\BSP\OS\uCOS-II/bsp_os.c **** 
  46:..\..\..\BSP\OS\uCOS-II/bsp_os.c **** /*
  47:..\..\..\BSP\OS\uCOS-II/bsp_os.c **** ***************************************************************************************************
  48:..\..\..\BSP\OS\uCOS-II/bsp_os.c **** *                                           LOCAL CONSTANTS
  49:..\..\..\BSP\OS\uCOS-II/bsp_os.c **** ***************************************************************************************************
  50:..\..\..\BSP\OS\uCOS-II/bsp_os.c **** */
  51:..\..\..\BSP\OS\uCOS-II/bsp_os.c **** 
  52:..\..\..\BSP\OS\uCOS-II/bsp_os.c **** 
  53:..\..\..\BSP\OS\uCOS-II/bsp_os.c **** /*
  54:..\..\..\BSP\OS\uCOS-II/bsp_os.c **** ***************************************************************************************************
  55:..\..\..\BSP\OS\uCOS-II/bsp_os.c **** *                                          LOCAL DATA TYPES
  56:..\..\..\BSP\OS\uCOS-II/bsp_os.c **** ***************************************************************************************************
  57:..\..\..\BSP\OS\uCOS-II/bsp_os.c **** */
  58:..\..\..\BSP\OS\uCOS-II/bsp_os.c **** 
  59:..\..\..\BSP\OS\uCOS-II/bsp_os.c **** 
  60:..\..\..\BSP\OS\uCOS-II/bsp_os.c **** /*
  61:..\..\..\BSP\OS\uCOS-II/bsp_os.c **** ***************************************************************************************************
  62:..\..\..\BSP\OS\uCOS-II/bsp_os.c **** *                                            LOCAL TABLES
  63:..\..\..\BSP\OS\uCOS-II/bsp_os.c **** ***************************************************************************************************
  64:..\..\..\BSP\OS\uCOS-II/bsp_os.c **** */
  65:..\..\..\BSP\OS\uCOS-II/bsp_os.c **** 
  66:..\..\..\BSP\OS\uCOS-II/bsp_os.c **** 
  67:..\..\..\BSP\OS\uCOS-II/bsp_os.c **** /*
  68:..\..\..\BSP\OS\uCOS-II/bsp_os.c **** ***************************************************************************************************
  69:..\..\..\BSP\OS\uCOS-II/bsp_os.c **** *                                       LOCAL GLOBAL VARIABLES
  70:..\..\..\BSP\OS\uCOS-II/bsp_os.c **** ***************************************************************************************************
  71:..\..\..\BSP\OS\uCOS-II/bsp_os.c **** */
  72:..\..\..\BSP\OS\uCOS-II/bsp_os.c **** 
  73:..\..\..\BSP\OS\uCOS-II/bsp_os.c **** 
  74:..\..\..\BSP\OS\uCOS-II/bsp_os.c **** /*
  75:..\..\..\BSP\OS\uCOS-II/bsp_os.c **** ***************************************************************************************************
  76:..\..\..\BSP\OS\uCOS-II/bsp_os.c **** *                                      LOCAL FUNCTION PROTOTYPES
  77:..\..\..\BSP\OS\uCOS-II/bsp_os.c **** ***************************************************************************************************
  78:..\..\..\BSP\OS\uCOS-II/bsp_os.c **** */
  79:..\..\..\BSP\OS\uCOS-II/bsp_os.c **** 
  80:..\..\..\BSP\OS\uCOS-II/bsp_os.c **** 
  81:..\..\..\BSP\OS\uCOS-II/bsp_os.c **** /*
  82:..\..\..\BSP\OS\uCOS-II/bsp_os.c **** ***************************************************************************************************
  83:..\..\..\BSP\OS\uCOS-II/bsp_os.c **** *                                     LOCAL CONFIGURATION ERRORS
  84:..\..\..\BSP\OS\uCOS-II/bsp_os.c **** ***************************************************************************************************
  85:..\..\..\BSP\OS\uCOS-II/bsp_os.c **** */
  86:..\..\..\BSP\OS\uCOS-II/bsp_os.c **** 
  87:..\..\..\BSP\OS\uCOS-II/bsp_os.c **** /*
ARM GAS  C:\Users\EDULU~1.DES\AppData\Local\Temp\cceod9Md.s 			page 3


  88:..\..\..\BSP\OS\uCOS-II/bsp_os.c **** ***************************************************************************************************
  89:..\..\..\BSP\OS\uCOS-II/bsp_os.c **** ***************************************************************************************************
  90:..\..\..\BSP\OS\uCOS-II/bsp_os.c **** **                                         GLOBAL FUNCTIONS
  91:..\..\..\BSP\OS\uCOS-II/bsp_os.c **** ***************************************************************************************************
  92:..\..\..\BSP\OS\uCOS-II/bsp_os.c **** ***************************************************************************************************
  93:..\..\..\BSP\OS\uCOS-II/bsp_os.c **** */
  94:..\..\..\BSP\OS\uCOS-II/bsp_os.c **** 
  95:..\..\..\BSP\OS\uCOS-II/bsp_os.c **** 
  96:..\..\..\BSP\OS\uCOS-II/bsp_os.c **** /*
  97:..\..\..\BSP\OS\uCOS-II/bsp_os.c **** ***************************************************************************************************
  98:..\..\..\BSP\OS\uCOS-II/bsp_os.c **** ***************************************************************************************************
  99:..\..\..\BSP\OS\uCOS-II/bsp_os.c **** **                                     BSP OS LOCKS FUNCTIONS
 100:..\..\..\BSP\OS\uCOS-II/bsp_os.c **** ***************************************************************************************************
 101:..\..\..\BSP\OS\uCOS-II/bsp_os.c **** ***************************************************************************************************
 102:..\..\..\BSP\OS\uCOS-II/bsp_os.c **** */
 103:..\..\..\BSP\OS\uCOS-II/bsp_os.c **** 
 104:..\..\..\BSP\OS\uCOS-II/bsp_os.c **** /*
 105:..\..\..\BSP\OS\uCOS-II/bsp_os.c **** ***************************************************************************************************
 106:..\..\..\BSP\OS\uCOS-II/bsp_os.c **** ***************************************************************************************************
 107:..\..\..\BSP\OS\uCOS-II/bsp_os.c **** **                                     BSP OS LOCKS FUNCTIONS
 108:..\..\..\BSP\OS\uCOS-II/bsp_os.c **** ***************************************************************************************************
 109:..\..\..\BSP\OS\uCOS-II/bsp_os.c **** ***************************************************************************************************
 110:..\..\..\BSP\OS\uCOS-II/bsp_os.c **** */
 111:..\..\..\BSP\OS\uCOS-II/bsp_os.c **** 
 112:..\..\..\BSP\OS\uCOS-II/bsp_os.c **** /*
 113:..\..\..\BSP\OS\uCOS-II/bsp_os.c **** ***************************************************************************************************
 114:..\..\..\BSP\OS\uCOS-II/bsp_os.c **** *                                      BSP_OS_SemCreate()
 115:..\..\..\BSP\OS\uCOS-II/bsp_os.c **** *
 116:..\..\..\BSP\OS\uCOS-II/bsp_os.c **** * Description : Creates a sempahore to lock/unlock
 117:..\..\..\BSP\OS\uCOS-II/bsp_os.c **** *
 118:..\..\..\BSP\OS\uCOS-II/bsp_os.c **** * Argument(s) : p_sem        Pointer to a BSP_OS_SEM structure
 119:..\..\..\BSP\OS\uCOS-II/bsp_os.c **** *
 120:..\..\..\BSP\OS\uCOS-II/bsp_os.c **** *               sem_val      Initial value of the semaphore.
 121:..\..\..\BSP\OS\uCOS-II/bsp_os.c **** *
 122:..\..\..\BSP\OS\uCOS-II/bsp_os.c **** *               p_sem_name   Pointer to the semaphore name.
 123:..\..\..\BSP\OS\uCOS-II/bsp_os.c **** *
 124:..\..\..\BSP\OS\uCOS-II/bsp_os.c **** * Return(s)   : DEF_OK        if the semaphore was created.
 125:..\..\..\BSP\OS\uCOS-II/bsp_os.c **** *               DEF_FAIL      if the sempahore could not be created.
 126:..\..\..\BSP\OS\uCOS-II/bsp_os.c **** *
 127:..\..\..\BSP\OS\uCOS-II/bsp_os.c **** * Caller(s)   : Application.
 128:..\..\..\BSP\OS\uCOS-II/bsp_os.c **** *
 129:..\..\..\BSP\OS\uCOS-II/bsp_os.c **** * Note(s)     : none.
 130:..\..\..\BSP\OS\uCOS-II/bsp_os.c **** *
 131:..\..\..\BSP\OS\uCOS-II/bsp_os.c **** ***************************************************************************************************
 132:..\..\..\BSP\OS\uCOS-II/bsp_os.c **** */
 133:..\..\..\BSP\OS\uCOS-II/bsp_os.c **** 
 134:..\..\..\BSP\OS\uCOS-II/bsp_os.c **** CPU_BOOLEAN  BSP_OS_SemCreate (BSP_OS_SEM      *p_sem,
 135:..\..\..\BSP\OS\uCOS-II/bsp_os.c ****                                BSP_OS_SEM_VAL   sem_val,
 136:..\..\..\BSP\OS\uCOS-II/bsp_os.c ****                                CPU_CHAR        *p_sem_name)
 137:..\..\..\BSP\OS\uCOS-II/bsp_os.c **** {
  28              		.loc 1 137 1 view -0
  29              		.cfi_startproc
  30              		@ args = 0, pretend = 0, frame = 0
  31              		@ frame_needed = 0, uses_anonymous_args = 0
  32              		.loc 1 137 1 is_stmt 0 view .LVU1
  33 0000 10B5     		push	{r4, lr}
  34              		.cfi_def_cfa_offset 8
ARM GAS  C:\Users\EDULU~1.DES\AppData\Local\Temp\cceod9Md.s 			page 4


  35              		.cfi_offset 4, -8
  36              		.cfi_offset 14, -4
  37 0002 0400     		movs	r4, r0
 138:..\..\..\BSP\OS\uCOS-II/bsp_os.c ****     OS_EVENT    *p_event;
  38              		.loc 1 138 5 is_stmt 1 view .LVU2
 139:..\..\..\BSP\OS\uCOS-II/bsp_os.c **** 
 140:..\..\..\BSP\OS\uCOS-II/bsp_os.c **** #if (OS_EVENT_NAME_EN > 0)
 141:..\..\..\BSP\OS\uCOS-II/bsp_os.c ****     CPU_INT08U   os_err;
 142:..\..\..\BSP\OS\uCOS-II/bsp_os.c **** #endif
 143:..\..\..\BSP\OS\uCOS-II/bsp_os.c **** 
 144:..\..\..\BSP\OS\uCOS-II/bsp_os.c ****     p_event = OSSemCreate(sem_val);
  39              		.loc 1 144 5 view .LVU3
  40              		.loc 1 144 15 is_stmt 0 view .LVU4
  41 0004 0800     		movs	r0, r1
  42              	.LVL1:
  43              		.loc 1 144 15 view .LVU5
  44 0006 FFF7FEFF 		bl	OSSemCreate
  45              	.LVL2:
 145:..\..\..\BSP\OS\uCOS-II/bsp_os.c **** 
 146:..\..\..\BSP\OS\uCOS-II/bsp_os.c ****     if (p_event == (OS_EVENT *)0) {
  46              		.loc 1 146 5 is_stmt 1 view .LVU6
  47              		.loc 1 146 8 is_stmt 0 view .LVU7
  48 000a 0028     		cmp	r0, #0
  49 000c 02D0     		beq	.L3
 147:..\..\..\BSP\OS\uCOS-II/bsp_os.c ****         return (DEF_FAIL);
 148:..\..\..\BSP\OS\uCOS-II/bsp_os.c ****     }
 149:..\..\..\BSP\OS\uCOS-II/bsp_os.c **** 
 150:..\..\..\BSP\OS\uCOS-II/bsp_os.c ****     *p_sem = (BSP_OS_SEM)(p_event);
  50              		.loc 1 150 5 is_stmt 1 view .LVU8
  51              		.loc 1 150 12 is_stmt 0 view .LVU9
  52 000e 2060     		str	r0, [r4]
 151:..\..\..\BSP\OS\uCOS-II/bsp_os.c **** 
 152:..\..\..\BSP\OS\uCOS-II/bsp_os.c **** #if (OS_EVENT_NAME_EN > 0)
 153:..\..\..\BSP\OS\uCOS-II/bsp_os.c ****     OSEventNameSet(          p_event,
 154:..\..\..\BSP\OS\uCOS-II/bsp_os.c ****                    (INT8U *) p_sem_name,
 155:..\..\..\BSP\OS\uCOS-II/bsp_os.c ****                             &os_err);
 156:..\..\..\BSP\OS\uCOS-II/bsp_os.c **** #endif
 157:..\..\..\BSP\OS\uCOS-II/bsp_os.c **** 
 158:..\..\..\BSP\OS\uCOS-II/bsp_os.c ****     return (DEF_OK);
  53              		.loc 1 158 5 is_stmt 1 view .LVU10
  54              		.loc 1 158 12 is_stmt 0 view .LVU11
  55 0010 0120     		movs	r0, #1
  56              	.LVL3:
  57              	.L2:
 159:..\..\..\BSP\OS\uCOS-II/bsp_os.c **** }
  58              		.loc 1 159 1 view .LVU12
  59              		@ sp needed
  60              	.LVL4:
  61              		.loc 1 159 1 view .LVU13
  62 0012 10BD     		pop	{r4, pc}
  63              	.LVL5:
  64              	.L3:
 147:..\..\..\BSP\OS\uCOS-II/bsp_os.c ****         return (DEF_FAIL);
  65              		.loc 1 147 16 view .LVU14
  66 0014 0020     		movs	r0, #0
  67              	.LVL6:
 147:..\..\..\BSP\OS\uCOS-II/bsp_os.c ****         return (DEF_FAIL);
ARM GAS  C:\Users\EDULU~1.DES\AppData\Local\Temp\cceod9Md.s 			page 5


  68              		.loc 1 147 16 view .LVU15
  69 0016 FCE7     		b	.L2
  70              		.cfi_endproc
  71              	.LFE3:
  72              		.size	BSP_OS_SemCreate, .-BSP_OS_SemCreate
  73              		.global	__aeabi_uidiv
  74              		.section	.text.BSP_OS_SemWait,"ax",%progbits
  75              		.align	1
  76              		.global	BSP_OS_SemWait
  77              		.syntax unified
  78              		.code	16
  79              		.thumb_func
  80              		.fpu softvfp
  81              		.type	BSP_OS_SemWait, %function
  82              	BSP_OS_SemWait:
  83              	.LVL7:
  84              	.LFB4:
 160:..\..\..\BSP\OS\uCOS-II/bsp_os.c **** 
 161:..\..\..\BSP\OS\uCOS-II/bsp_os.c **** 
 162:..\..\..\BSP\OS\uCOS-II/bsp_os.c **** /*
 163:..\..\..\BSP\OS\uCOS-II/bsp_os.c **** ***************************************************************************************************
 164:..\..\..\BSP\OS\uCOS-II/bsp_os.c **** *                                     BSP_OS_SemWait()
 165:..\..\..\BSP\OS\uCOS-II/bsp_os.c **** *
 166:..\..\..\BSP\OS\uCOS-II/bsp_os.c **** * Description : Wait on a semaphore to become available
 167:..\..\..\BSP\OS\uCOS-II/bsp_os.c **** *
 168:..\..\..\BSP\OS\uCOS-II/bsp_os.c **** * Argument(s) : p_sem        Pointer to the sempahore handler.
 169:..\..\..\BSP\OS\uCOS-II/bsp_os.c **** *
 170:..\..\..\BSP\OS\uCOS-II/bsp_os.c **** *               dly_ms       delay in miliseconds to wait on the semaphore
 171:..\..\..\BSP\OS\uCOS-II/bsp_os.c **** *
 172:..\..\..\BSP\OS\uCOS-II/bsp_os.c **** * Return(s)   : error code return     DEF_OK       if the semaphore was acquire
 173:..\..\..\BSP\OS\uCOS-II/bsp_os.c **** *                                     DEF_FAIL     if the sempahore could not be acquire
 174:..\..\..\BSP\OS\uCOS-II/bsp_os.c **** *
 175:..\..\..\BSP\OS\uCOS-II/bsp_os.c **** * Caller(s)   : Application.
 176:..\..\..\BSP\OS\uCOS-II/bsp_os.c **** *
 177:..\..\..\BSP\OS\uCOS-II/bsp_os.c **** * Note(s)     : none.
 178:..\..\..\BSP\OS\uCOS-II/bsp_os.c **** ***************************************************************************************************
 179:..\..\..\BSP\OS\uCOS-II/bsp_os.c **** */
 180:..\..\..\BSP\OS\uCOS-II/bsp_os.c **** 
 181:..\..\..\BSP\OS\uCOS-II/bsp_os.c **** CPU_BOOLEAN  BSP_OS_SemWait (BSP_OS_SEM  *p_sem,
 182:..\..\..\BSP\OS\uCOS-II/bsp_os.c ****                              CPU_INT32U   dly_ms)
 183:..\..\..\BSP\OS\uCOS-II/bsp_os.c **** {
  85              		.loc 1 183 1 is_stmt 1 view -0
  86              		.cfi_startproc
  87              		@ args = 0, pretend = 0, frame = 8
  88              		@ frame_needed = 0, uses_anonymous_args = 0
  89              		.loc 1 183 1 is_stmt 0 view .LVU17
  90 0000 30B5     		push	{r4, r5, lr}
  91              		.cfi_def_cfa_offset 12
  92              		.cfi_offset 4, -12
  93              		.cfi_offset 5, -8
  94              		.cfi_offset 14, -4
  95 0002 83B0     		sub	sp, sp, #12
  96              		.cfi_def_cfa_offset 24
  97 0004 0500     		movs	r5, r0
 184:..\..\..\BSP\OS\uCOS-II/bsp_os.c ****     CPU_INT08U  os_err;
  98              		.loc 1 184 5 is_stmt 1 view .LVU18
 185:..\..\..\BSP\OS\uCOS-II/bsp_os.c ****     CPU_INT32U  dly_ticks;
ARM GAS  C:\Users\EDULU~1.DES\AppData\Local\Temp\cceod9Md.s 			page 6


  99              		.loc 1 185 5 view .LVU19
 186:..\..\..\BSP\OS\uCOS-II/bsp_os.c **** 
 187:..\..\..\BSP\OS\uCOS-II/bsp_os.c **** 
 188:..\..\..\BSP\OS\uCOS-II/bsp_os.c ****     dly_ticks  = ((dly_ms * DEF_TIME_NBR_mS_PER_SEC) / OS_TICKS_PER_SEC);
 100              		.loc 1 188 5 view .LVU20
 101              		.loc 1 188 27 is_stmt 0 view .LVU21
 102 0006 4B01     		lsls	r3, r1, #5
 103 0008 5B1A     		subs	r3, r3, r1
 104 000a 9B00     		lsls	r3, r3, #2
 105 000c 5918     		adds	r1, r3, r1
 106              	.LVL8:
 107              		.loc 1 188 27 view .LVU22
 108 000e C800     		lsls	r0, r1, #3
 109              	.LVL9:
 110              		.loc 1 188 16 view .LVU23
 111 0010 FA21     		movs	r1, #250
 112 0012 8900     		lsls	r1, r1, #2
 113 0014 FFF7FEFF 		bl	__aeabi_uidiv
 114              	.LVL10:
 115 0018 0100     		movs	r1, r0
 116              	.LVL11:
 189:..\..\..\BSP\OS\uCOS-II/bsp_os.c **** 
 190:..\..\..\BSP\OS\uCOS-II/bsp_os.c ****     OSSemPend(*p_sem,
 117              		.loc 1 190 5 is_stmt 1 view .LVU24
 118 001a 6B46     		mov	r3, sp
 119 001c DC1D     		adds	r4, r3, #7
 120 001e 2868     		ldr	r0, [r5]
 121              	.LVL12:
 122              		.loc 1 190 5 is_stmt 0 view .LVU25
 123 0020 2200     		movs	r2, r4
 124 0022 FFF7FEFF 		bl	OSSemPend
 125              	.LVL13:
 191:..\..\..\BSP\OS\uCOS-II/bsp_os.c ****                dly_ticks,
 192:..\..\..\BSP\OS\uCOS-II/bsp_os.c ****               &os_err);
 193:..\..\..\BSP\OS\uCOS-II/bsp_os.c **** 
 194:..\..\..\BSP\OS\uCOS-II/bsp_os.c ****     if (os_err != OS_ERR_NONE) {
 126              		.loc 1 194 5 is_stmt 1 view .LVU26
 127              		.loc 1 194 16 is_stmt 0 view .LVU27
 128 0026 2378     		ldrb	r3, [r4]
 129              		.loc 1 194 8 view .LVU28
 130 0028 002B     		cmp	r3, #0
 131 002a 02D1     		bne	.L6
 195:..\..\..\BSP\OS\uCOS-II/bsp_os.c ****        return (DEF_FAIL);
 196:..\..\..\BSP\OS\uCOS-II/bsp_os.c ****     }
 197:..\..\..\BSP\OS\uCOS-II/bsp_os.c **** 
 198:..\..\..\BSP\OS\uCOS-II/bsp_os.c ****     return (DEF_OK);
 132              		.loc 1 198 12 view .LVU29
 133 002c 0120     		movs	r0, #1
 134              	.L5:
 199:..\..\..\BSP\OS\uCOS-II/bsp_os.c **** }
 135              		.loc 1 199 1 view .LVU30
 136 002e 03B0     		add	sp, sp, #12
 137              		@ sp needed
 138              	.LVL14:
 139              		.loc 1 199 1 view .LVU31
 140 0030 30BD     		pop	{r4, r5, pc}
 141              	.LVL15:
ARM GAS  C:\Users\EDULU~1.DES\AppData\Local\Temp\cceod9Md.s 			page 7


 142              	.L6:
 195:..\..\..\BSP\OS\uCOS-II/bsp_os.c ****        return (DEF_FAIL);
 143              		.loc 1 195 15 view .LVU32
 144 0032 0020     		movs	r0, #0
 145 0034 FBE7     		b	.L5
 146              		.cfi_endproc
 147              	.LFE4:
 148              		.size	BSP_OS_SemWait, .-BSP_OS_SemWait
 149              		.section	.text.BSP_OS_SemPost,"ax",%progbits
 150              		.align	1
 151              		.global	BSP_OS_SemPost
 152              		.syntax unified
 153              		.code	16
 154              		.thumb_func
 155              		.fpu softvfp
 156              		.type	BSP_OS_SemPost, %function
 157              	BSP_OS_SemPost:
 158              	.LVL16:
 159              	.LFB5:
 200:..\..\..\BSP\OS\uCOS-II/bsp_os.c **** 
 201:..\..\..\BSP\OS\uCOS-II/bsp_os.c **** /*
 202:..\..\..\BSP\OS\uCOS-II/bsp_os.c **** ***************************************************************************************************
 203:..\..\..\BSP\OS\uCOS-II/bsp_os.c **** *                                      BSP_OS_SemCreate()
 204:..\..\..\BSP\OS\uCOS-II/bsp_os.c **** *
 205:..\..\..\BSP\OS\uCOS-II/bsp_os.c **** * Description : Post a semaphore
 206:..\..\..\BSP\OS\uCOS-II/bsp_os.c **** *
 207:..\..\..\BSP\OS\uCOS-II/bsp_os.c **** * Argument(s) : p_sem                 Pointer to the Semaphore handler.
 208:..\..\..\BSP\OS\uCOS-II/bsp_os.c **** *
 209:..\..\..\BSP\OS\uCOS-II/bsp_os.c **** * Return(s)   : error code return     DEF_OK     if the semaphore was posted.
 210:..\..\..\BSP\OS\uCOS-II/bsp_os.c **** *                                     DEF_FAIL   if the sempahore could not be posted.
 211:..\..\..\BSP\OS\uCOS-II/bsp_os.c **** *
 212:..\..\..\BSP\OS\uCOS-II/bsp_os.c **** * Caller(s)   : Application.
 213:..\..\..\BSP\OS\uCOS-II/bsp_os.c **** *
 214:..\..\..\BSP\OS\uCOS-II/bsp_os.c **** * Note(s)     : none.
 215:..\..\..\BSP\OS\uCOS-II/bsp_os.c **** ***************************************************************************************************
 216:..\..\..\BSP\OS\uCOS-II/bsp_os.c **** */
 217:..\..\..\BSP\OS\uCOS-II/bsp_os.c **** 
 218:..\..\..\BSP\OS\uCOS-II/bsp_os.c **** CPU_BOOLEAN  BSP_OS_SemPost (BSP_OS_SEM  *p_sem)
 219:..\..\..\BSP\OS\uCOS-II/bsp_os.c **** {
 160              		.loc 1 219 1 is_stmt 1 view -0
 161              		.cfi_startproc
 162              		@ args = 0, pretend = 0, frame = 0
 163              		@ frame_needed = 0, uses_anonymous_args = 0
 164              		.loc 1 219 1 is_stmt 0 view .LVU34
 165 0000 10B5     		push	{r4, lr}
 166              		.cfi_def_cfa_offset 8
 167              		.cfi_offset 4, -8
 168              		.cfi_offset 14, -4
 220:..\..\..\BSP\OS\uCOS-II/bsp_os.c ****     CPU_INT08U  os_err;
 169              		.loc 1 220 5 is_stmt 1 view .LVU35
 221:..\..\..\BSP\OS\uCOS-II/bsp_os.c **** 
 222:..\..\..\BSP\OS\uCOS-II/bsp_os.c **** 
 223:..\..\..\BSP\OS\uCOS-II/bsp_os.c ****     os_err = OSSemPost(*p_sem);
 170              		.loc 1 223 5 view .LVU36
 171              		.loc 1 223 14 is_stmt 0 view .LVU37
 172 0002 0068     		ldr	r0, [r0]
 173              	.LVL17:
ARM GAS  C:\Users\EDULU~1.DES\AppData\Local\Temp\cceod9Md.s 			page 8


 174              		.loc 1 223 14 view .LVU38
 175 0004 FFF7FEFF 		bl	OSSemPost
 176              	.LVL18:
 224:..\..\..\BSP\OS\uCOS-II/bsp_os.c **** 
 225:..\..\..\BSP\OS\uCOS-II/bsp_os.c ****     if (os_err != OS_ERR_NONE) {
 177              		.loc 1 225 5 is_stmt 1 view .LVU39
 178              		.loc 1 225 8 is_stmt 0 view .LVU40
 179 0008 0028     		cmp	r0, #0
 180 000a 01D1     		bne	.L9
 226:..\..\..\BSP\OS\uCOS-II/bsp_os.c ****         return (DEF_FAIL);
 227:..\..\..\BSP\OS\uCOS-II/bsp_os.c ****     }
 228:..\..\..\BSP\OS\uCOS-II/bsp_os.c **** 
 229:..\..\..\BSP\OS\uCOS-II/bsp_os.c ****     return (DEF_OK);
 181              		.loc 1 229 12 view .LVU41
 182 000c 0130     		adds	r0, r0, #1
 183              	.LVL19:
 184              	.L8:
 230:..\..\..\BSP\OS\uCOS-II/bsp_os.c **** }
 185              		.loc 1 230 1 view .LVU42
 186              		@ sp needed
 187 000e 10BD     		pop	{r4, pc}
 188              	.LVL20:
 189              	.L9:
 226:..\..\..\BSP\OS\uCOS-II/bsp_os.c ****         return (DEF_FAIL);
 190              		.loc 1 226 16 view .LVU43
 191 0010 0020     		movs	r0, #0
 192              	.LVL21:
 226:..\..\..\BSP\OS\uCOS-II/bsp_os.c ****         return (DEF_FAIL);
 193              		.loc 1 226 16 view .LVU44
 194 0012 FCE7     		b	.L8
 195              		.cfi_endproc
 196              	.LFE5:
 197              		.size	BSP_OS_SemPost, .-BSP_OS_SemPost
 198              		.global	__aeabi_uidivmod
 199              		.section	.text.BSP_OS_TimeDlyMs,"ax",%progbits
 200              		.align	1
 201              		.global	BSP_OS_TimeDlyMs
 202              		.syntax unified
 203              		.code	16
 204              		.thumb_func
 205              		.fpu softvfp
 206              		.type	BSP_OS_TimeDlyMs, %function
 207              	BSP_OS_TimeDlyMs:
 208              	.LVL22:
 209              	.LFB6:
 231:..\..\..\BSP\OS\uCOS-II/bsp_os.c **** 
 232:..\..\..\BSP\OS\uCOS-II/bsp_os.c **** 
 233:..\..\..\BSP\OS\uCOS-II/bsp_os.c **** 
 234:..\..\..\BSP\OS\uCOS-II/bsp_os.c **** /*
 235:..\..\..\BSP\OS\uCOS-II/bsp_os.c **** ***************************************************************************************************
 236:..\..\..\BSP\OS\uCOS-II/bsp_os.c **** ***************************************************************************************************
 237:..\..\..\BSP\OS\uCOS-II/bsp_os.c **** **                                     uC/OS-II TIMER FUNCTIONS
 238:..\..\..\BSP\OS\uCOS-II/bsp_os.c **** ***************************************************************************************************
 239:..\..\..\BSP\OS\uCOS-II/bsp_os.c **** ***************************************************************************************************
 240:..\..\..\BSP\OS\uCOS-II/bsp_os.c **** */
 241:..\..\..\BSP\OS\uCOS-II/bsp_os.c **** 
 242:..\..\..\BSP\OS\uCOS-II/bsp_os.c **** /*
ARM GAS  C:\Users\EDULU~1.DES\AppData\Local\Temp\cceod9Md.s 			page 9


 243:..\..\..\BSP\OS\uCOS-II/bsp_os.c **** ***************************************************************************************************
 244:..\..\..\BSP\OS\uCOS-II/bsp_os.c **** *                                    BSP_TimeDlyMs()
 245:..\..\..\BSP\OS\uCOS-II/bsp_os.c **** *
 246:..\..\..\BSP\OS\uCOS-II/bsp_os.c **** * Description : This function delay the exceution for specifi amount of miliseconds
 247:..\..\..\BSP\OS\uCOS-II/bsp_os.c **** *
 248:..\..\..\BSP\OS\uCOS-II/bsp_os.c **** * Argument(s) : dly_ms       Delay in miliseconds
 249:..\..\..\BSP\OS\uCOS-II/bsp_os.c **** *
 250:..\..\..\BSP\OS\uCOS-II/bsp_os.c **** * Return(s)   : none.
 251:..\..\..\BSP\OS\uCOS-II/bsp_os.c **** *
 252:..\..\..\BSP\OS\uCOS-II/bsp_os.c **** * Caller(s)   : Application
 253:..\..\..\BSP\OS\uCOS-II/bsp_os.c **** *
 254:..\..\..\BSP\OS\uCOS-II/bsp_os.c **** * Note(s)     : none.
 255:..\..\..\BSP\OS\uCOS-II/bsp_os.c **** *
 256:..\..\..\BSP\OS\uCOS-II/bsp_os.c **** ***************************************************************************************************
 257:..\..\..\BSP\OS\uCOS-II/bsp_os.c **** */
 258:..\..\..\BSP\OS\uCOS-II/bsp_os.c **** 
 259:..\..\..\BSP\OS\uCOS-II/bsp_os.c **** void  BSP_OS_TimeDlyMs (CPU_INT32U  dly_ms)
 260:..\..\..\BSP\OS\uCOS-II/bsp_os.c **** {
 210              		.loc 1 260 1 is_stmt 1 view -0
 211              		.cfi_startproc
 212              		@ args = 0, pretend = 0, frame = 0
 213              		@ frame_needed = 0, uses_anonymous_args = 0
 214              		.loc 1 260 1 is_stmt 0 view .LVU46
 215 0000 70B5     		push	{r4, r5, r6, lr}
 216              		.cfi_def_cfa_offset 16
 217              		.cfi_offset 4, -16
 218              		.cfi_offset 5, -12
 219              		.cfi_offset 6, -8
 220              		.cfi_offset 14, -4
 221 0002 0400     		movs	r4, r0
 261:..\..\..\BSP\OS\uCOS-II/bsp_os.c ****     CPU_INT16U  os_ms;
 222              		.loc 1 261 5 is_stmt 1 view .LVU47
 262:..\..\..\BSP\OS\uCOS-II/bsp_os.c ****     CPU_INT08U  os_sec;
 223              		.loc 1 262 5 view .LVU48
 263:..\..\..\BSP\OS\uCOS-II/bsp_os.c **** 
 264:..\..\..\BSP\OS\uCOS-II/bsp_os.c **** 
 265:..\..\..\BSP\OS\uCOS-II/bsp_os.c ****     if (dly_ms > 10000u) {                                       /* Limit delays to 10 seconds.    
 224              		.loc 1 265 5 view .LVU49
 225              		.loc 1 265 8 is_stmt 0 view .LVU50
 226 0004 0D4B     		ldr	r3, .L15
 227 0006 9842     		cmp	r0, r3
 228 0008 05D8     		bhi	.L14
 266:..\..\..\BSP\OS\uCOS-II/bsp_os.c ****         dly_ms = 10000u;
 267:..\..\..\BSP\OS\uCOS-II/bsp_os.c ****     }
 268:..\..\..\BSP\OS\uCOS-II/bsp_os.c **** 
 269:..\..\..\BSP\OS\uCOS-II/bsp_os.c ****     if (dly_ms >= 1000u) {
 229              		.loc 1 269 5 is_stmt 1 view .LVU51
 230              		.loc 1 269 8 is_stmt 0 view .LVU52
 231 000a 0D4B     		ldr	r3, .L15+4
 232 000c 9842     		cmp	r0, r3
 233 000e 03D8     		bhi	.L11
 270:..\..\..\BSP\OS\uCOS-II/bsp_os.c ****         os_sec = dly_ms / 1000u;
 271:..\..\..\BSP\OS\uCOS-II/bsp_os.c ****         os_ms  = dly_ms % 1000u;
 272:..\..\..\BSP\OS\uCOS-II/bsp_os.c ****     } else {
 273:..\..\..\BSP\OS\uCOS-II/bsp_os.c ****         os_ms  = dly_ms;
 234              		.loc 1 273 9 is_stmt 1 view .LVU53
 235              		.loc 1 273 16 is_stmt 0 view .LVU54
ARM GAS  C:\Users\EDULU~1.DES\AppData\Local\Temp\cceod9Md.s 			page 10


 236 0010 83B2     		uxth	r3, r0
 237              	.LVL23:
 274:..\..\..\BSP\OS\uCOS-II/bsp_os.c ****         os_sec = 0u;
 238              		.loc 1 274 9 is_stmt 1 view .LVU55
 239              		.loc 1 274 16 is_stmt 0 view .LVU56
 240 0012 0025     		movs	r5, #0
 241 0014 0CE0     		b	.L13
 242              	.LVL24:
 243              	.L14:
 266:..\..\..\BSP\OS\uCOS-II/bsp_os.c ****         dly_ms = 10000u;
 244              		.loc 1 266 16 view .LVU57
 245 0016 094C     		ldr	r4, .L15
 246              	.L11:
 270:..\..\..\BSP\OS\uCOS-II/bsp_os.c ****         os_sec = dly_ms / 1000u;
 247              		.loc 1 270 9 is_stmt 1 view .LVU58
 270:..\..\..\BSP\OS\uCOS-II/bsp_os.c ****         os_sec = dly_ms / 1000u;
 248              		.loc 1 270 25 is_stmt 0 view .LVU59
 249 0018 FA21     		movs	r1, #250
 250 001a 8900     		lsls	r1, r1, #2
 251 001c 2000     		movs	r0, r4
 252              	.LVL25:
 270:..\..\..\BSP\OS\uCOS-II/bsp_os.c ****         os_sec = dly_ms / 1000u;
 253              		.loc 1 270 25 view .LVU60
 254 001e FFF7FEFF 		bl	__aeabi_uidiv
 255              	.LVL26:
 270:..\..\..\BSP\OS\uCOS-II/bsp_os.c ****         os_sec = dly_ms / 1000u;
 256              		.loc 1 270 16 view .LVU61
 257 0022 C5B2     		uxtb	r5, r0
 258              	.LVL27:
 271:..\..\..\BSP\OS\uCOS-II/bsp_os.c ****     } else {
 259              		.loc 1 271 9 is_stmt 1 view .LVU62
 271:..\..\..\BSP\OS\uCOS-II/bsp_os.c ****     } else {
 260              		.loc 1 271 25 is_stmt 0 view .LVU63
 261 0024 FA21     		movs	r1, #250
 262 0026 8900     		lsls	r1, r1, #2
 263 0028 2000     		movs	r0, r4
 264 002a FFF7FEFF 		bl	__aeabi_uidivmod
 265              	.LVL28:
 271:..\..\..\BSP\OS\uCOS-II/bsp_os.c ****     } else {
 266              		.loc 1 271 16 view .LVU64
 267 002e 8BB2     		uxth	r3, r1
 268              	.LVL29:
 269              	.L13:
 275:..\..\..\BSP\OS\uCOS-II/bsp_os.c ****     }
 276:..\..\..\BSP\OS\uCOS-II/bsp_os.c **** 
 277:..\..\..\BSP\OS\uCOS-II/bsp_os.c ****     OSTimeDlyHMSM(0u, 0u, os_sec, os_ms);
 270              		.loc 1 277 5 is_stmt 1 view .LVU65
 271 0030 2A00     		movs	r2, r5
 272 0032 0021     		movs	r1, #0
 273 0034 0020     		movs	r0, #0
 274 0036 FFF7FEFF 		bl	OSTimeDlyHMSM
 275              	.LVL30:
 278:..\..\..\BSP\OS\uCOS-II/bsp_os.c **** }
 276              		.loc 1 278 1 is_stmt 0 view .LVU66
 277              		@ sp needed
 278              	.LVL31:
 279              		.loc 1 278 1 view .LVU67
ARM GAS  C:\Users\EDULU~1.DES\AppData\Local\Temp\cceod9Md.s 			page 11


 280 003a 70BD     		pop	{r4, r5, r6, pc}
 281              	.L16:
 282              		.align	2
 283              	.L15:
 284 003c 10270000 		.word	10000
 285 0040 E7030000 		.word	999
 286              		.cfi_endproc
 287              	.LFE6:
 288              		.size	BSP_OS_TimeDlyMs, .-BSP_OS_TimeDlyMs
 289              		.section	.text.BSP_OS_TimeDly,"ax",%progbits
 290              		.align	1
 291              		.global	BSP_OS_TimeDly
 292              		.syntax unified
 293              		.code	16
 294              		.thumb_func
 295              		.fpu softvfp
 296              		.type	BSP_OS_TimeDly, %function
 297              	BSP_OS_TimeDly:
 298              	.LVL32:
 299              	.LFB7:
 279:..\..\..\BSP\OS\uCOS-II/bsp_os.c **** 
 280:..\..\..\BSP\OS\uCOS-II/bsp_os.c **** /*
 281:..\..\..\BSP\OS\uCOS-II/bsp_os.c **** ***************************************************************************************************
 282:..\..\..\BSP\OS\uCOS-II/bsp_os.c **** *                                    BSP_TimeDlyMs()
 283:..\..\..\BSP\OS\uCOS-II/bsp_os.c **** *
 284:..\..\..\BSP\OS\uCOS-II/bsp_os.c **** * Description : This function delay the exceution for specifi amount of miliseconds
 285:..\..\..\BSP\OS\uCOS-II/bsp_os.c **** *
 286:..\..\..\BSP\OS\uCOS-II/bsp_os.c **** * Argument(s) : dly_ms       Delay in miliseconds
 287:..\..\..\BSP\OS\uCOS-II/bsp_os.c **** *
 288:..\..\..\BSP\OS\uCOS-II/bsp_os.c **** * Return(s)   : none.
 289:..\..\..\BSP\OS\uCOS-II/bsp_os.c **** *
 290:..\..\..\BSP\OS\uCOS-II/bsp_os.c **** * Caller(s)   : Application
 291:..\..\..\BSP\OS\uCOS-II/bsp_os.c **** *
 292:..\..\..\BSP\OS\uCOS-II/bsp_os.c **** * Note(s)     : none.
 293:..\..\..\BSP\OS\uCOS-II/bsp_os.c **** *
 294:..\..\..\BSP\OS\uCOS-II/bsp_os.c **** ***************************************************************************************************
 295:..\..\..\BSP\OS\uCOS-II/bsp_os.c **** */
 296:..\..\..\BSP\OS\uCOS-II/bsp_os.c **** 
 297:..\..\..\BSP\OS\uCOS-II/bsp_os.c **** void  BSP_OS_TimeDly (CPU_INT32U  dly_tick)
 298:..\..\..\BSP\OS\uCOS-II/bsp_os.c **** {
 300              		.loc 1 298 1 is_stmt 1 view -0
 301              		.cfi_startproc
 302              		@ args = 0, pretend = 0, frame = 0
 303              		@ frame_needed = 0, uses_anonymous_args = 0
 304              		.loc 1 298 1 is_stmt 0 view .LVU69
 305 0000 10B5     		push	{r4, lr}
 306              		.cfi_def_cfa_offset 8
 307              		.cfi_offset 4, -8
 308              		.cfi_offset 14, -4
 299:..\..\..\BSP\OS\uCOS-II/bsp_os.c ****     OSTimeDly(dly_tick);
 309              		.loc 1 299 5 is_stmt 1 view .LVU70
 310 0002 FFF7FEFF 		bl	OSTimeDly
 311              	.LVL33:
 300:..\..\..\BSP\OS\uCOS-II/bsp_os.c **** }
 312              		.loc 1 300 1 is_stmt 0 view .LVU71
 313              		@ sp needed
 314 0006 10BD     		pop	{r4, pc}
ARM GAS  C:\Users\EDULU~1.DES\AppData\Local\Temp\cceod9Md.s 			page 12


 315              		.cfi_endproc
 316              	.LFE7:
 317              		.size	BSP_OS_TimeDly, .-BSP_OS_TimeDly
 318              		.text
 319              	.Letext0:
 320              		.file 2 "c:\\program files (x86)\\gnu tools arm embedded\\8 2018-q4-major\\arm-none-eabi\\include\
 321              		.file 3 "c:\\program files (x86)\\gnu tools arm embedded\\8 2018-q4-major\\arm-none-eabi\\include\
 322              		.file 4 "c:\\program files (x86)\\gnu tools arm embedded\\8 2018-q4-major\\lib\\gcc\\arm-none-eabi
 323              		.file 5 "c:\\program files (x86)\\gnu tools arm embedded\\8 2018-q4-major\\arm-none-eabi\\include\
 324              		.file 6 "..\\..\\..\\..\\..\\..\\Software\\uCOS-II\\Ports\\ARM-Cortex-M0\\Generic\\GNU/os_cpu.h"
 325              		.file 7 "..\\..\\..\\..\\..\\..\\Software\\uCOS-II\\Source/ucos_ii.h"
 326              		.file 8 "..\\..\\..\\..\\..\\..\\Software\\uC-CPU\\ARM-Cortex-M0\\GNU/cpu.h"
 327              		.file 9 "..\\..\\..\\BSP\\OS\\uCOS-II/bsp_os.h"
 328              		.file 10 "Generated_Source\\PSoC4/cytypes.h"
 329              		.file 11 "c:\\program files (x86)\\gnu tools arm embedded\\8 2018-q4-major\\arm-none-eabi\\include
 330              		.file 12 "Generated_Source\\PSoC4/CyLib.h"
 331              		.file 13 "Generated_Source\\PSoC4/PWM_Red.h"
 332              		.file 14 "Generated_Source\\PSoC4/PWM_Green.h"
 333              		.file 15 "Generated_Source\\PSoC4/PWM_Blue.h"
 334              		.file 16 "Generated_Source\\PSoC4/Temp_Sensor.h"
 335              		.file 17 "Generated_Source\\PSoC4/ADC.h"
 336              		.file 18 "Generated_Source\\PSoC4/Opamp.h"
 337              		.file 19 "Generated_Source\\PSoC4/I2C.h"