ARM GAS  C:\Users\EDULU~1.DES\AppData\Local\Temp\cc0Y6APw.s 			page 1


   1              		.cpu cortex-m0
   2              		.eabi_attribute 20, 1
   3              		.eabi_attribute 21, 1
   4              		.eabi_attribute 23, 3
   5              		.eabi_attribute 24, 1
   6              		.eabi_attribute 25, 1
   7              		.eabi_attribute 26, 1
   8              		.eabi_attribute 30, 1
   9              		.eabi_attribute 34, 0
  10              		.eabi_attribute 18, 4
  11              		.file	"CyLFClk.c"
  12              		.text
  13              	.Ltext0:
  14              		.cfi_sections	.debug_frame
  15              		.section	.text.CySysClkIloEnabled,"ax",%progbits
  16              		.align	1
  17              		.arch armv6s-m
  18              		.syntax unified
  19              		.code	16
  20              		.thumb_func
  21              		.fpu softvfp
  22              		.type	CySysClkIloEnabled, %function
  23              	CySysClkIloEnabled:
  24              	.LFB5:
  25              		.file 1 "Generated_Source\\PSoC4\\CyLFClk.c"
   1:Generated_Source\PSoC4/CyLFClk.c **** /***************************************************************************//**
   2:Generated_Source\PSoC4/CyLFClk.c **** * \file .c
   3:Generated_Source\PSoC4/CyLFClk.c **** * \version 1.20
   4:Generated_Source\PSoC4/CyLFClk.c **** *
   5:Generated_Source\PSoC4/CyLFClk.c **** * \brief
   6:Generated_Source\PSoC4/CyLFClk.c **** *  This file provides the source code for configuring watchdog timers WDTs, 
   7:Generated_Source\PSoC4/CyLFClk.c **** *  low frequency clocks (LFCLK) and the Real-time Clock (RTC) component in
   8:Generated_Source\PSoC4/CyLFClk.c **** *  PSoC Creator for the PSoC 4 families.
   9:Generated_Source\PSoC4/CyLFClk.c **** *
  10:Generated_Source\PSoC4/CyLFClk.c **** ********************************************************************************
  11:Generated_Source\PSoC4/CyLFClk.c **** * \copyright
  12:Generated_Source\PSoC4/CyLFClk.c **** * Copyright 2008-2017, Cypress Semiconductor Corporation.  All rights reserved.
  13:Generated_Source\PSoC4/CyLFClk.c **** * You may use this file only in accordance with the license, terms, conditions,
  14:Generated_Source\PSoC4/CyLFClk.c **** * disclaimers, and limitations in the end user license agreement accompanying
  15:Generated_Source\PSoC4/CyLFClk.c **** * the software package with which this file was provided.
  16:Generated_Source\PSoC4/CyLFClk.c **** *******************************************************************************/
  17:Generated_Source\PSoC4/CyLFClk.c **** 
  18:Generated_Source\PSoC4/CyLFClk.c **** 
  19:Generated_Source\PSoC4/CyLFClk.c **** #include "CyLFClk.h"
  20:Generated_Source\PSoC4/CyLFClk.c **** #include "CyLib.h"
  21:Generated_Source\PSoC4/CyLFClk.c **** 
  22:Generated_Source\PSoC4/CyLFClk.c **** #if (CY_IP_WCO && CY_IP_SRSSV2)
  23:Generated_Source\PSoC4/CyLFClk.c ****     static uint32 CySysClkGetLfclkSource(void);
  24:Generated_Source\PSoC4/CyLFClk.c **** #endif /* (CY_IP_WCO && CY_IP_SRSSV2) */
  25:Generated_Source\PSoC4/CyLFClk.c **** 
  26:Generated_Source\PSoC4/CyLFClk.c **** 
  27:Generated_Source\PSoC4/CyLFClk.c **** #if(CY_IP_SRSSV2 && (!CY_IP_CPUSS))
  28:Generated_Source\PSoC4/CyLFClk.c ****     /* Default Ilo Trim Register value for ILO trimming*/
  29:Generated_Source\PSoC4/CyLFClk.c ****     static volatile uint16 defaultIloTrimRegValue = CY_SYS_CLK_ILO_TRIM_DEFAULT_VALUE;
  30:Generated_Source\PSoC4/CyLFClk.c **** #endif /* (CY_IP_SRSSV2 && (!CY_IP_CPUSS)) */
  31:Generated_Source\PSoC4/CyLFClk.c **** 
  32:Generated_Source\PSoC4/CyLFClk.c **** #if(CY_IP_SRSSV2)
ARM GAS  C:\Users\EDULU~1.DES\AppData\Local\Temp\cc0Y6APw.s 			page 2


  33:Generated_Source\PSoC4/CyLFClk.c ****     /* CySysClkLfclkPosedgeCatch() / CySysClkLfclkPosedgeRestore() */
  34:Generated_Source\PSoC4/CyLFClk.c ****     static uint32 lfclkPosedgeWdtCounter0Enabled = 0u;
  35:Generated_Source\PSoC4/CyLFClk.c ****     static uint32 lfclkPosedgeWdtCounter0Mode    = CY_SYS_WDT_MODE_NONE;
  36:Generated_Source\PSoC4/CyLFClk.c **** 
  37:Generated_Source\PSoC4/CyLFClk.c ****     static volatile uint32 disableServicedIsr = 0uL;
  38:Generated_Source\PSoC4/CyLFClk.c ****     static volatile uint32 wdtIsrMask = CY_SYS_WDT_COUNTER0_INT |\
  39:Generated_Source\PSoC4/CyLFClk.c ****                                         CY_SYS_WDT_COUNTER1_INT |\
  40:Generated_Source\PSoC4/CyLFClk.c ****                                         CY_SYS_WDT_COUNTER2_INT;
  41:Generated_Source\PSoC4/CyLFClk.c **** 
  42:Generated_Source\PSoC4/CyLFClk.c ****     static const uint32 counterIntMaskTbl[CY_WDT_NUM_OF_WDT] = {CY_SYS_WDT_COUNTER0_INT,
  43:Generated_Source\PSoC4/CyLFClk.c ****                                                                 CY_SYS_WDT_COUNTER1_INT,
  44:Generated_Source\PSoC4/CyLFClk.c ****                                                                 CY_SYS_WDT_COUNTER2_INT};
  45:Generated_Source\PSoC4/CyLFClk.c **** 
  46:Generated_Source\PSoC4/CyLFClk.c ****     static void CySysClkLfclkPosedgeCatch(void);
  47:Generated_Source\PSoC4/CyLFClk.c ****     static void CySysClkLfclkPosedgeRestore(void);
  48:Generated_Source\PSoC4/CyLFClk.c **** 
  49:Generated_Source\PSoC4/CyLFClk.c ****     static uint32 CySysWdtLocked(void);
  50:Generated_Source\PSoC4/CyLFClk.c ****     static uint32 CySysClkIloEnabled(void);
  51:Generated_Source\PSoC4/CyLFClk.c **** #endif /* (CY_IP_SRSSV2) */
  52:Generated_Source\PSoC4/CyLFClk.c **** 
  53:Generated_Source\PSoC4/CyLFClk.c **** #if (CY_IP_SRSSLT && CY_IP_WCO && CY_IP_WCO_WDT_EN)
  54:Generated_Source\PSoC4/CyLFClk.c ****     static uint32 CySysClkGetTimerSource(void);
  55:Generated_Source\PSoC4/CyLFClk.c ****     static volatile uint32 disableTimerServicedIsr = 0uL;
  56:Generated_Source\PSoC4/CyLFClk.c ****     static volatile uint32 timerIsrMask = CY_SYS_TIMER0_INT |\
  57:Generated_Source\PSoC4/CyLFClk.c ****                                           CY_SYS_TIMER1_INT |\
  58:Generated_Source\PSoC4/CyLFClk.c ****                                           CY_SYS_TIMER2_INT;
  59:Generated_Source\PSoC4/CyLFClk.c **** 
  60:Generated_Source\PSoC4/CyLFClk.c ****     static const uint32 counterTimerIntMaskTbl[CY_SYS_NUM_OF_TIMERS] = {CY_SYS_TIMER0_INT,
  61:Generated_Source\PSoC4/CyLFClk.c ****                                                                         CY_SYS_TIMER1_INT,
  62:Generated_Source\PSoC4/CyLFClk.c ****                                                                         CY_SYS_TIMER2_INT};
  63:Generated_Source\PSoC4/CyLFClk.c **** 
  64:Generated_Source\PSoC4/CyLFClk.c ****     static cyTimerCallback cySysTimerCallback[CY_SYS_NUM_OF_TIMERS] = {(void *)0, (void *)0, (void 
  65:Generated_Source\PSoC4/CyLFClk.c **** #endif /* (CY_IP_SRSSLT && CY_IP_WCO && CY_IP_WCO_DWT_EN) */
  66:Generated_Source\PSoC4/CyLFClk.c **** 
  67:Generated_Source\PSoC4/CyLFClk.c **** #if(CY_IP_SRSSV2)
  68:Generated_Source\PSoC4/CyLFClk.c ****     static cyWdtCallback cySysWdtCallback[CY_WDT_NUM_OF_WDT] = {(void *)0, (void *)0, (void *)0};
  69:Generated_Source\PSoC4/CyLFClk.c **** #else
  70:Generated_Source\PSoC4/CyLFClk.c ****     static cyWdtCallback cySysWdtCallback = (void *)0;
  71:Generated_Source\PSoC4/CyLFClk.c **** #endif /* (CY_IP_SRSSV2) */
  72:Generated_Source\PSoC4/CyLFClk.c **** 
  73:Generated_Source\PSoC4/CyLFClk.c **** 
  74:Generated_Source\PSoC4/CyLFClk.c **** /*******************************************************************************
  75:Generated_Source\PSoC4/CyLFClk.c **** * Function Name: CySysClkIloStart
  76:Generated_Source\PSoC4/CyLFClk.c **** ****************************************************************************//**
  77:Generated_Source\PSoC4/CyLFClk.c **** * \brief
  78:Generated_Source\PSoC4/CyLFClk.c **** *  Enables ILO.
  79:Generated_Source\PSoC4/CyLFClk.c **** *
  80:Generated_Source\PSoC4/CyLFClk.c **** *  Refer to the device datasheet for the ILO startup time.
  81:Generated_Source\PSoC4/CyLFClk.c **** *
  82:Generated_Source\PSoC4/CyLFClk.c **** *******************************************************************************/
  83:Generated_Source\PSoC4/CyLFClk.c **** void CySysClkIloStart(void)
  84:Generated_Source\PSoC4/CyLFClk.c **** {
  85:Generated_Source\PSoC4/CyLFClk.c ****     CY_SYS_CLK_ILO_CONFIG_REG |= CY_SYS_CLK_ILO_CONFIG_ENABLE;
  86:Generated_Source\PSoC4/CyLFClk.c **** }
  87:Generated_Source\PSoC4/CyLFClk.c **** 
  88:Generated_Source\PSoC4/CyLFClk.c **** 
  89:Generated_Source\PSoC4/CyLFClk.c **** /*******************************************************************************
ARM GAS  C:\Users\EDULU~1.DES\AppData\Local\Temp\cc0Y6APw.s 			page 3


  90:Generated_Source\PSoC4/CyLFClk.c **** * Function Name: CySysClkIloStop
  91:Generated_Source\PSoC4/CyLFClk.c **** ****************************************************************************//**
  92:Generated_Source\PSoC4/CyLFClk.c **** * \brief
  93:Generated_Source\PSoC4/CyLFClk.c **** *  Disables the ILO.
  94:Generated_Source\PSoC4/CyLFClk.c **** *
  95:Generated_Source\PSoC4/CyLFClk.c **** *  This function has no effect if WDT is locked (CySysWdtLock() is
  96:Generated_Source\PSoC4/CyLFClk.c **** *  called). Call CySysWdtUnlock() to unlock WDT and stop ILO.
  97:Generated_Source\PSoC4/CyLFClk.c **** *
  98:Generated_Source\PSoC4/CyLFClk.c **** *  PSoC 4100 / PSoC 4200: Note that ILO is required for WDT's operation.
  99:Generated_Source\PSoC4/CyLFClk.c **** *
 100:Generated_Source\PSoC4/CyLFClk.c **** *  PSoC 4100 BLE / PSoC 4200 BLE / PSoC 4200L / PSoC 4100M / 
 101:Generated_Source\PSoC4/CyLFClk.c **** *  PSoC 4200M:
 102:Generated_Source\PSoC4/CyLFClk.c **** *  Stopping ILO affects the peripheral clocked by LFCLK, if
 103:Generated_Source\PSoC4/CyLFClk.c **** *  LFCLK is configured to be sourced by ILO.
 104:Generated_Source\PSoC4/CyLFClk.c **** *
 105:Generated_Source\PSoC4/CyLFClk.c **** *  If the ILO is disabled, all blocks run by ILO will stop functioning.
 106:Generated_Source\PSoC4/CyLFClk.c **** *
 107:Generated_Source\PSoC4/CyLFClk.c **** *******************************************************************************/
 108:Generated_Source\PSoC4/CyLFClk.c **** void CySysClkIloStop(void)
 109:Generated_Source\PSoC4/CyLFClk.c **** {
 110:Generated_Source\PSoC4/CyLFClk.c ****     #if(CY_IP_SRSSV2)
 111:Generated_Source\PSoC4/CyLFClk.c ****         uint8  interruptState;
 112:Generated_Source\PSoC4/CyLFClk.c **** 
 113:Generated_Source\PSoC4/CyLFClk.c ****         /* Do nothing if WDT is locked or ILO is disabled */
 114:Generated_Source\PSoC4/CyLFClk.c ****         if (0u == CySysWdtLocked())
 115:Generated_Source\PSoC4/CyLFClk.c ****         {
 116:Generated_Source\PSoC4/CyLFClk.c ****             if (0u != CySysClkIloEnabled())
 117:Generated_Source\PSoC4/CyLFClk.c ****             {
 118:Generated_Source\PSoC4/CyLFClk.c **** 
 119:Generated_Source\PSoC4/CyLFClk.c ****             #if (CY_IP_WCO)
 120:Generated_Source\PSoC4/CyLFClk.c ****                 if (CY_SYS_CLK_LFCLK_SRC_ILO == CySysClkGetLfclkSource())
 121:Generated_Source\PSoC4/CyLFClk.c ****                 {
 122:Generated_Source\PSoC4/CyLFClk.c ****             #endif /* (CY_IP_WCO) */
 123:Generated_Source\PSoC4/CyLFClk.c **** 
 124:Generated_Source\PSoC4/CyLFClk.c ****                 interruptState = CyEnterCriticalSection();
 125:Generated_Source\PSoC4/CyLFClk.c ****                 CySysClkLfclkPosedgeCatch();
 126:Generated_Source\PSoC4/CyLFClk.c ****                 CY_SYS_CLK_ILO_CONFIG_REG &= (uint32) ( ~(uint32)CY_SYS_CLK_ILO_CONFIG_ENABLE);
 127:Generated_Source\PSoC4/CyLFClk.c ****                 CySysClkLfclkPosedgeRestore();
 128:Generated_Source\PSoC4/CyLFClk.c ****                 CyExitCriticalSection(interruptState);
 129:Generated_Source\PSoC4/CyLFClk.c **** 
 130:Generated_Source\PSoC4/CyLFClk.c ****             #if (CY_IP_WCO)
 131:Generated_Source\PSoC4/CyLFClk.c ****                 }
 132:Generated_Source\PSoC4/CyLFClk.c ****                 else /* Safe to disable - shortened pulse does not impact peripheral */
 133:Generated_Source\PSoC4/CyLFClk.c ****                 {
 134:Generated_Source\PSoC4/CyLFClk.c ****                     CY_SYS_CLK_ILO_CONFIG_REG &= (uint32) ( ~(uint32)CY_SYS_CLK_ILO_CONFIG_ENABLE);
 135:Generated_Source\PSoC4/CyLFClk.c ****                 }
 136:Generated_Source\PSoC4/CyLFClk.c ****             #endif /* (CY_IP_WCO) */
 137:Generated_Source\PSoC4/CyLFClk.c **** 
 138:Generated_Source\PSoC4/CyLFClk.c ****             }
 139:Generated_Source\PSoC4/CyLFClk.c ****         }
 140:Generated_Source\PSoC4/CyLFClk.c ****     #else
 141:Generated_Source\PSoC4/CyLFClk.c ****         CY_SYS_CLK_ILO_CONFIG_REG &= ( uint32 ) ( ~( uint32 )CY_SYS_CLK_ILO_CONFIG_ENABLE);
 142:Generated_Source\PSoC4/CyLFClk.c ****     #endif /* (CY_IP_SRSSV2) */
 143:Generated_Source\PSoC4/CyLFClk.c **** }
 144:Generated_Source\PSoC4/CyLFClk.c **** 
 145:Generated_Source\PSoC4/CyLFClk.c **** 
 146:Generated_Source\PSoC4/CyLFClk.c **** /******************************************************************************
ARM GAS  C:\Users\EDULU~1.DES\AppData\Local\Temp\cc0Y6APw.s 			page 4


 147:Generated_Source\PSoC4/CyLFClk.c **** * Function Name: CySysClkIloStartMeasurement
 148:Generated_Source\PSoC4/CyLFClk.c **** ***************************************************************************//**
 149:Generated_Source\PSoC4/CyLFClk.c **** * \brief
 150:Generated_Source\PSoC4/CyLFClk.c **** * Starts the ILO accuracy measurement.
 151:Generated_Source\PSoC4/CyLFClk.c **** *
 152:Generated_Source\PSoC4/CyLFClk.c **** * This function is non-blocking and needs to be called before using the 
 153:Generated_Source\PSoC4/CyLFClk.c **** * CySysClkIloTrim() and CySysClkIloCompensate() API.
 154:Generated_Source\PSoC4/CyLFClk.c **** *
 155:Generated_Source\PSoC4/CyLFClk.c **** * This API configures measurement counters to be sourced by SysClk (Counter 1)
 156:Generated_Source\PSoC4/CyLFClk.c **** * and ILO (Counter 2). 
 157:Generated_Source\PSoC4/CyLFClk.c **** *
 158:Generated_Source\PSoC4/CyLFClk.c **** * \note SysClk should be sourced by IMO. Otherwise CySysClkIloTrim() and 
 159:Generated_Source\PSoC4/CyLFClk.c **** * CySysClkIloCompensate() API can give incorrect results.
 160:Generated_Source\PSoC4/CyLFClk.c **** *
 161:Generated_Source\PSoC4/CyLFClk.c **** * In addition, this API stores the factory ILO trim settings on the first call 
 162:Generated_Source\PSoC4/CyLFClk.c **** * after reset. This stored factory setting is used by the 
 163:Generated_Source\PSoC4/CyLFClk.c **** * CySysClkIloRestoreFactoryTrim() API to restore the ILO factory trim. 
 164:Generated_Source\PSoC4/CyLFClk.c **** * Hence, it is important to call this API before restoring the ILO 
 165:Generated_Source\PSoC4/CyLFClk.c **** * factory trim settings.
 166:Generated_Source\PSoC4/CyLFClk.c **** *
 167:Generated_Source\PSoC4/CyLFClk.c **** ******************************************************************************/
 168:Generated_Source\PSoC4/CyLFClk.c **** void CySysClkIloStartMeasurement(void)
 169:Generated_Source\PSoC4/CyLFClk.c **** {
 170:Generated_Source\PSoC4/CyLFClk.c **** #if(CY_IP_SRSSV2 && (!CY_IP_CPUSS))
 171:Generated_Source\PSoC4/CyLFClk.c ****     static uint8 iloTrimTrig = 0u;
 172:Generated_Source\PSoC4/CyLFClk.c **** 
 173:Generated_Source\PSoC4/CyLFClk.c ****     /* Write default ILO trim value while ILO starting ( Cypress ID 225244 )*/
 174:Generated_Source\PSoC4/CyLFClk.c ****     if (0u == iloTrimTrig)
 175:Generated_Source\PSoC4/CyLFClk.c ****     {
 176:Generated_Source\PSoC4/CyLFClk.c ****         defaultIloTrimRegValue = ((uint8)(CY_SYS_CLK_ILO_TRIM_REG & CY_SYS_CLK_ILO_TRIM_MASK));
 177:Generated_Source\PSoC4/CyLFClk.c ****         iloTrimTrig = 1u;
 178:Generated_Source\PSoC4/CyLFClk.c ****     }
 179:Generated_Source\PSoC4/CyLFClk.c **** #endif /* (CY_IP_SRSSV2 && (!CY_IP_CPUSS)) */
 180:Generated_Source\PSoC4/CyLFClk.c **** 
 181:Generated_Source\PSoC4/CyLFClk.c ****     /* Configure measurement counters to source by SysClk (Counter 1) and ILO (Counter 2)*/
 182:Generated_Source\PSoC4/CyLFClk.c ****     CY_SYS_CLK_DFT_REG = (CY_SYS_CLK_DFT_REG & (uint32) ~CY_SYS_CLK_DFT_SELECT_DEFAULT_MASK) |
 183:Generated_Source\PSoC4/CyLFClk.c ****                             CY_SYS_CLK_SEL_ILO_DFT_SOURCE; 
 184:Generated_Source\PSoC4/CyLFClk.c **** 
 185:Generated_Source\PSoC4/CyLFClk.c ****     CY_SYS_TST_DDFT_CTRL_REG = (CY_SYS_TST_DDFT_CTRL_REG & (uint32) ~ CY_SYS_TST_DDFT_CTRL_REG_DEFA
 186:Generated_Source\PSoC4/CyLFClk.c ****                             CY_SYS_TST_DDFT_CTRL_REG_SEL2_CLK1;
 187:Generated_Source\PSoC4/CyLFClk.c **** }
 188:Generated_Source\PSoC4/CyLFClk.c **** 
 189:Generated_Source\PSoC4/CyLFClk.c **** 
 190:Generated_Source\PSoC4/CyLFClk.c **** /******************************************************************************
 191:Generated_Source\PSoC4/CyLFClk.c **** * Function Name: CySysClkIloStopMeasurement
 192:Generated_Source\PSoC4/CyLFClk.c **** ***************************************************************************//**
 193:Generated_Source\PSoC4/CyLFClk.c **** * \brief
 194:Generated_Source\PSoC4/CyLFClk.c **** * Stops the ILO accuracy measurement.
 195:Generated_Source\PSoC4/CyLFClk.c **** *
 196:Generated_Source\PSoC4/CyLFClk.c **** * Calling this function immediately stops the the ILO frequency measurement.
 197:Generated_Source\PSoC4/CyLFClk.c **** * This function should be called before placing the device to deepsleep, if 
 198:Generated_Source\PSoC4/CyLFClk.c **** * CySysClkIloStartMeasurement() API was called before. 
 199:Generated_Source\PSoC4/CyLFClk.c **** *
 200:Generated_Source\PSoC4/CyLFClk.c **** ******************************************************************************/
 201:Generated_Source\PSoC4/CyLFClk.c **** void CySysClkIloStopMeasurement(void)
 202:Generated_Source\PSoC4/CyLFClk.c **** {
 203:Generated_Source\PSoC4/CyLFClk.c ****     /* Set default configurations in 11...8 DFT register bits to zero */
ARM GAS  C:\Users\EDULU~1.DES\AppData\Local\Temp\cc0Y6APw.s 			page 5


 204:Generated_Source\PSoC4/CyLFClk.c ****     CY_SYS_CLK_DFT_REG &= ~CY_SYS_CLK_DFT_SELECT_DEFAULT_MASK;
 205:Generated_Source\PSoC4/CyLFClk.c ****     #if(CY_IP_SRSSLT)
 206:Generated_Source\PSoC4/CyLFClk.c ****         CY_SYS_TST_DDFT_CTRL_REG &= ((uint32) CY_SYS_TST_DDFT_CTRL_REG_DEFAULT_MASK);
 207:Generated_Source\PSoC4/CyLFClk.c ****     #endif /* (CY_IP_SRSSLT) */
 208:Generated_Source\PSoC4/CyLFClk.c **** }
 209:Generated_Source\PSoC4/CyLFClk.c **** 
 210:Generated_Source\PSoC4/CyLFClk.c **** 
 211:Generated_Source\PSoC4/CyLFClk.c **** /******************************************************************************
 212:Generated_Source\PSoC4/CyLFClk.c **** * Function Name: CySysClkIloCompensate
 213:Generated_Source\PSoC4/CyLFClk.c **** ***************************************************************************//**
 214:Generated_Source\PSoC4/CyLFClk.c **** * \brief
 215:Generated_Source\PSoC4/CyLFClk.c **** * This API measures the current ILO accuracy.
 216:Generated_Source\PSoC4/CyLFClk.c **** *
 217:Generated_Source\PSoC4/CyLFClk.c **** * Basing on the measured frequency the required number of ILO cycles for a 
 218:Generated_Source\PSoC4/CyLFClk.c **** * given delay (in microseconds) is obtained. The desired delay that needs to 
 219:Generated_Source\PSoC4/CyLFClk.c **** * be compensated is passed through the desiredDelay parameter. The compensated 
 220:Generated_Source\PSoC4/CyLFClk.c **** * cycle count is returned through the compesatedCycles pointer.
 221:Generated_Source\PSoC4/CyLFClk.c **** * The compensated ILO cycles can then be used to define the WDT period value, 
 222:Generated_Source\PSoC4/CyLFClk.c **** * effectively compensating for the ILO inaccuracy and allowing a more 
 223:Generated_Source\PSoC4/CyLFClk.c **** * accurate WDT interrupt generation.
 224:Generated_Source\PSoC4/CyLFClk.c **** *
 225:Generated_Source\PSoC4/CyLFClk.c **** * CySysClkIloStartMeasurement() API should be called prior to calling this API. 
 226:Generated_Source\PSoC4/CyLFClk.c **** *
 227:Generated_Source\PSoC4/CyLFClk.c **** * \note SysClk should be sourced by IMO. Otherwise CySysClkIloTrim() and 
 228:Generated_Source\PSoC4/CyLFClk.c **** * CySysClkIloCompensate() API can give incorrect results.
 229:Generated_Source\PSoC4/CyLFClk.c **** *
 230:Generated_Source\PSoC4/CyLFClk.c **** * \note If the System clock frequency is changed in runtime, the CyDelayFreq() 
 231:Generated_Source\PSoC4/CyLFClk.c **** * with the appropriate parameter (Frequency of bus clock in Hertz) should be 
 232:Generated_Source\PSoC4/CyLFClk.c **** * called before calling a next CySysClkIloCompensate().
 233:Generated_Source\PSoC4/CyLFClk.c **** *
 234:Generated_Source\PSoC4/CyLFClk.c **** * \warning Do not enter deep sleep mode until the function returns CYRET_SUCCESS.
 235:Generated_Source\PSoC4/CyLFClk.c **** *
 236:Generated_Source\PSoC4/CyLFClk.c **** * \param desiredDelay Required delay in microseconds.
 237:Generated_Source\PSoC4/CyLFClk.c **** *
 238:Generated_Source\PSoC4/CyLFClk.c **** * \param *compensatedCycles The pointer to the variable in which the required
 239:Generated_Source\PSoC4/CyLFClk.c **** * number of ILO cycles for the given delay will be returned.
 240:Generated_Source\PSoC4/CyLFClk.c **** *
 241:Generated_Source\PSoC4/CyLFClk.c **** * \details
 242:Generated_Source\PSoC4/CyLFClk.c **** * The value returned in *compensatedCycles pointer is not valid until the 
 243:Generated_Source\PSoC4/CyLFClk.c **** * function returns CYRET_SUCCESS.
 244:Generated_Source\PSoC4/CyLFClk.c **** *
 245:Generated_Source\PSoC4/CyLFClk.c **** * The desiredDelay parameter value should be in next range: <br>From 100 to 
 246:Generated_Source\PSoC4/CyLFClk.c **** * 2 000 000 microseconds for PSoC 4000 / PSoC 4000S / PSoC 4100S / PSoC Analog 
 247:Generated_Source\PSoC4/CyLFClk.c **** * Coprocessor devices.<br>From 100 to 4 000 000 000 microseconds for 
 248:Generated_Source\PSoC4/CyLFClk.c **** * PSoC 4100 / PSoC 4200 / PSoC 4100 BLE / PSoC 4200 BLE / PRoC BLE /
 249:Generated_Source\PSoC4/CyLFClk.c **** * PSoC 4200L / PSoC 4100M /PSoC 4200M devices.
 250:Generated_Source\PSoC4/CyLFClk.c **** *
 251:Generated_Source\PSoC4/CyLFClk.c **** * \return CYRET_SUCCESS - The compensation process is complete and the 
 252:Generated_Source\PSoC4/CyLFClk.c **** * compensated cycles value is returned in the compensatedCycles pointer.
 253:Generated_Source\PSoC4/CyLFClk.c **** *
 254:Generated_Source\PSoC4/CyLFClk.c **** * \return CYRET_STARTED - Indicates measurement is in progress. It is 
 255:Generated_Source\PSoC4/CyLFClk.c **** * strongly recommended to do not make pauses between API calling. The 
 256:Generated_Source\PSoC4/CyLFClk.c **** * function should be called repeatedly until the API returns CYRET_SUCCESS.
 257:Generated_Source\PSoC4/CyLFClk.c **** *
 258:Generated_Source\PSoC4/CyLFClk.c **** * \return CYRET_INVALID_STATE - Indicates that measurement not started. 
 259:Generated_Source\PSoC4/CyLFClk.c **** * The user should call CySysClkIloStartMeasurement() API before calling 
 260:Generated_Source\PSoC4/CyLFClk.c **** * this API.
ARM GAS  C:\Users\EDULU~1.DES\AppData\Local\Temp\cc0Y6APw.s 			page 6


 261:Generated_Source\PSoC4/CyLFClk.c **** *
 262:Generated_Source\PSoC4/CyLFClk.c **** * \note For a correct WDT or DeepSleep Timers functioning with ILO compensating 
 263:Generated_Source\PSoC4/CyLFClk.c **** * the CySysClkIloCompensate() should be called before WDT or DeepSleep Timers 
 264:Generated_Source\PSoC4/CyLFClk.c **** * enabling.
 265:Generated_Source\PSoC4/CyLFClk.c **** *
 266:Generated_Source\PSoC4/CyLFClk.c **** *******************************************************************************/
 267:Generated_Source\PSoC4/CyLFClk.c **** cystatus CySysClkIloCompensate(uint32 desiredDelay , uint32* compensatedCycles)
 268:Generated_Source\PSoC4/CyLFClk.c **** {
 269:Generated_Source\PSoC4/CyLFClk.c ****     uint32 iloCompensatedCycles;
 270:Generated_Source\PSoC4/CyLFClk.c ****     uint32 desiredDelayInCounts;
 271:Generated_Source\PSoC4/CyLFClk.c ****     static uint32 compensateRunningStatus = CY_SYS_CLK_TRIM_OR_COMP_FINISHED;
 272:Generated_Source\PSoC4/CyLFClk.c ****     uint32 checkStatus;
 273:Generated_Source\PSoC4/CyLFClk.c ****     cystatus returnStatus;
 274:Generated_Source\PSoC4/CyLFClk.c **** 
 275:Generated_Source\PSoC4/CyLFClk.c ****     checkStatus = (uint32) (CY_SYS_CLK_DFT_REG & (uint32) CY_SYS_TST_DDFT_CTRL_REG_DEFAULT_MASK);
 276:Generated_Source\PSoC4/CyLFClk.c **** 
 277:Generated_Source\PSoC4/CyLFClk.c ****     /* Check if CySysStartMeasurement was called before */
 278:Generated_Source\PSoC4/CyLFClk.c ****     if((checkStatus == CY_SYS_CLK_SEL_ILO_DFT_SOURCE) && 
 279:Generated_Source\PSoC4/CyLFClk.c ****        (CY_SYS_TST_DDFT_CTRL_REG == CY_SYS_TST_DDFT_CTRL_REG_SEL2_CLK1) &&
 280:Generated_Source\PSoC4/CyLFClk.c ****        (CY_SYS_CLK_MAX_DELAY_US >= desiredDelay) &&
 281:Generated_Source\PSoC4/CyLFClk.c ****        (CY_SYS_CLK_MIN_DELAY_US <= desiredDelay) &&
 282:Generated_Source\PSoC4/CyLFClk.c ****        (compensatedCycles !=  NULL))
 283:Generated_Source\PSoC4/CyLFClk.c ****     {
 284:Generated_Source\PSoC4/CyLFClk.c ****         if(CY_SYS_CLK_TRIM_OR_COMP_FINISHED != compensateRunningStatus)
 285:Generated_Source\PSoC4/CyLFClk.c ****         {
 286:Generated_Source\PSoC4/CyLFClk.c ****             /* Wait until counter 1 stopped counting and after it calculate compensated cycles */
 287:Generated_Source\PSoC4/CyLFClk.c ****             if(0u != (CY_SYS_CNT_REG1_REG & CY_SYS_CLK_ILO_CALIBR_COMPLETE_MASK))
 288:Generated_Source\PSoC4/CyLFClk.c ****             {
 289:Generated_Source\PSoC4/CyLFClk.c ****                 if (0u != CY_SYS_CNT_REG2_REG)
 290:Generated_Source\PSoC4/CyLFClk.c ****                 {
 291:Generated_Source\PSoC4/CyLFClk.c ****                     /* Calculate required number of ILO cycles for given delay */
 292:Generated_Source\PSoC4/CyLFClk.c ****                     #if(CY_IP_SRSSV2)
 293:Generated_Source\PSoC4/CyLFClk.c ****                         if (CY_SYS_CLK_DELAY_COUNTS_LIMIT < desiredDelay)
 294:Generated_Source\PSoC4/CyLFClk.c ****                         {
 295:Generated_Source\PSoC4/CyLFClk.c ****                             desiredDelayInCounts = (desiredDelay / CY_SYS_CLK_ILO_PERIOD);
 296:Generated_Source\PSoC4/CyLFClk.c ****                             iloCompensatedCycles = 
 297:Generated_Source\PSoC4/CyLFClk.c ****                             (((CY_SYS_CNT_REG2_REG * cydelayFreqHz) / (cydelayFreqHz >> CY_SYS_CLK_
 298:Generated_Source\PSoC4/CyLFClk.c ****                                 CY_SYS_CLK_ILO_FREQ_2MSB) * (desiredDelayInCounts / CY_SYS_CLK_ILO_
 299:Generated_Source\PSoC4/CyLFClk.c ****                         }
 300:Generated_Source\PSoC4/CyLFClk.c ****                         else
 301:Generated_Source\PSoC4/CyLFClk.c ****                         {
 302:Generated_Source\PSoC4/CyLFClk.c ****                             desiredDelayInCounts = ((desiredDelay * CY_SYS_CLK_COEF_PHUNDRED) + 
 303:Generated_Source\PSoC4/CyLFClk.c ****                                                      CY_SYS_CLK_HALF_OF_CLOCK) / CY_SYS_CLK_ILO_PER
 304:Generated_Source\PSoC4/CyLFClk.c **** 
 305:Generated_Source\PSoC4/CyLFClk.c ****                             iloCompensatedCycles = (((CY_SYS_CNT_REG2_REG * cydelayFreqHz) / 
 306:Generated_Source\PSoC4/CyLFClk.c ****                                                      (cydelayFreqHz >> CY_SYS_CLK_SYS_CLK_DEVIDER))
 307:Generated_Source\PSoC4/CyLFClk.c ****                                                      desiredDelayInCounts) / CY_SYS_CLK_ILO_DESIRED
 308:Generated_Source\PSoC4/CyLFClk.c ****                         }
 309:Generated_Source\PSoC4/CyLFClk.c ****                     #else /* (CY_IP_SRSSLT) */
 310:Generated_Source\PSoC4/CyLFClk.c ****                         desiredDelayInCounts = ((desiredDelay * CY_SYS_CLK_COEF_PHUNDRED) + CY_SYS_
 311:Generated_Source\PSoC4/CyLFClk.c ****                                                                                            CY_SYS_C
 312:Generated_Source\PSoC4/CyLFClk.c ****                         if(CY_SYS_CLK_MAX_LITE_NUMBER < desiredDelayInCounts)
 313:Generated_Source\PSoC4/CyLFClk.c ****                         {
 314:Generated_Source\PSoC4/CyLFClk.c ****                             iloCompensatedCycles = (((CY_SYS_CNT_REG2_REG * cydelayFreqHz) / (cydel
 315:Generated_Source\PSoC4/CyLFClk.c ****                                                    CY_SYS_CLK_SYS_CLK_DEVIDER)) / CY_SYS_CLK_ILO_FR
 316:Generated_Source\PSoC4/CyLFClk.c ****                                                    (desiredDelayInCounts / CY_SYS_CLK_ILO_FREQ_3LSB
 317:Generated_Source\PSoC4/CyLFClk.c ****                         }
ARM GAS  C:\Users\EDULU~1.DES\AppData\Local\Temp\cc0Y6APw.s 			page 7


 318:Generated_Source\PSoC4/CyLFClk.c ****                         else
 319:Generated_Source\PSoC4/CyLFClk.c ****                         {
 320:Generated_Source\PSoC4/CyLFClk.c ****                             iloCompensatedCycles = (((CY_SYS_CNT_REG2_REG * cydelayFreqHz) / 
 321:Generated_Source\PSoC4/CyLFClk.c ****                                                      (cydelayFreqHz >> CY_SYS_CLK_SYS_CLK_DEVIDER))
 322:Generated_Source\PSoC4/CyLFClk.c ****                                                      desiredDelayInCounts) / CY_SYS_CLK_ILO_DESIRED
 323:Generated_Source\PSoC4/CyLFClk.c ****                         }
 324:Generated_Source\PSoC4/CyLFClk.c ****                     #endif /* (CY_IP_SRSSV2) */
 325:Generated_Source\PSoC4/CyLFClk.c **** 
 326:Generated_Source\PSoC4/CyLFClk.c ****                     *compensatedCycles = iloCompensatedCycles;
 327:Generated_Source\PSoC4/CyLFClk.c ****                     compensateRunningStatus = CY_SYS_CLK_TRIM_OR_COMP_FINISHED;
 328:Generated_Source\PSoC4/CyLFClk.c ****                     returnStatus = CYRET_SUCCESS;
 329:Generated_Source\PSoC4/CyLFClk.c ****                 }
 330:Generated_Source\PSoC4/CyLFClk.c ****                 else
 331:Generated_Source\PSoC4/CyLFClk.c ****                 {
 332:Generated_Source\PSoC4/CyLFClk.c ****                     returnStatus  = CYRET_INVALID_STATE;
 333:Generated_Source\PSoC4/CyLFClk.c ****                 }
 334:Generated_Source\PSoC4/CyLFClk.c ****             }
 335:Generated_Source\PSoC4/CyLFClk.c ****             else
 336:Generated_Source\PSoC4/CyLFClk.c ****             {
 337:Generated_Source\PSoC4/CyLFClk.c ****                 returnStatus = CYRET_STARTED;
 338:Generated_Source\PSoC4/CyLFClk.c ****             }
 339:Generated_Source\PSoC4/CyLFClk.c ****         }
 340:Generated_Source\PSoC4/CyLFClk.c ****         else
 341:Generated_Source\PSoC4/CyLFClk.c ****         {
 342:Generated_Source\PSoC4/CyLFClk.c ****             /* Reload CNTR 1 count value for next measurement cycle*/
 343:Generated_Source\PSoC4/CyLFClk.c ****             CY_SYS_CNT_REG1_REG = (cydelayFreqHz >> CY_SYS_CLK_SYS_CLK_DEVIDER);
 344:Generated_Source\PSoC4/CyLFClk.c ****             compensateRunningStatus = CY_SYS_CLK_TRIM_OR_COMP_STARTED;
 345:Generated_Source\PSoC4/CyLFClk.c ****             returnStatus = CYRET_STARTED;
 346:Generated_Source\PSoC4/CyLFClk.c ****         }
 347:Generated_Source\PSoC4/CyLFClk.c ****     }
 348:Generated_Source\PSoC4/CyLFClk.c ****     else
 349:Generated_Source\PSoC4/CyLFClk.c ****     {
 350:Generated_Source\PSoC4/CyLFClk.c ****         returnStatus = CYRET_INVALID_STATE;
 351:Generated_Source\PSoC4/CyLFClk.c ****     }
 352:Generated_Source\PSoC4/CyLFClk.c **** 
 353:Generated_Source\PSoC4/CyLFClk.c ****     return (returnStatus);
 354:Generated_Source\PSoC4/CyLFClk.c **** }
 355:Generated_Source\PSoC4/CyLFClk.c **** 
 356:Generated_Source\PSoC4/CyLFClk.c **** 
 357:Generated_Source\PSoC4/CyLFClk.c **** #if(CY_IP_SRSSV2)
 358:Generated_Source\PSoC4/CyLFClk.c ****     /*******************************************************************************
 359:Generated_Source\PSoC4/CyLFClk.c ****     * Function Name: CySysClkIloEnabled
 360:Generated_Source\PSoC4/CyLFClk.c ****     ****************************************************************************//**
 361:Generated_Source\PSoC4/CyLFClk.c ****     *
 362:Generated_Source\PSoC4/CyLFClk.c ****     * \internal
 363:Generated_Source\PSoC4/CyLFClk.c ****     * Reports the ILO enable state.
 364:Generated_Source\PSoC4/CyLFClk.c ****     *
 365:Generated_Source\PSoC4/CyLFClk.c ****     * \return
 366:Generated_Source\PSoC4/CyLFClk.c ****     * 1 if ILO is enabled, and 0 if ILO is disabled.
 367:Generated_Source\PSoC4/CyLFClk.c ****     *
 368:Generated_Source\PSoC4/CyLFClk.c ****     * \endinternal
 369:Generated_Source\PSoC4/CyLFClk.c ****     ********************************************************************************/
 370:Generated_Source\PSoC4/CyLFClk.c ****     static uint32 CySysClkIloEnabled(void)
 371:Generated_Source\PSoC4/CyLFClk.c ****     {
  26              		.loc 1 371 5 view -0
  27              		.cfi_startproc
  28              		@ args = 0, pretend = 0, frame = 0
ARM GAS  C:\Users\EDULU~1.DES\AppData\Local\Temp\cc0Y6APw.s 			page 8


  29              		@ frame_needed = 0, uses_anonymous_args = 0
  30              		@ link register save eliminated.
 372:Generated_Source\PSoC4/CyLFClk.c ****         /* Prohibits writing to WDT registers and ILO/WCO registers when not equal to 0 */
 373:Generated_Source\PSoC4/CyLFClk.c ****         return ((0u != (CY_SYS_CLK_ILO_CONFIG_REG & (uint32)(CY_SYS_CLK_ILO_CONFIG_ENABLE))) ?
  31              		.loc 1 373 9 view .LVU1
  32              		.loc 1 373 25 is_stmt 0 view .LVU2
  33 0000 034B     		ldr	r3, .L5
  34 0002 1B68     		ldr	r3, [r3]
 374:Generated_Source\PSoC4/CyLFClk.c ****             (uint32) 1u :
  35              		.loc 1 374 25 view .LVU3
  36 0004 002B     		cmp	r3, #0
  37 0006 01DB     		blt	.L4
  38 0008 0020     		movs	r0, #0
  39              	.L1:
 375:Generated_Source\PSoC4/CyLFClk.c ****             (uint32) 0u);
 376:Generated_Source\PSoC4/CyLFClk.c ****     }
  40              		.loc 1 376 5 view .LVU4
  41              		@ sp needed
  42 000a 7047     		bx	lr
  43              	.L4:
 374:Generated_Source\PSoC4/CyLFClk.c ****             (uint32) 1u :
  44              		.loc 1 374 25 view .LVU5
  45 000c 0120     		movs	r0, #1
  46 000e FCE7     		b	.L1
  47              	.L6:
  48              		.align	2
  49              	.L5:
  50 0010 04010B40 		.word	1074462980
  51              		.cfi_endproc
  52              	.LFE5:
  53              		.size	CySysClkIloEnabled, .-CySysClkIloEnabled
  54              		.section	.text.CySysWdtLocked,"ax",%progbits
  55              		.align	1
  56              		.syntax unified
  57              		.code	16
  58              		.thumb_func
  59              		.fpu softvfp
  60              		.type	CySysWdtLocked, %function
  61              	CySysWdtLocked:
  62              	.LFB7:
 377:Generated_Source\PSoC4/CyLFClk.c **** #endif /* (CY_IP_SRSSV2) */
 378:Generated_Source\PSoC4/CyLFClk.c **** 
 379:Generated_Source\PSoC4/CyLFClk.c **** 
 380:Generated_Source\PSoC4/CyLFClk.c **** #if(CY_IP_SRSSV2 && (!CY_IP_CPUSS))
 381:Generated_Source\PSoC4/CyLFClk.c **** /********************************************************************************
 382:Generated_Source\PSoC4/CyLFClk.c **** * Function Name: CySysClkIloTrim
 383:Generated_Source\PSoC4/CyLFClk.c **** *****************************************************************************//**
 384:Generated_Source\PSoC4/CyLFClk.c **** * \brief
 385:Generated_Source\PSoC4/CyLFClk.c **** * The API trims the ILO frequency to +/- 10% accuracy range using accurate 
 386:Generated_Source\PSoC4/CyLFClk.c **** * SysClk.
 387:Generated_Source\PSoC4/CyLFClk.c **** *
 388:Generated_Source\PSoC4/CyLFClk.c **** * The API can be blocking or non-blocking depending on the value of the mode 
 389:Generated_Source\PSoC4/CyLFClk.c **** * parameter passed. The accuracy of ILO after trimming in parts per thousand 
 390:Generated_Source\PSoC4/CyLFClk.c **** * is returned through the iloAccuracyInPPT pointer. A positive number indicates 
 391:Generated_Source\PSoC4/CyLFClk.c **** * that the ILO is running fast and a negative number indicates that the ILO is 
 392:Generated_Source\PSoC4/CyLFClk.c **** * running slowly. This error is relative to the error in the reference clock 
 393:Generated_Source\PSoC4/CyLFClk.c **** * (SysClk), so the absolute error will be higher and depends on the accuracy 
ARM GAS  C:\Users\EDULU~1.DES\AppData\Local\Temp\cc0Y6APw.s 			page 9


 394:Generated_Source\PSoC4/CyLFClk.c **** * of the reference.
 395:Generated_Source\PSoC4/CyLFClk.c **** *
 396:Generated_Source\PSoC4/CyLFClk.c **** * The CySysClkIloStartMeasurement() API should be called prior to calling this 
 397:Generated_Source\PSoC4/CyLFClk.c **** * API. Otherwise it will return CYRET_INVALID_STATE as the measurement was not 
 398:Generated_Source\PSoC4/CyLFClk.c **** * started.
 399:Generated_Source\PSoC4/CyLFClk.c **** *
 400:Generated_Source\PSoC4/CyLFClk.c **** * \note SysClk should be sourced by IMO. Otherwise CySysClkIloTrim() and 
 401:Generated_Source\PSoC4/CyLFClk.c **** * CySysClkIloCompensate() API can give incorrect results.
 402:Generated_Source\PSoC4/CyLFClk.c **** *
 403:Generated_Source\PSoC4/CyLFClk.c **** * \note If System clock frequency is changed in runtime, the CyDelayFreq() 
 404:Generated_Source\PSoC4/CyLFClk.c **** * with the appropriate parameter (Frequency of bus clock in Hertz) should be 
 405:Generated_Source\PSoC4/CyLFClk.c **** * called before next CySysClkIloCompensate() usage.
 406:Generated_Source\PSoC4/CyLFClk.c **** *
 407:Generated_Source\PSoC4/CyLFClk.c **** * \warning Do not enter deep sleep mode until the function returns CYRET_SUCCESS
 408:Generated_Source\PSoC4/CyLFClk.c **** * or CYRET_TIMEOUT.
 409:Generated_Source\PSoC4/CyLFClk.c **** *
 410:Generated_Source\PSoC4/CyLFClk.c **** * Available for all PSoC 4 devices with ILO trim capability. This excludes 
 411:Generated_Source\PSoC4/CyLFClk.c **** * PSoC 4000 / PSoC 4100 / PSoC 4200 / PSoC 4000S / PSoC 4100S / PSoC
 412:Generated_Source\PSoC4/CyLFClk.c **** * Analog Coprocessor devices.
 413:Generated_Source\PSoC4/CyLFClk.c **** *
 414:Generated_Source\PSoC4/CyLFClk.c **** * \param mode
 415:Generated_Source\PSoC4/CyLFClk.c **** *  CY_SYS_CLK_BLOCKING -  The function does not return until the ILO is 
 416:Generated_Source\PSoC4/CyLFClk.c **** * within +/-10% accuracy range or time out has occurred.<br>
 417:Generated_Source\PSoC4/CyLFClk.c **** * CY_SYS_CLK_NON_BLOCKING - The function returns immediately after 
 418:Generated_Source\PSoC4/CyLFClk.c **** * performing a single iteration of the trim process. The function should be 
 419:Generated_Source\PSoC4/CyLFClk.c **** * called repeatedly until the trimming is completed successfully.
 420:Generated_Source\PSoC4/CyLFClk.c **** *
 421:Generated_Source\PSoC4/CyLFClk.c **** * \param *iloAccuracyInPPT Pointer to an integer in which the trimmed ILO 
 422:Generated_Source\PSoC4/CyLFClk.c **** * accuracy will be returned.
 423:Generated_Source\PSoC4/CyLFClk.c **** *
 424:Generated_Source\PSoC4/CyLFClk.c **** * \details The value returned in *iloAccuracyInPPT pointer is not valid 
 425:Generated_Source\PSoC4/CyLFClk.c **** * until the function returns CYRET_SUCCESS. ILO accuracy in PPT is given by:
 426:Generated_Source\PSoC4/CyLFClk.c **** *
 427:Generated_Source\PSoC4/CyLFClk.c **** * IloAccuracyInPPT = ((MeasuredIloFreq - DesiredIloFreq) * 
 428:Generated_Source\PSoC4/CyLFClk.c **** * CY_SYS_CLK_PERTHOUSAND) / DesiredIloFreq);
 429:Generated_Source\PSoC4/CyLFClk.c **** *
 430:Generated_Source\PSoC4/CyLFClk.c **** * DesiredIloFreq  = 32000, CY_SYS_CLK_PERTHOUSAND = 1000;
 431:Generated_Source\PSoC4/CyLFClk.c **** *
 432:Generated_Source\PSoC4/CyLFClk.c **** * \return CYRET_SUCCESS - Indicates trimming is complete. This value indicates 
 433:Generated_Source\PSoC4/CyLFClk.c **** * trimming is successful and iloAccuracyInPPT is within +/- 10%.
 434:Generated_Source\PSoC4/CyLFClk.c **** *
 435:Generated_Source\PSoC4/CyLFClk.c **** * \return CYRET_STARTED - Indicates measurement is in progress. This is applicable 
 436:Generated_Source\PSoC4/CyLFClk.c **** * only for non-blocking mode.
 437:Generated_Source\PSoC4/CyLFClk.c **** *
 438:Generated_Source\PSoC4/CyLFClk.c **** * \return CYRET_INVALID_STATE - Indicates trimming was unsuccessful. You should 
 439:Generated_Source\PSoC4/CyLFClk.c **** * call CySysClkIloStartMeasurement() before calling this API.
 440:Generated_Source\PSoC4/CyLFClk.c **** *
 441:Generated_Source\PSoC4/CyLFClk.c **** * \return CYRET_TIMEOUT - Indicates trimming was unsuccessful. This is applicable 
 442:Generated_Source\PSoC4/CyLFClk.c **** * only for blocking mode. Timeout means the trimming was tried 5 times without 
 443:Generated_Source\PSoC4/CyLFClk.c **** * success (i.e. ILO accuracy > +/- 10%). The user can call the API again for 
 444:Generated_Source\PSoC4/CyLFClk.c **** * another try or wait for some time before calling it again (to let the system 
 445:Generated_Source\PSoC4/CyLFClk.c **** * to settle to another operating point change in temperature etc.) and continue 
 446:Generated_Source\PSoC4/CyLFClk.c **** * using the previous trim value till the next call.
 447:Generated_Source\PSoC4/CyLFClk.c **** *
 448:Generated_Source\PSoC4/CyLFClk.c **** **********************************************************************************/
 449:Generated_Source\PSoC4/CyLFClk.c **** cystatus CySysClkIloTrim(uint32 mode, int32* iloAccuracyInPPT)
 450:Generated_Source\PSoC4/CyLFClk.c **** {
ARM GAS  C:\Users\EDULU~1.DES\AppData\Local\Temp\cc0Y6APw.s 			page 10


 451:Generated_Source\PSoC4/CyLFClk.c ****     uint32 timeOutClocks = CY_SYS_CLK_TIMEOUT;
 452:Generated_Source\PSoC4/CyLFClk.c ****     uint32 waitUntilCntr1Stops;
 453:Generated_Source\PSoC4/CyLFClk.c ****     static uint32 trimRunningStatus = CY_SYS_CLK_TRIM_OR_COMP_FINISHED;
 454:Generated_Source\PSoC4/CyLFClk.c ****     uint32 checkStatus;
 455:Generated_Source\PSoC4/CyLFClk.c ****     cystatus returnStatus;
 456:Generated_Source\PSoC4/CyLFClk.c **** 
 457:Generated_Source\PSoC4/CyLFClk.c ****     checkStatus = (uint32) (CY_SYS_CLK_DFT_REG & (uint32) CY_SYS_TST_DDFT_CTRL_REG_DEFAULT_MASK);
 458:Generated_Source\PSoC4/CyLFClk.c **** 
 459:Generated_Source\PSoC4/CyLFClk.c ****     /* Check if DFT and CTRL registers were configures in CySysStartMeasurement*/
 460:Generated_Source\PSoC4/CyLFClk.c ****     if((checkStatus == CY_SYS_CLK_SEL_ILO_DFT_SOURCE) &&
 461:Generated_Source\PSoC4/CyLFClk.c ****        (CY_SYS_TST_DDFT_CTRL_REG == CY_SYS_TST_DDFT_CTRL_REG_SEL2_CLK1) &&
 462:Generated_Source\PSoC4/CyLFClk.c ****        (iloAccuracyInPPT != NULL))
 463:Generated_Source\PSoC4/CyLFClk.c ****     {
 464:Generated_Source\PSoC4/CyLFClk.c ****         if(CY_SYS_CLK_BLOCKING == mode)
 465:Generated_Source\PSoC4/CyLFClk.c ****         {
 466:Generated_Source\PSoC4/CyLFClk.c ****             waitUntilCntr1Stops = cydelayFreqHz >> CY_SYS_CLK_SYS_CLK_DEVIDER;
 467:Generated_Source\PSoC4/CyLFClk.c ****             do
 468:Generated_Source\PSoC4/CyLFClk.c ****             {
 469:Generated_Source\PSoC4/CyLFClk.c ****                 /* Reload CNTR 1 count value for measuring cycle*/
 470:Generated_Source\PSoC4/CyLFClk.c ****                 CY_SYS_CNT_REG1_REG = cydelayFreqHz >> CY_SYS_CLK_SYS_CLK_DEVIDER; 
 471:Generated_Source\PSoC4/CyLFClk.c **** 
 472:Generated_Source\PSoC4/CyLFClk.c ****                 /* Wait until counter CNTR 1 will finish down-counting */
 473:Generated_Source\PSoC4/CyLFClk.c ****                 while (0u == (CY_SYS_CNT_REG1_REG & CY_SYS_CLK_ILO_CALIBR_COMPLETE_MASK))
 474:Generated_Source\PSoC4/CyLFClk.c ****                 {
 475:Generated_Source\PSoC4/CyLFClk.c ****                     waitUntilCntr1Stops--;
 476:Generated_Source\PSoC4/CyLFClk.c ****                     if (0u == waitUntilCntr1Stops)
 477:Generated_Source\PSoC4/CyLFClk.c ****                     {
 478:Generated_Source\PSoC4/CyLFClk.c ****                         break;
 479:Generated_Source\PSoC4/CyLFClk.c ****                     }
 480:Generated_Source\PSoC4/CyLFClk.c ****                 }
 481:Generated_Source\PSoC4/CyLFClk.c ****                 trimRunningStatus = CySysClkIloUpdateTrimReg(iloAccuracyInPPT);
 482:Generated_Source\PSoC4/CyLFClk.c ****                 timeOutClocks--;
 483:Generated_Source\PSoC4/CyLFClk.c **** 
 484:Generated_Source\PSoC4/CyLFClk.c ****             /* Untill ILO accuracy will be in range less than +/- 10% or timeout occurs*/
 485:Generated_Source\PSoC4/CyLFClk.c ****             } while((CYRET_SUCCESS != trimRunningStatus) && 
 486:Generated_Source\PSoC4/CyLFClk.c ****               (CYRET_INVALID_STATE != trimRunningStatus) && 
 487:Generated_Source\PSoC4/CyLFClk.c ****                                (0u != timeOutClocks));
 488:Generated_Source\PSoC4/CyLFClk.c **** 
 489:Generated_Source\PSoC4/CyLFClk.c ****             if (CYRET_SUCCESS == trimRunningStatus)
 490:Generated_Source\PSoC4/CyLFClk.c ****             {
 491:Generated_Source\PSoC4/CyLFClk.c ****                 returnStatus = CYRET_SUCCESS;
 492:Generated_Source\PSoC4/CyLFClk.c ****             }
 493:Generated_Source\PSoC4/CyLFClk.c ****             else
 494:Generated_Source\PSoC4/CyLFClk.c ****             {
 495:Generated_Source\PSoC4/CyLFClk.c ****                 if(0u == timeOutClocks)
 496:Generated_Source\PSoC4/CyLFClk.c ****                 {
 497:Generated_Source\PSoC4/CyLFClk.c ****                     trimRunningStatus = CY_SYS_CLK_TRIM_OR_COMP_FINISHED;
 498:Generated_Source\PSoC4/CyLFClk.c ****                     returnStatus = CYRET_TIMEOUT;
 499:Generated_Source\PSoC4/CyLFClk.c ****                 }
 500:Generated_Source\PSoC4/CyLFClk.c ****                 else
 501:Generated_Source\PSoC4/CyLFClk.c ****                 {
 502:Generated_Source\PSoC4/CyLFClk.c ****                     returnStatus = CYRET_INVALID_STATE;
 503:Generated_Source\PSoC4/CyLFClk.c ****                 }
 504:Generated_Source\PSoC4/CyLFClk.c ****             }
 505:Generated_Source\PSoC4/CyLFClk.c ****         }
 506:Generated_Source\PSoC4/CyLFClk.c ****         /* Non - blocking mode */
 507:Generated_Source\PSoC4/CyLFClk.c ****         else
ARM GAS  C:\Users\EDULU~1.DES\AppData\Local\Temp\cc0Y6APw.s 			page 11


 508:Generated_Source\PSoC4/CyLFClk.c ****         {
 509:Generated_Source\PSoC4/CyLFClk.c ****             if (CY_SYS_CLK_TRIM_OR_COMP_FINISHED != trimRunningStatus)
 510:Generated_Source\PSoC4/CyLFClk.c ****             {
 511:Generated_Source\PSoC4/CyLFClk.c ****                 /* Checking if the counter CNTR 1 finished down-counting */
 512:Generated_Source\PSoC4/CyLFClk.c ****                 if(0u != (CY_SYS_CNT_REG1_REG & CY_SYS_CLK_ILO_CALIBR_COMPLETE_MASK))
 513:Generated_Source\PSoC4/CyLFClk.c ****                 {
 514:Generated_Source\PSoC4/CyLFClk.c ****                     returnStatus = CySysClkIloUpdateTrimReg(iloAccuracyInPPT);
 515:Generated_Source\PSoC4/CyLFClk.c ****                     trimRunningStatus = CY_SYS_CLK_TRIM_OR_COMP_FINISHED;
 516:Generated_Source\PSoC4/CyLFClk.c ****                 }
 517:Generated_Source\PSoC4/CyLFClk.c ****                 else
 518:Generated_Source\PSoC4/CyLFClk.c ****                 {
 519:Generated_Source\PSoC4/CyLFClk.c ****                     returnStatus = CYRET_STARTED;
 520:Generated_Source\PSoC4/CyLFClk.c ****                 }
 521:Generated_Source\PSoC4/CyLFClk.c ****             }
 522:Generated_Source\PSoC4/CyLFClk.c ****             else
 523:Generated_Source\PSoC4/CyLFClk.c ****             {
 524:Generated_Source\PSoC4/CyLFClk.c ****                 /* Reload CNTR 1 count value for next measuring */
 525:Generated_Source\PSoC4/CyLFClk.c ****                 CY_SYS_CNT_REG1_REG = cydelayFreqHz >> CY_SYS_CLK_SYS_CLK_DEVIDER;
 526:Generated_Source\PSoC4/CyLFClk.c ****                 trimRunningStatus = CY_SYS_CLK_TRIM_OR_COMP_STARTED;
 527:Generated_Source\PSoC4/CyLFClk.c ****                 returnStatus = CYRET_STARTED;
 528:Generated_Source\PSoC4/CyLFClk.c ****             }
 529:Generated_Source\PSoC4/CyLFClk.c ****         }
 530:Generated_Source\PSoC4/CyLFClk.c ****     }
 531:Generated_Source\PSoC4/CyLFClk.c ****     else
 532:Generated_Source\PSoC4/CyLFClk.c ****     {
 533:Generated_Source\PSoC4/CyLFClk.c ****         returnStatus = CYRET_INVALID_STATE;
 534:Generated_Source\PSoC4/CyLFClk.c ****     }
 535:Generated_Source\PSoC4/CyLFClk.c **** 
 536:Generated_Source\PSoC4/CyLFClk.c ****     return (returnStatus);
 537:Generated_Source\PSoC4/CyLFClk.c **** }
 538:Generated_Source\PSoC4/CyLFClk.c **** 
 539:Generated_Source\PSoC4/CyLFClk.c **** 
 540:Generated_Source\PSoC4/CyLFClk.c **** /********************************************************************************
 541:Generated_Source\PSoC4/CyLFClk.c **** * Function Name: CySysClkIloUpdateTrimReg
 542:Generated_Source\PSoC4/CyLFClk.c **** *********************************************************************************
 543:Generated_Source\PSoC4/CyLFClk.c **** *
 544:Generated_Source\PSoC4/CyLFClk.c **** * \internal
 545:Generated_Source\PSoC4/CyLFClk.c **** * Function calculates ILO accuracy and check is error range is higher than 
 546:Generated_Source\PSoC4/CyLFClk.c **** * +/- 10%. If Measured frequency is higher than +/- 10% function updates 
 547:Generated_Source\PSoC4/CyLFClk.c **** * ILO Trim register.
 548:Generated_Source\PSoC4/CyLFClk.c **** *
 549:Generated_Source\PSoC4/CyLFClk.c **** * \param
 550:Generated_Source\PSoC4/CyLFClk.c **** * iloAccuracyInPPT Pointer to an integer in which the trimmed ILO 
 551:Generated_Source\PSoC4/CyLFClk.c **** * accuracy will be returned. The value returned in this pointer is not valid 
 552:Generated_Source\PSoC4/CyLFClk.c **** * until the function returns CYRET_SUCCESS. If ILO frequency error is lower 
 553:Generated_Source\PSoC4/CyLFClk.c **** * than +/- 10% then the value returned in this pointer will be updated.
 554:Generated_Source\PSoC4/CyLFClk.c **** *
 555:Generated_Source\PSoC4/CyLFClk.c **** * \return CYRET_SUCCESS - Indicates that ILO frequency error is lower than 
 556:Generated_Source\PSoC4/CyLFClk.c **** * +/- 10% and no actions are required.
 557:Generated_Source\PSoC4/CyLFClk.c **** *
 558:Generated_Source\PSoC4/CyLFClk.c **** * \return  CYRET_STARTED - Indicates that ILO frequency error is higher than 
 559:Generated_Source\PSoC4/CyLFClk.c **** * +/- 10% and ILO Trim register was updated.
 560:Generated_Source\PSoC4/CyLFClk.c **** *
 561:Generated_Source\PSoC4/CyLFClk.c **** * \return CYRET_INVALID_STATE - Indicates trimming was unsuccessful.
 562:Generated_Source\PSoC4/CyLFClk.c **** *
 563:Generated_Source\PSoC4/CyLFClk.c **** * Post #1 - To obtain 10% ILO accuracy the calculated accuracy should be equal 
 564:Generated_Source\PSoC4/CyLFClk.c **** * CY_SYS_CLK_ERROR_RANGE = 5.6%. Error value should take to account IMO error of 
ARM GAS  C:\Users\EDULU~1.DES\AppData\Local\Temp\cc0Y6APw.s 			page 12


 565:Generated_Source\PSoC4/CyLFClk.c **** * +/-2% (+/-0.64kHz), trim step of 2.36kHz (+/-1.18kHz) and error while ILO 
 566:Generated_Source\PSoC4/CyLFClk.c **** * frequency measuring.
 567:Generated_Source\PSoC4/CyLFClk.c **** *
 568:Generated_Source\PSoC4/CyLFClk.c **** * \endinternal
 569:Generated_Source\PSoC4/CyLFClk.c **** *
 570:Generated_Source\PSoC4/CyLFClk.c **** **********************************************************************************/
 571:Generated_Source\PSoC4/CyLFClk.c **** cystatus CySysClkIloUpdateTrimReg(int32* iloAccuracyInPPT)
 572:Generated_Source\PSoC4/CyLFClk.c **** {
 573:Generated_Source\PSoC4/CyLFClk.c ****     uint32 measuredIloFreq;
 574:Generated_Source\PSoC4/CyLFClk.c ****     uint32 currentIloTrimValue;
 575:Generated_Source\PSoC4/CyLFClk.c ****     int32 iloAccuracyValue;
 576:Generated_Source\PSoC4/CyLFClk.c ****     int32 trimStep;
 577:Generated_Source\PSoC4/CyLFClk.c ****     cystatus errorRangeStatus;
 578:Generated_Source\PSoC4/CyLFClk.c **** 
 579:Generated_Source\PSoC4/CyLFClk.c ****     if(0u != CY_SYS_CNT_REG2_REG)
 580:Generated_Source\PSoC4/CyLFClk.c ****     {
 581:Generated_Source\PSoC4/CyLFClk.c ****         measuredIloFreq = (CY_SYS_CNT_REG2_REG * cydelayFreqHz) / (cydelayFreqHz >> CY_SYS_CLK_SYS_
 582:Generated_Source\PSoC4/CyLFClk.c **** 
 583:Generated_Source\PSoC4/CyLFClk.c ****         /* Calculate value of error in PPT according to formula - 
 584:Generated_Source\PSoC4/CyLFClk.c ****         *       ((measuredIlofrequency - iloDesired frequency) * 1000 / iloDesired frequency) */
 585:Generated_Source\PSoC4/CyLFClk.c ****         iloAccuracyValue = (((int32) measuredIloFreq - (int32) CY_SYS_CLK_ILO_DESIRED_FREQ_HZ) * \
 586:Generated_Source\PSoC4/CyLFClk.c ****                             ((int32) CY_SYS_CLK_PERTHOUSAND)) / ((int32) CY_SYS_CLK_ILO_DESIRED_FRE
 587:Generated_Source\PSoC4/CyLFClk.c **** 
 588:Generated_Source\PSoC4/CyLFClk.c ****         /* Check if ILO accuracy is more than +/- CY_SYS_CLK_ERROR_RANGE. See post #1 of API descri
 589:Generated_Source\PSoC4/CyLFClk.c ****         if(CY_SYS_CLK_ERROR_RANGE < (uint32) (CY_SYS_CLK_ABS_MACRO(iloAccuracyValue)))
 590:Generated_Source\PSoC4/CyLFClk.c ****         {
 591:Generated_Source\PSoC4/CyLFClk.c ****             if (0 < iloAccuracyValue)
 592:Generated_Source\PSoC4/CyLFClk.c ****             {
 593:Generated_Source\PSoC4/CyLFClk.c ****                 trimStep = (int32) (((iloAccuracyValue * (int32) CY_SYS_CLK_ERROR_COEF) + 
 594:Generated_Source\PSoC4/CyLFClk.c ****                 CY_SYS_CLK_HALF_OF_STEP) / CY_SYS_CLK_ERROR_STEP);
 595:Generated_Source\PSoC4/CyLFClk.c ****             }
 596:Generated_Source\PSoC4/CyLFClk.c ****             else
 597:Generated_Source\PSoC4/CyLFClk.c ****             {
 598:Generated_Source\PSoC4/CyLFClk.c ****                 trimStep = (int32) (((iloAccuracyValue * (int32) CY_SYS_CLK_ERROR_COEF) - 
 599:Generated_Source\PSoC4/CyLFClk.c ****                 CY_SYS_CLK_HALF_OF_STEP) / CY_SYS_CLK_ERROR_STEP);
 600:Generated_Source\PSoC4/CyLFClk.c ****             }
 601:Generated_Source\PSoC4/CyLFClk.c ****             currentIloTrimValue = (CY_SYS_CLK_ILO_TRIM_REG & CY_SYS_CLK_ILO_TRIM_MASK);
 602:Generated_Source\PSoC4/CyLFClk.c ****             trimStep = (int32) currentIloTrimValue - trimStep;
 603:Generated_Source\PSoC4/CyLFClk.c **** 
 604:Generated_Source\PSoC4/CyLFClk.c ****             if(trimStep > CY_SYS_CLK_FOURBITS_MAX)
 605:Generated_Source\PSoC4/CyLFClk.c ****             {
 606:Generated_Source\PSoC4/CyLFClk.c ****                 trimStep = CY_SYS_CLK_FOURBITS_MAX;
 607:Generated_Source\PSoC4/CyLFClk.c ****             }
 608:Generated_Source\PSoC4/CyLFClk.c ****             if(trimStep < 0)
 609:Generated_Source\PSoC4/CyLFClk.c ****             {
 610:Generated_Source\PSoC4/CyLFClk.c ****                 trimStep = 0;
 611:Generated_Source\PSoC4/CyLFClk.c ****             }
 612:Generated_Source\PSoC4/CyLFClk.c ****             CY_SYS_CLK_ILO_TRIM_REG = (CY_SYS_CLK_ILO_TRIM_REG & (uint32)(~CY_SYS_CLK_ILO_TRIM_MASK
 613:Generated_Source\PSoC4/CyLFClk.c ****                                                                  ((uint32) trimStep);
 614:Generated_Source\PSoC4/CyLFClk.c ****             errorRangeStatus = CYRET_STARTED;
 615:Generated_Source\PSoC4/CyLFClk.c ****         } /* Else return success because error is in +/- 10% range*/
 616:Generated_Source\PSoC4/CyLFClk.c ****         else
 617:Generated_Source\PSoC4/CyLFClk.c ****         {
 618:Generated_Source\PSoC4/CyLFClk.c ****             /* Write trimmed ILO accuracy through pointer. */
 619:Generated_Source\PSoC4/CyLFClk.c ****             *iloAccuracyInPPT = iloAccuracyValue;
 620:Generated_Source\PSoC4/CyLFClk.c ****             errorRangeStatus = CYRET_SUCCESS;
 621:Generated_Source\PSoC4/CyLFClk.c ****         }
ARM GAS  C:\Users\EDULU~1.DES\AppData\Local\Temp\cc0Y6APw.s 			page 13


 622:Generated_Source\PSoC4/CyLFClk.c ****     }
 623:Generated_Source\PSoC4/CyLFClk.c ****     else
 624:Generated_Source\PSoC4/CyLFClk.c ****     {
 625:Generated_Source\PSoC4/CyLFClk.c ****         errorRangeStatus = CYRET_INVALID_STATE;
 626:Generated_Source\PSoC4/CyLFClk.c ****     }
 627:Generated_Source\PSoC4/CyLFClk.c **** return (errorRangeStatus);
 628:Generated_Source\PSoC4/CyLFClk.c **** }
 629:Generated_Source\PSoC4/CyLFClk.c **** 
 630:Generated_Source\PSoC4/CyLFClk.c **** 
 631:Generated_Source\PSoC4/CyLFClk.c **** /*******************************************************************************
 632:Generated_Source\PSoC4/CyLFClk.c **** * Function Name: CySysClkIloRestoreFactoryTrim
 633:Generated_Source\PSoC4/CyLFClk.c **** ****************************************************************************//**
 634:Generated_Source\PSoC4/CyLFClk.c **** * \brief
 635:Generated_Source\PSoC4/CyLFClk.c **** * Restores the ILO Trim Register to factory value.
 636:Generated_Source\PSoC4/CyLFClk.c **** *
 637:Generated_Source\PSoC4/CyLFClk.c **** * The CySysClkIloStartMeasurement() API should be called prior to 
 638:Generated_Source\PSoC4/CyLFClk.c **** * calling this API. Otherwise CYRET_UNKNOWN will be returned.
 639:Generated_Source\PSoC4/CyLFClk.c **** *
 640:Generated_Source\PSoC4/CyLFClk.c **** * Available for all PSoC 4 devices except for PSoC 4000 / PSoC 4100 / PSoC 4200 
 641:Generated_Source\PSoC4/CyLFClk.c **** * / PSoC 4000S / PSoC 4100S / PSoC Analog Coprocessor devices.
 642:Generated_Source\PSoC4/CyLFClk.c **** *
 643:Generated_Source\PSoC4/CyLFClk.c **** * \return CYRET_SUCCESS - Operation was successful. 
 644:Generated_Source\PSoC4/CyLFClk.c **** * \return CYRET_UNKNOWN - CySysClkIloStartMeasurement() was not called 
 645:Generated_Source\PSoC4/CyLFClk.c **** * before this API. Hence the trim value cannot be updated.
 646:Generated_Source\PSoC4/CyLFClk.c **** *
 647:Generated_Source\PSoC4/CyLFClk.c **** ******************************************************************************/
 648:Generated_Source\PSoC4/CyLFClk.c **** cystatus CySysClkIloRestoreFactoryTrim(void)
 649:Generated_Source\PSoC4/CyLFClk.c **** {
 650:Generated_Source\PSoC4/CyLFClk.c ****     cystatus returnStatus = CYRET_SUCCESS;
 651:Generated_Source\PSoC4/CyLFClk.c **** 
 652:Generated_Source\PSoC4/CyLFClk.c ****     /* Check was defaultIloTrimRegValue modified in CySysClkIloStartMeasurement */
 653:Generated_Source\PSoC4/CyLFClk.c ****     if(CY_SYS_CLK_ILO_TRIM_DEFAULT_VALUE != defaultIloTrimRegValue)
 654:Generated_Source\PSoC4/CyLFClk.c ****         {
 655:Generated_Source\PSoC4/CyLFClk.c ****             CY_SYS_CLK_ILO_TRIM_REG = ((CY_SYS_CLK_ILO_TRIM_REG & (uint32)(~CY_SYS_CLK_ILO_TRIM_MAS
 656:Generated_Source\PSoC4/CyLFClk.c ****                                        (defaultIloTrimRegValue & CY_SYS_CLK_ILO_TRIM_MASK));
 657:Generated_Source\PSoC4/CyLFClk.c ****         }
 658:Generated_Source\PSoC4/CyLFClk.c ****         else
 659:Generated_Source\PSoC4/CyLFClk.c ****         {
 660:Generated_Source\PSoC4/CyLFClk.c ****             returnStatus = CYRET_UNKNOWN;
 661:Generated_Source\PSoC4/CyLFClk.c ****         }
 662:Generated_Source\PSoC4/CyLFClk.c **** 
 663:Generated_Source\PSoC4/CyLFClk.c ****         return (returnStatus);
 664:Generated_Source\PSoC4/CyLFClk.c **** }
 665:Generated_Source\PSoC4/CyLFClk.c **** #endif /* (CY_IP_SRSSV2 && (!CY_IP_CPUSS)) */
 666:Generated_Source\PSoC4/CyLFClk.c **** 
 667:Generated_Source\PSoC4/CyLFClk.c **** 
 668:Generated_Source\PSoC4/CyLFClk.c **** #if (CY_IP_WCO && CY_IP_SRSSV2)
 669:Generated_Source\PSoC4/CyLFClk.c ****     /*******************************************************************************
 670:Generated_Source\PSoC4/CyLFClk.c ****     * Function Name: CySysClkGetLfclkSource
 671:Generated_Source\PSoC4/CyLFClk.c ****     ********************************************************************************
 672:Generated_Source\PSoC4/CyLFClk.c ****     *
 673:Generated_Source\PSoC4/CyLFClk.c ****     * \internal
 674:Generated_Source\PSoC4/CyLFClk.c ****     *  Gets the clock source for the LFCLK clock.
 675:Generated_Source\PSoC4/CyLFClk.c ****     *  The function is applicable only for PSoC 4100 BLE / PSoC 4200 BLE / 
 676:Generated_Source\PSoC4/CyLFClk.c ****     *  PSoC 4100M / PSoC 4200M / PSoC 4200L.
 677:Generated_Source\PSoC4/CyLFClk.c ****     *
 678:Generated_Source\PSoC4/CyLFClk.c ****     * \return The LFCLK source:
ARM GAS  C:\Users\EDULU~1.DES\AppData\Local\Temp\cc0Y6APw.s 			page 14


 679:Generated_Source\PSoC4/CyLFClk.c ****     * CY_SYS_CLK_LFCLK_SRC_ILO Internal Low Frequency (32 kHz) Oscillator (ILO)
 680:Generated_Source\PSoC4/CyLFClk.c ****     * CY_SYS_CLK_LFCLK_SRC_WCO Low Frequency Watch Crystal Oscillator (WCO)
 681:Generated_Source\PSoC4/CyLFClk.c ****     *
 682:Generated_Source\PSoC4/CyLFClk.c ****     * \endinternal
 683:Generated_Source\PSoC4/CyLFClk.c ****     *
 684:Generated_Source\PSoC4/CyLFClk.c ****     *******************************************************************************/
 685:Generated_Source\PSoC4/CyLFClk.c ****     static uint32 CySysClkGetLfclkSource(void)
 686:Generated_Source\PSoC4/CyLFClk.c ****     {
 687:Generated_Source\PSoC4/CyLFClk.c ****         uint32 lfclkSource;
 688:Generated_Source\PSoC4/CyLFClk.c ****         lfclkSource = CY_SYS_WDT_CONFIG_REG & CY_SYS_CLK_LFCLK_SEL_MASK;
 689:Generated_Source\PSoC4/CyLFClk.c ****         return (lfclkSource);
 690:Generated_Source\PSoC4/CyLFClk.c ****     }
 691:Generated_Source\PSoC4/CyLFClk.c **** 
 692:Generated_Source\PSoC4/CyLFClk.c **** 
 693:Generated_Source\PSoC4/CyLFClk.c ****     /*******************************************************************************
 694:Generated_Source\PSoC4/CyLFClk.c ****     * Function Name: CySysClkSetLfclkSource
 695:Generated_Source\PSoC4/CyLFClk.c ****     ****************************************************************************//**
 696:Generated_Source\PSoC4/CyLFClk.c ****     * \brief
 697:Generated_Source\PSoC4/CyLFClk.c ****     *  Sets the clock source for the LFCLK clock.
 698:Generated_Source\PSoC4/CyLFClk.c ****     *
 699:Generated_Source\PSoC4/CyLFClk.c ****     * The switch between LFCLK sources must be done between the positive edges of
 700:Generated_Source\PSoC4/CyLFClk.c ****     * LFCLK, because the glitch risk is around the LFCLK positive edge. To ensure
 701:Generated_Source\PSoC4/CyLFClk.c ****     * that the switch can be done safely, the WDT counter value is read until it
 702:Generated_Source\PSoC4/CyLFClk.c ****     * changes.
 703:Generated_Source\PSoC4/CyLFClk.c ****     *
 704:Generated_Source\PSoC4/CyLFClk.c ****     * That means that the positive edge just finished and the switch is performed.
 705:Generated_Source\PSoC4/CyLFClk.c ****     * The enabled WDT counter is used for that purpose. If no counters are enabled,
 706:Generated_Source\PSoC4/CyLFClk.c ****     * counter 0 is enabled. And after the LFCLK source is switched, counter 0
 707:Generated_Source\PSoC4/CyLFClk.c ****     * configuration is restored.
 708:Generated_Source\PSoC4/CyLFClk.c ****     *
 709:Generated_Source\PSoC4/CyLFClk.c ****     *  The function is applicable only for devices with more than one source for 
 710:Generated_Source\PSoC4/CyLFClk.c ****     * LFCLK - PSoC 4100 BLE / PSoC 4200 BLE / PRoC BLE / PSoC 4100M / PSoC 4200M / 
 711:Generated_Source\PSoC4/CyLFClk.c ****     * PSoC 4200L.
 712:Generated_Source\PSoC4/CyLFClk.c ****     *
 713:Generated_Source\PSoC4/CyLFClk.c ****     * \note For PSoC 4000S / PSoC 4100S / PSoC Analog Coprocessor devices LFCLK can
 714:Generated_Source\PSoC4/CyLFClk.c ****     * only be sourced from ILO even though WCO is available.
 715:Generated_Source\PSoC4/CyLFClk.c ****     *
 716:Generated_Source\PSoC4/CyLFClk.c ****     * \param
 717:Generated_Source\PSoC4/CyLFClk.c ****     * source
 718:Generated_Source\PSoC4/CyLFClk.c ****     * CY_SYS_CLK_LFCLK_SRC_ILO - Internal Low Frequency (32 kHz) 
 719:Generated_Source\PSoC4/CyLFClk.c ****     * Oscillator (ILO).<br>
 720:Generated_Source\PSoC4/CyLFClk.c ****     * CY_SYS_CLK_LFCLK_SRC_WCO - Low Frequency Watch Crystal Oscillator (WCO).
 721:Generated_Source\PSoC4/CyLFClk.c ****     *
 722:Generated_Source\PSoC4/CyLFClk.c ****     * \details
 723:Generated_Source\PSoC4/CyLFClk.c ****     * This function has no effect if WDT is locked (CySysWdtLock() is called). 
 724:Generated_Source\PSoC4/CyLFClk.c ****     * Call CySysWdtUnlock() to unlock WDT.
 725:Generated_Source\PSoC4/CyLFClk.c ****     *
 726:Generated_Source\PSoC4/CyLFClk.c ****     * Both the current source and the new source must be running and stable before
 727:Generated_Source\PSoC4/CyLFClk.c ****     * calling this function.
 728:Generated_Source\PSoC4/CyLFClk.c ****     *
 729:Generated_Source\PSoC4/CyLFClk.c ****     * Changing the LFCLK clock source may change the LFCLK clock frequency and
 730:Generated_Source\PSoC4/CyLFClk.c ****     * affect the functionality that uses this clock. For example, watchdog timer
 731:Generated_Source\PSoC4/CyLFClk.c ****     * "uses this clock" or "this clock uses" (WDT) is clocked by LFCLK.
 732:Generated_Source\PSoC4/CyLFClk.c ****     *
 733:Generated_Source\PSoC4/CyLFClk.c ****     *******************************************************************************/
 734:Generated_Source\PSoC4/CyLFClk.c ****     void CySysClkSetLfclkSource(uint32 source)
 735:Generated_Source\PSoC4/CyLFClk.c ****     {
ARM GAS  C:\Users\EDULU~1.DES\AppData\Local\Temp\cc0Y6APw.s 			page 15


 736:Generated_Source\PSoC4/CyLFClk.c ****         uint8  interruptState;
 737:Generated_Source\PSoC4/CyLFClk.c **** 
 738:Generated_Source\PSoC4/CyLFClk.c ****         if (CySysClkGetLfclkSource() != source)
 739:Generated_Source\PSoC4/CyLFClk.c ****         {
 740:Generated_Source\PSoC4/CyLFClk.c ****             interruptState = CyEnterCriticalSection();
 741:Generated_Source\PSoC4/CyLFClk.c ****             CySysClkLfclkPosedgeCatch();
 742:Generated_Source\PSoC4/CyLFClk.c ****             CY_SYS_WDT_CONFIG_REG = (CY_SYS_WDT_CONFIG_REG & (uint32)(~CY_SYS_CLK_LFCLK_SEL_MASK)) 
 743:Generated_Source\PSoC4/CyLFClk.c ****                                     (source & CY_SYS_CLK_LFCLK_SEL_MASK);
 744:Generated_Source\PSoC4/CyLFClk.c ****             CySysClkLfclkPosedgeRestore();
 745:Generated_Source\PSoC4/CyLFClk.c ****             CyExitCriticalSection(interruptState);
 746:Generated_Source\PSoC4/CyLFClk.c ****         }
 747:Generated_Source\PSoC4/CyLFClk.c ****     }
 748:Generated_Source\PSoC4/CyLFClk.c **** #endif /* (CY_IP_WCO && CY_IP_SRSSV2) */
 749:Generated_Source\PSoC4/CyLFClk.c **** 
 750:Generated_Source\PSoC4/CyLFClk.c **** 
 751:Generated_Source\PSoC4/CyLFClk.c **** #if (CY_IP_WCO)
 752:Generated_Source\PSoC4/CyLFClk.c ****     /*******************************************************************************
 753:Generated_Source\PSoC4/CyLFClk.c ****     * Function Name: CySysClkWcoStart
 754:Generated_Source\PSoC4/CyLFClk.c ****     ****************************************************************************//**
 755:Generated_Source\PSoC4/CyLFClk.c ****     * \brief
 756:Generated_Source\PSoC4/CyLFClk.c ****     *  Enables Watch Crystal Oscillator (WCO).
 757:Generated_Source\PSoC4/CyLFClk.c ****     * 
 758:Generated_Source\PSoC4/CyLFClk.c ****     * This API enables WCO which is used as a source for LFCLK. Similar to ILO, 
 759:Generated_Source\PSoC4/CyLFClk.c ****     * WCO is also available in all modes except Hibernate and Stop modes.
 760:Generated_Source\PSoC4/CyLFClk.c ****     * \note In PSoC 4000S / PSoC 4100S / PSoC Analog Coprocessor devices
 761:Generated_Source\PSoC4/CyLFClk.c ****     * WCO cannot be a source for the LFCLK. 
 762:Generated_Source\PSoC4/CyLFClk.c ****     *
 763:Generated_Source\PSoC4/CyLFClk.c ****     *  WCO is always enabled in High Power Mode (HPM). Refer to the device
 764:Generated_Source\PSoC4/CyLFClk.c ****     *  datasheet for the  WCO startup time. Once WCO becomes stable it can be
 765:Generated_Source\PSoC4/CyLFClk.c ****     *  switched to Low Power Mode (LPM). Note that oscillator can be unstable
 766:Generated_Source\PSoC4/CyLFClk.c ****     *  during a switch and hence its output should not be used at that moment.
 767:Generated_Source\PSoC4/CyLFClk.c ****     *
 768:Generated_Source\PSoC4/CyLFClk.c ****     *  The CySysClkWcoSetPowerMode() function configures the WCO power mode.
 769:Generated_Source\PSoC4/CyLFClk.c ****     *
 770:Generated_Source\PSoC4/CyLFClk.c ****     *******************************************************************************/
 771:Generated_Source\PSoC4/CyLFClk.c ****     void CySysClkWcoStart(void)
 772:Generated_Source\PSoC4/CyLFClk.c ****     {
 773:Generated_Source\PSoC4/CyLFClk.c ****         CySysClkWcoSetHighPowerMode();
 774:Generated_Source\PSoC4/CyLFClk.c ****         CY_SYS_CLK_WCO_CONFIG_REG |= CY_SYS_CLK_WCO_CONFIG_LPM_ENABLE;
 775:Generated_Source\PSoC4/CyLFClk.c ****     }
 776:Generated_Source\PSoC4/CyLFClk.c **** 
 777:Generated_Source\PSoC4/CyLFClk.c **** 
 778:Generated_Source\PSoC4/CyLFClk.c ****     /*******************************************************************************
 779:Generated_Source\PSoC4/CyLFClk.c ****     * Function Name: CySysClkWcoStop
 780:Generated_Source\PSoC4/CyLFClk.c ****     ****************************************************************************//**
 781:Generated_Source\PSoC4/CyLFClk.c ****     * \brief
 782:Generated_Source\PSoC4/CyLFClk.c ****     * Disables the 32 KHz Crystal Oscillator.
 783:Generated_Source\PSoC4/CyLFClk.c ****     *
 784:Generated_Source\PSoC4/CyLFClk.c ****     * API switch of WCO.
 785:Generated_Source\PSoC4/CyLFClk.c ****     * \note PSoC 4100S / PSoC Analog Coprocessor: WCO is required for DeepSleep 
 786:Generated_Source\PSoC4/CyLFClk.c ****     * Timer's operation.
 787:Generated_Source\PSoC4/CyLFClk.c ****     *
 788:Generated_Source\PSoC4/CyLFClk.c ****     *******************************************************************************/
 789:Generated_Source\PSoC4/CyLFClk.c ****     void  CySysClkWcoStop(void)
 790:Generated_Source\PSoC4/CyLFClk.c ****     {
 791:Generated_Source\PSoC4/CyLFClk.c ****         #if (CY_IP_SRSSV2)
 792:Generated_Source\PSoC4/CyLFClk.c ****             uint8  interruptState;
ARM GAS  C:\Users\EDULU~1.DES\AppData\Local\Temp\cc0Y6APw.s 			page 16


 793:Generated_Source\PSoC4/CyLFClk.c ****         #endif /* (CY_IP_SRSSV2) */
 794:Generated_Source\PSoC4/CyLFClk.c **** 
 795:Generated_Source\PSoC4/CyLFClk.c ****         if (0u != CySysClkWcoEnabled())
 796:Generated_Source\PSoC4/CyLFClk.c ****         {
 797:Generated_Source\PSoC4/CyLFClk.c ****             #if (CY_IP_SRSSV2)
 798:Generated_Source\PSoC4/CyLFClk.c ****                 if (CY_SYS_CLK_LFCLK_SRC_WCO == CySysClkGetLfclkSource())
 799:Generated_Source\PSoC4/CyLFClk.c ****                 {
 800:Generated_Source\PSoC4/CyLFClk.c ****                     interruptState = CyEnterCriticalSection();
 801:Generated_Source\PSoC4/CyLFClk.c ****                     CySysClkLfclkPosedgeCatch();
 802:Generated_Source\PSoC4/CyLFClk.c ****                     CY_SYS_CLK_WCO_CONFIG_REG &= (uint32) ~CY_SYS_CLK_WCO_CONFIG_LPM_ENABLE;
 803:Generated_Source\PSoC4/CyLFClk.c ****                     CySysClkLfclkPosedgeRestore();
 804:Generated_Source\PSoC4/CyLFClk.c ****                     CyExitCriticalSection(interruptState);
 805:Generated_Source\PSoC4/CyLFClk.c ****                 }
 806:Generated_Source\PSoC4/CyLFClk.c ****                 else /* Safe to disable - shortened pulse does not impact peripheral */
 807:Generated_Source\PSoC4/CyLFClk.c ****             #endif /* (CY_IP_SRSSV2) */
 808:Generated_Source\PSoC4/CyLFClk.c ****             {
 809:Generated_Source\PSoC4/CyLFClk.c ****                 CY_SYS_CLK_WCO_CONFIG_REG &= (uint32) ~CY_SYS_CLK_WCO_CONFIG_LPM_ENABLE;
 810:Generated_Source\PSoC4/CyLFClk.c ****             }
 811:Generated_Source\PSoC4/CyLFClk.c ****         } /* Otherwise do nothing. WCO configuration cannot be changed. */
 812:Generated_Source\PSoC4/CyLFClk.c ****     }
 813:Generated_Source\PSoC4/CyLFClk.c **** 
 814:Generated_Source\PSoC4/CyLFClk.c **** 
 815:Generated_Source\PSoC4/CyLFClk.c ****     /*******************************************************************************
 816:Generated_Source\PSoC4/CyLFClk.c ****     * Function Name: CySysClkWcoEnabled
 817:Generated_Source\PSoC4/CyLFClk.c ****     ****************************************************************************//**
 818:Generated_Source\PSoC4/CyLFClk.c ****     * \internal Reports the WCO enable state.
 819:Generated_Source\PSoC4/CyLFClk.c ****     *
 820:Generated_Source\PSoC4/CyLFClk.c ****     * \return 1 if WCO is enabled
 821:Generated_Source\PSoC4/CyLFClk.c ****     * \return 0 if WCO is disabled.
 822:Generated_Source\PSoC4/CyLFClk.c ****     * \endinternal
 823:Generated_Source\PSoC4/CyLFClk.c ****     *******************************************************************************/
 824:Generated_Source\PSoC4/CyLFClk.c ****     uint32 CySysClkWcoEnabled(void)
 825:Generated_Source\PSoC4/CyLFClk.c ****     {
 826:Generated_Source\PSoC4/CyLFClk.c ****         return ((0u != (CY_SYS_CLK_WCO_CONFIG_REG & (uint32)(CY_SYS_CLK_WCO_CONFIG_LPM_ENABLE))) ?
 827:Generated_Source\PSoC4/CyLFClk.c ****                 (uint32) 1u :
 828:Generated_Source\PSoC4/CyLFClk.c ****                 (uint32) 0u);
 829:Generated_Source\PSoC4/CyLFClk.c ****     }
 830:Generated_Source\PSoC4/CyLFClk.c **** 
 831:Generated_Source\PSoC4/CyLFClk.c **** 
 832:Generated_Source\PSoC4/CyLFClk.c ****     /*******************************************************************************
 833:Generated_Source\PSoC4/CyLFClk.c ****     * Function Name: CySysClkWcoSetPowerMode
 834:Generated_Source\PSoC4/CyLFClk.c ****     ****************************************************************************//**
 835:Generated_Source\PSoC4/CyLFClk.c ****     * \brief
 836:Generated_Source\PSoC4/CyLFClk.c ****     * Sets the power mode for the 32 KHz WCO.
 837:Generated_Source\PSoC4/CyLFClk.c ****     *
 838:Generated_Source\PSoC4/CyLFClk.c ****     * By default (if this function is not called), the WCO is in High power mode 
 839:Generated_Source\PSoC4/CyLFClk.c ****     * during Active and device's low power modes
 840:Generated_Source\PSoC4/CyLFClk.c ****     *
 841:Generated_Source\PSoC4/CyLFClk.c ****     * \param mode
 842:Generated_Source\PSoC4/CyLFClk.c ****     * CY_SYS_CLK_WCO_HPM - The High Power mode.<br>
 843:Generated_Source\PSoC4/CyLFClk.c ****     * CY_SYS_CLK_WCO_LPM - The Low Power mode.
 844:Generated_Source\PSoC4/CyLFClk.c ****     *
 845:Generated_Source\PSoC4/CyLFClk.c ****     * \return A previous power mode. The same as the parameters.
 846:Generated_Source\PSoC4/CyLFClk.c ****     *
 847:Generated_Source\PSoC4/CyLFClk.c ****     * \note
 848:Generated_Source\PSoC4/CyLFClk.c ****     * The WCO Low Power mode is applicable for PSoC 4100 BLE / PSoC 4200 BLE devices.
 849:Generated_Source\PSoC4/CyLFClk.c ****     *
ARM GAS  C:\Users\EDULU~1.DES\AppData\Local\Temp\cc0Y6APw.s 			page 17


 850:Generated_Source\PSoC4/CyLFClk.c ****     *******************************************************************************/
 851:Generated_Source\PSoC4/CyLFClk.c ****     uint32 CySysClkWcoSetPowerMode(uint32 mode)
 852:Generated_Source\PSoC4/CyLFClk.c ****     {
 853:Generated_Source\PSoC4/CyLFClk.c ****         uint32 powerModeStatus;
 854:Generated_Source\PSoC4/CyLFClk.c **** 
 855:Generated_Source\PSoC4/CyLFClk.c ****         powerModeStatus = CY_SYS_CLK_WCO_CONFIG_REG & CY_SYS_CLK_WCO_CONFIG_LPM_EN;
 856:Generated_Source\PSoC4/CyLFClk.c **** 
 857:Generated_Source\PSoC4/CyLFClk.c ****         switch(mode)
 858:Generated_Source\PSoC4/CyLFClk.c ****         {
 859:Generated_Source\PSoC4/CyLFClk.c ****         case CY_SYS_CLK_WCO_HPM:
 860:Generated_Source\PSoC4/CyLFClk.c ****                 CySysClkWcoSetHighPowerMode();
 861:Generated_Source\PSoC4/CyLFClk.c ****             break;
 862:Generated_Source\PSoC4/CyLFClk.c **** 
 863:Generated_Source\PSoC4/CyLFClk.c ****         #if(CY_IP_BLESS)
 864:Generated_Source\PSoC4/CyLFClk.c ****             case CY_SYS_CLK_WCO_LPM:
 865:Generated_Source\PSoC4/CyLFClk.c ****                     CySysClkWcoSetLowPowerMode();
 866:Generated_Source\PSoC4/CyLFClk.c ****                 break;
 867:Generated_Source\PSoC4/CyLFClk.c ****         #endif /* (CY_IP_BLESS) */
 868:Generated_Source\PSoC4/CyLFClk.c **** 
 869:Generated_Source\PSoC4/CyLFClk.c ****         default:
 870:Generated_Source\PSoC4/CyLFClk.c ****             CYASSERT(0u != 0u);
 871:Generated_Source\PSoC4/CyLFClk.c ****             break;
 872:Generated_Source\PSoC4/CyLFClk.c ****         }
 873:Generated_Source\PSoC4/CyLFClk.c **** 
 874:Generated_Source\PSoC4/CyLFClk.c ****         return (powerModeStatus);
 875:Generated_Source\PSoC4/CyLFClk.c ****     }
 876:Generated_Source\PSoC4/CyLFClk.c **** 
 877:Generated_Source\PSoC4/CyLFClk.c **** 
 878:Generated_Source\PSoC4/CyLFClk.c ****     /*******************************************************************************
 879:Generated_Source\PSoC4/CyLFClk.c ****     * Function Name: CySysClkWcoClockOutSelect
 880:Generated_Source\PSoC4/CyLFClk.c ****     ****************************************************************************//**
 881:Generated_Source\PSoC4/CyLFClk.c ****     * \brief
 882:Generated_Source\PSoC4/CyLFClk.c ****     * Selects the WCO block output source.
 883:Generated_Source\PSoC4/CyLFClk.c ****     *
 884:Generated_Source\PSoC4/CyLFClk.c ****     * In addition to generating 32.768 kHz clock from external crystals, WCO 
 885:Generated_Source\PSoC4/CyLFClk.c ****     * can be sourced by external clock source using wco_out pin. The API help to
 886:Generated_Source\PSoC4/CyLFClk.c ****     * lets you select between the sources: External crystal or external pin.
 887:Generated_Source\PSoC4/CyLFClk.c ****     *
 888:Generated_Source\PSoC4/CyLFClk.c ****     * If you want to use external pin to drive WCO the next procedure is required:
 889:Generated_Source\PSoC4/CyLFClk.c ****     * <br> 1) Disable the WCO.
 890:Generated_Source\PSoC4/CyLFClk.c ****     * <br> 2) Drive the wco_out pin to an external signal source.
 891:Generated_Source\PSoC4/CyLFClk.c ****     * <br> 3) Call CySysClkWcoClockOutSelect(CY_SYS_CLK_WCO_SEL_PIN).
 892:Generated_Source\PSoC4/CyLFClk.c ****     * <br> 4) Enable the WCO and wait for 15 us before clocking the XO pad at the high 
 893:Generated_Source\PSoC4/CyLFClk.c ****     * potential. Let's assume you are using the 1.6v clock amplitude, then the
 894:Generated_Source\PSoC4/CyLFClk.c ****     * sequence would start at 1.6v, then 0v, then 1.6v etc at a chosen frequency.
 895:Generated_Source\PSoC4/CyLFClk.c ****     *
 896:Generated_Source\PSoC4/CyLFClk.c ****     * If you want to use WCO after using an external pin source:
 897:Generated_Source\PSoC4/CyLFClk.c ****     * <br> 1) Disable the WCO.
 898:Generated_Source\PSoC4/CyLFClk.c ****     * <br> 2) Drive off wco_out pin with external signal source.
 899:Generated_Source\PSoC4/CyLFClk.c ****     * <br> 3) Call CySysClkWcoClockOutSelect(CY_SYS_CLK_WCO_SEL_CRYSTAL).
 900:Generated_Source\PSoC4/CyLFClk.c ****     * <br> 4) Enable the WCO.
 901:Generated_Source\PSoC4/CyLFClk.c ****     *
 902:Generated_Source\PSoC4/CyLFClk.c ****     * \warning 
 903:Generated_Source\PSoC4/CyLFClk.c ****     * Do not use the oscillator output clock prior to a 15uS delay in your system.
 904:Generated_Source\PSoC4/CyLFClk.c ****     * There are no limitations on the external clock frequency.
 905:Generated_Source\PSoC4/CyLFClk.c ****     * \warning 
 906:Generated_Source\PSoC4/CyLFClk.c ****     * When external clock source was selected to drive WCO block the IMO can be 
ARM GAS  C:\Users\EDULU~1.DES\AppData\Local\Temp\cc0Y6APw.s 			page 18


 907:Generated_Source\PSoC4/CyLFClk.c ****     * trimmed only when external clock source period is equal to WCO external
 908:Generated_Source\PSoC4/CyLFClk.c ****     * crystal period. Also external clock source accuracy should be higher 
 909:Generated_Source\PSoC4/CyLFClk.c ****     * or equal to WCO external crystal accuracy.
 910:Generated_Source\PSoC4/CyLFClk.c ****     *
 911:Generated_Source\PSoC4/CyLFClk.c ****     * \param clockSel
 912:Generated_Source\PSoC4/CyLFClk.c ****     * CY_SYS_CLK_WCO_SEL_CRYSTAL - Selects External crystal as clock 
 913:Generated_Source\PSoC4/CyLFClk.c ****     * source of WCO.<br>
 914:Generated_Source\PSoC4/CyLFClk.c ****     * CY_SYS_CLK_WCO_SEL_PIN - Selects External clock input on wco_in pin as 
 915:Generated_Source\PSoC4/CyLFClk.c ****     * clock source of WCO.
 916:Generated_Source\PSoC4/CyLFClk.c ****     *
 917:Generated_Source\PSoC4/CyLFClk.c ****     *******************************************************************************/
 918:Generated_Source\PSoC4/CyLFClk.c ****     void CySysClkWcoClockOutSelect(uint32 clockSel)
 919:Generated_Source\PSoC4/CyLFClk.c ****     {
 920:Generated_Source\PSoC4/CyLFClk.c ****         if (0u != CySysClkWcoEnabled())
 921:Generated_Source\PSoC4/CyLFClk.c ****         {
 922:Generated_Source\PSoC4/CyLFClk.c ****             if (1u >= clockSel)
 923:Generated_Source\PSoC4/CyLFClk.c ****             {
 924:Generated_Source\PSoC4/CyLFClk.c ****                 CY_SYS_CLK_WCO_CONFIG_REG = (CY_SYS_CLK_WCO_CONFIG_REG & (uint32)(~CY_SYS_CLK_WCO_S
 925:Generated_Source\PSoC4/CyLFClk.c ****                                         (clockSel << CY_SYS_CLK_WCO_SELECT_PIN_OFFSET);
 926:Generated_Source\PSoC4/CyLFClk.c ****             }
 927:Generated_Source\PSoC4/CyLFClk.c ****             else
 928:Generated_Source\PSoC4/CyLFClk.c ****             {
 929:Generated_Source\PSoC4/CyLFClk.c ****                 CYASSERT(0u != 0u);
 930:Generated_Source\PSoC4/CyLFClk.c ****             }
 931:Generated_Source\PSoC4/CyLFClk.c ****         }
 932:Generated_Source\PSoC4/CyLFClk.c ****     }
 933:Generated_Source\PSoC4/CyLFClk.c **** #endif  /* (CY_IP_WCO) */
 934:Generated_Source\PSoC4/CyLFClk.c **** 
 935:Generated_Source\PSoC4/CyLFClk.c **** 
 936:Generated_Source\PSoC4/CyLFClk.c **** #if(CY_IP_SRSSV2)
 937:Generated_Source\PSoC4/CyLFClk.c ****     /*******************************************************************************
 938:Generated_Source\PSoC4/CyLFClk.c ****     * Function Name: CySysWdtLock
 939:Generated_Source\PSoC4/CyLFClk.c ****     ****************************************************************************//**
 940:Generated_Source\PSoC4/CyLFClk.c ****     * \brief
 941:Generated_Source\PSoC4/CyLFClk.c ****     * Locks out configuration changes to the Watchdog timer registers and ILO
 942:Generated_Source\PSoC4/CyLFClk.c ****     * configuration register.
 943:Generated_Source\PSoC4/CyLFClk.c ****     *
 944:Generated_Source\PSoC4/CyLFClk.c ****     * After this function is called, ILO clock can't be disabled until
 945:Generated_Source\PSoC4/CyLFClk.c ****     * CySysWdtUnlock() is called.
 946:Generated_Source\PSoC4/CyLFClk.c ****     *
 947:Generated_Source\PSoC4/CyLFClk.c ****     *******************************************************************************/
 948:Generated_Source\PSoC4/CyLFClk.c ****     void CySysWdtLock(void)
 949:Generated_Source\PSoC4/CyLFClk.c ****     {
 950:Generated_Source\PSoC4/CyLFClk.c ****         uint8 interruptState;
 951:Generated_Source\PSoC4/CyLFClk.c ****         interruptState = CyEnterCriticalSection();
 952:Generated_Source\PSoC4/CyLFClk.c **** 
 953:Generated_Source\PSoC4/CyLFClk.c ****         CY_SYS_CLK_SELECT_REG = (CY_SYS_CLK_SELECT_REG & (uint32)(~CY_SYS_WDT_CLK_LOCK_BITS_MASK)) 
 954:Generated_Source\PSoC4/CyLFClk.c ****                  CY_SYS_WDT_CLK_LOCK_BITS_MASK;
 955:Generated_Source\PSoC4/CyLFClk.c **** 
 956:Generated_Source\PSoC4/CyLFClk.c ****         CyExitCriticalSection(interruptState);
 957:Generated_Source\PSoC4/CyLFClk.c ****     }
 958:Generated_Source\PSoC4/CyLFClk.c **** 
 959:Generated_Source\PSoC4/CyLFClk.c **** 
 960:Generated_Source\PSoC4/CyLFClk.c ****     /*******************************************************************************
 961:Generated_Source\PSoC4/CyLFClk.c ****     * Function Name: CySysWdtLocked
 962:Generated_Source\PSoC4/CyLFClk.c ****     ****************************************************************************//**
 963:Generated_Source\PSoC4/CyLFClk.c ****     * \internal
ARM GAS  C:\Users\EDULU~1.DES\AppData\Local\Temp\cc0Y6APw.s 			page 19


 964:Generated_Source\PSoC4/CyLFClk.c ****     * Reports the WDT lock state.
 965:Generated_Source\PSoC4/CyLFClk.c ****     *
 966:Generated_Source\PSoC4/CyLFClk.c ****     * \return 1 - WDT is locked, and 0 - WDT is unlocked.
 967:Generated_Source\PSoC4/CyLFClk.c ****     * \endinternal
 968:Generated_Source\PSoC4/CyLFClk.c ****     *******************************************************************************/
 969:Generated_Source\PSoC4/CyLFClk.c ****     static uint32 CySysWdtLocked(void)
 970:Generated_Source\PSoC4/CyLFClk.c ****     {
  63              		.loc 1 970 5 is_stmt 1 view -0
  64              		.cfi_startproc
  65              		@ args = 0, pretend = 0, frame = 0
  66              		@ frame_needed = 0, uses_anonymous_args = 0
  67              		@ link register save eliminated.
 971:Generated_Source\PSoC4/CyLFClk.c ****         /* Prohibits writing to WDT registers and ILO/WCO registers when not equal 0 */
 972:Generated_Source\PSoC4/CyLFClk.c ****         return ((0u != (CY_SYS_CLK_SELECT_REG & (uint32)(CY_SYS_WDT_CLK_LOCK_BITS_MASK))) ? (uint32
  68              		.loc 1 972 9 view .LVU7
  69              		.loc 1 972 25 is_stmt 0 view .LVU8
  70 0000 044B     		ldr	r3, .L10
  71 0002 1A68     		ldr	r2, [r3]
  72              		.loc 1 972 47 view .LVU9
  73 0004 C023     		movs	r3, #192
  74 0006 1B02     		lsls	r3, r3, #8
  75              		.loc 1 972 105 view .LVU10
  76 0008 1A42     		tst	r2, r3
  77 000a 01D0     		beq	.L9
  78 000c 0120     		movs	r0, #1
  79              	.L7:
 973:Generated_Source\PSoC4/CyLFClk.c ****     }
  80              		.loc 1 973 5 view .LVU11
  81              		@ sp needed
  82 000e 7047     		bx	lr
  83              	.L9:
 972:Generated_Source\PSoC4/CyLFClk.c ****     }
  84              		.loc 1 972 105 view .LVU12
  85 0010 0020     		movs	r0, #0
  86 0012 FCE7     		b	.L7
  87              	.L11:
  88              		.align	2
  89              	.L10:
  90 0014 00010B40 		.word	1074462976
  91              		.cfi_endproc
  92              	.LFE7:
  93              		.size	CySysWdtLocked, .-CySysWdtLocked
  94              		.section	.text.CySysClkIloStart,"ax",%progbits
  95              		.align	1
  96              		.global	CySysClkIloStart
  97              		.syntax unified
  98              		.code	16
  99              		.thumb_func
 100              		.fpu softvfp
 101              		.type	CySysClkIloStart, %function
 102              	CySysClkIloStart:
 103              	.LFB0:
  84:Generated_Source\PSoC4/CyLFClk.c ****     CY_SYS_CLK_ILO_CONFIG_REG |= CY_SYS_CLK_ILO_CONFIG_ENABLE;
 104              		.loc 1 84 1 is_stmt 1 view -0
 105              		.cfi_startproc
 106              		@ args = 0, pretend = 0, frame = 0
 107              		@ frame_needed = 0, uses_anonymous_args = 0
ARM GAS  C:\Users\EDULU~1.DES\AppData\Local\Temp\cc0Y6APw.s 			page 20


 108              		@ link register save eliminated.
  85:Generated_Source\PSoC4/CyLFClk.c **** }
 109              		.loc 1 85 5 view .LVU14
  85:Generated_Source\PSoC4/CyLFClk.c **** }
 110              		.loc 1 85 31 is_stmt 0 view .LVU15
 111 0000 034A     		ldr	r2, .L13
 112 0002 1168     		ldr	r1, [r2]
 113 0004 8023     		movs	r3, #128
 114 0006 1B06     		lsls	r3, r3, #24
 115 0008 0B43     		orrs	r3, r1
 116 000a 1360     		str	r3, [r2]
  86:Generated_Source\PSoC4/CyLFClk.c **** 
 117              		.loc 1 86 1 view .LVU16
 118              		@ sp needed
 119 000c 7047     		bx	lr
 120              	.L14:
 121 000e C046     		.align	2
 122              	.L13:
 123 0010 04010B40 		.word	1074462980
 124              		.cfi_endproc
 125              	.LFE0:
 126              		.size	CySysClkIloStart, .-CySysClkIloStart
 127              		.section	.text.CySysClkIloStartMeasurement,"ax",%progbits
 128              		.align	1
 129              		.global	CySysClkIloStartMeasurement
 130              		.syntax unified
 131              		.code	16
 132              		.thumb_func
 133              		.fpu softvfp
 134              		.type	CySysClkIloStartMeasurement, %function
 135              	CySysClkIloStartMeasurement:
 136              	.LFB2:
 169:Generated_Source\PSoC4/CyLFClk.c **** #if(CY_IP_SRSSV2 && (!CY_IP_CPUSS))
 137              		.loc 1 169 1 is_stmt 1 view -0
 138              		.cfi_startproc
 139              		@ args = 0, pretend = 0, frame = 0
 140              		@ frame_needed = 0, uses_anonymous_args = 0
 141              		@ link register save eliminated.
 182:Generated_Source\PSoC4/CyLFClk.c ****                             CY_SYS_CLK_SEL_ILO_DFT_SOURCE; 
 142              		.loc 1 182 5 view .LVU18
 182:Generated_Source\PSoC4/CyLFClk.c ****                             CY_SYS_CLK_SEL_ILO_DFT_SOURCE; 
 143              		.loc 1 182 27 is_stmt 0 view .LVU19
 144 0000 0749     		ldr	r1, .L16
 145 0002 0B68     		ldr	r3, [r1]
 182:Generated_Source\PSoC4/CyLFClk.c ****                             CY_SYS_CLK_SEL_ILO_DFT_SOURCE; 
 146              		.loc 1 182 46 view .LVU20
 147 0004 074A     		ldr	r2, .L16+4
 148 0006 1A40     		ands	r2, r3
 182:Generated_Source\PSoC4/CyLFClk.c ****                             CY_SYS_CLK_SEL_ILO_DFT_SOURCE; 
 149              		.loc 1 182 94 view .LVU21
 150 0008 8023     		movs	r3, #128
 151 000a 5B00     		lsls	r3, r3, #1
 152 000c 1343     		orrs	r3, r2
 182:Generated_Source\PSoC4/CyLFClk.c ****                             CY_SYS_CLK_SEL_ILO_DFT_SOURCE; 
 153              		.loc 1 182 24 view .LVU22
 154 000e 0B60     		str	r3, [r1]
 185:Generated_Source\PSoC4/CyLFClk.c ****                             CY_SYS_TST_DDFT_CTRL_REG_SEL2_CLK1;
ARM GAS  C:\Users\EDULU~1.DES\AppData\Local\Temp\cc0Y6APw.s 			page 21


 155              		.loc 1 185 5 is_stmt 1 view .LVU23
 185:Generated_Source\PSoC4/CyLFClk.c ****                             CY_SYS_TST_DDFT_CTRL_REG_SEL2_CLK1;
 156              		.loc 1 185 33 is_stmt 0 view .LVU24
 157 0010 0549     		ldr	r1, .L16+8
 158 0012 0B68     		ldr	r3, [r1]
 185:Generated_Source\PSoC4/CyLFClk.c ****                             CY_SYS_TST_DDFT_CTRL_REG_SEL2_CLK1;
 159              		.loc 1 185 58 view .LVU25
 160 0014 054A     		ldr	r2, .L16+12
 161 0016 1A40     		ands	r2, r3
 185:Generated_Source\PSoC4/CyLFClk.c ****                             CY_SYS_TST_DDFT_CTRL_REG_SEL2_CLK1;
 162              		.loc 1 185 110 view .LVU26
 163 0018 054B     		ldr	r3, .L16+16
 164 001a 1343     		orrs	r3, r2
 185:Generated_Source\PSoC4/CyLFClk.c ****                             CY_SYS_TST_DDFT_CTRL_REG_SEL2_CLK1;
 165              		.loc 1 185 30 view .LVU27
 166 001c 0B60     		str	r3, [r1]
 187:Generated_Source\PSoC4/CyLFClk.c **** 
 167              		.loc 1 187 1 view .LVU28
 168              		@ sp needed
 169 001e 7047     		bx	lr
 170              	.L17:
 171              		.align	2
 172              	.L16:
 173 0020 10010B40 		.word	1074462992
 174 0024 FFF0FFFF 		.word	-3841
 175 0028 08000340 		.word	1073938440
 176 002c C0C0FFFF 		.word	-16192
 177 0030 01020000 		.word	513
 178              		.cfi_endproc
 179              	.LFE2:
 180              		.size	CySysClkIloStartMeasurement, .-CySysClkIloStartMeasurement
 181              		.section	.text.CySysClkIloStopMeasurement,"ax",%progbits
 182              		.align	1
 183              		.global	CySysClkIloStopMeasurement
 184              		.syntax unified
 185              		.code	16
 186              		.thumb_func
 187              		.fpu softvfp
 188              		.type	CySysClkIloStopMeasurement, %function
 189              	CySysClkIloStopMeasurement:
 190              	.LFB3:
 202:Generated_Source\PSoC4/CyLFClk.c ****     /* Set default configurations in 11...8 DFT register bits to zero */
 191              		.loc 1 202 1 is_stmt 1 view -0
 192              		.cfi_startproc
 193              		@ args = 0, pretend = 0, frame = 0
 194              		@ frame_needed = 0, uses_anonymous_args = 0
 195              		@ link register save eliminated.
 204:Generated_Source\PSoC4/CyLFClk.c ****     #if(CY_IP_SRSSLT)
 196              		.loc 1 204 5 view .LVU30
 204:Generated_Source\PSoC4/CyLFClk.c ****     #if(CY_IP_SRSSLT)
 197              		.loc 1 204 24 is_stmt 0 view .LVU31
 198 0000 024A     		ldr	r2, .L19
 199 0002 1368     		ldr	r3, [r2]
 200 0004 0249     		ldr	r1, .L19+4
 201 0006 0B40     		ands	r3, r1
 202 0008 1360     		str	r3, [r2]
 208:Generated_Source\PSoC4/CyLFClk.c **** 
ARM GAS  C:\Users\EDULU~1.DES\AppData\Local\Temp\cc0Y6APw.s 			page 22


 203              		.loc 1 208 1 view .LVU32
 204              		@ sp needed
 205 000a 7047     		bx	lr
 206              	.L20:
 207              		.align	2
 208              	.L19:
 209 000c 10010B40 		.word	1074462992
 210 0010 FFF0FFFF 		.word	-3841
 211              		.cfi_endproc
 212              	.LFE3:
 213              		.size	CySysClkIloStopMeasurement, .-CySysClkIloStopMeasurement
 214              		.global	__aeabi_uidiv
 215              		.section	.text.CySysClkIloCompensate,"ax",%progbits
 216              		.align	1
 217              		.global	CySysClkIloCompensate
 218              		.syntax unified
 219              		.code	16
 220              		.thumb_func
 221              		.fpu softvfp
 222              		.type	CySysClkIloCompensate, %function
 223              	CySysClkIloCompensate:
 224              	.LVL0:
 225              	.LFB4:
 268:Generated_Source\PSoC4/CyLFClk.c ****     uint32 iloCompensatedCycles;
 226              		.loc 1 268 1 is_stmt 1 view -0
 227              		.cfi_startproc
 228              		@ args = 0, pretend = 0, frame = 0
 229              		@ frame_needed = 0, uses_anonymous_args = 0
 268:Generated_Source\PSoC4/CyLFClk.c ****     uint32 iloCompensatedCycles;
 230              		.loc 1 268 1 is_stmt 0 view .LVU34
 231 0000 70B5     		push	{r4, r5, r6, lr}
 232              		.cfi_def_cfa_offset 16
 233              		.cfi_offset 4, -16
 234              		.cfi_offset 5, -12
 235              		.cfi_offset 6, -8
 236              		.cfi_offset 14, -4
 237 0002 0400     		movs	r4, r0
 238 0004 0D00     		movs	r5, r1
 269:Generated_Source\PSoC4/CyLFClk.c ****     uint32 desiredDelayInCounts;
 239              		.loc 1 269 5 is_stmt 1 view .LVU35
 270:Generated_Source\PSoC4/CyLFClk.c ****     static uint32 compensateRunningStatus = CY_SYS_CLK_TRIM_OR_COMP_FINISHED;
 240              		.loc 1 270 5 view .LVU36
 271:Generated_Source\PSoC4/CyLFClk.c ****     uint32 checkStatus;
 241              		.loc 1 271 5 view .LVU37
 272:Generated_Source\PSoC4/CyLFClk.c ****     cystatus returnStatus;
 242              		.loc 1 272 5 view .LVU38
 273:Generated_Source\PSoC4/CyLFClk.c **** 
 243              		.loc 1 273 5 view .LVU39
 275:Generated_Source\PSoC4/CyLFClk.c **** 
 244              		.loc 1 275 5 view .LVU40
 275:Generated_Source\PSoC4/CyLFClk.c **** 
 245              		.loc 1 275 29 is_stmt 0 view .LVU41
 246 0006 334B     		ldr	r3, .L35
 247 0008 1B68     		ldr	r3, [r3]
 275:Generated_Source\PSoC4/CyLFClk.c **** 
 248              		.loc 1 275 17 view .LVU42
 249 000a 334A     		ldr	r2, .L35+4
ARM GAS  C:\Users\EDULU~1.DES\AppData\Local\Temp\cc0Y6APw.s 			page 23


 250 000c 1340     		ands	r3, r2
 251              	.LVL1:
 278:Generated_Source\PSoC4/CyLFClk.c ****        (CY_SYS_TST_DDFT_CTRL_REG == CY_SYS_TST_DDFT_CTRL_REG_SEL2_CLK1) &&
 252              		.loc 1 278 5 is_stmt 1 view .LVU43
 278:Generated_Source\PSoC4/CyLFClk.c ****        (CY_SYS_TST_DDFT_CTRL_REG == CY_SYS_TST_DDFT_CTRL_REG_SEL2_CLK1) &&
 253              		.loc 1 278 7 is_stmt 0 view .LVU44
 254 000e 8022     		movs	r2, #128
 255 0010 5200     		lsls	r2, r2, #1
 256 0012 9342     		cmp	r3, r2
 257 0014 01D0     		beq	.L33
 350:Generated_Source\PSoC4/CyLFClk.c ****     }
 258              		.loc 1 350 22 view .LVU45
 259 0016 1120     		movs	r0, #17
 260              	.LVL2:
 261              	.L21:
 354:Generated_Source\PSoC4/CyLFClk.c **** 
 262              		.loc 1 354 1 view .LVU46
 263              		@ sp needed
 264              	.LVL3:
 354:Generated_Source\PSoC4/CyLFClk.c **** 
 265              		.loc 1 354 1 view .LVU47
 266 0018 70BD     		pop	{r4, r5, r6, pc}
 267              	.LVL4:
 268              	.L33:
 279:Generated_Source\PSoC4/CyLFClk.c ****        (CY_SYS_CLK_MAX_DELAY_US >= desiredDelay) &&
 269              		.loc 1 279 9 discriminator 1 view .LVU48
 270 001a 304B     		ldr	r3, .L35+8
 271              	.LVL5:
 279:Generated_Source\PSoC4/CyLFClk.c ****        (CY_SYS_CLK_MAX_DELAY_US >= desiredDelay) &&
 272              		.loc 1 279 9 discriminator 1 view .LVU49
 273 001c 1A68     		ldr	r2, [r3]
 278:Generated_Source\PSoC4/CyLFClk.c ****        (CY_SYS_TST_DDFT_CTRL_REG == CY_SYS_TST_DDFT_CTRL_REG_SEL2_CLK1) &&
 274              		.loc 1 278 55 discriminator 1 view .LVU50
 275 001e 304B     		ldr	r3, .L35+12
 276 0020 9A42     		cmp	r2, r3
 277 0022 01D0     		beq	.L34
 350:Generated_Source\PSoC4/CyLFClk.c ****     }
 278              		.loc 1 350 22 view .LVU51
 279 0024 1120     		movs	r0, #17
 280              	.LVL6:
 350:Generated_Source\PSoC4/CyLFClk.c ****     }
 281              		.loc 1 350 22 view .LVU52
 282 0026 F7E7     		b	.L21
 283              	.LVL7:
 284              	.L34:
 279:Generated_Source\PSoC4/CyLFClk.c ****        (CY_SYS_CLK_MAX_DELAY_US >= desiredDelay) &&
 285              		.loc 1 279 73 view .LVU53
 286 0028 2E4B     		ldr	r3, .L35+16
 287 002a 9842     		cmp	r0, r3
 288 002c 47D8     		bhi	.L28
 280:Generated_Source\PSoC4/CyLFClk.c ****        (CY_SYS_CLK_MIN_DELAY_US <= desiredDelay) &&
 289              		.loc 1 280 50 view .LVU54
 290 002e 6328     		cmp	r0, #99
 291 0030 47D9     		bls	.L29
 281:Generated_Source\PSoC4/CyLFClk.c ****        (compensatedCycles !=  NULL))
 292              		.loc 1 281 50 view .LVU55
 293 0032 0029     		cmp	r1, #0
ARM GAS  C:\Users\EDULU~1.DES\AppData\Local\Temp\cc0Y6APw.s 			page 24


 294 0034 47D0     		beq	.L30
 284:Generated_Source\PSoC4/CyLFClk.c ****         {
 295              		.loc 1 284 9 is_stmt 1 view .LVU56
 284:Generated_Source\PSoC4/CyLFClk.c ****         {
 296              		.loc 1 284 45 is_stmt 0 view .LVU57
 297 0036 2C4B     		ldr	r3, .L35+20
 298 0038 1B68     		ldr	r3, [r3]
 284:Generated_Source\PSoC4/CyLFClk.c ****         {
 299              		.loc 1 284 11 view .LVU58
 300 003a 002B     		cmp	r3, #0
 301 003c 35D0     		beq	.L23
 287:Generated_Source\PSoC4/CyLFClk.c ****             {
 302              		.loc 1 287 13 is_stmt 1 view .LVU59
 287:Generated_Source\PSoC4/CyLFClk.c ****             {
 303              		.loc 1 287 23 is_stmt 0 view .LVU60
 304 003e 2B4B     		ldr	r3, .L35+24
 305 0040 1B68     		ldr	r3, [r3]
 287:Generated_Source\PSoC4/CyLFClk.c ****             {
 306              		.loc 1 287 15 view .LVU61
 307 0042 002B     		cmp	r3, #0
 308 0044 41DA     		bge	.L31
 289:Generated_Source\PSoC4/CyLFClk.c ****                 {
 309              		.loc 1 289 17 is_stmt 1 view .LVU62
 289:Generated_Source\PSoC4/CyLFClk.c ****                 {
 310              		.loc 1 289 27 is_stmt 0 view .LVU63
 311 0046 2A4B     		ldr	r3, .L35+28
 312 0048 1B68     		ldr	r3, [r3]
 289:Generated_Source\PSoC4/CyLFClk.c ****                 {
 313              		.loc 1 289 20 view .LVU64
 314 004a 002B     		cmp	r3, #0
 315 004c 3FD0     		beq	.L32
 293:Generated_Source\PSoC4/CyLFClk.c ****                         {
 316              		.loc 1 293 25 is_stmt 1 view .LVU65
 293:Generated_Source\PSoC4/CyLFClk.c ****                         {
 317              		.loc 1 293 28 is_stmt 0 view .LVU66
 318 004e 294B     		ldr	r3, .L35+32
 319 0050 9842     		cmp	r0, r3
 320 0052 13D9     		bls	.L24
 295:Generated_Source\PSoC4/CyLFClk.c ****                             iloCompensatedCycles = 
 321              		.loc 1 295 29 is_stmt 1 view .LVU67
 322              	.LVL8:
 296:Generated_Source\PSoC4/CyLFClk.c ****                             (((CY_SYS_CNT_REG2_REG * cydelayFreqHz) / (cydelayFreqHz >> CY_SYS_CLK_
 323              		.loc 1 296 29 view .LVU68
 297:Generated_Source\PSoC4/CyLFClk.c ****                                 CY_SYS_CLK_ILO_FREQ_2MSB) * (desiredDelayInCounts / CY_SYS_CLK_ILO_
 324              		.loc 1 297 32 is_stmt 0 view .LVU69
 325 0054 264B     		ldr	r3, .L35+28
 326 0056 1868     		ldr	r0, [r3]
 327              	.LVL9:
 297:Generated_Source\PSoC4/CyLFClk.c ****                                 CY_SYS_CLK_ILO_FREQ_2MSB) * (desiredDelayInCounts / CY_SYS_CLK_ILO_
 328              		.loc 1 297 52 view .LVU70
 329 0058 274B     		ldr	r3, .L35+36
 330 005a 1968     		ldr	r1, [r3]
 331              	.LVL10:
 297:Generated_Source\PSoC4/CyLFClk.c ****                                 CY_SYS_CLK_ILO_FREQ_2MSB) * (desiredDelayInCounts / CY_SYS_CLK_ILO_
 332              		.loc 1 297 52 view .LVU71
 333 005c 4843     		muls	r0, r1
 297:Generated_Source\PSoC4/CyLFClk.c ****                                 CY_SYS_CLK_ILO_FREQ_2MSB) * (desiredDelayInCounts / CY_SYS_CLK_ILO_
ARM GAS  C:\Users\EDULU~1.DES\AppData\Local\Temp\cc0Y6APw.s 			page 25


 334              		.loc 1 297 86 view .LVU72
 335 005e 890A     		lsrs	r1, r1, #10
 297:Generated_Source\PSoC4/CyLFClk.c ****                                 CY_SYS_CLK_ILO_FREQ_2MSB) * (desiredDelayInCounts / CY_SYS_CLK_ILO_
 336              		.loc 1 297 69 view .LVU73
 337 0060 FFF7FEFF 		bl	__aeabi_uidiv
 338              	.LVL11:
 297:Generated_Source\PSoC4/CyLFClk.c ****                                 CY_SYS_CLK_ILO_FREQ_2MSB) * (desiredDelayInCounts / CY_SYS_CLK_ILO_
 339              		.loc 1 297 118 view .LVU74
 340 0064 4609     		lsrs	r6, r0, #5
 298:Generated_Source\PSoC4/CyLFClk.c ****                         }
 341              		.loc 1 298 83 view .LVU75
 342 0066 2549     		ldr	r1, .L35+40
 343 0068 2000     		movs	r0, r4
 344 006a FFF7FEFF 		bl	__aeabi_uidiv
 345              	.LVL12:
 296:Generated_Source\PSoC4/CyLFClk.c ****                             (((CY_SYS_CNT_REG2_REG * cydelayFreqHz) / (cydelayFreqHz >> CY_SYS_CLK_
 346              		.loc 1 296 50 view .LVU76
 347 006e 7043     		muls	r0, r6
 348              	.LVL13:
 349              	.L25:
 326:Generated_Source\PSoC4/CyLFClk.c ****                     compensateRunningStatus = CY_SYS_CLK_TRIM_OR_COMP_FINISHED;
 350              		.loc 1 326 21 is_stmt 1 view .LVU77
 326:Generated_Source\PSoC4/CyLFClk.c ****                     compensateRunningStatus = CY_SYS_CLK_TRIM_OR_COMP_FINISHED;
 351              		.loc 1 326 40 is_stmt 0 view .LVU78
 352 0070 2860     		str	r0, [r5]
 327:Generated_Source\PSoC4/CyLFClk.c ****                     returnStatus = CYRET_SUCCESS;
 353              		.loc 1 327 21 is_stmt 1 view .LVU79
 327:Generated_Source\PSoC4/CyLFClk.c ****                     returnStatus = CYRET_SUCCESS;
 354              		.loc 1 327 45 is_stmt 0 view .LVU80
 355 0072 1D4B     		ldr	r3, .L35+20
 356 0074 0022     		movs	r2, #0
 357 0076 1A60     		str	r2, [r3]
 328:Generated_Source\PSoC4/CyLFClk.c ****                 }
 358              		.loc 1 328 21 is_stmt 1 view .LVU81
 359              	.LVL14:
 328:Generated_Source\PSoC4/CyLFClk.c ****                 }
 360              		.loc 1 328 34 is_stmt 0 view .LVU82
 361 0078 0020     		movs	r0, #0
 362              	.LVL15:
 328:Generated_Source\PSoC4/CyLFClk.c ****                 }
 363              		.loc 1 328 34 view .LVU83
 364 007a CDE7     		b	.L21
 365              	.LVL16:
 366              	.L24:
 302:Generated_Source\PSoC4/CyLFClk.c ****                                                      CY_SYS_CLK_HALF_OF_CLOCK) / CY_SYS_CLK_ILO_PER
 367              		.loc 1 302 29 is_stmt 1 view .LVU84
 302:Generated_Source\PSoC4/CyLFClk.c ****                                                      CY_SYS_CLK_HALF_OF_CLOCK) / CY_SYS_CLK_ILO_PER
 368              		.loc 1 302 67 is_stmt 0 view .LVU85
 369 007c 6420     		movs	r0, #100
 370              	.LVL17:
 302:Generated_Source\PSoC4/CyLFClk.c ****                                                      CY_SYS_CLK_HALF_OF_CLOCK) / CY_SYS_CLK_ILO_PER
 371              		.loc 1 302 67 view .LVU86
 372 007e 6043     		muls	r0, r4
 302:Generated_Source\PSoC4/CyLFClk.c ****                                                      CY_SYS_CLK_HALF_OF_CLOCK) / CY_SYS_CLK_ILO_PER
 373              		.loc 1 302 95 view .LVU87
 374 0080 1F4B     		ldr	r3, .L35+44
 375 0082 9C46     		mov	ip, r3
ARM GAS  C:\Users\EDULU~1.DES\AppData\Local\Temp\cc0Y6APw.s 			page 26


 376 0084 6044     		add	r0, r0, ip
 302:Generated_Source\PSoC4/CyLFClk.c ****                                                      CY_SYS_CLK_HALF_OF_CLOCK) / CY_SYS_CLK_ILO_PER
 377              		.loc 1 302 50 view .LVU88
 378 0086 1F49     		ldr	r1, .L35+48
 379              	.LVL18:
 302:Generated_Source\PSoC4/CyLFClk.c ****                                                      CY_SYS_CLK_HALF_OF_CLOCK) / CY_SYS_CLK_ILO_PER
 380              		.loc 1 302 50 view .LVU89
 381 0088 FFF7FEFF 		bl	__aeabi_uidiv
 382              	.LVL19:
 383 008c 0400     		movs	r4, r0
 384              	.LVL20:
 305:Generated_Source\PSoC4/CyLFClk.c ****                                                      (cydelayFreqHz >> CY_SYS_CLK_SYS_CLK_DEVIDER))
 385              		.loc 1 305 29 is_stmt 1 view .LVU90
 305:Generated_Source\PSoC4/CyLFClk.c ****                                                      (cydelayFreqHz >> CY_SYS_CLK_SYS_CLK_DEVIDER))
 386              		.loc 1 305 55 is_stmt 0 view .LVU91
 387 008e 184B     		ldr	r3, .L35+28
 388 0090 1868     		ldr	r0, [r3]
 389              	.LVL21:
 305:Generated_Source\PSoC4/CyLFClk.c ****                                                      (cydelayFreqHz >> CY_SYS_CLK_SYS_CLK_DEVIDER))
 390              		.loc 1 305 75 view .LVU92
 391 0092 194B     		ldr	r3, .L35+36
 392 0094 1968     		ldr	r1, [r3]
 393 0096 4843     		muls	r0, r1
 306:Generated_Source\PSoC4/CyLFClk.c ****                                                      desiredDelayInCounts) / CY_SYS_CLK_ILO_DESIRED
 394              		.loc 1 306 69 view .LVU93
 395 0098 890A     		lsrs	r1, r1, #10
 305:Generated_Source\PSoC4/CyLFClk.c ****                                                      (cydelayFreqHz >> CY_SYS_CLK_SYS_CLK_DEVIDER))
 396              		.loc 1 305 92 view .LVU94
 397 009a FFF7FEFF 		bl	__aeabi_uidiv
 398              	.LVL22:
 306:Generated_Source\PSoC4/CyLFClk.c ****                                                      desiredDelayInCounts) / CY_SYS_CLK_ILO_DESIRED
 399              		.loc 1 306 101 view .LVU95
 400 009e 6043     		muls	r0, r4
 305:Generated_Source\PSoC4/CyLFClk.c ****                                                      (cydelayFreqHz >> CY_SYS_CLK_SYS_CLK_DEVIDER))
 401              		.loc 1 305 50 view .LVU96
 402 00a0 FA21     		movs	r1, #250
 403 00a2 C901     		lsls	r1, r1, #7
 404 00a4 FFF7FEFF 		bl	__aeabi_uidiv
 405              	.LVL23:
 305:Generated_Source\PSoC4/CyLFClk.c ****                                                      (cydelayFreqHz >> CY_SYS_CLK_SYS_CLK_DEVIDER))
 406              		.loc 1 305 50 view .LVU97
 407 00a8 E2E7     		b	.L25
 408              	.LVL24:
 409              	.L23:
 343:Generated_Source\PSoC4/CyLFClk.c ****             compensateRunningStatus = CY_SYS_CLK_TRIM_OR_COMP_STARTED;
 410              		.loc 1 343 13 is_stmt 1 view .LVU98
 343:Generated_Source\PSoC4/CyLFClk.c ****             compensateRunningStatus = CY_SYS_CLK_TRIM_OR_COMP_STARTED;
 411              		.loc 1 343 50 is_stmt 0 view .LVU99
 412 00aa 134B     		ldr	r3, .L35+36
 413 00ac 1B68     		ldr	r3, [r3]
 414 00ae 9B0A     		lsrs	r3, r3, #10
 343:Generated_Source\PSoC4/CyLFClk.c ****             compensateRunningStatus = CY_SYS_CLK_TRIM_OR_COMP_STARTED;
 415              		.loc 1 343 33 view .LVU100
 416 00b0 0E4A     		ldr	r2, .L35+24
 417 00b2 1360     		str	r3, [r2]
 344:Generated_Source\PSoC4/CyLFClk.c ****             returnStatus = CYRET_STARTED;
 418              		.loc 1 344 13 is_stmt 1 view .LVU101
ARM GAS  C:\Users\EDULU~1.DES\AppData\Local\Temp\cc0Y6APw.s 			page 27


 344:Generated_Source\PSoC4/CyLFClk.c ****             returnStatus = CYRET_STARTED;
 419              		.loc 1 344 37 is_stmt 0 view .LVU102
 420 00b4 0C4B     		ldr	r3, .L35+20
 421 00b6 0122     		movs	r2, #1
 422 00b8 1A60     		str	r2, [r3]
 345:Generated_Source\PSoC4/CyLFClk.c ****         }
 423              		.loc 1 345 13 is_stmt 1 view .LVU103
 424              	.LVL25:
 345:Generated_Source\PSoC4/CyLFClk.c ****         }
 425              		.loc 1 345 26 is_stmt 0 view .LVU104
 426 00ba 0720     		movs	r0, #7
 427              	.LVL26:
 345:Generated_Source\PSoC4/CyLFClk.c ****         }
 428              		.loc 1 345 26 view .LVU105
 429 00bc ACE7     		b	.L21
 430              	.LVL27:
 431              	.L28:
 350:Generated_Source\PSoC4/CyLFClk.c ****     }
 432              		.loc 1 350 22 view .LVU106
 433 00be 1120     		movs	r0, #17
 434              	.LVL28:
 350:Generated_Source\PSoC4/CyLFClk.c ****     }
 435              		.loc 1 350 22 view .LVU107
 436 00c0 AAE7     		b	.L21
 437              	.LVL29:
 438              	.L29:
 350:Generated_Source\PSoC4/CyLFClk.c ****     }
 439              		.loc 1 350 22 view .LVU108
 440 00c2 1120     		movs	r0, #17
 441              	.LVL30:
 350:Generated_Source\PSoC4/CyLFClk.c ****     }
 442              		.loc 1 350 22 view .LVU109
 443 00c4 A8E7     		b	.L21
 444              	.LVL31:
 445              	.L30:
 350:Generated_Source\PSoC4/CyLFClk.c ****     }
 446              		.loc 1 350 22 view .LVU110
 447 00c6 1120     		movs	r0, #17
 448              	.LVL32:
 350:Generated_Source\PSoC4/CyLFClk.c ****     }
 449              		.loc 1 350 22 view .LVU111
 450 00c8 A6E7     		b	.L21
 451              	.LVL33:
 452              	.L31:
 337:Generated_Source\PSoC4/CyLFClk.c ****             }
 453              		.loc 1 337 30 view .LVU112
 454 00ca 0720     		movs	r0, #7
 455              	.LVL34:
 337:Generated_Source\PSoC4/CyLFClk.c ****             }
 456              		.loc 1 337 30 view .LVU113
 457 00cc A4E7     		b	.L21
 458              	.LVL35:
 459              	.L32:
 332:Generated_Source\PSoC4/CyLFClk.c ****                 }
 460              		.loc 1 332 35 view .LVU114
 461 00ce 1120     		movs	r0, #17
 462              	.LVL36:
ARM GAS  C:\Users\EDULU~1.DES\AppData\Local\Temp\cc0Y6APw.s 			page 28


 353:Generated_Source\PSoC4/CyLFClk.c **** }
 463              		.loc 1 353 5 is_stmt 1 view .LVU115
 353:Generated_Source\PSoC4/CyLFClk.c **** }
 464              		.loc 1 353 12 is_stmt 0 view .LVU116
 465 00d0 A2E7     		b	.L21
 466              	.L36:
 467 00d2 C046     		.align	2
 468              	.L35:
 469 00d4 10010B40 		.word	1074462992
 470 00d8 3F3F0000 		.word	16191
 471 00dc 08000340 		.word	1073938440
 472 00e0 01020000 		.word	513
 473 00e4 00286BEE 		.word	-294967296
 474 00e8 00000000 		.word	.LANCHOR0
 475 00ec 18000340 		.word	1073938456
 476 00f0 1C000340 		.word	1073938460
 477 00f4 60D10000 		.word	53600
 478 00f8 00000000 		.word	cydelayFreqHz
 479 00fc 18790000 		.word	31000
 480 0100 0D030000 		.word	781
 481 0104 350C0000 		.word	3125
 482              		.cfi_endproc
 483              	.LFE4:
 484              		.size	CySysClkIloCompensate, .-CySysClkIloCompensate
 485              		.section	.text.CySysWdtLock,"ax",%progbits
 486              		.align	1
 487              		.global	CySysWdtLock
 488              		.syntax unified
 489              		.code	16
 490              		.thumb_func
 491              		.fpu softvfp
 492              		.type	CySysWdtLock, %function
 493              	CySysWdtLock:
 494              	.LFB6:
 949:Generated_Source\PSoC4/CyLFClk.c ****         uint8 interruptState;
 495              		.loc 1 949 5 is_stmt 1 view -0
 496              		.cfi_startproc
 497              		@ args = 0, pretend = 0, frame = 0
 498              		@ frame_needed = 0, uses_anonymous_args = 0
 499 0000 10B5     		push	{r4, lr}
 500              		.cfi_def_cfa_offset 8
 501              		.cfi_offset 4, -8
 502              		.cfi_offset 14, -4
 950:Generated_Source\PSoC4/CyLFClk.c ****         interruptState = CyEnterCriticalSection();
 503              		.loc 1 950 9 view .LVU118
 951:Generated_Source\PSoC4/CyLFClk.c **** 
 504              		.loc 1 951 9 view .LVU119
 951:Generated_Source\PSoC4/CyLFClk.c **** 
 505              		.loc 1 951 26 is_stmt 0 view .LVU120
 506 0002 FFF7FEFF 		bl	CyEnterCriticalSection
 507              	.LVL37:
 953:Generated_Source\PSoC4/CyLFClk.c ****                  CY_SYS_WDT_CLK_LOCK_BITS_MASK;
 508              		.loc 1 953 9 is_stmt 1 view .LVU121
 953:Generated_Source\PSoC4/CyLFClk.c ****                  CY_SYS_WDT_CLK_LOCK_BITS_MASK;
 509              		.loc 1 953 34 is_stmt 0 view .LVU122
 510 0006 044A     		ldr	r2, .L38
 511 0008 1168     		ldr	r1, [r2]
ARM GAS  C:\Users\EDULU~1.DES\AppData\Local\Temp\cc0Y6APw.s 			page 29


 953:Generated_Source\PSoC4/CyLFClk.c ****                  CY_SYS_WDT_CLK_LOCK_BITS_MASK;
 512              		.loc 1 953 100 view .LVU123
 513 000a C023     		movs	r3, #192
 514 000c 1B02     		lsls	r3, r3, #8
 515 000e 0B43     		orrs	r3, r1
 953:Generated_Source\PSoC4/CyLFClk.c ****                  CY_SYS_WDT_CLK_LOCK_BITS_MASK;
 516              		.loc 1 953 31 view .LVU124
 517 0010 1360     		str	r3, [r2]
 956:Generated_Source\PSoC4/CyLFClk.c ****     }
 518              		.loc 1 956 9 is_stmt 1 view .LVU125
 519 0012 FFF7FEFF 		bl	CyExitCriticalSection
 520              	.LVL38:
 957:Generated_Source\PSoC4/CyLFClk.c **** 
 521              		.loc 1 957 5 is_stmt 0 view .LVU126
 522              		@ sp needed
 523 0016 10BD     		pop	{r4, pc}
 524              	.L39:
 525              		.align	2
 526              	.L38:
 527 0018 00010B40 		.word	1074462976
 528              		.cfi_endproc
 529              	.LFE6:
 530              		.size	CySysWdtLock, .-CySysWdtLock
 531              		.section	.text.CySysWdtUnlock,"ax",%progbits
 532              		.align	1
 533              		.global	CySysWdtUnlock
 534              		.syntax unified
 535              		.code	16
 536              		.thumb_func
 537              		.fpu softvfp
 538              		.type	CySysWdtUnlock, %function
 539              	CySysWdtUnlock:
 540              	.LFB8:
 974:Generated_Source\PSoC4/CyLFClk.c **** 
 975:Generated_Source\PSoC4/CyLFClk.c **** 
 976:Generated_Source\PSoC4/CyLFClk.c ****     /*******************************************************************************
 977:Generated_Source\PSoC4/CyLFClk.c ****     * Function Name: CySysWdtUnlock
 978:Generated_Source\PSoC4/CyLFClk.c ****     ****************************************************************************//**
 979:Generated_Source\PSoC4/CyLFClk.c ****     * \brief
 980:Generated_Source\PSoC4/CyLFClk.c ****     *  Unlocks the Watchdog Timer configuration register.
 981:Generated_Source\PSoC4/CyLFClk.c ****     *
 982:Generated_Source\PSoC4/CyLFClk.c ****     *******************************************************************************/
 983:Generated_Source\PSoC4/CyLFClk.c ****     void CySysWdtUnlock(void)
 984:Generated_Source\PSoC4/CyLFClk.c ****     {
 541              		.loc 1 984 5 is_stmt 1 view -0
 542              		.cfi_startproc
 543              		@ args = 0, pretend = 0, frame = 0
 544              		@ frame_needed = 0, uses_anonymous_args = 0
 545 0000 70B5     		push	{r4, r5, r6, lr}
 546              		.cfi_def_cfa_offset 16
 547              		.cfi_offset 4, -16
 548              		.cfi_offset 5, -12
 549              		.cfi_offset 6, -8
 550              		.cfi_offset 14, -4
 985:Generated_Source\PSoC4/CyLFClk.c ****         uint8 interruptState;
 551              		.loc 1 985 9 view .LVU128
 986:Generated_Source\PSoC4/CyLFClk.c ****         interruptState = CyEnterCriticalSection();
ARM GAS  C:\Users\EDULU~1.DES\AppData\Local\Temp\cc0Y6APw.s 			page 30


 552              		.loc 1 986 9 view .LVU129
 553              		.loc 1 986 26 is_stmt 0 view .LVU130
 554 0002 FFF7FEFF 		bl	CyEnterCriticalSection
 555              	.LVL39:
 987:Generated_Source\PSoC4/CyLFClk.c **** 
 988:Generated_Source\PSoC4/CyLFClk.c ****         /* Removing WDT lock requires two writes */
 989:Generated_Source\PSoC4/CyLFClk.c ****         CY_SYS_CLK_SELECT_REG = ((CY_SYS_CLK_SELECT_REG & (uint32)(~CY_SYS_WDT_CLK_LOCK_BITS_MASK))
 556              		.loc 1 989 9 is_stmt 1 view .LVU131
 557              		.loc 1 989 35 is_stmt 0 view .LVU132
 558 0006 084B     		ldr	r3, .L41
 559 0008 1D68     		ldr	r5, [r3]
 560              		.loc 1 989 57 view .LVU133
 561 000a 0849     		ldr	r1, .L41+4
 562 000c 0D40     		ands	r5, r1
 563              		.loc 1 989 101 view .LVU134
 564 000e 8024     		movs	r4, #128
 565 0010 E401     		lsls	r4, r4, #7
 566 0012 2C43     		orrs	r4, r5
 567              		.loc 1 989 31 view .LVU135
 568 0014 1C60     		str	r4, [r3]
 990:Generated_Source\PSoC4/CyLFClk.c ****                 CY_SYS_WDT_CLK_LOCK_BIT0);
 991:Generated_Source\PSoC4/CyLFClk.c **** 
 992:Generated_Source\PSoC4/CyLFClk.c ****         CY_SYS_CLK_SELECT_REG = ((CY_SYS_CLK_SELECT_REG & (uint32)(~CY_SYS_WDT_CLK_LOCK_BITS_MASK))
 569              		.loc 1 992 9 is_stmt 1 view .LVU136
 570              		.loc 1 992 35 is_stmt 0 view .LVU137
 571 0016 1A68     		ldr	r2, [r3]
 572              		.loc 1 992 57 view .LVU138
 573 0018 1140     		ands	r1, r2
 574              		.loc 1 992 101 view .LVU139
 575 001a 8022     		movs	r2, #128
 576 001c 1202     		lsls	r2, r2, #8
 577 001e 0A43     		orrs	r2, r1
 578              		.loc 1 992 31 view .LVU140
 579 0020 1A60     		str	r2, [r3]
 993:Generated_Source\PSoC4/CyLFClk.c ****                 CY_SYS_WDT_CLK_LOCK_BIT1);
 994:Generated_Source\PSoC4/CyLFClk.c **** 
 995:Generated_Source\PSoC4/CyLFClk.c ****         CyExitCriticalSection(interruptState);
 580              		.loc 1 995 9 is_stmt 1 view .LVU141
 581 0022 FFF7FEFF 		bl	CyExitCriticalSection
 582              	.LVL40:
 996:Generated_Source\PSoC4/CyLFClk.c ****     }
 583              		.loc 1 996 5 is_stmt 0 view .LVU142
 584              		@ sp needed
 585 0026 70BD     		pop	{r4, r5, r6, pc}
 586              	.L42:
 587              		.align	2
 588              	.L41:
 589 0028 00010B40 		.word	1074462976
 590 002c FF3FFFFF 		.word	-49153
 591              		.cfi_endproc
 592              	.LFE8:
 593              		.size	CySysWdtUnlock, .-CySysWdtUnlock
 594              		.section	.text.CySysWdtGetEnabledStatus,"ax",%progbits
 595              		.align	1
 596              		.global	CySysWdtGetEnabledStatus
 597              		.syntax unified
 598              		.code	16
ARM GAS  C:\Users\EDULU~1.DES\AppData\Local\Temp\cc0Y6APw.s 			page 31


 599              		.thumb_func
 600              		.fpu softvfp
 601              		.type	CySysWdtGetEnabledStatus, %function
 602              	CySysWdtGetEnabledStatus:
 603              	.LVL41:
 604              	.LFB9:
 997:Generated_Source\PSoC4/CyLFClk.c **** 
 998:Generated_Source\PSoC4/CyLFClk.c **** 
 999:Generated_Source\PSoC4/CyLFClk.c ****     /*******************************************************************************
1000:Generated_Source\PSoC4/CyLFClk.c ****     * Function Name: CySysWdtGetEnabledStatus
1001:Generated_Source\PSoC4/CyLFClk.c ****     ****************************************************************************//**
1002:Generated_Source\PSoC4/CyLFClk.c ****     * \brief
1003:Generated_Source\PSoC4/CyLFClk.c ****     *  Reads the enabled status of one of the three WDT counters.
1004:Generated_Source\PSoC4/CyLFClk.c ****     *
1005:Generated_Source\PSoC4/CyLFClk.c ****     * \param counterNum: Valid range [0-2].  The number of the WDT counter.
1006:Generated_Source\PSoC4/CyLFClk.c ****     *
1007:Generated_Source\PSoC4/CyLFClk.c ****     * \return The status of the WDT counter:
1008:Generated_Source\PSoC4/CyLFClk.c ****     * \return 0 - If the counter is disabled.
1009:Generated_Source\PSoC4/CyLFClk.c ****     * \return 1 - If the counter is enabled.
1010:Generated_Source\PSoC4/CyLFClk.c ****     *
1011:Generated_Source\PSoC4/CyLFClk.c ****     * \details
1012:Generated_Source\PSoC4/CyLFClk.c ****     * This function returns an actual WDT counter status from the status register. It may
1013:Generated_Source\PSoC4/CyLFClk.c ****     * take up to 3 LFCLK cycles for the WDT status register to contain actual data
1014:Generated_Source\PSoC4/CyLFClk.c ****     * after the WDT counter is enabled.
1015:Generated_Source\PSoC4/CyLFClk.c ****     *
1016:Generated_Source\PSoC4/CyLFClk.c ****     *******************************************************************************/
1017:Generated_Source\PSoC4/CyLFClk.c ****     uint32 CySysWdtGetEnabledStatus(uint32 counterNum)
1018:Generated_Source\PSoC4/CyLFClk.c ****     {
 605              		.loc 1 1018 5 is_stmt 1 view -0
 606              		.cfi_startproc
 607              		@ args = 0, pretend = 0, frame = 0
 608              		@ frame_needed = 0, uses_anonymous_args = 0
 609              		.loc 1 1018 5 is_stmt 0 view .LVU144
 610 0000 10B5     		push	{r4, lr}
 611              		.cfi_def_cfa_offset 8
 612              		.cfi_offset 4, -8
 613              		.cfi_offset 14, -4
 614 0002 0400     		movs	r4, r0
1019:Generated_Source\PSoC4/CyLFClk.c ****         CYASSERT(counterNum < CY_SYS_WDT_COUNTERS_MAX);
 615              		.loc 1 1019 9 is_stmt 1 view .LVU145
 616              		.loc 1 1019 9 view .LVU146
 617 0004 0228     		cmp	r0, #2
 618 0006 07D8     		bhi	.L45
 619              	.LVL42:
 620              	.L44:
1020:Generated_Source\PSoC4/CyLFClk.c ****         return ((CY_SYS_WDT_CONTROL_REG >> ((CY_SYS_WDT_CNT_SHIFT * counterNum) + CY_SYS_WDT_CNT_ST
 621              		.loc 1 1020 9 view .LVU147
 622              		.loc 1 1020 18 is_stmt 0 view .LVU148
 623 0008 054B     		ldr	r3, .L46
 624 000a 1B68     		ldr	r3, [r3]
 625              		.loc 1 1020 67 view .LVU149
 626 000c E400     		lsls	r4, r4, #3
 627              	.LVL43:
 628              		.loc 1 1020 81 view .LVU150
 629 000e 0134     		adds	r4, r4, #1
 630              		.loc 1 1020 41 view .LVU151
 631 0010 E340     		lsrs	r3, r3, r4
ARM GAS  C:\Users\EDULU~1.DES\AppData\Local\Temp\cc0Y6APw.s 			page 32


 632              		.loc 1 1020 111 view .LVU152
 633 0012 0120     		movs	r0, #1
 634 0014 1840     		ands	r0, r3
1021:Generated_Source\PSoC4/CyLFClk.c ****     }
 635              		.loc 1 1021 5 view .LVU153
 636              		@ sp needed
 637 0016 10BD     		pop	{r4, pc}
 638              	.LVL44:
 639              	.L45:
1019:Generated_Source\PSoC4/CyLFClk.c ****         CYASSERT(counterNum < CY_SYS_WDT_COUNTERS_MAX);
 640              		.loc 1 1019 9 is_stmt 1 discriminator 1 view .LVU154
 641 0018 0020     		movs	r0, #0
 642              	.LVL45:
1019:Generated_Source\PSoC4/CyLFClk.c ****         CYASSERT(counterNum < CY_SYS_WDT_COUNTERS_MAX);
 643              		.loc 1 1019 9 is_stmt 0 discriminator 1 view .LVU155
 644 001a FFF7FEFF 		bl	CyHalt
 645              	.LVL46:
 646 001e F3E7     		b	.L44
 647              	.L47:
 648              		.align	2
 649              	.L46:
 650 0020 10020B40 		.word	1074463248
 651              		.cfi_endproc
 652              	.LFE9:
 653              		.size	CySysWdtGetEnabledStatus, .-CySysWdtGetEnabledStatus
 654              		.section	.text.CySysWdtSetMode,"ax",%progbits
 655              		.align	1
 656              		.global	CySysWdtSetMode
 657              		.syntax unified
 658              		.code	16
 659              		.thumb_func
 660              		.fpu softvfp
 661              		.type	CySysWdtSetMode, %function
 662              	CySysWdtSetMode:
 663              	.LVL47:
 664              	.LFB10:
1022:Generated_Source\PSoC4/CyLFClk.c **** 
1023:Generated_Source\PSoC4/CyLFClk.c **** 
1024:Generated_Source\PSoC4/CyLFClk.c ****     /*******************************************************************************
1025:Generated_Source\PSoC4/CyLFClk.c ****     * Function Name: CySysWdtSetMode
1026:Generated_Source\PSoC4/CyLFClk.c ****     ****************************************************************************//**
1027:Generated_Source\PSoC4/CyLFClk.c ****     * \brief
1028:Generated_Source\PSoC4/CyLFClk.c ****     * Writes the mode of one of the three WDT counters.
1029:Generated_Source\PSoC4/CyLFClk.c ****     *
1030:Generated_Source\PSoC4/CyLFClk.c ****     * \param counterNum: Valid range [0-2].  The number of the WDT counter.
1031:Generated_Source\PSoC4/CyLFClk.c ****     *
1032:Generated_Source\PSoC4/CyLFClk.c ****     * \param mode
1033:Generated_Source\PSoC4/CyLFClk.c ****     *  CY_SYS_WDT_MODE_NONE - Free running.<br>
1034:Generated_Source\PSoC4/CyLFClk.c ****     * CY_SYS_WDT_MODE_INT - The interrupt generated on match for counter 0
1035:Generated_Source\PSoC4/CyLFClk.c ****     * and 1, and on bit toggle for counter 2.<br>
1036:Generated_Source\PSoC4/CyLFClk.c ****     * CY_SYS_WDT_MODE_RESET - Reset on match (valid for counter 0 and 1 only).<br>
1037:Generated_Source\PSoC4/CyLFClk.c ****     * CY_SYS_WDT_MODE_INT_RESET - Generate an interrupt.  Generate a reset on
1038:Generated_Source\PSoC4/CyLFClk.c ****     * the 3rd non-handled interrupt (valid for counter 0 and counter 1 only).
1039:Generated_Source\PSoC4/CyLFClk.c ****     *
1040:Generated_Source\PSoC4/CyLFClk.c ****     * \details
1041:Generated_Source\PSoC4/CyLFClk.c ****     * WDT counter counterNum should be disabled to set a mode. Otherwise, this
1042:Generated_Source\PSoC4/CyLFClk.c ****     * function call has no effect. If the specified counter is enabled,
ARM GAS  C:\Users\EDULU~1.DES\AppData\Local\Temp\cc0Y6APw.s 			page 33


1043:Generated_Source\PSoC4/CyLFClk.c ****     * call the CySysWdtDisable() function with the corresponding parameter to
1044:Generated_Source\PSoC4/CyLFClk.c ****     * disable the specified counter and wait for it to stop.
1045:Generated_Source\PSoC4/CyLFClk.c ****     *
1046:Generated_Source\PSoC4/CyLFClk.c ****     *******************************************************************************/
1047:Generated_Source\PSoC4/CyLFClk.c ****     void CySysWdtSetMode(uint32 counterNum, uint32 mode)
1048:Generated_Source\PSoC4/CyLFClk.c ****     {
 665              		.loc 1 1048 5 is_stmt 1 view -0
 666              		.cfi_startproc
 667              		@ args = 0, pretend = 0, frame = 0
 668              		@ frame_needed = 0, uses_anonymous_args = 0
 669              		.loc 1 1048 5 is_stmt 0 view .LVU157
 670 0000 70B5     		push	{r4, r5, r6, lr}
 671              		.cfi_def_cfa_offset 16
 672              		.cfi_offset 4, -16
 673              		.cfi_offset 5, -12
 674              		.cfi_offset 6, -8
 675              		.cfi_offset 14, -4
 676 0002 0400     		movs	r4, r0
 677 0004 0D00     		movs	r5, r1
1049:Generated_Source\PSoC4/CyLFClk.c ****         uint32 configRegValue;
 678              		.loc 1 1049 9 is_stmt 1 view .LVU158
1050:Generated_Source\PSoC4/CyLFClk.c **** 
1051:Generated_Source\PSoC4/CyLFClk.c ****         CYASSERT(counterNum < CY_SYS_WDT_COUNTERS_MAX);
 679              		.loc 1 1051 9 view .LVU159
 680              		.loc 1 1051 9 view .LVU160
 681 0006 0228     		cmp	r0, #2
 682 0008 10D8     		bhi	.L51
 683              	.LVL48:
 684              	.L49:
1052:Generated_Source\PSoC4/CyLFClk.c **** 
1053:Generated_Source\PSoC4/CyLFClk.c ****         if(0u == CySysWdtGetEnabledStatus(counterNum))
 685              		.loc 1 1053 9 view .LVU161
 686              		.loc 1 1053 18 is_stmt 0 view .LVU162
 687 000a 2000     		movs	r0, r4
 688 000c FFF7FEFF 		bl	CySysWdtGetEnabledStatus
 689              	.LVL49:
 690              		.loc 1 1053 11 view .LVU163
 691 0010 0028     		cmp	r0, #0
 692 0012 0AD1     		bne	.L48
1054:Generated_Source\PSoC4/CyLFClk.c ****         {
1055:Generated_Source\PSoC4/CyLFClk.c ****             configRegValue = CY_SYS_WDT_CONFIG_REG &
 693              		.loc 1 1055 13 is_stmt 1 view .LVU164
 694              		.loc 1 1055 30 is_stmt 0 view .LVU165
 695 0014 074A     		ldr	r2, .L52
 696 0016 1368     		ldr	r3, [r2]
1056:Generated_Source\PSoC4/CyLFClk.c ****                                 (uint32)~((uint32)(CY_SYS_WDT_MODE_MASK << (counterNum * CY_SYS_WDT
 697              		.loc 1 1056 88 view .LVU166
 698 0018 E400     		lsls	r4, r4, #3
 699              	.LVL50:
 700              		.loc 1 1056 43 view .LVU167
 701 001a 0321     		movs	r1, #3
 702 001c 0800     		movs	r0, r1
 703 001e A040     		lsls	r0, r0, r4
1055:Generated_Source\PSoC4/CyLFClk.c ****                                 (uint32)~((uint32)(CY_SYS_WDT_MODE_MASK << (counterNum * CY_SYS_WDT
 704              		.loc 1 1055 28 view .LVU168
 705 0020 8343     		bics	r3, r0
 706              	.LVL51:
ARM GAS  C:\Users\EDULU~1.DES\AppData\Local\Temp\cc0Y6APw.s 			page 34


1057:Generated_Source\PSoC4/CyLFClk.c ****             configRegValue |= (uint32)((mode & CY_SYS_WDT_MODE_MASK) << (counterNum * CY_SYS_WDT_CN
 707              		.loc 1 1057 13 is_stmt 1 view .LVU169
 708              		.loc 1 1057 46 is_stmt 0 view .LVU170
 709 0022 2940     		ands	r1, r5
 710              		.loc 1 1057 31 view .LVU171
 711 0024 A140     		lsls	r1, r1, r4
 712              		.loc 1 1057 28 view .LVU172
 713 0026 1943     		orrs	r1, r3
 714              	.LVL52:
1058:Generated_Source\PSoC4/CyLFClk.c ****             CY_SYS_WDT_CONFIG_REG = configRegValue;
 715              		.loc 1 1058 13 is_stmt 1 view .LVU173
 716              		.loc 1 1058 35 is_stmt 0 view .LVU174
 717 0028 1160     		str	r1, [r2]
 718              	.LVL53:
 719              	.L48:
1059:Generated_Source\PSoC4/CyLFClk.c ****         }
1060:Generated_Source\PSoC4/CyLFClk.c ****     }
 720              		.loc 1 1060 5 view .LVU175
 721              		@ sp needed
 722              	.LVL54:
 723              		.loc 1 1060 5 view .LVU176
 724 002a 70BD     		pop	{r4, r5, r6, pc}
 725              	.LVL55:
 726              	.L51:
1051:Generated_Source\PSoC4/CyLFClk.c **** 
 727              		.loc 1 1051 9 is_stmt 1 discriminator 1 view .LVU177
 728 002c 0020     		movs	r0, #0
 729              	.LVL56:
1051:Generated_Source\PSoC4/CyLFClk.c **** 
 730              		.loc 1 1051 9 is_stmt 0 discriminator 1 view .LVU178
 731 002e FFF7FEFF 		bl	CyHalt
 732              	.LVL57:
1051:Generated_Source\PSoC4/CyLFClk.c **** 
 733              		.loc 1 1051 9 discriminator 1 view .LVU179
 734 0032 EAE7     		b	.L49
 735              	.L53:
 736              		.align	2
 737              	.L52:
 738 0034 0C020B40 		.word	1074463244
 739              		.cfi_endproc
 740              	.LFE10:
 741              		.size	CySysWdtSetMode, .-CySysWdtSetMode
 742              		.section	.text.CySysClkLfclkPosedgeRestore,"ax",%progbits
 743              		.align	1
 744              		.syntax unified
 745              		.code	16
 746              		.thumb_func
 747              		.fpu softvfp
 748              		.type	CySysClkLfclkPosedgeRestore, %function
 749              	CySysClkLfclkPosedgeRestore:
 750              	.LFB33:
1061:Generated_Source\PSoC4/CyLFClk.c **** 
1062:Generated_Source\PSoC4/CyLFClk.c **** 
1063:Generated_Source\PSoC4/CyLFClk.c ****     /*******************************************************************************
1064:Generated_Source\PSoC4/CyLFClk.c ****     * Function Name: CySysWdtGetMode
1065:Generated_Source\PSoC4/CyLFClk.c ****     ****************************************************************************//**
1066:Generated_Source\PSoC4/CyLFClk.c ****     * 
ARM GAS  C:\Users\EDULU~1.DES\AppData\Local\Temp\cc0Y6APw.s 			page 35


1067:Generated_Source\PSoC4/CyLFClk.c ****     * \brief Reads the mode of one of the three WDT counters.
1068:Generated_Source\PSoC4/CyLFClk.c ****     *
1069:Generated_Source\PSoC4/CyLFClk.c ****     * \param counterNum Valid range [0-2]. The number of the WDT counter.
1070:Generated_Source\PSoC4/CyLFClk.c ****     *
1071:Generated_Source\PSoC4/CyLFClk.c ****     * \return The mode of the counter. The same enumerated values as the mode 
1072:Generated_Source\PSoC4/CyLFClk.c ****     * parameter used in CySysWdtSetMode().
1073:Generated_Source\PSoC4/CyLFClk.c ****     *
1074:Generated_Source\PSoC4/CyLFClk.c ****     *******************************************************************************/
1075:Generated_Source\PSoC4/CyLFClk.c ****     uint32 CySysWdtGetMode(uint32 counterNum)
1076:Generated_Source\PSoC4/CyLFClk.c ****     {
1077:Generated_Source\PSoC4/CyLFClk.c ****         return ((CY_SYS_WDT_CONFIG_REG >> (counterNum * CY_SYS_WDT_CNT_SHIFT)) & CY_SYS_WDT_MODE_MA
1078:Generated_Source\PSoC4/CyLFClk.c ****     }
1079:Generated_Source\PSoC4/CyLFClk.c **** 
1080:Generated_Source\PSoC4/CyLFClk.c **** 
1081:Generated_Source\PSoC4/CyLFClk.c ****     /*******************************************************************************
1082:Generated_Source\PSoC4/CyLFClk.c ****     * Function Name: CySysWdtSetClearOnMatch
1083:Generated_Source\PSoC4/CyLFClk.c ****     ****************************************************************************//**
1084:Generated_Source\PSoC4/CyLFClk.c ****     * 
1085:Generated_Source\PSoC4/CyLFClk.c ****     * \brief Configures the WDT counter "clear on match" setting.
1086:Generated_Source\PSoC4/CyLFClk.c ****     *
1087:Generated_Source\PSoC4/CyLFClk.c ****     * If configured to "clear on match", the counter counts from 0 to MatchValue
1088:Generated_Source\PSoC4/CyLFClk.c ****     * giving it a period of (MatchValue + 1).
1089:Generated_Source\PSoC4/CyLFClk.c ****     *
1090:Generated_Source\PSoC4/CyLFClk.c ****     * \param counterNum
1091:Generated_Source\PSoC4/CyLFClk.c ****     * Valid range [0-1]. The number of the WDT counter. The match values are not
1092:Generated_Source\PSoC4/CyLFClk.c ****     * supported by counter 2.
1093:Generated_Source\PSoC4/CyLFClk.c ****     *
1094:Generated_Source\PSoC4/CyLFClk.c ****     * \param enable 0 to disable appropriate counter <br>
1095:Generated_Source\PSoC4/CyLFClk.c ****     *  1 to enable appropriate counter
1096:Generated_Source\PSoC4/CyLFClk.c ****     *
1097:Generated_Source\PSoC4/CyLFClk.c ****     * \details
1098:Generated_Source\PSoC4/CyLFClk.c ****     * WDT counter counterNum should be disabled. Otherwise this function call
1099:Generated_Source\PSoC4/CyLFClk.c ****     * has no effect. If the specified counter is enabled, call the CySysWdtDisable()
1100:Generated_Source\PSoC4/CyLFClk.c ****     * function with the corresponding parameter to disable the specified counter and
1101:Generated_Source\PSoC4/CyLFClk.c ****     * wait for it to stop. This may take up to three LFCLK cycles.
1102:Generated_Source\PSoC4/CyLFClk.c ****     *
1103:Generated_Source\PSoC4/CyLFClk.c ****     *******************************************************************************/
1104:Generated_Source\PSoC4/CyLFClk.c ****     void CySysWdtSetClearOnMatch(uint32 counterNum, uint32 enable)
1105:Generated_Source\PSoC4/CyLFClk.c ****     {
1106:Generated_Source\PSoC4/CyLFClk.c ****         uint32 configRegValue;
1107:Generated_Source\PSoC4/CyLFClk.c **** 
1108:Generated_Source\PSoC4/CyLFClk.c ****         CYASSERT((counterNum == CY_SYS_WDT_COUNTER0) ||
1109:Generated_Source\PSoC4/CyLFClk.c ****                  (counterNum == CY_SYS_WDT_COUNTER1));
1110:Generated_Source\PSoC4/CyLFClk.c **** 
1111:Generated_Source\PSoC4/CyLFClk.c ****         if(0u == CySysWdtGetEnabledStatus(counterNum))
1112:Generated_Source\PSoC4/CyLFClk.c ****         {
1113:Generated_Source\PSoC4/CyLFClk.c ****             configRegValue = CY_SYS_WDT_CONFIG_REG & (uint32)~((uint32)((uint32)1u << 
1114:Generated_Source\PSoC4/CyLFClk.c ****                                      ((counterNum * CY_SYS_WDT_CNT_SHIFT) + CY_SYS_WDT_CNT_MATCH_CL
1115:Generated_Source\PSoC4/CyLFClk.c **** 
1116:Generated_Source\PSoC4/CyLFClk.c ****             configRegValue
1117:Generated_Source\PSoC4/CyLFClk.c ****                 |= (uint32)(enable << ((counterNum * CY_SYS_WDT_CNT_SHIFT) + CY_SYS_WDT_CNT_MATCH_C
1118:Generated_Source\PSoC4/CyLFClk.c **** 
1119:Generated_Source\PSoC4/CyLFClk.c ****             CY_SYS_WDT_CONFIG_REG = configRegValue;
1120:Generated_Source\PSoC4/CyLFClk.c ****         }
1121:Generated_Source\PSoC4/CyLFClk.c ****     }
1122:Generated_Source\PSoC4/CyLFClk.c **** 
1123:Generated_Source\PSoC4/CyLFClk.c **** 
ARM GAS  C:\Users\EDULU~1.DES\AppData\Local\Temp\cc0Y6APw.s 			page 36


1124:Generated_Source\PSoC4/CyLFClk.c ****     /*******************************************************************************
1125:Generated_Source\PSoC4/CyLFClk.c ****     * Function Name: CySysWdtGetClearOnMatch
1126:Generated_Source\PSoC4/CyLFClk.c ****     ****************************************************************************//**
1127:Generated_Source\PSoC4/CyLFClk.c ****     * \brief
1128:Generated_Source\PSoC4/CyLFClk.c ****     * Reads the "clear on match" setting for the specified counter.
1129:Generated_Source\PSoC4/CyLFClk.c ****     *
1130:Generated_Source\PSoC4/CyLFClk.c ****     * \param
1131:Generated_Source\PSoC4/CyLFClk.c ****     * counterNum Valid range [0-1]. The number of the WDT counter. The match values
1132:Generated_Source\PSoC4/CyLFClk.c ****     * are not supported by counter 2.
1133:Generated_Source\PSoC4/CyLFClk.c ****     *
1134:Generated_Source\PSoC4/CyLFClk.c ****     * \return The "clear on match" status: <br>1 if enabled <br>0 if disabled
1135:Generated_Source\PSoC4/CyLFClk.c ****     *
1136:Generated_Source\PSoC4/CyLFClk.c ****     *******************************************************************************/
1137:Generated_Source\PSoC4/CyLFClk.c ****     uint32 CySysWdtGetClearOnMatch(uint32 counterNum)
1138:Generated_Source\PSoC4/CyLFClk.c ****     {
1139:Generated_Source\PSoC4/CyLFClk.c ****         CYASSERT((counterNum == CY_SYS_WDT_COUNTER0) ||
1140:Generated_Source\PSoC4/CyLFClk.c ****                  (counterNum == CY_SYS_WDT_COUNTER1));
1141:Generated_Source\PSoC4/CyLFClk.c **** 
1142:Generated_Source\PSoC4/CyLFClk.c ****         return (uint32)((CY_SYS_WDT_CONFIG_REG >>
1143:Generated_Source\PSoC4/CyLFClk.c ****                         ((counterNum * CY_SYS_WDT_CNT_SHIFT) + CY_SYS_WDT_CNT_MATCH_CLR_SHIFT)) & 0
1144:Generated_Source\PSoC4/CyLFClk.c ****     }
1145:Generated_Source\PSoC4/CyLFClk.c **** 
1146:Generated_Source\PSoC4/CyLFClk.c **** 
1147:Generated_Source\PSoC4/CyLFClk.c ****     /*******************************************************************************
1148:Generated_Source\PSoC4/CyLFClk.c ****     * Function Name: CySysWdtEnable
1149:Generated_Source\PSoC4/CyLFClk.c ****     ****************************************************************************//**
1150:Generated_Source\PSoC4/CyLFClk.c ****     *
1151:Generated_Source\PSoC4/CyLFClk.c ****     * \brief Enables the specified WDT counters.
1152:Generated_Source\PSoC4/CyLFClk.c ****     *
1153:Generated_Source\PSoC4/CyLFClk.c ****     * All the counters specified in the mask are enabled.
1154:Generated_Source\PSoC4/CyLFClk.c ****     *
1155:Generated_Source\PSoC4/CyLFClk.c ****     * \param counterMask
1156:Generated_Source\PSoC4/CyLFClk.c ****     *  CY_SYS_WDT_COUNTER0_MASK - The mask for counter 0 to enable.<br>
1157:Generated_Source\PSoC4/CyLFClk.c ****     * CY_SYS_WDT_COUNTER1_MASK - The mask for counter 1 to enable.<br>
1158:Generated_Source\PSoC4/CyLFClk.c ****     * CY_SYS_WDT_COUNTER2_MASK - The mask for counter 2 to enable.
1159:Generated_Source\PSoC4/CyLFClk.c ****     *
1160:Generated_Source\PSoC4/CyLFClk.c ****     * \details
1161:Generated_Source\PSoC4/CyLFClk.c ****     * Enabling or disabling WDT requires 3 LFCLK cycles to come into effect.
1162:Generated_Source\PSoC4/CyLFClk.c ****     * Therefore, the WDT enable state must not be changed more than once in
1163:Generated_Source\PSoC4/CyLFClk.c ****     * that period.
1164:Generated_Source\PSoC4/CyLFClk.c ****     *
1165:Generated_Source\PSoC4/CyLFClk.c ****     * After WDT is enabled, it is illegal to write WDT configuration (WDT_CONFIG)
1166:Generated_Source\PSoC4/CyLFClk.c ****     * and control (WDT_CONTROL) registers. This means that all WDT functions that
1167:Generated_Source\PSoC4/CyLFClk.c ****     * contain 'write' in the name (with the exception of CySysWdtSetMatch()
1168:Generated_Source\PSoC4/CyLFClk.c ****     * function) are illegal to call if WDT is enabled.
1169:Generated_Source\PSoC4/CyLFClk.c ****     *
1170:Generated_Source\PSoC4/CyLFClk.c ****     * PSoC 4100 / PSoC 4200: This function enables ILO.
1171:Generated_Source\PSoC4/CyLFClk.c ****     *
1172:Generated_Source\PSoC4/CyLFClk.c ****     * PSoC 4100 BLE / PSoC 4200 BLE / PSoC4200L / PSoC 4100M 
1173:Generated_Source\PSoC4/CyLFClk.c ****     * / PSoC 4200M:
1174:Generated_Source\PSoC4/CyLFClk.c ****     * LFLCK should be configured before calling this function. The desired
1175:Generated_Source\PSoC4/CyLFClk.c ****     * source should be enabled and configured to be the source for LFCLK.
1176:Generated_Source\PSoC4/CyLFClk.c ****     *
1177:Generated_Source\PSoC4/CyLFClk.c ****     *******************************************************************************/
1178:Generated_Source\PSoC4/CyLFClk.c ****     void CySysWdtEnable(uint32 counterMask)
1179:Generated_Source\PSoC4/CyLFClk.c ****     {
1180:Generated_Source\PSoC4/CyLFClk.c ****         #if (!CY_IP_WCO)
ARM GAS  C:\Users\EDULU~1.DES\AppData\Local\Temp\cc0Y6APw.s 			page 37


1181:Generated_Source\PSoC4/CyLFClk.c ****             CySysClkIloStart();
1182:Generated_Source\PSoC4/CyLFClk.c ****         #endif /* (!CY_IP_WCO) */
1183:Generated_Source\PSoC4/CyLFClk.c **** 
1184:Generated_Source\PSoC4/CyLFClk.c ****         CY_SYS_WDT_CONTROL_REG |= counterMask;
1185:Generated_Source\PSoC4/CyLFClk.c **** 
1186:Generated_Source\PSoC4/CyLFClk.c ****         if(0u != (counterMask & CY_SYS_WDT_COUNTER0_MASK))
1187:Generated_Source\PSoC4/CyLFClk.c ****         {
1188:Generated_Source\PSoC4/CyLFClk.c ****             while (0u == CySysWdtGetEnabledStatus(CY_SYS_WDT_COUNTER0))
1189:Generated_Source\PSoC4/CyLFClk.c ****             {
1190:Generated_Source\PSoC4/CyLFClk.c ****                 /* Wait for changes to come into effect */
1191:Generated_Source\PSoC4/CyLFClk.c ****             }
1192:Generated_Source\PSoC4/CyLFClk.c ****         }
1193:Generated_Source\PSoC4/CyLFClk.c **** 
1194:Generated_Source\PSoC4/CyLFClk.c ****         if(0u != (counterMask & CY_SYS_WDT_COUNTER1_MASK))
1195:Generated_Source\PSoC4/CyLFClk.c ****         {
1196:Generated_Source\PSoC4/CyLFClk.c ****             while (0u == CySysWdtGetEnabledStatus(CY_SYS_WDT_COUNTER1))
1197:Generated_Source\PSoC4/CyLFClk.c ****             {
1198:Generated_Source\PSoC4/CyLFClk.c ****                 /* Wait for changes to come into effect */
1199:Generated_Source\PSoC4/CyLFClk.c ****             }
1200:Generated_Source\PSoC4/CyLFClk.c ****         }
1201:Generated_Source\PSoC4/CyLFClk.c **** 
1202:Generated_Source\PSoC4/CyLFClk.c ****         if(0u != (counterMask & CY_SYS_WDT_COUNTER2_MASK))
1203:Generated_Source\PSoC4/CyLFClk.c ****         {
1204:Generated_Source\PSoC4/CyLFClk.c ****             while (0u == CySysWdtGetEnabledStatus(CY_SYS_WDT_COUNTER2))
1205:Generated_Source\PSoC4/CyLFClk.c ****             {
1206:Generated_Source\PSoC4/CyLFClk.c ****                 /* Wait for changes to come into effect */
1207:Generated_Source\PSoC4/CyLFClk.c ****             }
1208:Generated_Source\PSoC4/CyLFClk.c ****         }
1209:Generated_Source\PSoC4/CyLFClk.c ****     }
1210:Generated_Source\PSoC4/CyLFClk.c **** 
1211:Generated_Source\PSoC4/CyLFClk.c **** 
1212:Generated_Source\PSoC4/CyLFClk.c ****     /*******************************************************************************
1213:Generated_Source\PSoC4/CyLFClk.c ****     * Function Name: CySysWdtDisable
1214:Generated_Source\PSoC4/CyLFClk.c ****     ****************************************************************************//**
1215:Generated_Source\PSoC4/CyLFClk.c ****     *
1216:Generated_Source\PSoC4/CyLFClk.c ****     * \brief Disables the specified WDT counters.
1217:Generated_Source\PSoC4/CyLFClk.c ****     * All the counters specified in the mask are disabled. The function waits for 
1218:Generated_Source\PSoC4/CyLFClk.c ****     * the changes to come into effect.
1219:Generated_Source\PSoC4/CyLFClk.c ****     *
1220:Generated_Source\PSoC4/CyLFClk.c ****     * \param counterMask
1221:Generated_Source\PSoC4/CyLFClk.c ****     * CY_SYS_WDT_COUNTER0_MASK - The mask for counter 0 to disable. <br>
1222:Generated_Source\PSoC4/CyLFClk.c ****     * CY_SYS_WDT_COUNTER1_MASK - The mask for counter 1 to disable. <br>
1223:Generated_Source\PSoC4/CyLFClk.c ****     * CY_SYS_WDT_COUNTER2_MASK - The mask for counter 2 to disable.
1224:Generated_Source\PSoC4/CyLFClk.c ****     *
1225:Generated_Source\PSoC4/CyLFClk.c ****     *******************************************************************************/
1226:Generated_Source\PSoC4/CyLFClk.c ****     void CySysWdtDisable(uint32 counterMask)
1227:Generated_Source\PSoC4/CyLFClk.c ****     {
1228:Generated_Source\PSoC4/CyLFClk.c ****         if (0uL == CySysWdtLocked())
1229:Generated_Source\PSoC4/CyLFClk.c ****         {
1230:Generated_Source\PSoC4/CyLFClk.c ****             CY_SYS_WDT_CONTROL_REG &= ~counterMask;
1231:Generated_Source\PSoC4/CyLFClk.c **** 
1232:Generated_Source\PSoC4/CyLFClk.c ****             if(0u != (counterMask & CY_SYS_WDT_COUNTER0_MASK))
1233:Generated_Source\PSoC4/CyLFClk.c ****             {
1234:Generated_Source\PSoC4/CyLFClk.c ****                 while (0u != CySysWdtGetEnabledStatus(CY_SYS_WDT_COUNTER0))
1235:Generated_Source\PSoC4/CyLFClk.c ****                 {
1236:Generated_Source\PSoC4/CyLFClk.c ****                     /* Wait for changes to come into effect */
1237:Generated_Source\PSoC4/CyLFClk.c ****                 }
ARM GAS  C:\Users\EDULU~1.DES\AppData\Local\Temp\cc0Y6APw.s 			page 38


1238:Generated_Source\PSoC4/CyLFClk.c ****             }
1239:Generated_Source\PSoC4/CyLFClk.c **** 
1240:Generated_Source\PSoC4/CyLFClk.c ****             if(0u != (counterMask & CY_SYS_WDT_COUNTER1_MASK))
1241:Generated_Source\PSoC4/CyLFClk.c ****             {
1242:Generated_Source\PSoC4/CyLFClk.c ****                 while (0u != CySysWdtGetEnabledStatus(CY_SYS_WDT_COUNTER1))
1243:Generated_Source\PSoC4/CyLFClk.c ****                 {
1244:Generated_Source\PSoC4/CyLFClk.c ****                     /* Wait for changes to come into effect */
1245:Generated_Source\PSoC4/CyLFClk.c ****                 }
1246:Generated_Source\PSoC4/CyLFClk.c ****             }
1247:Generated_Source\PSoC4/CyLFClk.c **** 
1248:Generated_Source\PSoC4/CyLFClk.c ****             if(0u != (counterMask & CY_SYS_WDT_COUNTER2_MASK))
1249:Generated_Source\PSoC4/CyLFClk.c ****             {
1250:Generated_Source\PSoC4/CyLFClk.c ****                 while (0u != CySysWdtGetEnabledStatus(CY_SYS_WDT_COUNTER2))
1251:Generated_Source\PSoC4/CyLFClk.c ****                 {
1252:Generated_Source\PSoC4/CyLFClk.c ****                     /* Wait for changes to come into effect */
1253:Generated_Source\PSoC4/CyLFClk.c ****                 }
1254:Generated_Source\PSoC4/CyLFClk.c ****             }
1255:Generated_Source\PSoC4/CyLFClk.c ****         }
1256:Generated_Source\PSoC4/CyLFClk.c ****     }
1257:Generated_Source\PSoC4/CyLFClk.c **** 
1258:Generated_Source\PSoC4/CyLFClk.c **** 
1259:Generated_Source\PSoC4/CyLFClk.c ****     /*******************************************************************************
1260:Generated_Source\PSoC4/CyLFClk.c ****     * Function Name: CySysWdtSetCascade
1261:Generated_Source\PSoC4/CyLFClk.c ****     ****************************************************************************//**
1262:Generated_Source\PSoC4/CyLFClk.c ****     * \brief
1263:Generated_Source\PSoC4/CyLFClk.c ****     * Writes the two WDT cascade values based on the combination of mask values
1264:Generated_Source\PSoC4/CyLFClk.c ****     * specified.
1265:Generated_Source\PSoC4/CyLFClk.c ****     *
1266:Generated_Source\PSoC4/CyLFClk.c ****     * \param cascadeMask The mask value used to set or clear the cascade values:
1267:Generated_Source\PSoC4/CyLFClk.c ****     * CY_SYS_WDT_CASCADE_NONE - Neither <br>
1268:Generated_Source\PSoC4/CyLFClk.c ****     * CY_SYS_WDT_CASCADE_01 - Cascade 01 <br>
1269:Generated_Source\PSoC4/CyLFClk.c ****     * CY_SYS_WDT_CASCADE_12 - Cascade 12
1270:Generated_Source\PSoC4/CyLFClk.c ****     *
1271:Generated_Source\PSoC4/CyLFClk.c ****     * If only one cascade mask is specified, the second cascade is disabled.
1272:Generated_Source\PSoC4/CyLFClk.c ****     * To set both cascade modes, two defines should be ORed:
1273:Generated_Source\PSoC4/CyLFClk.c ****     * (CY_SYS_TIMER_CASCADE_01 | CY_SYS_TIMER_CASCADE_12).
1274:Generated_Source\PSoC4/CyLFClk.c ****     * \note If CySysWdtSetCascade() was called with ORed defines it is necessary 
1275:Generated_Source\PSoC4/CyLFClk.c ****     * to call CySysWdtSetClearOnMatch(1,1). It is needed to make sure that 
1276:Generated_Source\PSoC4/CyLFClk.c ****     * Counter 2 will be updated in the expected way.
1277:Generated_Source\PSoC4/CyLFClk.c ****     *
1278:Generated_Source\PSoC4/CyLFClk.c ****     * WDT counters that are part of the specified cascade should be disabled.
1279:Generated_Source\PSoC4/CyLFClk.c ****     * Otherwise this function call has no effect. If the specified
1280:Generated_Source\PSoC4/CyLFClk.c ****     * counter is enabled, call CySysWdtDisable() function with the corresponding
1281:Generated_Source\PSoC4/CyLFClk.c ****     * parameter to disable the specified counter and wait for it to stop. This may
1282:Generated_Source\PSoC4/CyLFClk.c ****     * take up to 3 LFCLK cycles.
1283:Generated_Source\PSoC4/CyLFClk.c ****     *
1284:Generated_Source\PSoC4/CyLFClk.c ****     *******************************************************************************/
1285:Generated_Source\PSoC4/CyLFClk.c ****     void CySysWdtSetCascade(uint32 cascadeMask)
1286:Generated_Source\PSoC4/CyLFClk.c ****     {
1287:Generated_Source\PSoC4/CyLFClk.c ****         uint32 configRegValue;
1288:Generated_Source\PSoC4/CyLFClk.c ****         uint32 countersEnableStatus;
1289:Generated_Source\PSoC4/CyLFClk.c **** 
1290:Generated_Source\PSoC4/CyLFClk.c ****         countersEnableStatus = CySysWdtGetEnabledStatus(CY_SYS_WDT_COUNTER0) |
1291:Generated_Source\PSoC4/CyLFClk.c ****                             CySysWdtGetEnabledStatus(CY_SYS_WDT_COUNTER1) |
1292:Generated_Source\PSoC4/CyLFClk.c ****                             CySysWdtGetEnabledStatus(CY_SYS_WDT_COUNTER2);
1293:Generated_Source\PSoC4/CyLFClk.c **** 
1294:Generated_Source\PSoC4/CyLFClk.c ****         if (0u == countersEnableStatus)
ARM GAS  C:\Users\EDULU~1.DES\AppData\Local\Temp\cc0Y6APw.s 			page 39


1295:Generated_Source\PSoC4/CyLFClk.c ****         {
1296:Generated_Source\PSoC4/CyLFClk.c ****             configRegValue = CY_SYS_WDT_CONFIG_REG;
1297:Generated_Source\PSoC4/CyLFClk.c ****             configRegValue &= ((uint32)(~(CY_SYS_WDT_CASCADE_01|CY_SYS_WDT_CASCADE_12)));
1298:Generated_Source\PSoC4/CyLFClk.c ****             configRegValue |= cascadeMask;
1299:Generated_Source\PSoC4/CyLFClk.c ****             CY_SYS_WDT_CONFIG_REG = configRegValue;
1300:Generated_Source\PSoC4/CyLFClk.c ****         }
1301:Generated_Source\PSoC4/CyLFClk.c ****     }
1302:Generated_Source\PSoC4/CyLFClk.c **** 
1303:Generated_Source\PSoC4/CyLFClk.c **** 
1304:Generated_Source\PSoC4/CyLFClk.c ****     /*******************************************************************************
1305:Generated_Source\PSoC4/CyLFClk.c ****     * Function Name: CySysWdtGetCascade
1306:Generated_Source\PSoC4/CyLFClk.c ****     ****************************************************************************//**
1307:Generated_Source\PSoC4/CyLFClk.c ****     *
1308:Generated_Source\PSoC4/CyLFClk.c ****     * \brief Reads the two WDT cascade values returning a mask of the bits set.
1309:Generated_Source\PSoC4/CyLFClk.c ****     *
1310:Generated_Source\PSoC4/CyLFClk.c ****     * \return The mask of the cascade values set.
1311:Generated_Source\PSoC4/CyLFClk.c ****     * \return CY_SYS_WDT_CASCADE_NONE - Neither
1312:Generated_Source\PSoC4/CyLFClk.c ****     * \return CY_SYS_WDT_CASCADE_01 - Cascade 01
1313:Generated_Source\PSoC4/CyLFClk.c ****     * \return CY_SYS_WDT_CASCADE_12 - Cascade 12
1314:Generated_Source\PSoC4/CyLFClk.c ****     *
1315:Generated_Source\PSoC4/CyLFClk.c ****     *******************************************************************************/
1316:Generated_Source\PSoC4/CyLFClk.c ****     uint32 CySysWdtGetCascade(void)
1317:Generated_Source\PSoC4/CyLFClk.c ****     {
1318:Generated_Source\PSoC4/CyLFClk.c ****         return (CY_SYS_WDT_CONFIG_REG & (CY_SYS_WDT_CASCADE_01 | CY_SYS_WDT_CASCADE_12));
1319:Generated_Source\PSoC4/CyLFClk.c ****     }
1320:Generated_Source\PSoC4/CyLFClk.c **** 
1321:Generated_Source\PSoC4/CyLFClk.c **** 
1322:Generated_Source\PSoC4/CyLFClk.c ****     /*******************************************************************************
1323:Generated_Source\PSoC4/CyLFClk.c ****     * Function Name: CySysWdtSetMatch
1324:Generated_Source\PSoC4/CyLFClk.c ****     ****************************************************************************//**
1325:Generated_Source\PSoC4/CyLFClk.c ****     *
1326:Generated_Source\PSoC4/CyLFClk.c ****     * \brief Configures the WDT counter match comparison value.
1327:Generated_Source\PSoC4/CyLFClk.c ****     *
1328:Generated_Source\PSoC4/CyLFClk.c ****     * \param counterNum
1329:Generated_Source\PSoC4/CyLFClk.c ****     * Valid range [0-1]. The number of the WDT counter. The match values are not
1330:Generated_Source\PSoC4/CyLFClk.c ****     * supported by counter 2.
1331:Generated_Source\PSoC4/CyLFClk.c ****     *
1332:Generated_Source\PSoC4/CyLFClk.c ****     * \param match
1333:Generated_Source\PSoC4/CyLFClk.c ****     * Valid range [0-65535]. The value to be used to match against the counter.
1334:Generated_Source\PSoC4/CyLFClk.c ****     *
1335:Generated_Source\PSoC4/CyLFClk.c ****     *******************************************************************************/
1336:Generated_Source\PSoC4/CyLFClk.c ****     void CySysWdtSetMatch(uint32 counterNum, uint32 match)
1337:Generated_Source\PSoC4/CyLFClk.c ****     {
1338:Generated_Source\PSoC4/CyLFClk.c ****         uint32 regValue;
1339:Generated_Source\PSoC4/CyLFClk.c **** 
1340:Generated_Source\PSoC4/CyLFClk.c ****         CYASSERT((counterNum == CY_SYS_WDT_COUNTER0) ||
1341:Generated_Source\PSoC4/CyLFClk.c ****                  (counterNum == CY_SYS_WDT_COUNTER1));
1342:Generated_Source\PSoC4/CyLFClk.c **** 
1343:Generated_Source\PSoC4/CyLFClk.c ****         /* Wait for previous changes to come into effect */
1344:Generated_Source\PSoC4/CyLFClk.c ****         CyDelayUs(CY_SYS_WDT_3LFCLK_DELAY_US);
1345:Generated_Source\PSoC4/CyLFClk.c **** 
1346:Generated_Source\PSoC4/CyLFClk.c ****         regValue = CY_SYS_WDT_MATCH_REG;
1347:Generated_Source\PSoC4/CyLFClk.c ****         regValue &= (uint32)~((uint32)(CY_SYS_WDT_LOWER_16BITS_MASK << (counterNum * CY_SYS_WDT_CNT
1348:Generated_Source\PSoC4/CyLFClk.c ****         CY_SYS_WDT_MATCH_REG = (regValue | (match << (counterNum * CY_SYS_WDT_CNT_MATCH_SHIFT)));
1349:Generated_Source\PSoC4/CyLFClk.c **** 
1350:Generated_Source\PSoC4/CyLFClk.c ****         /* Make sure match synchronization has started */
1351:Generated_Source\PSoC4/CyLFClk.c ****         CyDelayUs(CY_SYS_WDT_1LFCLK_DELAY_US);
ARM GAS  C:\Users\EDULU~1.DES\AppData\Local\Temp\cc0Y6APw.s 			page 40


1352:Generated_Source\PSoC4/CyLFClk.c ****     }
1353:Generated_Source\PSoC4/CyLFClk.c **** 
1354:Generated_Source\PSoC4/CyLFClk.c **** 
1355:Generated_Source\PSoC4/CyLFClk.c ****     /*******************************************************************************
1356:Generated_Source\PSoC4/CyLFClk.c ****     * Function Name: CySysWdtSetToggleBit
1357:Generated_Source\PSoC4/CyLFClk.c ****     ****************************************************************************//**
1358:Generated_Source\PSoC4/CyLFClk.c ****     * \brief
1359:Generated_Source\PSoC4/CyLFClk.c ****     * Configures which bit in WDT counter 2 to monitor for a toggle.
1360:Generated_Source\PSoC4/CyLFClk.c ****     *
1361:Generated_Source\PSoC4/CyLFClk.c ****     * When that bit toggles, an interrupt is generated if the mode for counter 2 has
1362:Generated_Source\PSoC4/CyLFClk.c ****     * enabled interrupts.
1363:Generated_Source\PSoC4/CyLFClk.c ****     *
1364:Generated_Source\PSoC4/CyLFClk.c ****     * \param bits Valid range [0-31].  Counter 2 bit to monitor for a toggle.
1365:Generated_Source\PSoC4/CyLFClk.c ****     *
1366:Generated_Source\PSoC4/CyLFClk.c ****     * \details
1367:Generated_Source\PSoC4/CyLFClk.c ****     * WDT Counter 2 should be disabled. Otherwise this function call has no
1368:Generated_Source\PSoC4/CyLFClk.c ****     * effect.
1369:Generated_Source\PSoC4/CyLFClk.c ****     *
1370:Generated_Source\PSoC4/CyLFClk.c ****     * If the specified counter is enabled, call the CySysWdtDisable() function with
1371:Generated_Source\PSoC4/CyLFClk.c ****     * the corresponding parameter to disable the specified counter and wait for it to
1372:Generated_Source\PSoC4/CyLFClk.c ****     * stop. This may take up to 3 LFCLK cycles.
1373:Generated_Source\PSoC4/CyLFClk.c ****     *
1374:Generated_Source\PSoC4/CyLFClk.c ****     *******************************************************************************/
1375:Generated_Source\PSoC4/CyLFClk.c ****     void CySysWdtSetToggleBit(uint32 bits)
1376:Generated_Source\PSoC4/CyLFClk.c ****     {
1377:Generated_Source\PSoC4/CyLFClk.c ****         uint32 configRegValue;
1378:Generated_Source\PSoC4/CyLFClk.c **** 
1379:Generated_Source\PSoC4/CyLFClk.c ****         if (0u == CySysWdtGetEnabledStatus(CY_SYS_WDT_COUNTER2))
1380:Generated_Source\PSoC4/CyLFClk.c ****         {
1381:Generated_Source\PSoC4/CyLFClk.c ****             configRegValue = CY_SYS_WDT_CONFIG_REG;
1382:Generated_Source\PSoC4/CyLFClk.c ****             configRegValue &= (uint32)(~((uint32)(CY_SYS_WDT_CONFIG_BITS2_MASK << CY_SYS_WDT_CONFIG
1383:Generated_Source\PSoC4/CyLFClk.c ****             configRegValue |= ((bits & CY_SYS_WDT_CONFIG_BITS2_MASK) << CY_SYS_WDT_CONFIG_BITS2_POS
1384:Generated_Source\PSoC4/CyLFClk.c ****             CY_SYS_WDT_CONFIG_REG = configRegValue;
1385:Generated_Source\PSoC4/CyLFClk.c ****         }
1386:Generated_Source\PSoC4/CyLFClk.c ****     }
1387:Generated_Source\PSoC4/CyLFClk.c **** 
1388:Generated_Source\PSoC4/CyLFClk.c **** 
1389:Generated_Source\PSoC4/CyLFClk.c ****     /*******************************************************************************
1390:Generated_Source\PSoC4/CyLFClk.c ****     * Function Name: CySysWdtGetToggleBit
1391:Generated_Source\PSoC4/CyLFClk.c ****     ****************************************************************************//**
1392:Generated_Source\PSoC4/CyLFClk.c ****     * \brief
1393:Generated_Source\PSoC4/CyLFClk.c ****     * Reads which bit in WDT counter 2 is monitored for a toggle.
1394:Generated_Source\PSoC4/CyLFClk.c ****     *
1395:Generated_Source\PSoC4/CyLFClk.c ****     * \return The bit that is monitored (range of 0 to 31)
1396:Generated_Source\PSoC4/CyLFClk.c ****     *
1397:Generated_Source\PSoC4/CyLFClk.c ****     *******************************************************************************/
1398:Generated_Source\PSoC4/CyLFClk.c ****     uint32 CySysWdtGetToggleBit(void)
1399:Generated_Source\PSoC4/CyLFClk.c ****     {
1400:Generated_Source\PSoC4/CyLFClk.c ****         return ((CY_SYS_WDT_CONFIG_REG >> CY_SYS_WDT_CONFIG_BITS2_POS) & CY_SYS_WDT_CONFIG_BITS2_MA
1401:Generated_Source\PSoC4/CyLFClk.c ****     }
1402:Generated_Source\PSoC4/CyLFClk.c **** 
1403:Generated_Source\PSoC4/CyLFClk.c **** 
1404:Generated_Source\PSoC4/CyLFClk.c ****     /*******************************************************************************
1405:Generated_Source\PSoC4/CyLFClk.c ****     * Function Name: CySysWdtGetMatch
1406:Generated_Source\PSoC4/CyLFClk.c ****     ****************************************************************************//**
1407:Generated_Source\PSoC4/CyLFClk.c ****     *
1408:Generated_Source\PSoC4/CyLFClk.c ****     * \brief Reads the WDT counter match comparison value.
ARM GAS  C:\Users\EDULU~1.DES\AppData\Local\Temp\cc0Y6APw.s 			page 41


1409:Generated_Source\PSoC4/CyLFClk.c ****     *
1410:Generated_Source\PSoC4/CyLFClk.c ****     * \param counterNum Valid range [0-1].  The number of the WDT counter. The match
1411:Generated_Source\PSoC4/CyLFClk.c ****     * values are not supported by counter 2.
1412:Generated_Source\PSoC4/CyLFClk.c ****     *
1413:Generated_Source\PSoC4/CyLFClk.c ****     * \return A 16-bit match value.
1414:Generated_Source\PSoC4/CyLFClk.c ****     *
1415:Generated_Source\PSoC4/CyLFClk.c ****     *******************************************************************************/
1416:Generated_Source\PSoC4/CyLFClk.c ****     uint32 CySysWdtGetMatch(uint32 counterNum)
1417:Generated_Source\PSoC4/CyLFClk.c ****     {
1418:Generated_Source\PSoC4/CyLFClk.c ****         CYASSERT((counterNum == CY_SYS_WDT_COUNTER0) ||
1419:Generated_Source\PSoC4/CyLFClk.c ****                  (counterNum == CY_SYS_WDT_COUNTER1));
1420:Generated_Source\PSoC4/CyLFClk.c **** 
1421:Generated_Source\PSoC4/CyLFClk.c ****         return ((uint32)(CY_SYS_WDT_MATCH_REG >> 
1422:Generated_Source\PSoC4/CyLFClk.c ****                                             (counterNum * CY_SYS_WDT_CNT_MATCH_SHIFT)) & CY_SYS_WDT
1423:Generated_Source\PSoC4/CyLFClk.c ****     }
1424:Generated_Source\PSoC4/CyLFClk.c **** 
1425:Generated_Source\PSoC4/CyLFClk.c **** 
1426:Generated_Source\PSoC4/CyLFClk.c ****     /*******************************************************************************
1427:Generated_Source\PSoC4/CyLFClk.c ****     * Function Name: CySysWdtGetCount
1428:Generated_Source\PSoC4/CyLFClk.c ****     ****************************************************************************//**
1429:Generated_Source\PSoC4/CyLFClk.c ****     *
1430:Generated_Source\PSoC4/CyLFClk.c ****     * \brief Reads the current WDT counter value.
1431:Generated_Source\PSoC4/CyLFClk.c ****     *
1432:Generated_Source\PSoC4/CyLFClk.c ****     * \param counterNum: Valid range [0-2]. The number of the WDT counter.
1433:Generated_Source\PSoC4/CyLFClk.c ****     *
1434:Generated_Source\PSoC4/CyLFClk.c ****     * \return A live counter value.  Counter 0 and Counter 1 are 16 bit counters 
1435:Generated_Source\PSoC4/CyLFClk.c ****     * and counter 2 is a 32 bit counter.
1436:Generated_Source\PSoC4/CyLFClk.c ****     *
1437:Generated_Source\PSoC4/CyLFClk.c ****     *******************************************************************************/
1438:Generated_Source\PSoC4/CyLFClk.c ****     uint32 CySysWdtGetCount(uint32 counterNum)
1439:Generated_Source\PSoC4/CyLFClk.c ****     {
1440:Generated_Source\PSoC4/CyLFClk.c ****         uint32 regValue = 0u;
1441:Generated_Source\PSoC4/CyLFClk.c **** 
1442:Generated_Source\PSoC4/CyLFClk.c ****         switch(counterNum)
1443:Generated_Source\PSoC4/CyLFClk.c ****         {
1444:Generated_Source\PSoC4/CyLFClk.c ****             /* WDT Counter 0 */
1445:Generated_Source\PSoC4/CyLFClk.c ****             case 0u:
1446:Generated_Source\PSoC4/CyLFClk.c ****                 regValue = CY_SYS_WDT_CTRLOW_REG & CY_SYS_WDT_LOWER_16BITS_MASK;
1447:Generated_Source\PSoC4/CyLFClk.c ****             break;
1448:Generated_Source\PSoC4/CyLFClk.c **** 
1449:Generated_Source\PSoC4/CyLFClk.c ****             /* WDT Counter 1 */
1450:Generated_Source\PSoC4/CyLFClk.c ****             case 1u:
1451:Generated_Source\PSoC4/CyLFClk.c ****                 regValue = (CY_SYS_WDT_CTRLOW_REG >> CY_SYS_WDT_CNT_MATCH_SHIFT) & CY_SYS_WDT_LOWER
1452:Generated_Source\PSoC4/CyLFClk.c ****             break;
1453:Generated_Source\PSoC4/CyLFClk.c **** 
1454:Generated_Source\PSoC4/CyLFClk.c ****             /* WDT Counter 2 */
1455:Generated_Source\PSoC4/CyLFClk.c ****             case 2u:
1456:Generated_Source\PSoC4/CyLFClk.c ****                 regValue = CY_SYS_WDT_CTRHIGH_REG;
1457:Generated_Source\PSoC4/CyLFClk.c ****             break;
1458:Generated_Source\PSoC4/CyLFClk.c **** 
1459:Generated_Source\PSoC4/CyLFClk.c ****             default:
1460:Generated_Source\PSoC4/CyLFClk.c ****                 CYASSERT(0u != 0u);
1461:Generated_Source\PSoC4/CyLFClk.c ****             break;
1462:Generated_Source\PSoC4/CyLFClk.c ****         }
1463:Generated_Source\PSoC4/CyLFClk.c **** 
1464:Generated_Source\PSoC4/CyLFClk.c ****         return (regValue);
1465:Generated_Source\PSoC4/CyLFClk.c ****     }
ARM GAS  C:\Users\EDULU~1.DES\AppData\Local\Temp\cc0Y6APw.s 			page 42


1466:Generated_Source\PSoC4/CyLFClk.c **** 
1467:Generated_Source\PSoC4/CyLFClk.c **** 
1468:Generated_Source\PSoC4/CyLFClk.c ****     /*******************************************************************************
1469:Generated_Source\PSoC4/CyLFClk.c ****     * Function Name: CySysWdtGetInterruptSource
1470:Generated_Source\PSoC4/CyLFClk.c ****     ****************************************************************************//**
1471:Generated_Source\PSoC4/CyLFClk.c ****     * \brief
1472:Generated_Source\PSoC4/CyLFClk.c ****     * Reads a mask containing all the WDT counters interrupts that are currently
1473:Generated_Source\PSoC4/CyLFClk.c ****     * set by the hardware, if a corresponding mode is selected.
1474:Generated_Source\PSoC4/CyLFClk.c ****     *
1475:Generated_Source\PSoC4/CyLFClk.c ****     * \return The mask of interrupts set
1476:Generated_Source\PSoC4/CyLFClk.c ****     * \return CY_SYS_WDT_COUNTER0_INT - Counter 0
1477:Generated_Source\PSoC4/CyLFClk.c ****     * \return CY_SYS_WDT_COUNTER1_INT - Counter 1
1478:Generated_Source\PSoC4/CyLFClk.c ****     * \return CY_SYS_WDT_COUNTER2_INT - Counter 2
1479:Generated_Source\PSoC4/CyLFClk.c ****     *
1480:Generated_Source\PSoC4/CyLFClk.c ****     *******************************************************************************/
1481:Generated_Source\PSoC4/CyLFClk.c ****     uint32 CySysWdtGetInterruptSource(void)
1482:Generated_Source\PSoC4/CyLFClk.c ****     {
1483:Generated_Source\PSoC4/CyLFClk.c ****         return (CY_SYS_WDT_CONTROL_REG & (CY_SYS_WDT_COUNTER0_INT | CY_SYS_WDT_COUNTER1_INT | CY_SY
1484:Generated_Source\PSoC4/CyLFClk.c ****     }
1485:Generated_Source\PSoC4/CyLFClk.c **** 
1486:Generated_Source\PSoC4/CyLFClk.c **** 
1487:Generated_Source\PSoC4/CyLFClk.c ****     /*******************************************************************************
1488:Generated_Source\PSoC4/CyLFClk.c ****     * Function Name: CySysWdtClearInterrupt
1489:Generated_Source\PSoC4/CyLFClk.c ****     ****************************************************************************//**
1490:Generated_Source\PSoC4/CyLFClk.c ****     * \brief
1491:Generated_Source\PSoC4/CyLFClk.c ****     * Clears all the WDT counter interrupts set in the mask.
1492:Generated_Source\PSoC4/CyLFClk.c ****     *
1493:Generated_Source\PSoC4/CyLFClk.c ****     * Calling this function also prevents from Reset when the counter mode is set 
1494:Generated_Source\PSoC4/CyLFClk.c ****     * to generate 3 interrupts and then the device resets.
1495:Generated_Source\PSoC4/CyLFClk.c ****     *
1496:Generated_Source\PSoC4/CyLFClk.c ****     * All the WDT interrupts are to be cleared by the firmware, otherwise
1497:Generated_Source\PSoC4/CyLFClk.c ****     * interrupts are generated continuously.
1498:Generated_Source\PSoC4/CyLFClk.c ****     *
1499:Generated_Source\PSoC4/CyLFClk.c ****     * \param counterMask
1500:Generated_Source\PSoC4/CyLFClk.c ****     * CY_SYS_WDT_COUNTER0_INT - Clears counter 0 interrupts <br>
1501:Generated_Source\PSoC4/CyLFClk.c ****     * CY_SYS_WDT_COUNTER1_INT - Clears counter 1 interrupts <br>
1502:Generated_Source\PSoC4/CyLFClk.c ****     * CY_SYS_WDT_COUNTER2_INT - Clears counter 2 interrupts
1503:Generated_Source\PSoC4/CyLFClk.c ****     *
1504:Generated_Source\PSoC4/CyLFClk.c ****     * \details
1505:Generated_Source\PSoC4/CyLFClk.c ****     * This function temporary removes the watchdog lock, if it was set, and
1506:Generated_Source\PSoC4/CyLFClk.c ****     * restores the lock state after cleaning the WDT interrupts that are set in
1507:Generated_Source\PSoC4/CyLFClk.c ****     * a mask.
1508:Generated_Source\PSoC4/CyLFClk.c ****     *
1509:Generated_Source\PSoC4/CyLFClk.c ****     *******************************************************************************/
1510:Generated_Source\PSoC4/CyLFClk.c ****     void CySysWdtClearInterrupt(uint32 counterMask)
1511:Generated_Source\PSoC4/CyLFClk.c ****     {
1512:Generated_Source\PSoC4/CyLFClk.c ****         uint8 interruptState;
1513:Generated_Source\PSoC4/CyLFClk.c ****         uint32 wdtLockState;
1514:Generated_Source\PSoC4/CyLFClk.c **** 
1515:Generated_Source\PSoC4/CyLFClk.c ****         interruptState = CyEnterCriticalSection();
1516:Generated_Source\PSoC4/CyLFClk.c **** 
1517:Generated_Source\PSoC4/CyLFClk.c ****         if (0u != CySysWdtLocked())
1518:Generated_Source\PSoC4/CyLFClk.c ****         {
1519:Generated_Source\PSoC4/CyLFClk.c ****             wdtLockState = 1u;
1520:Generated_Source\PSoC4/CyLFClk.c ****             CySysWdtUnlock();
1521:Generated_Source\PSoC4/CyLFClk.c ****         }
1522:Generated_Source\PSoC4/CyLFClk.c ****         else
ARM GAS  C:\Users\EDULU~1.DES\AppData\Local\Temp\cc0Y6APw.s 			page 43


1523:Generated_Source\PSoC4/CyLFClk.c ****         {
1524:Generated_Source\PSoC4/CyLFClk.c ****             wdtLockState = 0u;
1525:Generated_Source\PSoC4/CyLFClk.c ****         }
1526:Generated_Source\PSoC4/CyLFClk.c **** 
1527:Generated_Source\PSoC4/CyLFClk.c ****         /* Set new WDT control register value */
1528:Generated_Source\PSoC4/CyLFClk.c ****         counterMask &= (CY_SYS_WDT_COUNTER0_INT |
1529:Generated_Source\PSoC4/CyLFClk.c ****                         CY_SYS_WDT_COUNTER1_INT |
1530:Generated_Source\PSoC4/CyLFClk.c ****                         CY_SYS_WDT_COUNTER2_INT);
1531:Generated_Source\PSoC4/CyLFClk.c **** 
1532:Generated_Source\PSoC4/CyLFClk.c ****         CY_SYS_WDT_CONTROL_REG = counterMask | (CY_SYS_WDT_CONTROL_REG & ~(CY_SYS_WDT_COUNTER0_INT 
1533:Generated_Source\PSoC4/CyLFClk.c ****                                                                            CY_SYS_WDT_COUNTER1_INT 
1534:Generated_Source\PSoC4/CyLFClk.c ****                                                                            CY_SYS_WDT_COUNTER2_INT)
1535:Generated_Source\PSoC4/CyLFClk.c **** 
1536:Generated_Source\PSoC4/CyLFClk.c ****         /* Read the CY_SYS_WDT_CONTROL_REG to clear the interrupt request.
1537:Generated_Source\PSoC4/CyLFClk.c ****          * Cypress ID #207093, #206231
1538:Generated_Source\PSoC4/CyLFClk.c ****         */
1539:Generated_Source\PSoC4/CyLFClk.c ****         (void)CY_SYS_WDT_CONTROL_REG;
1540:Generated_Source\PSoC4/CyLFClk.c **** 
1541:Generated_Source\PSoC4/CyLFClk.c ****         if (1u == wdtLockState)
1542:Generated_Source\PSoC4/CyLFClk.c ****         {
1543:Generated_Source\PSoC4/CyLFClk.c ****             CySysWdtLock();
1544:Generated_Source\PSoC4/CyLFClk.c ****         }
1545:Generated_Source\PSoC4/CyLFClk.c **** 
1546:Generated_Source\PSoC4/CyLFClk.c ****         CyExitCriticalSection(interruptState);
1547:Generated_Source\PSoC4/CyLFClk.c ****     }
1548:Generated_Source\PSoC4/CyLFClk.c **** 
1549:Generated_Source\PSoC4/CyLFClk.c **** 
1550:Generated_Source\PSoC4/CyLFClk.c ****     /*******************************************************************************
1551:Generated_Source\PSoC4/CyLFClk.c ****     * Function Name: CySysWdtResetCounters
1552:Generated_Source\PSoC4/CyLFClk.c ****     ****************************************************************************//**
1553:Generated_Source\PSoC4/CyLFClk.c ****     * \brief
1554:Generated_Source\PSoC4/CyLFClk.c ****     * Resets all the WDT counters set in the mask.
1555:Generated_Source\PSoC4/CyLFClk.c ****     *
1556:Generated_Source\PSoC4/CyLFClk.c ****     * \param countersMask
1557:Generated_Source\PSoC4/CyLFClk.c ****     * CY_SYS_WDT_COUNTER0_RESET - Reset counter 0 <br>
1558:Generated_Source\PSoC4/CyLFClk.c ****     * CY_SYS_WDT_COUNTER1_RESET - Reset counter 1 <br>
1559:Generated_Source\PSoC4/CyLFClk.c ****     * CY_SYS_WDT_COUNTER2_RESET - Reset counter 2
1560:Generated_Source\PSoC4/CyLFClk.c ****     *
1561:Generated_Source\PSoC4/CyLFClk.c ****     * \details
1562:Generated_Source\PSoC4/CyLFClk.c ****     * This function does not reset counter values if the Watchdog is locked.
1563:Generated_Source\PSoC4/CyLFClk.c ****     * This function waits while corresponding counters will be reset. This may
1564:Generated_Source\PSoC4/CyLFClk.c ****     * take up to 3 LFCLK cycles.
1565:Generated_Source\PSoC4/CyLFClk.c ****     * The LFCLK source must be enabled. Otherwise, the function will never exit.
1566:Generated_Source\PSoC4/CyLFClk.c ****     *
1567:Generated_Source\PSoC4/CyLFClk.c ****     *******************************************************************************/
1568:Generated_Source\PSoC4/CyLFClk.c ****     void CySysWdtResetCounters(uint32 countersMask)
1569:Generated_Source\PSoC4/CyLFClk.c ****     {
1570:Generated_Source\PSoC4/CyLFClk.c ****         /* Set new WDT reset value */
1571:Generated_Source\PSoC4/CyLFClk.c ****         CY_SYS_WDT_CONTROL_REG |= (countersMask & CY_SYS_WDT_COUNTERS_RESET);
1572:Generated_Source\PSoC4/CyLFClk.c **** 
1573:Generated_Source\PSoC4/CyLFClk.c ****         while (0uL != (CY_SYS_WDT_CONTROL_REG & CY_SYS_WDT_COUNTERS_RESET))
1574:Generated_Source\PSoC4/CyLFClk.c ****         {
1575:Generated_Source\PSoC4/CyLFClk.c ****             /* Wait for reset to come into effect */
1576:Generated_Source\PSoC4/CyLFClk.c ****         }
1577:Generated_Source\PSoC4/CyLFClk.c ****     }
1578:Generated_Source\PSoC4/CyLFClk.c **** 
1579:Generated_Source\PSoC4/CyLFClk.c **** 
ARM GAS  C:\Users\EDULU~1.DES\AppData\Local\Temp\cc0Y6APw.s 			page 44


1580:Generated_Source\PSoC4/CyLFClk.c ****     /*******************************************************************************
1581:Generated_Source\PSoC4/CyLFClk.c ****     * Function Name: CySysWdtSetInterruptCallback
1582:Generated_Source\PSoC4/CyLFClk.c ****     ****************************************************************************//**
1583:Generated_Source\PSoC4/CyLFClk.c ****     * \brief
1584:Generated_Source\PSoC4/CyLFClk.c ****     * Sets the ISR callback function for the particular WDT counter.
1585:Generated_Source\PSoC4/CyLFClk.c ****     * These functions are called on the WDT interrupt.
1586:Generated_Source\PSoC4/CyLFClk.c ****     *
1587:Generated_Source\PSoC4/CyLFClk.c ****     * \param counterNum The number of the WDT counter.
1588:Generated_Source\PSoC4/CyLFClk.c ****     * \param function The pointer to the callback function.
1589:Generated_Source\PSoC4/CyLFClk.c ****     *
1590:Generated_Source\PSoC4/CyLFClk.c ****     * \return The pointer to the previous callback function.
1591:Generated_Source\PSoC4/CyLFClk.c ****     * \return NULL is returned if the specified address is not set.
1592:Generated_Source\PSoC4/CyLFClk.c ****     *
1593:Generated_Source\PSoC4/CyLFClk.c ****     *******************************************************************************/
1594:Generated_Source\PSoC4/CyLFClk.c ****     cyWdtCallback CySysWdtSetInterruptCallback(uint32 counterNum, cyWdtCallback function)
1595:Generated_Source\PSoC4/CyLFClk.c ****     {
1596:Generated_Source\PSoC4/CyLFClk.c ****         cyWdtCallback prevCallback = (void *)0;
1597:Generated_Source\PSoC4/CyLFClk.c **** 
1598:Generated_Source\PSoC4/CyLFClk.c ****         if(counterNum < CY_WDT_NUM_OF_WDT)
1599:Generated_Source\PSoC4/CyLFClk.c ****         {
1600:Generated_Source\PSoC4/CyLFClk.c ****             prevCallback = cySysWdtCallback[counterNum];
1601:Generated_Source\PSoC4/CyLFClk.c ****             cySysWdtCallback[counterNum] = function;
1602:Generated_Source\PSoC4/CyLFClk.c ****         }
1603:Generated_Source\PSoC4/CyLFClk.c ****         else
1604:Generated_Source\PSoC4/CyLFClk.c ****         {
1605:Generated_Source\PSoC4/CyLFClk.c ****             CYASSERT(0u != 0u);
1606:Generated_Source\PSoC4/CyLFClk.c ****         }
1607:Generated_Source\PSoC4/CyLFClk.c **** 
1608:Generated_Source\PSoC4/CyLFClk.c ****         return((cyWdtCallback)prevCallback);
1609:Generated_Source\PSoC4/CyLFClk.c ****     }
1610:Generated_Source\PSoC4/CyLFClk.c **** 
1611:Generated_Source\PSoC4/CyLFClk.c **** 
1612:Generated_Source\PSoC4/CyLFClk.c ****     /*******************************************************************************
1613:Generated_Source\PSoC4/CyLFClk.c ****     * Function Name: CySysWdtGetInterruptCallback
1614:Generated_Source\PSoC4/CyLFClk.c ****     ****************************************************************************//**
1615:Generated_Source\PSoC4/CyLFClk.c ****     * \brief
1616:Generated_Source\PSoC4/CyLFClk.c ****     * Gets the ISR callback function for the particular WDT counter.
1617:Generated_Source\PSoC4/CyLFClk.c ****     *
1618:Generated_Source\PSoC4/CyLFClk.c ****     * \param counterNum The number of the WDT counter.
1619:Generated_Source\PSoC4/CyLFClk.c ****     *
1620:Generated_Source\PSoC4/CyLFClk.c ****     * \return The pointer to the callback function registered for a particular WDT by
1621:Generated_Source\PSoC4/CyLFClk.c ****     * a particular address that are passed through arguments.
1622:Generated_Source\PSoC4/CyLFClk.c ****     *
1623:Generated_Source\PSoC4/CyLFClk.c ****     *******************************************************************************/
1624:Generated_Source\PSoC4/CyLFClk.c ****     cyWdtCallback CySysWdtGetInterruptCallback(uint32 counterNum)
1625:Generated_Source\PSoC4/CyLFClk.c ****     {
1626:Generated_Source\PSoC4/CyLFClk.c ****         cyWdtCallback retCallback = (void *)0;
1627:Generated_Source\PSoC4/CyLFClk.c **** 
1628:Generated_Source\PSoC4/CyLFClk.c ****         if(counterNum < CY_WDT_NUM_OF_WDT)
1629:Generated_Source\PSoC4/CyLFClk.c ****         {
1630:Generated_Source\PSoC4/CyLFClk.c ****             retCallback = (cyWdtCallback)cySysWdtCallback[counterNum];
1631:Generated_Source\PSoC4/CyLFClk.c ****         }
1632:Generated_Source\PSoC4/CyLFClk.c ****         else
1633:Generated_Source\PSoC4/CyLFClk.c ****         {
1634:Generated_Source\PSoC4/CyLFClk.c ****             CYASSERT(0u != 0u);
1635:Generated_Source\PSoC4/CyLFClk.c ****         }
1636:Generated_Source\PSoC4/CyLFClk.c **** 
ARM GAS  C:\Users\EDULU~1.DES\AppData\Local\Temp\cc0Y6APw.s 			page 45


1637:Generated_Source\PSoC4/CyLFClk.c ****         return(retCallback);
1638:Generated_Source\PSoC4/CyLFClk.c ****     }
1639:Generated_Source\PSoC4/CyLFClk.c **** 
1640:Generated_Source\PSoC4/CyLFClk.c **** 
1641:Generated_Source\PSoC4/CyLFClk.c ****     /*******************************************************************************
1642:Generated_Source\PSoC4/CyLFClk.c ****     * Function Name: CySysWdtEnableCounterIsr
1643:Generated_Source\PSoC4/CyLFClk.c ****     ****************************************************************************//**
1644:Generated_Source\PSoC4/CyLFClk.c ****     * \brief
1645:Generated_Source\PSoC4/CyLFClk.c ****     * Enables the ISR callback servicing for the particular WDT counter
1646:Generated_Source\PSoC4/CyLFClk.c ****     *
1647:Generated_Source\PSoC4/CyLFClk.c ****     * \param counterNum Valid range [0-2]. The number of the WDT counter.
1648:Generated_Source\PSoC4/CyLFClk.c ****     *
1649:Generated_Source\PSoC4/CyLFClk.c ****     * Value corresponds to appropriate WDT counter. For example value 1 
1650:Generated_Source\PSoC4/CyLFClk.c ****     * corresponds to second WDT counter.
1651:Generated_Source\PSoC4/CyLFClk.c ****     *
1652:Generated_Source\PSoC4/CyLFClk.c ****     *******************************************************************************/
1653:Generated_Source\PSoC4/CyLFClk.c ****     void CySysWdtEnableCounterIsr(uint32 counterNum)
1654:Generated_Source\PSoC4/CyLFClk.c ****     {
1655:Generated_Source\PSoC4/CyLFClk.c ****         if(counterNum <= CY_SYS_WDT_COUNTER2)
1656:Generated_Source\PSoC4/CyLFClk.c ****         {
1657:Generated_Source\PSoC4/CyLFClk.c ****             disableServicedIsr &= ~counterIntMaskTbl[counterNum];
1658:Generated_Source\PSoC4/CyLFClk.c ****             wdtIsrMask |= counterIntMaskTbl[counterNum];
1659:Generated_Source\PSoC4/CyLFClk.c ****         }
1660:Generated_Source\PSoC4/CyLFClk.c ****         else
1661:Generated_Source\PSoC4/CyLFClk.c ****         {
1662:Generated_Source\PSoC4/CyLFClk.c ****             CYASSERT(0u != 0u);
1663:Generated_Source\PSoC4/CyLFClk.c ****         }
1664:Generated_Source\PSoC4/CyLFClk.c ****     }
1665:Generated_Source\PSoC4/CyLFClk.c **** 
1666:Generated_Source\PSoC4/CyLFClk.c **** 
1667:Generated_Source\PSoC4/CyLFClk.c ****     /*******************************************************************************
1668:Generated_Source\PSoC4/CyLFClk.c ****     * Function Name: CySysWdtDisableCounterIsr
1669:Generated_Source\PSoC4/CyLFClk.c ****     ****************************************************************************//**
1670:Generated_Source\PSoC4/CyLFClk.c ****     * \brief
1671:Generated_Source\PSoC4/CyLFClk.c ****     * Disables the ISR callback servicing for the particular WDT counter
1672:Generated_Source\PSoC4/CyLFClk.c ****     *
1673:Generated_Source\PSoC4/CyLFClk.c ****     * \param counterNum Valid range [0-2]. The number of the WDT counter.
1674:Generated_Source\PSoC4/CyLFClk.c ****     *
1675:Generated_Source\PSoC4/CyLFClk.c ****     *******************************************************************************/
1676:Generated_Source\PSoC4/CyLFClk.c ****     void CySysWdtDisableCounterIsr(uint32 counterNum)
1677:Generated_Source\PSoC4/CyLFClk.c ****     {
1678:Generated_Source\PSoC4/CyLFClk.c ****         if(counterNum <= CY_SYS_WDT_COUNTER2)
1679:Generated_Source\PSoC4/CyLFClk.c ****         {
1680:Generated_Source\PSoC4/CyLFClk.c ****             wdtIsrMask &= ~counterIntMaskTbl[counterNum];
1681:Generated_Source\PSoC4/CyLFClk.c ****         }
1682:Generated_Source\PSoC4/CyLFClk.c ****         else
1683:Generated_Source\PSoC4/CyLFClk.c ****         {
1684:Generated_Source\PSoC4/CyLFClk.c ****             CYASSERT(0u != 0u);
1685:Generated_Source\PSoC4/CyLFClk.c ****         }
1686:Generated_Source\PSoC4/CyLFClk.c ****     }
1687:Generated_Source\PSoC4/CyLFClk.c **** 
1688:Generated_Source\PSoC4/CyLFClk.c **** 
1689:Generated_Source\PSoC4/CyLFClk.c ****     /*******************************************************************************
1690:Generated_Source\PSoC4/CyLFClk.c ****     * Function Name: CySysWdtIsr
1691:Generated_Source\PSoC4/CyLFClk.c ****     ****************************************************************************//**
1692:Generated_Source\PSoC4/CyLFClk.c ****     * \brief
1693:Generated_Source\PSoC4/CyLFClk.c ****     * This is the handler of the WDT interrupt in CPU NVIC.
ARM GAS  C:\Users\EDULU~1.DES\AppData\Local\Temp\cc0Y6APw.s 			page 46


1694:Generated_Source\PSoC4/CyLFClk.c ****     *
1695:Generated_Source\PSoC4/CyLFClk.c ****     * The handler checks which WDT triggered in the interrupt and calls the 
1696:Generated_Source\PSoC4/CyLFClk.c ****     * respective callback functions configured by the user by using 
1697:Generated_Source\PSoC4/CyLFClk.c ****     * CySysWdtSetIsrCallback() API.
1698:Generated_Source\PSoC4/CyLFClk.c ****     *
1699:Generated_Source\PSoC4/CyLFClk.c ****     * The order of the callback execution is incremental. Callback-0 is
1700:Generated_Source\PSoC4/CyLFClk.c ****     * run as the first one and callback-2 is called as the last one.
1701:Generated_Source\PSoC4/CyLFClk.c ****     *
1702:Generated_Source\PSoC4/CyLFClk.c ****     * \details
1703:Generated_Source\PSoC4/CyLFClk.c ****     * This function clears the WDT interrupt every time when it is called.
1704:Generated_Source\PSoC4/CyLFClk.c ****     * Reset after the 3rd interrupt does not happen if this function is registered
1705:Generated_Source\PSoC4/CyLFClk.c ****     * as the interrupt handler even if the "Watchdog with Interrupt" mode is
1706:Generated_Source\PSoC4/CyLFClk.c ****     * selected on the "Low Frequency Clocks" tab.
1707:Generated_Source\PSoC4/CyLFClk.c ****     *
1708:Generated_Source\PSoC4/CyLFClk.c ****     *******************************************************************************/
1709:Generated_Source\PSoC4/CyLFClk.c ****     void CySysWdtIsr(void)
1710:Generated_Source\PSoC4/CyLFClk.c ****     {
1711:Generated_Source\PSoC4/CyLFClk.c ****         if(0u != (CY_SYS_WDT_COUNTER0_INT & CY_SYS_WDT_CONTROL_REG))
1712:Generated_Source\PSoC4/CyLFClk.c ****         {
1713:Generated_Source\PSoC4/CyLFClk.c ****             if(0u != (CY_SYS_WDT_COUNTER0_INT & wdtIsrMask))
1714:Generated_Source\PSoC4/CyLFClk.c ****             {
1715:Generated_Source\PSoC4/CyLFClk.c ****                 wdtIsrMask &= ~(disableServicedIsr & CY_SYS_WDT_COUNTER0_INT);
1716:Generated_Source\PSoC4/CyLFClk.c ****                 disableServicedIsr  &= ~CY_SYS_WDT_COUNTER0_INT;
1717:Generated_Source\PSoC4/CyLFClk.c ****                 if(cySysWdtCallback[CY_SYS_WDT_COUNTER0] != (void *) 0)
1718:Generated_Source\PSoC4/CyLFClk.c ****                 {
1719:Generated_Source\PSoC4/CyLFClk.c ****                     (void)(cySysWdtCallback[CY_SYS_WDT_COUNTER0])();
1720:Generated_Source\PSoC4/CyLFClk.c ****                 }
1721:Generated_Source\PSoC4/CyLFClk.c ****             }
1722:Generated_Source\PSoC4/CyLFClk.c ****             CySysWdtClearInterrupt(CY_SYS_WDT_COUNTER0_INT);
1723:Generated_Source\PSoC4/CyLFClk.c ****         }
1724:Generated_Source\PSoC4/CyLFClk.c **** 
1725:Generated_Source\PSoC4/CyLFClk.c ****         if(0u != (CY_SYS_WDT_COUNTER1_INT & CY_SYS_WDT_CONTROL_REG))
1726:Generated_Source\PSoC4/CyLFClk.c ****         {
1727:Generated_Source\PSoC4/CyLFClk.c ****             if(0u != (CY_SYS_WDT_COUNTER1_INT & wdtIsrMask))
1728:Generated_Source\PSoC4/CyLFClk.c ****             {
1729:Generated_Source\PSoC4/CyLFClk.c ****                 wdtIsrMask &= ~(disableServicedIsr & CY_SYS_WDT_COUNTER1_INT);
1730:Generated_Source\PSoC4/CyLFClk.c ****                 disableServicedIsr  &= ~CY_SYS_WDT_COUNTER1_INT;
1731:Generated_Source\PSoC4/CyLFClk.c ****                 if(cySysWdtCallback[CY_SYS_WDT_COUNTER1] != (void *) 0)
1732:Generated_Source\PSoC4/CyLFClk.c ****                 {
1733:Generated_Source\PSoC4/CyLFClk.c ****                     (void)(cySysWdtCallback[CY_SYS_WDT_COUNTER1])();
1734:Generated_Source\PSoC4/CyLFClk.c ****                 }
1735:Generated_Source\PSoC4/CyLFClk.c ****             }
1736:Generated_Source\PSoC4/CyLFClk.c ****             CySysWdtClearInterrupt(CY_SYS_WDT_COUNTER1_INT);
1737:Generated_Source\PSoC4/CyLFClk.c ****         }
1738:Generated_Source\PSoC4/CyLFClk.c **** 
1739:Generated_Source\PSoC4/CyLFClk.c ****         if(0u != (CY_SYS_WDT_COUNTER2_INT & CY_SYS_WDT_CONTROL_REG))
1740:Generated_Source\PSoC4/CyLFClk.c ****         {
1741:Generated_Source\PSoC4/CyLFClk.c ****             if(0u != (CY_SYS_WDT_COUNTER2_INT & wdtIsrMask))
1742:Generated_Source\PSoC4/CyLFClk.c ****             {
1743:Generated_Source\PSoC4/CyLFClk.c ****                 if(cySysWdtCallback[CY_SYS_WDT_COUNTER2] != (void *) 0)
1744:Generated_Source\PSoC4/CyLFClk.c ****                 {
1745:Generated_Source\PSoC4/CyLFClk.c ****                     (void)(cySysWdtCallback[CY_SYS_WDT_COUNTER2])();
1746:Generated_Source\PSoC4/CyLFClk.c ****                 }
1747:Generated_Source\PSoC4/CyLFClk.c ****             }
1748:Generated_Source\PSoC4/CyLFClk.c ****             CySysWdtClearInterrupt(CY_SYS_WDT_COUNTER2_INT);
1749:Generated_Source\PSoC4/CyLFClk.c ****         }
1750:Generated_Source\PSoC4/CyLFClk.c ****     }
ARM GAS  C:\Users\EDULU~1.DES\AppData\Local\Temp\cc0Y6APw.s 			page 47


1751:Generated_Source\PSoC4/CyLFClk.c **** 
1752:Generated_Source\PSoC4/CyLFClk.c **** 
1753:Generated_Source\PSoC4/CyLFClk.c ****     /*******************************************************************************
1754:Generated_Source\PSoC4/CyLFClk.c ****     * Function Name: CySysWatchdogFeed
1755:Generated_Source\PSoC4/CyLFClk.c ****     ****************************************************************************//**
1756:Generated_Source\PSoC4/CyLFClk.c ****     * \brief
1757:Generated_Source\PSoC4/CyLFClk.c ****     * Feeds the corresponded Watchdog Counter before it causes the device reset.
1758:Generated_Source\PSoC4/CyLFClk.c ****     *
1759:Generated_Source\PSoC4/CyLFClk.c ****     * Supported only for first WDT0 and second WDT1 counters in the "Watchdog" or 
1760:Generated_Source\PSoC4/CyLFClk.c ****     * "Watchdog w/ Interrupts" modes.
1761:Generated_Source\PSoC4/CyLFClk.c ****     *
1762:Generated_Source\PSoC4/CyLFClk.c ****     * \param counterNum
1763:Generated_Source\PSoC4/CyLFClk.c ****     * CY_SYS_WDT_COUNTER0 - Feeds the Counter 0 <br>
1764:Generated_Source\PSoC4/CyLFClk.c ****     * CY_SYS_WDT_COUNTER1 - Feeds the Counter 1
1765:Generated_Source\PSoC4/CyLFClk.c ****     *
1766:Generated_Source\PSoC4/CyLFClk.c ****     * Value of counterNum corresponds to appropriate counter. For example value 1 
1767:Generated_Source\PSoC4/CyLFClk.c ****     * corresponds to second WDT1 Counter.
1768:Generated_Source\PSoC4/CyLFClk.c ****     *
1769:Generated_Source\PSoC4/CyLFClk.c ****     * \details
1770:Generated_Source\PSoC4/CyLFClk.c ****     * Clears the WDT counter in the "Watchdog" mode or clears the WDT interrupt in
1771:Generated_Source\PSoC4/CyLFClk.c ****     * "Watchdog w/ Interrupts" mode. Does nothing in other modes.
1772:Generated_Source\PSoC4/CyLFClk.c ****     *
1773:Generated_Source\PSoC4/CyLFClk.c ****     *******************************************************************************/
1774:Generated_Source\PSoC4/CyLFClk.c ****     void CySysWatchdogFeed(uint32 counterNum)
1775:Generated_Source\PSoC4/CyLFClk.c ****     {
1776:Generated_Source\PSoC4/CyLFClk.c ****         if(counterNum == CY_SYS_WDT_COUNTER0)
1777:Generated_Source\PSoC4/CyLFClk.c ****         {
1778:Generated_Source\PSoC4/CyLFClk.c ****             if(CY_SYS_WDT_MODE_INT_RESET == CySysWdtGetMode(counterNum))
1779:Generated_Source\PSoC4/CyLFClk.c ****             {
1780:Generated_Source\PSoC4/CyLFClk.c ****                 CySysWdtClearInterrupt(CY_SYS_WDT_COUNTER0_INT);
1781:Generated_Source\PSoC4/CyLFClk.c ****             }
1782:Generated_Source\PSoC4/CyLFClk.c ****             else if(CY_SYS_WDT_MODE_RESET == CySysWdtGetMode(counterNum))
1783:Generated_Source\PSoC4/CyLFClk.c ****             {
1784:Generated_Source\PSoC4/CyLFClk.c ****                 CySysWdtResetCounters(CY_SYS_WDT_COUNTER0_RESET);
1785:Generated_Source\PSoC4/CyLFClk.c ****                 CySysWdtClearInterrupt(CY_SYS_WDT_COUNTER0_INT);
1786:Generated_Source\PSoC4/CyLFClk.c ****             }
1787:Generated_Source\PSoC4/CyLFClk.c ****             else
1788:Generated_Source\PSoC4/CyLFClk.c ****             {
1789:Generated_Source\PSoC4/CyLFClk.c ****                 /* Do nothing. */
1790:Generated_Source\PSoC4/CyLFClk.c ****             }
1791:Generated_Source\PSoC4/CyLFClk.c ****         }
1792:Generated_Source\PSoC4/CyLFClk.c ****         else if(counterNum == CY_SYS_WDT_COUNTER1)
1793:Generated_Source\PSoC4/CyLFClk.c ****         {
1794:Generated_Source\PSoC4/CyLFClk.c ****             if(CY_SYS_WDT_MODE_INT_RESET == CySysWdtGetMode(counterNum))
1795:Generated_Source\PSoC4/CyLFClk.c ****             {
1796:Generated_Source\PSoC4/CyLFClk.c ****                 CySysWdtClearInterrupt(CY_SYS_WDT_COUNTER1_INT);
1797:Generated_Source\PSoC4/CyLFClk.c ****             }
1798:Generated_Source\PSoC4/CyLFClk.c ****             else if(CY_SYS_WDT_MODE_RESET == CySysWdtGetMode(counterNum))
1799:Generated_Source\PSoC4/CyLFClk.c ****             {
1800:Generated_Source\PSoC4/CyLFClk.c ****                 CySysWdtResetCounters(CY_SYS_WDT_COUNTER1_RESET);
1801:Generated_Source\PSoC4/CyLFClk.c ****                 CySysWdtClearInterrupt(CY_SYS_WDT_COUNTER1_INT);
1802:Generated_Source\PSoC4/CyLFClk.c ****             }
1803:Generated_Source\PSoC4/CyLFClk.c ****             else
1804:Generated_Source\PSoC4/CyLFClk.c ****             {
1805:Generated_Source\PSoC4/CyLFClk.c ****                 /* Do nothing. */
1806:Generated_Source\PSoC4/CyLFClk.c ****             }
1807:Generated_Source\PSoC4/CyLFClk.c ****         }
ARM GAS  C:\Users\EDULU~1.DES\AppData\Local\Temp\cc0Y6APw.s 			page 48


1808:Generated_Source\PSoC4/CyLFClk.c ****         else
1809:Generated_Source\PSoC4/CyLFClk.c ****         {
1810:Generated_Source\PSoC4/CyLFClk.c ****             /* Do nothing. */
1811:Generated_Source\PSoC4/CyLFClk.c ****         }
1812:Generated_Source\PSoC4/CyLFClk.c ****     }
1813:Generated_Source\PSoC4/CyLFClk.c **** 
1814:Generated_Source\PSoC4/CyLFClk.c **** 
1815:Generated_Source\PSoC4/CyLFClk.c ****     /*******************************************************************************
1816:Generated_Source\PSoC4/CyLFClk.c ****     * Function Name: CySysClkLfclkPosedgeCatch
1817:Generated_Source\PSoC4/CyLFClk.c ****     ****************************************************************************//**
1818:Generated_Source\PSoC4/CyLFClk.c ****     * \internal
1819:Generated_Source\PSoC4/CyLFClk.c ****     * Returns once the LFCLK positive edge occurred.
1820:Generated_Source\PSoC4/CyLFClk.c ****     *
1821:Generated_Source\PSoC4/CyLFClk.c ****     * CySysClkLfclkPosedgeRestore() should be called after this function
1822:Generated_Source\PSoC4/CyLFClk.c ****     * to restore the WDT configuration.
1823:Generated_Source\PSoC4/CyLFClk.c ****     *
1824:Generated_Source\PSoC4/CyLFClk.c ****     * A pair of the CySysClkLfclkPosedgeCatch() and CySysClkLfclkPosedgeRestore()
1825:Generated_Source\PSoC4/CyLFClk.c ****     * functions is expected to be called inside a critical section.
1826:Generated_Source\PSoC4/CyLFClk.c ****     *
1827:Generated_Source\PSoC4/CyLFClk.c ****     * To ensure that the WDT counter value is read until it changes, the enabled
1828:Generated_Source\PSoC4/CyLFClk.c ****     * WDT counter is used. If no counter is enabled, counter 0 is enabled.
1829:Generated_Source\PSoC4/CyLFClk.c ****     * And after the LFCLK source is switched, the counter 0 configuration
1830:Generated_Source\PSoC4/CyLFClk.c ****     * is restored.
1831:Generated_Source\PSoC4/CyLFClk.c ****     *
1832:Generated_Source\PSoC4/CyLFClk.c ****     * Not applicable for the PSoC 4000 / PSoC 4000S / PSoC 4100S / PSoC Analog 
1833:Generated_Source\PSoC4/CyLFClk.c ****     * Coprocessor devices.
1834:Generated_Source\PSoC4/CyLFClk.c ****     *
1835:Generated_Source\PSoC4/CyLFClk.c ****     * \details
1836:Generated_Source\PSoC4/CyLFClk.c ****     * This function has no effect if WDT is locked (CySysWdtLock() is
1837:Generated_Source\PSoC4/CyLFClk.c ****     * called). Call CySysWdtUnlock() to unlock WDT.
1838:Generated_Source\PSoC4/CyLFClk.c ****     * \endinternal
1839:Generated_Source\PSoC4/CyLFClk.c ****     *******************************************************************************/
1840:Generated_Source\PSoC4/CyLFClk.c ****     static void CySysClkLfclkPosedgeCatch(void)
1841:Generated_Source\PSoC4/CyLFClk.c ****     {
1842:Generated_Source\PSoC4/CyLFClk.c ****         uint32 firstCount;
1843:Generated_Source\PSoC4/CyLFClk.c ****         static uint32 lfclkPosedgeEnabledWdtCounter = 0u;
1844:Generated_Source\PSoC4/CyLFClk.c **** 
1845:Generated_Source\PSoC4/CyLFClk.c ****         if (0u != CySysWdtGetEnabledStatus(CY_SYS_WDT_COUNTER0))
1846:Generated_Source\PSoC4/CyLFClk.c ****         {
1847:Generated_Source\PSoC4/CyLFClk.c ****             lfclkPosedgeEnabledWdtCounter = CY_SYS_WDT_COUNTER0;
1848:Generated_Source\PSoC4/CyLFClk.c ****         }
1849:Generated_Source\PSoC4/CyLFClk.c ****         else if (0u != CySysWdtGetEnabledStatus(CY_SYS_WDT_COUNTER1))
1850:Generated_Source\PSoC4/CyLFClk.c ****         {
1851:Generated_Source\PSoC4/CyLFClk.c ****             lfclkPosedgeEnabledWdtCounter = CY_SYS_WDT_COUNTER1;
1852:Generated_Source\PSoC4/CyLFClk.c ****         }
1853:Generated_Source\PSoC4/CyLFClk.c ****         else if (0u != CySysWdtGetEnabledStatus(CY_SYS_WDT_COUNTER2))
1854:Generated_Source\PSoC4/CyLFClk.c ****         {
1855:Generated_Source\PSoC4/CyLFClk.c ****             lfclkPosedgeEnabledWdtCounter = CY_SYS_WDT_COUNTER2;
1856:Generated_Source\PSoC4/CyLFClk.c ****         }
1857:Generated_Source\PSoC4/CyLFClk.c ****         else /* All WDT counters are disabled */
1858:Generated_Source\PSoC4/CyLFClk.c ****         {
1859:Generated_Source\PSoC4/CyLFClk.c ****             /* Configure WDT counter # 0 */
1860:Generated_Source\PSoC4/CyLFClk.c ****             lfclkPosedgeWdtCounter0Enabled = 1u;
1861:Generated_Source\PSoC4/CyLFClk.c ****             lfclkPosedgeEnabledWdtCounter = CY_SYS_WDT_COUNTER0;
1862:Generated_Source\PSoC4/CyLFClk.c **** 
1863:Generated_Source\PSoC4/CyLFClk.c ****             lfclkPosedgeWdtCounter0Mode = CySysWdtGetMode(CY_SYS_WDT_COUNTER0);
1864:Generated_Source\PSoC4/CyLFClk.c ****             CySysWdtSetMode(CY_SYS_WDT_COUNTER0, CY_SYS_WDT_MODE_NONE);
ARM GAS  C:\Users\EDULU~1.DES\AppData\Local\Temp\cc0Y6APw.s 			page 49


1865:Generated_Source\PSoC4/CyLFClk.c ****             CySysWdtEnable(CY_SYS_WDT_COUNTER0_MASK);
1866:Generated_Source\PSoC4/CyLFClk.c ****         }
1867:Generated_Source\PSoC4/CyLFClk.c **** 
1868:Generated_Source\PSoC4/CyLFClk.c ****         firstCount = CySysWdtGetCount(lfclkPosedgeEnabledWdtCounter);
1869:Generated_Source\PSoC4/CyLFClk.c ****         while (CySysWdtGetCount(lfclkPosedgeEnabledWdtCounter) == firstCount)
1870:Generated_Source\PSoC4/CyLFClk.c ****         {
1871:Generated_Source\PSoC4/CyLFClk.c ****             /* Wait for counter to increment */
1872:Generated_Source\PSoC4/CyLFClk.c ****         }
1873:Generated_Source\PSoC4/CyLFClk.c ****     }
1874:Generated_Source\PSoC4/CyLFClk.c **** 
1875:Generated_Source\PSoC4/CyLFClk.c **** 
1876:Generated_Source\PSoC4/CyLFClk.c ****     /*******************************************************************************
1877:Generated_Source\PSoC4/CyLFClk.c ****     * Function Name: CySysClkLfclkPosedgeRestore
1878:Generated_Source\PSoC4/CyLFClk.c ****     ****************************************************************************//**
1879:Generated_Source\PSoC4/CyLFClk.c ****     * \internal
1880:Generated_Source\PSoC4/CyLFClk.c ****     *  Restores the WDT configuration after a CySysClkLfclkPosedgeCatch() call.
1881:Generated_Source\PSoC4/CyLFClk.c ****     *
1882:Generated_Source\PSoC4/CyLFClk.c ****     *  A pair of the CySysClkLfclkPosedgeCatch() and CySysClkLfclkPosedgeRestore()
1883:Generated_Source\PSoC4/CyLFClk.c ****     *  functions is expected to be called inside a critical section.
1884:Generated_Source\PSoC4/CyLFClk.c ****     *
1885:Generated_Source\PSoC4/CyLFClk.c ****     * Not applicable for the PSoC 4000/PSoC 4000S / PSoC 4100S / PSoC Analog 
1886:Generated_Source\PSoC4/CyLFClk.c ****     * Coprocessor devices.
1887:Generated_Source\PSoC4/CyLFClk.c ****     *
1888:Generated_Source\PSoC4/CyLFClk.c ****     * \details
1889:Generated_Source\PSoC4/CyLFClk.c ****     *  This function has no effect if WDT is locked (CySysWdtLock() is
1890:Generated_Source\PSoC4/CyLFClk.c ****     *  called). Call CySysWdtUnlock() to unlock WDT.
1891:Generated_Source\PSoC4/CyLFClk.c ****     *
1892:Generated_Source\PSoC4/CyLFClk.c ****     * \endinternal
1893:Generated_Source\PSoC4/CyLFClk.c ****     *******************************************************************************/
1894:Generated_Source\PSoC4/CyLFClk.c ****     static void CySysClkLfclkPosedgeRestore(void)
1895:Generated_Source\PSoC4/CyLFClk.c ****     {
 751              		.loc 1 1895 5 is_stmt 1 view -0
 752              		.cfi_startproc
 753              		@ args = 0, pretend = 0, frame = 0
 754              		@ frame_needed = 0, uses_anonymous_args = 0
 755 0000 10B5     		push	{r4, lr}
 756              		.cfi_def_cfa_offset 8
 757              		.cfi_offset 4, -8
 758              		.cfi_offset 14, -4
1896:Generated_Source\PSoC4/CyLFClk.c ****         if (lfclkPosedgeWdtCounter0Enabled != 0u)
 759              		.loc 1 1896 9 view .LVU181
 760              		.loc 1 1896 44 is_stmt 0 view .LVU182
 761 0002 094B     		ldr	r3, .L57
 762 0004 5B68     		ldr	r3, [r3, #4]
 763              		.loc 1 1896 12 view .LVU183
 764 0006 002B     		cmp	r3, #0
 765 0008 00D1     		bne	.L56
 766              	.L54:
1897:Generated_Source\PSoC4/CyLFClk.c ****         {
1898:Generated_Source\PSoC4/CyLFClk.c ****             /* Restore counter # 0 configuration and force its shutdown */
1899:Generated_Source\PSoC4/CyLFClk.c ****             CY_SYS_WDT_CONTROL_REG &= (uint32)(~CY_SYS_WDT_COUNTER0_MASK);
1900:Generated_Source\PSoC4/CyLFClk.c ****             CySysWdtSetMode(CY_SYS_WDT_COUNTER0, lfclkPosedgeWdtCounter0Mode);
1901:Generated_Source\PSoC4/CyLFClk.c ****             lfclkPosedgeWdtCounter0Enabled = 0u;
1902:Generated_Source\PSoC4/CyLFClk.c ****         }
1903:Generated_Source\PSoC4/CyLFClk.c ****     }
 767              		.loc 1 1903 5 view .LVU184
 768              		@ sp needed
ARM GAS  C:\Users\EDULU~1.DES\AppData\Local\Temp\cc0Y6APw.s 			page 50


 769 000a 10BD     		pop	{r4, pc}
 770              	.L56:
1899:Generated_Source\PSoC4/CyLFClk.c ****             CySysWdtSetMode(CY_SYS_WDT_COUNTER0, lfclkPosedgeWdtCounter0Mode);
 771              		.loc 1 1899 13 is_stmt 1 view .LVU185
1899:Generated_Source\PSoC4/CyLFClk.c ****             CySysWdtSetMode(CY_SYS_WDT_COUNTER0, lfclkPosedgeWdtCounter0Mode);
 772              		.loc 1 1899 36 is_stmt 0 view .LVU186
 773 000c 074A     		ldr	r2, .L57+4
 774 000e 1368     		ldr	r3, [r2]
 775 0010 0121     		movs	r1, #1
 776 0012 8B43     		bics	r3, r1
 777 0014 1360     		str	r3, [r2]
1900:Generated_Source\PSoC4/CyLFClk.c ****             lfclkPosedgeWdtCounter0Enabled = 0u;
 778              		.loc 1 1900 13 is_stmt 1 view .LVU187
 779 0016 044C     		ldr	r4, .L57
 780 0018 A168     		ldr	r1, [r4, #8]
 781 001a 0020     		movs	r0, #0
 782 001c FFF7FEFF 		bl	CySysWdtSetMode
 783              	.LVL58:
1901:Generated_Source\PSoC4/CyLFClk.c ****         }
 784              		.loc 1 1901 13 view .LVU188
1901:Generated_Source\PSoC4/CyLFClk.c ****         }
 785              		.loc 1 1901 44 is_stmt 0 view .LVU189
 786 0020 0023     		movs	r3, #0
 787 0022 6360     		str	r3, [r4, #4]
 788              		.loc 1 1903 5 view .LVU190
 789 0024 F1E7     		b	.L54
 790              	.L58:
 791 0026 C046     		.align	2
 792              	.L57:
 793 0028 00000000 		.word	.LANCHOR0
 794 002c 10020B40 		.word	1074463248
 795              		.cfi_endproc
 796              	.LFE33:
 797              		.size	CySysClkLfclkPosedgeRestore, .-CySysClkLfclkPosedgeRestore
 798              		.section	.text.CySysWdtGetMode,"ax",%progbits
 799              		.align	1
 800              		.global	CySysWdtGetMode
 801              		.syntax unified
 802              		.code	16
 803              		.thumb_func
 804              		.fpu softvfp
 805              		.type	CySysWdtGetMode, %function
 806              	CySysWdtGetMode:
 807              	.LVL59:
 808              	.LFB11:
1076:Generated_Source\PSoC4/CyLFClk.c ****         return ((CY_SYS_WDT_CONFIG_REG >> (counterNum * CY_SYS_WDT_CNT_SHIFT)) & CY_SYS_WDT_MODE_MA
 809              		.loc 1 1076 5 is_stmt 1 view -0
 810              		.cfi_startproc
 811              		@ args = 0, pretend = 0, frame = 0
 812              		@ frame_needed = 0, uses_anonymous_args = 0
 813              		@ link register save eliminated.
1077:Generated_Source\PSoC4/CyLFClk.c ****     }
 814              		.loc 1 1077 9 view .LVU192
1077:Generated_Source\PSoC4/CyLFClk.c ****     }
 815              		.loc 1 1077 18 is_stmt 0 view .LVU193
 816 0000 034B     		ldr	r3, .L60
 817 0002 1B68     		ldr	r3, [r3]
ARM GAS  C:\Users\EDULU~1.DES\AppData\Local\Temp\cc0Y6APw.s 			page 51


1077:Generated_Source\PSoC4/CyLFClk.c ****     }
 818              		.loc 1 1077 55 view .LVU194
 819 0004 C000     		lsls	r0, r0, #3
 820              	.LVL60:
1077:Generated_Source\PSoC4/CyLFClk.c ****     }
 821              		.loc 1 1077 40 view .LVU195
 822 0006 C340     		lsrs	r3, r3, r0
1077:Generated_Source\PSoC4/CyLFClk.c ****     }
 823              		.loc 1 1077 80 view .LVU196
 824 0008 0320     		movs	r0, #3
 825 000a 1840     		ands	r0, r3
1078:Generated_Source\PSoC4/CyLFClk.c **** 
 826              		.loc 1 1078 5 view .LVU197
 827              		@ sp needed
 828 000c 7047     		bx	lr
 829              	.L61:
 830 000e C046     		.align	2
 831              	.L60:
 832 0010 0C020B40 		.word	1074463244
 833              		.cfi_endproc
 834              	.LFE11:
 835              		.size	CySysWdtGetMode, .-CySysWdtGetMode
 836              		.section	.text.CySysWdtSetClearOnMatch,"ax",%progbits
 837              		.align	1
 838              		.global	CySysWdtSetClearOnMatch
 839              		.syntax unified
 840              		.code	16
 841              		.thumb_func
 842              		.fpu softvfp
 843              		.type	CySysWdtSetClearOnMatch, %function
 844              	CySysWdtSetClearOnMatch:
 845              	.LVL61:
 846              	.LFB12:
1105:Generated_Source\PSoC4/CyLFClk.c ****         uint32 configRegValue;
 847              		.loc 1 1105 5 is_stmt 1 view -0
 848              		.cfi_startproc
 849              		@ args = 0, pretend = 0, frame = 0
 850              		@ frame_needed = 0, uses_anonymous_args = 0
1105:Generated_Source\PSoC4/CyLFClk.c ****         uint32 configRegValue;
 851              		.loc 1 1105 5 is_stmt 0 view .LVU199
 852 0000 70B5     		push	{r4, r5, r6, lr}
 853              		.cfi_def_cfa_offset 16
 854              		.cfi_offset 4, -16
 855              		.cfi_offset 5, -12
 856              		.cfi_offset 6, -8
 857              		.cfi_offset 14, -4
 858 0002 0400     		movs	r4, r0
 859 0004 0D00     		movs	r5, r1
1106:Generated_Source\PSoC4/CyLFClk.c **** 
 860              		.loc 1 1106 9 is_stmt 1 view .LVU200
1108:Generated_Source\PSoC4/CyLFClk.c ****                  (counterNum == CY_SYS_WDT_COUNTER1));
 861              		.loc 1 1108 9 view .LVU201
1108:Generated_Source\PSoC4/CyLFClk.c ****                  (counterNum == CY_SYS_WDT_COUNTER1));
 862              		.loc 1 1108 9 view .LVU202
 863 0006 0128     		cmp	r0, #1
 864 0008 0FD8     		bhi	.L65
 865              	.LVL62:
ARM GAS  C:\Users\EDULU~1.DES\AppData\Local\Temp\cc0Y6APw.s 			page 52


 866              	.L63:
1111:Generated_Source\PSoC4/CyLFClk.c ****         {
 867              		.loc 1 1111 9 view .LVU203
1111:Generated_Source\PSoC4/CyLFClk.c ****         {
 868              		.loc 1 1111 18 is_stmt 0 view .LVU204
 869 000a 2000     		movs	r0, r4
 870 000c FFF7FEFF 		bl	CySysWdtGetEnabledStatus
 871              	.LVL63:
1111:Generated_Source\PSoC4/CyLFClk.c ****         {
 872              		.loc 1 1111 11 view .LVU205
 873 0010 0028     		cmp	r0, #0
 874 0012 09D1     		bne	.L62
1113:Generated_Source\PSoC4/CyLFClk.c ****                                      ((counterNum * CY_SYS_WDT_CNT_SHIFT) + CY_SYS_WDT_CNT_MATCH_CL
 875              		.loc 1 1113 13 is_stmt 1 view .LVU206
1113:Generated_Source\PSoC4/CyLFClk.c ****                                      ((counterNum * CY_SYS_WDT_CNT_SHIFT) + CY_SYS_WDT_CNT_MATCH_CL
 876              		.loc 1 1113 30 is_stmt 0 view .LVU207
 877 0014 0749     		ldr	r1, .L66
 878 0016 0B68     		ldr	r3, [r1]
1114:Generated_Source\PSoC4/CyLFClk.c **** 
 879              		.loc 1 1114 51 view .LVU208
 880 0018 E400     		lsls	r4, r4, #3
 881              	.LVL64:
1114:Generated_Source\PSoC4/CyLFClk.c **** 
 882              		.loc 1 1114 75 view .LVU209
 883 001a 0234     		adds	r4, r4, #2
1113:Generated_Source\PSoC4/CyLFClk.c ****                                      ((counterNum * CY_SYS_WDT_CNT_SHIFT) + CY_SYS_WDT_CNT_MATCH_CL
 884              		.loc 1 1113 64 view .LVU210
 885 001c 0122     		movs	r2, #1
 886 001e A240     		lsls	r2, r2, r4
1113:Generated_Source\PSoC4/CyLFClk.c ****                                      ((counterNum * CY_SYS_WDT_CNT_SHIFT) + CY_SYS_WDT_CNT_MATCH_CL
 887              		.loc 1 1113 28 view .LVU211
 888 0020 9343     		bics	r3, r2
 889              	.LVL65:
1116:Generated_Source\PSoC4/CyLFClk.c ****                 |= (uint32)(enable << ((counterNum * CY_SYS_WDT_CNT_SHIFT) + CY_SYS_WDT_CNT_MATCH_C
 890              		.loc 1 1116 13 is_stmt 1 view .LVU212
1117:Generated_Source\PSoC4/CyLFClk.c **** 
 891              		.loc 1 1117 36 is_stmt 0 view .LVU213
 892 0022 A540     		lsls	r5, r5, r4
 893              	.LVL66:
1117:Generated_Source\PSoC4/CyLFClk.c **** 
 894              		.loc 1 1117 17 view .LVU214
 895 0024 1D43     		orrs	r5, r3
 896              	.LVL67:
1119:Generated_Source\PSoC4/CyLFClk.c ****         }
 897              		.loc 1 1119 13 is_stmt 1 view .LVU215
1119:Generated_Source\PSoC4/CyLFClk.c ****         }
 898              		.loc 1 1119 35 is_stmt 0 view .LVU216
 899 0026 0D60     		str	r5, [r1]
 900              	.LVL68:
 901              	.L62:
1121:Generated_Source\PSoC4/CyLFClk.c **** 
 902              		.loc 1 1121 5 view .LVU217
 903              		@ sp needed
 904 0028 70BD     		pop	{r4, r5, r6, pc}
 905              	.LVL69:
 906              	.L65:
1108:Generated_Source\PSoC4/CyLFClk.c ****                  (counterNum == CY_SYS_WDT_COUNTER1));
ARM GAS  C:\Users\EDULU~1.DES\AppData\Local\Temp\cc0Y6APw.s 			page 53


 907              		.loc 1 1108 9 is_stmt 1 discriminator 1 view .LVU218
 908 002a 0020     		movs	r0, #0
 909              	.LVL70:
1108:Generated_Source\PSoC4/CyLFClk.c ****                  (counterNum == CY_SYS_WDT_COUNTER1));
 910              		.loc 1 1108 9 is_stmt 0 discriminator 1 view .LVU219
 911 002c FFF7FEFF 		bl	CyHalt
 912              	.LVL71:
1108:Generated_Source\PSoC4/CyLFClk.c ****                  (counterNum == CY_SYS_WDT_COUNTER1));
 913              		.loc 1 1108 9 discriminator 1 view .LVU220
 914 0030 EBE7     		b	.L63
 915              	.L67:
 916 0032 C046     		.align	2
 917              	.L66:
 918 0034 0C020B40 		.word	1074463244
 919              		.cfi_endproc
 920              	.LFE12:
 921              		.size	CySysWdtSetClearOnMatch, .-CySysWdtSetClearOnMatch
 922              		.section	.text.CySysWdtGetClearOnMatch,"ax",%progbits
 923              		.align	1
 924              		.global	CySysWdtGetClearOnMatch
 925              		.syntax unified
 926              		.code	16
 927              		.thumb_func
 928              		.fpu softvfp
 929              		.type	CySysWdtGetClearOnMatch, %function
 930              	CySysWdtGetClearOnMatch:
 931              	.LVL72:
 932              	.LFB13:
1138:Generated_Source\PSoC4/CyLFClk.c ****         CYASSERT((counterNum == CY_SYS_WDT_COUNTER0) ||
 933              		.loc 1 1138 5 is_stmt 1 view -0
 934              		.cfi_startproc
 935              		@ args = 0, pretend = 0, frame = 0
 936              		@ frame_needed = 0, uses_anonymous_args = 0
1138:Generated_Source\PSoC4/CyLFClk.c ****         CYASSERT((counterNum == CY_SYS_WDT_COUNTER0) ||
 937              		.loc 1 1138 5 is_stmt 0 view .LVU222
 938 0000 10B5     		push	{r4, lr}
 939              		.cfi_def_cfa_offset 8
 940              		.cfi_offset 4, -8
 941              		.cfi_offset 14, -4
 942 0002 0400     		movs	r4, r0
1139:Generated_Source\PSoC4/CyLFClk.c ****                  (counterNum == CY_SYS_WDT_COUNTER1));
 943              		.loc 1 1139 9 is_stmt 1 view .LVU223
1139:Generated_Source\PSoC4/CyLFClk.c ****                  (counterNum == CY_SYS_WDT_COUNTER1));
 944              		.loc 1 1139 9 view .LVU224
 945 0004 0128     		cmp	r0, #1
 946 0006 07D8     		bhi	.L70
 947              	.LVL73:
 948              	.L69:
1142:Generated_Source\PSoC4/CyLFClk.c ****                         ((counterNum * CY_SYS_WDT_CNT_SHIFT) + CY_SYS_WDT_CNT_MATCH_CLR_SHIFT)) & 0
 949              		.loc 1 1142 9 view .LVU225
1142:Generated_Source\PSoC4/CyLFClk.c ****                         ((counterNum * CY_SYS_WDT_CNT_SHIFT) + CY_SYS_WDT_CNT_MATCH_CLR_SHIFT)) & 0
 950              		.loc 1 1142 26 is_stmt 0 view .LVU226
 951 0008 054B     		ldr	r3, .L71
 952 000a 1B68     		ldr	r3, [r3]
1143:Generated_Source\PSoC4/CyLFClk.c ****     }
 953              		.loc 1 1143 38 view .LVU227
 954 000c E400     		lsls	r4, r4, #3
ARM GAS  C:\Users\EDULU~1.DES\AppData\Local\Temp\cc0Y6APw.s 			page 54


 955              	.LVL74:
1143:Generated_Source\PSoC4/CyLFClk.c ****     }
 956              		.loc 1 1143 62 view .LVU228
 957 000e 0234     		adds	r4, r4, #2
1142:Generated_Source\PSoC4/CyLFClk.c ****                         ((counterNum * CY_SYS_WDT_CNT_SHIFT) + CY_SYS_WDT_CNT_MATCH_CLR_SHIFT)) & 0
 958              		.loc 1 1142 48 view .LVU229
 959 0010 E340     		lsrs	r3, r3, r4
1142:Generated_Source\PSoC4/CyLFClk.c ****                         ((counterNum * CY_SYS_WDT_CNT_SHIFT) + CY_SYS_WDT_CNT_MATCH_CLR_SHIFT)) & 0
 960              		.loc 1 1142 16 view .LVU230
 961 0012 0120     		movs	r0, #1
 962 0014 1840     		ands	r0, r3
1144:Generated_Source\PSoC4/CyLFClk.c **** 
 963              		.loc 1 1144 5 view .LVU231
 964              		@ sp needed
 965 0016 10BD     		pop	{r4, pc}
 966              	.LVL75:
 967              	.L70:
1139:Generated_Source\PSoC4/CyLFClk.c ****                  (counterNum == CY_SYS_WDT_COUNTER1));
 968              		.loc 1 1139 9 is_stmt 1 discriminator 1 view .LVU232
 969 0018 0020     		movs	r0, #0
 970              	.LVL76:
1139:Generated_Source\PSoC4/CyLFClk.c ****                  (counterNum == CY_SYS_WDT_COUNTER1));
 971              		.loc 1 1139 9 is_stmt 0 discriminator 1 view .LVU233
 972 001a FFF7FEFF 		bl	CyHalt
 973              	.LVL77:
 974 001e F3E7     		b	.L69
 975              	.L72:
 976              		.align	2
 977              	.L71:
 978 0020 0C020B40 		.word	1074463244
 979              		.cfi_endproc
 980              	.LFE13:
 981              		.size	CySysWdtGetClearOnMatch, .-CySysWdtGetClearOnMatch
 982              		.section	.text.CySysWdtEnable,"ax",%progbits
 983              		.align	1
 984              		.global	CySysWdtEnable
 985              		.syntax unified
 986              		.code	16
 987              		.thumb_func
 988              		.fpu softvfp
 989              		.type	CySysWdtEnable, %function
 990              	CySysWdtEnable:
 991              	.LVL78:
 992              	.LFB14:
1179:Generated_Source\PSoC4/CyLFClk.c ****         #if (!CY_IP_WCO)
 993              		.loc 1 1179 5 is_stmt 1 view -0
 994              		.cfi_startproc
 995              		@ args = 0, pretend = 0, frame = 0
 996              		@ frame_needed = 0, uses_anonymous_args = 0
1179:Generated_Source\PSoC4/CyLFClk.c ****         #if (!CY_IP_WCO)
 997              		.loc 1 1179 5 is_stmt 0 view .LVU235
 998 0000 10B5     		push	{r4, lr}
 999              		.cfi_def_cfa_offset 8
 1000              		.cfi_offset 4, -8
 1001              		.cfi_offset 14, -4
 1002 0002 0400     		movs	r4, r0
1181:Generated_Source\PSoC4/CyLFClk.c ****         #endif /* (!CY_IP_WCO) */
ARM GAS  C:\Users\EDULU~1.DES\AppData\Local\Temp\cc0Y6APw.s 			page 55


 1003              		.loc 1 1181 13 is_stmt 1 view .LVU236
 1004 0004 FFF7FEFF 		bl	CySysClkIloStart
 1005              	.LVL79:
1184:Generated_Source\PSoC4/CyLFClk.c **** 
 1006              		.loc 1 1184 9 view .LVU237
1184:Generated_Source\PSoC4/CyLFClk.c **** 
 1007              		.loc 1 1184 32 is_stmt 0 view .LVU238
 1008 0008 0C4A     		ldr	r2, .L80
 1009 000a 1368     		ldr	r3, [r2]
 1010 000c 2343     		orrs	r3, r4
 1011 000e 1360     		str	r3, [r2]
1186:Generated_Source\PSoC4/CyLFClk.c ****         {
 1012              		.loc 1 1186 9 is_stmt 1 view .LVU239
1186:Generated_Source\PSoC4/CyLFClk.c ****         {
 1013              		.loc 1 1186 11 is_stmt 0 view .LVU240
 1014 0010 E307     		lsls	r3, r4, #31
 1015 0012 04D5     		bpl	.L74
 1016              	.L75:
1191:Generated_Source\PSoC4/CyLFClk.c ****         }
 1017              		.loc 1 1191 13 is_stmt 1 discriminator 1 view .LVU241
1188:Generated_Source\PSoC4/CyLFClk.c ****             {
 1018              		.loc 1 1188 26 is_stmt 0 discriminator 1 view .LVU242
 1019 0014 0020     		movs	r0, #0
 1020 0016 FFF7FEFF 		bl	CySysWdtGetEnabledStatus
 1021              	.LVL80:
1188:Generated_Source\PSoC4/CyLFClk.c ****             {
 1022              		.loc 1 1188 19 discriminator 1 view .LVU243
 1023 001a 0028     		cmp	r0, #0
 1024 001c FAD0     		beq	.L75
 1025              	.L74:
1194:Generated_Source\PSoC4/CyLFClk.c ****         {
 1026              		.loc 1 1194 9 is_stmt 1 view .LVU244
1194:Generated_Source\PSoC4/CyLFClk.c ****         {
 1027              		.loc 1 1194 11 is_stmt 0 view .LVU245
 1028 001e E305     		lsls	r3, r4, #23
 1029 0020 04D5     		bpl	.L76
 1030              	.L77:
1199:Generated_Source\PSoC4/CyLFClk.c ****         }
 1031              		.loc 1 1199 13 is_stmt 1 discriminator 1 view .LVU246
1196:Generated_Source\PSoC4/CyLFClk.c ****             {
 1032              		.loc 1 1196 26 is_stmt 0 discriminator 1 view .LVU247
 1033 0022 0120     		movs	r0, #1
 1034 0024 FFF7FEFF 		bl	CySysWdtGetEnabledStatus
 1035              	.LVL81:
1196:Generated_Source\PSoC4/CyLFClk.c ****             {
 1036              		.loc 1 1196 19 discriminator 1 view .LVU248
 1037 0028 0028     		cmp	r0, #0
 1038 002a FAD0     		beq	.L77
 1039              	.L76:
1202:Generated_Source\PSoC4/CyLFClk.c ****         {
 1040              		.loc 1 1202 9 is_stmt 1 view .LVU249
1202:Generated_Source\PSoC4/CyLFClk.c ****         {
 1041              		.loc 1 1202 11 is_stmt 0 view .LVU250
 1042 002c E303     		lsls	r3, r4, #15
 1043 002e 04D5     		bpl	.L73
 1044              	.L79:
1207:Generated_Source\PSoC4/CyLFClk.c ****         }
ARM GAS  C:\Users\EDULU~1.DES\AppData\Local\Temp\cc0Y6APw.s 			page 56


 1045              		.loc 1 1207 13 is_stmt 1 discriminator 1 view .LVU251
1204:Generated_Source\PSoC4/CyLFClk.c ****             {
 1046              		.loc 1 1204 26 is_stmt 0 discriminator 1 view .LVU252
 1047 0030 0220     		movs	r0, #2
 1048 0032 FFF7FEFF 		bl	CySysWdtGetEnabledStatus
 1049              	.LVL82:
1204:Generated_Source\PSoC4/CyLFClk.c ****             {
 1050              		.loc 1 1204 19 discriminator 1 view .LVU253
 1051 0036 0028     		cmp	r0, #0
 1052 0038 FAD0     		beq	.L79
 1053              	.L73:
1209:Generated_Source\PSoC4/CyLFClk.c **** 
 1054              		.loc 1 1209 5 view .LVU254
 1055              		@ sp needed
 1056              	.LVL83:
1209:Generated_Source\PSoC4/CyLFClk.c **** 
 1057              		.loc 1 1209 5 view .LVU255
 1058 003a 10BD     		pop	{r4, pc}
 1059              	.L81:
 1060              		.align	2
 1061              	.L80:
 1062 003c 10020B40 		.word	1074463248
 1063              		.cfi_endproc
 1064              	.LFE14:
 1065              		.size	CySysWdtEnable, .-CySysWdtEnable
 1066              		.section	.text.CySysWdtDisable,"ax",%progbits
 1067              		.align	1
 1068              		.global	CySysWdtDisable
 1069              		.syntax unified
 1070              		.code	16
 1071              		.thumb_func
 1072              		.fpu softvfp
 1073              		.type	CySysWdtDisable, %function
 1074              	CySysWdtDisable:
 1075              	.LVL84:
 1076              	.LFB15:
1227:Generated_Source\PSoC4/CyLFClk.c ****         if (0uL == CySysWdtLocked())
 1077              		.loc 1 1227 5 is_stmt 1 view -0
 1078              		.cfi_startproc
 1079              		@ args = 0, pretend = 0, frame = 0
 1080              		@ frame_needed = 0, uses_anonymous_args = 0
1227:Generated_Source\PSoC4/CyLFClk.c ****         if (0uL == CySysWdtLocked())
 1081              		.loc 1 1227 5 is_stmt 0 view .LVU257
 1082 0000 10B5     		push	{r4, lr}
 1083              		.cfi_def_cfa_offset 8
 1084              		.cfi_offset 4, -8
 1085              		.cfi_offset 14, -4
 1086 0002 0400     		movs	r4, r0
1228:Generated_Source\PSoC4/CyLFClk.c ****         {
 1087              		.loc 1 1228 9 is_stmt 1 view .LVU258
1228:Generated_Source\PSoC4/CyLFClk.c ****         {
 1088              		.loc 1 1228 20 is_stmt 0 view .LVU259
 1089 0004 FFF7FEFF 		bl	CySysWdtLocked
 1090              	.LVL85:
1228:Generated_Source\PSoC4/CyLFClk.c ****         {
 1091              		.loc 1 1228 12 view .LVU260
 1092 0008 0028     		cmp	r0, #0
ARM GAS  C:\Users\EDULU~1.DES\AppData\Local\Temp\cc0Y6APw.s 			page 57


 1093 000a 18D1     		bne	.L82
1230:Generated_Source\PSoC4/CyLFClk.c **** 
 1094              		.loc 1 1230 13 is_stmt 1 view .LVU261
1230:Generated_Source\PSoC4/CyLFClk.c **** 
 1095              		.loc 1 1230 36 is_stmt 0 view .LVU262
 1096 000c 0C4A     		ldr	r2, .L89
 1097 000e 1368     		ldr	r3, [r2]
 1098 0010 A343     		bics	r3, r4
 1099 0012 1360     		str	r3, [r2]
1232:Generated_Source\PSoC4/CyLFClk.c ****             {
 1100              		.loc 1 1232 13 is_stmt 1 view .LVU263
1232:Generated_Source\PSoC4/CyLFClk.c ****             {
 1101              		.loc 1 1232 15 is_stmt 0 view .LVU264
 1102 0014 E307     		lsls	r3, r4, #31
 1103 0016 04D5     		bpl	.L84
 1104              	.L85:
1237:Generated_Source\PSoC4/CyLFClk.c ****             }
 1105              		.loc 1 1237 17 is_stmt 1 discriminator 1 view .LVU265
1234:Generated_Source\PSoC4/CyLFClk.c ****                 {
 1106              		.loc 1 1234 30 is_stmt 0 discriminator 1 view .LVU266
 1107 0018 0020     		movs	r0, #0
 1108 001a FFF7FEFF 		bl	CySysWdtGetEnabledStatus
 1109              	.LVL86:
1234:Generated_Source\PSoC4/CyLFClk.c ****                 {
 1110              		.loc 1 1234 23 discriminator 1 view .LVU267
 1111 001e 0028     		cmp	r0, #0
 1112 0020 FAD1     		bne	.L85
 1113              	.L84:
1240:Generated_Source\PSoC4/CyLFClk.c ****             {
 1114              		.loc 1 1240 13 is_stmt 1 view .LVU268
1240:Generated_Source\PSoC4/CyLFClk.c ****             {
 1115              		.loc 1 1240 15 is_stmt 0 view .LVU269
 1116 0022 E305     		lsls	r3, r4, #23
 1117 0024 04D5     		bpl	.L86
 1118              	.L87:
1245:Generated_Source\PSoC4/CyLFClk.c ****             }
 1119              		.loc 1 1245 17 is_stmt 1 discriminator 1 view .LVU270
1242:Generated_Source\PSoC4/CyLFClk.c ****                 {
 1120              		.loc 1 1242 30 is_stmt 0 discriminator 1 view .LVU271
 1121 0026 0120     		movs	r0, #1
 1122 0028 FFF7FEFF 		bl	CySysWdtGetEnabledStatus
 1123              	.LVL87:
1242:Generated_Source\PSoC4/CyLFClk.c ****                 {
 1124              		.loc 1 1242 23 discriminator 1 view .LVU272
 1125 002c 0028     		cmp	r0, #0
 1126 002e FAD1     		bne	.L87
 1127              	.L86:
1248:Generated_Source\PSoC4/CyLFClk.c ****             {
 1128              		.loc 1 1248 13 is_stmt 1 view .LVU273
1248:Generated_Source\PSoC4/CyLFClk.c ****             {
 1129              		.loc 1 1248 15 is_stmt 0 view .LVU274
 1130 0030 E303     		lsls	r3, r4, #15
 1131 0032 04D5     		bpl	.L82
 1132              	.L88:
1253:Generated_Source\PSoC4/CyLFClk.c ****             }
 1133              		.loc 1 1253 17 is_stmt 1 discriminator 1 view .LVU275
1250:Generated_Source\PSoC4/CyLFClk.c ****                 {
ARM GAS  C:\Users\EDULU~1.DES\AppData\Local\Temp\cc0Y6APw.s 			page 58


 1134              		.loc 1 1250 30 is_stmt 0 discriminator 1 view .LVU276
 1135 0034 0220     		movs	r0, #2
 1136 0036 FFF7FEFF 		bl	CySysWdtGetEnabledStatus
 1137              	.LVL88:
1250:Generated_Source\PSoC4/CyLFClk.c ****                 {
 1138              		.loc 1 1250 23 discriminator 1 view .LVU277
 1139 003a 0028     		cmp	r0, #0
 1140 003c FAD1     		bne	.L88
 1141              	.L82:
1256:Generated_Source\PSoC4/CyLFClk.c **** 
 1142              		.loc 1 1256 5 view .LVU278
 1143              		@ sp needed
 1144              	.LVL89:
1256:Generated_Source\PSoC4/CyLFClk.c **** 
 1145              		.loc 1 1256 5 view .LVU279
 1146 003e 10BD     		pop	{r4, pc}
 1147              	.L90:
 1148              		.align	2
 1149              	.L89:
 1150 0040 10020B40 		.word	1074463248
 1151              		.cfi_endproc
 1152              	.LFE15:
 1153              		.size	CySysWdtDisable, .-CySysWdtDisable
 1154              		.section	.text.CySysWdtSetCascade,"ax",%progbits
 1155              		.align	1
 1156              		.global	CySysWdtSetCascade
 1157              		.syntax unified
 1158              		.code	16
 1159              		.thumb_func
 1160              		.fpu softvfp
 1161              		.type	CySysWdtSetCascade, %function
 1162              	CySysWdtSetCascade:
 1163              	.LVL90:
 1164              	.LFB16:
1286:Generated_Source\PSoC4/CyLFClk.c ****         uint32 configRegValue;
 1165              		.loc 1 1286 5 is_stmt 1 view -0
 1166              		.cfi_startproc
 1167              		@ args = 0, pretend = 0, frame = 0
 1168              		@ frame_needed = 0, uses_anonymous_args = 0
1286:Generated_Source\PSoC4/CyLFClk.c ****         uint32 configRegValue;
 1169              		.loc 1 1286 5 is_stmt 0 view .LVU281
 1170 0000 70B5     		push	{r4, r5, r6, lr}
 1171              		.cfi_def_cfa_offset 16
 1172              		.cfi_offset 4, -16
 1173              		.cfi_offset 5, -12
 1174              		.cfi_offset 6, -8
 1175              		.cfi_offset 14, -4
 1176 0002 0500     		movs	r5, r0
1287:Generated_Source\PSoC4/CyLFClk.c ****         uint32 countersEnableStatus;
 1177              		.loc 1 1287 9 is_stmt 1 view .LVU282
1288:Generated_Source\PSoC4/CyLFClk.c **** 
 1178              		.loc 1 1288 9 view .LVU283
1290:Generated_Source\PSoC4/CyLFClk.c ****                             CySysWdtGetEnabledStatus(CY_SYS_WDT_COUNTER1) |
 1179              		.loc 1 1290 9 view .LVU284
1290:Generated_Source\PSoC4/CyLFClk.c ****                             CySysWdtGetEnabledStatus(CY_SYS_WDT_COUNTER1) |
 1180              		.loc 1 1290 32 is_stmt 0 view .LVU285
 1181 0004 0020     		movs	r0, #0
ARM GAS  C:\Users\EDULU~1.DES\AppData\Local\Temp\cc0Y6APw.s 			page 59


 1182              	.LVL91:
1290:Generated_Source\PSoC4/CyLFClk.c ****                             CySysWdtGetEnabledStatus(CY_SYS_WDT_COUNTER1) |
 1183              		.loc 1 1290 32 view .LVU286
 1184 0006 FFF7FEFF 		bl	CySysWdtGetEnabledStatus
 1185              	.LVL92:
 1186 000a 0400     		movs	r4, r0
1291:Generated_Source\PSoC4/CyLFClk.c ****                             CySysWdtGetEnabledStatus(CY_SYS_WDT_COUNTER2);
 1187              		.loc 1 1291 29 view .LVU287
 1188 000c 0120     		movs	r0, #1
 1189 000e FFF7FEFF 		bl	CySysWdtGetEnabledStatus
 1190              	.LVL93:
1290:Generated_Source\PSoC4/CyLFClk.c ****                             CySysWdtGetEnabledStatus(CY_SYS_WDT_COUNTER1) |
 1191              		.loc 1 1290 78 view .LVU288
 1192 0012 0443     		orrs	r4, r0
1292:Generated_Source\PSoC4/CyLFClk.c **** 
 1193              		.loc 1 1292 29 view .LVU289
 1194 0014 0220     		movs	r0, #2
 1195 0016 FFF7FEFF 		bl	CySysWdtGetEnabledStatus
 1196              	.LVL94:
1290:Generated_Source\PSoC4/CyLFClk.c ****                             CySysWdtGetEnabledStatus(CY_SYS_WDT_COUNTER1) |
 1197              		.loc 1 1290 30 view .LVU290
 1198 001a 0443     		orrs	r4, r0
 1199              	.LVL95:
1294:Generated_Source\PSoC4/CyLFClk.c ****         {
 1200              		.loc 1 1294 9 is_stmt 1 view .LVU291
1294:Generated_Source\PSoC4/CyLFClk.c ****         {
 1201              		.loc 1 1294 12 is_stmt 0 view .LVU292
 1202 001c 05D1     		bne	.L91
1296:Generated_Source\PSoC4/CyLFClk.c ****             configRegValue &= ((uint32)(~(CY_SYS_WDT_CASCADE_01|CY_SYS_WDT_CASCADE_12)));
 1203              		.loc 1 1296 13 is_stmt 1 view .LVU293
1296:Generated_Source\PSoC4/CyLFClk.c ****             configRegValue &= ((uint32)(~(CY_SYS_WDT_CASCADE_01|CY_SYS_WDT_CASCADE_12)));
 1204              		.loc 1 1296 28 is_stmt 0 view .LVU294
 1205 001e 034B     		ldr	r3, .L93
 1206 0020 1868     		ldr	r0, [r3]
 1207              	.LVL96:
1297:Generated_Source\PSoC4/CyLFClk.c ****             configRegValue |= cascadeMask;
 1208              		.loc 1 1297 13 is_stmt 1 view .LVU295
1297:Generated_Source\PSoC4/CyLFClk.c ****             configRegValue |= cascadeMask;
 1209              		.loc 1 1297 28 is_stmt 0 view .LVU296
 1210 0022 034A     		ldr	r2, .L93+4
 1211 0024 1040     		ands	r0, r2
 1212              	.LVL97:
1298:Generated_Source\PSoC4/CyLFClk.c ****             CY_SYS_WDT_CONFIG_REG = configRegValue;
 1213              		.loc 1 1298 13 is_stmt 1 view .LVU297
1298:Generated_Source\PSoC4/CyLFClk.c ****             CY_SYS_WDT_CONFIG_REG = configRegValue;
 1214              		.loc 1 1298 28 is_stmt 0 view .LVU298
 1215 0026 2843     		orrs	r0, r5
 1216              	.LVL98:
1299:Generated_Source\PSoC4/CyLFClk.c ****         }
 1217              		.loc 1 1299 13 is_stmt 1 view .LVU299
1299:Generated_Source\PSoC4/CyLFClk.c ****         }
 1218              		.loc 1 1299 35 is_stmt 0 view .LVU300
 1219 0028 1860     		str	r0, [r3]
 1220              	.LVL99:
 1221              	.L91:
1301:Generated_Source\PSoC4/CyLFClk.c **** 
 1222              		.loc 1 1301 5 view .LVU301
ARM GAS  C:\Users\EDULU~1.DES\AppData\Local\Temp\cc0Y6APw.s 			page 60


 1223              		@ sp needed
 1224              	.LVL100:
 1225              	.LVL101:
1301:Generated_Source\PSoC4/CyLFClk.c **** 
 1226              		.loc 1 1301 5 view .LVU302
 1227 002a 70BD     		pop	{r4, r5, r6, pc}
 1228              	.L94:
 1229              		.align	2
 1230              	.L93:
 1231 002c 0C020B40 		.word	1074463244
 1232 0030 F7F7FFFF 		.word	-2057
 1233              		.cfi_endproc
 1234              	.LFE16:
 1235              		.size	CySysWdtSetCascade, .-CySysWdtSetCascade
 1236              		.section	.text.CySysWdtGetCascade,"ax",%progbits
 1237              		.align	1
 1238              		.global	CySysWdtGetCascade
 1239              		.syntax unified
 1240              		.code	16
 1241              		.thumb_func
 1242              		.fpu softvfp
 1243              		.type	CySysWdtGetCascade, %function
 1244              	CySysWdtGetCascade:
 1245              	.LFB17:
1317:Generated_Source\PSoC4/CyLFClk.c ****         return (CY_SYS_WDT_CONFIG_REG & (CY_SYS_WDT_CASCADE_01 | CY_SYS_WDT_CASCADE_12));
 1246              		.loc 1 1317 5 is_stmt 1 view -0
 1247              		.cfi_startproc
 1248              		@ args = 0, pretend = 0, frame = 0
 1249              		@ frame_needed = 0, uses_anonymous_args = 0
 1250              		@ link register save eliminated.
1318:Generated_Source\PSoC4/CyLFClk.c ****     }
 1251              		.loc 1 1318 9 view .LVU304
1318:Generated_Source\PSoC4/CyLFClk.c ****     }
 1252              		.loc 1 1318 39 is_stmt 0 view .LVU305
 1253 0000 024B     		ldr	r3, .L96
 1254 0002 1868     		ldr	r0, [r3]
 1255 0004 024B     		ldr	r3, .L96+4
 1256 0006 1840     		ands	r0, r3
1319:Generated_Source\PSoC4/CyLFClk.c **** 
 1257              		.loc 1 1319 5 view .LVU306
 1258              		@ sp needed
 1259 0008 7047     		bx	lr
 1260              	.L97:
 1261 000a C046     		.align	2
 1262              	.L96:
 1263 000c 0C020B40 		.word	1074463244
 1264 0010 08080000 		.word	2056
 1265              		.cfi_endproc
 1266              	.LFE17:
 1267              		.size	CySysWdtGetCascade, .-CySysWdtGetCascade
 1268              		.section	.text.CySysWdtSetMatch,"ax",%progbits
 1269              		.align	1
 1270              		.global	CySysWdtSetMatch
 1271              		.syntax unified
 1272              		.code	16
 1273              		.thumb_func
 1274              		.fpu softvfp
ARM GAS  C:\Users\EDULU~1.DES\AppData\Local\Temp\cc0Y6APw.s 			page 61


 1275              		.type	CySysWdtSetMatch, %function
 1276              	CySysWdtSetMatch:
 1277              	.LVL102:
 1278              	.LFB18:
1337:Generated_Source\PSoC4/CyLFClk.c ****         uint32 regValue;
 1279              		.loc 1 1337 5 is_stmt 1 view -0
 1280              		.cfi_startproc
 1281              		@ args = 0, pretend = 0, frame = 0
 1282              		@ frame_needed = 0, uses_anonymous_args = 0
1337:Generated_Source\PSoC4/CyLFClk.c ****         uint32 regValue;
 1283              		.loc 1 1337 5 is_stmt 0 view .LVU308
 1284 0000 70B5     		push	{r4, r5, r6, lr}
 1285              		.cfi_def_cfa_offset 16
 1286              		.cfi_offset 4, -16
 1287              		.cfi_offset 5, -12
 1288              		.cfi_offset 6, -8
 1289              		.cfi_offset 14, -4
 1290 0002 0500     		movs	r5, r0
 1291 0004 0C00     		movs	r4, r1
1338:Generated_Source\PSoC4/CyLFClk.c **** 
 1292              		.loc 1 1338 9 is_stmt 1 view .LVU309
1340:Generated_Source\PSoC4/CyLFClk.c ****                  (counterNum == CY_SYS_WDT_COUNTER1));
 1293              		.loc 1 1340 9 view .LVU310
1340:Generated_Source\PSoC4/CyLFClk.c ****                  (counterNum == CY_SYS_WDT_COUNTER1));
 1294              		.loc 1 1340 9 view .LVU311
 1295 0006 0128     		cmp	r0, #1
 1296 0008 0FD8     		bhi	.L100
 1297              	.LVL103:
 1298              	.L99:
1344:Generated_Source\PSoC4/CyLFClk.c **** 
 1299              		.loc 1 1344 9 view .LVU312
 1300 000a C920     		movs	r0, #201
 1301 000c FFF7FEFF 		bl	CyDelayUs
 1302              	.LVL104:
1346:Generated_Source\PSoC4/CyLFClk.c ****         regValue &= (uint32)~((uint32)(CY_SYS_WDT_LOWER_16BITS_MASK << (counterNum * CY_SYS_WDT_CNT
 1303              		.loc 1 1346 9 view .LVU313
1346:Generated_Source\PSoC4/CyLFClk.c ****         regValue &= (uint32)~((uint32)(CY_SYS_WDT_LOWER_16BITS_MASK << (counterNum * CY_SYS_WDT_CNT
 1304              		.loc 1 1346 18 is_stmt 0 view .LVU314
 1305 0010 0849     		ldr	r1, .L101
 1306 0012 0B68     		ldr	r3, [r1]
 1307              	.LVL105:
1347:Generated_Source\PSoC4/CyLFClk.c ****         CY_SYS_WDT_MATCH_REG = (regValue | (match << (counterNum * CY_SYS_WDT_CNT_MATCH_SHIFT)));
 1308              		.loc 1 1347 9 is_stmt 1 view .LVU315
1347:Generated_Source\PSoC4/CyLFClk.c ****         CY_SYS_WDT_MATCH_REG = (regValue | (match << (counterNum * CY_SYS_WDT_CNT_MATCH_SHIFT)));
 1309              		.loc 1 1347 84 is_stmt 0 view .LVU316
 1310 0014 2D01     		lsls	r5, r5, #4
 1311              	.LVL106:
1347:Generated_Source\PSoC4/CyLFClk.c ****         CY_SYS_WDT_MATCH_REG = (regValue | (match << (counterNum * CY_SYS_WDT_CNT_MATCH_SHIFT)));
 1312              		.loc 1 1347 31 view .LVU317
 1313 0016 084A     		ldr	r2, .L101+4
 1314 0018 AA40     		lsls	r2, r2, r5
1347:Generated_Source\PSoC4/CyLFClk.c ****         CY_SYS_WDT_MATCH_REG = (regValue | (match << (counterNum * CY_SYS_WDT_CNT_MATCH_SHIFT)));
 1315              		.loc 1 1347 18 view .LVU318
 1316 001a 9343     		bics	r3, r2
 1317              	.LVL107:
1348:Generated_Source\PSoC4/CyLFClk.c **** 
 1318              		.loc 1 1348 9 is_stmt 1 view .LVU319
ARM GAS  C:\Users\EDULU~1.DES\AppData\Local\Temp\cc0Y6APw.s 			page 62


1348:Generated_Source\PSoC4/CyLFClk.c **** 
 1319              		.loc 1 1348 51 is_stmt 0 view .LVU320
 1320 001c AC40     		lsls	r4, r4, r5
 1321              	.LVL108:
1348:Generated_Source\PSoC4/CyLFClk.c **** 
 1322              		.loc 1 1348 42 view .LVU321
 1323 001e 1C43     		orrs	r4, r3
1348:Generated_Source\PSoC4/CyLFClk.c **** 
 1324              		.loc 1 1348 30 view .LVU322
 1325 0020 0C60     		str	r4, [r1]
1351:Generated_Source\PSoC4/CyLFClk.c ****     }
 1326              		.loc 1 1351 9 is_stmt 1 view .LVU323
 1327 0022 4320     		movs	r0, #67
 1328 0024 FFF7FEFF 		bl	CyDelayUs
 1329              	.LVL109:
1352:Generated_Source\PSoC4/CyLFClk.c **** 
 1330              		.loc 1 1352 5 is_stmt 0 view .LVU324
 1331              		@ sp needed
1352:Generated_Source\PSoC4/CyLFClk.c **** 
 1332              		.loc 1 1352 5 view .LVU325
 1333 0028 70BD     		pop	{r4, r5, r6, pc}
 1334              	.LVL110:
 1335              	.L100:
1340:Generated_Source\PSoC4/CyLFClk.c ****                  (counterNum == CY_SYS_WDT_COUNTER1));
 1336              		.loc 1 1340 9 is_stmt 1 discriminator 1 view .LVU326
 1337 002a 0020     		movs	r0, #0
 1338              	.LVL111:
1340:Generated_Source\PSoC4/CyLFClk.c ****                  (counterNum == CY_SYS_WDT_COUNTER1));
 1339              		.loc 1 1340 9 is_stmt 0 discriminator 1 view .LVU327
 1340 002c FFF7FEFF 		bl	CyHalt
 1341              	.LVL112:
1340:Generated_Source\PSoC4/CyLFClk.c ****                  (counterNum == CY_SYS_WDT_COUNTER1));
 1342              		.loc 1 1340 9 discriminator 1 view .LVU328
 1343 0030 EBE7     		b	.L99
 1344              	.L102:
 1345 0032 C046     		.align	2
 1346              	.L101:
 1347 0034 08020B40 		.word	1074463240
 1348 0038 FFFF0000 		.word	65535
 1349              		.cfi_endproc
 1350              	.LFE18:
 1351              		.size	CySysWdtSetMatch, .-CySysWdtSetMatch
 1352              		.section	.text.CySysWdtSetToggleBit,"ax",%progbits
 1353              		.align	1
 1354              		.global	CySysWdtSetToggleBit
 1355              		.syntax unified
 1356              		.code	16
 1357              		.thumb_func
 1358              		.fpu softvfp
 1359              		.type	CySysWdtSetToggleBit, %function
 1360              	CySysWdtSetToggleBit:
 1361              	.LVL113:
 1362              	.LFB19:
1376:Generated_Source\PSoC4/CyLFClk.c ****         uint32 configRegValue;
 1363              		.loc 1 1376 5 is_stmt 1 view -0
 1364              		.cfi_startproc
 1365              		@ args = 0, pretend = 0, frame = 0
ARM GAS  C:\Users\EDULU~1.DES\AppData\Local\Temp\cc0Y6APw.s 			page 63


 1366              		@ frame_needed = 0, uses_anonymous_args = 0
1376:Generated_Source\PSoC4/CyLFClk.c ****         uint32 configRegValue;
 1367              		.loc 1 1376 5 is_stmt 0 view .LVU330
 1368 0000 10B5     		push	{r4, lr}
 1369              		.cfi_def_cfa_offset 8
 1370              		.cfi_offset 4, -8
 1371              		.cfi_offset 14, -4
 1372 0002 0400     		movs	r4, r0
1377:Generated_Source\PSoC4/CyLFClk.c **** 
 1373              		.loc 1 1377 9 is_stmt 1 view .LVU331
1379:Generated_Source\PSoC4/CyLFClk.c ****         {
 1374              		.loc 1 1379 9 view .LVU332
1379:Generated_Source\PSoC4/CyLFClk.c ****         {
 1375              		.loc 1 1379 19 is_stmt 0 view .LVU333
 1376 0004 0220     		movs	r0, #2
 1377              	.LVL114:
1379:Generated_Source\PSoC4/CyLFClk.c ****         {
 1378              		.loc 1 1379 19 view .LVU334
 1379 0006 FFF7FEFF 		bl	CySysWdtGetEnabledStatus
 1380              	.LVL115:
1379:Generated_Source\PSoC4/CyLFClk.c ****         {
 1381              		.loc 1 1379 12 view .LVU335
 1382 000a 0028     		cmp	r0, #0
 1383 000c 09D1     		bne	.L103
1381:Generated_Source\PSoC4/CyLFClk.c ****             configRegValue &= (uint32)(~((uint32)(CY_SYS_WDT_CONFIG_BITS2_MASK << CY_SYS_WDT_CONFIG
 1384              		.loc 1 1381 13 is_stmt 1 view .LVU336
1381:Generated_Source\PSoC4/CyLFClk.c ****             configRegValue &= (uint32)(~((uint32)(CY_SYS_WDT_CONFIG_BITS2_MASK << CY_SYS_WDT_CONFIG
 1385              		.loc 1 1381 28 is_stmt 0 view .LVU337
 1386 000e 054A     		ldr	r2, .L105
 1387 0010 1368     		ldr	r3, [r2]
 1388              	.LVL116:
1382:Generated_Source\PSoC4/CyLFClk.c ****             configRegValue |= ((bits & CY_SYS_WDT_CONFIG_BITS2_MASK) << CY_SYS_WDT_CONFIG_BITS2_POS
 1389              		.loc 1 1382 13 is_stmt 1 view .LVU338
1382:Generated_Source\PSoC4/CyLFClk.c ****             configRegValue |= ((bits & CY_SYS_WDT_CONFIG_BITS2_MASK) << CY_SYS_WDT_CONFIG_BITS2_POS
 1390              		.loc 1 1382 28 is_stmt 0 view .LVU339
 1391 0012 0549     		ldr	r1, .L105+4
 1392 0014 0B40     		ands	r3, r1
 1393              	.LVL117:
1383:Generated_Source\PSoC4/CyLFClk.c ****             CY_SYS_WDT_CONFIG_REG = configRegValue;
 1394              		.loc 1 1383 13 is_stmt 1 view .LVU340
1383:Generated_Source\PSoC4/CyLFClk.c ****             CY_SYS_WDT_CONFIG_REG = configRegValue;
 1395              		.loc 1 1383 70 is_stmt 0 view .LVU341
 1396 0016 2406     		lsls	r4, r4, #24
 1397              	.LVL118:
1383:Generated_Source\PSoC4/CyLFClk.c ****             CY_SYS_WDT_CONFIG_REG = configRegValue;
 1398              		.loc 1 1383 70 view .LVU342
 1399 0018 F821     		movs	r1, #248
 1400 001a 4905     		lsls	r1, r1, #21
 1401 001c 0C40     		ands	r4, r1
1383:Generated_Source\PSoC4/CyLFClk.c ****             CY_SYS_WDT_CONFIG_REG = configRegValue;
 1402              		.loc 1 1383 28 view .LVU343
 1403 001e 1C43     		orrs	r4, r3
 1404              	.LVL119:
1384:Generated_Source\PSoC4/CyLFClk.c ****         }
 1405              		.loc 1 1384 13 is_stmt 1 view .LVU344
1384:Generated_Source\PSoC4/CyLFClk.c ****         }
 1406              		.loc 1 1384 35 is_stmt 0 view .LVU345
ARM GAS  C:\Users\EDULU~1.DES\AppData\Local\Temp\cc0Y6APw.s 			page 64


 1407 0020 1460     		str	r4, [r2]
 1408              	.LVL120:
 1409              	.L103:
1386:Generated_Source\PSoC4/CyLFClk.c **** 
 1410              		.loc 1 1386 5 view .LVU346
 1411              		@ sp needed
 1412 0022 10BD     		pop	{r4, pc}
 1413              	.L106:
 1414              		.align	2
 1415              	.L105:
 1416 0024 0C020B40 		.word	1074463244
 1417 0028 FFFFFFE0 		.word	-520093697
 1418              		.cfi_endproc
 1419              	.LFE19:
 1420              		.size	CySysWdtSetToggleBit, .-CySysWdtSetToggleBit
 1421              		.section	.text.CySysWdtGetToggleBit,"ax",%progbits
 1422              		.align	1
 1423              		.global	CySysWdtGetToggleBit
 1424              		.syntax unified
 1425              		.code	16
 1426              		.thumb_func
 1427              		.fpu softvfp
 1428              		.type	CySysWdtGetToggleBit, %function
 1429              	CySysWdtGetToggleBit:
 1430              	.LFB20:
1399:Generated_Source\PSoC4/CyLFClk.c ****         return ((CY_SYS_WDT_CONFIG_REG >> CY_SYS_WDT_CONFIG_BITS2_POS) & CY_SYS_WDT_CONFIG_BITS2_MA
 1431              		.loc 1 1399 5 is_stmt 1 view -0
 1432              		.cfi_startproc
 1433              		@ args = 0, pretend = 0, frame = 0
 1434              		@ frame_needed = 0, uses_anonymous_args = 0
 1435              		@ link register save eliminated.
1400:Generated_Source\PSoC4/CyLFClk.c ****     }
 1436              		.loc 1 1400 9 view .LVU348
1400:Generated_Source\PSoC4/CyLFClk.c ****     }
 1437              		.loc 1 1400 18 is_stmt 0 view .LVU349
 1438 0000 024B     		ldr	r3, .L108
 1439 0002 1B68     		ldr	r3, [r3]
1400:Generated_Source\PSoC4/CyLFClk.c ****     }
 1440              		.loc 1 1400 40 view .LVU350
 1441 0004 1B0E     		lsrs	r3, r3, #24
1400:Generated_Source\PSoC4/CyLFClk.c ****     }
 1442              		.loc 1 1400 72 view .LVU351
 1443 0006 1F20     		movs	r0, #31
 1444 0008 1840     		ands	r0, r3
1401:Generated_Source\PSoC4/CyLFClk.c **** 
 1445              		.loc 1 1401 5 view .LVU352
 1446              		@ sp needed
 1447 000a 7047     		bx	lr
 1448              	.L109:
 1449              		.align	2
 1450              	.L108:
 1451 000c 0C020B40 		.word	1074463244
 1452              		.cfi_endproc
 1453              	.LFE20:
 1454              		.size	CySysWdtGetToggleBit, .-CySysWdtGetToggleBit
 1455              		.section	.text.CySysWdtGetMatch,"ax",%progbits
 1456              		.align	1
ARM GAS  C:\Users\EDULU~1.DES\AppData\Local\Temp\cc0Y6APw.s 			page 65


 1457              		.global	CySysWdtGetMatch
 1458              		.syntax unified
 1459              		.code	16
 1460              		.thumb_func
 1461              		.fpu softvfp
 1462              		.type	CySysWdtGetMatch, %function
 1463              	CySysWdtGetMatch:
 1464              	.LVL121:
 1465              	.LFB21:
1417:Generated_Source\PSoC4/CyLFClk.c ****         CYASSERT((counterNum == CY_SYS_WDT_COUNTER0) ||
 1466              		.loc 1 1417 5 is_stmt 1 view -0
 1467              		.cfi_startproc
 1468              		@ args = 0, pretend = 0, frame = 0
 1469              		@ frame_needed = 0, uses_anonymous_args = 0
1417:Generated_Source\PSoC4/CyLFClk.c ****         CYASSERT((counterNum == CY_SYS_WDT_COUNTER0) ||
 1470              		.loc 1 1417 5 is_stmt 0 view .LVU354
 1471 0000 10B5     		push	{r4, lr}
 1472              		.cfi_def_cfa_offset 8
 1473              		.cfi_offset 4, -8
 1474              		.cfi_offset 14, -4
 1475 0002 0400     		movs	r4, r0
1418:Generated_Source\PSoC4/CyLFClk.c ****                  (counterNum == CY_SYS_WDT_COUNTER1));
 1476              		.loc 1 1418 9 is_stmt 1 view .LVU355
1418:Generated_Source\PSoC4/CyLFClk.c ****                  (counterNum == CY_SYS_WDT_COUNTER1));
 1477              		.loc 1 1418 9 view .LVU356
 1478 0004 0128     		cmp	r0, #1
 1479 0006 06D8     		bhi	.L112
 1480              	.LVL122:
 1481              	.L111:
1421:Generated_Source\PSoC4/CyLFClk.c ****                                             (counterNum * CY_SYS_WDT_CNT_MATCH_SHIFT)) & CY_SYS_WDT
 1482              		.loc 1 1421 9 view .LVU357
1421:Generated_Source\PSoC4/CyLFClk.c ****                                             (counterNum * CY_SYS_WDT_CNT_MATCH_SHIFT)) & CY_SYS_WDT
 1483              		.loc 1 1421 26 is_stmt 0 view .LVU358
 1484 0008 054B     		ldr	r3, .L113
 1485 000a 1868     		ldr	r0, [r3]
1422:Generated_Source\PSoC4/CyLFClk.c ****     }
 1486              		.loc 1 1422 57 view .LVU359
