ARM GAS  C:\Users\EDULU~1.DES\AppData\Local\Temp\ccGkSBtd.s 			page 1


   1              		.cpu cortex-m0
   2              		.eabi_attribute 20, 1
   3              		.eabi_attribute 21, 1
   4              		.eabi_attribute 23, 3
   5              		.eabi_attribute 24, 1
   6              		.eabi_attribute 25, 1
   7              		.eabi_attribute 26, 1
   8              		.eabi_attribute 30, 1
   9              		.eabi_attribute 34, 0
  10              		.eabi_attribute 18, 4
  11              		.file	"cyPm.c"
  12              		.text
  13              	.Ltext0:
  14              		.cfi_sections	.debug_frame
  15              		.section	.text.CySysPmSleep,"ax",%progbits
  16              		.align	1
  17              		.global	CySysPmSleep
  18              		.arch armv6s-m
  19              		.syntax unified
  20              		.code	16
  21              		.thumb_func
  22              		.fpu softvfp
  23              		.type	CySysPmSleep, %function
  24              	CySysPmSleep:
  25              	.LFB0:
  26              		.file 1 "Generated_Source\\PSoC4\\cyPm.c"
   1:Generated_Source\PSoC4/cyPm.c **** /***************************************************************************//**
   2:Generated_Source\PSoC4/cyPm.c **** * \file cyPm.c
   3:Generated_Source\PSoC4/cyPm.c **** * \version 5.80
   4:Generated_Source\PSoC4/cyPm.c **** *
   5:Generated_Source\PSoC4/cyPm.c **** * \brief Provides an API for the power management.
   6:Generated_Source\PSoC4/cyPm.c **** *
   7:Generated_Source\PSoC4/cyPm.c **** * \note Documentation of the API's in this file is located in the System
   8:Generated_Source\PSoC4/cyPm.c **** * Reference Guide provided with PSoC Creator.
   9:Generated_Source\PSoC4/cyPm.c **** *
  10:Generated_Source\PSoC4/cyPm.c **** ********************************************************************************
  11:Generated_Source\PSoC4/cyPm.c **** * \copyright
  12:Generated_Source\PSoC4/cyPm.c **** * Copyright 2011-2018, Cypress Semiconductor Corporation.  All rights reserved.
  13:Generated_Source\PSoC4/cyPm.c **** * You may use this file only in accordance with the license, terms, conditions,
  14:Generated_Source\PSoC4/cyPm.c **** * disclaimers, and limitations in the end user license agreement accompanying
  15:Generated_Source\PSoC4/cyPm.c **** * the software package with which this file was provided.
  16:Generated_Source\PSoC4/cyPm.c **** *******************************************************************************/
  17:Generated_Source\PSoC4/cyPm.c **** 
  18:Generated_Source\PSoC4/cyPm.c **** #include "cyPm.h"
  19:Generated_Source\PSoC4/cyPm.c **** #include "CyLib.h"
  20:Generated_Source\PSoC4/cyPm.c **** #include "CyFlash.h"
  21:Generated_Source\PSoC4/cyPm.c **** 
  22:Generated_Source\PSoC4/cyPm.c **** 
  23:Generated_Source\PSoC4/cyPm.c **** /*******************************************************************************
  24:Generated_Source\PSoC4/cyPm.c **** * Function Name: CySysPmSleep
  25:Generated_Source\PSoC4/cyPm.c **** ****************************************************************************//**
  26:Generated_Source\PSoC4/cyPm.c **** *
  27:Generated_Source\PSoC4/cyPm.c **** * Puts the part into the Sleep state. This is a CPU-centric power mode.
  28:Generated_Source\PSoC4/cyPm.c **** * It means that the CPU has indicated that it is in the sleep mode and
  29:Generated_Source\PSoC4/cyPm.c **** * its main clock can be removed. It is identical to Active from a peripheral
  30:Generated_Source\PSoC4/cyPm.c **** * point of view. Any enabled interrupts can cause wakeup from the Sleep mode.
  31:Generated_Source\PSoC4/cyPm.c **** *
ARM GAS  C:\Users\EDULU~1.DES\AppData\Local\Temp\ccGkSBtd.s 			page 2


  32:Generated_Source\PSoC4/cyPm.c **** *******************************************************************************/
  33:Generated_Source\PSoC4/cyPm.c **** void CySysPmSleep(void)
  34:Generated_Source\PSoC4/cyPm.c **** {
  27              		.loc 1 34 1 view -0
  28              		.cfi_startproc
  29              		@ args = 0, pretend = 0, frame = 0
  30              		@ frame_needed = 0, uses_anonymous_args = 0
  31 0000 10B5     		push	{r4, lr}
  32              		.cfi_def_cfa_offset 8
  33              		.cfi_offset 4, -8
  34              		.cfi_offset 14, -4
  35:Generated_Source\PSoC4/cyPm.c ****     uint8 interruptState;
  35              		.loc 1 35 5 view .LVU1
  36:Generated_Source\PSoC4/cyPm.c **** 
  37:Generated_Source\PSoC4/cyPm.c ****     interruptState = CyEnterCriticalSection();
  36              		.loc 1 37 5 view .LVU2
  37              		.loc 1 37 22 is_stmt 0 view .LVU3
  38 0002 FFF7FEFF 		bl	CyEnterCriticalSection
  39              	.LVL0:
  38:Generated_Source\PSoC4/cyPm.c **** 
  39:Generated_Source\PSoC4/cyPm.c ****     /* CPU enters Sleep mode upon execution of WFI */
  40:Generated_Source\PSoC4/cyPm.c ****     CY_PM_CPU_SCR_REG &= (uint32) (~CY_PM_CPU_SCR_SLEEPDEEP);
  40              		.loc 1 40 5 is_stmt 1 view .LVU4
  41              		.loc 1 40 23 is_stmt 0 view .LVU5
  42 0006 044A     		ldr	r2, .L2
  43 0008 1368     		ldr	r3, [r2]
  44 000a 0421     		movs	r1, #4
  45 000c 8B43     		bics	r3, r1
  46 000e 1360     		str	r3, [r2]
  41:Generated_Source\PSoC4/cyPm.c **** 
  42:Generated_Source\PSoC4/cyPm.c ****     /* Sleep and wait for interrupt */
  43:Generated_Source\PSoC4/cyPm.c ****     CY_PM_WFI;
  47              		.loc 1 43 5 is_stmt 1 view .LVU6
  48              		.syntax divided
  49              	@ 43 "Generated_Source\PSoC4\cyPm.c" 1
  50 0010 30BF     		WFI 
  51              	
  52              	@ 0 "" 2
  44:Generated_Source\PSoC4/cyPm.c **** 
  45:Generated_Source\PSoC4/cyPm.c ****     CyExitCriticalSection(interruptState);
  53              		.loc 1 45 5 view .LVU7
  54              		.thumb
  55              		.syntax unified
  56 0012 FFF7FEFF 		bl	CyExitCriticalSection
  57              	.LVL1:
  46:Generated_Source\PSoC4/cyPm.c **** }
  58              		.loc 1 46 1 is_stmt 0 view .LVU8
  59              		@ sp needed
  60 0016 10BD     		pop	{r4, pc}
  61              	.L3:
  62              		.align	2
  63              	.L2:
  64 0018 10ED00E0 		.word	-536810224
  65              		.cfi_endproc
  66              	.LFE0:
  67              		.size	CySysPmSleep, .-CySysPmSleep
  68              		.section	.text.CySysPmDeepSleep,"ax",%progbits
ARM GAS  C:\Users\EDULU~1.DES\AppData\Local\Temp\ccGkSBtd.s 			page 3


  69              		.align	1
  70              		.global	CySysPmDeepSleep
  71              		.syntax unified
  72              		.code	16
  73              		.thumb_func
  74              		.fpu softvfp
  75              		.type	CySysPmDeepSleep, %function
  76              	CySysPmDeepSleep:
  77              	.LFB1:
  47:Generated_Source\PSoC4/cyPm.c **** 
  48:Generated_Source\PSoC4/cyPm.c **** 
  49:Generated_Source\PSoC4/cyPm.c **** /*******************************************************************************
  50:Generated_Source\PSoC4/cyPm.c **** * Function Name: CySysPmDeepSleep
  51:Generated_Source\PSoC4/cyPm.c **** ****************************************************************************//**
  52:Generated_Source\PSoC4/cyPm.c **** *
  53:Generated_Source\PSoC4/cyPm.c **** * Puts the part into the Deep Sleep state. If the firmware attempts to enter
  54:Generated_Source\PSoC4/cyPm.c **** * this mode before the system is ready (that is, when
  55:Generated_Source\PSoC4/cyPm.c **** * PWR_CONTROL.LPM_READY = 0), then the device will go into the Sleep mode
  56:Generated_Source\PSoC4/cyPm.c **** * instead and automatically enter the originally intended mode when the
  57:Generated_Source\PSoC4/cyPm.c **** * holdoff expires.
  58:Generated_Source\PSoC4/cyPm.c **** *
  59:Generated_Source\PSoC4/cyPm.c **** * The wakeup occurs when an interrupt is received from a DeepSleep or
  60:Generated_Source\PSoC4/cyPm.c **** * Hibernate peripheral. For more details, see a corresponding
  61:Generated_Source\PSoC4/cyPm.c **** * peripheral's datasheet.
  62:Generated_Source\PSoC4/cyPm.c **** *
  63:Generated_Source\PSoC4/cyPm.c **** *******************************************************************************/
  64:Generated_Source\PSoC4/cyPm.c **** void CySysPmDeepSleep(void)
  65:Generated_Source\PSoC4/cyPm.c **** {
  78              		.loc 1 65 1 is_stmt 1 view -0
  79              		.cfi_startproc
  80              		@ args = 0, pretend = 0, frame = 8
  81              		@ frame_needed = 0, uses_anonymous_args = 0
  82 0000 F0B5     		push	{r4, r5, r6, r7, lr}
  83              		.cfi_def_cfa_offset 20
  84              		.cfi_offset 4, -20
  85              		.cfi_offset 5, -16
  86              		.cfi_offset 6, -12
  87              		.cfi_offset 7, -8
  88              		.cfi_offset 14, -4
  89 0002 83B0     		sub	sp, sp, #12
  90              		.cfi_def_cfa_offset 32
  66:Generated_Source\PSoC4/cyPm.c ****     uint8 interruptState;
  91              		.loc 1 66 5 view .LVU10
  67:Generated_Source\PSoC4/cyPm.c ****     #if(CY_IP_SRSSV2)
  68:Generated_Source\PSoC4/cyPm.c ****         volatile uint32 clkSelectReg;
  92              		.loc 1 68 9 view .LVU11
  69:Generated_Source\PSoC4/cyPm.c ****     #endif /* (CY_IP_SRSSV2) */
  70:Generated_Source\PSoC4/cyPm.c ****     
  71:Generated_Source\PSoC4/cyPm.c ****     #if(CY_IP_ECO_SRSSLT)
  72:Generated_Source\PSoC4/cyPm.c ****         volatile uint32 pllResoreFlag = 0u;
  73:Generated_Source\PSoC4/cyPm.c ****     #endif /* (CY_IP_ECO_SRSSLT) */
  74:Generated_Source\PSoC4/cyPm.c **** 
  75:Generated_Source\PSoC4/cyPm.c ****     #if (CY_IP_IMO_TRIMMABLE_BY_WCO)
  76:Generated_Source\PSoC4/cyPm.c ****         uint32 regTmp = 0u;
  77:Generated_Source\PSoC4/cyPm.c ****     #endif /* (CY_IP_IMO_TRIMMABLE_BY_WCO) */
  78:Generated_Source\PSoC4/cyPm.c ****     
  79:Generated_Source\PSoC4/cyPm.c ****     interruptState = CyEnterCriticalSection();
ARM GAS  C:\Users\EDULU~1.DES\AppData\Local\Temp\ccGkSBtd.s 			page 4


  93              		.loc 1 79 5 view .LVU12
  94              		.loc 1 79 22 is_stmt 0 view .LVU13
  95 0004 FFF7FEFF 		bl	CyEnterCriticalSection
  96              	.LVL2:
  97 0008 0400     		movs	r4, r0
  98              	.LVL3:
  80:Generated_Source\PSoC4/cyPm.c **** 
  81:Generated_Source\PSoC4/cyPm.c ****     #if(CY_IP_ECO_SRSSLT)
  82:Generated_Source\PSoC4/cyPm.c ****         if(0u != (CY_SYS_ECO_CLK_SELECT_REG & CY_SYS_ECO_CLK_SELECT_ECO_PLL_MASK))
  83:Generated_Source\PSoC4/cyPm.c ****         {
  84:Generated_Source\PSoC4/cyPm.c ****             pllResoreFlag = 1u;
  85:Generated_Source\PSoC4/cyPm.c ****             
  86:Generated_Source\PSoC4/cyPm.c ****             /* Set default state = IMO for HFCLK_SEL bit mask */
  87:Generated_Source\PSoC4/cyPm.c ****             CY_SYS_CLK_SELECT_REG &= (uint32)(~CY_SYS_CLK_SELECT_DIRECT_SEL_MASK);
  88:Generated_Source\PSoC4/cyPm.c ****         }
  89:Generated_Source\PSoC4/cyPm.c ****     #endif /* (CY_IP_ECO_SRSSLT) */
  90:Generated_Source\PSoC4/cyPm.c **** 
  91:Generated_Source\PSoC4/cyPm.c ****     #if(CY_IP_SRSSV2)
  92:Generated_Source\PSoC4/cyPm.c ****         /* Device enters DeepSleep mode when CPU asserts SLEEPDEEP signal */
  93:Generated_Source\PSoC4/cyPm.c ****         CY_PM_PWR_CONTROL_REG &= (uint32) (~CY_PM_PWR_CONTROL_HIBERNATE);
  99              		.loc 1 93 9 is_stmt 1 view .LVU14
 100              		.loc 1 93 31 is_stmt 0 view .LVU15
 101 000a 134A     		ldr	r2, .L5
 102 000c 1368     		ldr	r3, [r2]
 103 000e 5B00     		lsls	r3, r3, #1
 104 0010 5B08     		lsrs	r3, r3, #1
 105 0012 1360     		str	r3, [r2]
  94:Generated_Source\PSoC4/cyPm.c ****     #endif /* (CY_IP_SRSSV2) */
  95:Generated_Source\PSoC4/cyPm.c **** 
  96:Generated_Source\PSoC4/cyPm.c ****     #if (CY_IP_CPUSS && CY_IP_SRSSV2)
  97:Generated_Source\PSoC4/cyPm.c ****         CY_PM_CPUSS_CONFIG_REG |= CY_PM_CPUSS_CONFIG_FLSH_ACC_BYPASS;
 106              		.loc 1 97 9 is_stmt 1 view .LVU16
 107              		.loc 1 97 32 is_stmt 0 view .LVU17
 108 0014 8025     		movs	r5, #128
 109 0016 ED05     		lsls	r5, r5, #23
 110 0018 2B68     		ldr	r3, [r5]
 111 001a 0226     		movs	r6, #2
 112 001c 3343     		orrs	r3, r6
 113 001e 2B60     		str	r3, [r5]
  98:Generated_Source\PSoC4/cyPm.c ****     #endif /* (CY_IP_CPUSS && CY_IP_SRSSV2) */
  99:Generated_Source\PSoC4/cyPm.c ****     
 100:Generated_Source\PSoC4/cyPm.c ****     #if (CY_IP_IMO_TRIMMABLE_BY_WCO)
 101:Generated_Source\PSoC4/cyPm.c ****         if (0u != (CY_SYS_CLK_WCO_CONFIG_REG & CY_SYS_CLK_WCO_CONFIG_DPLL_ENABLE))
 102:Generated_Source\PSoC4/cyPm.c ****         {
 103:Generated_Source\PSoC4/cyPm.c ****             regTmp  = CY_SYS_CLK_WCO_DPLL_REG & ~(CY_SYS_CLK_WCO_CONFIG_DPLL_LF_LIMIT_MASK);
 104:Generated_Source\PSoC4/cyPm.c ****             CY_SYS_CLK_WCO_DPLL_REG = (regTmp | (((CY_SYS_CLK_IMO_TRIM1_REG + CY_PM_WCO_DPLL_LF_LIM
 105:Generated_Source\PSoC4/cyPm.c ****                                                   CY_SYS_CLK_WCO_CONFIG_DPLL_LF_LIMIT_MAX) << 
 106:Generated_Source\PSoC4/cyPm.c ****                                                  CY_SYS_CLK_WCO_CONFIG_DPLL_LF_LIMIT_SHIFT));
 107:Generated_Source\PSoC4/cyPm.c ****         }
 108:Generated_Source\PSoC4/cyPm.c ****     #endif /* (CY_IP_IMO_TRIMMABLE_BY_WCO) */
 109:Generated_Source\PSoC4/cyPm.c **** 
 110:Generated_Source\PSoC4/cyPm.c ****     /* Adjust delay to wait for references to settle on wakeup from Deep Sleep */
 111:Generated_Source\PSoC4/cyPm.c ****     CY_PM_PWR_KEY_DELAY_REG = CY_SFLASH_DPSLP_KEY_DELAY_REG;
 114              		.loc 1 111 5 is_stmt 1 view .LVU18
 115              		.loc 1 111 31 is_stmt 0 view .LVU19
 116 0020 0E4B     		ldr	r3, .L5+4
 117 0022 1B88     		ldrh	r3, [r3]
ARM GAS  C:\Users\EDULU~1.DES\AppData\Local\Temp\ccGkSBtd.s 			page 5


 118 0024 9BB2     		uxth	r3, r3
 119              		.loc 1 111 29 view .LVU20
 120 0026 0E4A     		ldr	r2, .L5+8
 121 0028 1360     		str	r3, [r2]
 112:Generated_Source\PSoC4/cyPm.c **** 
 113:Generated_Source\PSoC4/cyPm.c ****     /* CPU enters DeepSleep/Hibernate mode upon execution of WFI */
 114:Generated_Source\PSoC4/cyPm.c ****     CY_PM_CPU_SCR_REG |= CY_PM_CPU_SCR_SLEEPDEEP;
 122              		.loc 1 114 5 is_stmt 1 view .LVU21
 123              		.loc 1 114 23 is_stmt 0 view .LVU22
 124 002a 0E4A     		ldr	r2, .L5+12
 125 002c 1368     		ldr	r3, [r2]
 126 002e 0421     		movs	r1, #4
 127 0030 0B43     		orrs	r3, r1
 128 0032 1360     		str	r3, [r2]
 115:Generated_Source\PSoC4/cyPm.c **** 
 116:Generated_Source\PSoC4/cyPm.c ****     #if(CY_IP_SRSSV2)
 117:Generated_Source\PSoC4/cyPm.c ****         /* Preserve system clock configuration and
 118:Generated_Source\PSoC4/cyPm.c ****         * reduce sysclk to <=12 MHz (Cypress ID #158710, #179888).
 119:Generated_Source\PSoC4/cyPm.c ****         */
 120:Generated_Source\PSoC4/cyPm.c ****         clkSelectReg = CY_SYS_CLK_SELECT_REG;
 129              		.loc 1 120 9 is_stmt 1 view .LVU23
 130              		.loc 1 120 24 is_stmt 0 view .LVU24
 131 0034 0C4F     		ldr	r7, .L5+16
 132 0036 3B68     		ldr	r3, [r7]
 133              		.loc 1 120 22 view .LVU25
 134 0038 0193     		str	r3, [sp, #4]
 121:Generated_Source\PSoC4/cyPm.c ****         CySysClkWriteSysclkDiv(CY_SYS_CLK_SYSCLK_DIV4);
 135              		.loc 1 121 9 is_stmt 1 view .LVU26
 136 003a 0220     		movs	r0, #2
 137 003c FFF7FEFF 		bl	CySysClkWriteSysclkDiv
 138              	.LVL4:
 122:Generated_Source\PSoC4/cyPm.c ****     #endif /* (CY_IP_SRSSV2) */
 123:Generated_Source\PSoC4/cyPm.c ****     
 124:Generated_Source\PSoC4/cyPm.c ****     /* Sleep and wait for interrupt */
 125:Generated_Source\PSoC4/cyPm.c ****     CY_PM_WFI;
 139              		.loc 1 125 5 view .LVU27
 140              		.syntax divided
 141              	@ 125 "Generated_Source\PSoC4\cyPm.c" 1
 142 0040 30BF     		WFI 
 143              	
 144              	@ 0 "" 2
 126:Generated_Source\PSoC4/cyPm.c **** 
 127:Generated_Source\PSoC4/cyPm.c ****     #if(CY_IP_SRSSV2)
 128:Generated_Source\PSoC4/cyPm.c ****         /* Restore system clock configuration */
 129:Generated_Source\PSoC4/cyPm.c ****         CY_SYS_CLK_SELECT_REG = clkSelectReg;
 145              		.loc 1 129 9 view .LVU28
 146              		.loc 1 129 31 is_stmt 0 view .LVU29
 147              		.thumb
 148              		.syntax unified
 149 0042 019B     		ldr	r3, [sp, #4]
 150 0044 3B60     		str	r3, [r7]
 130:Generated_Source\PSoC4/cyPm.c ****     #endif /* (CY_IP_SRSSV2) */
 131:Generated_Source\PSoC4/cyPm.c **** 
 132:Generated_Source\PSoC4/cyPm.c ****     #if (CY_IP_IMO_TRIMMABLE_BY_WCO)
 133:Generated_Source\PSoC4/cyPm.c ****         if (0u != (CY_SYS_CLK_WCO_CONFIG_REG & CY_SYS_CLK_WCO_CONFIG_DPLL_ENABLE))
 134:Generated_Source\PSoC4/cyPm.c ****         {
 135:Generated_Source\PSoC4/cyPm.c ****             CyDelayUs(CY_PM_WCO_DPLL_WAKEUP_DELAY);
ARM GAS  C:\Users\EDULU~1.DES\AppData\Local\Temp\ccGkSBtd.s 			page 6


 136:Generated_Source\PSoC4/cyPm.c ****             regTmp  = CY_SYS_CLK_WCO_DPLL_REG & ~(CY_SYS_CLK_WCO_CONFIG_DPLL_LF_LIMIT_MASK);
 137:Generated_Source\PSoC4/cyPm.c ****             CY_SYS_CLK_WCO_DPLL_REG = (regTmp | (CY_SYS_CLK_WCO_CONFIG_DPLL_LF_LIMIT_MAX << 
 138:Generated_Source\PSoC4/cyPm.c ****                                                  CY_SYS_CLK_WCO_CONFIG_DPLL_LF_LIMIT_SHIFT));
 139:Generated_Source\PSoC4/cyPm.c ****         }
 140:Generated_Source\PSoC4/cyPm.c ****     #endif /* (CY_IP_IMO_TRIMMABLE_BY_WCO) */    
 141:Generated_Source\PSoC4/cyPm.c ****     
 142:Generated_Source\PSoC4/cyPm.c ****     #if (CY_IP_CPUSS && CY_IP_SRSSV2)
 143:Generated_Source\PSoC4/cyPm.c ****         CY_PM_CPUSS_CONFIG_REG &= (uint32) (~CY_PM_CPUSS_CONFIG_FLSH_ACC_BYPASS);
 151              		.loc 1 143 9 is_stmt 1 view .LVU30
 152              		.loc 1 143 32 is_stmt 0 view .LVU31
 153 0046 2B68     		ldr	r3, [r5]
 154 0048 B343     		bics	r3, r6
 155 004a 2B60     		str	r3, [r5]
 144:Generated_Source\PSoC4/cyPm.c ****     #endif /* (CY_IP_CPUSS && CY_IP_SRSSV2) */
 145:Generated_Source\PSoC4/cyPm.c **** 
 146:Generated_Source\PSoC4/cyPm.c ****     #if(CY_IP_ECO_SRSSLT)
 147:Generated_Source\PSoC4/cyPm.c ****         if(0u != pllResoreFlag)
 148:Generated_Source\PSoC4/cyPm.c ****         {
 149:Generated_Source\PSoC4/cyPm.c ****             CySysClkWriteHfclkDirect(CY_SYS_CLK_HFCLK_PLL0);
 150:Generated_Source\PSoC4/cyPm.c ****         }
 151:Generated_Source\PSoC4/cyPm.c ****     #endif /* (CY_IP_ECO_SRSSLT) */    
 152:Generated_Source\PSoC4/cyPm.c **** 
 153:Generated_Source\PSoC4/cyPm.c ****     CyExitCriticalSection(interruptState);
 156              		.loc 1 153 5 is_stmt 1 view .LVU32
 157 004c 2000     		movs	r0, r4
 158 004e FFF7FEFF 		bl	CyExitCriticalSection
 159              	.LVL5:
 154:Generated_Source\PSoC4/cyPm.c **** }
 160              		.loc 1 154 1 is_stmt 0 view .LVU33
 161 0052 03B0     		add	sp, sp, #12
 162              		@ sp needed
 163              	.LVL6:
 164              		.loc 1 154 1 view .LVU34
 165 0054 F0BD     		pop	{r4, r5, r6, r7, pc}
 166              	.L6:
 167 0056 C046     		.align	2
 168              	.L5:
 169 0058 00000B40 		.word	1074462720
 170 005c 52F1FF0F 		.word	268431698
 171 0060 0C000B40 		.word	1074462732
 172 0064 10ED00E0 		.word	-536810224
 173 0068 00010B40 		.word	1074462976
 174              		.cfi_endproc
 175              	.LFE1:
 176              		.size	CySysPmDeepSleep, .-CySysPmDeepSleep
 177              		.section	.text.CySysPmHibernate,"ax",%progbits
 178              		.align	1
 179              		.global	CySysPmHibernate
 180              		.syntax unified
 181              		.code	16
 182              		.thumb_func
 183              		.fpu softvfp
 184              		.type	CySysPmHibernate, %function
 185              	CySysPmHibernate:
 186              	.LFB2:
 155:Generated_Source\PSoC4/cyPm.c **** 
 156:Generated_Source\PSoC4/cyPm.c **** 
ARM GAS  C:\Users\EDULU~1.DES\AppData\Local\Temp\ccGkSBtd.s 			page 7


 157:Generated_Source\PSoC4/cyPm.c **** #if(CY_IP_SRSSV2)
 158:Generated_Source\PSoC4/cyPm.c **** 
 159:Generated_Source\PSoC4/cyPm.c ****     /*******************************************************************************
 160:Generated_Source\PSoC4/cyPm.c ****     * Function Name: CySysPmHibernate
 161:Generated_Source\PSoC4/cyPm.c ****     ****************************************************************************//**
 162:Generated_Source\PSoC4/cyPm.c ****     *
 163:Generated_Source\PSoC4/cyPm.c ****     * Puts the part into the Hibernate state. Only SRAM and UDBs are retained;
 164:Generated_Source\PSoC4/cyPm.c ****     * most internal supplies are off. Wakeup is possible from a pin or a hibernate
 165:Generated_Source\PSoC4/cyPm.c ****     * comparator only.
 166:Generated_Source\PSoC4/cyPm.c ****     *
 167:Generated_Source\PSoC4/cyPm.c ****     * It is expected that the firmware has already frozen the IO-Cells using
 168:Generated_Source\PSoC4/cyPm.c ****     * CySysPmFreezeIo() function before the call to this function. If this is
 169:Generated_Source\PSoC4/cyPm.c ****     * omitted, the IO-cells will be frozen in the same way as they are
 170:Generated_Source\PSoC4/cyPm.c ****     * in the Active to Deep Sleep transition, but will lose their state on wake up
 171:Generated_Source\PSoC4/cyPm.c ****     * (because of the reset occurring at that time).
 172:Generated_Source\PSoC4/cyPm.c ****     *
 173:Generated_Source\PSoC4/cyPm.c ****     * Because all the CPU state is lost, the CPU will start up at the reset vector.
 174:Generated_Source\PSoC4/cyPm.c ****     * To save the firmware state through the Hibernate low power mode, a
 175:Generated_Source\PSoC4/cyPm.c ****     * corresponding variable should be defined with CY_NOINIT attribute. It
 176:Generated_Source\PSoC4/cyPm.c ****     * prevents data from being initialized to zero on startup. The interrupt
 177:Generated_Source\PSoC4/cyPm.c ****     * cause of the hibernate peripheral is retained, such that it can be either
 178:Generated_Source\PSoC4/cyPm.c ****     * read by the firmware or cause an interrupt after the firmware has booted and
 179:Generated_Source\PSoC4/cyPm.c ****     * enabled the corresponding interrupt. To distinguish the wakeup from
 180:Generated_Source\PSoC4/cyPm.c ****     * the Hibernate mode and the general Reset event, the
 181:Generated_Source\PSoC4/cyPm.c ****     * \ref CySysPmGetResetReason() function could be used.
 182:Generated_Source\PSoC4/cyPm.c ****     *
 183:Generated_Source\PSoC4/cyPm.c ****     *******************************************************************************/
 184:Generated_Source\PSoC4/cyPm.c ****     void CySysPmHibernate(void)
 185:Generated_Source\PSoC4/cyPm.c ****     {
 187              		.loc 1 185 5 is_stmt 1 view -0
 188              		.cfi_startproc
 189              		@ args = 0, pretend = 0, frame = 0
 190              		@ frame_needed = 0, uses_anonymous_args = 0
 191 0000 10B5     		push	{r4, lr}
 192              		.cfi_def_cfa_offset 8
 193              		.cfi_offset 4, -8
 194              		.cfi_offset 14, -4
 186:Generated_Source\PSoC4/cyPm.c ****         uint8 interruptState;
 195              		.loc 1 186 9 view .LVU36
 187:Generated_Source\PSoC4/cyPm.c **** 
 188:Generated_Source\PSoC4/cyPm.c ****         interruptState = CyEnterCriticalSection();
 196              		.loc 1 188 9 view .LVU37
 197              		.loc 1 188 26 is_stmt 0 view .LVU38
 198 0002 FFF7FEFF 		bl	CyEnterCriticalSection
 199              	.LVL7:
 189:Generated_Source\PSoC4/cyPm.c **** 
 190:Generated_Source\PSoC4/cyPm.c ****         #if (CY_IP_HOBTO_DEVICE)
 191:Generated_Source\PSoC4/cyPm.c ****             /* Disable input buffers for all ports */
 192:Generated_Source\PSoC4/cyPm.c ****             CySysPmHibPinsDisableInputBuf();
 193:Generated_Source\PSoC4/cyPm.c ****         #endif /* (CY_IP_HOBTO_DEVICE) */
 194:Generated_Source\PSoC4/cyPm.c **** 
 195:Generated_Source\PSoC4/cyPm.c ****         /* Device enters Hibernate mode when CPU asserts SLEEPDEEP signal */
 196:Generated_Source\PSoC4/cyPm.c ****         CY_PM_PWR_CONTROL_REG |= CY_PM_PWR_CONTROL_HIBERNATE;
 200              		.loc 1 196 9 is_stmt 1 view .LVU39
 201              		.loc 1 196 31 is_stmt 0 view .LVU40
 202 0006 0D4A     		ldr	r2, .L8
 203 0008 1168     		ldr	r1, [r2]
ARM GAS  C:\Users\EDULU~1.DES\AppData\Local\Temp\ccGkSBtd.s 			page 8


 204 000a 8023     		movs	r3, #128
 205 000c 1B06     		lsls	r3, r3, #24
 206 000e 0B43     		orrs	r3, r1
 207 0010 1360     		str	r3, [r2]
 197:Generated_Source\PSoC4/cyPm.c **** 
 198:Generated_Source\PSoC4/cyPm.c ****         /* Adjust delay to wait for references to settle on wakeup from hibernate */
 199:Generated_Source\PSoC4/cyPm.c ****         CY_PM_PWR_KEY_DELAY_REG = CY_SFLASH_HIB_KEY_DELAY_REG;
 208              		.loc 1 199 9 is_stmt 1 view .LVU41
 209              		.loc 1 199 35 is_stmt 0 view .LVU42
 210 0012 0B4B     		ldr	r3, .L8+4
 211 0014 1B88     		ldrh	r3, [r3]
 212 0016 9BB2     		uxth	r3, r3
 213              		.loc 1 199 33 view .LVU43
 214 0018 0A4A     		ldr	r2, .L8+8
 215 001a 1360     		str	r3, [r2]
 200:Generated_Source\PSoC4/cyPm.c **** 
 201:Generated_Source\PSoC4/cyPm.c ****         /* CPU enters DeepSleep/Hibernate mode upon execution of WFI */
 202:Generated_Source\PSoC4/cyPm.c ****         CY_PM_CPU_SCR_REG |= CY_PM_CPU_SCR_SLEEPDEEP;
 216              		.loc 1 202 9 is_stmt 1 view .LVU44
 217              		.loc 1 202 27 is_stmt 0 view .LVU45
 218 001c 0A4A     		ldr	r2, .L8+12
 219 001e 1368     		ldr	r3, [r2]
 220 0020 0421     		movs	r1, #4
 221 0022 0B43     		orrs	r3, r1
 222 0024 1360     		str	r3, [r2]
 203:Generated_Source\PSoC4/cyPm.c **** 
 204:Generated_Source\PSoC4/cyPm.c ****         /* Save token that will retain through a STOP/WAKEUP sequence
 205:Generated_Source\PSoC4/cyPm.c ****          * thus could be used by CySysPmGetResetReason() to differentiate
 206:Generated_Source\PSoC4/cyPm.c ****          * WAKEUP from a general RESET event.
 207:Generated_Source\PSoC4/cyPm.c ****          */
 208:Generated_Source\PSoC4/cyPm.c ****         CY_PM_PWR_STOP_REG = (CY_PM_PWR_STOP_REG & (uint32)(~CY_PM_PWR_STOP_TOKEN_MASK)) | CY_PM_PW
 223              		.loc 1 208 9 is_stmt 1 view .LVU46
 224              		.loc 1 208 31 is_stmt 0 view .LVU47
 225 0026 094A     		ldr	r2, .L8+16
 226 0028 1368     		ldr	r3, [r2]
 227              		.loc 1 208 50 view .LVU48
 228 002a FB31     		adds	r1, r1, #251
 229 002c 8B43     		bics	r3, r1
 230              		.loc 1 208 90 view .LVU49
 231 002e 0E39     		subs	r1, r1, #14
 232 0030 0B43     		orrs	r3, r1
 233              		.loc 1 208 28 view .LVU50
 234 0032 1360     		str	r3, [r2]
 209:Generated_Source\PSoC4/cyPm.c **** 
 210:Generated_Source\PSoC4/cyPm.c ****         /* Sleep and wait for interrupt. Wakeup from Hibernate is performed
 211:Generated_Source\PSoC4/cyPm.c ****          * through RESET state, causing a normal Boot procedure to occur.
 212:Generated_Source\PSoC4/cyPm.c ****          * The WFI instruction doesn't put the core to sleep if its wake condition
 213:Generated_Source\PSoC4/cyPm.c ****          * is true when the instruction is executed.
 214:Generated_Source\PSoC4/cyPm.c ****          */
 215:Generated_Source\PSoC4/cyPm.c ****         CY_PM_WFI;
 235              		.loc 1 215 9 is_stmt 1 view .LVU51
 236              		.syntax divided
 237              	@ 215 "Generated_Source\PSoC4\cyPm.c" 1
 238 0034 30BF     		WFI 
 239              	
 240              	@ 0 "" 2
 216:Generated_Source\PSoC4/cyPm.c **** 
ARM GAS  C:\Users\EDULU~1.DES\AppData\Local\Temp\ccGkSBtd.s 			page 9


 217:Generated_Source\PSoC4/cyPm.c ****         CyExitCriticalSection(interruptState);
 241              		.loc 1 217 9 view .LVU52
 242              		.thumb
 243              		.syntax unified
 244 0036 FFF7FEFF 		bl	CyExitCriticalSection
 245              	.LVL8:
 218:Generated_Source\PSoC4/cyPm.c ****     }
 246              		.loc 1 218 5 is_stmt 0 view .LVU53
 247              		@ sp needed
 248 003a 10BD     		pop	{r4, pc}
 249              	.L9:
 250              		.align	2
 251              	.L8:
 252 003c 00000B40 		.word	1074462720
 253 0040 50F1FF0F 		.word	268431696
 254 0044 0C000B40 		.word	1074462732
 255 0048 10ED00E0 		.word	-536810224
 256 004c 2C000B40 		.word	1074462764
 257              		.cfi_endproc
 258              	.LFE2:
 259              		.size	CySysPmHibernate, .-CySysPmHibernate
 260              		.section	.text.CySysPmSetWakeupPolarity,"ax",%progbits
 261              		.align	1
 262              		.global	CySysPmSetWakeupPolarity
 263              		.syntax unified
 264              		.code	16
 265              		.thumb_func
 266              		.fpu softvfp
 267              		.type	CySysPmSetWakeupPolarity, %function
 268              	CySysPmSetWakeupPolarity:
 269              	.LVL9:
 270              	.LFB4:
 219:Generated_Source\PSoC4/cyPm.c **** 
 220:Generated_Source\PSoC4/cyPm.c **** 
 221:Generated_Source\PSoC4/cyPm.c ****     /*******************************************************************************
 222:Generated_Source\PSoC4/cyPm.c ****     * Function Name: CySysPmStop
 223:Generated_Source\PSoC4/cyPm.c ****     ****************************************************************************//**
 224:Generated_Source\PSoC4/cyPm.c ****     *
 225:Generated_Source\PSoC4/cyPm.c ****     * Puts the part into the Stop state. All internal supplies are off;
 226:Generated_Source\PSoC4/cyPm.c ****     * no state is retained.
 227:Generated_Source\PSoC4/cyPm.c ****     *
 228:Generated_Source\PSoC4/cyPm.c ****     * Wakeup from Stop is performed by toggling the wakeup pin, causing
 229:Generated_Source\PSoC4/cyPm.c ****     * a normal boot procedure to occur. To configure the wakeup pin,
 230:Generated_Source\PSoC4/cyPm.c ****     * the Digital Input Pin component should be placed on the schematic,
 231:Generated_Source\PSoC4/cyPm.c ****     * assigned to the wakeup pin, and resistively pulled up or down to the inverse
 232:Generated_Source\PSoC4/cyPm.c ****     * state of the wakeup polarity. To distinguish the wakeup from the Stop mode
 233:Generated_Source\PSoC4/cyPm.c ****     * and the general Reset event, \ref CySysPmGetResetReason() function could be
 234:Generated_Source\PSoC4/cyPm.c ****     * used.  The wakeup pin is active low by default. The wakeup pin polarity
 235:Generated_Source\PSoC4/cyPm.c ****     * could be changed with the \ref CySysPmSetWakeupPolarity() function.
 236:Generated_Source\PSoC4/cyPm.c ****     *
 237:Generated_Source\PSoC4/cyPm.c ****     * This function freezes IO cells implicitly. It is not possible to enter
 238:Generated_Source\PSoC4/cyPm.c ****     * the STOP mode before freezing the IO cells. The IO cells remain frozen after
 239:Generated_Source\PSoC4/cyPm.c ****     * awake from the Stop mode until the firmware unfreezes them after booting
 240:Generated_Source\PSoC4/cyPm.c ****     * explicitly with \ref CySysPmUnfreezeIo() function call.
 241:Generated_Source\PSoC4/cyPm.c ****     *
 242:Generated_Source\PSoC4/cyPm.c ****     *******************************************************************************/
 243:Generated_Source\PSoC4/cyPm.c ****     void CySysPmStop(void)
ARM GAS  C:\Users\EDULU~1.DES\AppData\Local\Temp\ccGkSBtd.s 			page 10


 244:Generated_Source\PSoC4/cyPm.c ****     {
 245:Generated_Source\PSoC4/cyPm.c ****         (void) CyEnterCriticalSection();
 246:Generated_Source\PSoC4/cyPm.c **** 
 247:Generated_Source\PSoC4/cyPm.c ****         /* Update token to indicate Stop mode transition. Preserve only polarity. */
 248:Generated_Source\PSoC4/cyPm.c ****         CY_PM_PWR_STOP_REG = (CY_PM_PWR_STOP_REG & CY_PM_PWR_STOP_POLARITY) | CY_PM_PWR_STOP_TOKEN_
 249:Generated_Source\PSoC4/cyPm.c **** 
 250:Generated_Source\PSoC4/cyPm.c ****         /* Freeze IO-Cells to save IO-Cell state */
 251:Generated_Source\PSoC4/cyPm.c ****         CySysPmFreezeIo();
 252:Generated_Source\PSoC4/cyPm.c **** 
 253:Generated_Source\PSoC4/cyPm.c ****         /* Initiates transition to Stop state */
 254:Generated_Source\PSoC4/cyPm.c ****         CY_PM_PWR_STOP_REG = CY_PM_PWR_STOP_REG | CY_PM_PWR_STOP_STOP;
 255:Generated_Source\PSoC4/cyPm.c **** 
 256:Generated_Source\PSoC4/cyPm.c ****         /* Depending on the clock frequency and internal timing delays,
 257:Generated_Source\PSoC4/cyPm.c ****          * the final AHB transaction may or may not complete. To guard against
 258:Generated_Source\PSoC4/cyPm.c ****          * accidentally executing an unintended instruction, it is recommended
 259:Generated_Source\PSoC4/cyPm.c ****          * to add 2 NOP cycles after the final write to the STOP register.
 260:Generated_Source\PSoC4/cyPm.c ****          */
 261:Generated_Source\PSoC4/cyPm.c ****         CY_NOP;
 262:Generated_Source\PSoC4/cyPm.c ****         CY_NOP;
 263:Generated_Source\PSoC4/cyPm.c **** 
 264:Generated_Source\PSoC4/cyPm.c ****         /* Should never get to this WFI instruction */
 265:Generated_Source\PSoC4/cyPm.c ****         CY_PM_WFI;
 266:Generated_Source\PSoC4/cyPm.c **** 
 267:Generated_Source\PSoC4/cyPm.c ****         /* Wakeup from Stop is performed by toggling of Wakeup pin,
 268:Generated_Source\PSoC4/cyPm.c ****          * causing a normal Boot procedure to occur. No need to exit
 269:Generated_Source\PSoC4/cyPm.c ****          * from the critical section.
 270:Generated_Source\PSoC4/cyPm.c ****          */
 271:Generated_Source\PSoC4/cyPm.c ****     }
 272:Generated_Source\PSoC4/cyPm.c **** 
 273:Generated_Source\PSoC4/cyPm.c **** 
 274:Generated_Source\PSoC4/cyPm.c ****     /*******************************************************************************
 275:Generated_Source\PSoC4/cyPm.c ****     * Function Name: CySysPmSetWakeupPolarity
 276:Generated_Source\PSoC4/cyPm.c ****     ****************************************************************************//**
 277:Generated_Source\PSoC4/cyPm.c ****     *
 278:Generated_Source\PSoC4/cyPm.c ****     * Wake up from the stop mode is performed by toggling the wakeup pin,
 279:Generated_Source\PSoC4/cyPm.c ****     * causing a normal boot procedure to occur. This function assigns
 280:Generated_Source\PSoC4/cyPm.c ****     * the wakeup pin active level. Setting the wakeup pin to this level will cause
 281:Generated_Source\PSoC4/cyPm.c ****     * the wakeup from stop mode. The wakeup pin is active low by default.
 282:Generated_Source\PSoC4/cyPm.c ****     *
 283:Generated_Source\PSoC4/cyPm.c ****     * \param polarity
 284:Generated_Source\PSoC4/cyPm.c ****     * - \ref CY_PM_STOP_WAKEUP_ACTIVE_LOW Logical zero will wakeup the chip
 285:Generated_Source\PSoC4/cyPm.c ****     * - \ref CY_PM_STOP_WAKEUP_ACTIVE_HIGH Logical one will wakeup the chip
 286:Generated_Source\PSoC4/cyPm.c ****     *
 287:Generated_Source\PSoC4/cyPm.c ****     *******************************************************************************/
 288:Generated_Source\PSoC4/cyPm.c ****     void CySysPmSetWakeupPolarity(uint32 polarity)
 289:Generated_Source\PSoC4/cyPm.c ****     {
 271              		.loc 1 289 5 is_stmt 1 view -0
 272              		.cfi_startproc
 273              		@ args = 0, pretend = 0, frame = 0
 274              		@ frame_needed = 0, uses_anonymous_args = 0
 275              		.loc 1 289 5 is_stmt 0 view .LVU55
 276 0000 10B5     		push	{r4, lr}
 277              		.cfi_def_cfa_offset 8
 278              		.cfi_offset 4, -8
 279              		.cfi_offset 14, -4
 280 0002 0400     		movs	r4, r0
 290:Generated_Source\PSoC4/cyPm.c ****         uint8 interruptState;
ARM GAS  C:\Users\EDULU~1.DES\AppData\Local\Temp\ccGkSBtd.s 			page 11


 281              		.loc 1 290 9 is_stmt 1 view .LVU56
 291:Generated_Source\PSoC4/cyPm.c **** 
 292:Generated_Source\PSoC4/cyPm.c ****         interruptState = CyEnterCriticalSection();
 282              		.loc 1 292 9 view .LVU57
 283              		.loc 1 292 26 is_stmt 0 view .LVU58
 284 0004 FFF7FEFF 		bl	CyEnterCriticalSection
 285              	.LVL10:
 293:Generated_Source\PSoC4/cyPm.c **** 
 294:Generated_Source\PSoC4/cyPm.c ****         CY_PM_PWR_STOP_REG = (CY_PM_STOP_WAKEUP_ACTIVE_LOW != polarity) ?
 286              		.loc 1 294 9 is_stmt 1 view .LVU59
 295:Generated_Source\PSoC4/cyPm.c ****                             (CY_PM_PWR_STOP_REG | CY_PM_PWR_STOP_POLARITY) :
 287              		.loc 1 295 76 is_stmt 0 view .LVU60
 288 0008 002C     		cmp	r4, #0
 289 000a 09D0     		beq	.L11
 290              		.loc 1 295 30 discriminator 1 view .LVU61
 291 000c 074B     		ldr	r3, .L13
 292 000e 1A68     		ldr	r2, [r3]
 293              		.loc 1 295 76 discriminator 1 view .LVU62
 294 0010 8023     		movs	r3, #128
 295 0012 5B02     		lsls	r3, r3, #9
 296 0014 1343     		orrs	r3, r2
 297              	.L12:
 294:Generated_Source\PSoC4/cyPm.c ****                             (CY_PM_PWR_STOP_REG | CY_PM_PWR_STOP_POLARITY) :
 298              		.loc 1 294 28 view .LVU63
 299 0016 054A     		ldr	r2, .L13
 300 0018 1360     		str	r3, [r2]
 296:Generated_Source\PSoC4/cyPm.c ****                             (CY_PM_PWR_STOP_REG & (uint32) (~CY_PM_PWR_STOP_POLARITY));
 297:Generated_Source\PSoC4/cyPm.c **** 
 298:Generated_Source\PSoC4/cyPm.c ****         CyExitCriticalSection(interruptState);
 301              		.loc 1 298 9 is_stmt 1 view .LVU64
 302 001a FFF7FEFF 		bl	CyExitCriticalSection
 303              	.LVL11:
 299:Generated_Source\PSoC4/cyPm.c ****     }
 304              		.loc 1 299 5 is_stmt 0 view .LVU65
 305              		@ sp needed
 306              	.LVL12:
 307              		.loc 1 299 5 view .LVU66
 308 001e 10BD     		pop	{r4, pc}
 309              	.LVL13:
 310              	.L11:
 296:Generated_Source\PSoC4/cyPm.c ****                             (CY_PM_PWR_STOP_REG & (uint32) (~CY_PM_PWR_STOP_POLARITY));
 311              		.loc 1 296 30 discriminator 2 view .LVU67
 312 0020 024B     		ldr	r3, .L13
 313 0022 1B68     		ldr	r3, [r3]
 295:Generated_Source\PSoC4/cyPm.c ****                             (CY_PM_PWR_STOP_REG & (uint32) (~CY_PM_PWR_STOP_POLARITY));
 314              		.loc 1 295 76 discriminator 2 view .LVU68
 315 0024 024A     		ldr	r2, .L13+4
 316 0026 1340     		ands	r3, r2
 317 0028 F5E7     		b	.L12
 318              	.L14:
 319 002a C046     		.align	2
 320              	.L13:
 321 002c 2C000B40 		.word	1074462764
 322 0030 FFFFFEFF 		.word	-65537
 323              		.cfi_endproc
 324              	.LFE4:
 325              		.size	CySysPmSetWakeupPolarity, .-CySysPmSetWakeupPolarity
ARM GAS  C:\Users\EDULU~1.DES\AppData\Local\Temp\ccGkSBtd.s 			page 12


 326              		.section	.text.CySysPmGetResetReason,"ax",%progbits
 327              		.align	1
 328              		.global	CySysPmGetResetReason
 329              		.syntax unified
 330              		.code	16
 331              		.thumb_func
 332              		.fpu softvfp
 333              		.type	CySysPmGetResetReason, %function
 334              	CySysPmGetResetReason:
 335              	.LFB5:
 300:Generated_Source\PSoC4/cyPm.c **** 
 301:Generated_Source\PSoC4/cyPm.c **** 
 302:Generated_Source\PSoC4/cyPm.c ****     /*******************************************************************************
 303:Generated_Source\PSoC4/cyPm.c ****     * Function Name: CySysPmGetResetReason
 304:Generated_Source\PSoC4/cyPm.c ****     ****************************************************************************//**
 305:Generated_Source\PSoC4/cyPm.c ****     *
 306:Generated_Source\PSoC4/cyPm.c ****     * Retrieves the last reset reason - transition from OFF/XRES/STOP/HIBERNATE to
 307:Generated_Source\PSoC4/cyPm.c ****     * the RESET state. Note that waking up from STOP using XRES will be perceived
 308:Generated_Source\PSoC4/cyPm.c ****     * as a general RESET.
 309:Generated_Source\PSoC4/cyPm.c ****     *
 310:Generated_Source\PSoC4/cyPm.c ****     * \return CY_PM_RESET_REASON_UNKN          Unknown reset reason.
 311:Generated_Source\PSoC4/cyPm.c ****     * \return CY_PM_RESET_REASON_XRES          Transition from OFF/XRES to RESET
 312:Generated_Source\PSoC4/cyPm.c ****     * \return CY_PM_RESET_REASON_WAKEUP_HIB    Transition/wakeup from HIBERNATE to RESET
 313:Generated_Source\PSoC4/cyPm.c ****     * \return CY_PM_RESET_REASON_WAKEUP_STOP   Transition/wakeup from STOP to RESET
 314:Generated_Source\PSoC4/cyPm.c ****     *
 315:Generated_Source\PSoC4/cyPm.c ****     *******************************************************************************/
 316:Generated_Source\PSoC4/cyPm.c ****     uint32 CySysPmGetResetReason(void)
 317:Generated_Source\PSoC4/cyPm.c ****     {
 336              		.loc 1 317 5 is_stmt 1 view -0
 337              		.cfi_startproc
 338              		@ args = 0, pretend = 0, frame = 0
 339              		@ frame_needed = 0, uses_anonymous_args = 0
 340              		@ link register save eliminated.
 318:Generated_Source\PSoC4/cyPm.c ****         uint32 reason = CY_PM_RESET_REASON_UNKN;
 341              		.loc 1 318 9 view .LVU70
 342              	.LVL14:
 319:Generated_Source\PSoC4/cyPm.c **** 
 320:Generated_Source\PSoC4/cyPm.c ****         switch(CY_PM_PWR_STOP_REG & CY_PM_PWR_STOP_TOKEN_MASK)
 343              		.loc 1 320 9 view .LVU71
 344              		.loc 1 320 16 is_stmt 0 view .LVU72
 345 0000 084B     		ldr	r3, .L20
 346 0002 1A68     		ldr	r2, [r3]
 347              		.loc 1 320 35 view .LVU73
 348 0004 FF23     		movs	r3, #255
 349 0006 1340     		ands	r3, r2
 350              		.loc 1 320 9 view .LVU74
 351 0008 F12B     		cmp	r3, #241
 352 000a 05D0     		beq	.L17
 353 000c F22B     		cmp	r3, #242
 354 000e 05D0     		beq	.L18
 355 0010 002B     		cmp	r3, #0
 356 0012 05D0     		beq	.L19
 318:Generated_Source\PSoC4/cyPm.c ****         uint32 reason = CY_PM_RESET_REASON_UNKN;
 357              		.loc 1 318 16 view .LVU75
 358 0014 0020     		movs	r0, #0
 359              	.LVL15:
 360              	.L15:
ARM GAS  C:\Users\EDULU~1.DES\AppData\Local\Temp\ccGkSBtd.s 			page 13


 321:Generated_Source\PSoC4/cyPm.c ****         {
 322:Generated_Source\PSoC4/cyPm.c ****         /* Power up, XRES */
 323:Generated_Source\PSoC4/cyPm.c ****         case CY_PM_PWR_STOP_TOKEN_XRES:
 324:Generated_Source\PSoC4/cyPm.c ****             reason = CY_PM_RESET_REASON_XRES;
 325:Generated_Source\PSoC4/cyPm.c ****             break;
 326:Generated_Source\PSoC4/cyPm.c **** 
 327:Generated_Source\PSoC4/cyPm.c ****         /* Wakeup from Hibernate */
 328:Generated_Source\PSoC4/cyPm.c ****         case CY_PM_PWR_STOP_TOKEN_HIB:
 329:Generated_Source\PSoC4/cyPm.c ****             reason = CY_PM_RESET_REASON_WAKEUP_HIB;
 330:Generated_Source\PSoC4/cyPm.c ****             break;
 331:Generated_Source\PSoC4/cyPm.c **** 
 332:Generated_Source\PSoC4/cyPm.c ****         /* Wakeup from Stop (through WAKEUP pin assert) */
 333:Generated_Source\PSoC4/cyPm.c ****         case CY_PM_PWR_STOP_TOKEN_STOP:
 334:Generated_Source\PSoC4/cyPm.c ****             reason = CY_PM_RESET_REASON_WAKEUP_STOP;
 335:Generated_Source\PSoC4/cyPm.c ****             break;
 336:Generated_Source\PSoC4/cyPm.c **** 
 337:Generated_Source\PSoC4/cyPm.c ****         /* Unknown reason */
 338:Generated_Source\PSoC4/cyPm.c ****         default:
 339:Generated_Source\PSoC4/cyPm.c ****             break;
 340:Generated_Source\PSoC4/cyPm.c ****         }
 341:Generated_Source\PSoC4/cyPm.c **** 
 342:Generated_Source\PSoC4/cyPm.c ****         return (reason);
 343:Generated_Source\PSoC4/cyPm.c ****     }
 361              		.loc 1 343 5 view .LVU76
 362              		@ sp needed
 363 0016 7047     		bx	lr
 364              	.LVL16:
 365              	.L17:
 329:Generated_Source\PSoC4/cyPm.c ****             break;
 366              		.loc 1 329 20 view .LVU77
 367 0018 0220     		movs	r0, #2
 368 001a FCE7     		b	.L15
 369              	.L18:
 334:Generated_Source\PSoC4/cyPm.c ****             break;
 370              		.loc 1 334 20 view .LVU78
 371 001c 0320     		movs	r0, #3
 372 001e FAE7     		b	.L15
 373              	.L19:
 324:Generated_Source\PSoC4/cyPm.c ****             break;
 374              		.loc 1 324 20 view .LVU79
 375 0020 0120     		movs	r0, #1
 376              	.LVL17:
 342:Generated_Source\PSoC4/cyPm.c ****     }
 377              		.loc 1 342 9 is_stmt 1 view .LVU80
 342:Generated_Source\PSoC4/cyPm.c ****     }
 378              		.loc 1 342 16 is_stmt 0 view .LVU81
 379 0022 F8E7     		b	.L15
 380              	.L21:
 381              		.align	2
 382              	.L20:
 383 0024 2C000B40 		.word	1074462764
 384              		.cfi_endproc
 385              	.LFE5:
 386              		.size	CySysPmGetResetReason, .-CySysPmGetResetReason
 387              		.section	.text.CySysPmFreezeIo,"ax",%progbits
 388              		.align	1
 389              		.global	CySysPmFreezeIo
ARM GAS  C:\Users\EDULU~1.DES\AppData\Local\Temp\ccGkSBtd.s 			page 14


 390              		.syntax unified
 391              		.code	16
 392              		.thumb_func
 393              		.fpu softvfp
 394              		.type	CySysPmFreezeIo, %function
 395              	CySysPmFreezeIo:
 396              	.LFB6:
 344:Generated_Source\PSoC4/cyPm.c **** 
 345:Generated_Source\PSoC4/cyPm.c **** 
 346:Generated_Source\PSoC4/cyPm.c ****     /*******************************************************************************
 347:Generated_Source\PSoC4/cyPm.c ****     * Function Name: CySysPmFreezeIo
 348:Generated_Source\PSoC4/cyPm.c ****     ****************************************************************************//**
 349:Generated_Source\PSoC4/cyPm.c ****     *
 350:Generated_Source\PSoC4/cyPm.c ****     * Freezes IO-Cells directly to save the IO-Cell state on wake up from the
 351:Generated_Source\PSoC4/cyPm.c ****     * Hibernate or Stop state. It is not required to call this function before
 352:Generated_Source\PSoC4/cyPm.c ****     * entering the Stop mode, since \ref CySysPmStop() function freezes IO-Cells
 353:Generated_Source\PSoC4/cyPm.c ****     * implicitly.
 354:Generated_Source\PSoC4/cyPm.c ****     *
 355:Generated_Source\PSoC4/cyPm.c ****     * This API is not available for PSoC 4000 family of devices.
 356:Generated_Source\PSoC4/cyPm.c ****     *
 357:Generated_Source\PSoC4/cyPm.c ****     *******************************************************************************/
 358:Generated_Source\PSoC4/cyPm.c ****     void CySysPmFreezeIo(void)
 359:Generated_Source\PSoC4/cyPm.c ****     {
 397              		.loc 1 359 5 is_stmt 1 view -0
 398              		.cfi_startproc
 399              		@ args = 0, pretend = 0, frame = 0
 400              		@ frame_needed = 0, uses_anonymous_args = 0
 401 0000 10B5     		push	{r4, lr}
 402              		.cfi_def_cfa_offset 8
 403              		.cfi_offset 4, -8
 404              		.cfi_offset 14, -4
 360:Generated_Source\PSoC4/cyPm.c ****         uint8 interruptState;
 405              		.loc 1 360 9 view .LVU83
 361:Generated_Source\PSoC4/cyPm.c **** 
 362:Generated_Source\PSoC4/cyPm.c ****         interruptState = CyEnterCriticalSection();
 406              		.loc 1 362 9 view .LVU84
 407              		.loc 1 362 26 is_stmt 0 view .LVU85
 408 0002 FFF7FEFF 		bl	CyEnterCriticalSection
 409              	.LVL18:
 363:Generated_Source\PSoC4/cyPm.c **** 
 364:Generated_Source\PSoC4/cyPm.c ****         /* Check FREEZE state to avoid recurrent IO-Cells freeze attempt,
 365:Generated_Source\PSoC4/cyPm.c ****          * since the second call to this function will cause accidental switch
 366:Generated_Source\PSoC4/cyPm.c ****          * to the STOP mode (the system will enter STOP mode immediately after
 367:Generated_Source\PSoC4/cyPm.c ****          * writing to STOP bit since both UNLOCK and FREEZE have been set correctly
 368:Generated_Source\PSoC4/cyPm.c ****          * in a previous call to this function).
 369:Generated_Source\PSoC4/cyPm.c ****          */
 370:Generated_Source\PSoC4/cyPm.c ****         if (0u == (CY_PM_PWR_STOP_REG & CY_PM_PWR_STOP_FREEZE))
 410              		.loc 1 370 9 is_stmt 1 view .LVU86
 411              		.loc 1 370 20 is_stmt 0 view .LVU87
 412 0006 094B     		ldr	r3, .L24
 413 0008 1B68     		ldr	r3, [r3]
 414              		.loc 1 370 12 view .LVU88
 415 000a 9B03     		lsls	r3, r3, #14
 416 000c 0AD4     		bmi	.L23
 371:Generated_Source\PSoC4/cyPm.c ****         {
 372:Generated_Source\PSoC4/cyPm.c ****             /* Preserve last reset reason and disable overrides the next freeze command by peripher
 373:Generated_Source\PSoC4/cyPm.c ****             CY_PM_PWR_STOP_REG = CY_PM_PWR_STOP_STOP | CY_PM_PWR_STOP_FREEZE | CY_PM_PWR_STOP_UNLOC
ARM GAS  C:\Users\EDULU~1.DES\AppData\Local\Temp\ccGkSBtd.s 			page 15


 417              		.loc 1 373 13 is_stmt 1 view .LVU89
 374:Generated_Source\PSoC4/cyPm.c ****                                 (CY_PM_PWR_STOP_REG & (CY_PM_PWR_STOP_TOKEN_MASK | CY_PM_PWR_STOP_P
 418              		.loc 1 374 34 is_stmt 0 view .LVU90
 419 000e 074B     		ldr	r3, .L24
 420 0010 1A68     		ldr	r2, [r3]
 421              		.loc 1 374 53 view .LVU91
 422 0012 0749     		ldr	r1, .L24+4
 423 0014 1140     		ands	r1, r2
 373:Generated_Source\PSoC4/cyPm.c ****                                 (CY_PM_PWR_STOP_REG & (CY_PM_PWR_STOP_TOKEN_MASK | CY_PM_PWR_STOP_P
 424              		.loc 1 373 102 view .LVU92
 425 0016 074A     		ldr	r2, .L24+8
 426 0018 0A43     		orrs	r2, r1
 373:Generated_Source\PSoC4/cyPm.c ****                                 (CY_PM_PWR_STOP_REG & (CY_PM_PWR_STOP_TOKEN_MASK | CY_PM_PWR_STOP_P
 427              		.loc 1 373 32 view .LVU93
 428 001a 1A60     		str	r2, [r3]
 375:Generated_Source\PSoC4/cyPm.c **** 
 376:Generated_Source\PSoC4/cyPm.c ****             /* If reading after writing, read this register three times to delay
 377:Generated_Source\PSoC4/cyPm.c ****             *  enough time for internal settling.
 378:Generated_Source\PSoC4/cyPm.c ****             */
 379:Generated_Source\PSoC4/cyPm.c ****             (void) CY_PM_PWR_STOP_REG;
 429              		.loc 1 379 13 is_stmt 1 view .LVU94
 430 001c 1A68     		ldr	r2, [r3]
 380:Generated_Source\PSoC4/cyPm.c ****             (void) CY_PM_PWR_STOP_REG;
 431              		.loc 1 380 13 view .LVU95
 432 001e 1A68     		ldr	r2, [r3]
 381:Generated_Source\PSoC4/cyPm.c **** 
 382:Generated_Source\PSoC4/cyPm.c ****             /* Second write causes the freeze of IO-Cells to save IO-Cell state */
 383:Generated_Source\PSoC4/cyPm.c ****             CY_PM_PWR_STOP_REG = CY_PM_PWR_STOP_REG;
 433              		.loc 1 383 13 view .LVU96
 434              		.loc 1 383 34 is_stmt 0 view .LVU97
 435 0020 1A68     		ldr	r2, [r3]
 436              		.loc 1 383 32 view .LVU98
 437 0022 1A60     		str	r2, [r3]
 438              	.L23:
 384:Generated_Source\PSoC4/cyPm.c ****         }
 385:Generated_Source\PSoC4/cyPm.c **** 
 386:Generated_Source\PSoC4/cyPm.c ****         CyExitCriticalSection(interruptState);
 439              		.loc 1 386 9 is_stmt 1 view .LVU99
 440 0024 FFF7FEFF 		bl	CyExitCriticalSection
 441              	.LVL19:
 387:Generated_Source\PSoC4/cyPm.c ****     }
 442              		.loc 1 387 5 is_stmt 0 view .LVU100
 443              		@ sp needed
 444 0028 10BD     		pop	{r4, pc}
 445              	.L25:
 446 002a C046     		.align	2
 447              	.L24:
 448 002c 2C000B40 		.word	1074462764
 449 0030 FF000100 		.word	65791
 450 0034 003A0280 		.word	-2147337728
 451              		.cfi_endproc
 452              	.LFE6:
 453              		.size	CySysPmFreezeIo, .-CySysPmFreezeIo
 454              		.section	.text.CySysPmStop,"ax",%progbits
 455              		.align	1
 456              		.global	CySysPmStop
 457              		.syntax unified
ARM GAS  C:\Users\EDULU~1.DES\AppData\Local\Temp\ccGkSBtd.s 			page 16


 458              		.code	16
 459              		.thumb_func
 460              		.fpu softvfp
 461              		.type	CySysPmStop, %function
 462              	CySysPmStop:
 463              	.LFB3:
 244:Generated_Source\PSoC4/cyPm.c ****         (void) CyEnterCriticalSection();
 464              		.loc 1 244 5 is_stmt 1 view -0
 465              		.cfi_startproc
 466              		@ args = 0, pretend = 0, frame = 0
 467              		@ frame_needed = 0, uses_anonymous_args = 0
 468 0000 10B5     		push	{r4, lr}
 469              		.cfi_def_cfa_offset 8
 470              		.cfi_offset 4, -8
 471              		.cfi_offset 14, -4
 245:Generated_Source\PSoC4/cyPm.c **** 
 472              		.loc 1 245 9 view .LVU102
 245:Generated_Source\PSoC4/cyPm.c **** 
 473              		.loc 1 245 16 is_stmt 0 view .LVU103
 474 0002 FFF7FEFF 		bl	CyEnterCriticalSection
 475              	.LVL20:
 248:Generated_Source\PSoC4/cyPm.c **** 
 476              		.loc 1 248 9 is_stmt 1 view .LVU104
 248:Generated_Source\PSoC4/cyPm.c **** 
 477              		.loc 1 248 31 is_stmt 0 view .LVU105
 478 0006 094C     		ldr	r4, .L27
 479 0008 2368     		ldr	r3, [r4]
 248:Generated_Source\PSoC4/cyPm.c **** 
 480              		.loc 1 248 50 view .LVU106
 481 000a 8022     		movs	r2, #128
 482 000c 5202     		lsls	r2, r2, #9
 483 000e 1340     		ands	r3, r2
 248:Generated_Source\PSoC4/cyPm.c **** 
 484              		.loc 1 248 77 view .LVU107
 485 0010 F222     		movs	r2, #242
 486 0012 1343     		orrs	r3, r2
 248:Generated_Source\PSoC4/cyPm.c **** 
 487              		.loc 1 248 28 view .LVU108
 488 0014 2360     		str	r3, [r4]
 251:Generated_Source\PSoC4/cyPm.c **** 
 489              		.loc 1 251 9 is_stmt 1 view .LVU109
 490 0016 FFF7FEFF 		bl	CySysPmFreezeIo
 491              	.LVL21:
 254:Generated_Source\PSoC4/cyPm.c **** 
 492              		.loc 1 254 9 view .LVU110
 254:Generated_Source\PSoC4/cyPm.c **** 
 493              		.loc 1 254 30 is_stmt 0 view .LVU111
 494 001a 2268     		ldr	r2, [r4]
 254:Generated_Source\PSoC4/cyPm.c **** 
 495              		.loc 1 254 49 view .LVU112
 496 001c 8023     		movs	r3, #128
 497 001e 1B06     		lsls	r3, r3, #24
 498 0020 1343     		orrs	r3, r2
 254:Generated_Source\PSoC4/cyPm.c **** 
 499              		.loc 1 254 28 view .LVU113
 500 0022 2360     		str	r3, [r4]
 261:Generated_Source\PSoC4/cyPm.c ****         CY_NOP;
ARM GAS  C:\Users\EDULU~1.DES\AppData\Local\Temp\ccGkSBtd.s 			page 17


 501              		.loc 1 261 9 is_stmt 1 view .LVU114
 502              		.syntax divided
 503              	@ 261 "Generated_Source\PSoC4\cyPm.c" 1
 504 0024 C046     		NOP
 505              	
 506              	@ 0 "" 2
 262:Generated_Source\PSoC4/cyPm.c **** 
 507              		.loc 1 262 9 view .LVU115
 508              	@ 262 "Generated_Source\PSoC4\cyPm.c" 1
 509 0026 C046     		NOP
 510              	
 511              	@ 0 "" 2
 265:Generated_Source\PSoC4/cyPm.c **** 
 512              		.loc 1 265 9 view .LVU116
 513              	@ 265 "Generated_Source\PSoC4\cyPm.c" 1
 514 0028 30BF     		WFI 
 515              	
 516              	@ 0 "" 2
 271:Generated_Source\PSoC4/cyPm.c **** 
 517              		.loc 1 271 5 is_stmt 0 view .LVU117
 518              		.thumb
 519              		.syntax unified
 520              		@ sp needed
 521 002a 10BD     		pop	{r4, pc}
 522              	.L28:
 523              		.align	2
 524              	.L27:
 525 002c 2C000B40 		.word	1074462764
 526              		.cfi_endproc
 527              	.LFE3:
 528              		.size	CySysPmStop, .-CySysPmStop
 529              		.section	.text.CySysPmUnfreezeIo,"ax",%progbits
 530              		.align	1
 531              		.global	CySysPmUnfreezeIo
 532              		.syntax unified
 533              		.code	16
 534              		.thumb_func
 535              		.fpu softvfp
 536              		.type	CySysPmUnfreezeIo, %function
 537              	CySysPmUnfreezeIo:
 538              	.LFB7:
 388:Generated_Source\PSoC4/cyPm.c **** 
 389:Generated_Source\PSoC4/cyPm.c **** 
 390:Generated_Source\PSoC4/cyPm.c ****     /*******************************************************************************
 391:Generated_Source\PSoC4/cyPm.c ****     * Function Name: CySysPmUnfreezeIo
 392:Generated_Source\PSoC4/cyPm.c ****     ****************************************************************************//**
 393:Generated_Source\PSoC4/cyPm.c ****     *
 394:Generated_Source\PSoC4/cyPm.c ****     * The IO-Cells remain frozen after awake from Hibernate or Stop mode until
 395:Generated_Source\PSoC4/cyPm.c ****     * the firmware unfreezes them after booting. The call of this function
 396:Generated_Source\PSoC4/cyPm.c ****     * unfreezes IO-Cells explicitly.
 397:Generated_Source\PSoC4/cyPm.c ****     *
 398:Generated_Source\PSoC4/cyPm.c ****     * If the firmware intent is to retain the data value on the port, then the
 399:Generated_Source\PSoC4/cyPm.c ****     * value must be read and re-written to the data register before calling this
 400:Generated_Source\PSoC4/cyPm.c ****     * API. Furthermore, the drive mode must be re-programmed.  If this is not done,
 401:Generated_Source\PSoC4/cyPm.c ****     * the pin state will change to default state the moment the freeze is removed.
 402:Generated_Source\PSoC4/cyPm.c ****     *
 403:Generated_Source\PSoC4/cyPm.c ****     * This API is not available for PSoC 4000 family of devices.
ARM GAS  C:\Users\EDULU~1.DES\AppData\Local\Temp\ccGkSBtd.s 			page 18


 404:Generated_Source\PSoC4/cyPm.c ****     *
 405:Generated_Source\PSoC4/cyPm.c ****     *******************************************************************************/
 406:Generated_Source\PSoC4/cyPm.c ****     void CySysPmUnfreezeIo(void)
 407:Generated_Source\PSoC4/cyPm.c ****     {
 539              		.loc 1 407 5 is_stmt 1 view -0
 540              		.cfi_startproc
 541              		@ args = 0, pretend = 0, frame = 0
 542              		@ frame_needed = 0, uses_anonymous_args = 0
 543 0000 70B5     		push	{r4, r5, r6, lr}
 544              		.cfi_def_cfa_offset 16
 545              		.cfi_offset 4, -16
 546              		.cfi_offset 5, -12
 547              		.cfi_offset 6, -8
 548              		.cfi_offset 14, -4
 408:Generated_Source\PSoC4/cyPm.c ****         uint8 interruptState;
 549              		.loc 1 408 9 view .LVU119
 409:Generated_Source\PSoC4/cyPm.c **** 
 410:Generated_Source\PSoC4/cyPm.c ****         interruptState = CyEnterCriticalSection();
 550              		.loc 1 410 9 view .LVU120
 551              		.loc 1 410 26 is_stmt 0 view .LVU121
 552 0002 FFF7FEFF 		bl	CyEnterCriticalSection
 553              	.LVL22:
 411:Generated_Source\PSoC4/cyPm.c **** 
 412:Generated_Source\PSoC4/cyPm.c ****         /* Preserve last reset reason and wakeup polarity. Then, unfreeze I/O:
 413:Generated_Source\PSoC4/cyPm.c ****          * write PWR_STOP.FREEZE=0, .UNLOCK=0x3A, .STOP=0, .TOKEN
 414:Generated_Source\PSoC4/cyPm.c ****          */
 415:Generated_Source\PSoC4/cyPm.c ****         CY_PM_PWR_STOP_REG = CY_PM_PWR_STOP_UNLOCK |
 554              		.loc 1 415 9 is_stmt 1 view .LVU122
 416:Generated_Source\PSoC4/cyPm.c ****                             (CY_PM_PWR_STOP_REG & (CY_PM_PWR_STOP_TOKEN_MASK | CY_PM_PWR_STOP_POLAR
 555              		.loc 1 416 30 is_stmt 0 view .LVU123
 556 0006 084B     		ldr	r3, .L30
 557 0008 1C68     		ldr	r4, [r3]
 558              		.loc 1 416 49 view .LVU124
 559 000a 084D     		ldr	r5, .L30+4
 560 000c 2C40     		ands	r4, r5
 415:Generated_Source\PSoC4/cyPm.c ****                             (CY_PM_PWR_STOP_REG & (CY_PM_PWR_STOP_TOKEN_MASK | CY_PM_PWR_STOP_POLAR
 561              		.loc 1 415 52 view .LVU125
 562 000e E821     		movs	r1, #232
 563 0010 8901     		lsls	r1, r1, #6
 564 0012 2143     		orrs	r1, r4
 415:Generated_Source\PSoC4/cyPm.c ****                             (CY_PM_PWR_STOP_REG & (CY_PM_PWR_STOP_TOKEN_MASK | CY_PM_PWR_STOP_POLAR
 565              		.loc 1 415 28 view .LVU126
 566 0014 1960     		str	r1, [r3]
 417:Generated_Source\PSoC4/cyPm.c **** 
 418:Generated_Source\PSoC4/cyPm.c ****         /* If reading after writing, read this register three times to delay
 419:Generated_Source\PSoC4/cyPm.c ****         *  enough time for internal settling.
 420:Generated_Source\PSoC4/cyPm.c ****         */
 421:Generated_Source\PSoC4/cyPm.c ****         (void) CY_PM_PWR_STOP_REG;
 567              		.loc 1 421 9 is_stmt 1 view .LVU127
 568 0016 1A68     		ldr	r2, [r3]
 422:Generated_Source\PSoC4/cyPm.c ****         (void) CY_PM_PWR_STOP_REG;
 569              		.loc 1 422 9 view .LVU128
 570 0018 1A68     		ldr	r2, [r3]
 423:Generated_Source\PSoC4/cyPm.c **** 
 424:Generated_Source\PSoC4/cyPm.c ****         /* Lock STOP mode: write PWR_STOP.FREEZE=0, UNLOCK=0x00, STOP=0, .TOKEN */
 425:Generated_Source\PSoC4/cyPm.c ****         CY_PM_PWR_STOP_REG &= (CY_PM_PWR_STOP_TOKEN_MASK | CY_PM_PWR_STOP_POLARITY);
 571              		.loc 1 425 9 view .LVU129
ARM GAS  C:\Users\EDULU~1.DES\AppData\Local\Temp\ccGkSBtd.s 			page 19


 572              		.loc 1 425 28 is_stmt 0 view .LVU130
 573 001a 1A68     		ldr	r2, [r3]
 574 001c 2A40     		ands	r2, r5
 575 001e 1A60     		str	r2, [r3]
 426:Generated_Source\PSoC4/cyPm.c **** 
 427:Generated_Source\PSoC4/cyPm.c ****         CyExitCriticalSection(interruptState);
 576              		.loc 1 427 9 is_stmt 1 view .LVU131
 577 0020 FFF7FEFF 		bl	CyExitCriticalSection
 578              	.LVL23:
 428:Generated_Source\PSoC4/cyPm.c ****     }
 579              		.loc 1 428 5 is_stmt 0 view .LVU132
 580              		@ sp needed
 581 0024 70BD     		pop	{r4, r5, r6, pc}
 582              	.L31:
 583 0026 C046     		.align	2
 584              	.L30:
 585 0028 2C000B40 		.word	1074462764
 586 002c FF000100 		.word	65791
 587              		.cfi_endproc
 588              	.LFE7:
 589              		.size	CySysPmUnfreezeIo, .-CySysPmUnfreezeIo
 590              		.text
 591              	.Letext0:
 592              		.file 2 "Generated_Source\\PSoC4\\cytypes.h"
 593              		.file 3 "c:\\program files (x86)\\gnu tools arm embedded\\8 2018-q4-major\\arm-none-eabi\\include\
 594              		.file 4 "c:\\program files (x86)\\gnu tools arm embedded\\8 2018-q4-major\\arm-none-eabi\\include\
 595              		.file 5 "c:\\program files (x86)\\gnu tools arm embedded\\8 2018-q4-major\\lib\\gcc\\arm-none-eabi
 596              		.file 6 "c:\\program files (x86)\\gnu tools arm embedded\\8 2018-q4-major\\arm-none-eabi\\include\
 597              		.file 7 "c:\\program files (x86)\\gnu tools arm embedded\\8 2018-q4-major\\arm-none-eabi\\include\
 598              		.file 8 "Generated_Source\\PSoC4\\CyLib.h"