ARM GAS  C:\Users\EDULU~1.DES\AppData\Local\Temp\cc01kXrk.s 			page 1


   1              		.cpu cortex-m0
   2              		.eabi_attribute 20, 1
   3              		.eabi_attribute 21, 1
   4              		.eabi_attribute 23, 3
   5              		.eabi_attribute 24, 1
   6              		.eabi_attribute 25, 1
   7              		.eabi_attribute 26, 1
   8              		.eabi_attribute 30, 1
   9              		.eabi_attribute 34, 0
  10              		.eabi_attribute 18, 4
  11              		.file	"I2C_I2C_INT.c"
  12              		.text
  13              	.Ltext0:
  14              		.cfi_sections	.debug_frame
  15              		.section	.text.I2C_I2C_ISR,"ax",%progbits
  16              		.align	1
  17              		.global	I2C_I2C_ISR
  18              		.arch armv6s-m
  19              		.syntax unified
  20              		.code	16
  21              		.thumb_func
  22              		.fpu softvfp
  23              		.type	I2C_I2C_ISR, %function
  24              	I2C_I2C_ISR:
  25              	.LFB0:
  26              		.file 1 "Generated_Source\\PSoC4\\I2C_I2C_INT.c"
   1:Generated_Source\PSoC4/I2C_I2C_INT.c **** /***************************************************************************//**
   2:Generated_Source\PSoC4/I2C_I2C_INT.c **** * \file I2C_I2C_INT.c
   3:Generated_Source\PSoC4/I2C_I2C_INT.c **** * \version 4.0
   4:Generated_Source\PSoC4/I2C_I2C_INT.c **** *
   5:Generated_Source\PSoC4/I2C_I2C_INT.c **** * \brief
   6:Generated_Source\PSoC4/I2C_I2C_INT.c **** *  This file provides the source code to the Interrupt Service Routine for
   7:Generated_Source\PSoC4/I2C_I2C_INT.c **** *  the SCB Component in I2C mode.
   8:Generated_Source\PSoC4/I2C_I2C_INT.c **** *
   9:Generated_Source\PSoC4/I2C_I2C_INT.c **** * Note:
  10:Generated_Source\PSoC4/I2C_I2C_INT.c **** *
  11:Generated_Source\PSoC4/I2C_I2C_INT.c **** ********************************************************************************
  12:Generated_Source\PSoC4/I2C_I2C_INT.c **** * \copyright
  13:Generated_Source\PSoC4/I2C_I2C_INT.c **** * Copyright 2013-2017, Cypress Semiconductor Corporation.  All rights reserved.
  14:Generated_Source\PSoC4/I2C_I2C_INT.c **** * You may use this file only in accordance with the license, terms, conditions,
  15:Generated_Source\PSoC4/I2C_I2C_INT.c **** * disclaimers, and limitations in the end user license agreement accompanying
  16:Generated_Source\PSoC4/I2C_I2C_INT.c **** * the software package with which this file was provided.
  17:Generated_Source\PSoC4/I2C_I2C_INT.c **** *******************************************************************************/
  18:Generated_Source\PSoC4/I2C_I2C_INT.c **** 
  19:Generated_Source\PSoC4/I2C_I2C_INT.c **** #include "I2C_PVT.h"
  20:Generated_Source\PSoC4/I2C_I2C_INT.c **** #include "I2C_I2C_PVT.h"
  21:Generated_Source\PSoC4/I2C_I2C_INT.c **** 
  22:Generated_Source\PSoC4/I2C_I2C_INT.c **** 
  23:Generated_Source\PSoC4/I2C_I2C_INT.c **** 
  24:Generated_Source\PSoC4/I2C_I2C_INT.c **** /*******************************************************************************
  25:Generated_Source\PSoC4/I2C_I2C_INT.c **** * Function Name: I2C_I2C_ISR
  26:Generated_Source\PSoC4/I2C_I2C_INT.c **** ****************************************************************************//**
  27:Generated_Source\PSoC4/I2C_I2C_INT.c **** *
  28:Generated_Source\PSoC4/I2C_I2C_INT.c **** *  Handles the Interrupt Service Routine for the SCB I2C mode.
  29:Generated_Source\PSoC4/I2C_I2C_INT.c **** *
  30:Generated_Source\PSoC4/I2C_I2C_INT.c **** *******************************************************************************/
  31:Generated_Source\PSoC4/I2C_I2C_INT.c **** CY_ISR(I2C_I2C_ISR)
ARM GAS  C:\Users\EDULU~1.DES\AppData\Local\Temp\cc01kXrk.s 			page 2


  32:Generated_Source\PSoC4/I2C_I2C_INT.c **** {
  27              		.loc 1 32 1 view -0
  28              		.cfi_startproc
  29              		@ args = 0, pretend = 0, frame = 0
  30              		@ frame_needed = 0, uses_anonymous_args = 0
  31 0000 70B5     		push	{r4, r5, r6, lr}
  32              		.cfi_def_cfa_offset 16
  33              		.cfi_offset 4, -16
  34              		.cfi_offset 5, -12
  35              		.cfi_offset 6, -8
  36              		.cfi_offset 14, -4
  33:Generated_Source\PSoC4/I2C_I2C_INT.c ****     uint32 diffCount;
  37              		.loc 1 33 5 view .LVU1
  34:Generated_Source\PSoC4/I2C_I2C_INT.c ****     uint32 endTransfer;
  38              		.loc 1 34 5 view .LVU2
  35:Generated_Source\PSoC4/I2C_I2C_INT.c **** 
  36:Generated_Source\PSoC4/I2C_I2C_INT.c **** #ifdef I2C_I2C_ISR_ENTRY_CALLBACK
  37:Generated_Source\PSoC4/I2C_I2C_INT.c ****     I2C_I2C_ISR_EntryCallback();
  38:Generated_Source\PSoC4/I2C_I2C_INT.c **** #endif /* I2C_I2C_ISR_ENTRY_CALLBACK */
  39:Generated_Source\PSoC4/I2C_I2C_INT.c **** 
  40:Generated_Source\PSoC4/I2C_I2C_INT.c **** #if (I2C_I2C_CUSTOM_ADDRESS_HANDLER_CONST)
  41:Generated_Source\PSoC4/I2C_I2C_INT.c ****     uint32 response;
  42:Generated_Source\PSoC4/I2C_I2C_INT.c **** 
  43:Generated_Source\PSoC4/I2C_I2C_INT.c ****     response = I2C_I2C_ACK_ADDR;
  44:Generated_Source\PSoC4/I2C_I2C_INT.c **** #endif /* (I2C_I2C_CUSTOM_ADDRESS_HANDLER_CONST) */
  45:Generated_Source\PSoC4/I2C_I2C_INT.c **** 
  46:Generated_Source\PSoC4/I2C_I2C_INT.c ****     endTransfer = 0u; /* Continue active transfer */
  39              		.loc 1 46 5 view .LVU3
  40              	.LVL0:
  47:Generated_Source\PSoC4/I2C_I2C_INT.c **** 
  48:Generated_Source\PSoC4/I2C_I2C_INT.c ****     /* Calls customer routine if registered */
  49:Generated_Source\PSoC4/I2C_I2C_INT.c ****     if(NULL != I2C_customIntrHandler)
  41              		.loc 1 49 5 view .LVU4
  42              		.loc 1 49 13 is_stmt 0 view .LVU5
  43 0002 B04B     		ldr	r3, .L45
  44 0004 1B68     		ldr	r3, [r3]
  45              		.loc 1 49 7 view .LVU6
  46 0006 002B     		cmp	r3, #0
  47 0008 00D0     		beq	.L2
  50:Generated_Source\PSoC4/I2C_I2C_INT.c ****     {
  51:Generated_Source\PSoC4/I2C_I2C_INT.c ****         I2C_customIntrHandler();
  48              		.loc 1 51 9 is_stmt 1 view .LVU7
  49 000a 9847     		blx	r3
  50              	.LVL1:
  51              	.L2:
  52:Generated_Source\PSoC4/I2C_I2C_INT.c ****     }
  53:Generated_Source\PSoC4/I2C_I2C_INT.c **** 
  54:Generated_Source\PSoC4/I2C_I2C_INT.c ****     if(I2C_CHECK_INTR_I2C_EC_MASKED(I2C_INTR_I2C_EC_WAKE_UP))
  52              		.loc 1 54 5 view .LVU8
  53              		.loc 1 54 8 is_stmt 0 view .LVU9
  54 000c AE4B     		ldr	r3, .L45+4
  55 000e 1B68     		ldr	r3, [r3]
  56              		.loc 1 54 7 view .LVU10
  57 0010 DB07     		lsls	r3, r3, #31
  58 0012 02D5     		bpl	.L3
  55:Generated_Source\PSoC4/I2C_I2C_INT.c ****     {
  56:Generated_Source\PSoC4/I2C_I2C_INT.c ****         /* Mask-off after wakeup */
ARM GAS  C:\Users\EDULU~1.DES\AppData\Local\Temp\cc01kXrk.s 			page 3


  57:Generated_Source\PSoC4/I2C_I2C_INT.c ****         I2C_SetI2CExtClkInterruptMode(I2C_NO_INTR_SOURCES);
  59              		.loc 1 57 9 is_stmt 1 view .LVU11
  60              		.loc 1 57 9 view .LVU12
  61 0014 AD4B     		ldr	r3, .L45+8
  62 0016 0022     		movs	r2, #0
  63 0018 1A60     		str	r2, [r3]
  64              	.L3:
  58:Generated_Source\PSoC4/I2C_I2C_INT.c ****     }
  59:Generated_Source\PSoC4/I2C_I2C_INT.c **** 
  60:Generated_Source\PSoC4/I2C_I2C_INT.c ****     /* Master and Slave error tracking:
  61:Generated_Source\PSoC4/I2C_I2C_INT.c ****     * Add the master state check to track only the master errors when the master is active or
  62:Generated_Source\PSoC4/I2C_I2C_INT.c ****     * track slave errors when the slave is active or idle.
  63:Generated_Source\PSoC4/I2C_I2C_INT.c ****     * A special MMS case: in the address phase with misplaced Start: the master sets the LOST_ARB a
  64:Generated_Source\PSoC4/I2C_I2C_INT.c ****     * slave BUS_ERR. The valid event is LOST_ARB comes from the master.
  65:Generated_Source\PSoC4/I2C_I2C_INT.c ****     */
  66:Generated_Source\PSoC4/I2C_I2C_INT.c ****     if(I2C_CHECK_I2C_FSM_MASTER)
  65              		.loc 1 66 5 view .LVU13
  66              		.loc 1 66 8 is_stmt 0 view .LVU14
  67 001a AD4B     		ldr	r3, .L45+12
  68 001c 1B78     		ldrb	r3, [r3]
  69              		.loc 1 66 7 view .LVU15
  70 001e 9B06     		lsls	r3, r3, #26
  71 0020 29D5     		bpl	.L35
  67:Generated_Source\PSoC4/I2C_I2C_INT.c ****     {
  68:Generated_Source\PSoC4/I2C_I2C_INT.c ****         #if(I2C_I2C_MASTER)
  69:Generated_Source\PSoC4/I2C_I2C_INT.c ****         {
  70:Generated_Source\PSoC4/I2C_I2C_INT.c ****             /* INTR_MASTER_I2C_BUS_ERROR:
  71:Generated_Source\PSoC4/I2C_I2C_INT.c ****             * A misplaced Start or Stop condition occurred on the bus: complete the transaction.
  72:Generated_Source\PSoC4/I2C_I2C_INT.c ****             * The interrupt is cleared in I2C_FSM_EXIT_IDLE.
  73:Generated_Source\PSoC4/I2C_I2C_INT.c ****             */
  74:Generated_Source\PSoC4/I2C_I2C_INT.c ****             if(I2C_CHECK_INTR_MASTER_MASKED(I2C_INTR_MASTER_I2C_BUS_ERROR))
  72              		.loc 1 74 13 is_stmt 1 view .LVU16
  73              		.loc 1 74 16 is_stmt 0 view .LVU17
  74 0022 AC4B     		ldr	r3, .L45+16
  75 0024 1B68     		ldr	r3, [r3]
  76              		.loc 1 74 15 view .LVU18
  77 0026 DB05     		lsls	r3, r3, #23
  78 0028 1ED5     		bpl	.L36
  75:Generated_Source\PSoC4/I2C_I2C_INT.c ****             {
  76:Generated_Source\PSoC4/I2C_I2C_INT.c ****                 I2C_mstrStatus |= (uint16) (I2C_I2C_MSTAT_ERR_XFER |
  79              		.loc 1 76 17 is_stmt 1 view .LVU19
  80              		.loc 1 76 32 is_stmt 0 view .LVU20
  81 002a AB4A     		ldr	r2, .L45+20
  82 002c 1388     		ldrh	r3, [r2]
  83 002e C021     		movs	r1, #192
  84 0030 8900     		lsls	r1, r1, #2
  85 0032 0B43     		orrs	r3, r1
  86 0034 1380     		strh	r3, [r2]
  77:Generated_Source\PSoC4/I2C_I2C_INT.c ****                                                          I2C_I2C_MSTAT_ERR_BUS_ERROR);
  78:Generated_Source\PSoC4/I2C_I2C_INT.c **** 
  79:Generated_Source\PSoC4/I2C_I2C_INT.c ****                 endTransfer = I2C_I2C_CMPLT_ANY_TRANSFER;
  87              		.loc 1 79 17 is_stmt 1 view .LVU21
  88              	.LVL2:
  89              		.loc 1 79 29 is_stmt 0 view .LVU22
  90 0036 0122     		movs	r2, #1
  91              	.LVL3:
  92              	.L5:
ARM GAS  C:\Users\EDULU~1.DES\AppData\Local\Temp\cc01kXrk.s 			page 4


  80:Generated_Source\PSoC4/I2C_I2C_INT.c ****             }
  81:Generated_Source\PSoC4/I2C_I2C_INT.c **** 
  82:Generated_Source\PSoC4/I2C_I2C_INT.c ****             /* INTR_MASTER_I2C_ARB_LOST:
  83:Generated_Source\PSoC4/I2C_I2C_INT.c ****             * The MultiMaster lost arbitrage during transaction.
  84:Generated_Source\PSoC4/I2C_I2C_INT.c ****             * A Misplaced Start or Stop condition is treated as lost arbitration when the master dr
  85:Generated_Source\PSoC4/I2C_I2C_INT.c ****             * The interrupt source is cleared in I2C_FSM_EXIT_IDLE.
  86:Generated_Source\PSoC4/I2C_I2C_INT.c ****             */
  87:Generated_Source\PSoC4/I2C_I2C_INT.c ****             if(I2C_CHECK_INTR_MASTER_MASKED(I2C_INTR_MASTER_I2C_ARB_LOST))
  93              		.loc 1 87 13 is_stmt 1 view .LVU23
  94              		.loc 1 87 16 is_stmt 0 view .LVU24
  95 0038 A64B     		ldr	r3, .L45+16
  96 003a 1B68     		ldr	r3, [r3]
  97              		.loc 1 87 15 view .LVU25
  98 003c DB07     		lsls	r3, r3, #31
  99 003e 15D5     		bpl	.L6
  88:Generated_Source\PSoC4/I2C_I2C_INT.c ****             {
  89:Generated_Source\PSoC4/I2C_I2C_INT.c ****                 I2C_mstrStatus |= (uint16) (I2C_I2C_MSTAT_ERR_XFER |
 100              		.loc 1 89 17 is_stmt 1 view .LVU26
 101              		.loc 1 89 32 is_stmt 0 view .LVU27
 102 0040 A54A     		ldr	r2, .L45+20
 103              	.LVL4:
 104              		.loc 1 89 32 view .LVU28
 105 0042 1388     		ldrh	r3, [r2]
 106 0044 9021     		movs	r1, #144
 107 0046 8900     		lsls	r1, r1, #2
 108 0048 0B43     		orrs	r3, r1
 109 004a 1380     		strh	r3, [r2]
  90:Generated_Source\PSoC4/I2C_I2C_INT.c ****                                                          I2C_I2C_MSTAT_ERR_ARB_LOST);
  91:Generated_Source\PSoC4/I2C_I2C_INT.c **** 
  92:Generated_Source\PSoC4/I2C_I2C_INT.c ****                 endTransfer = I2C_I2C_CMPLT_ANY_TRANSFER;
 110              		.loc 1 92 17 is_stmt 1 view .LVU29
 111              	.LVL5:
  93:Generated_Source\PSoC4/I2C_I2C_INT.c ****             }
  94:Generated_Source\PSoC4/I2C_I2C_INT.c **** 
  95:Generated_Source\PSoC4/I2C_I2C_INT.c ****             #if(I2C_I2C_MULTI_MASTER_SLAVE)
  96:Generated_Source\PSoC4/I2C_I2C_INT.c ****             {
  97:Generated_Source\PSoC4/I2C_I2C_INT.c ****                 /* I2C_MASTER_CMD_M_START_ON_IDLE:
  98:Generated_Source\PSoC4/I2C_I2C_INT.c ****                 * MultiMaster-Slave does not generate start, because Slave was addressed.
  99:Generated_Source\PSoC4/I2C_I2C_INT.c ****                 * Pass control to slave.
 100:Generated_Source\PSoC4/I2C_I2C_INT.c ****                 */
 101:Generated_Source\PSoC4/I2C_I2C_INT.c ****                 if(I2C_CHECK_I2C_MASTER_CMD(I2C_I2C_MASTER_CMD_M_START_ON_IDLE))
 102:Generated_Source\PSoC4/I2C_I2C_INT.c ****                 {
 103:Generated_Source\PSoC4/I2C_I2C_INT.c ****                     I2C_mstrStatus |= (uint16) (I2C_I2C_MSTAT_ERR_XFER |
 104:Generated_Source\PSoC4/I2C_I2C_INT.c ****                                                              I2C_I2C_MSTAT_ERR_ABORT_XFER);
 105:Generated_Source\PSoC4/I2C_I2C_INT.c **** 
 106:Generated_Source\PSoC4/I2C_I2C_INT.c ****                     endTransfer = I2C_I2C_CMPLT_ANY_TRANSFER;
 107:Generated_Source\PSoC4/I2C_I2C_INT.c ****                 }
 108:Generated_Source\PSoC4/I2C_I2C_INT.c ****             }
 109:Generated_Source\PSoC4/I2C_I2C_INT.c ****             #endif
 110:Generated_Source\PSoC4/I2C_I2C_INT.c **** 
 111:Generated_Source\PSoC4/I2C_I2C_INT.c ****             /* The error handling common part:
 112:Generated_Source\PSoC4/I2C_I2C_INT.c ****             * Sets a completion flag of the master transaction and passes control to:
 113:Generated_Source\PSoC4/I2C_I2C_INT.c ****             *  - I2C_FSM_EXIT_IDLE - to complete transaction in case of: ARB_LOST or BUS_ERR.
 114:Generated_Source\PSoC4/I2C_I2C_INT.c ****             *  - I2C_FSM_IDLE      - to take chance for the slave to process incoming transaction.
 115:Generated_Source\PSoC4/I2C_I2C_INT.c ****             */
 116:Generated_Source\PSoC4/I2C_I2C_INT.c ****             if(0u != endTransfer)
 112              		.loc 1 116 13 view .LVU30
ARM GAS  C:\Users\EDULU~1.DES\AppData\Local\Temp\cc01kXrk.s 			page 5


  92:Generated_Source\PSoC4/I2C_I2C_INT.c ****             }
 113              		.loc 1 92 29 is_stmt 0 view .LVU31
 114 004c 0122     		movs	r2, #1
 115              	.LVL6:
 116              	.L7:
 117:Generated_Source\PSoC4/I2C_I2C_INT.c ****             {
 118:Generated_Source\PSoC4/I2C_I2C_INT.c ****                 /* Set completion flags for master */
 119:Generated_Source\PSoC4/I2C_I2C_INT.c ****                 I2C_mstrStatus |= (uint16) I2C_GET_I2C_MSTAT_CMPLT;
 117              		.loc 1 119 17 is_stmt 1 view .LVU32
 118              		.loc 1 119 44 is_stmt 0 view .LVU33
 119 004e A04B     		ldr	r3, .L45+12
 120 0050 1B78     		ldrb	r3, [r3]
 121              		.loc 1 119 35 view .LVU34
 122 0052 DB07     		lsls	r3, r3, #31
 123 0054 0DD5     		bpl	.L37
 124 0056 0120     		movs	r0, #1
 125              	.L8:
 126              		.loc 1 119 32 discriminator 4 view .LVU35
 127 0058 9F49     		ldr	r1, .L45+20
 128 005a 0B88     		ldrh	r3, [r1]
 129 005c 0343     		orrs	r3, r0
 130 005e 0B80     		strh	r3, [r1]
 120:Generated_Source\PSoC4/I2C_I2C_INT.c **** 
 121:Generated_Source\PSoC4/I2C_I2C_INT.c ****                 #if(I2C_I2C_MULTI_MASTER_SLAVE)
 122:Generated_Source\PSoC4/I2C_I2C_INT.c ****                 {
 123:Generated_Source\PSoC4/I2C_I2C_INT.c ****                     if(I2C_CHECK_I2C_FSM_ADDR)
 124:Generated_Source\PSoC4/I2C_I2C_INT.c ****                     {
 125:Generated_Source\PSoC4/I2C_I2C_INT.c ****                         /* Start generation is set after another master starts accessing Slave.
 126:Generated_Source\PSoC4/I2C_I2C_INT.c ****                         * Clean-up master and turn to slave. Set state to IDLE.
 127:Generated_Source\PSoC4/I2C_I2C_INT.c ****                         */
 128:Generated_Source\PSoC4/I2C_I2C_INT.c ****                         if(I2C_CHECK_I2C_MASTER_CMD(I2C_I2C_MASTER_CMD_M_START_ON_IDLE))
 129:Generated_Source\PSoC4/I2C_I2C_INT.c ****                         {
 130:Generated_Source\PSoC4/I2C_I2C_INT.c ****                             I2C_I2C_MASTER_CLEAR_START;
 131:Generated_Source\PSoC4/I2C_I2C_INT.c **** 
 132:Generated_Source\PSoC4/I2C_I2C_INT.c ****                             endTransfer = I2C_I2C_CMPLT_ANY_TRANSFER; /* Pass control to Slave */
 133:Generated_Source\PSoC4/I2C_I2C_INT.c ****                         }
 134:Generated_Source\PSoC4/I2C_I2C_INT.c ****                         /* Valid arbitration lost on the address phase happens only when: master LO
 135:Generated_Source\PSoC4/I2C_I2C_INT.c ****                         * slave BUS_ERR is cleared. Only in that case set the state to IDLE without
 136:Generated_Source\PSoC4/I2C_I2C_INT.c ****                         */
 137:Generated_Source\PSoC4/I2C_I2C_INT.c ****                         else if((!I2C_CHECK_INTR_SLAVE_MASKED(I2C_INTR_SLAVE_I2C_BUS_ERROR))
 138:Generated_Source\PSoC4/I2C_I2C_INT.c ****                                && I2C_CHECK_INTR_MASTER_MASKED(I2C_INTR_MASTER_I2C_ARB_LOST))
 139:Generated_Source\PSoC4/I2C_I2C_INT.c ****                         {
 140:Generated_Source\PSoC4/I2C_I2C_INT.c ****                             endTransfer = I2C_I2C_CMPLT_ANY_TRANSFER; /* Pass control to Slave */
 141:Generated_Source\PSoC4/I2C_I2C_INT.c ****                         }
 142:Generated_Source\PSoC4/I2C_I2C_INT.c ****                         else
 143:Generated_Source\PSoC4/I2C_I2C_INT.c ****                         {
 144:Generated_Source\PSoC4/I2C_I2C_INT.c ****                             endTransfer = 0u; /* Causes I2C_FSM_EXIT_IDLE to be set below */
 145:Generated_Source\PSoC4/I2C_I2C_INT.c ****                         }
 146:Generated_Source\PSoC4/I2C_I2C_INT.c **** 
 147:Generated_Source\PSoC4/I2C_I2C_INT.c ****                         if(0u != endTransfer) /* Clean-up master to proceed with slave */
 148:Generated_Source\PSoC4/I2C_I2C_INT.c ****                         {
 149:Generated_Source\PSoC4/I2C_I2C_INT.c ****                             I2C_CLEAR_TX_FIFO; /* Shifter keeps address, clear it */
 150:Generated_Source\PSoC4/I2C_I2C_INT.c **** 
 151:Generated_Source\PSoC4/I2C_I2C_INT.c ****                             I2C_DISABLE_MASTER_AUTO_DATA_ACK; /* In case of reading disable autoACK
 152:Generated_Source\PSoC4/I2C_I2C_INT.c **** 
 153:Generated_Source\PSoC4/I2C_I2C_INT.c ****                             /* Clean-up master interrupt sources */
 154:Generated_Source\PSoC4/I2C_I2C_INT.c ****                             I2C_ClearMasterInterruptSource(I2C_INTR_MASTER_ALL);
ARM GAS  C:\Users\EDULU~1.DES\AppData\Local\Temp\cc01kXrk.s 			page 6


 155:Generated_Source\PSoC4/I2C_I2C_INT.c **** 
 156:Generated_Source\PSoC4/I2C_I2C_INT.c ****                             /* Disable data processing interrupts: they have to be cleared before *
 157:Generated_Source\PSoC4/I2C_I2C_INT.c ****                             I2C_SetRxInterruptMode(I2C_NO_INTR_SOURCES);
 158:Generated_Source\PSoC4/I2C_I2C_INT.c ****                             I2C_SetTxInterruptMode(I2C_NO_INTR_SOURCES);
 159:Generated_Source\PSoC4/I2C_I2C_INT.c **** 
 160:Generated_Source\PSoC4/I2C_I2C_INT.c ****                             I2C_state = I2C_I2C_FSM_IDLE;
 161:Generated_Source\PSoC4/I2C_I2C_INT.c ****                         }
 162:Generated_Source\PSoC4/I2C_I2C_INT.c ****                         else
 163:Generated_Source\PSoC4/I2C_I2C_INT.c ****                         {
 164:Generated_Source\PSoC4/I2C_I2C_INT.c ****                             /* Set I2C_FSM_EXIT_IDLE for BUS_ERR and ARB_LOST (that is really bus e
 165:Generated_Source\PSoC4/I2C_I2C_INT.c ****                             I2C_state = I2C_I2C_FSM_EXIT_IDLE;
 166:Generated_Source\PSoC4/I2C_I2C_INT.c ****                         }
 167:Generated_Source\PSoC4/I2C_I2C_INT.c ****                     }
 168:Generated_Source\PSoC4/I2C_I2C_INT.c ****                     else
 169:Generated_Source\PSoC4/I2C_I2C_INT.c ****                     {
 170:Generated_Source\PSoC4/I2C_I2C_INT.c ****                         /* Set I2C_FSM_EXIT_IDLE if any other state than address */
 171:Generated_Source\PSoC4/I2C_I2C_INT.c ****                         I2C_state = I2C_I2C_FSM_EXIT_IDLE;
 172:Generated_Source\PSoC4/I2C_I2C_INT.c ****                     }
 173:Generated_Source\PSoC4/I2C_I2C_INT.c ****                 }
 174:Generated_Source\PSoC4/I2C_I2C_INT.c ****                 #else
 175:Generated_Source\PSoC4/I2C_I2C_INT.c ****                 {
 176:Generated_Source\PSoC4/I2C_I2C_INT.c ****                     /* In case of LOST*/
 177:Generated_Source\PSoC4/I2C_I2C_INT.c ****                     I2C_state = I2C_I2C_FSM_EXIT_IDLE;
 131              		.loc 1 177 21 is_stmt 1 discriminator 4 view .LVU36
 132              		.loc 1 177 31 is_stmt 0 discriminator 4 view .LVU37
 133 0060 9B4B     		ldr	r3, .L45+12
 134 0062 0021     		movs	r1, #0
 135 0064 1970     		strb	r1, [r3]
 136 0066 07E0     		b	.L4
 137              	.LVL7:
 138              	.L36:
  46:Generated_Source\PSoC4/I2C_I2C_INT.c **** 
 139              		.loc 1 46 17 view .LVU38
 140 0068 0022     		movs	r2, #0
 141 006a E5E7     		b	.L5
 142              	.LVL8:
 143              	.L6:
 116:Generated_Source\PSoC4/I2C_I2C_INT.c ****             {
 144              		.loc 1 116 13 is_stmt 1 view .LVU39
 116:Generated_Source\PSoC4/I2C_I2C_INT.c ****             {
 145              		.loc 1 116 15 is_stmt 0 view .LVU40
 146 006c 002A     		cmp	r2, #0
 147 006e 03D0     		beq	.L4
 148 0070 EDE7     		b	.L7
 149              	.LVL9:
 150              	.L37:
 119:Generated_Source\PSoC4/I2C_I2C_INT.c **** 
 151              		.loc 1 119 35 view .LVU41
 152 0072 0220     		movs	r0, #2
 153 0074 F0E7     		b	.L8
 154              	.LVL10:
 155              	.L35:
  46:Generated_Source\PSoC4/I2C_I2C_INT.c **** 
 156              		.loc 1 46 17 view .LVU42
 157 0076 0022     		movs	r2, #0
 158              	.LVL11:
 159              	.L4:
ARM GAS  C:\Users\EDULU~1.DES\AppData\Local\Temp\cc01kXrk.s 			page 7


 178:Generated_Source\PSoC4/I2C_I2C_INT.c ****                 }
 179:Generated_Source\PSoC4/I2C_I2C_INT.c ****                 #endif
 180:Generated_Source\PSoC4/I2C_I2C_INT.c ****             }
 181:Generated_Source\PSoC4/I2C_I2C_INT.c ****         }
 182:Generated_Source\PSoC4/I2C_I2C_INT.c ****         #endif
 183:Generated_Source\PSoC4/I2C_I2C_INT.c ****     }
 184:Generated_Source\PSoC4/I2C_I2C_INT.c ****     else /* (I2C_CHECK_I2C_FSM_SLAVE) */
 185:Generated_Source\PSoC4/I2C_I2C_INT.c ****     {
 186:Generated_Source\PSoC4/I2C_I2C_INT.c ****         #if(I2C_I2C_SLAVE)
 187:Generated_Source\PSoC4/I2C_I2C_INT.c ****         {
 188:Generated_Source\PSoC4/I2C_I2C_INT.c ****             /* INTR_SLAVE_I2C_BUS_ERROR or I2C_INTR_SLAVE_I2C_ARB_LOST:
 189:Generated_Source\PSoC4/I2C_I2C_INT.c ****             * A Misplaced Start or Stop condition occurred on the bus: set a flag
 190:Generated_Source\PSoC4/I2C_I2C_INT.c ****             * to notify an error condition.
 191:Generated_Source\PSoC4/I2C_I2C_INT.c ****             */
 192:Generated_Source\PSoC4/I2C_I2C_INT.c ****             if(I2C_CHECK_INTR_SLAVE_MASKED(I2C_INTR_SLAVE_I2C_BUS_ERROR |
 193:Generated_Source\PSoC4/I2C_I2C_INT.c ****                                                         I2C_INTR_SLAVE_I2C_ARB_LOST))
 194:Generated_Source\PSoC4/I2C_I2C_INT.c ****             {
 195:Generated_Source\PSoC4/I2C_I2C_INT.c ****                 if(I2C_CHECK_I2C_FSM_RD)
 196:Generated_Source\PSoC4/I2C_I2C_INT.c ****                 {
 197:Generated_Source\PSoC4/I2C_I2C_INT.c ****                     /* TX direction: master reads from slave */
 198:Generated_Source\PSoC4/I2C_I2C_INT.c ****                     I2C_slStatus &= (uint8) ~I2C_I2C_SSTAT_RD_BUSY;
 199:Generated_Source\PSoC4/I2C_I2C_INT.c ****                     I2C_slStatus |= (uint8) (I2C_I2C_SSTAT_RD_ERR |
 200:Generated_Source\PSoC4/I2C_I2C_INT.c ****                                                           I2C_I2C_SSTAT_RD_CMPLT);
 201:Generated_Source\PSoC4/I2C_I2C_INT.c ****                 }
 202:Generated_Source\PSoC4/I2C_I2C_INT.c ****                 else
 203:Generated_Source\PSoC4/I2C_I2C_INT.c ****                 {
 204:Generated_Source\PSoC4/I2C_I2C_INT.c ****                     /* RX direction: master writes into slave */
 205:Generated_Source\PSoC4/I2C_I2C_INT.c ****                     I2C_slStatus &= (uint8) ~I2C_I2C_SSTAT_WR_BUSY;
 206:Generated_Source\PSoC4/I2C_I2C_INT.c ****                     I2C_slStatus |= (uint8) (I2C_I2C_SSTAT_WR_ERR |
 207:Generated_Source\PSoC4/I2C_I2C_INT.c ****                                                           I2C_I2C_SSTAT_WR_CMPLT);
 208:Generated_Source\PSoC4/I2C_I2C_INT.c ****                 }
 209:Generated_Source\PSoC4/I2C_I2C_INT.c **** 
 210:Generated_Source\PSoC4/I2C_I2C_INT.c ****                 I2C_state = I2C_I2C_FSM_EXIT_IDLE;
 211:Generated_Source\PSoC4/I2C_I2C_INT.c ****             }
 212:Generated_Source\PSoC4/I2C_I2C_INT.c ****         }
 213:Generated_Source\PSoC4/I2C_I2C_INT.c ****         #endif
 214:Generated_Source\PSoC4/I2C_I2C_INT.c ****     }
 160              		.loc 1 214 5 is_stmt 1 view .LVU43
 215:Generated_Source\PSoC4/I2C_I2C_INT.c **** 
 216:Generated_Source\PSoC4/I2C_I2C_INT.c ****     /* States description:
 217:Generated_Source\PSoC4/I2C_I2C_INT.c ****     * Any Master operation starts from: the ADDR_RD/WR state as the master generates traffic on the
 218:Generated_Source\PSoC4/I2C_I2C_INT.c ****     * Any Slave operation starts from: the IDLE state as the slave always waits for actions from th
 219:Generated_Source\PSoC4/I2C_I2C_INT.c ****     */
 220:Generated_Source\PSoC4/I2C_I2C_INT.c **** 
 221:Generated_Source\PSoC4/I2C_I2C_INT.c ****     /* FSM Master */
 222:Generated_Source\PSoC4/I2C_I2C_INT.c ****     if(I2C_CHECK_I2C_FSM_MASTER)
 161              		.loc 1 222 5 view .LVU44
 162              		.loc 1 222 8 is_stmt 0 view .LVU45
 163 0078 954B     		ldr	r3, .L45+12
 164 007a 1B78     		ldrb	r3, [r3]
 165              		.loc 1 222 7 view .LVU46
 166 007c 9B06     		lsls	r3, r3, #26
 167 007e 00D4     		bmi	.LCB155
 168 0080 18E1     		b	.L9	@long jump
 169              	.LCB155:
 223:Generated_Source\PSoC4/I2C_I2C_INT.c ****     {
 224:Generated_Source\PSoC4/I2C_I2C_INT.c ****         #if(I2C_I2C_MASTER)
ARM GAS  C:\Users\EDULU~1.DES\AppData\Local\Temp\cc01kXrk.s 			page 8


 225:Generated_Source\PSoC4/I2C_I2C_INT.c ****         {
 226:Generated_Source\PSoC4/I2C_I2C_INT.c ****             /* INTR_MASTER_I2C_STOP:
 227:Generated_Source\PSoC4/I2C_I2C_INT.c ****             * A Stop condition was generated by the master: the end of the transaction.
 228:Generated_Source\PSoC4/I2C_I2C_INT.c ****             * Set completion flags to notify the API.
 229:Generated_Source\PSoC4/I2C_I2C_INT.c ****             */
 230:Generated_Source\PSoC4/I2C_I2C_INT.c ****             if(I2C_CHECK_INTR_MASTER_MASKED(I2C_INTR_MASTER_I2C_STOP))
 170              		.loc 1 230 13 is_stmt 1 view .LVU47
 171              		.loc 1 230 16 is_stmt 0 view .LVU48
 172 0082 944B     		ldr	r3, .L45+16
 173 0084 1B68     		ldr	r3, [r3]
 174              		.loc 1 230 15 view .LVU49
 175 0086 DB06     		lsls	r3, r3, #27
 176 0088 11D5     		bpl	.L10
 231:Generated_Source\PSoC4/I2C_I2C_INT.c ****             {
 232:Generated_Source\PSoC4/I2C_I2C_INT.c ****                 I2C_ClearMasterInterruptSource(I2C_INTR_MASTER_I2C_STOP);
 177              		.loc 1 232 17 is_stmt 1 view .LVU50
 178              		.loc 1 232 17 view .LVU51
 179 008a 944B     		ldr	r3, .L45+24
 180 008c 1022     		movs	r2, #16
 181              	.LVL12:
 182              		.loc 1 232 17 is_stmt 0 view .LVU52
 183 008e 1A60     		str	r2, [r3]
 233:Generated_Source\PSoC4/I2C_I2C_INT.c **** 
 234:Generated_Source\PSoC4/I2C_I2C_INT.c ****                 I2C_mstrStatus |= (uint16) I2C_GET_I2C_MSTAT_CMPLT;
 184              		.loc 1 234 17 is_stmt 1 view .LVU53
 185              		.loc 1 234 44 is_stmt 0 view .LVU54
 186 0090 8F4B     		ldr	r3, .L45+12
 187 0092 1B78     		ldrb	r3, [r3]
 188              		.loc 1 234 35 view .LVU55
 189 0094 DB07     		lsls	r3, r3, #31
 190 0096 08D5     		bpl	.L38
 191 0098 0121     		movs	r1, #1
 192              	.L11:
 193              		.loc 1 234 32 discriminator 4 view .LVU56
 194 009a 8F4A     		ldr	r2, .L45+20
 195 009c 1388     		ldrh	r3, [r2]
 196 009e 0B43     		orrs	r3, r1
 197 00a0 1380     		strh	r3, [r2]
 235:Generated_Source\PSoC4/I2C_I2C_INT.c ****                 I2C_state       = I2C_I2C_FSM_IDLE;
 198              		.loc 1 235 17 is_stmt 1 discriminator 4 view .LVU57
 199              		.loc 1 235 33 is_stmt 0 discriminator 4 view .LVU58
 200 00a2 8B4B     		ldr	r3, .L45+12
 201 00a4 1022     		movs	r2, #16
 202 00a6 1A70     		strb	r2, [r3]
 203 00a8 08E1     		b	.L1
 204              	.L38:
 234:Generated_Source\PSoC4/I2C_I2C_INT.c ****                 I2C_state       = I2C_I2C_FSM_IDLE;
 205              		.loc 1 234 35 view .LVU59
 206 00aa 0221     		movs	r1, #2
 207 00ac F5E7     		b	.L11
 208              	.LVL13:
 209              	.L10:
 236:Generated_Source\PSoC4/I2C_I2C_INT.c ****             }
 237:Generated_Source\PSoC4/I2C_I2C_INT.c ****             else
 238:Generated_Source\PSoC4/I2C_I2C_INT.c ****             {
 239:Generated_Source\PSoC4/I2C_I2C_INT.c ****                 if(I2C_CHECK_I2C_FSM_ADDR) /* Address stage */
 210              		.loc 1 239 17 is_stmt 1 view .LVU60
ARM GAS  C:\Users\EDULU~1.DES\AppData\Local\Temp\cc01kXrk.s 			page 9


 211              		.loc 1 239 20 is_stmt 0 view .LVU61
 212 00ae 884B     		ldr	r3, .L45+12
 213 00b0 1B78     		ldrb	r3, [r3]
 214              		.loc 1 239 19 view .LVU62
 215 00b2 1B07     		lsls	r3, r3, #28
 216 00b4 0DD5     		bpl	.L13
 240:Generated_Source\PSoC4/I2C_I2C_INT.c ****                 {
 241:Generated_Source\PSoC4/I2C_I2C_INT.c ****                     /* INTR_MASTER_I2C_NACK:
 242:Generated_Source\PSoC4/I2C_I2C_INT.c ****                     * The master sent an address but it was NACKed by the slave. Complete transacti
 243:Generated_Source\PSoC4/I2C_I2C_INT.c ****                     */
 244:Generated_Source\PSoC4/I2C_I2C_INT.c ****                     if(I2C_CHECK_INTR_MASTER_MASKED(I2C_INTR_MASTER_I2C_NACK))
 217              		.loc 1 244 21 is_stmt 1 view .LVU63
 218              		.loc 1 244 24 is_stmt 0 view .LVU64
 219 00b6 874B     		ldr	r3, .L45+16
 220 00b8 1B68     		ldr	r3, [r3]
 221              		.loc 1 244 23 view .LVU65
 222 00ba 9B07     		lsls	r3, r3, #30
 223 00bc 2BD5     		bpl	.L14
 245:Generated_Source\PSoC4/I2C_I2C_INT.c ****                     {
 246:Generated_Source\PSoC4/I2C_I2C_INT.c ****                         I2C_ClearMasterInterruptSource(I2C_INTR_MASTER_I2C_NACK);
 224              		.loc 1 246 25 is_stmt 1 view .LVU66
 225              		.loc 1 246 25 view .LVU67
 226 00be 874B     		ldr	r3, .L45+24
 227 00c0 0222     		movs	r2, #2
 228              	.LVL14:
 229              		.loc 1 246 25 is_stmt 0 view .LVU68
 230 00c2 1A60     		str	r2, [r3]
 247:Generated_Source\PSoC4/I2C_I2C_INT.c **** 
 248:Generated_Source\PSoC4/I2C_I2C_INT.c ****                         I2C_mstrStatus |= (uint16) (I2C_I2C_MSTAT_ERR_XFER |
 231              		.loc 1 248 25 is_stmt 1 view .LVU69
 232              		.loc 1 248 40 is_stmt 0 view .LVU70
 233 00c4 844A     		ldr	r2, .L45+20
 234 00c6 1388     		ldrh	r3, [r2]
 235 00c8 8821     		movs	r1, #136
 236 00ca 8900     		lsls	r1, r1, #2
 237 00cc 0B43     		orrs	r3, r1
 238 00ce 1380     		strh	r3, [r2]
 249:Generated_Source\PSoC4/I2C_I2C_INT.c ****                                                                  I2C_I2C_MSTAT_ERR_ADDR_NAK);
 250:Generated_Source\PSoC4/I2C_I2C_INT.c **** 
 251:Generated_Source\PSoC4/I2C_I2C_INT.c ****                         endTransfer = I2C_I2C_CMPLT_ANY_TRANSFER;
 239              		.loc 1 251 25 is_stmt 1 view .LVU71
 240              	.LVL15:
 241              		.loc 1 251 37 is_stmt 0 view .LVU72
 242 00d0 0122     		movs	r2, #1
 243              	.LVL16:
 244              	.L13:
 252:Generated_Source\PSoC4/I2C_I2C_INT.c ****                     }
 253:Generated_Source\PSoC4/I2C_I2C_INT.c ****                     /* INTR_TX_UNDERFLOW. The master sent an address:
 254:Generated_Source\PSoC4/I2C_I2C_INT.c ****                     *  - TX direction: the clock is stretched after the ACK phase, because the TX F
 255:Generated_Source\PSoC4/I2C_I2C_INT.c ****                     *    EMPTY. The TX EMPTY cleans all the TX interrupt sources.
 256:Generated_Source\PSoC4/I2C_I2C_INT.c ****                     *  - RX direction: the 1st byte is received, but there is no ACK permission,
 257:Generated_Source\PSoC4/I2C_I2C_INT.c ****                     *    the clock is stretched after 1 byte is received.
 258:Generated_Source\PSoC4/I2C_I2C_INT.c ****                     */
 259:Generated_Source\PSoC4/I2C_I2C_INT.c ****                     else
 260:Generated_Source\PSoC4/I2C_I2C_INT.c ****                     {
 261:Generated_Source\PSoC4/I2C_I2C_INT.c ****                         if(I2C_CHECK_I2C_FSM_RD) /* Reading */
 262:Generated_Source\PSoC4/I2C_I2C_INT.c ****                         {
ARM GAS  C:\Users\EDULU~1.DES\AppData\Local\Temp\cc01kXrk.s 			page 10


 263:Generated_Source\PSoC4/I2C_I2C_INT.c ****                             I2C_state = I2C_I2C_FSM_MSTR_RD_DATA;
 264:Generated_Source\PSoC4/I2C_I2C_INT.c ****                         }
 265:Generated_Source\PSoC4/I2C_I2C_INT.c ****                         else /* Writing */
 266:Generated_Source\PSoC4/I2C_I2C_INT.c ****                         {
 267:Generated_Source\PSoC4/I2C_I2C_INT.c ****                             I2C_state = I2C_I2C_FSM_MSTR_WR_DATA;
 268:Generated_Source\PSoC4/I2C_I2C_INT.c ****                             if(0u != I2C_mstrWrBufSize)
 269:Generated_Source\PSoC4/I2C_I2C_INT.c ****                             {
 270:Generated_Source\PSoC4/I2C_I2C_INT.c ****                                 /* Enable INTR.TX_EMPTY if there is data to transmit */
 271:Generated_Source\PSoC4/I2C_I2C_INT.c ****                                 I2C_SetTxInterruptMode(I2C_INTR_TX_EMPTY);
 272:Generated_Source\PSoC4/I2C_I2C_INT.c ****                             }
 273:Generated_Source\PSoC4/I2C_I2C_INT.c ****                         }
 274:Generated_Source\PSoC4/I2C_I2C_INT.c ****                     }
 275:Generated_Source\PSoC4/I2C_I2C_INT.c ****                 }
 276:Generated_Source\PSoC4/I2C_I2C_INT.c **** 
 277:Generated_Source\PSoC4/I2C_I2C_INT.c ****                 if(I2C_CHECK_I2C_FSM_DATA) /* Data phase */
 245              		.loc 1 277 17 is_stmt 1 view .LVU73
 246              		.loc 1 277 20 is_stmt 0 view .LVU74
 247 00d2 7F4B     		ldr	r3, .L45+12
 248 00d4 1B78     		ldrb	r3, [r3]
 249              		.loc 1 277 19 view .LVU75
 250 00d6 5B07     		lsls	r3, r3, #29
 251 00d8 42D5     		bpl	.L16
 278:Generated_Source\PSoC4/I2C_I2C_INT.c ****                 {
 279:Generated_Source\PSoC4/I2C_I2C_INT.c ****                     if(I2C_CHECK_I2C_FSM_RD) /* Reading */
 252              		.loc 1 279 21 is_stmt 1 view .LVU76
 253              		.loc 1 279 24 is_stmt 0 view .LVU77
 254 00da 7D4B     		ldr	r3, .L45+12
 255 00dc 1B78     		ldrb	r3, [r3]
 256              		.loc 1 279 23 view .LVU78
 257 00de DB07     		lsls	r3, r3, #31
 258 00e0 7ED5     		bpl	.L17
 280:Generated_Source\PSoC4/I2C_I2C_INT.c ****                     {
 281:Generated_Source\PSoC4/I2C_I2C_INT.c ****                         /* INTR_RX_FULL:
 282:Generated_Source\PSoC4/I2C_I2C_INT.c ****                         * RX direction: the master received 8 bytes.
 283:Generated_Source\PSoC4/I2C_I2C_INT.c ****                         * Get data from RX FIFO and decide whether to ACK or  NACK the following by
 284:Generated_Source\PSoC4/I2C_I2C_INT.c ****                         */
 285:Generated_Source\PSoC4/I2C_I2C_INT.c ****                         if(I2C_CHECK_INTR_RX_MASKED(I2C_INTR_RX_FULL))
 259              		.loc 1 285 25 is_stmt 1 view .LVU79
 260              		.loc 1 285 28 is_stmt 0 view .LVU80
 261 00e2 7F4B     		ldr	r3, .L45+28
 262 00e4 1B68     		ldr	r3, [r3]
 263              		.loc 1 285 27 view .LVU81
 264 00e6 1B07     		lsls	r3, r3, #28
 265 00e8 5DD5     		bpl	.L18
 286:Generated_Source\PSoC4/I2C_I2C_INT.c ****                         {
 287:Generated_Source\PSoC4/I2C_I2C_INT.c ****                             /* Calculate difference */
 288:Generated_Source\PSoC4/I2C_I2C_INT.c ****                             diffCount =  I2C_mstrRdBufSize -
 266              		.loc 1 288 29 is_stmt 1 view .LVU82
 267              		.loc 1 288 60 is_stmt 0 view .LVU83
 268 00ea 7E4B     		ldr	r3, .L45+32
 269 00ec 1B68     		ldr	r3, [r3]
 289:Generated_Source\PSoC4/I2C_I2C_INT.c ****                                         (I2C_mstrRdBufIndex + I2C_GET_RX_FIFO_ENTRIES);
 270              		.loc 1 289 63 view .LVU84
 271 00ee 7E49     		ldr	r1, .L45+36
 272 00f0 0968     		ldr	r1, [r1]
 273 00f2 0F24     		movs	r4, #15
 274 00f4 0C40     		ands	r4, r1
ARM GAS  C:\Users\EDULU~1.DES\AppData\Local\Temp\cc01kXrk.s 			page 11


 275              		.loc 1 289 61 view .LVU85
 276 00f6 7D49     		ldr	r1, .L45+40
 277 00f8 0968     		ldr	r1, [r1]
 278 00fa 6418     		adds	r4, r4, r1
 288:Generated_Source\PSoC4/I2C_I2C_INT.c ****                                         (I2C_mstrRdBufIndex + I2C_GET_RX_FIFO_ENTRIES);
 279              		.loc 1 288 39 view .LVU86
 280 00fc 1C1B     		subs	r4, r3, r4
 281              	.LVL17:
 290:Generated_Source\PSoC4/I2C_I2C_INT.c **** 
 291:Generated_Source\PSoC4/I2C_I2C_INT.c ****                             /* Proceed transaction or end it when RX FIFO becomes FULL again */
 292:Generated_Source\PSoC4/I2C_I2C_INT.c ****                             if(diffCount > I2C_I2C_FIFO_SIZE)
 282              		.loc 1 292 29 is_stmt 1 view .LVU87
 283              		.loc 1 292 31 is_stmt 0 view .LVU88
 284 00fe 082C     		cmp	r4, #8
 285 0100 4FD8     		bhi	.L39
 293:Generated_Source\PSoC4/I2C_I2C_INT.c ****                             {
 294:Generated_Source\PSoC4/I2C_I2C_INT.c ****                                 diffCount = I2C_I2C_FIFO_SIZE;
 295:Generated_Source\PSoC4/I2C_I2C_INT.c ****                             }
 296:Generated_Source\PSoC4/I2C_I2C_INT.c ****                             else
 297:Generated_Source\PSoC4/I2C_I2C_INT.c ****                             {
 298:Generated_Source\PSoC4/I2C_I2C_INT.c ****                                 if(0u == diffCount)
 286              		.loc 1 298 33 is_stmt 1 view .LVU89
 287              		.loc 1 298 35 is_stmt 0 view .LVU90
 288 0102 002C     		cmp	r4, #0
 289 0104 27D1     		bne	.L20
 299:Generated_Source\PSoC4/I2C_I2C_INT.c ****                                 {
 300:Generated_Source\PSoC4/I2C_I2C_INT.c ****                                     I2C_DISABLE_MASTER_AUTO_DATA_ACK;
 290              		.loc 1 300 37 is_stmt 1 view .LVU91
 291              		.loc 1 300 37 view .LVU92
 292 0106 7A4A     		ldr	r2, .L45+44
 293              	.LVL18:
 294              		.loc 1 300 37 is_stmt 0 view .LVU93
 295 0108 1368     		ldr	r3, [r2]
 296 010a 7A49     		ldr	r1, .L45+48
 297 010c 0B40     		ands	r3, r1
 298 010e 1360     		str	r3, [r2]
 301:Generated_Source\PSoC4/I2C_I2C_INT.c **** 
 302:Generated_Source\PSoC4/I2C_I2C_INT.c ****                                     diffCount   = I2C_I2C_FIFO_SIZE;
 299              		.loc 1 302 37 is_stmt 1 view .LVU94
 300              	.LVL19:
 303:Generated_Source\PSoC4/I2C_I2C_INT.c ****                                     endTransfer = I2C_I2C_CMPLT_ANY_TRANSFER;
 301              		.loc 1 303 37 view .LVU95
 302              		.loc 1 303 49 is_stmt 0 view .LVU96
 303 0110 0122     		movs	r2, #1
 302:Generated_Source\PSoC4/I2C_I2C_INT.c ****                                     endTransfer = I2C_I2C_CMPLT_ANY_TRANSFER;
 304              		.loc 1 302 49 view .LVU97
 305 0112 0834     		adds	r4, r4, #8
 306 0114 1FE0     		b	.L20
 307              	.LVL20:
 308              	.L14:
 261:Generated_Source\PSoC4/I2C_I2C_INT.c ****                         {
 309              		.loc 1 261 25 is_stmt 1 view .LVU98
 261:Generated_Source\PSoC4/I2C_I2C_INT.c ****                         {
 310              		.loc 1 261 28 is_stmt 0 view .LVU99
 311 0116 6E4B     		ldr	r3, .L45+12
 312 0118 1B78     		ldrb	r3, [r3]
 261:Generated_Source\PSoC4/I2C_I2C_INT.c ****                         {
ARM GAS  C:\Users\EDULU~1.DES\AppData\Local\Temp\cc01kXrk.s 			page 12


 313              		.loc 1 261 27 view .LVU100
 314 011a DB07     		lsls	r3, r3, #31
 315 011c 03D5     		bpl	.L15
 263:Generated_Source\PSoC4/I2C_I2C_INT.c ****                         }
 316              		.loc 1 263 29 is_stmt 1 view .LVU101
 263:Generated_Source\PSoC4/I2C_I2C_INT.c ****                         }
 317              		.loc 1 263 39 is_stmt 0 view .LVU102
 318 011e 6C4B     		ldr	r3, .L45+12
 319 0120 2521     		movs	r1, #37
 320 0122 1970     		strb	r1, [r3]
 321 0124 D5E7     		b	.L13
 322              	.L15:
 267:Generated_Source\PSoC4/I2C_I2C_INT.c ****                             if(0u != I2C_mstrWrBufSize)
 323              		.loc 1 267 29 is_stmt 1 view .LVU103
 267:Generated_Source\PSoC4/I2C_I2C_INT.c ****                             if(0u != I2C_mstrWrBufSize)
 324              		.loc 1 267 39 is_stmt 0 view .LVU104
 325 0126 6A4B     		ldr	r3, .L45+12
 326 0128 2421     		movs	r1, #36
 327 012a 1970     		strb	r1, [r3]
 268:Generated_Source\PSoC4/I2C_I2C_INT.c ****                             {
 328              		.loc 1 268 29 is_stmt 1 view .LVU105
 268:Generated_Source\PSoC4/I2C_I2C_INT.c ****                             {
 329              		.loc 1 268 35 is_stmt 0 view .LVU106
 330 012c 724B     		ldr	r3, .L45+52
 331 012e 1B68     		ldr	r3, [r3]
 268:Generated_Source\PSoC4/I2C_I2C_INT.c ****                             {
 332              		.loc 1 268 31 view .LVU107
 333 0130 002B     		cmp	r3, #0
 334 0132 CED0     		beq	.L13
 271:Generated_Source\PSoC4/I2C_I2C_INT.c ****                             }
 335              		.loc 1 271 33 is_stmt 1 view .LVU108
 271:Generated_Source\PSoC4/I2C_I2C_INT.c ****                             }
 336              		.loc 1 271 33 view .LVU109
 337 0134 714B     		ldr	r3, .L45+56
 338 0136 1439     		subs	r1, r1, #20
 339 0138 1960     		str	r1, [r3]
 340 013a CAE7     		b	.L13
 341              	.LVL21:
 342              	.L21:
 304:Generated_Source\PSoC4/I2C_I2C_INT.c ****                                 }
 305:Generated_Source\PSoC4/I2C_I2C_INT.c ****                             }
 306:Generated_Source\PSoC4/I2C_I2C_INT.c **** 
 307:Generated_Source\PSoC4/I2C_I2C_INT.c ****                             for(; (0u != diffCount); diffCount--)
 308:Generated_Source\PSoC4/I2C_I2C_INT.c ****                             {
 309:Generated_Source\PSoC4/I2C_I2C_INT.c ****                                 I2C_mstrRdBufPtr[I2C_mstrRdBufIndex] = (uint8)
 343              		.loc 1 309 33 discriminator 2 view .LVU110
 310:Generated_Source\PSoC4/I2C_I2C_INT.c ****                                                                                         I2C_RX_FIFO
 344              		.loc 1 310 89 is_stmt 0 discriminator 2 view .LVU111
 345 013c 704B     		ldr	r3, .L45+60
 346 013e 1868     		ldr	r0, [r3]
 309:Generated_Source\PSoC4/I2C_I2C_INT.c ****                                                                                         I2C_RX_FIFO
 347              		.loc 1 309 49 discriminator 2 view .LVU112
 348 0140 6A4B     		ldr	r3, .L45+40
 349 0142 1D68     		ldr	r5, [r3]
 350 0144 6F49     		ldr	r1, .L45+64
 351 0146 0968     		ldr	r1, [r1]
 352 0148 4919     		adds	r1, r1, r5
ARM GAS  C:\Users\EDULU~1.DES\AppData\Local\Temp\cc01kXrk.s 			page 13


 309:Generated_Source\PSoC4/I2C_I2C_INT.c ****                                                                                         I2C_RX_FIFO
 353              		.loc 1 309 72 discriminator 2 view .LVU113
 354 014a C0B2     		uxtb	r0, r0
 309:Generated_Source\PSoC4/I2C_I2C_INT.c ****                                                                                         I2C_RX_FIFO
 355              		.loc 1 309 70 discriminator 2 view .LVU114
 356 014c 0870     		strb	r0, [r1]
 311:Generated_Source\PSoC4/I2C_I2C_INT.c ****                                 I2C_mstrRdBufIndex++;
 357              		.loc 1 311 33 is_stmt 1 discriminator 2 view .LVU115
 358              		.loc 1 311 51 is_stmt 0 discriminator 2 view .LVU116
 359 014e 1968     		ldr	r1, [r3]
 360 0150 0131     		adds	r1, r1, #1
 361 0152 1960     		str	r1, [r3]
 307:Generated_Source\PSoC4/I2C_I2C_INT.c ****                             {
 362              		.loc 1 307 63 discriminator 2 view .LVU117
 363 0154 013C     		subs	r4, r4, #1
 364              	.LVL22:
 365              	.L20:
 307:Generated_Source\PSoC4/I2C_I2C_INT.c ****                             {
 366              		.loc 1 307 29 discriminator 1 view .LVU118
 367 0156 002C     		cmp	r4, #0
 368 0158 F0D1     		bne	.L21
 369              	.LVL23:
 370              	.L22:
 312:Generated_Source\PSoC4/I2C_I2C_INT.c ****                             }
 313:Generated_Source\PSoC4/I2C_I2C_INT.c ****                         }
 314:Generated_Source\PSoC4/I2C_I2C_INT.c ****                         /* INTR_RX_NOT_EMPTY:
 315:Generated_Source\PSoC4/I2C_I2C_INT.c ****                         * RX direction: the master received one data byte, ACK or NACK it.
 316:Generated_Source\PSoC4/I2C_I2C_INT.c ****                         * The last byte is stored and NACKed by the master. The NACK and Stop is
 317:Generated_Source\PSoC4/I2C_I2C_INT.c ****                         * generated by one command generate Stop.
 318:Generated_Source\PSoC4/I2C_I2C_INT.c ****                         */
 319:Generated_Source\PSoC4/I2C_I2C_INT.c ****                         else if(I2C_CHECK_INTR_RX_MASKED(I2C_INTR_RX_NOT_EMPTY))
 320:Generated_Source\PSoC4/I2C_I2C_INT.c ****                         {
 321:Generated_Source\PSoC4/I2C_I2C_INT.c ****                             /* Put data in component buffer */
 322:Generated_Source\PSoC4/I2C_I2C_INT.c ****                             I2C_mstrRdBufPtr[I2C_mstrRdBufIndex] = (uint8) I2C_RX_FIFO_RD_REG;
 323:Generated_Source\PSoC4/I2C_I2C_INT.c ****                             I2C_mstrRdBufIndex++;
 324:Generated_Source\PSoC4/I2C_I2C_INT.c **** 
 325:Generated_Source\PSoC4/I2C_I2C_INT.c ****                             if(I2C_mstrRdBufIndex < I2C_mstrRdBufSize)
 326:Generated_Source\PSoC4/I2C_I2C_INT.c ****                             {
 327:Generated_Source\PSoC4/I2C_I2C_INT.c ****                                 I2C_I2C_MASTER_GENERATE_ACK;
 328:Generated_Source\PSoC4/I2C_I2C_INT.c ****                             }
 329:Generated_Source\PSoC4/I2C_I2C_INT.c ****                             else
 330:Generated_Source\PSoC4/I2C_I2C_INT.c ****                             {
 331:Generated_Source\PSoC4/I2C_I2C_INT.c ****                                endTransfer = I2C_I2C_CMPLT_ANY_TRANSFER;
 332:Generated_Source\PSoC4/I2C_I2C_INT.c ****                             }
 333:Generated_Source\PSoC4/I2C_I2C_INT.c ****                         }
 334:Generated_Source\PSoC4/I2C_I2C_INT.c ****                         else
 335:Generated_Source\PSoC4/I2C_I2C_INT.c ****                         {
 336:Generated_Source\PSoC4/I2C_I2C_INT.c ****                             /* Do nothing */
 337:Generated_Source\PSoC4/I2C_I2C_INT.c ****                         }
 371              		.loc 1 337 25 is_stmt 1 view .LVU119
 338:Generated_Source\PSoC4/I2C_I2C_INT.c **** 
 339:Generated_Source\PSoC4/I2C_I2C_INT.c ****                         I2C_ClearRxInterruptSource(I2C_INTR_RX_ALL);
 372              		.loc 1 339 25 view .LVU120
 373              		.loc 1 339 25 view .LVU121
 374 015a 6B4B     		ldr	r3, .L45+68
 375 015c 6B49     		ldr	r1, .L45+72
 376 015e 1960     		str	r1, [r3]
ARM GAS  C:\Users\EDULU~1.DES\AppData\Local\Temp\cc01kXrk.s 			page 14


 377              	.L16:
 340:Generated_Source\PSoC4/I2C_I2C_INT.c ****                     }
 341:Generated_Source\PSoC4/I2C_I2C_INT.c ****                     else /* Writing */
 342:Generated_Source\PSoC4/I2C_I2C_INT.c ****                     {
 343:Generated_Source\PSoC4/I2C_I2C_INT.c ****                         /* INTR_MASTER_I2C_NACK :
 344:Generated_Source\PSoC4/I2C_I2C_INT.c ****                         * The master writes data to the slave and NACK was received: not all the by
 345:Generated_Source\PSoC4/I2C_I2C_INT.c ****                         * written to the slave from the TX FIFO. Revert the index if there is data 
 346:Generated_Source\PSoC4/I2C_I2C_INT.c ****                         * the TX FIFO and pass control to a complete transfer.
 347:Generated_Source\PSoC4/I2C_I2C_INT.c ****                         */
 348:Generated_Source\PSoC4/I2C_I2C_INT.c ****                         if(I2C_CHECK_INTR_MASTER_MASKED(I2C_INTR_MASTER_I2C_NACK))
 349:Generated_Source\PSoC4/I2C_I2C_INT.c ****                         {
 350:Generated_Source\PSoC4/I2C_I2C_INT.c ****                             I2C_ClearMasterInterruptSource(I2C_INTR_MASTER_I2C_NACK);
 351:Generated_Source\PSoC4/I2C_I2C_INT.c **** 
 352:Generated_Source\PSoC4/I2C_I2C_INT.c ****                             /* Rollback write buffer index: NACKed byte remains in shifter */
 353:Generated_Source\PSoC4/I2C_I2C_INT.c ****                             I2C_mstrWrBufIndexTmp -= (I2C_GET_TX_FIFO_ENTRIES +
 354:Generated_Source\PSoC4/I2C_I2C_INT.c ****                                                                    I2C_GET_TX_FIFO_SR_VALID);
 355:Generated_Source\PSoC4/I2C_I2C_INT.c **** 
 356:Generated_Source\PSoC4/I2C_I2C_INT.c ****                             /* Update number of transferred bytes */
 357:Generated_Source\PSoC4/I2C_I2C_INT.c ****                             I2C_mstrWrBufIndex = I2C_mstrWrBufIndexTmp;
 358:Generated_Source\PSoC4/I2C_I2C_INT.c **** 
 359:Generated_Source\PSoC4/I2C_I2C_INT.c ****                             I2C_mstrStatus |= (uint16) (I2C_I2C_MSTAT_ERR_XFER |
 360:Generated_Source\PSoC4/I2C_I2C_INT.c ****                                                                      I2C_I2C_MSTAT_ERR_SHORT_XFER);
 361:Generated_Source\PSoC4/I2C_I2C_INT.c **** 
 362:Generated_Source\PSoC4/I2C_I2C_INT.c ****                             I2C_CLEAR_TX_FIFO;
 363:Generated_Source\PSoC4/I2C_I2C_INT.c **** 
 364:Generated_Source\PSoC4/I2C_I2C_INT.c ****                             endTransfer = I2C_I2C_CMPLT_ANY_TRANSFER;
 365:Generated_Source\PSoC4/I2C_I2C_INT.c ****                         }
 366:Generated_Source\PSoC4/I2C_I2C_INT.c ****                         /* INTR_TX_EMPTY :
 367:Generated_Source\PSoC4/I2C_I2C_INT.c ****                         * TX direction: the TX FIFO is EMPTY, the data from the buffer needs to be 
 368:Generated_Source\PSoC4/I2C_I2C_INT.c ****                         * When there is no data in the component buffer, the underflow interrupt is
 369:Generated_Source\PSoC4/I2C_I2C_INT.c ****                         * enabled to catch when all the data has been transferred.
 370:Generated_Source\PSoC4/I2C_I2C_INT.c ****                         */
 371:Generated_Source\PSoC4/I2C_I2C_INT.c ****                         else if(I2C_CHECK_INTR_TX_MASKED(I2C_INTR_TX_EMPTY))
 372:Generated_Source\PSoC4/I2C_I2C_INT.c ****                         {
 373:Generated_Source\PSoC4/I2C_I2C_INT.c ****                             while(I2C_I2C_FIFO_SIZE != I2C_GET_TX_FIFO_ENTRIES)
 374:Generated_Source\PSoC4/I2C_I2C_INT.c ****                             {
 375:Generated_Source\PSoC4/I2C_I2C_INT.c ****                                 /* The temporary mstrWrBufIndexTmp is used because slave could NACK
 376:Generated_Source\PSoC4/I2C_I2C_INT.c ****                                 * roll-back required in this case. The mstrWrBufIndex is updated at
 377:Generated_Source\PSoC4/I2C_I2C_INT.c ****                                 */
 378:Generated_Source\PSoC4/I2C_I2C_INT.c ****                                 if(I2C_mstrWrBufIndexTmp < I2C_mstrWrBufSize)
 379:Generated_Source\PSoC4/I2C_I2C_INT.c ****                                 {
 380:Generated_Source\PSoC4/I2C_I2C_INT.c ****                                 #if(!I2C_CY_SCBIP_V0)
 381:Generated_Source\PSoC4/I2C_I2C_INT.c ****                                    /* Clear INTR_TX.UNDERFLOW before putting the last byte into TX 
 382:Generated_Source\PSoC4/I2C_I2C_INT.c ****                                     * a proper trigger at the end of transaction when INTR_TX.UNDER
 383:Generated_Source\PSoC4/I2C_I2C_INT.c ****                                     * event. Ticket ID# 156735.
 384:Generated_Source\PSoC4/I2C_I2C_INT.c ****                                     */
 385:Generated_Source\PSoC4/I2C_I2C_INT.c ****                                     if(I2C_mstrWrBufIndexTmp == (I2C_mstrWrBufSize - 1u))
 386:Generated_Source\PSoC4/I2C_I2C_INT.c ****                                     {
 387:Generated_Source\PSoC4/I2C_I2C_INT.c ****                                         I2C_ClearTxInterruptSource(I2C_INTR_TX_UNDERFLOW);
 388:Generated_Source\PSoC4/I2C_I2C_INT.c ****                                         I2C_SetTxInterruptMode(I2C_INTR_TX_UNDERFLOW);
 389:Generated_Source\PSoC4/I2C_I2C_INT.c ****                                     }
 390:Generated_Source\PSoC4/I2C_I2C_INT.c ****                                  #endif /* (!I2C_CY_SCBIP_V0) */
 391:Generated_Source\PSoC4/I2C_I2C_INT.c **** 
 392:Generated_Source\PSoC4/I2C_I2C_INT.c ****                                     /* Put data into TX FIFO */
 393:Generated_Source\PSoC4/I2C_I2C_INT.c ****                                     I2C_TX_FIFO_WR_REG = (uint32) I2C_mstrWrBufPtr[I2C_mstrWrBufInd
 394:Generated_Source\PSoC4/I2C_I2C_INT.c ****                                     I2C_mstrWrBufIndexTmp++;
 395:Generated_Source\PSoC4/I2C_I2C_INT.c ****                                 }
ARM GAS  C:\Users\EDULU~1.DES\AppData\Local\Temp\cc01kXrk.s 			page 15


 396:Generated_Source\PSoC4/I2C_I2C_INT.c ****                                 else
 397:Generated_Source\PSoC4/I2C_I2C_INT.c ****                                 {
 398:Generated_Source\PSoC4/I2C_I2C_INT.c ****                                     break; /* No more data to put */
 399:Generated_Source\PSoC4/I2C_I2C_INT.c ****                                 }
 400:Generated_Source\PSoC4/I2C_I2C_INT.c ****                             }
 401:Generated_Source\PSoC4/I2C_I2C_INT.c **** 
 402:Generated_Source\PSoC4/I2C_I2C_INT.c ****                         #if(I2C_CY_SCBIP_V0)
 403:Generated_Source\PSoC4/I2C_I2C_INT.c ****                             if(I2C_mstrWrBufIndexTmp == I2C_mstrWrBufSize)
 404:Generated_Source\PSoC4/I2C_I2C_INT.c ****                             {
 405:Generated_Source\PSoC4/I2C_I2C_INT.c ****                                 I2C_SetTxInterruptMode(I2C_INTR_TX_UNDERFLOW);
 406:Generated_Source\PSoC4/I2C_I2C_INT.c ****                             }
 407:Generated_Source\PSoC4/I2C_I2C_INT.c **** 
 408:Generated_Source\PSoC4/I2C_I2C_INT.c ****                             I2C_ClearTxInterruptSource(I2C_INTR_TX_ALL);
 409:Generated_Source\PSoC4/I2C_I2C_INT.c ****                         #else
 410:Generated_Source\PSoC4/I2C_I2C_INT.c ****                             I2C_ClearTxInterruptSource(I2C_INTR_TX_EMPTY);
 411:Generated_Source\PSoC4/I2C_I2C_INT.c ****                         #endif /* (I2C_CY_SCBIP_V0) */
 412:Generated_Source\PSoC4/I2C_I2C_INT.c ****                         }
 413:Generated_Source\PSoC4/I2C_I2C_INT.c ****                         /* INTR_TX_UNDERFLOW:
 414:Generated_Source\PSoC4/I2C_I2C_INT.c ****                         * TX direction: all data from the TX FIFO was transferred to the slave.
 415:Generated_Source\PSoC4/I2C_I2C_INT.c ****                         * The transaction needs to be completed.
 416:Generated_Source\PSoC4/I2C_I2C_INT.c ****                         */
 417:Generated_Source\PSoC4/I2C_I2C_INT.c ****                         else if(I2C_CHECK_INTR_TX_MASKED(I2C_INTR_TX_UNDERFLOW))
 418:Generated_Source\PSoC4/I2C_I2C_INT.c ****                         {
 419:Generated_Source\PSoC4/I2C_I2C_INT.c ****                             /* Update number of transferred bytes */
 420:Generated_Source\PSoC4/I2C_I2C_INT.c ****                             I2C_mstrWrBufIndex = I2C_mstrWrBufIndexTmp;
 421:Generated_Source\PSoC4/I2C_I2C_INT.c **** 
 422:Generated_Source\PSoC4/I2C_I2C_INT.c ****                             endTransfer = I2C_I2C_CMPLT_ANY_TRANSFER;
 423:Generated_Source\PSoC4/I2C_I2C_INT.c ****                         }
 424:Generated_Source\PSoC4/I2C_I2C_INT.c ****                         else
 425:Generated_Source\PSoC4/I2C_I2C_INT.c ****                         {
 426:Generated_Source\PSoC4/I2C_I2C_INT.c ****                             /* Do nothing */
 427:Generated_Source\PSoC4/I2C_I2C_INT.c ****                         }
 378              		.loc 1 427 25 view .LVU122
 428:Generated_Source\PSoC4/I2C_I2C_INT.c ****                     }
 429:Generated_Source\PSoC4/I2C_I2C_INT.c ****                 }
 430:Generated_Source\PSoC4/I2C_I2C_INT.c **** 
 431:Generated_Source\PSoC4/I2C_I2C_INT.c ****                 if(0u != endTransfer) /* Complete transfer */
 379              		.loc 1 431 17 view .LVU123
 380              		.loc 1 431 19 is_stmt 0 view .LVU124
 381 0160 002A     		cmp	r2, #0
 382 0162 00D1     		bne	.LCB381
 383 0164 AAE0     		b	.L1	@long jump
 384              	.LCB381:
 385              	.LVL24:
 386              	.L24:
 432:Generated_Source\PSoC4/I2C_I2C_INT.c ****                 {
 433:Generated_Source\PSoC4/I2C_I2C_INT.c ****                     /* Clean-up master after reading: only in case of NACK */
 434:Generated_Source\PSoC4/I2C_I2C_INT.c ****                     I2C_DISABLE_MASTER_AUTO_DATA_ACK;
 387              		.loc 1 434 21 is_stmt 1 view .LVU125
 388              		.loc 1 434 21 view .LVU126
 389 0166 624A     		ldr	r2, .L45+44
 390 0168 1368     		ldr	r3, [r2]
 391 016a 6249     		ldr	r1, .L45+48
 392 016c 0B40     		ands	r3, r1
 393 016e 1360     		str	r3, [r2]
 435:Generated_Source\PSoC4/I2C_I2C_INT.c **** 
 436:Generated_Source\PSoC4/I2C_I2C_INT.c ****                     /* Disable data processing interrupts: they have to be cleared before */
ARM GAS  C:\Users\EDULU~1.DES\AppData\Local\Temp\cc01kXrk.s 			page 16


 437:Generated_Source\PSoC4/I2C_I2C_INT.c ****                     I2C_SetRxInterruptMode(I2C_NO_INTR_SOURCES);
 394              		.loc 1 437 21 view .LVU127
 395              		.loc 1 437 21 view .LVU128
 396 0170 0023     		movs	r3, #0
 397 0172 674A     		ldr	r2, .L45+76
 398 0174 1360     		str	r3, [r2]
 438:Generated_Source\PSoC4/I2C_I2C_INT.c ****                     I2C_SetTxInterruptMode(I2C_NO_INTR_SOURCES);
 399              		.loc 1 438 21 view .LVU129
 400              		.loc 1 438 21 view .LVU130
 401 0176 614A     		ldr	r2, .L45+56
 402 0178 1360     		str	r3, [r2]
 439:Generated_Source\PSoC4/I2C_I2C_INT.c **** 
 440:Generated_Source\PSoC4/I2C_I2C_INT.c ****                     if(I2C_CHECK_I2C_MODE_NO_STOP(I2C_mstrControl))
 403              		.loc 1 440 21 view .LVU131
 404              		.loc 1 440 24 is_stmt 0 view .LVU132
 405 017a 664B     		ldr	r3, .L45+80
 406 017c 1B78     		ldrb	r3, [r3]
 407              		.loc 1 440 23 view .LVU133
 408 017e 9B07     		lsls	r3, r3, #30
 409 0180 00D4     		bmi	.LCB408
 410 0182 8DE0     		b	.L32	@long jump
 411              	.LCB408:
 441:Generated_Source\PSoC4/I2C_I2C_INT.c ****                     {
 442:Generated_Source\PSoC4/I2C_I2C_INT.c ****                         /* On-going transaction is suspended: the ReStart is generated by the API r
 443:Generated_Source\PSoC4/I2C_I2C_INT.c ****                         I2C_mstrStatus |= (uint16) (I2C_I2C_MSTAT_XFER_HALT |
 412              		.loc 1 443 25 is_stmt 1 view .LVU134
 444:Generated_Source\PSoC4/I2C_I2C_INT.c ****                                                                  I2C_GET_I2C_MSTAT_CMPLT);
 413              		.loc 1 444 66 is_stmt 0 view .LVU135
 414 0184 524B     		ldr	r3, .L45+12
 415 0186 1B78     		ldrb	r3, [r3]
 443:Generated_Source\PSoC4/I2C_I2C_INT.c ****                                                                  I2C_GET_I2C_MSTAT_CMPLT);
 416              		.loc 1 443 43 view .LVU136
 417 0188 DB07     		lsls	r3, r3, #31
 418 018a 00D4     		bmi	.LCB417
 419 018c 86E0     		b	.L40	@long jump
 420              	.LCB417:
 421 018e 0B31     		adds	r1, r1, #11
 422 0190 FF31     		adds	r1, r1, #255
 423              	.L33:
 443:Generated_Source\PSoC4/I2C_I2C_INT.c ****                                                                  I2C_GET_I2C_MSTAT_CMPLT);
 424              		.loc 1 443 40 discriminator 4 view .LVU137
 425 0192 514A     		ldr	r2, .L45+20
 426 0194 1388     		ldrh	r3, [r2]
 427 0196 0B43     		orrs	r3, r1
 428 0198 1380     		strh	r3, [r2]
 445:Generated_Source\PSoC4/I2C_I2C_INT.c **** 
 446:Generated_Source\PSoC4/I2C_I2C_INT.c ****                         I2C_state = I2C_I2C_FSM_MSTR_HALT;
 429              		.loc 1 446 25 is_stmt 1 discriminator 4 view .LVU138
 430              		.loc 1 446 35 is_stmt 0 discriminator 4 view .LVU139
 431 019a 4D4B     		ldr	r3, .L45+12
 432 019c 6022     		movs	r2, #96
 433 019e 1A70     		strb	r2, [r3]
 434 01a0 8CE0     		b	.L1
 435              	.LVL25:
 436              	.L39:
 294:Generated_Source\PSoC4/I2C_I2C_INT.c ****                             }
 437              		.loc 1 294 43 view .LVU140
ARM GAS  C:\Users\EDULU~1.DES\AppData\Local\Temp\cc01kXrk.s 			page 17


 438 01a2 0824     		movs	r4, #8
 439              	.LVL26:
 294:Generated_Source\PSoC4/I2C_I2C_INT.c ****                             }
 440              		.loc 1 294 43 view .LVU141
 441 01a4 D7E7     		b	.L20
 442              	.L18:
 319:Generated_Source\PSoC4/I2C_I2C_INT.c ****                         {
 443              		.loc 1 319 30 is_stmt 1 view .LVU142
 319:Generated_Source\PSoC4/I2C_I2C_INT.c ****                         {
 444              		.loc 1 319 33 is_stmt 0 view .LVU143
 445 01a6 4E4B     		ldr	r3, .L45+28
 446 01a8 1B68     		ldr	r3, [r3]
 319:Generated_Source\PSoC4/I2C_I2C_INT.c ****                         {
 447              		.loc 1 319 32 view .LVU144
 448 01aa 5B07     		lsls	r3, r3, #29
 449 01ac D5D5     		bpl	.L22
 322:Generated_Source\PSoC4/I2C_I2C_INT.c ****                             I2C_mstrRdBufIndex++;
 450              		.loc 1 322 29 is_stmt 1 view .LVU145
 322:Generated_Source\PSoC4/I2C_I2C_INT.c ****                             I2C_mstrRdBufIndex++;
 451              		.loc 1 322 76 is_stmt 0 view .LVU146
 452 01ae 544B     		ldr	r3, .L45+60
 453 01b0 1868     		ldr	r0, [r3]
 322:Generated_Source\PSoC4/I2C_I2C_INT.c ****                             I2C_mstrRdBufIndex++;
 454              		.loc 1 322 45 view .LVU147
 455 01b2 4E4B     		ldr	r3, .L45+40
 456 01b4 1C68     		ldr	r4, [r3]
 457 01b6 5349     		ldr	r1, .L45+64
 458 01b8 0968     		ldr	r1, [r1]
 459 01ba 0919     		adds	r1, r1, r4
 322:Generated_Source\PSoC4/I2C_I2C_INT.c ****                             I2C_mstrRdBufIndex++;
 460              		.loc 1 322 68 view .LVU148
 461 01bc C0B2     		uxtb	r0, r0
 322:Generated_Source\PSoC4/I2C_I2C_INT.c ****                             I2C_mstrRdBufIndex++;
 462              		.loc 1 322 66 view .LVU149
 463 01be 0870     		strb	r0, [r1]
 323:Generated_Source\PSoC4/I2C_I2C_INT.c **** 
 464              		.loc 1 323 29 is_stmt 1 view .LVU150
 323:Generated_Source\PSoC4/I2C_I2C_INT.c **** 
 465              		.loc 1 323 47 is_stmt 0 view .LVU151
 466 01c0 1968     		ldr	r1, [r3]
 467 01c2 0131     		adds	r1, r1, #1
 468 01c4 1960     		str	r1, [r3]
 325:Generated_Source\PSoC4/I2C_I2C_INT.c ****                             {
 469              		.loc 1 325 29 is_stmt 1 view .LVU152
 325:Generated_Source\PSoC4/I2C_I2C_INT.c ****                             {
 470              		.loc 1 325 51 is_stmt 0 view .LVU153
 471 01c6 1968     		ldr	r1, [r3]
 472 01c8 464B     		ldr	r3, .L45+32
 473 01ca 1B68     		ldr	r3, [r3]
 325:Generated_Source\PSoC4/I2C_I2C_INT.c ****                             {
 474              		.loc 1 325 31 view .LVU154
 475 01cc 9942     		cmp	r1, r3
 476 01ce 03D3     		bcc	.L23
 477              	.LVL27:
 337:Generated_Source\PSoC4/I2C_I2C_INT.c **** 
 478              		.loc 1 337 25 is_stmt 1 view .LVU155
 339:Generated_Source\PSoC4/I2C_I2C_INT.c ****                     }
ARM GAS  C:\Users\EDULU~1.DES\AppData\Local\Temp\cc01kXrk.s 			page 18


 479              		.loc 1 339 25 view .LVU156
 339:Generated_Source\PSoC4/I2C_I2C_INT.c ****                     }
 480              		.loc 1 339 25 view .LVU157
 481 01d0 4D4B     		ldr	r3, .L45+68
 482 01d2 4E4A     		ldr	r2, .L45+72
 483 01d4 1A60     		str	r2, [r3]
 427:Generated_Source\PSoC4/I2C_I2C_INT.c ****                     }
 484              		.loc 1 427 25 view .LVU158
 431:Generated_Source\PSoC4/I2C_I2C_INT.c ****                 {
 485              		.loc 1 431 17 view .LVU159
 486 01d6 C6E7     		b	.L24
 487              	.LVL28:
 488              	.L23:
 327:Generated_Source\PSoC4/I2C_I2C_INT.c ****                             }
 489              		.loc 1 327 33 view .LVU160
 327:Generated_Source\PSoC4/I2C_I2C_INT.c ****                             }
 490              		.loc 1 327 33 view .LVU161
 491 01d8 4F4B     		ldr	r3, .L45+84
 492 01da 0421     		movs	r1, #4
 493 01dc 1960     		str	r1, [r3]
 494 01de BCE7     		b	.L22
 495              	.L17:
 348:Generated_Source\PSoC4/I2C_I2C_INT.c ****                         {
 496              		.loc 1 348 25 view .LVU162
 348:Generated_Source\PSoC4/I2C_I2C_INT.c ****                         {
 497              		.loc 1 348 28 is_stmt 0 view .LVU163
 498 01e0 3C4B     		ldr	r3, .L45+16
 499 01e2 1B68     		ldr	r3, [r3]
 348:Generated_Source\PSoC4/I2C_I2C_INT.c ****                         {
 500              		.loc 1 348 27 view .LVU164
 501 01e4 9B07     		lsls	r3, r3, #30
 502 01e6 25D5     		bpl	.L25
 350:Generated_Source\PSoC4/I2C_I2C_INT.c **** 
 503              		.loc 1 350 29 is_stmt 1 view .LVU165
 350:Generated_Source\PSoC4/I2C_I2C_INT.c **** 
 504              		.loc 1 350 29 view .LVU166
 505 01e8 3C4B     		ldr	r3, .L45+24
 506 01ea 0222     		movs	r2, #2
 507              	.LVL29:
 350:Generated_Source\PSoC4/I2C_I2C_INT.c **** 
 508              		.loc 1 350 29 is_stmt 0 view .LVU167
 509 01ec 1A60     		str	r2, [r3]
 353:Generated_Source\PSoC4/I2C_I2C_INT.c ****                                                                    I2C_GET_TX_FIFO_SR_VALID);
 510              		.loc 1 353 29 is_stmt 1 view .LVU168
 353:Generated_Source\PSoC4/I2C_I2C_INT.c ****                                                                    I2C_GET_TX_FIFO_SR_VALID);
 511              		.loc 1 353 55 is_stmt 0 view .LVU169
 512 01ee 4B4A     		ldr	r2, .L45+88
 513 01f0 1168     		ldr	r1, [r2]
 514 01f2 0F23     		movs	r3, #15
 515 01f4 0B40     		ands	r3, r1
 354:Generated_Source\PSoC4/I2C_I2C_INT.c **** 
 516              		.loc 1 354 68 view .LVU170
 517 01f6 1268     		ldr	r2, [r2]
 518 01f8 8021     		movs	r1, #128
 519 01fa 0902     		lsls	r1, r1, #8
 520 01fc 0A40     		ands	r2, r1
 521 01fe 00D0     		beq	.L26
ARM GAS  C:\Users\EDULU~1.DES\AppData\Local\Temp\cc01kXrk.s 			page 19


 522 0200 0122     		movs	r2, #1
 523              	.L26:
 353:Generated_Source\PSoC4/I2C_I2C_INT.c ****                                                                    I2C_GET_TX_FIFO_SR_VALID);
 524              		.loc 1 353 79 view .LVU171
 525 0202 9B18     		adds	r3, r3, r2
 353:Generated_Source\PSoC4/I2C_I2C_INT.c ****                                                                    I2C_GET_TX_FIFO_SR_VALID);
 526              		.loc 1 353 51 view .LVU172
 527 0204 464A     		ldr	r2, .L45+92
 528 0206 1168     		ldr	r1, [r2]
 529 0208 CB1A     		subs	r3, r1, r3
 530 020a 1360     		str	r3, [r2]
 357:Generated_Source\PSoC4/I2C_I2C_INT.c **** 
 531              		.loc 1 357 29 is_stmt 1 view .LVU173
 357:Generated_Source\PSoC4/I2C_I2C_INT.c **** 
 532              		.loc 1 357 48 is_stmt 0 view .LVU174
 533 020c 1268     		ldr	r2, [r2]
 534 020e 454B     		ldr	r3, .L45+96
 535 0210 1A60     		str	r2, [r3]
 359:Generated_Source\PSoC4/I2C_I2C_INT.c ****                                                                      I2C_I2C_MSTAT_ERR_SHORT_XFER);
 536              		.loc 1 359 29 is_stmt 1 view .LVU175
 359:Generated_Source\PSoC4/I2C_I2C_INT.c ****                                                                      I2C_I2C_MSTAT_ERR_SHORT_XFER);
 537              		.loc 1 359 44 is_stmt 0 view .LVU176
 538 0212 314A     		ldr	r2, .L45+20
 539 0214 1388     		ldrh	r3, [r2]
 540 0216 8421     		movs	r1, #132
 541 0218 8900     		lsls	r1, r1, #2
 542 021a 0B43     		orrs	r3, r1
 543 021c 1380     		strh	r3, [r2]
 362:Generated_Source\PSoC4/I2C_I2C_INT.c **** 
 544              		.loc 1 362 29 is_stmt 1 view .LVU177
 362:Generated_Source\PSoC4/I2C_I2C_INT.c **** 
 545              		.loc 1 362 29 view .LVU178
 546 021e 424B     		ldr	r3, .L45+100
 547 0220 1968     		ldr	r1, [r3]
 548 0222 8022     		movs	r2, #128
 549 0224 5202     		lsls	r2, r2, #9
 550 0226 0A43     		orrs	r2, r1
 551 0228 1A60     		str	r2, [r3]
 362:Generated_Source\PSoC4/I2C_I2C_INT.c **** 
 552              		.loc 1 362 29 view .LVU179
 553 022a 1A68     		ldr	r2, [r3]
 554 022c 3F49     		ldr	r1, .L45+104
 555 022e 0A40     		ands	r2, r1
 556 0230 1A60     		str	r2, [r3]
 364:Generated_Source\PSoC4/I2C_I2C_INT.c ****                         }
 557              		.loc 1 364 29 view .LVU180
 558              	.LVL30:
 427:Generated_Source\PSoC4/I2C_I2C_INT.c ****                     }
 559              		.loc 1 427 25 view .LVU181
 431:Generated_Source\PSoC4/I2C_I2C_INT.c ****                 {
 560              		.loc 1 431 17 view .LVU182
 561 0232 98E7     		b	.L24
 562              	.LVL31:
 563              	.L25:
 371:Generated_Source\PSoC4/I2C_I2C_INT.c ****                         {
 564              		.loc 1 371 30 view .LVU183
 371:Generated_Source\PSoC4/I2C_I2C_INT.c ****                         {
ARM GAS  C:\Users\EDULU~1.DES\AppData\Local\Temp\cc01kXrk.s 			page 20


 565              		.loc 1 371 33 is_stmt 0 view .LVU184
 566 0234 3E4B     		ldr	r3, .L45+108
 567 0236 1B68     		ldr	r3, [r3]
 371:Generated_Source\PSoC4/I2C_I2C_INT.c ****                         {
 568              		.loc 1 371 32 view .LVU185
 569 0238 DB06     		lsls	r3, r3, #27
 570 023a 08D4     		bmi	.L27
 417:Generated_Source\PSoC4/I2C_I2C_INT.c ****                         {
 571              		.loc 1 417 30 is_stmt 1 view .LVU186
 417:Generated_Source\PSoC4/I2C_I2C_INT.c ****                         {
 572              		.loc 1 417 33 is_stmt 0 view .LVU187
 573 023c 3C4B     		ldr	r3, .L45+108
 574 023e 1B68     		ldr	r3, [r3]
 417:Generated_Source\PSoC4/I2C_I2C_INT.c ****                         {
 575              		.loc 1 417 32 view .LVU188
 576 0240 5B06     		lsls	r3, r3, #25
 577 0242 8DD5     		bpl	.L16
 420:Generated_Source\PSoC4/I2C_I2C_INT.c **** 
 578              		.loc 1 420 29 is_stmt 1 view .LVU189
 420:Generated_Source\PSoC4/I2C_I2C_INT.c **** 
 579              		.loc 1 420 48 is_stmt 0 view .LVU190
 580 0244 364B     		ldr	r3, .L45+92
 581 0246 1A68     		ldr	r2, [r3]
 582              	.LVL32:
 420:Generated_Source\PSoC4/I2C_I2C_INT.c **** 
 583              		.loc 1 420 48 view .LVU191
 584 0248 364B     		ldr	r3, .L45+96
 585 024a 1A60     		str	r2, [r3]
 422:Generated_Source\PSoC4/I2C_I2C_INT.c ****                         }
 586              		.loc 1 422 29 is_stmt 1 view .LVU192
 587              	.LVL33:
 427:Generated_Source\PSoC4/I2C_I2C_INT.c ****                     }
 588              		.loc 1 427 25 view .LVU193
 431:Generated_Source\PSoC4/I2C_I2C_INT.c ****                 {
 589              		.loc 1 431 17 view .LVU194
 590 024c 8BE7     		b	.L24
 591              	.LVL34:
 592              	.L27:
 373:Generated_Source\PSoC4/I2C_I2C_INT.c ****                             {
 593              		.loc 1 373 56 is_stmt 0 view .LVU195
 594 024e 334B     		ldr	r3, .L45+88
 595 0250 1968     		ldr	r1, [r3]
 596 0252 0F23     		movs	r3, #15
 597 0254 0B40     		ands	r3, r1
 373:Generated_Source\PSoC4/I2C_I2C_INT.c ****                             {
 598              		.loc 1 373 34 view .LVU196
 599 0256 082B     		cmp	r3, #8
 600 0258 12D0     		beq	.L29
 378:Generated_Source\PSoC4/I2C_I2C_INT.c ****                                 {
 601              		.loc 1 378 33 is_stmt 1 view .LVU197
 378:Generated_Source\PSoC4/I2C_I2C_INT.c ****                                 {
 602              		.loc 1 378 58 is_stmt 0 view .LVU198
 603 025a 314B     		ldr	r3, .L45+92
 604 025c 1968     		ldr	r1, [r3]
 605 025e 264B     		ldr	r3, .L45+52
 606 0260 1B68     		ldr	r3, [r3]
 378:Generated_Source\PSoC4/I2C_I2C_INT.c ****                                 {
ARM GAS  C:\Users\EDULU~1.DES\AppData\Local\Temp\cc01kXrk.s 			page 21


 607              		.loc 1 378 35 view .LVU199
 608 0262 9942     		cmp	r1, r3
 609 0264 0CD2     		bcs	.L29
 393:Generated_Source\PSoC4/I2C_I2C_INT.c ****                                     I2C_mstrWrBufIndexTmp++;
 610              		.loc 1 393 37 is_stmt 1 view .LVU200
 393:Generated_Source\PSoC4/I2C_I2C_INT.c ****                                     I2C_mstrWrBufIndexTmp++;
 611              		.loc 1 393 83 is_stmt 0 view .LVU201
 612 0266 2E4B     		ldr	r3, .L45+92
 613 0268 1868     		ldr	r0, [r3]
 614 026a 3249     		ldr	r1, .L45+112
 615 026c 0968     		ldr	r1, [r1]
 616 026e 0918     		adds	r1, r1, r0
 617 0270 0978     		ldrb	r1, [r1]
 618 0272 C9B2     		uxtb	r1, r1
 393:Generated_Source\PSoC4/I2C_I2C_INT.c ****                                     I2C_mstrWrBufIndexTmp++;
 619              		.loc 1 393 56 view .LVU202
 620 0274 3048     		ldr	r0, .L45+116
 621 0276 0160     		str	r1, [r0]
 394:Generated_Source\PSoC4/I2C_I2C_INT.c ****                                 }
 622              		.loc 1 394 37 is_stmt 1 view .LVU203
 394:Generated_Source\PSoC4/I2C_I2C_INT.c ****                                 }
 623              		.loc 1 394 58 is_stmt 0 view .LVU204
 624 0278 1968     		ldr	r1, [r3]
 625 027a 0131     		adds	r1, r1, #1
 626 027c 1960     		str	r1, [r3]
 627 027e E6E7     		b	.L27
 628              	.L29:
 403:Generated_Source\PSoC4/I2C_I2C_INT.c ****                             {
 629              		.loc 1 403 29 is_stmt 1 view .LVU205
 403:Generated_Source\PSoC4/I2C_I2C_INT.c ****                             {
 630              		.loc 1 403 54 is_stmt 0 view .LVU206
 631 0280 274B     		ldr	r3, .L45+92
 632 0282 1968     		ldr	r1, [r3]
 633 0284 1C4B     		ldr	r3, .L45+52
 634 0286 1B68     		ldr	r3, [r3]
 403:Generated_Source\PSoC4/I2C_I2C_INT.c ****                             {
 635              		.loc 1 403 31 view .LVU207
 636 0288 9942     		cmp	r1, r3
 637 028a 03D0     		beq	.L43
 638              	.L31:
 408:Generated_Source\PSoC4/I2C_I2C_INT.c ****                         #else
 639              		.loc 1 408 29 is_stmt 1 view .LVU208
 408:Generated_Source\PSoC4/I2C_I2C_INT.c ****                         #else
 640              		.loc 1 408 29 view .LVU209
 641 028c 2B4B     		ldr	r3, .L45+120
 642 028e 2C49     		ldr	r1, .L45+124
 643 0290 1960     		str	r1, [r3]
 644 0292 65E7     		b	.L16
 645              	.L43:
 405:Generated_Source\PSoC4/I2C_I2C_INT.c ****                             }
 646              		.loc 1 405 33 view .LVU210
 405:Generated_Source\PSoC4/I2C_I2C_INT.c ****                             }
 647              		.loc 1 405 33 view .LVU211
 648 0294 194B     		ldr	r3, .L45+56
 649 0296 4021     		movs	r1, #64
 650 0298 1960     		str	r1, [r3]
 651 029a F7E7     		b	.L31
ARM GAS  C:\Users\EDULU~1.DES\AppData\Local\Temp\cc01kXrk.s 			page 22


 652              	.LVL35:
 653              	.L40:
 443:Generated_Source\PSoC4/I2C_I2C_INT.c ****                                                                  I2C_GET_I2C_MSTAT_CMPLT);
 654              		.loc 1 443 43 is_stmt 0 view .LVU212
 655 029c 0A21     		movs	r1, #10
 656 029e 78E7     		b	.L33
 657              	.L32:
 447:Generated_Source\PSoC4/I2C_I2C_INT.c ****                     }
 448:Generated_Source\PSoC4/I2C_I2C_INT.c ****                     else
 449:Generated_Source\PSoC4/I2C_I2C_INT.c ****                     {
 450:Generated_Source\PSoC4/I2C_I2C_INT.c ****                         /* Complete transaction: exclude the data processing state and generate Sto
 451:Generated_Source\PSoC4/I2C_I2C_INT.c ****                         * The completion status will be set after Stop generation.
 452:Generated_Source\PSoC4/I2C_I2C_INT.c ****                         * A special case is read: because NACK and Stop are generated by the comman
 453:Generated_Source\PSoC4/I2C_I2C_INT.c ****                         * Lost arbitration can occur during NACK generation when
 454:Generated_Source\PSoC4/I2C_I2C_INT.c ****                         * the other master is still reading from the slave.
 455:Generated_Source\PSoC4/I2C_I2C_INT.c ****                         */
 456:Generated_Source\PSoC4/I2C_I2C_INT.c ****                         I2C_I2C_MASTER_GENERATE_STOP;
 658              		.loc 1 456 25 is_stmt 1 view .LVU213
 659              		.loc 1 456 25 view .LVU214
 660 02a0 284B     		ldr	r3, .L45+128
 661 02a2 1B68     		ldr	r3, [r3]
 662 02a4 9B06     		lsls	r3, r3, #26
 663 02a6 03D5     		bpl	.L41
 664 02a8 1822     		movs	r2, #24
 665              	.L34:
 666              		.loc 1 456 25 is_stmt 0 discriminator 4 view .LVU215
 667 02aa 1B4B     		ldr	r3, .L45+84
 668 02ac 1A60     		str	r2, [r3]
 669 02ae 05E0     		b	.L1
 670              	.L41:
 671              		.loc 1 456 25 view .LVU216
 672 02b0 1022     		movs	r2, #16
 673 02b2 FAE7     		b	.L34
 674              	.LVL36:
 675              	.L9:
 457:Generated_Source\PSoC4/I2C_I2C_INT.c ****                     }
 458:Generated_Source\PSoC4/I2C_I2C_INT.c ****                 }
 459:Generated_Source\PSoC4/I2C_I2C_INT.c ****             }
 460:Generated_Source\PSoC4/I2C_I2C_INT.c **** 
 461:Generated_Source\PSoC4/I2C_I2C_INT.c ****         } /* (I2C_I2C_MASTER) */
 462:Generated_Source\PSoC4/I2C_I2C_INT.c ****         #endif
 463:Generated_Source\PSoC4/I2C_I2C_INT.c **** 
 464:Generated_Source\PSoC4/I2C_I2C_INT.c ****     } /* (I2C_CHECK_I2C_FSM_MASTER) */
 465:Generated_Source\PSoC4/I2C_I2C_INT.c **** 
 466:Generated_Source\PSoC4/I2C_I2C_INT.c **** 
 467:Generated_Source\PSoC4/I2C_I2C_INT.c ****     /* FSM Slave */
 468:Generated_Source\PSoC4/I2C_I2C_INT.c ****     else if(I2C_CHECK_I2C_FSM_SLAVE)
 676              		.loc 1 468 10 is_stmt 1 view .LVU217
 677              		.loc 1 468 13 is_stmt 0 view .LVU218
 678 02b4 064B     		ldr	r3, .L45+12
 679 02b6 1B78     		ldrb	r3, [r3]
 680              		.loc 1 468 12 view .LVU219
 681 02b8 DB06     		lsls	r3, r3, #27
 682 02ba 00D5     		bpl	.L44
 683              	.LVL37:
 684              	.L1:
 469:Generated_Source\PSoC4/I2C_I2C_INT.c ****     {
ARM GAS  C:\Users\EDULU~1.DES\AppData\Local\Temp\cc01kXrk.s 			page 23


 470:Generated_Source\PSoC4/I2C_I2C_INT.c ****         #if(I2C_I2C_SLAVE)
 471:Generated_Source\PSoC4/I2C_I2C_INT.c ****         {
 472:Generated_Source\PSoC4/I2C_I2C_INT.c ****             /* INTR_SLAVE_NACK:
 473:Generated_Source\PSoC4/I2C_I2C_INT.c ****             * The master completes reading the slave: the appropriate flags have to be set.
 474:Generated_Source\PSoC4/I2C_I2C_INT.c ****             * The TX FIFO is cleared after an overflow condition is set.
 475:Generated_Source\PSoC4/I2C_I2C_INT.c ****             */
 476:Generated_Source\PSoC4/I2C_I2C_INT.c ****             if(I2C_CHECK_INTR_SLAVE_MASKED(I2C_INTR_SLAVE_I2C_NACK))
 477:Generated_Source\PSoC4/I2C_I2C_INT.c ****             {
 478:Generated_Source\PSoC4/I2C_I2C_INT.c ****                 I2C_ClearSlaveInterruptSource(I2C_INTR_SLAVE_I2C_NACK);
 479:Generated_Source\PSoC4/I2C_I2C_INT.c **** 
 480:Generated_Source\PSoC4/I2C_I2C_INT.c ****                 /* All entries that remain in TX FIFO are: FIFO Size + 1 (SHIFTER) */
 481:Generated_Source\PSoC4/I2C_I2C_INT.c ****                 diffCount = (I2C_GET_TX_FIFO_ENTRIES + I2C_GET_TX_FIFO_SR_VALID);
 482:Generated_Source\PSoC4/I2C_I2C_INT.c **** 
 483:Generated_Source\PSoC4/I2C_I2C_INT.c ****                 if(I2C_slOverFlowCount > diffCount) /* Overflow */
 484:Generated_Source\PSoC4/I2C_I2C_INT.c ****                 {
 485:Generated_Source\PSoC4/I2C_I2C_INT.c ****                     I2C_slStatus |= (uint8) I2C_I2C_SSTAT_RD_OVFL;
 486:Generated_Source\PSoC4/I2C_I2C_INT.c ****                 }
 487:Generated_Source\PSoC4/I2C_I2C_INT.c ****                 else /* No Overflow */
 488:Generated_Source\PSoC4/I2C_I2C_INT.c ****                 {
 489:Generated_Source\PSoC4/I2C_I2C_INT.c ****                     /* Roll-back temporary index */
 490:Generated_Source\PSoC4/I2C_I2C_INT.c ****                     I2C_slRdBufIndexTmp -= (diffCount - I2C_slOverFlowCount);
 491:Generated_Source\PSoC4/I2C_I2C_INT.c ****                 }
 492:Generated_Source\PSoC4/I2C_I2C_INT.c **** 
 493:Generated_Source\PSoC4/I2C_I2C_INT.c ****                 /* Update slave of transferred bytes */
 494:Generated_Source\PSoC4/I2C_I2C_INT.c ****                 I2C_slRdBufIndex = I2C_slRdBufIndexTmp;
 495:Generated_Source\PSoC4/I2C_I2C_INT.c **** 
 496:Generated_Source\PSoC4/I2C_I2C_INT.c ****                 /* Clean-up TX FIFO */
 497:Generated_Source\PSoC4/I2C_I2C_INT.c ****                 I2C_SetTxInterruptMode(I2C_NO_INTR_SOURCES);
 498:Generated_Source\PSoC4/I2C_I2C_INT.c ****                 I2C_slOverFlowCount = 0u;
 499:Generated_Source\PSoC4/I2C_I2C_INT.c ****                 I2C_CLEAR_TX_FIFO;
 500:Generated_Source\PSoC4/I2C_I2C_INT.c **** 
 501:Generated_Source\PSoC4/I2C_I2C_INT.c ****                 /* Complete master reading */
 502:Generated_Source\PSoC4/I2C_I2C_INT.c ****                 I2C_slStatus &= (uint8) ~I2C_I2C_SSTAT_RD_BUSY;
 503:Generated_Source\PSoC4/I2C_I2C_INT.c ****                 I2C_slStatus |= (uint8)  I2C_I2C_SSTAT_RD_CMPLT;
 504:Generated_Source\PSoC4/I2C_I2C_INT.c ****                 I2C_state     =  I2C_I2C_FSM_IDLE;
 505:Generated_Source\PSoC4/I2C_I2C_INT.c ****                 
 506:Generated_Source\PSoC4/I2C_I2C_INT.c ****             #ifdef I2C_I2C_SLAVE_CMPLT_CALLBACK
 507:Generated_Source\PSoC4/I2C_I2C_INT.c ****                 /* Read complete */
 508:Generated_Source\PSoC4/I2C_I2C_INT.c ****                 I2C_I2C_SlaveCompleteCallback();
 509:Generated_Source\PSoC4/I2C_I2C_INT.c ****             #endif /* I2C_I2C_SLAVE_CMPLT_CALLBACK */
 510:Generated_Source\PSoC4/I2C_I2C_INT.c ****             }
 511:Generated_Source\PSoC4/I2C_I2C_INT.c **** 
 512:Generated_Source\PSoC4/I2C_I2C_INT.c **** 
 513:Generated_Source\PSoC4/I2C_I2C_INT.c ****             /* INTR_SLAVE_I2C_WRITE_STOP:
 514:Generated_Source\PSoC4/I2C_I2C_INT.c ****             * The master completes writing to the slave: the appropriate flags have to be set.
 515:Generated_Source\PSoC4/I2C_I2C_INT.c ****             * The RX FIFO contains 1-8 bytes from the previous transaction which needs to be read.
 516:Generated_Source\PSoC4/I2C_I2C_INT.c ****             * There is a possibility that RX FIFO contains an address, it needs to leave it there.
 517:Generated_Source\PSoC4/I2C_I2C_INT.c ****             */
 518:Generated_Source\PSoC4/I2C_I2C_INT.c ****             if(I2C_CHECK_INTR_SLAVE_MASKED(I2C_INTR_SLAVE_I2C_WRITE_STOP))
 519:Generated_Source\PSoC4/I2C_I2C_INT.c ****             {
 520:Generated_Source\PSoC4/I2C_I2C_INT.c ****                 I2C_ClearSlaveInterruptSource(I2C_INTR_SLAVE_I2C_WRITE_STOP);
 521:Generated_Source\PSoC4/I2C_I2C_INT.c **** 
 522:Generated_Source\PSoC4/I2C_I2C_INT.c ****                 /* Read bytes from RX FIFO when auto data ACK receive logic is enabled. Otherwise a
 523:Generated_Source\PSoC4/I2C_I2C_INT.c ****                 * were already read from the RX FIFO except for address byte which has to stay here
 524:Generated_Source\PSoC4/I2C_I2C_INT.c ****                 * I2C_ADDR_MATCH.
 525:Generated_Source\PSoC4/I2C_I2C_INT.c ****                 */
 526:Generated_Source\PSoC4/I2C_I2C_INT.c ****                 if (0u != (I2C_I2C_CTRL_REG & I2C_I2C_CTRL_S_READY_DATA_ACK))
ARM GAS  C:\Users\EDULU~1.DES\AppData\Local\Temp\cc01kXrk.s 			page 24


 527:Generated_Source\PSoC4/I2C_I2C_INT.c ****                 {
 528:Generated_Source\PSoC4/I2C_I2C_INT.c ****                     while(0u != I2C_GET_RX_FIFO_ENTRIES)
 529:Generated_Source\PSoC4/I2C_I2C_INT.c ****                     {
 530:Generated_Source\PSoC4/I2C_I2C_INT.c ****                         #if(I2C_CHECK_I2C_ACCEPT_ADDRESS)
 531:Generated_Source\PSoC4/I2C_I2C_INT.c ****                         {
 532:Generated_Source\PSoC4/I2C_I2C_INT.c ****                             if((1u == I2C_GET_RX_FIFO_ENTRIES) &&
 533:Generated_Source\PSoC4/I2C_I2C_INT.c ****                                (I2C_CHECK_INTR_SLAVE_MASKED(I2C_INTR_SLAVE_I2C_ADDR_MATCH)))
 534:Generated_Source\PSoC4/I2C_I2C_INT.c ****                             {
 535:Generated_Source\PSoC4/I2C_I2C_INT.c ****                                 break; /* Leave address in RX FIFO */
 536:Generated_Source\PSoC4/I2C_I2C_INT.c ****                             }
 537:Generated_Source\PSoC4/I2C_I2C_INT.c ****                         }
 538:Generated_Source\PSoC4/I2C_I2C_INT.c ****                         #endif
 539:Generated_Source\PSoC4/I2C_I2C_INT.c **** 
 540:Generated_Source\PSoC4/I2C_I2C_INT.c ****                         /* Put data in component buffer */
 541:Generated_Source\PSoC4/I2C_I2C_INT.c ****                         I2C_slWrBufPtr[I2C_slWrBufIndex] = (uint8) I2C_RX_FIFO_RD_REG;
 542:Generated_Source\PSoC4/I2C_I2C_INT.c ****                         I2C_slWrBufIndex++;
 543:Generated_Source\PSoC4/I2C_I2C_INT.c ****                     }
 544:Generated_Source\PSoC4/I2C_I2C_INT.c **** 
 545:Generated_Source\PSoC4/I2C_I2C_INT.c ****                     I2C_DISABLE_SLAVE_AUTO_DATA;
 546:Generated_Source\PSoC4/I2C_I2C_INT.c ****                 }
 547:Generated_Source\PSoC4/I2C_I2C_INT.c **** 
 548:Generated_Source\PSoC4/I2C_I2C_INT.c ****                 if(I2C_CHECK_INTR_RX(I2C_INTR_RX_OVERFLOW))
 549:Generated_Source\PSoC4/I2C_I2C_INT.c ****                 {
 550:Generated_Source\PSoC4/I2C_I2C_INT.c ****                     I2C_slStatus |= (uint8) I2C_I2C_SSTAT_WR_OVFL;
 551:Generated_Source\PSoC4/I2C_I2C_INT.c ****                 }
 552:Generated_Source\PSoC4/I2C_I2C_INT.c **** 
 553:Generated_Source\PSoC4/I2C_I2C_INT.c ****                 /* Clears RX interrupt sources triggered on data receiving */
 554:Generated_Source\PSoC4/I2C_I2C_INT.c ****                 I2C_SetRxInterruptMode(I2C_NO_INTR_SOURCES);
 555:Generated_Source\PSoC4/I2C_I2C_INT.c ****                 I2C_ClearRxInterruptSource(I2C_INTR_RX_ALL);
 556:Generated_Source\PSoC4/I2C_I2C_INT.c **** 
 557:Generated_Source\PSoC4/I2C_I2C_INT.c ****                 /* Complete master writing */
 558:Generated_Source\PSoC4/I2C_I2C_INT.c ****                 I2C_slStatus &= (uint8) ~I2C_I2C_SSTAT_WR_BUSY;
 559:Generated_Source\PSoC4/I2C_I2C_INT.c ****                 I2C_slStatus |= (uint8)  I2C_I2C_SSTAT_WR_CMPLT;
 560:Generated_Source\PSoC4/I2C_I2C_INT.c ****                 I2C_state     =  I2C_I2C_FSM_IDLE;
 561:Generated_Source\PSoC4/I2C_I2C_INT.c **** 
 562:Generated_Source\PSoC4/I2C_I2C_INT.c ****             #ifdef I2C_I2C_SLAVE_CMPLT_CALLBACK
 563:Generated_Source\PSoC4/I2C_I2C_INT.c ****                 /* Write complete */
 564:Generated_Source\PSoC4/I2C_I2C_INT.c ****                 I2C_I2C_SlaveCompleteCallback();
 565:Generated_Source\PSoC4/I2C_I2C_INT.c ****             #endif /* I2C_I2C_SLAVE_CMPLT_CALLBACK */
 566:Generated_Source\PSoC4/I2C_I2C_INT.c ****             }
 567:Generated_Source\PSoC4/I2C_I2C_INT.c **** 
 568:Generated_Source\PSoC4/I2C_I2C_INT.c **** 
 569:Generated_Source\PSoC4/I2C_I2C_INT.c ****             /* INTR_SLAVE_I2C_ADDR_MATCH or INTR_SLAVE_I2C_GENERAL:
 570:Generated_Source\PSoC4/I2C_I2C_INT.c ****             * The address match or general call address event starts the slave operation:
 571:Generated_Source\PSoC4/I2C_I2C_INT.c ****             * after leaving the TX or RX direction has to be chosen.
 572:Generated_Source\PSoC4/I2C_I2C_INT.c ****             * The wakeup interrupt must be cleared only after an address match is set.
 573:Generated_Source\PSoC4/I2C_I2C_INT.c ****             */
 574:Generated_Source\PSoC4/I2C_I2C_INT.c ****         #if (I2C_I2C_CUSTOM_ADDRESS_HANDLER_CONST)
 575:Generated_Source\PSoC4/I2C_I2C_INT.c ****             if (I2C_CHECK_INTR_SLAVE_MASKED(I2C_INTR_SLAVE_I2C_ADDR_MATCH |
 576:Generated_Source\PSoC4/I2C_I2C_INT.c ****                                                          I2C_INTR_SLAVE_I2C_GENERAL))
 577:Generated_Source\PSoC4/I2C_I2C_INT.c ****         #else
 578:Generated_Source\PSoC4/I2C_I2C_INT.c ****             if (I2C_CHECK_INTR_SLAVE_MASKED(I2C_INTR_SLAVE_I2C_ADDR_MATCH))
 579:Generated_Source\PSoC4/I2C_I2C_INT.c ****         #endif /* (I2C_I2C_CUSTOM_ADDRESS_HANDLER_CONST) */
 580:Generated_Source\PSoC4/I2C_I2C_INT.c ****             {
 581:Generated_Source\PSoC4/I2C_I2C_INT.c ****                 /* Clear externally clocked address match interrupt source when internally clocked 
 582:Generated_Source\PSoC4/I2C_I2C_INT.c ****                 I2C_ClearI2CExtClkInterruptSource(I2C_INTR_I2C_EC_WAKE_UP);
 583:Generated_Source\PSoC4/I2C_I2C_INT.c **** 
ARM GAS  C:\Users\EDULU~1.DES\AppData\Local\Temp\cc01kXrk.s 			page 25


 584:Generated_Source\PSoC4/I2C_I2C_INT.c ****                 #if (I2C_I2C_CUSTOM_ADDRESS_HANDLER)
 585:Generated_Source\PSoC4/I2C_I2C_INT.c ****                 {
 586:Generated_Source\PSoC4/I2C_I2C_INT.c ****                     if (NULL != I2C_customAddressHandler)
 587:Generated_Source\PSoC4/I2C_I2C_INT.c ****                     {
 588:Generated_Source\PSoC4/I2C_I2C_INT.c ****                         /* Call custom address handler */
 589:Generated_Source\PSoC4/I2C_I2C_INT.c ****                         response = I2C_customAddressHandler();
 590:Generated_Source\PSoC4/I2C_I2C_INT.c ****                     }
 591:Generated_Source\PSoC4/I2C_I2C_INT.c ****                     else
 592:Generated_Source\PSoC4/I2C_I2C_INT.c ****                     {
 593:Generated_Source\PSoC4/I2C_I2C_INT.c ****                         /* Read address from the RX FIFO. If there is no address underflow triggers
 594:Generated_Source\PSoC4/I2C_I2C_INT.c ****                         * component does not use that source. */
 595:Generated_Source\PSoC4/I2C_I2C_INT.c ****                         (void) I2C_RX_FIFO_RD_REG;
 596:Generated_Source\PSoC4/I2C_I2C_INT.c ****                         response = I2C_I2C_ACK_ADDR;
 597:Generated_Source\PSoC4/I2C_I2C_INT.c ****                     }
 598:Generated_Source\PSoC4/I2C_I2C_INT.c **** 
 599:Generated_Source\PSoC4/I2C_I2C_INT.c ****                     /* Clears RX sources after address was received in the RX FIFO */
 600:Generated_Source\PSoC4/I2C_I2C_INT.c ****                     I2C_ClearRxInterruptSource(I2C_INTR_RX_ALL);
 601:Generated_Source\PSoC4/I2C_I2C_INT.c ****                 }
 602:Generated_Source\PSoC4/I2C_I2C_INT.c ****                 #endif
 603:Generated_Source\PSoC4/I2C_I2C_INT.c **** 
 604:Generated_Source\PSoC4/I2C_I2C_INT.c ****             #if (I2C_I2C_CUSTOM_ADDRESS_HANDLER_CONST)
 605:Generated_Source\PSoC4/I2C_I2C_INT.c ****                 if (response == I2C_I2C_NAK_ADDR)
 606:Generated_Source\PSoC4/I2C_I2C_INT.c ****                 {
 607:Generated_Source\PSoC4/I2C_I2C_INT.c ****                 #if (!I2C_CY_SCBIP_V0)
 608:Generated_Source\PSoC4/I2C_I2C_INT.c ****                     /* Disable write stop interrupt source as it triggers after address was NACKed.
 609:Generated_Source\PSoC4/I2C_I2C_INT.c ****                     I2C_DISABLE_INTR_SLAVE(I2C_INTR_SLAVE_I2C_WRITE_STOP);
 610:Generated_Source\PSoC4/I2C_I2C_INT.c ****                 #endif /* (!I2C_CY_SCBIP_V0) */
 611:Generated_Source\PSoC4/I2C_I2C_INT.c **** 
 612:Generated_Source\PSoC4/I2C_I2C_INT.c ****                     /* Clear address match and stop history */
 613:Generated_Source\PSoC4/I2C_I2C_INT.c ****                     I2C_ClearSlaveInterruptSource(I2C_INTR_SLAVE_ALL);
 614:Generated_Source\PSoC4/I2C_I2C_INT.c **** 
 615:Generated_Source\PSoC4/I2C_I2C_INT.c ****                     /* ACK the address byte */
 616:Generated_Source\PSoC4/I2C_I2C_INT.c ****                     I2C_I2C_SLAVE_GENERATE_NACK;
 617:Generated_Source\PSoC4/I2C_I2C_INT.c ****                 }
 618:Generated_Source\PSoC4/I2C_I2C_INT.c ****                 else
 619:Generated_Source\PSoC4/I2C_I2C_INT.c ****             #endif /* (I2C_I2C_CUSTOM_ADDRESS_HANDLER_CONST) */
 620:Generated_Source\PSoC4/I2C_I2C_INT.c ****                 {
 621:Generated_Source\PSoC4/I2C_I2C_INT.c ****                     if(I2C_CHECK_I2C_STATUS(I2C_I2C_STATUS_S_READ))
 622:Generated_Source\PSoC4/I2C_I2C_INT.c ****                     /* TX direction: master reads from slave */
 623:Generated_Source\PSoC4/I2C_I2C_INT.c ****                     {
 624:Generated_Source\PSoC4/I2C_I2C_INT.c ****                         I2C_SetTxInterruptMode(I2C_INTR_TX_EMPTY);
 625:Generated_Source\PSoC4/I2C_I2C_INT.c **** 
 626:Generated_Source\PSoC4/I2C_I2C_INT.c ****                         /* Set temporary index to address buffer clear from API */
 627:Generated_Source\PSoC4/I2C_I2C_INT.c ****                         I2C_slRdBufIndexTmp = I2C_slRdBufIndex;
 628:Generated_Source\PSoC4/I2C_I2C_INT.c **** 
 629:Generated_Source\PSoC4/I2C_I2C_INT.c ****                         /* Start master reading */
 630:Generated_Source\PSoC4/I2C_I2C_INT.c ****                         I2C_slStatus |= (uint8) I2C_I2C_SSTAT_RD_BUSY;
 631:Generated_Source\PSoC4/I2C_I2C_INT.c ****                         I2C_state     = I2C_I2C_FSM_SL_RD;
 632:Generated_Source\PSoC4/I2C_I2C_INT.c ****                     }
 633:Generated_Source\PSoC4/I2C_I2C_INT.c ****                     else
 634:Generated_Source\PSoC4/I2C_I2C_INT.c ****                     /* RX direction: master writes into slave */
 635:Generated_Source\PSoC4/I2C_I2C_INT.c ****                     {
 636:Generated_Source\PSoC4/I2C_I2C_INT.c ****                         /* Calculate available buffer size */
 637:Generated_Source\PSoC4/I2C_I2C_INT.c ****                         diffCount = (I2C_slWrBufSize - I2C_slWrBufIndex);
 638:Generated_Source\PSoC4/I2C_I2C_INT.c **** 
 639:Generated_Source\PSoC4/I2C_I2C_INT.c ****                     #if (I2C_CY_SCBIP_V0)
 640:Generated_Source\PSoC4/I2C_I2C_INT.c ****                         if(diffCount < I2C_I2C_FIFO_SIZE)
ARM GAS  C:\Users\EDULU~1.DES\AppData\Local\Temp\cc01kXrk.s 			page 26


 641:Generated_Source\PSoC4/I2C_I2C_INT.c ****                         /* Receive data: byte-by-byte */
 642:Generated_Source\PSoC4/I2C_I2C_INT.c ****                         {
 643:Generated_Source\PSoC4/I2C_I2C_INT.c ****                             I2C_SetRxInterruptMode(I2C_INTR_RX_NOT_EMPTY);
 644:Generated_Source\PSoC4/I2C_I2C_INT.c ****                         }
 645:Generated_Source\PSoC4/I2C_I2C_INT.c ****                         else
 646:Generated_Source\PSoC4/I2C_I2C_INT.c ****                         /* Receive data: into RX FIFO */
 647:Generated_Source\PSoC4/I2C_I2C_INT.c ****                         {
 648:Generated_Source\PSoC4/I2C_I2C_INT.c ****                             if(diffCount == I2C_I2C_FIFO_SIZE)
 649:Generated_Source\PSoC4/I2C_I2C_INT.c ****                             {
 650:Generated_Source\PSoC4/I2C_I2C_INT.c ****                                 /* NACK when RX FIFO become FULL */
 651:Generated_Source\PSoC4/I2C_I2C_INT.c ****                                 I2C_ENABLE_SLAVE_AUTO_DATA;
 652:Generated_Source\PSoC4/I2C_I2C_INT.c ****                             }
 653:Generated_Source\PSoC4/I2C_I2C_INT.c ****                             else
 654:Generated_Source\PSoC4/I2C_I2C_INT.c ****                             {
 655:Generated_Source\PSoC4/I2C_I2C_INT.c ****                                 /* Stretch clock when RX FIFO becomes FULL */
 656:Generated_Source\PSoC4/I2C_I2C_INT.c ****                                 I2C_ENABLE_SLAVE_AUTO_DATA_ACK;
 657:Generated_Source\PSoC4/I2C_I2C_INT.c ****                                 I2C_SetRxInterruptMode(I2C_INTR_RX_FULL);
 658:Generated_Source\PSoC4/I2C_I2C_INT.c ****                             }
 659:Generated_Source\PSoC4/I2C_I2C_INT.c ****                         }
 660:Generated_Source\PSoC4/I2C_I2C_INT.c **** 
 661:Generated_Source\PSoC4/I2C_I2C_INT.c ****                     #else
 662:Generated_Source\PSoC4/I2C_I2C_INT.c ****                         #if(I2C_CHECK_I2C_ACCEPT_ADDRESS)
 663:Generated_Source\PSoC4/I2C_I2C_INT.c ****                         {
 664:Generated_Source\PSoC4/I2C_I2C_INT.c ****                             /* Enable RX.NOT_EMPTY interrupt source to receive byte by byte.
 665:Generated_Source\PSoC4/I2C_I2C_INT.c ****                             * The byte by byte receive is always chosen for the case when an addres
 666:Generated_Source\PSoC4/I2C_I2C_INT.c ****                             * in RX FIFO. Ticket ID#175559.
 667:Generated_Source\PSoC4/I2C_I2C_INT.c ****                             */
 668:Generated_Source\PSoC4/I2C_I2C_INT.c ****                             I2C_SetRxInterruptMode(I2C_INTR_RX_NOT_EMPTY);
 669:Generated_Source\PSoC4/I2C_I2C_INT.c ****                         }
 670:Generated_Source\PSoC4/I2C_I2C_INT.c ****                         #else
 671:Generated_Source\PSoC4/I2C_I2C_INT.c ****                         {
 672:Generated_Source\PSoC4/I2C_I2C_INT.c ****                             if(diffCount < I2C_I2C_FIFO_SIZE)
 673:Generated_Source\PSoC4/I2C_I2C_INT.c ****                             /* Receive data: byte-by-byte */
 674:Generated_Source\PSoC4/I2C_I2C_INT.c ****                             {
 675:Generated_Source\PSoC4/I2C_I2C_INT.c ****                                 I2C_SetRxInterruptMode(I2C_INTR_RX_NOT_EMPTY);
 676:Generated_Source\PSoC4/I2C_I2C_INT.c ****                             }
 677:Generated_Source\PSoC4/I2C_I2C_INT.c ****                             else
 678:Generated_Source\PSoC4/I2C_I2C_INT.c ****                             /* Receive data: into RX FIFO */
 679:Generated_Source\PSoC4/I2C_I2C_INT.c ****                             {
 680:Generated_Source\PSoC4/I2C_I2C_INT.c ****                                 if(diffCount == I2C_I2C_FIFO_SIZE)
 681:Generated_Source\PSoC4/I2C_I2C_INT.c ****                                 {
 682:Generated_Source\PSoC4/I2C_I2C_INT.c ****                                     /* NACK when RX FIFO become FULL */
 683:Generated_Source\PSoC4/I2C_I2C_INT.c ****                                     I2C_ENABLE_SLAVE_AUTO_DATA;
 684:Generated_Source\PSoC4/I2C_I2C_INT.c ****                                 }
 685:Generated_Source\PSoC4/I2C_I2C_INT.c ****                                 else
 686:Generated_Source\PSoC4/I2C_I2C_INT.c ****                                 {
 687:Generated_Source\PSoC4/I2C_I2C_INT.c ****                                     /* Stretch clock when RX FIFO becomes FULL */
 688:Generated_Source\PSoC4/I2C_I2C_INT.c ****                                     I2C_ENABLE_SLAVE_AUTO_DATA_ACK;
 689:Generated_Source\PSoC4/I2C_I2C_INT.c ****                                     I2C_SetRxInterruptMode(I2C_INTR_RX_FULL);
 690:Generated_Source\PSoC4/I2C_I2C_INT.c ****                                 }
 691:Generated_Source\PSoC4/I2C_I2C_INT.c ****                             }
 692:Generated_Source\PSoC4/I2C_I2C_INT.c ****                         }
 693:Generated_Source\PSoC4/I2C_I2C_INT.c ****                         #endif
 694:Generated_Source\PSoC4/I2C_I2C_INT.c ****                     #endif /* (I2C_CY_SCBIP_V0) */
 695:Generated_Source\PSoC4/I2C_I2C_INT.c **** 
 696:Generated_Source\PSoC4/I2C_I2C_INT.c ****                         /* Start master reading */
 697:Generated_Source\PSoC4/I2C_I2C_INT.c ****                         I2C_slStatus |= (uint8) I2C_I2C_SSTAT_WR_BUSY;
ARM GAS  C:\Users\EDULU~1.DES\AppData\Local\Temp\cc01kXrk.s 			page 27


 698:Generated_Source\PSoC4/I2C_I2C_INT.c ****                         I2C_state     = I2C_I2C_FSM_SL_WR;
 699:Generated_Source\PSoC4/I2C_I2C_INT.c ****                     }
 700:Generated_Source\PSoC4/I2C_I2C_INT.c **** 
 701:Generated_Source\PSoC4/I2C_I2C_INT.c ****                     /* Clear address match and stop history */
 702:Generated_Source\PSoC4/I2C_I2C_INT.c ****                     I2C_ClearSlaveInterruptSource(I2C_INTR_SLAVE_ALL);
 703:Generated_Source\PSoC4/I2C_I2C_INT.c **** 
 704:Generated_Source\PSoC4/I2C_I2C_INT.c ****                 #if (!I2C_CY_SCBIP_V0)
 705:Generated_Source\PSoC4/I2C_I2C_INT.c ****                     /* Enable write stop interrupt source as it triggers after address was NACKed. 
 706:Generated_Source\PSoC4/I2C_I2C_INT.c ****                     I2C_ENABLE_INTR_SLAVE(I2C_INTR_SLAVE_I2C_WRITE_STOP);
 707:Generated_Source\PSoC4/I2C_I2C_INT.c ****                 #endif /* (!I2C_CY_SCBIP_V0) */
 708:Generated_Source\PSoC4/I2C_I2C_INT.c **** 
 709:Generated_Source\PSoC4/I2C_I2C_INT.c ****                     /* ACK the address byte */
 710:Generated_Source\PSoC4/I2C_I2C_INT.c ****                     I2C_I2C_SLAVE_GENERATE_ACK;
 711:Generated_Source\PSoC4/I2C_I2C_INT.c ****                 }
 712:Generated_Source\PSoC4/I2C_I2C_INT.c ****             }
 713:Generated_Source\PSoC4/I2C_I2C_INT.c **** 
 714:Generated_Source\PSoC4/I2C_I2C_INT.c ****             /* I2C_INTR_RX_FULL:
 715:Generated_Source\PSoC4/I2C_I2C_INT.c ****             * Get data from the RX FIFO and decide whether to ACK or NACK the following bytes
 716:Generated_Source\PSoC4/I2C_I2C_INT.c ****             */
 717:Generated_Source\PSoC4/I2C_I2C_INT.c ****             if(I2C_CHECK_INTR_RX_MASKED(I2C_INTR_RX_FULL))
 718:Generated_Source\PSoC4/I2C_I2C_INT.c ****             {
 719:Generated_Source\PSoC4/I2C_I2C_INT.c ****                 /* Calculate available buffer size to take into account that RX FIFO is FULL */
 720:Generated_Source\PSoC4/I2C_I2C_INT.c ****                 diffCount =  I2C_slWrBufSize -
 721:Generated_Source\PSoC4/I2C_I2C_INT.c ****                             (I2C_slWrBufIndex + I2C_I2C_FIFO_SIZE);
 722:Generated_Source\PSoC4/I2C_I2C_INT.c **** 
 723:Generated_Source\PSoC4/I2C_I2C_INT.c ****                 if(diffCount > I2C_I2C_FIFO_SIZE) /* Proceed transaction */
 724:Generated_Source\PSoC4/I2C_I2C_INT.c ****                 {
 725:Generated_Source\PSoC4/I2C_I2C_INT.c ****                     diffCount   = I2C_I2C_FIFO_SIZE;
 726:Generated_Source\PSoC4/I2C_I2C_INT.c ****                     endTransfer = 0u;  /* Continue active transfer */
 727:Generated_Source\PSoC4/I2C_I2C_INT.c ****                 }
 728:Generated_Source\PSoC4/I2C_I2C_INT.c ****                 else /* End when FIFO becomes FULL again */
 729:Generated_Source\PSoC4/I2C_I2C_INT.c ****                 {
 730:Generated_Source\PSoC4/I2C_I2C_INT.c ****                     endTransfer = I2C_I2C_CMPLT_ANY_TRANSFER;
 731:Generated_Source\PSoC4/I2C_I2C_INT.c ****                 }
 732:Generated_Source\PSoC4/I2C_I2C_INT.c **** 
 733:Generated_Source\PSoC4/I2C_I2C_INT.c ****                 for(; (0u != diffCount); diffCount--)
 734:Generated_Source\PSoC4/I2C_I2C_INT.c ****                 {
 735:Generated_Source\PSoC4/I2C_I2C_INT.c ****                     /* Put data in component buffer */
 736:Generated_Source\PSoC4/I2C_I2C_INT.c ****                     I2C_slWrBufPtr[I2C_slWrBufIndex] = (uint8) I2C_RX_FIFO_RD_REG;
 737:Generated_Source\PSoC4/I2C_I2C_INT.c ****                     I2C_slWrBufIndex++;
 738:Generated_Source\PSoC4/I2C_I2C_INT.c ****                 }
 739:Generated_Source\PSoC4/I2C_I2C_INT.c **** 
 740:Generated_Source\PSoC4/I2C_I2C_INT.c ****                 if(0u != endTransfer) /* End transfer sending NACK */
 741:Generated_Source\PSoC4/I2C_I2C_INT.c ****                 {
 742:Generated_Source\PSoC4/I2C_I2C_INT.c ****                     I2C_ENABLE_SLAVE_AUTO_DATA_NACK;
 743:Generated_Source\PSoC4/I2C_I2C_INT.c **** 
 744:Generated_Source\PSoC4/I2C_I2C_INT.c ****                     /* INTR_RX_FULL triggers earlier than INTR_SLAVE_I2C_STOP:
 745:Generated_Source\PSoC4/I2C_I2C_INT.c ****                     * disable all RX interrupt sources.
 746:Generated_Source\PSoC4/I2C_I2C_INT.c ****                     */
 747:Generated_Source\PSoC4/I2C_I2C_INT.c ****                     I2C_SetRxInterruptMode(I2C_NO_INTR_SOURCES);
 748:Generated_Source\PSoC4/I2C_I2C_INT.c ****                 }
 749:Generated_Source\PSoC4/I2C_I2C_INT.c **** 
 750:Generated_Source\PSoC4/I2C_I2C_INT.c ****                 I2C_ClearRxInterruptSource(I2C_INTR_RX_FULL);
 751:Generated_Source\PSoC4/I2C_I2C_INT.c ****             }
 752:Generated_Source\PSoC4/I2C_I2C_INT.c ****             /* I2C_INTR_RX_NOT_EMPTY:
 753:Generated_Source\PSoC4/I2C_I2C_INT.c ****             * The buffer size is less than 8: it requires processing in byte-by-byte mode.
 754:Generated_Source\PSoC4/I2C_I2C_INT.c ****             */
ARM GAS  C:\Users\EDULU~1.DES\AppData\Local\Temp\cc01kXrk.s 			page 28


 755:Generated_Source\PSoC4/I2C_I2C_INT.c ****             else if(I2C_CHECK_INTR_RX_MASKED(I2C_INTR_RX_NOT_EMPTY))
 756:Generated_Source\PSoC4/I2C_I2C_INT.c ****             {
 757:Generated_Source\PSoC4/I2C_I2C_INT.c ****                 diffCount = I2C_RX_FIFO_RD_REG;
 758:Generated_Source\PSoC4/I2C_I2C_INT.c **** 
 759:Generated_Source\PSoC4/I2C_I2C_INT.c ****                 if(I2C_slWrBufIndex < I2C_slWrBufSize)
 760:Generated_Source\PSoC4/I2C_I2C_INT.c ****                 {
 761:Generated_Source\PSoC4/I2C_I2C_INT.c ****                     I2C_I2C_SLAVE_GENERATE_ACK;
 762:Generated_Source\PSoC4/I2C_I2C_INT.c **** 
 763:Generated_Source\PSoC4/I2C_I2C_INT.c ****                     /* Put data into component buffer */
 764:Generated_Source\PSoC4/I2C_I2C_INT.c ****                     I2C_slWrBufPtr[I2C_slWrBufIndex] = (uint8) diffCount;
 765:Generated_Source\PSoC4/I2C_I2C_INT.c ****                     I2C_slWrBufIndex++;
 766:Generated_Source\PSoC4/I2C_I2C_INT.c ****                 }
 767:Generated_Source\PSoC4/I2C_I2C_INT.c ****                 else /* Overflow: there is no space in write buffer */
 768:Generated_Source\PSoC4/I2C_I2C_INT.c ****                 {
 769:Generated_Source\PSoC4/I2C_I2C_INT.c ****                     I2C_I2C_SLAVE_GENERATE_NACK;
 770:Generated_Source\PSoC4/I2C_I2C_INT.c **** 
 771:Generated_Source\PSoC4/I2C_I2C_INT.c ****                     I2C_slStatus |= (uint8) I2C_I2C_SSTAT_WR_OVFL;
 772:Generated_Source\PSoC4/I2C_I2C_INT.c ****                 }
 773:Generated_Source\PSoC4/I2C_I2C_INT.c **** 
 774:Generated_Source\PSoC4/I2C_I2C_INT.c ****                 I2C_ClearRxInterruptSource(I2C_INTR_RX_NOT_EMPTY);
 775:Generated_Source\PSoC4/I2C_I2C_INT.c ****             }
 776:Generated_Source\PSoC4/I2C_I2C_INT.c ****             else
 777:Generated_Source\PSoC4/I2C_I2C_INT.c ****             {
 778:Generated_Source\PSoC4/I2C_I2C_INT.c ****                 /* Does nothing */
 779:Generated_Source\PSoC4/I2C_I2C_INT.c ****             }
 780:Generated_Source\PSoC4/I2C_I2C_INT.c **** 
 781:Generated_Source\PSoC4/I2C_I2C_INT.c **** 
 782:Generated_Source\PSoC4/I2C_I2C_INT.c ****             /* I2C_INTR_TX_EMPTY:
 783:Generated_Source\PSoC4/I2C_I2C_INT.c ****             * The master reads the slave: provide data to read or 0xFF in the case of the end of th
 784:Generated_Source\PSoC4/I2C_I2C_INT.c ****             * The overflow condition must be captured, but not set until the end of transaction.
 785:Generated_Source\PSoC4/I2C_I2C_INT.c ****             * There is a possibility of a false overflow due to TX FIFO utilization.
 786:Generated_Source\PSoC4/I2C_I2C_INT.c ****             */
 787:Generated_Source\PSoC4/I2C_I2C_INT.c ****             if(I2C_CHECK_INTR_TX_MASKED(I2C_INTR_TX_EMPTY))
 788:Generated_Source\PSoC4/I2C_I2C_INT.c ****             {
 789:Generated_Source\PSoC4/I2C_I2C_INT.c ****                 while(I2C_I2C_FIFO_SIZE != I2C_GET_TX_FIFO_ENTRIES)
 790:Generated_Source\PSoC4/I2C_I2C_INT.c ****                 {
 791:Generated_Source\PSoC4/I2C_I2C_INT.c ****                     /* Temporary slRdBufIndexTmp is used because the master can NACK the byte and
 792:Generated_Source\PSoC4/I2C_I2C_INT.c ****                     * index roll-back is required in this case. The slRdBufIndex is updated at the 
 793:Generated_Source\PSoC4/I2C_I2C_INT.c ****                     * of the read transfer.
 794:Generated_Source\PSoC4/I2C_I2C_INT.c ****                     */
 795:Generated_Source\PSoC4/I2C_I2C_INT.c ****                     if(I2C_slRdBufIndexTmp < I2C_slRdBufSize)
 796:Generated_Source\PSoC4/I2C_I2C_INT.c ****                     /* Data from buffer */
 797:Generated_Source\PSoC4/I2C_I2C_INT.c ****                     {
 798:Generated_Source\PSoC4/I2C_I2C_INT.c ****                         I2C_TX_FIFO_WR_REG = (uint32) I2C_slRdBufPtr[I2C_slRdBufIndexTmp];
 799:Generated_Source\PSoC4/I2C_I2C_INT.c ****                         I2C_slRdBufIndexTmp++;
 800:Generated_Source\PSoC4/I2C_I2C_INT.c ****                     }
 801:Generated_Source\PSoC4/I2C_I2C_INT.c ****                     else
 802:Generated_Source\PSoC4/I2C_I2C_INT.c ****                     /* Probably Overflow */
 803:Generated_Source\PSoC4/I2C_I2C_INT.c ****                     {
 804:Generated_Source\PSoC4/I2C_I2C_INT.c ****                         I2C_TX_FIFO_WR_REG = I2C_I2C_SLAVE_OVFL_RETURN;
 805:Generated_Source\PSoC4/I2C_I2C_INT.c **** 
 806:Generated_Source\PSoC4/I2C_I2C_INT.c ****                         if(I2C_slOverFlowCount <= I2C_I2C_TX_OVERFLOW_COUNT)
 807:Generated_Source\PSoC4/I2C_I2C_INT.c ****                         {
 808:Generated_Source\PSoC4/I2C_I2C_INT.c ****                             /* Get counter in range of overflow. */
 809:Generated_Source\PSoC4/I2C_I2C_INT.c ****                             I2C_slOverFlowCount++;
 810:Generated_Source\PSoC4/I2C_I2C_INT.c ****                         }
 811:Generated_Source\PSoC4/I2C_I2C_INT.c ****                     }
ARM GAS  C:\Users\EDULU~1.DES\AppData\Local\Temp\cc01kXrk.s 			page 29


 812:Generated_Source\PSoC4/I2C_I2C_INT.c ****                 }
 813:Generated_Source\PSoC4/I2C_I2C_INT.c **** 
 814:Generated_Source\PSoC4/I2C_I2C_INT.c ****                 I2C_ClearTxInterruptSource(I2C_INTR_TX_EMPTY);
 815:Generated_Source\PSoC4/I2C_I2C_INT.c ****             }
 816:Generated_Source\PSoC4/I2C_I2C_INT.c **** 
 817:Generated_Source\PSoC4/I2C_I2C_INT.c ****         }  /* (I2C_I2C_SLAVE) */
 818:Generated_Source\PSoC4/I2C_I2C_INT.c ****         #endif
 819:Generated_Source\PSoC4/I2C_I2C_INT.c ****     }
 820:Generated_Source\PSoC4/I2C_I2C_INT.c **** 
 821:Generated_Source\PSoC4/I2C_I2C_INT.c **** 
 822:Generated_Source\PSoC4/I2C_I2C_INT.c ****     /* FSM EXIT:
 823:Generated_Source\PSoC4/I2C_I2C_INT.c ****     * Slave:  INTR_SLAVE_I2C_BUS_ERROR, INTR_SLAVE_I2C_ARB_LOST
 824:Generated_Source\PSoC4/I2C_I2C_INT.c ****     * Master: INTR_MASTER_I2C_BUS_ERROR, INTR_MASTER_I2C_ARB_LOST.
 825:Generated_Source\PSoC4/I2C_I2C_INT.c ****     */
 826:Generated_Source\PSoC4/I2C_I2C_INT.c ****     else
 827:Generated_Source\PSoC4/I2C_I2C_INT.c ****     {
 828:Generated_Source\PSoC4/I2C_I2C_INT.c ****         I2C_I2CFwBlockReset();
 829:Generated_Source\PSoC4/I2C_I2C_INT.c ****         
 830:Generated_Source\PSoC4/I2C_I2C_INT.c ****     #ifdef I2C_I2C_SLAVE_CMPLT_CALLBACK
 831:Generated_Source\PSoC4/I2C_I2C_INT.c ****         #if(I2C_I2C_SLAVE)
 832:Generated_Source\PSoC4/I2C_I2C_INT.c ****         {
 833:Generated_Source\PSoC4/I2C_I2C_INT.c ****             /* Error condition: read or write complete is set */
 834:Generated_Source\PSoC4/I2C_I2C_INT.c ****             I2C_I2C_SlaveCompleteCallback();
 835:Generated_Source\PSoC4/I2C_I2C_INT.c ****         }
 836:Generated_Source\PSoC4/I2C_I2C_INT.c ****         #endif
 837:Generated_Source\PSoC4/I2C_I2C_INT.c ****     #endif /* I2C_I2C_SLAVE_CMPLT_CALLBACK */
 838:Generated_Source\PSoC4/I2C_I2C_INT.c ****     }
 839:Generated_Source\PSoC4/I2C_I2C_INT.c **** 
 840:Generated_Source\PSoC4/I2C_I2C_INT.c **** #ifdef I2C_I2C_ISR_EXIT_CALLBACK
 841:Generated_Source\PSoC4/I2C_I2C_INT.c ****     I2C_I2C_ISR_ExitCallback();
 842:Generated_Source\PSoC4/I2C_I2C_INT.c **** #endif /* I2C_I2C_ISR_EXIT_CALLBACK */
 843:Generated_Source\PSoC4/I2C_I2C_INT.c **** 
 844:Generated_Source\PSoC4/I2C_I2C_INT.c **** }
 685              		.loc 1 844 1 view .LVU220
 686              		@ sp needed
 687 02bc 70BD     		pop	{r4, r5, r6, pc}
 688              	.LVL38:
 689              	.L44:
 828:Generated_Source\PSoC4/I2C_I2C_INT.c ****         
 690              		.loc 1 828 9 is_stmt 1 view .LVU221
 691 02be FFF7FEFF 		bl	I2C_I2CFwBlockReset
 692              	.LVL39:
 693              		.loc 1 844 1 is_stmt 0 view .LVU222
 694 02c2 FBE7     		b	.L1
 695              	.L46:
 696              		.align	2
 697              	.L45:
 698 02c4 00000000 		.word	I2C_customIntrHandler
 699 02c8 8C0E0640 		.word	1074138764
 700 02cc 880E0640 		.word	1074138760
 701 02d0 00000000 		.word	I2C_state
 702 02d4 0C0F0640 		.word	1074138892
 703 02d8 00000000 		.word	I2C_mstrStatus
 704 02dc 000F0640 		.word	1074138880
 705 02e0 CC0F0640 		.word	1074139084
 706 02e4 00000000 		.word	I2C_mstrRdBufSize
 707 02e8 08030640 		.word	1074135816
ARM GAS  C:\Users\EDULU~1.DES\AppData\Local\Temp\cc01kXrk.s 			page 30


 708 02ec 00000000 		.word	I2C_mstrRdBufIndex
 709 02f0 60000640 		.word	1074135136
 710 02f4 FFFEFFFF 		.word	-257
 711 02f8 00000000 		.word	I2C_mstrWrBufSize
 712 02fc 880F0640 		.word	1074139016
 713 0300 40030640 		.word	1074135872
 714 0304 00000000 		.word	I2C_mstrRdBufPtr
 715 0308 C00F0640 		.word	1074139072
 716 030c ED0F0000 		.word	4077
 717 0310 C80F0640 		.word	1074139080
 718 0314 00000000 		.word	I2C_mstrControl
 719 0318 68000640 		.word	1074135144
 720 031c 08020640 		.word	1074135560
 721 0320 00000000 		.word	I2C_mstrWrBufIndexTmp
 722 0324 00000000 		.word	I2C_mstrWrBufIndex
 723 0328 04020640 		.word	1074135556
 724 032c FFFFFEFF 		.word	-65537
 725 0330 8C0F0640 		.word	1074139020
 726 0334 00000000 		.word	I2C_mstrWrBufPtr
 727 0338 40020640 		.word	1074135616
 728 033c 800F0640 		.word	1074139008
 729 0340 F3070000 		.word	2035
 730 0344 64000640 		.word	1074135140
 731              		.cfi_endproc
 732              	.LFE0:
 733              		.size	I2C_I2C_ISR, .-I2C_I2C_ISR
 734              		.text
 735              	.Letext0:
 736              		.file 2 "Generated_Source\\PSoC4/cytypes.h"
 737              		.file 3 "c:\\program files (x86)\\gnu tools arm embedded\\8 2018-q4-major\\arm-none-eabi\\include\
 738              		.file 4 "c:\\program files (x86)\\gnu tools arm embedded\\8 2018-q4-major\\arm-none-eabi\\include\
 739              		.file 5 "c:\\program files (x86)\\gnu tools arm embedded\\8 2018-q4-major\\lib\\gcc\\arm-none-eabi
 740              		.file 6 "c:\\program files (x86)\\gnu tools arm embedded\\8 2018-q4-major\\arm-none-eabi\\include\
 741              		.file 7 "c:\\program files (x86)\\gnu tools arm embedded\\8 2018-q4-major\\arm-none-eabi\\include\
 742              		.file 8 "Generated_Source\\PSoC4/CyLib.h"
 743              		.file 9 "Generated_Source\\PSoC4\\I2C.h"
 744              		.file 10 "Generated_Source\\PSoC4\\I2C_PVT.h"
 745              		.file 11 "Generated_Source\\PSoC4\\I2C_I2C_PVT.h"