ARM GAS  C:\Users\EDULU~1.DES\AppData\Local\Temp\cc5CfZqg.s 			page 1


   1              		.cpu cortex-m0
   2              		.eabi_attribute 20, 1
   3              		.eabi_attribute 21, 1
   4              		.eabi_attribute 23, 3
   5              		.eabi_attribute 24, 1
   6              		.eabi_attribute 25, 1
   7              		.eabi_attribute 26, 1
   8              		.eabi_attribute 30, 1
   9              		.eabi_attribute 34, 0
  10              		.eabi_attribute 18, 4
  11              		.file	"I2C_scl.c"
  12              		.text
  13              	.Ltext0:
  14              		.cfi_sections	.debug_frame
  15              		.section	.text.I2C_scl_SetDriveMode,"ax",%progbits
  16              		.align	1
  17              		.global	I2C_scl_SetDriveMode
  18              		.arch armv6s-m
  19              		.syntax unified
  20              		.code	16
  21              		.thumb_func
  22              		.fpu softvfp
  23              		.type	I2C_scl_SetDriveMode, %function
  24              	I2C_scl_SetDriveMode:
  25              	.LVL0:
  26              	.LFB0:
  27              		.file 1 "Generated_Source\\PSoC4\\I2C_scl.c"
   1:Generated_Source\PSoC4/I2C_scl.c **** /*******************************************************************************
   2:Generated_Source\PSoC4/I2C_scl.c **** * File Name: I2C_scl.c  
   3:Generated_Source\PSoC4/I2C_scl.c **** * Version 2.20
   4:Generated_Source\PSoC4/I2C_scl.c **** *
   5:Generated_Source\PSoC4/I2C_scl.c **** * Description:
   6:Generated_Source\PSoC4/I2C_scl.c **** *  This file contains API to enable firmware control of a Pins component.
   7:Generated_Source\PSoC4/I2C_scl.c **** *
   8:Generated_Source\PSoC4/I2C_scl.c **** ********************************************************************************
   9:Generated_Source\PSoC4/I2C_scl.c **** * Copyright 2008-2015, Cypress Semiconductor Corporation.  All rights reserved.
  10:Generated_Source\PSoC4/I2C_scl.c **** * You may use this file only in accordance with the license, terms, conditions, 
  11:Generated_Source\PSoC4/I2C_scl.c **** * disclaimers, and limitations in the end user license agreement accompanying 
  12:Generated_Source\PSoC4/I2C_scl.c **** * the software package with which this file was provided.
  13:Generated_Source\PSoC4/I2C_scl.c **** *******************************************************************************/
  14:Generated_Source\PSoC4/I2C_scl.c **** 
  15:Generated_Source\PSoC4/I2C_scl.c **** #include "cytypes.h"
  16:Generated_Source\PSoC4/I2C_scl.c **** #include "I2C_scl.h"
  17:Generated_Source\PSoC4/I2C_scl.c **** 
  18:Generated_Source\PSoC4/I2C_scl.c **** 
  19:Generated_Source\PSoC4/I2C_scl.c **** #if defined(I2C_scl__PC)
  20:Generated_Source\PSoC4/I2C_scl.c ****     #define I2C_scl_SetP4PinDriveMode(shift, mode)  \
  21:Generated_Source\PSoC4/I2C_scl.c ****     do { \
  22:Generated_Source\PSoC4/I2C_scl.c ****         I2C_scl_PC =   (I2C_scl_PC & \
  23:Generated_Source\PSoC4/I2C_scl.c ****                                 (uint32)(~(uint32)(I2C_scl_DRIVE_MODE_IND_MASK << \
  24:Generated_Source\PSoC4/I2C_scl.c ****                                 (I2C_scl_DRIVE_MODE_BITS * (shift))))) | \
  25:Generated_Source\PSoC4/I2C_scl.c ****                                 (uint32)((uint32)(mode) << \
  26:Generated_Source\PSoC4/I2C_scl.c ****                                 (I2C_scl_DRIVE_MODE_BITS * (shift))); \
  27:Generated_Source\PSoC4/I2C_scl.c ****     } while (0)
  28:Generated_Source\PSoC4/I2C_scl.c **** #else
  29:Generated_Source\PSoC4/I2C_scl.c ****     #if (CY_PSOC4_4200L)
  30:Generated_Source\PSoC4/I2C_scl.c ****         #define I2C_scl_SetP4PinDriveMode(shift, mode)  \
ARM GAS  C:\Users\EDULU~1.DES\AppData\Local\Temp\cc5CfZqg.s 			page 2


  31:Generated_Source\PSoC4/I2C_scl.c ****         do { \
  32:Generated_Source\PSoC4/I2C_scl.c ****             I2C_scl_USBIO_CTRL_REG = (I2C_scl_USBIO_CTRL_REG & \
  33:Generated_Source\PSoC4/I2C_scl.c ****                                     (uint32)(~(uint32)(I2C_scl_DRIVE_MODE_IND_MASK << \
  34:Generated_Source\PSoC4/I2C_scl.c ****                                     (I2C_scl_DRIVE_MODE_BITS * (shift))))) | \
  35:Generated_Source\PSoC4/I2C_scl.c ****                                     (uint32)((uint32)(mode) << \
  36:Generated_Source\PSoC4/I2C_scl.c ****                                     (I2C_scl_DRIVE_MODE_BITS * (shift))); \
  37:Generated_Source\PSoC4/I2C_scl.c ****         } while (0)
  38:Generated_Source\PSoC4/I2C_scl.c ****     #endif
  39:Generated_Source\PSoC4/I2C_scl.c **** #endif
  40:Generated_Source\PSoC4/I2C_scl.c ****   
  41:Generated_Source\PSoC4/I2C_scl.c **** 
  42:Generated_Source\PSoC4/I2C_scl.c **** #if defined(I2C_scl__PC) || (CY_PSOC4_4200L) 
  43:Generated_Source\PSoC4/I2C_scl.c ****     /*******************************************************************************
  44:Generated_Source\PSoC4/I2C_scl.c ****     * Function Name: I2C_scl_SetDriveMode
  45:Generated_Source\PSoC4/I2C_scl.c ****     ****************************************************************************//**
  46:Generated_Source\PSoC4/I2C_scl.c ****     *
  47:Generated_Source\PSoC4/I2C_scl.c ****     * \brief Sets the drive mode for each of the Pins component's pins.
  48:Generated_Source\PSoC4/I2C_scl.c ****     * 
  49:Generated_Source\PSoC4/I2C_scl.c ****     * <b>Note</b> This affects all pins in the Pins component instance. Use the
  50:Generated_Source\PSoC4/I2C_scl.c ****     * Per-Pin APIs if you wish to control individual pin's drive modes.
  51:Generated_Source\PSoC4/I2C_scl.c ****     *
  52:Generated_Source\PSoC4/I2C_scl.c ****     * <b>Note</b> USBIOs have limited drive functionality. Refer to the Drive Mode
  53:Generated_Source\PSoC4/I2C_scl.c ****     * parameter for more information.
  54:Generated_Source\PSoC4/I2C_scl.c ****     *
  55:Generated_Source\PSoC4/I2C_scl.c ****     * \param mode
  56:Generated_Source\PSoC4/I2C_scl.c ****     *  Mode for the selected signals. Valid options are documented in 
  57:Generated_Source\PSoC4/I2C_scl.c ****     *  \ref driveMode.
  58:Generated_Source\PSoC4/I2C_scl.c ****     *
  59:Generated_Source\PSoC4/I2C_scl.c ****     * \return
  60:Generated_Source\PSoC4/I2C_scl.c ****     *  None
  61:Generated_Source\PSoC4/I2C_scl.c ****     *
  62:Generated_Source\PSoC4/I2C_scl.c ****     * \sideeffect
  63:Generated_Source\PSoC4/I2C_scl.c ****     *  If you use read-modify-write operations that are not atomic, the ISR can
  64:Generated_Source\PSoC4/I2C_scl.c ****     *  cause corruption of this function. An ISR that interrupts this function 
  65:Generated_Source\PSoC4/I2C_scl.c ****     *  and performs writes to the Pins component Drive Mode registers can cause 
  66:Generated_Source\PSoC4/I2C_scl.c ****     *  corrupted port data. To avoid this issue, you should either use the Per-Pin
  67:Generated_Source\PSoC4/I2C_scl.c ****     *  APIs (primary method) or disable interrupts around this function.
  68:Generated_Source\PSoC4/I2C_scl.c ****     *
  69:Generated_Source\PSoC4/I2C_scl.c ****     * \funcusage
  70:Generated_Source\PSoC4/I2C_scl.c ****     *  \snippet I2C_scl_SUT.c usage_I2C_scl_SetDriveMode
  71:Generated_Source\PSoC4/I2C_scl.c ****     *******************************************************************************/
  72:Generated_Source\PSoC4/I2C_scl.c ****     void I2C_scl_SetDriveMode(uint8 mode)
  73:Generated_Source\PSoC4/I2C_scl.c ****     {
  28              		.loc 1 73 5 view -0
  29              		.cfi_startproc
  30              		@ args = 0, pretend = 0, frame = 0
  31              		@ frame_needed = 0, uses_anonymous_args = 0
  32              		@ link register save eliminated.
  74:Generated_Source\PSoC4/I2C_scl.c **** 		I2C_scl_SetP4PinDriveMode(I2C_scl__0__SHIFT, mode);
  33              		.loc 1 74 3 view .LVU1
  34              		.loc 1 74 3 view .LVU2
  35 0000 034A     		ldr	r2, .L2
  36 0002 1368     		ldr	r3, [r2]
  37 0004 0721     		movs	r1, #7
  38 0006 8B43     		bics	r3, r1
  39 0008 0343     		orrs	r3, r0
  40 000a 1360     		str	r3, [r2]
ARM GAS  C:\Users\EDULU~1.DES\AppData\Local\Temp\cc5CfZqg.s 			page 3


  75:Generated_Source\PSoC4/I2C_scl.c ****     }
  41              		.loc 1 75 5 is_stmt 0 view .LVU3
  42              		@ sp needed
  43 000c 7047     		bx	lr
  44              	.L3:
  45 000e C046     		.align	2
  46              	.L2:
  47 0010 08040440 		.word	1074005000
  48              		.cfi_endproc
  49              	.LFE0:
  50              		.size	I2C_scl_SetDriveMode, .-I2C_scl_SetDriveMode
  51              		.section	.text.I2C_scl_Write,"ax",%progbits
  52              		.align	1
  53              		.global	I2C_scl_Write
  54              		.syntax unified
  55              		.code	16
  56              		.thumb_func
  57              		.fpu softvfp
  58              		.type	I2C_scl_Write, %function
  59              	I2C_scl_Write:
  60              	.LVL1:
  61              	.LFB1:
  76:Generated_Source\PSoC4/I2C_scl.c **** #endif
  77:Generated_Source\PSoC4/I2C_scl.c **** 
  78:Generated_Source\PSoC4/I2C_scl.c **** 
  79:Generated_Source\PSoC4/I2C_scl.c **** /*******************************************************************************
  80:Generated_Source\PSoC4/I2C_scl.c **** * Function Name: I2C_scl_Write
  81:Generated_Source\PSoC4/I2C_scl.c **** ****************************************************************************//**
  82:Generated_Source\PSoC4/I2C_scl.c **** *
  83:Generated_Source\PSoC4/I2C_scl.c **** * \brief Writes the value to the physical port (data output register), masking
  84:Generated_Source\PSoC4/I2C_scl.c **** *  and shifting the bits appropriately. 
  85:Generated_Source\PSoC4/I2C_scl.c **** *
  86:Generated_Source\PSoC4/I2C_scl.c **** * The data output register controls the signal applied to the physical pin in 
  87:Generated_Source\PSoC4/I2C_scl.c **** * conjunction with the drive mode parameter. This function avoids changing 
  88:Generated_Source\PSoC4/I2C_scl.c **** * other bits in the port by using the appropriate method (read-modify-write or
  89:Generated_Source\PSoC4/I2C_scl.c **** * bit banding).
  90:Generated_Source\PSoC4/I2C_scl.c **** *
  91:Generated_Source\PSoC4/I2C_scl.c **** * <b>Note</b> This function should not be used on a hardware digital output pin 
  92:Generated_Source\PSoC4/I2C_scl.c **** * as it is driven by the hardware signal attached to it.
  93:Generated_Source\PSoC4/I2C_scl.c **** *
  94:Generated_Source\PSoC4/I2C_scl.c **** * \param value
  95:Generated_Source\PSoC4/I2C_scl.c **** *  Value to write to the component instance.
  96:Generated_Source\PSoC4/I2C_scl.c **** *
  97:Generated_Source\PSoC4/I2C_scl.c **** * \return 
  98:Generated_Source\PSoC4/I2C_scl.c **** *  None 
  99:Generated_Source\PSoC4/I2C_scl.c **** *
 100:Generated_Source\PSoC4/I2C_scl.c **** * \sideeffect
 101:Generated_Source\PSoC4/I2C_scl.c **** *  If you use read-modify-write operations that are not atomic; the Interrupt 
 102:Generated_Source\PSoC4/I2C_scl.c **** *  Service Routines (ISR) can cause corruption of this function. An ISR that 
 103:Generated_Source\PSoC4/I2C_scl.c **** *  interrupts this function and performs writes to the Pins component data 
 104:Generated_Source\PSoC4/I2C_scl.c **** *  register can cause corrupted port data. To avoid this issue, you should 
 105:Generated_Source\PSoC4/I2C_scl.c **** *  either use the Per-Pin APIs (primary method) or disable interrupts around 
 106:Generated_Source\PSoC4/I2C_scl.c **** *  this function.
 107:Generated_Source\PSoC4/I2C_scl.c **** *
 108:Generated_Source\PSoC4/I2C_scl.c **** * \funcusage
 109:Generated_Source\PSoC4/I2C_scl.c **** *  \snippet I2C_scl_SUT.c usage_I2C_scl_Write
 110:Generated_Source\PSoC4/I2C_scl.c **** *******************************************************************************/
ARM GAS  C:\Users\EDULU~1.DES\AppData\Local\Temp\cc5CfZqg.s 			page 4


 111:Generated_Source\PSoC4/I2C_scl.c **** void I2C_scl_Write(uint8 value)
 112:Generated_Source\PSoC4/I2C_scl.c **** {
  62              		.loc 1 112 1 is_stmt 1 view -0
  63              		.cfi_startproc
  64              		@ args = 0, pretend = 0, frame = 0
  65              		@ frame_needed = 0, uses_anonymous_args = 0
  66              		@ link register save eliminated.
 113:Generated_Source\PSoC4/I2C_scl.c ****     uint8 drVal = (uint8)(I2C_scl_DR & (uint8)(~I2C_scl_MASK));
  67              		.loc 1 113 5 view .LVU5
  68              		.loc 1 113 27 is_stmt 0 view .LVU6
  69 0000 0449     		ldr	r1, .L5
  70 0002 0A68     		ldr	r2, [r1]
  71              		.loc 1 113 19 view .LVU7
  72 0004 D2B2     		uxtb	r2, r2
  73              		.loc 1 113 11 view .LVU8
  74 0006 0123     		movs	r3, #1
  75 0008 9A43     		bics	r2, r3
  76              	.LVL2:
 114:Generated_Source\PSoC4/I2C_scl.c ****     drVal = (drVal | ((uint8)(value << I2C_scl_SHIFT) & I2C_scl_MASK));
  77              		.loc 1 114 5 is_stmt 1 view .LVU9
  78              		.loc 1 114 55 is_stmt 0 view .LVU10
  79 000a 0340     		ands	r3, r0
  80              		.loc 1 114 11 view .LVU11
  81 000c 1343     		orrs	r3, r2
  82              	.LVL3:
 115:Generated_Source\PSoC4/I2C_scl.c ****     I2C_scl_DR = (uint32)drVal;
  83              		.loc 1 115 5 is_stmt 1 view .LVU12
  84              		.loc 1 115 16 is_stmt 0 view .LVU13
  85 000e 0B60     		str	r3, [r1]
 116:Generated_Source\PSoC4/I2C_scl.c **** }
  86              		.loc 1 116 1 view .LVU14
  87              		@ sp needed
  88 0010 7047     		bx	lr
  89              	.L6:
  90 0012 C046     		.align	2
  91              	.L5:
  92 0014 00040440 		.word	1074004992
  93              		.cfi_endproc
  94              	.LFE1:
  95              		.size	I2C_scl_Write, .-I2C_scl_Write
  96              		.section	.text.I2C_scl_Read,"ax",%progbits
  97              		.align	1
  98              		.global	I2C_scl_Read
  99              		.syntax unified
 100              		.code	16
 101              		.thumb_func
 102              		.fpu softvfp
 103              		.type	I2C_scl_Read, %function
 104              	I2C_scl_Read:
 105              	.LFB2:
 117:Generated_Source\PSoC4/I2C_scl.c **** 
 118:Generated_Source\PSoC4/I2C_scl.c **** 
 119:Generated_Source\PSoC4/I2C_scl.c **** /*******************************************************************************
 120:Generated_Source\PSoC4/I2C_scl.c **** * Function Name: I2C_scl_Read
 121:Generated_Source\PSoC4/I2C_scl.c **** ****************************************************************************//**
 122:Generated_Source\PSoC4/I2C_scl.c **** *
 123:Generated_Source\PSoC4/I2C_scl.c **** * \brief Reads the associated physical port (pin status register) and masks 
ARM GAS  C:\Users\EDULU~1.DES\AppData\Local\Temp\cc5CfZqg.s 			page 5


 124:Generated_Source\PSoC4/I2C_scl.c **** *  the required bits according to the width and bit position of the component
 125:Generated_Source\PSoC4/I2C_scl.c **** *  instance. 
 126:Generated_Source\PSoC4/I2C_scl.c **** *
 127:Generated_Source\PSoC4/I2C_scl.c **** * The pin's status register returns the current logic level present on the 
 128:Generated_Source\PSoC4/I2C_scl.c **** * physical pin.
 129:Generated_Source\PSoC4/I2C_scl.c **** *
 130:Generated_Source\PSoC4/I2C_scl.c **** * \return 
 131:Generated_Source\PSoC4/I2C_scl.c **** *  The current value for the pins in the component as a right justified number.
 132:Generated_Source\PSoC4/I2C_scl.c **** *
 133:Generated_Source\PSoC4/I2C_scl.c **** * \funcusage
 134:Generated_Source\PSoC4/I2C_scl.c **** *  \snippet I2C_scl_SUT.c usage_I2C_scl_Read  
 135:Generated_Source\PSoC4/I2C_scl.c **** *******************************************************************************/
 136:Generated_Source\PSoC4/I2C_scl.c **** uint8 I2C_scl_Read(void)
 137:Generated_Source\PSoC4/I2C_scl.c **** {
 106              		.loc 1 137 1 is_stmt 1 view -0
 107              		.cfi_startproc
 108              		@ args = 0, pretend = 0, frame = 0
 109              		@ frame_needed = 0, uses_anonymous_args = 0
 110              		@ link register save eliminated.
 138:Generated_Source\PSoC4/I2C_scl.c ****     return (uint8)((I2C_scl_PS & I2C_scl_MASK) >> I2C_scl_SHIFT);
 111              		.loc 1 138 5 view .LVU16
 112              		.loc 1 138 21 is_stmt 0 view .LVU17
 113 0000 024B     		ldr	r3, .L8
 114 0002 1B68     		ldr	r3, [r3]
 115              		.loc 1 138 12 view .LVU18
 116 0004 0120     		movs	r0, #1
 117 0006 1840     		ands	r0, r3
 139:Generated_Source\PSoC4/I2C_scl.c **** }
 118              		.loc 1 139 1 view .LVU19
 119              		@ sp needed
 120 0008 7047     		bx	lr
 121              	.L9:
 122 000a C046     		.align	2
 123              	.L8:
 124 000c 04040440 		.word	1074004996
 125              		.cfi_endproc
 126              	.LFE2:
 127              		.size	I2C_scl_Read, .-I2C_scl_Read
 128              		.section	.text.I2C_scl_ReadDataReg,"ax",%progbits
 129              		.align	1
 130              		.global	I2C_scl_ReadDataReg
 131              		.syntax unified
 132              		.code	16
 133              		.thumb_func
 134              		.fpu softvfp
 135              		.type	I2C_scl_ReadDataReg, %function
 136              	I2C_scl_ReadDataReg:
 137              	.LFB3:
 140:Generated_Source\PSoC4/I2C_scl.c **** 
 141:Generated_Source\PSoC4/I2C_scl.c **** 
 142:Generated_Source\PSoC4/I2C_scl.c **** /*******************************************************************************
 143:Generated_Source\PSoC4/I2C_scl.c **** * Function Name: I2C_scl_ReadDataReg
 144:Generated_Source\PSoC4/I2C_scl.c **** ****************************************************************************//**
 145:Generated_Source\PSoC4/I2C_scl.c **** *
 146:Generated_Source\PSoC4/I2C_scl.c **** * \brief Reads the associated physical port's data output register and masks 
 147:Generated_Source\PSoC4/I2C_scl.c **** *  the correct bits according to the width and bit position of the component 
 148:Generated_Source\PSoC4/I2C_scl.c **** *  instance. 
ARM GAS  C:\Users\EDULU~1.DES\AppData\Local\Temp\cc5CfZqg.s 			page 6


 149:Generated_Source\PSoC4/I2C_scl.c **** *
 150:Generated_Source\PSoC4/I2C_scl.c **** * The data output register controls the signal applied to the physical pin in 
 151:Generated_Source\PSoC4/I2C_scl.c **** * conjunction with the drive mode parameter. This is not the same as the 
 152:Generated_Source\PSoC4/I2C_scl.c **** * preferred I2C_scl_Read() API because the 
 153:Generated_Source\PSoC4/I2C_scl.c **** * I2C_scl_ReadDataReg() reads the data register instead of the status 
 154:Generated_Source\PSoC4/I2C_scl.c **** * register. For output pins this is a useful function to determine the value 
 155:Generated_Source\PSoC4/I2C_scl.c **** * just written to the pin.
 156:Generated_Source\PSoC4/I2C_scl.c **** *
 157:Generated_Source\PSoC4/I2C_scl.c **** * \return 
 158:Generated_Source\PSoC4/I2C_scl.c **** *  The current value of the data register masked and shifted into a right 
 159:Generated_Source\PSoC4/I2C_scl.c **** *  justified number for the component instance.
 160:Generated_Source\PSoC4/I2C_scl.c **** *
 161:Generated_Source\PSoC4/I2C_scl.c **** * \funcusage
 162:Generated_Source\PSoC4/I2C_scl.c **** *  \snippet I2C_scl_SUT.c usage_I2C_scl_ReadDataReg 
 163:Generated_Source\PSoC4/I2C_scl.c **** *******************************************************************************/
 164:Generated_Source\PSoC4/I2C_scl.c **** uint8 I2C_scl_ReadDataReg(void)
 165:Generated_Source\PSoC4/I2C_scl.c **** {
 138              		.loc 1 165 1 is_stmt 1 view -0
 139              		.cfi_startproc
 140              		@ args = 0, pretend = 0, frame = 0
 141              		@ frame_needed = 0, uses_anonymous_args = 0
 142              		@ link register save eliminated.
 166:Generated_Source\PSoC4/I2C_scl.c ****     return (uint8)((I2C_scl_DR & I2C_scl_MASK) >> I2C_scl_SHIFT);
 143              		.loc 1 166 5 view .LVU21
 144              		.loc 1 166 21 is_stmt 0 view .LVU22
 145 0000 024B     		ldr	r3, .L11
 146 0002 1B68     		ldr	r3, [r3]
 147              		.loc 1 166 12 view .LVU23
 148 0004 0120     		movs	r0, #1
 149 0006 1840     		ands	r0, r3
 167:Generated_Source\PSoC4/I2C_scl.c **** }
 150              		.loc 1 167 1 view .LVU24
 151              		@ sp needed
 152 0008 7047     		bx	lr
 153              	.L12:
 154 000a C046     		.align	2
 155              	.L11:
 156 000c 00040440 		.word	1074004992
 157              		.cfi_endproc
 158              	.LFE3:
 159              		.size	I2C_scl_ReadDataReg, .-I2C_scl_ReadDataReg
 160              		.section	.text.I2C_scl_SetInterruptMode,"ax",%progbits
 161              		.align	1
 162              		.global	I2C_scl_SetInterruptMode
 163              		.syntax unified
 164              		.code	16
 165              		.thumb_func
 166              		.fpu softvfp
 167              		.type	I2C_scl_SetInterruptMode, %function
 168              	I2C_scl_SetInterruptMode:
 169              	.LVL4:
 170              	.LFB4:
 168:Generated_Source\PSoC4/I2C_scl.c **** 
 169:Generated_Source\PSoC4/I2C_scl.c **** 
 170:Generated_Source\PSoC4/I2C_scl.c **** /*******************************************************************************
 171:Generated_Source\PSoC4/I2C_scl.c **** * Function Name: I2C_scl_SetInterruptMode
 172:Generated_Source\PSoC4/I2C_scl.c **** ****************************************************************************//**
ARM GAS  C:\Users\EDULU~1.DES\AppData\Local\Temp\cc5CfZqg.s 			page 7


 173:Generated_Source\PSoC4/I2C_scl.c **** *
 174:Generated_Source\PSoC4/I2C_scl.c **** * \brief Configures the interrupt mode for each of the Pins component's
 175:Generated_Source\PSoC4/I2C_scl.c **** *  pins. Alternatively you may set the interrupt mode for all the pins
 176:Generated_Source\PSoC4/I2C_scl.c **** *  specified in the Pins component.
 177:Generated_Source\PSoC4/I2C_scl.c **** *
 178:Generated_Source\PSoC4/I2C_scl.c **** *  <b>Note</b> The interrupt is port-wide and therefore any enabled pin
 179:Generated_Source\PSoC4/I2C_scl.c **** *  interrupt may trigger it.
 180:Generated_Source\PSoC4/I2C_scl.c **** *
 181:Generated_Source\PSoC4/I2C_scl.c **** * \param position
 182:Generated_Source\PSoC4/I2C_scl.c **** *  The pin position as listed in the Pins component. You may OR these to be 
 183:Generated_Source\PSoC4/I2C_scl.c **** *  able to configure the interrupt mode of multiple pins within a Pins 
 184:Generated_Source\PSoC4/I2C_scl.c **** *  component. Or you may use I2C_scl_INTR_ALL to configure the
 185:Generated_Source\PSoC4/I2C_scl.c **** *  interrupt mode of all the pins in the Pins component.       
 186:Generated_Source\PSoC4/I2C_scl.c **** *  - I2C_scl_0_INTR       (First pin in the list)
 187:Generated_Source\PSoC4/I2C_scl.c **** *  - I2C_scl_1_INTR       (Second pin in the list)
 188:Generated_Source\PSoC4/I2C_scl.c **** *  - ...
 189:Generated_Source\PSoC4/I2C_scl.c **** *  - I2C_scl_INTR_ALL     (All pins in Pins component)
 190:Generated_Source\PSoC4/I2C_scl.c **** *
 191:Generated_Source\PSoC4/I2C_scl.c **** * \param mode
 192:Generated_Source\PSoC4/I2C_scl.c **** *  Interrupt mode for the selected pins. Valid options are documented in
 193:Generated_Source\PSoC4/I2C_scl.c **** *  \ref intrMode.
 194:Generated_Source\PSoC4/I2C_scl.c **** *
 195:Generated_Source\PSoC4/I2C_scl.c **** * \return 
 196:Generated_Source\PSoC4/I2C_scl.c **** *  None
 197:Generated_Source\PSoC4/I2C_scl.c **** *  
 198:Generated_Source\PSoC4/I2C_scl.c **** * \sideeffect
 199:Generated_Source\PSoC4/I2C_scl.c **** *  It is recommended that the interrupt be disabled before calling this 
 200:Generated_Source\PSoC4/I2C_scl.c **** *  function to avoid unintended interrupt requests. Note that the interrupt
 201:Generated_Source\PSoC4/I2C_scl.c **** *  type is port wide, and therefore will trigger for any enabled pin on the 
 202:Generated_Source\PSoC4/I2C_scl.c **** *  port.
 203:Generated_Source\PSoC4/I2C_scl.c **** *
 204:Generated_Source\PSoC4/I2C_scl.c **** * \funcusage
 205:Generated_Source\PSoC4/I2C_scl.c **** *  \snippet I2C_scl_SUT.c usage_I2C_scl_SetInterruptMode
 206:Generated_Source\PSoC4/I2C_scl.c **** *******************************************************************************/
 207:Generated_Source\PSoC4/I2C_scl.c **** void I2C_scl_SetInterruptMode(uint16 position, uint16 mode)
 208:Generated_Source\PSoC4/I2C_scl.c **** {
 171              		.loc 1 208 1 is_stmt 1 view -0
 172              		.cfi_startproc
 173              		@ args = 0, pretend = 0, frame = 0
 174              		@ frame_needed = 0, uses_anonymous_args = 0
 175              		@ link register save eliminated.
 209:Generated_Source\PSoC4/I2C_scl.c ****     uint32 intrCfg;
 176              		.loc 1 209 5 view .LVU26
 210:Generated_Source\PSoC4/I2C_scl.c ****     
 211:Generated_Source\PSoC4/I2C_scl.c ****     intrCfg =  I2C_scl_INTCFG & (uint32)(~(uint32)position);
 177              		.loc 1 211 5 view .LVU27
 178              		.loc 1 211 16 is_stmt 0 view .LVU28
 179 0000 034A     		ldr	r2, .L14
 180 0002 1368     		ldr	r3, [r2]
 181              		.loc 1 211 13 view .LVU29
 182 0004 8343     		bics	r3, r0
 183              	.LVL5:
 212:Generated_Source\PSoC4/I2C_scl.c ****     I2C_scl_INTCFG = intrCfg | ((uint32)position & (uint32)mode);
 184              		.loc 1 212 5 is_stmt 1 view .LVU30
 185              		.loc 1 212 50 is_stmt 0 view .LVU31
 186 0006 0140     		ands	r1, r0
 187              	.LVL6:
ARM GAS  C:\Users\EDULU~1.DES\AppData\Local\Temp\cc5CfZqg.s 			page 8


 188              		.loc 1 212 30 view .LVU32
 189 0008 1943     		orrs	r1, r3
 190              		.loc 1 212 20 view .LVU33
 191 000a 1160     		str	r1, [r2]
 213:Generated_Source\PSoC4/I2C_scl.c **** }
 192              		.loc 1 213 1 view .LVU34
 193              		@ sp needed
 194 000c 7047     		bx	lr
 195              	.L15:
 196 000e C046     		.align	2
 197              	.L14:
 198 0010 0C040440 		.word	1074005004
 199              		.cfi_endproc
 200              	.LFE4:
 201              		.size	I2C_scl_SetInterruptMode, .-I2C_scl_SetInterruptMode
 202              		.section	.text.I2C_scl_ClearInterrupt,"ax",%progbits
 203              		.align	1
 204              		.global	I2C_scl_ClearInterrupt
 205              		.syntax unified
 206              		.code	16
 207              		.thumb_func
 208              		.fpu softvfp
 209              		.type	I2C_scl_ClearInterrupt, %function
 210              	I2C_scl_ClearInterrupt:
 211              	.LFB5:
 214:Generated_Source\PSoC4/I2C_scl.c **** 
 215:Generated_Source\PSoC4/I2C_scl.c **** 
 216:Generated_Source\PSoC4/I2C_scl.c **** /*******************************************************************************
 217:Generated_Source\PSoC4/I2C_scl.c **** * Function Name: I2C_scl_ClearInterrupt
 218:Generated_Source\PSoC4/I2C_scl.c **** ****************************************************************************//**
 219:Generated_Source\PSoC4/I2C_scl.c **** *
 220:Generated_Source\PSoC4/I2C_scl.c **** * \brief Clears any active interrupts attached with the component and returns 
 221:Generated_Source\PSoC4/I2C_scl.c **** *  the value of the interrupt status register allowing determination of which
 222:Generated_Source\PSoC4/I2C_scl.c **** *  pins generated an interrupt event.
 223:Generated_Source\PSoC4/I2C_scl.c **** *
 224:Generated_Source\PSoC4/I2C_scl.c **** * \return 
 225:Generated_Source\PSoC4/I2C_scl.c **** *  The right-shifted current value of the interrupt status register. Each pin 
 226:Generated_Source\PSoC4/I2C_scl.c **** *  has one bit set if it generated an interrupt event. For example, bit 0 is 
 227:Generated_Source\PSoC4/I2C_scl.c **** *  for pin 0 and bit 1 is for pin 1 of the Pins component.
 228:Generated_Source\PSoC4/I2C_scl.c **** *  
 229:Generated_Source\PSoC4/I2C_scl.c **** * \sideeffect
 230:Generated_Source\PSoC4/I2C_scl.c **** *  Clears all bits of the physical port's interrupt status register, not just
 231:Generated_Source\PSoC4/I2C_scl.c **** *  those associated with the Pins component.
 232:Generated_Source\PSoC4/I2C_scl.c **** *
 233:Generated_Source\PSoC4/I2C_scl.c **** * \funcusage
 234:Generated_Source\PSoC4/I2C_scl.c **** *  \snippet I2C_scl_SUT.c usage_I2C_scl_ClearInterrupt
 235:Generated_Source\PSoC4/I2C_scl.c **** *******************************************************************************/
 236:Generated_Source\PSoC4/I2C_scl.c **** uint8 I2C_scl_ClearInterrupt(void)
 237:Generated_Source\PSoC4/I2C_scl.c **** {
 212              		.loc 1 237 1 is_stmt 1 view -0
 213              		.cfi_startproc
 214              		@ args = 0, pretend = 0, frame = 0
 215              		@ frame_needed = 0, uses_anonymous_args = 0
 216              		@ link register save eliminated.
 238:Generated_Source\PSoC4/I2C_scl.c **** 	uint8 maskedStatus = (uint8)(I2C_scl_INTSTAT & I2C_scl_MASK);
 217              		.loc 1 238 2 view .LVU36
 218              		.loc 1 238 31 is_stmt 0 view .LVU37
ARM GAS  C:\Users\EDULU~1.DES\AppData\Local\Temp\cc5CfZqg.s 			page 9


 219 0000 024B     		ldr	r3, .L17
 220 0002 1868     		ldr	r0, [r3]
 221              		.loc 1 238 8 view .LVU38
 222 0004 0122     		movs	r2, #1
 223 0006 1040     		ands	r0, r2
 224              	.LVL7:
 239:Generated_Source\PSoC4/I2C_scl.c **** 	I2C_scl_INTSTAT = maskedStatus;
 225              		.loc 1 239 2 is_stmt 1 view .LVU39
 226              		.loc 1 239 18 is_stmt 0 view .LVU40
 227 0008 1860     		str	r0, [r3]
 240:Generated_Source\PSoC4/I2C_scl.c ****     return maskedStatus >> I2C_scl_SHIFT;
 228              		.loc 1 240 5 is_stmt 1 view .LVU41
 241:Generated_Source\PSoC4/I2C_scl.c **** }
 229              		.loc 1 241 1 is_stmt 0 view .LVU42
 230              		@ sp needed
 231 000a 7047     		bx	lr
 232              	.L18:
 233              		.align	2
 234              	.L17:
 235 000c 10040440 		.word	1074005008
 236              		.cfi_endproc
 237              	.LFE5:
 238              		.size	I2C_scl_ClearInterrupt, .-I2C_scl_ClearInterrupt
 239              		.text
 240              	.Letext0:
 241              		.file 2 "Generated_Source\\PSoC4\\cytypes.h"