ARM GAS  C:\Users\EDULU~1.DES\AppData\Local\Temp\cc7noCYx.s 			page 1


   1              		.cpu cortex-m0
   2              		.eabi_attribute 20, 1
   3              		.eabi_attribute 21, 1
   4              		.eabi_attribute 23, 3
   5              		.eabi_attribute 24, 1
   6              		.eabi_attribute 25, 1
   7              		.eabi_attribute 26, 1
   8              		.eabi_attribute 30, 1
   9              		.eabi_attribute 34, 0
  10              		.eabi_attribute 18, 4
  11              		.file	"lib_math.c"
  12              		.text
  13              	.Ltext0:
  14              		.cfi_sections	.debug_frame
  15              		.section	.text.Math_RandSetSeed,"ax",%progbits
  16              		.align	1
  17              		.global	Math_RandSetSeed
  18              		.arch armv6s-m
  19              		.syntax unified
  20              		.code	16
  21              		.thumb_func
  22              		.fpu softvfp
  23              		.type	Math_RandSetSeed, %function
  24              	Math_RandSetSeed:
  25              	.LVL0:
  26              	.LFB4:
  27              		.file 1 "..\\..\\..\\..\\..\\..\\Software\\uC-LIB\\lib_math.c"
   1:..\..\..\..\..\..\Software\uC-LIB/lib_math.c **** /*
   2:..\..\..\..\..\..\Software\uC-LIB/lib_math.c **** ***************************************************************************************************
   3:..\..\..\..\..\..\Software\uC-LIB/lib_math.c **** *                                                uC/LIB
   4:..\..\..\..\..\..\Software\uC-LIB/lib_math.c **** *                                        CUSTOM LIBRARY MODULES
   5:..\..\..\..\..\..\Software\uC-LIB/lib_math.c **** *
   6:..\..\..\..\..\..\Software\uC-LIB/lib_math.c **** *                          (c) Copyright 2004-2012; Micrium, Inc.; Weston, FL
   7:..\..\..\..\..\..\Software\uC-LIB/lib_math.c **** *
   8:..\..\..\..\..\..\Software\uC-LIB/lib_math.c **** *               All rights reserved.  Protected by international copyright laws.
   9:..\..\..\..\..\..\Software\uC-LIB/lib_math.c **** *
  10:..\..\..\..\..\..\Software\uC-LIB/lib_math.c **** *               uC/LIB is provided in source form to registered licensees ONLY.  It is 
  11:..\..\..\..\..\..\Software\uC-LIB/lib_math.c **** *               illegal to distribute this source code to any third party unless you receive 
  12:..\..\..\..\..\..\Software\uC-LIB/lib_math.c **** *               written permission by an authorized Micrium representative.  Knowledge of 
  13:..\..\..\..\..\..\Software\uC-LIB/lib_math.c **** *               the source code may NOT be used to develop a similar product.
  14:..\..\..\..\..\..\Software\uC-LIB/lib_math.c **** *
  15:..\..\..\..\..\..\Software\uC-LIB/lib_math.c **** *               Please help us continue to provide the Embedded community with the finest 
  16:..\..\..\..\..\..\Software\uC-LIB/lib_math.c **** *               software available.  Your honesty is greatly appreciated.
  17:..\..\..\..\..\..\Software\uC-LIB/lib_math.c **** *
  18:..\..\..\..\..\..\Software\uC-LIB/lib_math.c **** *               You can contact us at www.micrium.com.
  19:..\..\..\..\..\..\Software\uC-LIB/lib_math.c **** ***************************************************************************************************
  20:..\..\..\..\..\..\Software\uC-LIB/lib_math.c **** */
  21:..\..\..\..\..\..\Software\uC-LIB/lib_math.c **** 
  22:..\..\..\..\..\..\Software\uC-LIB/lib_math.c **** /*
  23:..\..\..\..\..\..\Software\uC-LIB/lib_math.c **** ***************************************************************************************************
  24:..\..\..\..\..\..\Software\uC-LIB/lib_math.c **** *
  25:..\..\..\..\..\..\Software\uC-LIB/lib_math.c **** *                                        MATHEMATIC OPERATIONS
  26:..\..\..\..\..\..\Software\uC-LIB/lib_math.c **** *
  27:..\..\..\..\..\..\Software\uC-LIB/lib_math.c **** * Filename      : lib_math.c
  28:..\..\..\..\..\..\Software\uC-LIB/lib_math.c **** * Version       : V1.37.00
  29:..\..\..\..\..\..\Software\uC-LIB/lib_math.c **** * Programmer(s) : SR
  30:..\..\..\..\..\..\Software\uC-LIB/lib_math.c **** *                 ITJ
ARM GAS  C:\Users\EDULU~1.DES\AppData\Local\Temp\cc7noCYx.s 			page 2


  31:..\..\..\..\..\..\Software\uC-LIB/lib_math.c **** ***************************************************************************************************
  32:..\..\..\..\..\..\Software\uC-LIB/lib_math.c **** * Note(s)       : (1) NO compiler-supplied standard library functions are used in library or produc
  33:..\..\..\..\..\..\Software\uC-LIB/lib_math.c **** *
  34:..\..\..\..\..\..\Software\uC-LIB/lib_math.c **** *                     (a) ALL standard library functions are implemented in the custom library modu
  35:..\..\..\..\..\..\Software\uC-LIB/lib_math.c **** *
  36:..\..\..\..\..\..\Software\uC-LIB/lib_math.c **** *                         (1) \<Custom Library Directory>\lib_*.*
  37:..\..\..\..\..\..\Software\uC-LIB/lib_math.c **** *
  38:..\..\..\..\..\..\Software\uC-LIB/lib_math.c **** *                         (2) \<Custom Library Directory>\Ports\<cpu>\<compiler>\lib*_a.*
  39:..\..\..\..\..\..\Software\uC-LIB/lib_math.c **** *
  40:..\..\..\..\..\..\Software\uC-LIB/lib_math.c **** *                               where
  41:..\..\..\..\..\..\Software\uC-LIB/lib_math.c **** *                                       <Custom Library Directory>      directory path for custom l
  42:..\..\..\..\..\..\Software\uC-LIB/lib_math.c **** *                                       <cpu>                           directory name for specific
  43:..\..\..\..\..\..\Software\uC-LIB/lib_math.c **** *                                       <compiler>                      directory name for specific
  44:..\..\..\..\..\..\Software\uC-LIB/lib_math.c **** *
  45:..\..\..\..\..\..\Software\uC-LIB/lib_math.c **** *                     (b) Product-specific library functions are implemented in individual products
  46:..\..\..\..\..\..\Software\uC-LIB/lib_math.c **** *
  47:..\..\..\..\..\..\Software\uC-LIB/lib_math.c **** ***************************************************************************************************
  48:..\..\..\..\..\..\Software\uC-LIB/lib_math.c **** * Notice(s)     : (1) The Institute of Electrical and Electronics Engineers and The Open Group, hav
  49:..\..\..\..\..\..\Software\uC-LIB/lib_math.c **** *                     us permission to reprint portions of their documentation.  Portions of this t
  50:..\..\..\..\..\..\Software\uC-LIB/lib_math.c **** *                     reprinted and reproduced in electronic form from the IEEE Std 1003.1, 2004 Ed
  51:..\..\..\..\..\..\Software\uC-LIB/lib_math.c **** *                     Standard for Information Technology -- Portable Operating System Interface (P
  52:..\..\..\..\..\..\Software\uC-LIB/lib_math.c **** *                     The Open Group Base Specifications Issue 6, Copyright (C) 2001-2004 by the In
  53:..\..\..\..\..\..\Software\uC-LIB/lib_math.c **** *                     of Electrical and Electronics Engineers, Inc and The Open Group.  In the even
  54:..\..\..\..\..\..\Software\uC-LIB/lib_math.c **** *                     discrepancy between these versions and the original IEEE and The Open Group S
  55:..\..\..\..\..\..\Software\uC-LIB/lib_math.c **** *                     the original IEEE and The Open Group Standard is the referee document.  The o
  56:..\..\..\..\..\..\Software\uC-LIB/lib_math.c **** *                     Standard can be obtained online at http://www.opengroup.org/unix/online.html.
  57:..\..\..\..\..\..\Software\uC-LIB/lib_math.c **** ***************************************************************************************************
  58:..\..\..\..\..\..\Software\uC-LIB/lib_math.c **** */
  59:..\..\..\..\..\..\Software\uC-LIB/lib_math.c **** 
  60:..\..\..\..\..\..\Software\uC-LIB/lib_math.c **** 
  61:..\..\..\..\..\..\Software\uC-LIB/lib_math.c **** /*
  62:..\..\..\..\..\..\Software\uC-LIB/lib_math.c **** ***************************************************************************************************
  63:..\..\..\..\..\..\Software\uC-LIB/lib_math.c **** *                                            INCLUDE FILES
  64:..\..\..\..\..\..\Software\uC-LIB/lib_math.c **** ***************************************************************************************************
  65:..\..\..\..\..\..\Software\uC-LIB/lib_math.c **** */
  66:..\..\..\..\..\..\Software\uC-LIB/lib_math.c **** 
  67:..\..\..\..\..\..\Software\uC-LIB/lib_math.c **** #define    MICRIUM_SOURCE
  68:..\..\..\..\..\..\Software\uC-LIB/lib_math.c **** #define    LIB_MATH_MODULE
  69:..\..\..\..\..\..\Software\uC-LIB/lib_math.c **** #include  <lib_math.h>
  70:..\..\..\..\..\..\Software\uC-LIB/lib_math.c **** 
  71:..\..\..\..\..\..\Software\uC-LIB/lib_math.c **** 
  72:..\..\..\..\..\..\Software\uC-LIB/lib_math.c **** /*$PAGE*/
  73:..\..\..\..\..\..\Software\uC-LIB/lib_math.c **** /*
  74:..\..\..\..\..\..\Software\uC-LIB/lib_math.c **** ***************************************************************************************************
  75:..\..\..\..\..\..\Software\uC-LIB/lib_math.c **** *                                            LOCAL DEFINES
  76:..\..\..\..\..\..\Software\uC-LIB/lib_math.c **** ***************************************************************************************************
  77:..\..\..\..\..\..\Software\uC-LIB/lib_math.c **** */
  78:..\..\..\..\..\..\Software\uC-LIB/lib_math.c **** 
  79:..\..\..\..\..\..\Software\uC-LIB/lib_math.c **** 
  80:..\..\..\..\..\..\Software\uC-LIB/lib_math.c **** /*
  81:..\..\..\..\..\..\Software\uC-LIB/lib_math.c **** ***************************************************************************************************
  82:..\..\..\..\..\..\Software\uC-LIB/lib_math.c **** *                                           LOCAL CONSTANTS
  83:..\..\..\..\..\..\Software\uC-LIB/lib_math.c **** ***************************************************************************************************
  84:..\..\..\..\..\..\Software\uC-LIB/lib_math.c **** */
  85:..\..\..\..\..\..\Software\uC-LIB/lib_math.c **** 
  86:..\..\..\..\..\..\Software\uC-LIB/lib_math.c **** 
  87:..\..\..\..\..\..\Software\uC-LIB/lib_math.c **** /*
ARM GAS  C:\Users\EDULU~1.DES\AppData\Local\Temp\cc7noCYx.s 			page 3


  88:..\..\..\..\..\..\Software\uC-LIB/lib_math.c **** ***************************************************************************************************
  89:..\..\..\..\..\..\Software\uC-LIB/lib_math.c **** *                                          LOCAL DATA TYPES
  90:..\..\..\..\..\..\Software\uC-LIB/lib_math.c **** ***************************************************************************************************
  91:..\..\..\..\..\..\Software\uC-LIB/lib_math.c **** */
  92:..\..\..\..\..\..\Software\uC-LIB/lib_math.c **** 
  93:..\..\..\..\..\..\Software\uC-LIB/lib_math.c **** 
  94:..\..\..\..\..\..\Software\uC-LIB/lib_math.c **** /*
  95:..\..\..\..\..\..\Software\uC-LIB/lib_math.c **** ***************************************************************************************************
  96:..\..\..\..\..\..\Software\uC-LIB/lib_math.c **** *                                            LOCAL TABLES
  97:..\..\..\..\..\..\Software\uC-LIB/lib_math.c **** ***************************************************************************************************
  98:..\..\..\..\..\..\Software\uC-LIB/lib_math.c **** */
  99:..\..\..\..\..\..\Software\uC-LIB/lib_math.c **** 
 100:..\..\..\..\..\..\Software\uC-LIB/lib_math.c **** 
 101:..\..\..\..\..\..\Software\uC-LIB/lib_math.c **** /*
 102:..\..\..\..\..\..\Software\uC-LIB/lib_math.c **** ***************************************************************************************************
 103:..\..\..\..\..\..\Software\uC-LIB/lib_math.c **** *                                       LOCAL GLOBAL VARIABLES
 104:..\..\..\..\..\..\Software\uC-LIB/lib_math.c **** ***************************************************************************************************
 105:..\..\..\..\..\..\Software\uC-LIB/lib_math.c **** */
 106:..\..\..\..\..\..\Software\uC-LIB/lib_math.c **** 
 107:..\..\..\..\..\..\Software\uC-LIB/lib_math.c **** RAND_NBR  Math_RandSeedCur;                                     /* Cur rand nbr seed.              
 108:..\..\..\..\..\..\Software\uC-LIB/lib_math.c **** 
 109:..\..\..\..\..\..\Software\uC-LIB/lib_math.c **** 
 110:..\..\..\..\..\..\Software\uC-LIB/lib_math.c **** /*
 111:..\..\..\..\..\..\Software\uC-LIB/lib_math.c **** ***************************************************************************************************
 112:..\..\..\..\..\..\Software\uC-LIB/lib_math.c **** *                                      LOCAL FUNCTION PROTOTYPES
 113:..\..\..\..\..\..\Software\uC-LIB/lib_math.c **** ***************************************************************************************************
 114:..\..\..\..\..\..\Software\uC-LIB/lib_math.c **** */
 115:..\..\..\..\..\..\Software\uC-LIB/lib_math.c **** 
 116:..\..\..\..\..\..\Software\uC-LIB/lib_math.c **** 
 117:..\..\..\..\..\..\Software\uC-LIB/lib_math.c **** /*
 118:..\..\..\..\..\..\Software\uC-LIB/lib_math.c **** ***************************************************************************************************
 119:..\..\..\..\..\..\Software\uC-LIB/lib_math.c **** *                                     LOCAL CONFIGURATION ERRORS
 120:..\..\..\..\..\..\Software\uC-LIB/lib_math.c **** ***************************************************************************************************
 121:..\..\..\..\..\..\Software\uC-LIB/lib_math.c **** */
 122:..\..\..\..\..\..\Software\uC-LIB/lib_math.c **** 
 123:..\..\..\..\..\..\Software\uC-LIB/lib_math.c **** 
 124:..\..\..\..\..\..\Software\uC-LIB/lib_math.c **** /*$PAGE*/
 125:..\..\..\..\..\..\Software\uC-LIB/lib_math.c **** /*
 126:..\..\..\..\..\..\Software\uC-LIB/lib_math.c **** ***************************************************************************************************
 127:..\..\..\..\..\..\Software\uC-LIB/lib_math.c **** *                                             Math_Init()
 128:..\..\..\..\..\..\Software\uC-LIB/lib_math.c **** *
 129:..\..\..\..\..\..\Software\uC-LIB/lib_math.c **** * Description : (1) Initialize Mathematic Module :
 130:..\..\..\..\..\..\Software\uC-LIB/lib_math.c **** *
 131:..\..\..\..\..\..\Software\uC-LIB/lib_math.c **** *                   (a) Initialize random number seed value
 132:..\..\..\..\..\..\Software\uC-LIB/lib_math.c **** *
 133:..\..\..\..\..\..\Software\uC-LIB/lib_math.c **** *
 134:..\..\..\..\..\..\Software\uC-LIB/lib_math.c **** * Argument(s) : none.
 135:..\..\..\..\..\..\Software\uC-LIB/lib_math.c **** *
 136:..\..\..\..\..\..\Software\uC-LIB/lib_math.c **** * Return(s)   : none.
 137:..\..\..\..\..\..\Software\uC-LIB/lib_math.c **** *
 138:..\..\..\..\..\..\Software\uC-LIB/lib_math.c **** * Caller(s)   : Application.
 139:..\..\..\..\..\..\Software\uC-LIB/lib_math.c **** *
 140:..\..\..\..\..\..\Software\uC-LIB/lib_math.c **** * Note(s)     : (2) IEEE Std 1003.1, 2004 Edition, Section 'rand() : DESCRIPTION' states that "if r
 141:..\..\..\..\..\..\Software\uC-LIB/lib_math.c **** *                   is called before any calls to srand() are made, the same sequence shall be gene
 142:..\..\..\..\..\..\Software\uC-LIB/lib_math.c **** *                   as when srand() is first called with a seed value of 1".
 143:..\..\..\..\..\..\Software\uC-LIB/lib_math.c **** ***************************************************************************************************
 144:..\..\..\..\..\..\Software\uC-LIB/lib_math.c **** */
ARM GAS  C:\Users\EDULU~1.DES\AppData\Local\Temp\cc7noCYx.s 			page 4


 145:..\..\..\..\..\..\Software\uC-LIB/lib_math.c **** 
 146:..\..\..\..\..\..\Software\uC-LIB/lib_math.c **** void  Math_Init (void)
 147:..\..\..\..\..\..\Software\uC-LIB/lib_math.c **** {
 148:..\..\..\..\..\..\Software\uC-LIB/lib_math.c ****     Math_RandSetSeed((RAND_NBR)RAND_SEED_INIT_VAL);             /* See Note #2.                    
 149:..\..\..\..\..\..\Software\uC-LIB/lib_math.c **** }
 150:..\..\..\..\..\..\Software\uC-LIB/lib_math.c **** 
 151:..\..\..\..\..\..\Software\uC-LIB/lib_math.c **** 
 152:..\..\..\..\..\..\Software\uC-LIB/lib_math.c **** /*$PAGE*/
 153:..\..\..\..\..\..\Software\uC-LIB/lib_math.c **** /*
 154:..\..\..\..\..\..\Software\uC-LIB/lib_math.c **** ***************************************************************************************************
 155:..\..\..\..\..\..\Software\uC-LIB/lib_math.c **** *                                         Math_RandSetSeed()
 156:..\..\..\..\..\..\Software\uC-LIB/lib_math.c **** *
 157:..\..\..\..\..\..\Software\uC-LIB/lib_math.c **** * Description : Set the current pseudo-random number generator seed.
 158:..\..\..\..\..\..\Software\uC-LIB/lib_math.c **** *
 159:..\..\..\..\..\..\Software\uC-LIB/lib_math.c **** * Argument(s) : seed        Initial (or current) value to set for the pseudo-random number sequence
 160:..\..\..\..\..\..\Software\uC-LIB/lib_math.c **** *
 161:..\..\..\..\..\..\Software\uC-LIB/lib_math.c **** * Return(s)   : none.
 162:..\..\..\..\..\..\Software\uC-LIB/lib_math.c **** *
 163:..\..\..\..\..\..\Software\uC-LIB/lib_math.c **** * Caller(s)   : Application.
 164:..\..\..\..\..\..\Software\uC-LIB/lib_math.c **** *
 165:..\..\..\..\..\..\Software\uC-LIB/lib_math.c **** * Note(s)     : (1) IEEE Std 1003.1, 2004 Edition, Section 'rand() : DESCRIPTION' states that "sran
 166:..\..\..\..\..\..\Software\uC-LIB/lib_math.c **** *                   ... uses the argument as a seed for a new sequence of pseudo-random numbers to 
 167:..\..\..\..\..\..\Software\uC-LIB/lib_math.c **** *                   returned by subsequent calls to rand()".
 168:..\..\..\..\..\..\Software\uC-LIB/lib_math.c **** *
 169:..\..\..\..\..\..\Software\uC-LIB/lib_math.c **** *               (2) 'Math_RandSeedCur' MUST always be accessed exclusively in critical sections.
 170:..\..\..\..\..\..\Software\uC-LIB/lib_math.c **** *
 171:..\..\..\..\..\..\Software\uC-LIB/lib_math.c **** *                   See also 'Math_Rand()  Note #1b'.
 172:..\..\..\..\..\..\Software\uC-LIB/lib_math.c **** ***************************************************************************************************
 173:..\..\..\..\..\..\Software\uC-LIB/lib_math.c **** */
 174:..\..\..\..\..\..\Software\uC-LIB/lib_math.c **** 
 175:..\..\..\..\..\..\Software\uC-LIB/lib_math.c **** void  Math_RandSetSeed (RAND_NBR  seed)
 176:..\..\..\..\..\..\Software\uC-LIB/lib_math.c **** {
  28              		.loc 1 176 1 view -0
  29              		.cfi_startproc
  30              		@ args = 0, pretend = 0, frame = 0
  31              		@ frame_needed = 0, uses_anonymous_args = 0
  32              		.loc 1 176 1 is_stmt 0 view .LVU1
  33 0000 70B5     		push	{r4, r5, r6, lr}
  34              		.cfi_def_cfa_offset 16
  35              		.cfi_offset 4, -16
  36              		.cfi_offset 5, -12
  37              		.cfi_offset 6, -8
  38              		.cfi_offset 14, -4
  39 0002 0500     		movs	r5, r0
 177:..\..\..\..\..\..\Software\uC-LIB/lib_math.c ****     CPU_SR_ALLOC();
  40              		.loc 1 177 5 is_stmt 1 view .LVU2
  41              	.LVL1:
 178:..\..\..\..\..\..\Software\uC-LIB/lib_math.c **** 
 179:..\..\..\..\..\..\Software\uC-LIB/lib_math.c **** 
 180:..\..\..\..\..\..\Software\uC-LIB/lib_math.c ****     CPU_CRITICAL_ENTER();
  42              		.loc 1 180 5 view .LVU3
  43              		.loc 1 180 5 view .LVU4
  44              		.loc 1 180 5 view .LVU5
  45 0004 FFF7FEFF 		bl	CPU_SR_Save
  46              	.LVL2:
  47              		.loc 1 180 5 is_stmt 0 view .LVU6
  48 0008 0400     		movs	r4, r0
ARM GAS  C:\Users\EDULU~1.DES\AppData\Local\Temp\cc7noCYx.s 			page 5


  49              	.LVL3:
  50              		.loc 1 180 5 is_stmt 1 view .LVU7
  51 000a FFF7FEFF 		bl	CPU_IntDisMeasStart
  52              	.LVL4:
 181:..\..\..\..\..\..\Software\uC-LIB/lib_math.c ****     Math_RandSeedCur = seed;
  53              		.loc 1 181 5 view .LVU8
  54              		.loc 1 181 22 is_stmt 0 view .LVU9
  55 000e 044B     		ldr	r3, .L2
  56 0010 1D60     		str	r5, [r3]
 182:..\..\..\..\..\..\Software\uC-LIB/lib_math.c ****     CPU_CRITICAL_EXIT();
  57              		.loc 1 182 5 is_stmt 1 view .LVU10
  58              		.loc 1 182 5 view .LVU11
  59 0012 FFF7FEFF 		bl	CPU_IntDisMeasStop
  60              	.LVL5:
  61              		.loc 1 182 5 view .LVU12
  62              		.loc 1 182 5 view .LVU13
  63 0016 2000     		movs	r0, r4
  64 0018 FFF7FEFF 		bl	CPU_SR_Restore
  65              	.LVL6:
 183:..\..\..\..\..\..\Software\uC-LIB/lib_math.c **** }
  66              		.loc 1 183 1 is_stmt 0 view .LVU14
  67              		@ sp needed
  68              	.LVL7:
  69              	.LVL8:
  70              		.loc 1 183 1 view .LVU15
  71 001c 70BD     		pop	{r4, r5, r6, pc}
  72              	.L3:
  73 001e C046     		.align	2
  74              	.L2:
  75 0020 00000000 		.word	Math_RandSeedCur
  76              		.cfi_endproc
  77              	.LFE4:
  78              		.size	Math_RandSetSeed, .-Math_RandSetSeed
  79              		.section	.text.Math_Init,"ax",%progbits
  80              		.align	1
  81              		.global	Math_Init
  82              		.syntax unified
  83              		.code	16
  84              		.thumb_func
  85              		.fpu softvfp
  86              		.type	Math_Init, %function
  87              	Math_Init:
  88              	.LFB3:
 147:..\..\..\..\..\..\Software\uC-LIB/lib_math.c ****     Math_RandSetSeed((RAND_NBR)RAND_SEED_INIT_VAL);             /* See Note #2.                    
  89              		.loc 1 147 1 is_stmt 1 view -0
  90              		.cfi_startproc
  91              		@ args = 0, pretend = 0, frame = 0
  92              		@ frame_needed = 0, uses_anonymous_args = 0
  93 0000 10B5     		push	{r4, lr}
  94              		.cfi_def_cfa_offset 8
  95              		.cfi_offset 4, -8
  96              		.cfi_offset 14, -4
 148:..\..\..\..\..\..\Software\uC-LIB/lib_math.c **** }
  97              		.loc 1 148 5 view .LVU17
  98 0002 0120     		movs	r0, #1
  99 0004 FFF7FEFF 		bl	Math_RandSetSeed
 100              	.LVL9:
ARM GAS  C:\Users\EDULU~1.DES\AppData\Local\Temp\cc7noCYx.s 			page 6


 149:..\..\..\..\..\..\Software\uC-LIB/lib_math.c **** 
 101              		.loc 1 149 1 is_stmt 0 view .LVU18
 102              		@ sp needed
 103 0008 10BD     		pop	{r4, pc}
 104              		.cfi_endproc
 105              	.LFE3:
 106              		.size	Math_Init, .-Math_Init
 107              		.section	.text.Math_RandSeed,"ax",%progbits
 108              		.align	1
 109              		.global	Math_RandSeed
 110              		.syntax unified
 111              		.code	16
 112              		.thumb_func
 113              		.fpu softvfp
 114              		.type	Math_RandSeed, %function
 115              	Math_RandSeed:
 116              	.LVL10:
 117              	.LFB6:
 184:..\..\..\..\..\..\Software\uC-LIB/lib_math.c **** 
 185:..\..\..\..\..\..\Software\uC-LIB/lib_math.c **** 
 186:..\..\..\..\..\..\Software\uC-LIB/lib_math.c **** /*$PAGE*/
 187:..\..\..\..\..\..\Software\uC-LIB/lib_math.c **** /*
 188:..\..\..\..\..\..\Software\uC-LIB/lib_math.c **** ***************************************************************************************************
 189:..\..\..\..\..\..\Software\uC-LIB/lib_math.c **** *                                             Math_Rand()
 190:..\..\..\..\..\..\Software\uC-LIB/lib_math.c **** *
 191:..\..\..\..\..\..\Software\uC-LIB/lib_math.c **** * Description : Calculate the next pseudo-random number.
 192:..\..\..\..\..\..\Software\uC-LIB/lib_math.c **** *
 193:..\..\..\..\..\..\Software\uC-LIB/lib_math.c **** * Argument(s) : none.
 194:..\..\..\..\..\..\Software\uC-LIB/lib_math.c **** *
 195:..\..\..\..\..\..\Software\uC-LIB/lib_math.c **** * Return(s)   : Next pseudo-random number in the sequence after 'Math_RandSeedCur'.
 196:..\..\..\..\..\..\Software\uC-LIB/lib_math.c **** *
 197:..\..\..\..\..\..\Software\uC-LIB/lib_math.c **** * Caller(s)   : Application.
 198:..\..\..\..\..\..\Software\uC-LIB/lib_math.c **** *
 199:..\..\..\..\..\..\Software\uC-LIB/lib_math.c **** * Note(s)     : (1) (a) The pseudo-random number generator is implemented as a Linear Congruential 
 200:..\..\..\..\..\..\Software\uC-LIB/lib_math.c **** *                       Generator (LCG).
 201:..\..\..\..\..\..\Software\uC-LIB/lib_math.c **** *
 202:..\..\..\..\..\..\Software\uC-LIB/lib_math.c **** *                   (b) The pseudo-random number generated is in the range [0, RAND_LCG_PARAM_M].
 203:..\..\..\..\..\..\Software\uC-LIB/lib_math.c **** *
 204:..\..\..\..\..\..\Software\uC-LIB/lib_math.c **** *                   See also 'Math_RandSeed()  Note #1'.
 205:..\..\..\..\..\..\Software\uC-LIB/lib_math.c **** *
 206:..\..\..\..\..\..\Software\uC-LIB/lib_math.c **** *               (2) (a) IEEE Std 1003.1, 2004 Edition, Section 'rand() : DESCRIPTION' states that "
 207:..\..\..\..\..\..\Software\uC-LIB/lib_math.c **** *                       ... need not be reentrant ... [and] is not required to be thread-safe".
 208:..\..\..\..\..\..\Software\uC-LIB/lib_math.c **** *
 209:..\..\..\..\..\..\Software\uC-LIB/lib_math.c **** *                   (b) However, in order to implement Math_Rand() as re-entrant; 'Math_RandSeedCur
 210:..\..\..\..\..\..\Software\uC-LIB/lib_math.c **** *                       always be accessed & updated exclusively in critical sections.
 211:..\..\..\..\..\..\Software\uC-LIB/lib_math.c **** *
 212:..\..\..\..\..\..\Software\uC-LIB/lib_math.c **** *                   See also 'Math_RandSeed()  Note #2'.
 213:..\..\..\..\..\..\Software\uC-LIB/lib_math.c **** ***************************************************************************************************
 214:..\..\..\..\..\..\Software\uC-LIB/lib_math.c **** */
 215:..\..\..\..\..\..\Software\uC-LIB/lib_math.c **** 
 216:..\..\..\..\..\..\Software\uC-LIB/lib_math.c **** RAND_NBR  Math_Rand (void)
 217:..\..\..\..\..\..\Software\uC-LIB/lib_math.c **** {
 218:..\..\..\..\..\..\Software\uC-LIB/lib_math.c ****     RAND_NBR  seed;
 219:..\..\..\..\..\..\Software\uC-LIB/lib_math.c ****     RAND_NBR  rand_nbr;
 220:..\..\..\..\..\..\Software\uC-LIB/lib_math.c ****     CPU_SR_ALLOC();
 221:..\..\..\..\..\..\Software\uC-LIB/lib_math.c **** 
 222:..\..\..\..\..\..\Software\uC-LIB/lib_math.c **** 
ARM GAS  C:\Users\EDULU~1.DES\AppData\Local\Temp\cc7noCYx.s 			page 7


 223:..\..\..\..\..\..\Software\uC-LIB/lib_math.c ****     CPU_CRITICAL_ENTER();
 224:..\..\..\..\..\..\Software\uC-LIB/lib_math.c ****     seed             = Math_RandSeedCur;
 225:..\..\..\..\..\..\Software\uC-LIB/lib_math.c ****     rand_nbr         = Math_RandSeed(seed);
 226:..\..\..\..\..\..\Software\uC-LIB/lib_math.c ****     Math_RandSeedCur = rand_nbr;
 227:..\..\..\..\..\..\Software\uC-LIB/lib_math.c ****     CPU_CRITICAL_EXIT();
 228:..\..\..\..\..\..\Software\uC-LIB/lib_math.c **** 
 229:..\..\..\..\..\..\Software\uC-LIB/lib_math.c ****     return (rand_nbr);
 230:..\..\..\..\..\..\Software\uC-LIB/lib_math.c **** }
 231:..\..\..\..\..\..\Software\uC-LIB/lib_math.c **** 
 232:..\..\..\..\..\..\Software\uC-LIB/lib_math.c **** 
 233:..\..\..\..\..\..\Software\uC-LIB/lib_math.c **** /*$PAGE*/
 234:..\..\..\..\..\..\Software\uC-LIB/lib_math.c **** /*
 235:..\..\..\..\..\..\Software\uC-LIB/lib_math.c **** ***************************************************************************************************
 236:..\..\..\..\..\..\Software\uC-LIB/lib_math.c **** *                                           Math_RandSeed()
 237:..\..\..\..\..\..\Software\uC-LIB/lib_math.c **** *
 238:..\..\..\..\..\..\Software\uC-LIB/lib_math.c **** * Description : Calculate the next pseudo-random number.
 239:..\..\..\..\..\..\Software\uC-LIB/lib_math.c **** *
 240:..\..\..\..\..\..\Software\uC-LIB/lib_math.c **** * Argument(s) : seed        Initial (or current) value for the pseudo-random number sequence.
 241:..\..\..\..\..\..\Software\uC-LIB/lib_math.c **** *
 242:..\..\..\..\..\..\Software\uC-LIB/lib_math.c **** * Return(s)   : Next pseudo-random number in the sequence after 'seed'.
 243:..\..\..\..\..\..\Software\uC-LIB/lib_math.c **** *
 244:..\..\..\..\..\..\Software\uC-LIB/lib_math.c **** * Caller(s)   : Math_Rand(),
 245:..\..\..\..\..\..\Software\uC-LIB/lib_math.c **** *               Application.
 246:..\..\..\..\..\..\Software\uC-LIB/lib_math.c **** *
 247:..\..\..\..\..\..\Software\uC-LIB/lib_math.c **** * Note(s)     : (1) (a) BSD/ANSI-C implements rand() as a Linear Congruential Generator (LCG) :
 248:..\..\..\..\..\..\Software\uC-LIB/lib_math.c **** *
 249:..\..\..\..\..\..\Software\uC-LIB/lib_math.c **** *                       (A) random_number       =  [(a * random_number ) + b]  modulo m
 250:..\..\..\..\..\..\Software\uC-LIB/lib_math.c **** *                                        n + 1                        n
 251:..\..\..\..\..\..\Software\uC-LIB/lib_math.c **** *
 252:..\..\..\..\..\..\Software\uC-LIB/lib_math.c **** *                               where
 253:..\..\..\..\..\..\Software\uC-LIB/lib_math.c **** *                                       (1) (a) random_number           Next     random number to g
 254:..\..\..\..\..\..\Software\uC-LIB/lib_math.c **** *                                                            n+1
 255:..\..\..\..\..\..\Software\uC-LIB/lib_math.c **** *                                           (b) random_number           Previous random number    g
 256:..\..\..\..\..\..\Software\uC-LIB/lib_math.c **** *                                                            n
 257:..\..\..\..\..\..\Software\uC-LIB/lib_math.c **** *
 258:..\..\..\..\..\..\Software\uC-LIB/lib_math.c **** *                                       (2) a = RAND_LCG_PARAM_A        LCG multiplier
 259:..\..\..\..\..\..\Software\uC-LIB/lib_math.c **** *                                       (3) b = RAND_LCG_PARAM_B        LCG incrementor
 260:..\..\..\..\..\..\Software\uC-LIB/lib_math.c **** *                                       (4) m = RAND_LCG_PARAM_M + 1    LCG modulus
 261:..\..\..\..\..\..\Software\uC-LIB/lib_math.c **** *
 262:..\..\..\..\..\..\Software\uC-LIB/lib_math.c **** *                   (b) The pseudo-random number generated is in the range [0, RAND_LCG_PARAM_M].
 263:..\..\..\..\..\..\Software\uC-LIB/lib_math.c **** *
 264:..\..\..\..\..\..\Software\uC-LIB/lib_math.c ****                     See also 'lib_math.h  RANDOM NUMBER DEFINES  Note #1b'.
 265:..\..\..\..\..\..\Software\uC-LIB/lib_math.c **** *
 266:..\..\..\..\..\..\Software\uC-LIB/lib_math.c **** *               (2) (a) IEEE Std 1003.1, 2004 Edition, Section 'rand() : DESCRIPTION' states that "
 267:..\..\..\..\..\..\Software\uC-LIB/lib_math.c **** *                       ... need not be reentrant ... [and] is not required to be thread-safe".
 268:..\..\..\..\..\..\Software\uC-LIB/lib_math.c **** *
 269:..\..\..\..\..\..\Software\uC-LIB/lib_math.c **** *                   (b) However, Math_RandSeed() is re-entrant since it calculates the next random 
 270:..\..\..\..\..\..\Software\uC-LIB/lib_math.c **** *                       using ONLY local variables.
 271:..\..\..\..\..\..\Software\uC-LIB/lib_math.c **** ***************************************************************************************************
 272:..\..\..\..\..\..\Software\uC-LIB/lib_math.c **** */
 273:..\..\..\..\..\..\Software\uC-LIB/lib_math.c **** 
 274:..\..\..\..\..\..\Software\uC-LIB/lib_math.c **** RAND_NBR  Math_RandSeed (RAND_NBR  seed)
 275:..\..\..\..\..\..\Software\uC-LIB/lib_math.c **** {
 118              		.loc 1 275 1 is_stmt 1 view -0
 119              		.cfi_startproc
 120              		@ args = 0, pretend = 0, frame = 0
 121              		@ frame_needed = 0, uses_anonymous_args = 0
ARM GAS  C:\Users\EDULU~1.DES\AppData\Local\Temp\cc7noCYx.s 			page 8


 122              		@ link register save eliminated.
 276:..\..\..\..\..\..\Software\uC-LIB/lib_math.c ****     RAND_NBR  rand_nbr;
 123              		.loc 1 276 5 view .LVU20
 277:..\..\..\..\..\..\Software\uC-LIB/lib_math.c **** 
 278:..\..\..\..\..\..\Software\uC-LIB/lib_math.c **** 
 279:..\..\..\..\..\..\Software\uC-LIB/lib_math.c ****     rand_nbr = (((RAND_NBR)RAND_LCG_PARAM_A * seed) + (RAND_NBR)RAND_LCG_PARAM_B)  %  ((RAND_NBR)RA
 124              		.loc 1 279 5 view .LVU21
 125              		.loc 1 279 45 is_stmt 0 view .LVU22
 126 0000 034B     		ldr	r3, .L6
 127 0002 5843     		muls	r0, r3
 128              	.LVL11:
 129              		.loc 1 279 53 view .LVU23
 130 0004 034B     		ldr	r3, .L6+4
 131 0006 9C46     		mov	ip, r3
 132 0008 6044     		add	r0, r0, ip
 133              		.loc 1 279 14 view .LVU24
 134 000a 4000     		lsls	r0, r0, #1
 135 000c 4008     		lsrs	r0, r0, #1
 136              	.LVL12:
 280:..\..\..\..\..\..\Software\uC-LIB/lib_math.c **** 
 281:..\..\..\..\..\..\Software\uC-LIB/lib_math.c ****     return (rand_nbr);
 137              		.loc 1 281 5 is_stmt 1 view .LVU25
 282:..\..\..\..\..\..\Software\uC-LIB/lib_math.c **** }
 138              		.loc 1 282 1 is_stmt 0 view .LVU26
 139              		@ sp needed
 140 000e 7047     		bx	lr
 141              	.L7:
 142              		.align	2
 143              	.L6:
 144 0010 6D4EC641 		.word	1103515245
 145 0014 39300000 		.word	12345
 146              		.cfi_endproc
 147              	.LFE6:
 148              		.size	Math_RandSeed, .-Math_RandSeed
 149              		.section	.text.Math_Rand,"ax",%progbits
 150              		.align	1
 151              		.global	Math_Rand
 152              		.syntax unified
 153              		.code	16
 154              		.thumb_func
 155              		.fpu softvfp
 156              		.type	Math_Rand, %function
 157              	Math_Rand:
 158              	.LFB5:
 217:..\..\..\..\..\..\Software\uC-LIB/lib_math.c ****     RAND_NBR  seed;
 159              		.loc 1 217 1 is_stmt 1 view -0
 160              		.cfi_startproc
 161              		@ args = 0, pretend = 0, frame = 0
 162              		@ frame_needed = 0, uses_anonymous_args = 0
 163 0000 70B5     		push	{r4, r5, r6, lr}
 164              		.cfi_def_cfa_offset 16
 165              		.cfi_offset 4, -16
 166              		.cfi_offset 5, -12
 167              		.cfi_offset 6, -8
 168              		.cfi_offset 14, -4
 218:..\..\..\..\..\..\Software\uC-LIB/lib_math.c ****     RAND_NBR  rand_nbr;
 169              		.loc 1 218 5 view .LVU28
ARM GAS  C:\Users\EDULU~1.DES\AppData\Local\Temp\cc7noCYx.s 			page 9


 219:..\..\..\..\..\..\Software\uC-LIB/lib_math.c ****     CPU_SR_ALLOC();
 170              		.loc 1 219 5 view .LVU29
 220:..\..\..\..\..\..\Software\uC-LIB/lib_math.c **** 
 171              		.loc 1 220 5 view .LVU30
 172              	.LVL13:
 223:..\..\..\..\..\..\Software\uC-LIB/lib_math.c ****     seed             = Math_RandSeedCur;
 173              		.loc 1 223 5 view .LVU31
 223:..\..\..\..\..\..\Software\uC-LIB/lib_math.c ****     seed             = Math_RandSeedCur;
 174              		.loc 1 223 5 view .LVU32
 223:..\..\..\..\..\..\Software\uC-LIB/lib_math.c ****     seed             = Math_RandSeedCur;
 175              		.loc 1 223 5 view .LVU33
 176 0002 FFF7FEFF 		bl	CPU_SR_Save
 177              	.LVL14:
 178 0006 0600     		movs	r6, r0
 179              	.LVL15:
 223:..\..\..\..\..\..\Software\uC-LIB/lib_math.c ****     seed             = Math_RandSeedCur;
 180              		.loc 1 223 5 view .LVU34
 181 0008 FFF7FEFF 		bl	CPU_IntDisMeasStart
 182              	.LVL16:
 224:..\..\..\..\..\..\Software\uC-LIB/lib_math.c ****     rand_nbr         = Math_RandSeed(seed);
 183              		.loc 1 224 5 view .LVU35
 224:..\..\..\..\..\..\Software\uC-LIB/lib_math.c ****     rand_nbr         = Math_RandSeed(seed);
 184              		.loc 1 224 22 is_stmt 0 view .LVU36
 185 000c 064D     		ldr	r5, .L9
 186              	.LVL17:
 225:..\..\..\..\..\..\Software\uC-LIB/lib_math.c ****     Math_RandSeedCur = rand_nbr;
 187              		.loc 1 225 5 is_stmt 1 view .LVU37
 225:..\..\..\..\..\..\Software\uC-LIB/lib_math.c ****     Math_RandSeedCur = rand_nbr;
 188              		.loc 1 225 24 is_stmt 0 view .LVU38
 189 000e 2868     		ldr	r0, [r5]
 190 0010 FFF7FEFF 		bl	Math_RandSeed
 191              	.LVL18:
 225:..\..\..\..\..\..\Software\uC-LIB/lib_math.c ****     Math_RandSeedCur = rand_nbr;
 192              		.loc 1 225 24 view .LVU39
 193 0014 0400     		movs	r4, r0
 194              	.LVL19:
 226:..\..\..\..\..\..\Software\uC-LIB/lib_math.c ****     CPU_CRITICAL_EXIT();
 195              		.loc 1 226 5 is_stmt 1 view .LVU40
 226:..\..\..\..\..\..\Software\uC-LIB/lib_math.c ****     CPU_CRITICAL_EXIT();
 196              		.loc 1 226 22 is_stmt 0 view .LVU41
 197 0016 2860     		str	r0, [r5]
 227:..\..\..\..\..\..\Software\uC-LIB/lib_math.c **** 
 198              		.loc 1 227 5 is_stmt 1 view .LVU42
 227:..\..\..\..\..\..\Software\uC-LIB/lib_math.c **** 
 199              		.loc 1 227 5 view .LVU43
 200 0018 FFF7FEFF 		bl	CPU_IntDisMeasStop
 201              	.LVL20:
 227:..\..\..\..\..\..\Software\uC-LIB/lib_math.c **** 
 202              		.loc 1 227 5 view .LVU44
 227:..\..\..\..\..\..\Software\uC-LIB/lib_math.c **** 
 203              		.loc 1 227 5 view .LVU45
 204 001c 3000     		movs	r0, r6
 205 001e FFF7FEFF 		bl	CPU_SR_Restore
 206              	.LVL21:
 229:..\..\..\..\..\..\Software\uC-LIB/lib_math.c **** }
 207              		.loc 1 229 5 view .LVU46
 230:..\..\..\..\..\..\Software\uC-LIB/lib_math.c **** 
ARM GAS  C:\Users\EDULU~1.DES\AppData\Local\Temp\cc7noCYx.s 			page 10


 208              		.loc 1 230 1 is_stmt 0 view .LVU47
 209 0022 2000     		movs	r0, r4
 210              		@ sp needed
 211              	.LVL22:
 212              	.LVL23:
 230:..\..\..\..\..\..\Software\uC-LIB/lib_math.c **** 
 213              		.loc 1 230 1 view .LVU48
 214 0024 70BD     		pop	{r4, r5, r6, pc}
 215              	.L10:
 216 0026 C046     		.align	2
 217              	.L9:
 218 0028 00000000 		.word	Math_RandSeedCur
 219              		.cfi_endproc
 220              	.LFE5:
 221              		.size	Math_Rand, .-Math_Rand
 222              		.comm	Math_RandSeedCur,4,4
 223              		.text
 224              	.Letext0:
 225              		.file 2 "..\\..\\..\\..\\..\\..\\Software\\uC-CPU\\ARM-Cortex-M0\\GNU/cpu.h"
 226              		.file 3 "c:\\program files (x86)\\gnu tools arm embedded\\8 2018-q4-major\\arm-none-eabi\\include\
 227              		.file 4 "c:\\program files (x86)\\gnu tools arm embedded\\8 2018-q4-major\\arm-none-eabi\\include\
 228              		.file 5 "c:\\program files (x86)\\gnu tools arm embedded\\8 2018-q4-major\\lib\\gcc\\arm-none-eabi
 229              		.file 6 "c:\\program files (x86)\\gnu tools arm embedded\\8 2018-q4-major\\arm-none-eabi\\include\
 230              		.file 7 "..\\..\\..\\..\\..\\..\\Software\\uC-CPU/cpu_core.h"
 231              		.file 8 "..\\..\\..\\..\\..\\..\\Software\\uC-LIB/lib_math.h"