ARM GAS  C:\Users\EDULU~1.DES\AppData\Local\Temp\ccrgvmSp.s 			page 1


   1              		.cpu cortex-m0
   2              		.eabi_attribute 20, 1
   3              		.eabi_attribute 21, 1
   4              		.eabi_attribute 23, 3
   5              		.eabi_attribute 24, 1
   6              		.eabi_attribute 25, 1
   7              		.eabi_attribute 26, 1
   8              		.eabi_attribute 30, 1
   9              		.eabi_attribute 34, 0
  10              		.eabi_attribute 18, 4
  11              		.file	"lib_ascii.c"
  12              		.text
  13              	.Ltext0:
  14              		.cfi_sections	.debug_frame
  15              		.section	.text.ASCII_IsAlpha,"ax",%progbits
  16              		.align	1
  17              		.global	ASCII_IsAlpha
  18              		.arch armv6s-m
  19              		.syntax unified
  20              		.code	16
  21              		.thumb_func
  22              		.fpu softvfp
  23              		.type	ASCII_IsAlpha, %function
  24              	ASCII_IsAlpha:
  25              	.LVL0:
  26              	.LFB0:
  27              		.file 1 "..\\..\\..\\..\\..\\..\\Software\\uC-LIB\\lib_ascii.c"
   1:..\..\..\..\..\..\Software\uC-LIB/lib_ascii.c **** /*
   2:..\..\..\..\..\..\Software\uC-LIB/lib_ascii.c **** ***************************************************************************************************
   3:..\..\..\..\..\..\Software\uC-LIB/lib_ascii.c **** *                                                uC/LIB
   4:..\..\..\..\..\..\Software\uC-LIB/lib_ascii.c **** *                                        CUSTOM LIBRARY MODULES
   5:..\..\..\..\..\..\Software\uC-LIB/lib_ascii.c **** *
   6:..\..\..\..\..\..\Software\uC-LIB/lib_ascii.c **** *                          (c) Copyright 2004-2012; Micrium, Inc.; Weston, FL
   7:..\..\..\..\..\..\Software\uC-LIB/lib_ascii.c **** *
   8:..\..\..\..\..\..\Software\uC-LIB/lib_ascii.c **** *               All rights reserved.  Protected by international copyright laws.
   9:..\..\..\..\..\..\Software\uC-LIB/lib_ascii.c **** *
  10:..\..\..\..\..\..\Software\uC-LIB/lib_ascii.c **** *               uC/LIB is provided in source form to registered licensees ONLY.  It is 
  11:..\..\..\..\..\..\Software\uC-LIB/lib_ascii.c **** *               illegal to distribute this source code to any third party unless you receive 
  12:..\..\..\..\..\..\Software\uC-LIB/lib_ascii.c **** *               written permission by an authorized Micrium representative.  Knowledge of 
  13:..\..\..\..\..\..\Software\uC-LIB/lib_ascii.c **** *               the source code may NOT be used to develop a similar product.
  14:..\..\..\..\..\..\Software\uC-LIB/lib_ascii.c **** *
  15:..\..\..\..\..\..\Software\uC-LIB/lib_ascii.c **** *               Please help us continue to provide the Embedded community with the finest 
  16:..\..\..\..\..\..\Software\uC-LIB/lib_ascii.c **** *               software available.  Your honesty is greatly appreciated.
  17:..\..\..\..\..\..\Software\uC-LIB/lib_ascii.c **** *
  18:..\..\..\..\..\..\Software\uC-LIB/lib_ascii.c **** *               You can contact us at www.micrium.com.
  19:..\..\..\..\..\..\Software\uC-LIB/lib_ascii.c **** ***************************************************************************************************
  20:..\..\..\..\..\..\Software\uC-LIB/lib_ascii.c **** */
  21:..\..\..\..\..\..\Software\uC-LIB/lib_ascii.c **** 
  22:..\..\..\..\..\..\Software\uC-LIB/lib_ascii.c **** /*
  23:..\..\..\..\..\..\Software\uC-LIB/lib_ascii.c **** ***************************************************************************************************
  24:..\..\..\..\..\..\Software\uC-LIB/lib_ascii.c **** *
  25:..\..\..\..\..\..\Software\uC-LIB/lib_ascii.c **** *                                     ASCII CHARACTER OPERATIONS
  26:..\..\..\..\..\..\Software\uC-LIB/lib_ascii.c **** *
  27:..\..\..\..\..\..\Software\uC-LIB/lib_ascii.c **** * Filename      : lib_ascii.c
  28:..\..\..\..\..\..\Software\uC-LIB/lib_ascii.c **** * Version       : V1.37.00
  29:..\..\..\..\..\..\Software\uC-LIB/lib_ascii.c **** * Programmer(s) : BAN
  30:..\..\..\..\..\..\Software\uC-LIB/lib_ascii.c **** *                 ITJ
ARM GAS  C:\Users\EDULU~1.DES\AppData\Local\Temp\ccrgvmSp.s 			page 2


  31:..\..\..\..\..\..\Software\uC-LIB/lib_ascii.c **** ***************************************************************************************************
  32:..\..\..\..\..\..\Software\uC-LIB/lib_ascii.c **** * Note(s)       : (1) NO compiler-supplied standard library functions are used in library or produc
  33:..\..\..\..\..\..\Software\uC-LIB/lib_ascii.c **** *
  34:..\..\..\..\..\..\Software\uC-LIB/lib_ascii.c **** *                     (a) ALL standard library functions are implemented in the custom library modu
  35:..\..\..\..\..\..\Software\uC-LIB/lib_ascii.c **** *
  36:..\..\..\..\..\..\Software\uC-LIB/lib_ascii.c **** *                         (1) \<Custom Library Directory>\lib_*.*
  37:..\..\..\..\..\..\Software\uC-LIB/lib_ascii.c **** *
  38:..\..\..\..\..\..\Software\uC-LIB/lib_ascii.c **** *                         (2) \<Custom Library Directory>\Ports\<cpu>\<compiler>\lib*_a.*
  39:..\..\..\..\..\..\Software\uC-LIB/lib_ascii.c **** *
  40:..\..\..\..\..\..\Software\uC-LIB/lib_ascii.c **** *                               where
  41:..\..\..\..\..\..\Software\uC-LIB/lib_ascii.c **** *                                       <Custom Library Directory>      directory path for custom l
  42:..\..\..\..\..\..\Software\uC-LIB/lib_ascii.c **** *                                       <cpu>                           directory name for specific
  43:..\..\..\..\..\..\Software\uC-LIB/lib_ascii.c **** *                                       <compiler>                      directory name for specific
  44:..\..\..\..\..\..\Software\uC-LIB/lib_ascii.c **** *
  45:..\..\..\..\..\..\Software\uC-LIB/lib_ascii.c **** *                     (b) Product-specific library functions are implemented in individual products
  46:..\..\..\..\..\..\Software\uC-LIB/lib_ascii.c **** *
  47:..\..\..\..\..\..\Software\uC-LIB/lib_ascii.c **** *
  48:..\..\..\..\..\..\Software\uC-LIB/lib_ascii.c **** *                 (2) (a) ECMA-6 '7-Bit coded Character Set' (6th edition), which corresponds to th
  49:..\..\..\..\..\..\Software\uC-LIB/lib_ascii.c **** *                         3rd edition of ISO 646, specifies several versions of a 7-bit character s
  50:..\..\..\..\..\..\Software\uC-LIB/lib_ascii.c **** *
  51:..\..\..\..\..\..\Software\uC-LIB/lib_ascii.c **** *                         (1) THE GENERAL VERSION, which allows characters at 0x23 and 0x24 to be g
  52:..\..\..\..\..\..\Software\uC-LIB/lib_ascii.c **** *                             set alternate form and allows the characters 0x40, 0x5B, 0x5D, 0x60, 
  53:..\..\..\..\..\..\Software\uC-LIB/lib_ascii.c **** *                             0x7D to be assigned a "unique graphic character" or to be declared as
  54:..\..\..\..\..\..\Software\uC-LIB/lib_ascii.c **** *                             All other characters are explicitly specified.
  55:..\..\..\..\..\..\Software\uC-LIB/lib_ascii.c **** *
  56:..\..\..\..\..\..\Software\uC-LIB/lib_ascii.c **** *                         (2) THE INTERNATIONAL REFERENCE VERSION, which explicitly specifies all c
  57:..\..\..\..\..\..\Software\uC-LIB/lib_ascii.c **** *                             in the 7-bit character set.
  58:..\..\..\..\..\..\Software\uC-LIB/lib_ascii.c **** *
  59:..\..\..\..\..\..\Software\uC-LIB/lib_ascii.c **** *                         (3) NATIONAL & APPLICATION-ORIENTED VERSIONS, which may be derived from t
  60:..\..\..\..\..\..\Software\uC-LIB/lib_ascii.c **** *                             standard in specified ways.
  61:..\..\..\..\..\..\Software\uC-LIB/lib_ascii.c **** *
  62:..\..\..\..\..\..\Software\uC-LIB/lib_ascii.c **** *                     (b) The character set represented in this file reproduces the Internation Ref
  63:..\..\..\..\..\..\Software\uC-LIB/lib_ascii.c **** *                         Version.  This is identical to the 7-bit character set which occupies Uni
  64:..\..\..\..\..\..\Software\uC-LIB/lib_ascii.c **** *                         characters 0x0000 through 0x007F.  The character names are taken from v5.
  65:..\..\..\..\..\..\Software\uC-LIB/lib_ascii.c **** *                         Unicode specification, with certain abbreviations so that the resulting #
  66:..\..\..\..\..\..\Software\uC-LIB/lib_ascii.c **** *                         names will not violate ANSI C naming restriction :
  67:..\..\..\..\..\..\Software\uC-LIB/lib_ascii.c **** *
  68:..\..\..\..\..\..\Software\uC-LIB/lib_ascii.c **** *                         (1) For the Latin capital & lowercase letters, the name components 'LETTE
  69:..\..\..\..\..\..\Software\uC-LIB/lib_ascii.c **** *                             & 'LETTER_SMALL' are replaced by 'UPPER' & 'LOWER', respectively.
  70:..\..\..\..\..\..\Software\uC-LIB/lib_ascii.c **** ***************************************************************************************************
  71:..\..\..\..\..\..\Software\uC-LIB/lib_ascii.c **** */
  72:..\..\..\..\..\..\Software\uC-LIB/lib_ascii.c **** 
  73:..\..\..\..\..\..\Software\uC-LIB/lib_ascii.c **** 
  74:..\..\..\..\..\..\Software\uC-LIB/lib_ascii.c **** /*
  75:..\..\..\..\..\..\Software\uC-LIB/lib_ascii.c **** ***************************************************************************************************
  76:..\..\..\..\..\..\Software\uC-LIB/lib_ascii.c **** *                                            INCLUDE FILES
  77:..\..\..\..\..\..\Software\uC-LIB/lib_ascii.c **** ***************************************************************************************************
  78:..\..\..\..\..\..\Software\uC-LIB/lib_ascii.c **** */
  79:..\..\..\..\..\..\Software\uC-LIB/lib_ascii.c **** 
  80:..\..\..\..\..\..\Software\uC-LIB/lib_ascii.c **** #define    MICRIUM_SOURCE
  81:..\..\..\..\..\..\Software\uC-LIB/lib_ascii.c **** #define    LIB_ASCII_MODULE
  82:..\..\..\..\..\..\Software\uC-LIB/lib_ascii.c **** #include  <lib_ascii.h>
  83:..\..\..\..\..\..\Software\uC-LIB/lib_ascii.c **** 
  84:..\..\..\..\..\..\Software\uC-LIB/lib_ascii.c **** 
  85:..\..\..\..\..\..\Software\uC-LIB/lib_ascii.c **** /*$PAGE*/
  86:..\..\..\..\..\..\Software\uC-LIB/lib_ascii.c **** /*
  87:..\..\..\..\..\..\Software\uC-LIB/lib_ascii.c **** ***************************************************************************************************
ARM GAS  C:\Users\EDULU~1.DES\AppData\Local\Temp\ccrgvmSp.s 			page 3


  88:..\..\..\..\..\..\Software\uC-LIB/lib_ascii.c **** *                                            LOCAL DEFINES
  89:..\..\..\..\..\..\Software\uC-LIB/lib_ascii.c **** ***************************************************************************************************
  90:..\..\..\..\..\..\Software\uC-LIB/lib_ascii.c **** */
  91:..\..\..\..\..\..\Software\uC-LIB/lib_ascii.c **** 
  92:..\..\..\..\..\..\Software\uC-LIB/lib_ascii.c **** 
  93:..\..\..\..\..\..\Software\uC-LIB/lib_ascii.c **** /*
  94:..\..\..\..\..\..\Software\uC-LIB/lib_ascii.c **** ***************************************************************************************************
  95:..\..\..\..\..\..\Software\uC-LIB/lib_ascii.c **** *                                           LOCAL CONSTANTS
  96:..\..\..\..\..\..\Software\uC-LIB/lib_ascii.c **** ***************************************************************************************************
  97:..\..\..\..\..\..\Software\uC-LIB/lib_ascii.c **** */
  98:..\..\..\..\..\..\Software\uC-LIB/lib_ascii.c **** 
  99:..\..\..\..\..\..\Software\uC-LIB/lib_ascii.c **** 
 100:..\..\..\..\..\..\Software\uC-LIB/lib_ascii.c **** /*
 101:..\..\..\..\..\..\Software\uC-LIB/lib_ascii.c **** ***************************************************************************************************
 102:..\..\..\..\..\..\Software\uC-LIB/lib_ascii.c **** *                                          LOCAL DATA TYPES
 103:..\..\..\..\..\..\Software\uC-LIB/lib_ascii.c **** ***************************************************************************************************
 104:..\..\..\..\..\..\Software\uC-LIB/lib_ascii.c **** */
 105:..\..\..\..\..\..\Software\uC-LIB/lib_ascii.c **** 
 106:..\..\..\..\..\..\Software\uC-LIB/lib_ascii.c **** 
 107:..\..\..\..\..\..\Software\uC-LIB/lib_ascii.c **** /*
 108:..\..\..\..\..\..\Software\uC-LIB/lib_ascii.c **** ***************************************************************************************************
 109:..\..\..\..\..\..\Software\uC-LIB/lib_ascii.c **** *                                            LOCAL TABLES
 110:..\..\..\..\..\..\Software\uC-LIB/lib_ascii.c **** ***************************************************************************************************
 111:..\..\..\..\..\..\Software\uC-LIB/lib_ascii.c **** */
 112:..\..\..\..\..\..\Software\uC-LIB/lib_ascii.c **** 
 113:..\..\..\..\..\..\Software\uC-LIB/lib_ascii.c **** 
 114:..\..\..\..\..\..\Software\uC-LIB/lib_ascii.c **** /*
 115:..\..\..\..\..\..\Software\uC-LIB/lib_ascii.c **** ***************************************************************************************************
 116:..\..\..\..\..\..\Software\uC-LIB/lib_ascii.c **** *                                       LOCAL GLOBAL VARIABLES
 117:..\..\..\..\..\..\Software\uC-LIB/lib_ascii.c **** ***************************************************************************************************
 118:..\..\..\..\..\..\Software\uC-LIB/lib_ascii.c **** */
 119:..\..\..\..\..\..\Software\uC-LIB/lib_ascii.c **** 
 120:..\..\..\..\..\..\Software\uC-LIB/lib_ascii.c **** 
 121:..\..\..\..\..\..\Software\uC-LIB/lib_ascii.c **** /*
 122:..\..\..\..\..\..\Software\uC-LIB/lib_ascii.c **** ***************************************************************************************************
 123:..\..\..\..\..\..\Software\uC-LIB/lib_ascii.c **** *                                      LOCAL FUNCTION PROTOTYPES
 124:..\..\..\..\..\..\Software\uC-LIB/lib_ascii.c **** ***************************************************************************************************
 125:..\..\..\..\..\..\Software\uC-LIB/lib_ascii.c **** */
 126:..\..\..\..\..\..\Software\uC-LIB/lib_ascii.c **** 
 127:..\..\..\..\..\..\Software\uC-LIB/lib_ascii.c **** 
 128:..\..\..\..\..\..\Software\uC-LIB/lib_ascii.c **** /*
 129:..\..\..\..\..\..\Software\uC-LIB/lib_ascii.c **** ***************************************************************************************************
 130:..\..\..\..\..\..\Software\uC-LIB/lib_ascii.c **** *                                     LOCAL CONFIGURATION ERRORS
 131:..\..\..\..\..\..\Software\uC-LIB/lib_ascii.c **** ***************************************************************************************************
 132:..\..\..\..\..\..\Software\uC-LIB/lib_ascii.c **** */
 133:..\..\..\..\..\..\Software\uC-LIB/lib_ascii.c **** 
 134:..\..\..\..\..\..\Software\uC-LIB/lib_ascii.c **** 
 135:..\..\..\..\..\..\Software\uC-LIB/lib_ascii.c **** /*$PAGE*/
 136:..\..\..\..\..\..\Software\uC-LIB/lib_ascii.c **** /*
 137:..\..\..\..\..\..\Software\uC-LIB/lib_ascii.c **** ***************************************************************************************************
 138:..\..\..\..\..\..\Software\uC-LIB/lib_ascii.c **** *                                           ASCII_IsAlpha()
 139:..\..\..\..\..\..\Software\uC-LIB/lib_ascii.c **** *
 140:..\..\..\..\..\..\Software\uC-LIB/lib_ascii.c **** * Description : Determine whether a character is an alphabetic character.
 141:..\..\..\..\..\..\Software\uC-LIB/lib_ascii.c **** *
 142:..\..\..\..\..\..\Software\uC-LIB/lib_ascii.c **** * Argument(s) : c           Character to examine.
 143:..\..\..\..\..\..\Software\uC-LIB/lib_ascii.c **** *
 144:..\..\..\..\..\..\Software\uC-LIB/lib_ascii.c **** * Return(s)   : DEF_YES, if character is     an alphabetic character.
ARM GAS  C:\Users\EDULU~1.DES\AppData\Local\Temp\ccrgvmSp.s 			page 4


 145:..\..\..\..\..\..\Software\uC-LIB/lib_ascii.c **** *
 146:..\..\..\..\..\..\Software\uC-LIB/lib_ascii.c **** *               DEF_NO,	 if character is NOT an alphabetic character.
 147:..\..\..\..\..\..\Software\uC-LIB/lib_ascii.c **** *
 148:..\..\..\..\..\..\Software\uC-LIB/lib_ascii.c **** * Caller(s)   : Application.
 149:..\..\..\..\..\..\Software\uC-LIB/lib_ascii.c **** *
 150:..\..\..\..\..\..\Software\uC-LIB/lib_ascii.c **** * Note(s)     : (1) ISO/IEC 9899:TC2, Section 7.4.1.2.(2) states that "isalpha() returns true only 
 151:..\..\..\..\..\..\Software\uC-LIB/lib_ascii.c **** *                   characters for which isupper() or islower() is true".
 152:..\..\..\..\..\..\Software\uC-LIB/lib_ascii.c **** ***************************************************************************************************
 153:..\..\..\..\..\..\Software\uC-LIB/lib_ascii.c **** */
 154:..\..\..\..\..\..\Software\uC-LIB/lib_ascii.c **** 
 155:..\..\..\..\..\..\Software\uC-LIB/lib_ascii.c **** CPU_BOOLEAN  ASCII_IsAlpha (CPU_CHAR  c)
 156:..\..\..\..\..\..\Software\uC-LIB/lib_ascii.c **** {
  28              		.loc 1 156 1 view -0
  29              		.cfi_startproc
  30              		@ args = 0, pretend = 0, frame = 0
  31              		@ frame_needed = 0, uses_anonymous_args = 0
  32              		@ link register save eliminated.
 157:..\..\..\..\..\..\Software\uC-LIB/lib_ascii.c ****     CPU_BOOLEAN  alpha;
  33              		.loc 1 157 5 view .LVU1
 158:..\..\..\..\..\..\Software\uC-LIB/lib_ascii.c **** 
 159:..\..\..\..\..\..\Software\uC-LIB/lib_ascii.c **** 
 160:..\..\..\..\..\..\Software\uC-LIB/lib_ascii.c ****     alpha = ASCII_IS_ALPHA(c);
  34              		.loc 1 160 5 view .LVU2
  35              		.loc 1 160 13 is_stmt 0 view .LVU3
  36 0000 0300     		movs	r3, r0
  37 0002 413B     		subs	r3, r3, #65
  38 0004 DBB2     		uxtb	r3, r3
  39              		.loc 1 160 11 view .LVU4
  40 0006 192B     		cmp	r3, #25
  41 0008 05D9     		bls	.L3
  42              		.loc 1 160 13 discriminator 2 view .LVU5
  43 000a 6138     		subs	r0, r0, #97
  44              	.LVL1:
  45              		.loc 1 160 13 discriminator 2 view .LVU6
  46 000c C0B2     		uxtb	r0, r0
  47 000e 1928     		cmp	r0, #25
  48 0010 03D8     		bhi	.L4
  49              		.loc 1 160 11 view .LVU7
  50 0012 0120     		movs	r0, #1
  51 0014 00E0     		b	.L2
  52              	.LVL2:
  53              	.L3:
  54              		.loc 1 160 11 view .LVU8
  55 0016 0120     		movs	r0, #1
  56              	.LVL3:
  57              	.L2:
 161:..\..\..\..\..\..\Software\uC-LIB/lib_ascii.c **** 
 162:..\..\..\..\..\..\Software\uC-LIB/lib_ascii.c ****     return (alpha);
  58              		.loc 1 162 5 is_stmt 1 discriminator 6 view .LVU9
 163:..\..\..\..\..\..\Software\uC-LIB/lib_ascii.c **** }
  59              		.loc 1 163 1 is_stmt 0 discriminator 6 view .LVU10
  60              		@ sp needed
  61 0018 7047     		bx	lr
  62              	.LVL4:
  63              	.L4:
 160:..\..\..\..\..\..\Software\uC-LIB/lib_ascii.c **** 
  64              		.loc 1 160 11 view .LVU11
ARM GAS  C:\Users\EDULU~1.DES\AppData\Local\Temp\ccrgvmSp.s 			page 5


  65 001a 0020     		movs	r0, #0
  66 001c FCE7     		b	.L2
  67              		.cfi_endproc
  68              	.LFE0:
  69              		.size	ASCII_IsAlpha, .-ASCII_IsAlpha
  70              		.section	.text.ASCII_IsAlphaNum,"ax",%progbits
  71              		.align	1
  72              		.global	ASCII_IsAlphaNum
  73              		.syntax unified
  74              		.code	16
  75              		.thumb_func
  76              		.fpu softvfp
  77              		.type	ASCII_IsAlphaNum, %function
  78              	ASCII_IsAlphaNum:
  79              	.LVL5:
  80              	.LFB1:
 164:..\..\..\..\..\..\Software\uC-LIB/lib_ascii.c **** 
 165:..\..\..\..\..\..\Software\uC-LIB/lib_ascii.c **** 
 166:..\..\..\..\..\..\Software\uC-LIB/lib_ascii.c **** /*
 167:..\..\..\..\..\..\Software\uC-LIB/lib_ascii.c **** ***************************************************************************************************
 168:..\..\..\..\..\..\Software\uC-LIB/lib_ascii.c **** *                                         ASCII_IsAlphaNum()
 169:..\..\..\..\..\..\Software\uC-LIB/lib_ascii.c **** *
 170:..\..\..\..\..\..\Software\uC-LIB/lib_ascii.c **** * Description : Determine whether a character is an alphanumeric character.
 171:..\..\..\..\..\..\Software\uC-LIB/lib_ascii.c **** *
 172:..\..\..\..\..\..\Software\uC-LIB/lib_ascii.c **** * Argument(s) : c           Character to examine.
 173:..\..\..\..\..\..\Software\uC-LIB/lib_ascii.c **** *
 174:..\..\..\..\..\..\Software\uC-LIB/lib_ascii.c **** * Return(s)   : DEF_YES, if character is     an alphanumeric character.
 175:..\..\..\..\..\..\Software\uC-LIB/lib_ascii.c **** *
 176:..\..\..\..\..\..\Software\uC-LIB/lib_ascii.c **** *               DEF_NO,	 if character is NOT an alphanumeric character.
 177:..\..\..\..\..\..\Software\uC-LIB/lib_ascii.c **** *
 178:..\..\..\..\..\..\Software\uC-LIB/lib_ascii.c **** * Caller(s)   : Application.
 179:..\..\..\..\..\..\Software\uC-LIB/lib_ascii.c **** *
 180:..\..\..\..\..\..\Software\uC-LIB/lib_ascii.c **** * Note(s)     : (1) ISO/IEC 9899:TC2, Section 7.4.1.1.(2) states that "isalnum() ... tests for any 
 181:..\..\..\..\..\..\Software\uC-LIB/lib_ascii.c **** *                   for which isalpha() or isdigit() is true".
 182:..\..\..\..\..\..\Software\uC-LIB/lib_ascii.c **** ***************************************************************************************************
 183:..\..\..\..\..\..\Software\uC-LIB/lib_ascii.c **** */
 184:..\..\..\..\..\..\Software\uC-LIB/lib_ascii.c **** 
 185:..\..\..\..\..\..\Software\uC-LIB/lib_ascii.c **** CPU_BOOLEAN  ASCII_IsAlphaNum (CPU_CHAR  c)
 186:..\..\..\..\..\..\Software\uC-LIB/lib_ascii.c **** {
  81              		.loc 1 186 1 is_stmt 1 view -0
  82              		.cfi_startproc
  83              		@ args = 0, pretend = 0, frame = 0
  84              		@ frame_needed = 0, uses_anonymous_args = 0
  85              		@ link register save eliminated.
 187:..\..\..\..\..\..\Software\uC-LIB/lib_ascii.c ****     CPU_BOOLEAN  alpha_num;
  86              		.loc 1 187 5 view .LVU13
 188:..\..\..\..\..\..\Software\uC-LIB/lib_ascii.c **** 
 189:..\..\..\..\..\..\Software\uC-LIB/lib_ascii.c **** 
 190:..\..\..\..\..\..\Software\uC-LIB/lib_ascii.c ****     alpha_num = ASCII_IS_ALPHA_NUM(c);
  87              		.loc 1 190 5 view .LVU14
  88              		.loc 1 190 17 is_stmt 0 view .LVU15
  89 0000 0300     		movs	r3, r0
  90 0002 413B     		subs	r3, r3, #65
  91 0004 DBB2     		uxtb	r3, r3
  92              		.loc 1 190 15 view .LVU16
  93 0006 192B     		cmp	r3, #25
  94 0008 0AD9     		bls	.L7
ARM GAS  C:\Users\EDULU~1.DES\AppData\Local\Temp\ccrgvmSp.s 			page 6


  95              		.loc 1 190 17 discriminator 2 view .LVU17
  96 000a 0300     		movs	r3, r0
  97 000c 613B     		subs	r3, r3, #97
  98 000e DBB2     		uxtb	r3, r3
  99 0010 192B     		cmp	r3, #25
 100 0012 07D9     		bls	.L8
 101              		.loc 1 190 17 discriminator 4 view .LVU18
 102 0014 3038     		subs	r0, r0, #48
 103              	.LVL6:
 104              		.loc 1 190 17 discriminator 4 view .LVU19
 105 0016 C0B2     		uxtb	r0, r0
 106 0018 0928     		cmp	r0, #9
 107 001a 05D8     		bhi	.L9
 108              		.loc 1 190 15 view .LVU20
 109 001c 0120     		movs	r0, #1
 110 001e 00E0     		b	.L6
 111              	.LVL7:
 112              	.L7:
 113              		.loc 1 190 15 view .LVU21
 114 0020 0120     		movs	r0, #1
 115              	.LVL8:
 116              	.L6:
 191:..\..\..\..\..\..\Software\uC-LIB/lib_ascii.c **** 
 192:..\..\..\..\..\..\Software\uC-LIB/lib_ascii.c ****     return (alpha_num);
 117              		.loc 1 192 5 is_stmt 1 discriminator 8 view .LVU22
 193:..\..\..\..\..\..\Software\uC-LIB/lib_ascii.c **** }
 118              		.loc 1 193 1 is_stmt 0 discriminator 8 view .LVU23
 119              		@ sp needed
 120 0022 7047     		bx	lr
 121              	.LVL9:
 122              	.L8:
 190:..\..\..\..\..\..\Software\uC-LIB/lib_ascii.c **** 
 123              		.loc 1 190 15 view .LVU24
 124 0024 0120     		movs	r0, #1
 125              	.LVL10:
 190:..\..\..\..\..\..\Software\uC-LIB/lib_ascii.c **** 
 126              		.loc 1 190 15 view .LVU25
 127 0026 FCE7     		b	.L6
 128              	.L9:
 129 0028 0020     		movs	r0, #0
 130 002a FAE7     		b	.L6
 131              		.cfi_endproc
 132              	.LFE1:
 133              		.size	ASCII_IsAlphaNum, .-ASCII_IsAlphaNum
 134              		.section	.text.ASCII_IsLower,"ax",%progbits
 135              		.align	1
 136              		.global	ASCII_IsLower
 137              		.syntax unified
 138              		.code	16
 139              		.thumb_func
 140              		.fpu softvfp
 141              		.type	ASCII_IsLower, %function
 142              	ASCII_IsLower:
 143              	.LVL11:
 144              	.LFB2:
 194:..\..\..\..\..\..\Software\uC-LIB/lib_ascii.c **** 
 195:..\..\..\..\..\..\Software\uC-LIB/lib_ascii.c **** 
ARM GAS  C:\Users\EDULU~1.DES\AppData\Local\Temp\ccrgvmSp.s 			page 7


 196:..\..\..\..\..\..\Software\uC-LIB/lib_ascii.c **** /*$PAGE*/
 197:..\..\..\..\..\..\Software\uC-LIB/lib_ascii.c **** /*
 198:..\..\..\..\..\..\Software\uC-LIB/lib_ascii.c **** ***************************************************************************************************
 199:..\..\..\..\..\..\Software\uC-LIB/lib_ascii.c **** *                                           ASCII_IsLower()
 200:..\..\..\..\..\..\Software\uC-LIB/lib_ascii.c **** *
 201:..\..\..\..\..\..\Software\uC-LIB/lib_ascii.c **** * Description : Determine whether a character is a lowercase alphabetic character.
 202:..\..\..\..\..\..\Software\uC-LIB/lib_ascii.c **** *
 203:..\..\..\..\..\..\Software\uC-LIB/lib_ascii.c **** * Argument(s) : c           Character to examine.
 204:..\..\..\..\..\..\Software\uC-LIB/lib_ascii.c **** *
 205:..\..\..\..\..\..\Software\uC-LIB/lib_ascii.c **** * Return(s)   : DEF_YES, if character is     a lowercase alphabetic character.
 206:..\..\..\..\..\..\Software\uC-LIB/lib_ascii.c **** *
 207:..\..\..\..\..\..\Software\uC-LIB/lib_ascii.c **** *               DEF_NO,	 if character is NOT a lowercase alphabetic character.
 208:..\..\..\..\..\..\Software\uC-LIB/lib_ascii.c **** *
 209:..\..\..\..\..\..\Software\uC-LIB/lib_ascii.c **** * Caller(s)   : Application.
 210:..\..\..\..\..\..\Software\uC-LIB/lib_ascii.c **** *
 211:..\..\..\..\..\..\Software\uC-LIB/lib_ascii.c **** * Note(s)     : (1) ISO/IEC 9899:TC2, Section 7.4.1.7.(2)  states that "islower() returns true only
 212:..\..\..\..\..\..\Software\uC-LIB/lib_ascii.c **** *                   the lowercase letters".
 213:..\..\..\..\..\..\Software\uC-LIB/lib_ascii.c **** ***************************************************************************************************
 214:..\..\..\..\..\..\Software\uC-LIB/lib_ascii.c **** */
 215:..\..\..\..\..\..\Software\uC-LIB/lib_ascii.c **** 
 216:..\..\..\..\..\..\Software\uC-LIB/lib_ascii.c **** CPU_BOOLEAN  ASCII_IsLower (CPU_CHAR  c)
 217:..\..\..\..\..\..\Software\uC-LIB/lib_ascii.c **** {
 145              		.loc 1 217 1 is_stmt 1 view -0
 146              		.cfi_startproc
 147              		@ args = 0, pretend = 0, frame = 0
 148              		@ frame_needed = 0, uses_anonymous_args = 0
 149              		@ link register save eliminated.
 218:..\..\..\..\..\..\Software\uC-LIB/lib_ascii.c ****     CPU_BOOLEAN  lower;
 150              		.loc 1 218 5 view .LVU27
 219:..\..\..\..\..\..\Software\uC-LIB/lib_ascii.c **** 
 220:..\..\..\..\..\..\Software\uC-LIB/lib_ascii.c **** 
 221:..\..\..\..\..\..\Software\uC-LIB/lib_ascii.c ****     lower = ASCII_IS_LOWER(c);
 151              		.loc 1 221 5 view .LVU28
 152              		.loc 1 221 13 is_stmt 0 view .LVU29
 153 0000 6138     		subs	r0, r0, #97
 154              	.LVL12:
 155              		.loc 1 221 13 view .LVU30
 156 0002 C0B2     		uxtb	r0, r0
 157              		.loc 1 221 11 view .LVU31
 158 0004 1928     		cmp	r0, #25
 159 0006 01D8     		bhi	.L12
 160 0008 0120     		movs	r0, #1
 161              	.L11:
 162              	.LVL13:
 222:..\..\..\..\..\..\Software\uC-LIB/lib_ascii.c **** 
 223:..\..\..\..\..\..\Software\uC-LIB/lib_ascii.c ****     return (lower);
 163              		.loc 1 223 5 is_stmt 1 discriminator 4 view .LVU32
 224:..\..\..\..\..\..\Software\uC-LIB/lib_ascii.c **** }
 164              		.loc 1 224 1 is_stmt 0 discriminator 4 view .LVU33
 165              		@ sp needed
 166 000a 7047     		bx	lr
 167              	.LVL14:
 168              	.L12:
 221:..\..\..\..\..\..\Software\uC-LIB/lib_ascii.c **** 
 169              		.loc 1 221 11 view .LVU34
 170 000c 0020     		movs	r0, #0
 171 000e FCE7     		b	.L11
ARM GAS  C:\Users\EDULU~1.DES\AppData\Local\Temp\ccrgvmSp.s 			page 8


 172              		.cfi_endproc
 173              	.LFE2:
 174              		.size	ASCII_IsLower, .-ASCII_IsLower
 175              		.section	.text.ASCII_IsUpper,"ax",%progbits
 176              		.align	1
 177              		.global	ASCII_IsUpper
 178              		.syntax unified
 179              		.code	16
 180              		.thumb_func
 181              		.fpu softvfp
 182              		.type	ASCII_IsUpper, %function
 183              	ASCII_IsUpper:
 184              	.LVL15:
 185              	.LFB3:
 225:..\..\..\..\..\..\Software\uC-LIB/lib_ascii.c **** 
 226:..\..\..\..\..\..\Software\uC-LIB/lib_ascii.c **** 
 227:..\..\..\..\..\..\Software\uC-LIB/lib_ascii.c **** /*
 228:..\..\..\..\..\..\Software\uC-LIB/lib_ascii.c **** ***************************************************************************************************
 229:..\..\..\..\..\..\Software\uC-LIB/lib_ascii.c **** *                                           ASCII_IsUpper()
 230:..\..\..\..\..\..\Software\uC-LIB/lib_ascii.c **** *
 231:..\..\..\..\..\..\Software\uC-LIB/lib_ascii.c **** * Description : Determine whether a character is an uppercase alphabetic character.
 232:..\..\..\..\..\..\Software\uC-LIB/lib_ascii.c **** *
 233:..\..\..\..\..\..\Software\uC-LIB/lib_ascii.c **** * Argument(s) : c           Character to examine.
 234:..\..\..\..\..\..\Software\uC-LIB/lib_ascii.c **** *
 235:..\..\..\..\..\..\Software\uC-LIB/lib_ascii.c **** * Return(s)   : DEF_YES, if character is     an uppercase alphabetic character.
 236:..\..\..\..\..\..\Software\uC-LIB/lib_ascii.c **** *
 237:..\..\..\..\..\..\Software\uC-LIB/lib_ascii.c **** *               DEF_NO,	 if character is NOT an uppercase alphabetic character.
 238:..\..\..\..\..\..\Software\uC-LIB/lib_ascii.c **** *
 239:..\..\..\..\..\..\Software\uC-LIB/lib_ascii.c **** * Caller(s)   : Application.
 240:..\..\..\..\..\..\Software\uC-LIB/lib_ascii.c **** *
 241:..\..\..\..\..\..\Software\uC-LIB/lib_ascii.c **** * Note(s)     : (1) ISO/IEC 9899:TC2, Section 7.4.1.11.(2) states that "isupper() returns true only
 242:..\..\..\..\..\..\Software\uC-LIB/lib_ascii.c **** *                   the uppercase letters".
 243:..\..\..\..\..\..\Software\uC-LIB/lib_ascii.c **** ***************************************************************************************************
 244:..\..\..\..\..\..\Software\uC-LIB/lib_ascii.c **** */
 245:..\..\..\..\..\..\Software\uC-LIB/lib_ascii.c **** 
 246:..\..\..\..\..\..\Software\uC-LIB/lib_ascii.c **** CPU_BOOLEAN  ASCII_IsUpper (CPU_CHAR  c)
 247:..\..\..\..\..\..\Software\uC-LIB/lib_ascii.c **** {
 186              		.loc 1 247 1 is_stmt 1 view -0
 187              		.cfi_startproc
 188              		@ args = 0, pretend = 0, frame = 0
 189              		@ frame_needed = 0, uses_anonymous_args = 0
 190              		@ link register save eliminated.
 248:..\..\..\..\..\..\Software\uC-LIB/lib_ascii.c ****     CPU_BOOLEAN  upper;
 191              		.loc 1 248 5 view .LVU36
 249:..\..\..\..\..\..\Software\uC-LIB/lib_ascii.c **** 
 250:..\..\..\..\..\..\Software\uC-LIB/lib_ascii.c **** 
 251:..\..\..\..\..\..\Software\uC-LIB/lib_ascii.c ****     upper = ASCII_IS_UPPER(c);
 192              		.loc 1 251 5 view .LVU37
 193              		.loc 1 251 13 is_stmt 0 view .LVU38
 194 0000 4138     		subs	r0, r0, #65
 195              	.LVL16:
 196              		.loc 1 251 13 view .LVU39
 197 0002 C0B2     		uxtb	r0, r0
 198              		.loc 1 251 11 view .LVU40
 199 0004 1928     		cmp	r0, #25
 200 0006 01D8     		bhi	.L15
 201 0008 0120     		movs	r0, #1
ARM GAS  C:\Users\EDULU~1.DES\AppData\Local\Temp\ccrgvmSp.s 			page 9


 202              	.L14:
 203              	.LVL17:
 252:..\..\..\..\..\..\Software\uC-LIB/lib_ascii.c **** 
 253:..\..\..\..\..\..\Software\uC-LIB/lib_ascii.c ****     return (upper);
 204              		.loc 1 253 5 is_stmt 1 discriminator 4 view .LVU41
 254:..\..\..\..\..\..\Software\uC-LIB/lib_ascii.c **** }
 205              		.loc 1 254 1 is_stmt 0 discriminator 4 view .LVU42
 206              		@ sp needed
 207 000a 7047     		bx	lr
 208              	.LVL18:
 209              	.L15:
 251:..\..\..\..\..\..\Software\uC-LIB/lib_ascii.c **** 
 210              		.loc 1 251 11 view .LVU43
 211 000c 0020     		movs	r0, #0
 212 000e FCE7     		b	.L14
 213              		.cfi_endproc
 214              	.LFE3:
 215              		.size	ASCII_IsUpper, .-ASCII_IsUpper
 216              		.section	.text.ASCII_IsDig,"ax",%progbits
 217              		.align	1
 218              		.global	ASCII_IsDig
 219              		.syntax unified
 220              		.code	16
 221              		.thumb_func
 222              		.fpu softvfp
 223              		.type	ASCII_IsDig, %function
 224              	ASCII_IsDig:
 225              	.LVL19:
 226              	.LFB4:
 255:..\..\..\..\..\..\Software\uC-LIB/lib_ascii.c **** 
 256:..\..\..\..\..\..\Software\uC-LIB/lib_ascii.c **** 
 257:..\..\..\..\..\..\Software\uC-LIB/lib_ascii.c **** /*$PAGE*/
 258:..\..\..\..\..\..\Software\uC-LIB/lib_ascii.c **** /*
 259:..\..\..\..\..\..\Software\uC-LIB/lib_ascii.c **** ***************************************************************************************************
 260:..\..\..\..\..\..\Software\uC-LIB/lib_ascii.c **** *                                            ASCII_IsDig()
 261:..\..\..\..\..\..\Software\uC-LIB/lib_ascii.c **** *
 262:..\..\..\..\..\..\Software\uC-LIB/lib_ascii.c **** * Description : Determine whether a character is a decimal-digit character.
 263:..\..\..\..\..\..\Software\uC-LIB/lib_ascii.c **** *
 264:..\..\..\..\..\..\Software\uC-LIB/lib_ascii.c **** * Argument(s) : c           Character to examine.
 265:..\..\..\..\..\..\Software\uC-LIB/lib_ascii.c **** *
 266:..\..\..\..\..\..\Software\uC-LIB/lib_ascii.c **** * Return(s)   : DEF_YES, if character is     a decimal-digit character.
 267:..\..\..\..\..\..\Software\uC-LIB/lib_ascii.c **** *
 268:..\..\..\..\..\..\Software\uC-LIB/lib_ascii.c **** *               DEF_NO,	 if character is NOT a decimal-digit character.
 269:..\..\..\..\..\..\Software\uC-LIB/lib_ascii.c **** *
 270:..\..\..\..\..\..\Software\uC-LIB/lib_ascii.c **** * Caller(s)   : Application.
 271:..\..\..\..\..\..\Software\uC-LIB/lib_ascii.c **** *
 272:..\..\..\..\..\..\Software\uC-LIB/lib_ascii.c **** * Note(s)     : (1) ISO/IEC 9899:TC2, Section 7.4.1.5.(2)  states that "isdigit()  ... tests for an
 273:..\..\..\..\..\..\Software\uC-LIB/lib_ascii.c **** *                   decimal-digit character".
 274:..\..\..\..\..\..\Software\uC-LIB/lib_ascii.c **** ***************************************************************************************************
 275:..\..\..\..\..\..\Software\uC-LIB/lib_ascii.c **** */
 276:..\..\..\..\..\..\Software\uC-LIB/lib_ascii.c **** 
 277:..\..\..\..\..\..\Software\uC-LIB/lib_ascii.c **** CPU_BOOLEAN  ASCII_IsDig (CPU_CHAR  c)
 278:..\..\..\..\..\..\Software\uC-LIB/lib_ascii.c **** {
 227              		.loc 1 278 1 is_stmt 1 view -0
 228              		.cfi_startproc
 229              		@ args = 0, pretend = 0, frame = 0
 230              		@ frame_needed = 0, uses_anonymous_args = 0
ARM GAS  C:\Users\EDULU~1.DES\AppData\Local\Temp\ccrgvmSp.s 			page 10


 231              		@ link register save eliminated.
 279:..\..\..\..\..\..\Software\uC-LIB/lib_ascii.c ****     CPU_BOOLEAN  dig;
 232              		.loc 1 279 5 view .LVU45
 280:..\..\..\..\..\..\Software\uC-LIB/lib_ascii.c **** 
 281:..\..\..\..\..\..\Software\uC-LIB/lib_ascii.c **** 
 282:..\..\..\..\..\..\Software\uC-LIB/lib_ascii.c ****     dig = ASCII_IS_DIG(c);
 233              		.loc 1 282 5 view .LVU46
 234              		.loc 1 282 11 is_stmt 0 view .LVU47
 235 0000 3038     		subs	r0, r0, #48
 236              	.LVL20:
 237              		.loc 1 282 11 view .LVU48
 238 0002 C0B2     		uxtb	r0, r0
 239              		.loc 1 282 9 view .LVU49
 240 0004 0928     		cmp	r0, #9
 241 0006 01D8     		bhi	.L18
 242 0008 0120     		movs	r0, #1
 243              	.L17:
 244              	.LVL21:
 283:..\..\..\..\..\..\Software\uC-LIB/lib_ascii.c **** 
 284:..\..\..\..\..\..\Software\uC-LIB/lib_ascii.c ****     return (dig);
 245              		.loc 1 284 5 is_stmt 1 discriminator 4 view .LVU50
 285:..\..\..\..\..\..\Software\uC-LIB/lib_ascii.c **** }
 246              		.loc 1 285 1 is_stmt 0 discriminator 4 view .LVU51
 247              		@ sp needed
 248 000a 7047     		bx	lr
 249              	.LVL22:
 250              	.L18:
 282:..\..\..\..\..\..\Software\uC-LIB/lib_ascii.c **** 
 251              		.loc 1 282 9 view .LVU52
 252 000c 0020     		movs	r0, #0
 253 000e FCE7     		b	.L17
 254              		.cfi_endproc
 255              	.LFE4:
 256              		.size	ASCII_IsDig, .-ASCII_IsDig
 257              		.section	.text.ASCII_IsDigOct,"ax",%progbits
 258              		.align	1
 259              		.global	ASCII_IsDigOct
 260              		.syntax unified
 261              		.code	16
 262              		.thumb_func
 263              		.fpu softvfp
 264              		.type	ASCII_IsDigOct, %function
 265              	ASCII_IsDigOct:
 266              	.LVL23:
 267              	.LFB5:
 286:..\..\..\..\..\..\Software\uC-LIB/lib_ascii.c **** 
 287:..\..\..\..\..\..\Software\uC-LIB/lib_ascii.c **** 
 288:..\..\..\..\..\..\Software\uC-LIB/lib_ascii.c **** /*
 289:..\..\..\..\..\..\Software\uC-LIB/lib_ascii.c **** ***************************************************************************************************
 290:..\..\..\..\..\..\Software\uC-LIB/lib_ascii.c **** *                                          ASCII_IsDigOct()
 291:..\..\..\..\..\..\Software\uC-LIB/lib_ascii.c **** *
 292:..\..\..\..\..\..\Software\uC-LIB/lib_ascii.c **** * Description : Determine whether a character is an octal-digit character.
 293:..\..\..\..\..\..\Software\uC-LIB/lib_ascii.c **** *
 294:..\..\..\..\..\..\Software\uC-LIB/lib_ascii.c **** * Argument(s) : c           Character to examine.
 295:..\..\..\..\..\..\Software\uC-LIB/lib_ascii.c **** *
 296:..\..\..\..\..\..\Software\uC-LIB/lib_ascii.c **** * Return(s)   : DEF_YES, if character is     an octal-digit character.
 297:..\..\..\..\..\..\Software\uC-LIB/lib_ascii.c **** *
ARM GAS  C:\Users\EDULU~1.DES\AppData\Local\Temp\ccrgvmSp.s 			page 11


 298:..\..\..\..\..\..\Software\uC-LIB/lib_ascii.c **** *               DEF_NO,	 if character is NOT an octal-digit character.
 299:..\..\..\..\..\..\Software\uC-LIB/lib_ascii.c **** *
 300:..\..\..\..\..\..\Software\uC-LIB/lib_ascii.c **** * Caller(s)   : Application.
 301:..\..\..\..\..\..\Software\uC-LIB/lib_ascii.c **** *
 302:..\..\..\..\..\..\Software\uC-LIB/lib_ascii.c **** * Note(s)     : none.
 303:..\..\..\..\..\..\Software\uC-LIB/lib_ascii.c **** ***************************************************************************************************
 304:..\..\..\..\..\..\Software\uC-LIB/lib_ascii.c **** */
 305:..\..\..\..\..\..\Software\uC-LIB/lib_ascii.c **** 
 306:..\..\..\..\..\..\Software\uC-LIB/lib_ascii.c **** CPU_BOOLEAN  ASCII_IsDigOct (CPU_CHAR  c)
 307:..\..\..\..\..\..\Software\uC-LIB/lib_ascii.c **** {
 268              		.loc 1 307 1 is_stmt 1 view -0
 269              		.cfi_startproc
 270              		@ args = 0, pretend = 0, frame = 0
 271              		@ frame_needed = 0, uses_anonymous_args = 0
 272              		@ link register save eliminated.
 308:..\..\..\..\..\..\Software\uC-LIB/lib_ascii.c ****     CPU_BOOLEAN  dig_oct;
 273              		.loc 1 308 5 view .LVU54
 309:..\..\..\..\..\..\Software\uC-LIB/lib_ascii.c **** 
 310:..\..\..\..\..\..\Software\uC-LIB/lib_ascii.c **** 
 311:..\..\..\..\..\..\Software\uC-LIB/lib_ascii.c ****     dig_oct = ASCII_IS_DIG_OCT(c);
 274              		.loc 1 311 5 view .LVU55
 275              		.loc 1 311 15 is_stmt 0 view .LVU56
 276 0000 3038     		subs	r0, r0, #48
 277              	.LVL24:
 278              		.loc 1 311 15 view .LVU57
 279 0002 C0B2     		uxtb	r0, r0
 280              		.loc 1 311 13 view .LVU58
 281 0004 0728     		cmp	r0, #7
 282 0006 01D8     		bhi	.L21
 283 0008 0120     		movs	r0, #1
 284              	.L20:
 285              	.LVL25:
 312:..\..\..\..\..\..\Software\uC-LIB/lib_ascii.c **** 
 313:..\..\..\..\..\..\Software\uC-LIB/lib_ascii.c ****     return (dig_oct);
 286              		.loc 1 313 5 is_stmt 1 discriminator 4 view .LVU59
 314:..\..\..\..\..\..\Software\uC-LIB/lib_ascii.c **** }
 287              		.loc 1 314 1 is_stmt 0 discriminator 4 view .LVU60
 288              		@ sp needed
 289 000a 7047     		bx	lr
 290              	.LVL26:
 291              	.L21:
 311:..\..\..\..\..\..\Software\uC-LIB/lib_ascii.c **** 
 292              		.loc 1 311 13 view .LVU61
 293 000c 0020     		movs	r0, #0
 294 000e FCE7     		b	.L20
 295              		.cfi_endproc
 296              	.LFE5:
 297              		.size	ASCII_IsDigOct, .-ASCII_IsDigOct
 298              		.section	.text.ASCII_IsDigHex,"ax",%progbits
 299              		.align	1
 300              		.global	ASCII_IsDigHex
 301              		.syntax unified
 302              		.code	16
 303              		.thumb_func
 304              		.fpu softvfp
 305              		.type	ASCII_IsDigHex, %function
 306              	ASCII_IsDigHex:
ARM GAS  C:\Users\EDULU~1.DES\AppData\Local\Temp\ccrgvmSp.s 			page 12


 307              	.LVL27:
 308              	.LFB6:
 315:..\..\..\..\..\..\Software\uC-LIB/lib_ascii.c **** 
 316:..\..\..\..\..\..\Software\uC-LIB/lib_ascii.c **** 
 317:..\..\..\..\..\..\Software\uC-LIB/lib_ascii.c **** /*
 318:..\..\..\..\..\..\Software\uC-LIB/lib_ascii.c **** ***************************************************************************************************
 319:..\..\..\..\..\..\Software\uC-LIB/lib_ascii.c **** *                                          ASCII_IsDigHex()
 320:..\..\..\..\..\..\Software\uC-LIB/lib_ascii.c **** *
 321:..\..\..\..\..\..\Software\uC-LIB/lib_ascii.c **** * Description : Determine whether a character is a hexadecimal-digit character.
 322:..\..\..\..\..\..\Software\uC-LIB/lib_ascii.c **** *
 323:..\..\..\..\..\..\Software\uC-LIB/lib_ascii.c **** * Argument(s) : c           Character to examine.
 324:..\..\..\..\..\..\Software\uC-LIB/lib_ascii.c **** *
 325:..\..\..\..\..\..\Software\uC-LIB/lib_ascii.c **** * Return(s)   : DEF_YES, if character is     a hexadecimal-digit character.
 326:..\..\..\..\..\..\Software\uC-LIB/lib_ascii.c **** *
 327:..\..\..\..\..\..\Software\uC-LIB/lib_ascii.c **** *               DEF_NO,	 if character is NOT a hexadecimal-digit character.
 328:..\..\..\..\..\..\Software\uC-LIB/lib_ascii.c **** *
 329:..\..\..\..\..\..\Software\uC-LIB/lib_ascii.c **** * Caller(s)   : Application.
 330:..\..\..\..\..\..\Software\uC-LIB/lib_ascii.c **** *
 331:..\..\..\..\..\..\Software\uC-LIB/lib_ascii.c **** * Note(s)     : (1) ISO/IEC 9899:TC2, Section 7.4.1.12.(2) states that "isxdigit() ... tests for an
 332:..\..\..\..\..\..\Software\uC-LIB/lib_ascii.c **** *                   hexadecimal-digit character".
 333:..\..\..\..\..\..\Software\uC-LIB/lib_ascii.c **** ***************************************************************************************************
 334:..\..\..\..\..\..\Software\uC-LIB/lib_ascii.c **** */
 335:..\..\..\..\..\..\Software\uC-LIB/lib_ascii.c **** 
 336:..\..\..\..\..\..\Software\uC-LIB/lib_ascii.c **** CPU_BOOLEAN  ASCII_IsDigHex (CPU_CHAR  c)
 337:..\..\..\..\..\..\Software\uC-LIB/lib_ascii.c **** {
 309              		.loc 1 337 1 is_stmt 1 view -0
 310              		.cfi_startproc
 311              		@ args = 0, pretend = 0, frame = 0
 312              		@ frame_needed = 0, uses_anonymous_args = 0
 313              		@ link register save eliminated.
 338:..\..\..\..\..\..\Software\uC-LIB/lib_ascii.c ****     CPU_BOOLEAN  dig_hex;
 314              		.loc 1 338 5 view .LVU63
 339:..\..\..\..\..\..\Software\uC-LIB/lib_ascii.c **** 
 340:..\..\..\..\..\..\Software\uC-LIB/lib_ascii.c **** 
 341:..\..\..\..\..\..\Software\uC-LIB/lib_ascii.c ****     dig_hex = ASCII_IS_DIG_HEX(c);
 315              		.loc 1 341 5 view .LVU64
 316              		.loc 1 341 15 is_stmt 0 view .LVU65
 317 0000 0300     		movs	r3, r0
 318 0002 303B     		subs	r3, r3, #48
 319 0004 DBB2     		uxtb	r3, r3
 320              		.loc 1 341 13 view .LVU66
 321 0006 092B     		cmp	r3, #9
 322 0008 0AD9     		bls	.L24
 323              		.loc 1 341 15 discriminator 2 view .LVU67
 324 000a 0300     		movs	r3, r0
 325 000c 413B     		subs	r3, r3, #65
 326 000e DBB2     		uxtb	r3, r3
 327 0010 052B     		cmp	r3, #5
 328 0012 07D9     		bls	.L25
 329              		.loc 1 341 15 discriminator 4 view .LVU68
 330 0014 6138     		subs	r0, r0, #97
 331              	.LVL28:
 332              		.loc 1 341 15 discriminator 4 view .LVU69
 333 0016 C0B2     		uxtb	r0, r0
 334 0018 0528     		cmp	r0, #5
 335 001a 05D8     		bhi	.L26
 336              		.loc 1 341 13 view .LVU70
ARM GAS  C:\Users\EDULU~1.DES\AppData\Local\Temp\ccrgvmSp.s 			page 13


 337 001c 0120     		movs	r0, #1
 338 001e 00E0     		b	.L23
 339              	.LVL29:
 340              	.L24:
 341              		.loc 1 341 13 view .LVU71
 342 0020 0120     		movs	r0, #1
 343              	.LVL30:
 344              	.L23:
 342:..\..\..\..\..\..\Software\uC-LIB/lib_ascii.c **** 
 343:..\..\..\..\..\..\Software\uC-LIB/lib_ascii.c ****     return (dig_hex);
 345              		.loc 1 343 5 is_stmt 1 discriminator 8 view .LVU72
 344:..\..\..\..\..\..\Software\uC-LIB/lib_ascii.c **** }
 346              		.loc 1 344 1 is_stmt 0 discriminator 8 view .LVU73
 347              		@ sp needed
 348 0022 7047     		bx	lr
 349              	.LVL31:
 350              	.L25:
 341:..\..\..\..\..\..\Software\uC-LIB/lib_ascii.c **** 
 351              		.loc 1 341 13 view .LVU74
 352 0024 0120     		movs	r0, #1
 353              	.LVL32:
 341:..\..\..\..\..\..\Software\uC-LIB/lib_ascii.c **** 
 354              		.loc 1 341 13 view .LVU75
 355 0026 FCE7     		b	.L23
 356              	.L26:
 357 0028 0020     		movs	r0, #0
 358 002a FAE7     		b	.L23
 359              		.cfi_endproc
 360              	.LFE6:
 361              		.size	ASCII_IsDigHex, .-ASCII_IsDigHex
 362              		.section	.text.ASCII_IsBlank,"ax",%progbits
 363              		.align	1
 364              		.global	ASCII_IsBlank
 365              		.syntax unified
 366              		.code	16
 367              		.thumb_func
 368              		.fpu softvfp
 369              		.type	ASCII_IsBlank, %function
 370              	ASCII_IsBlank:
 371              	.LVL33:
 372              	.LFB7:
 345:..\..\..\..\..\..\Software\uC-LIB/lib_ascii.c **** 
 346:..\..\..\..\..\..\Software\uC-LIB/lib_ascii.c **** 
 347:..\..\..\..\..\..\Software\uC-LIB/lib_ascii.c **** /*$PAGE*/
 348:..\..\..\..\..\..\Software\uC-LIB/lib_ascii.c **** /*
 349:..\..\..\..\..\..\Software\uC-LIB/lib_ascii.c **** ***************************************************************************************************
 350:..\..\..\..\..\..\Software\uC-LIB/lib_ascii.c **** *                                           ASCII_IsBlank()
 351:..\..\..\..\..\..\Software\uC-LIB/lib_ascii.c **** *
 352:..\..\..\..\..\..\Software\uC-LIB/lib_ascii.c **** * Description : Determine whether a character is a standard blank character.
 353:..\..\..\..\..\..\Software\uC-LIB/lib_ascii.c **** *
 354:..\..\..\..\..\..\Software\uC-LIB/lib_ascii.c **** * Argument(s) : c           Character to examine.
 355:..\..\..\..\..\..\Software\uC-LIB/lib_ascii.c **** *
 356:..\..\..\..\..\..\Software\uC-LIB/lib_ascii.c **** * Return(s)   : DEF_YES, if character is     a standard blank character.
 357:..\..\..\..\..\..\Software\uC-LIB/lib_ascii.c **** *
 358:..\..\..\..\..\..\Software\uC-LIB/lib_ascii.c **** *               DEF_NO,	 if character is NOT a standard blank character.
 359:..\..\..\..\..\..\Software\uC-LIB/lib_ascii.c **** *
 360:..\..\..\..\..\..\Software\uC-LIB/lib_ascii.c **** * Caller(s)   : Application.
ARM GAS  C:\Users\EDULU~1.DES\AppData\Local\Temp\ccrgvmSp.s 			page 14


 361:..\..\..\..\..\..\Software\uC-LIB/lib_ascii.c **** *
 362:..\..\..\..\..\..\Software\uC-LIB/lib_ascii.c **** * Note(s)     : (1) (a) ISO/IEC 9899:TC2, Section 7.4.1.3.(2) states that "isblank() returns true o
 363:..\..\..\..\..\..\Software\uC-LIB/lib_ascii.c **** *                       the standard blank characters".
 364:..\..\..\..\..\..\Software\uC-LIB/lib_ascii.c **** *
 365:..\..\..\..\..\..\Software\uC-LIB/lib_ascii.c **** *                   (b) ISO/IEC 9899:TC2, Section 7.4.1.3.(2) defines "the standard blank character
 366:..\..\..\..\..\..\Software\uC-LIB/lib_ascii.c **** *                       the "space (' '), and horizontal tab ('\t')".
 367:..\..\..\..\..\..\Software\uC-LIB/lib_ascii.c **** ***************************************************************************************************
 368:..\..\..\..\..\..\Software\uC-LIB/lib_ascii.c **** */
 369:..\..\..\..\..\..\Software\uC-LIB/lib_ascii.c **** 
 370:..\..\..\..\..\..\Software\uC-LIB/lib_ascii.c **** CPU_BOOLEAN  ASCII_IsBlank (CPU_CHAR  c)
 371:..\..\..\..\..\..\Software\uC-LIB/lib_ascii.c **** {
 373              		.loc 1 371 1 is_stmt 1 view -0
 374              		.cfi_startproc
 375              		@ args = 0, pretend = 0, frame = 0
 376              		@ frame_needed = 0, uses_anonymous_args = 0
 377              		@ link register save eliminated.
 372:..\..\..\..\..\..\Software\uC-LIB/lib_ascii.c ****     CPU_BOOLEAN  blank;
 378              		.loc 1 372 5 view .LVU77
 373:..\..\..\..\..\..\Software\uC-LIB/lib_ascii.c **** 
 374:..\..\..\..\..\..\Software\uC-LIB/lib_ascii.c **** 
 375:..\..\..\..\..\..\Software\uC-LIB/lib_ascii.c ****     blank = ASCII_IS_BLANK(c);
 379              		.loc 1 375 5 view .LVU78
 380              		.loc 1 375 11 is_stmt 0 view .LVU79
 381 0000 2028     		cmp	r0, #32
 382 0002 05D0     		beq	.L29
 383              		.loc 1 375 13 discriminator 2 view .LVU80
 384 0004 0928     		cmp	r0, #9
 385 0006 01D0     		beq	.L31
 386              		.loc 1 375 11 view .LVU81
 387 0008 0020     		movs	r0, #0
 388              	.LVL34:
 389              	.L28:
 376:..\..\..\..\..\..\Software\uC-LIB/lib_ascii.c **** 
 377:..\..\..\..\..\..\Software\uC-LIB/lib_ascii.c ****     return (blank);
 390              		.loc 1 377 5 is_stmt 1 discriminator 6 view .LVU82
 378:..\..\..\..\..\..\Software\uC-LIB/lib_ascii.c **** }
 391              		.loc 1 378 1 is_stmt 0 discriminator 6 view .LVU83
 392              		@ sp needed
 393 000a 7047     		bx	lr
 394              	.LVL35:
 395              	.L31:
 375:..\..\..\..\..\..\Software\uC-LIB/lib_ascii.c **** 
 396              		.loc 1 375 11 view .LVU84
 397 000c 0838     		subs	r0, r0, #8
 398              	.LVL36:
 375:..\..\..\..\..\..\Software\uC-LIB/lib_ascii.c **** 
 399              		.loc 1 375 11 view .LVU85
 400 000e FCE7     		b	.L28
 401              	.LVL37:
 402              	.L29:
 375:..\..\..\..\..\..\Software\uC-LIB/lib_ascii.c **** 
 403              		.loc 1 375 11 view .LVU86
 404 0010 0120     		movs	r0, #1
 405              	.LVL38:
 375:..\..\..\..\..\..\Software\uC-LIB/lib_ascii.c **** 
 406              		.loc 1 375 11 view .LVU87
 407 0012 FAE7     		b	.L28
ARM GAS  C:\Users\EDULU~1.DES\AppData\Local\Temp\ccrgvmSp.s 			page 15


 408              		.cfi_endproc
 409              	.LFE7:
 410              		.size	ASCII_IsBlank, .-ASCII_IsBlank
 411              		.section	.text.ASCII_IsSpace,"ax",%progbits
 412              		.align	1
 413              		.global	ASCII_IsSpace
 414              		.syntax unified
 415              		.code	16
 416              		.thumb_func
 417              		.fpu softvfp
 418              		.type	ASCII_IsSpace, %function
 419              	ASCII_IsSpace:
 420              	.LVL39:
 421              	.LFB8:
 379:..\..\..\..\..\..\Software\uC-LIB/lib_ascii.c **** 
 380:..\..\..\..\..\..\Software\uC-LIB/lib_ascii.c **** 
 381:..\..\..\..\..\..\Software\uC-LIB/lib_ascii.c **** /*
 382:..\..\..\..\..\..\Software\uC-LIB/lib_ascii.c **** ***************************************************************************************************
 383:..\..\..\..\..\..\Software\uC-LIB/lib_ascii.c **** *                                           ASCII_IsSpace()
 384:..\..\..\..\..\..\Software\uC-LIB/lib_ascii.c **** *
 385:..\..\..\..\..\..\Software\uC-LIB/lib_ascii.c **** * Description : Determine whether a character is a white-space character.
 386:..\..\..\..\..\..\Software\uC-LIB/lib_ascii.c **** *
 387:..\..\..\..\..\..\Software\uC-LIB/lib_ascii.c **** * Argument(s) : c           Character to examine.
 388:..\..\..\..\..\..\Software\uC-LIB/lib_ascii.c **** *
 389:..\..\..\..\..\..\Software\uC-LIB/lib_ascii.c **** * Return(s)   : DEF_YES, if character is     a white-space character.
 390:..\..\..\..\..\..\Software\uC-LIB/lib_ascii.c **** *
 391:..\..\..\..\..\..\Software\uC-LIB/lib_ascii.c **** *               DEF_NO,	 if character is NOT a white-space character.
 392:..\..\..\..\..\..\Software\uC-LIB/lib_ascii.c **** *
 393:..\..\..\..\..\..\Software\uC-LIB/lib_ascii.c **** * Caller(s)   : Application.
 394:..\..\..\..\..\..\Software\uC-LIB/lib_ascii.c **** *
 395:..\..\..\..\..\..\Software\uC-LIB/lib_ascii.c **** * Note(s)     : (1) (a) ISO/IEC 9899:TC2, Section 7.4.1.10.(2) states that "isspace() returns true 
 396:..\..\..\..\..\..\Software\uC-LIB/lib_ascii.c **** *                       for the standard white-space characters".
 397:..\..\..\..\..\..\Software\uC-LIB/lib_ascii.c **** *
 398:..\..\..\..\..\..\Software\uC-LIB/lib_ascii.c **** *                   (b) ISO/IEC 9899:TC2, Section 7.4.1.10.(2) defines "the standard white-space ch
 399:..\..\..\..\..\..\Software\uC-LIB/lib_ascii.c **** *                       as the "space (' '), form feed ('\f'), new-line ('\n'), carriage return ('\
 400:..\..\..\..\..\..\Software\uC-LIB/lib_ascii.c **** *                       horizontal tab ('\t'), and vertical tab ('\v')".
 401:..\..\..\..\..\..\Software\uC-LIB/lib_ascii.c **** ***************************************************************************************************
 402:..\..\..\..\..\..\Software\uC-LIB/lib_ascii.c **** */
 403:..\..\..\..\..\..\Software\uC-LIB/lib_ascii.c **** 
 404:..\..\..\..\..\..\Software\uC-LIB/lib_ascii.c **** CPU_BOOLEAN  ASCII_IsSpace (CPU_CHAR  c)
 405:..\..\..\..\..\..\Software\uC-LIB/lib_ascii.c **** {
 422              		.loc 1 405 1 is_stmt 1 view -0
 423              		.cfi_startproc
 424              		@ args = 0, pretend = 0, frame = 0
 425              		@ frame_needed = 0, uses_anonymous_args = 0
 426              		@ link register save eliminated.
 406:..\..\..\..\..\..\Software\uC-LIB/lib_ascii.c ****     CPU_BOOLEAN  space;
 427              		.loc 1 406 5 view .LVU89
 407:..\..\..\..\..\..\Software\uC-LIB/lib_ascii.c **** 
 408:..\..\..\..\..\..\Software\uC-LIB/lib_ascii.c **** 
 409:..\..\..\..\..\..\Software\uC-LIB/lib_ascii.c ****     space = ASCII_IS_SPACE(c);
 428              		.loc 1 409 5 view .LVU90
 429              		.loc 1 409 11 is_stmt 0 view .LVU91
 430 0000 2028     		cmp	r0, #32
 431 0002 0DD0     		beq	.L34
 432              		.loc 1 409 13 discriminator 2 view .LVU92
 433 0004 0D28     		cmp	r0, #13
ARM GAS  C:\Users\EDULU~1.DES\AppData\Local\Temp\ccrgvmSp.s 			page 16


 434 0006 0DD0     		beq	.L35
 435              		.loc 1 409 13 discriminator 4 view .LVU93
 436 0008 0A28     		cmp	r0, #10
 437 000a 0DD0     		beq	.L36
 438              		.loc 1 409 13 discriminator 6 view .LVU94
 439 000c 0C28     		cmp	r0, #12
 440 000e 0DD0     		beq	.L37
 441              		.loc 1 409 13 discriminator 8 view .LVU95
 442 0010 0928     		cmp	r0, #9
 443 0012 0DD0     		beq	.L38
 444              		.loc 1 409 13 discriminator 10 view .LVU96
 445 0014 0B28     		cmp	r0, #11
 446 0016 01D0     		beq	.L40
 447              		.loc 1 409 11 view .LVU97
 448 0018 0020     		movs	r0, #0
 449              	.LVL40:
 450              		.loc 1 409 11 view .LVU98
 451 001a 02E0     		b	.L33
 452              	.LVL41:
 453              	.L40:
 454              		.loc 1 409 11 view .LVU99
 455 001c 0A38     		subs	r0, r0, #10
 456              	.LVL42:
 457              		.loc 1 409 11 view .LVU100
 458 001e 00E0     		b	.L33
 459              	.LVL43:
 460              	.L34:
 461              		.loc 1 409 11 view .LVU101
 462 0020 0120     		movs	r0, #1
 463              	.LVL44:
 464              	.L33:
 410:..\..\..\..\..\..\Software\uC-LIB/lib_ascii.c **** 
 411:..\..\..\..\..\..\Software\uC-LIB/lib_ascii.c ****     return (space);
 465              		.loc 1 411 5 is_stmt 1 discriminator 14 view .LVU102
 412:..\..\..\..\..\..\Software\uC-LIB/lib_ascii.c **** }
 466              		.loc 1 412 1 is_stmt 0 discriminator 14 view .LVU103
 467              		@ sp needed
 468 0022 7047     		bx	lr
 469              	.LVL45:
 470              	.L35:
 409:..\..\..\..\..\..\Software\uC-LIB/lib_ascii.c **** 
 471              		.loc 1 409 11 view .LVU104
 472 0024 0120     		movs	r0, #1
 473              	.LVL46:
 409:..\..\..\..\..\..\Software\uC-LIB/lib_ascii.c **** 
 474              		.loc 1 409 11 view .LVU105
 475 0026 FCE7     		b	.L33
 476              	.LVL47:
 477              	.L36:
 409:..\..\..\..\..\..\Software\uC-LIB/lib_ascii.c **** 
 478              		.loc 1 409 11 view .LVU106
 479 0028 0120     		movs	r0, #1
 480              	.LVL48:
 409:..\..\..\..\..\..\Software\uC-LIB/lib_ascii.c **** 
 481              		.loc 1 409 11 view .LVU107
 482 002a FAE7     		b	.L33
 483              	.LVL49:
ARM GAS  C:\Users\EDULU~1.DES\AppData\Local\Temp\ccrgvmSp.s 			page 17


 484              	.L37:
 409:..\..\..\..\..\..\Software\uC-LIB/lib_ascii.c **** 
 485              		.loc 1 409 11 view .LVU108
 486 002c 0120     		movs	r0, #1
 487              	.LVL50:
 409:..\..\..\..\..\..\Software\uC-LIB/lib_ascii.c **** 
 488              		.loc 1 409 11 view .LVU109
 489 002e F8E7     		b	.L33
 490              	.LVL51:
 491              	.L38:
 409:..\..\..\..\..\..\Software\uC-LIB/lib_ascii.c **** 
 492              		.loc 1 409 11 view .LVU110
 493 0030 0120     		movs	r0, #1
 494              	.LVL52:
 409:..\..\..\..\..\..\Software\uC-LIB/lib_ascii.c **** 
 495              		.loc 1 409 11 view .LVU111
 496 0032 F6E7     		b	.L33
 497              		.cfi_endproc
 498              	.LFE8:
 499              		.size	ASCII_IsSpace, .-ASCII_IsSpace
 500              		.section	.text.ASCII_IsPrint,"ax",%progbits
 501              		.align	1
 502              		.global	ASCII_IsPrint
 503              		.syntax unified
 504              		.code	16
 505              		.thumb_func
 506              		.fpu softvfp
 507              		.type	ASCII_IsPrint, %function
 508              	ASCII_IsPrint:
 509              	.LVL53:
 510              	.LFB9:
 413:..\..\..\..\..\..\Software\uC-LIB/lib_ascii.c **** 
 414:..\..\..\..\..\..\Software\uC-LIB/lib_ascii.c **** 
 415:..\..\..\..\..\..\Software\uC-LIB/lib_ascii.c **** /*$PAGE*/
 416:..\..\..\..\..\..\Software\uC-LIB/lib_ascii.c **** /*
 417:..\..\..\..\..\..\Software\uC-LIB/lib_ascii.c **** ***************************************************************************************************
 418:..\..\..\..\..\..\Software\uC-LIB/lib_ascii.c **** *                                           ASCII_IsPrint()
 419:..\..\..\..\..\..\Software\uC-LIB/lib_ascii.c **** *
 420:..\..\..\..\..\..\Software\uC-LIB/lib_ascii.c **** * Description : Determine whether a character is a printing character.
 421:..\..\..\..\..\..\Software\uC-LIB/lib_ascii.c **** *
 422:..\..\..\..\..\..\Software\uC-LIB/lib_ascii.c **** * Argument(s) : c           Character to examine.
 423:..\..\..\..\..\..\Software\uC-LIB/lib_ascii.c **** *
 424:..\..\..\..\..\..\Software\uC-LIB/lib_ascii.c **** * Return(s)   : DEF_YES, if character is     a printing character.
 425:..\..\..\..\..\..\Software\uC-LIB/lib_ascii.c **** *
 426:..\..\..\..\..\..\Software\uC-LIB/lib_ascii.c **** *               DEF_NO,	 if character is NOT a printing character.
 427:..\..\..\..\..\..\Software\uC-LIB/lib_ascii.c **** *
 428:..\..\..\..\..\..\Software\uC-LIB/lib_ascii.c **** * Caller(s)   : Application.
 429:..\..\..\..\..\..\Software\uC-LIB/lib_ascii.c **** *
 430:..\..\..\..\..\..\Software\uC-LIB/lib_ascii.c **** * Note(s)     : (1) (a) ISO/IEC 9899:TC2, Section 7.4.1.8.(2) states that "isprint() ... tests for 
 431:..\..\..\..\..\..\Software\uC-LIB/lib_ascii.c **** *                       printing character including space (' ')".
 432:..\..\..\..\..\..\Software\uC-LIB/lib_ascii.c **** *
 433:..\..\..\..\..\..\Software\uC-LIB/lib_ascii.c **** *                   (b) ISO/IEC 9899:TC2, Section 7.4.(3), Note 169, states that in "the seven-bit 
 434:..\..\..\..\..\..\Software\uC-LIB/lib_ascii.c **** *                       ASCII character set, the printing characters are those whose values lie fro
 435:..\..\..\..\..\..\Software\uC-LIB/lib_ascii.c **** *                       0x20 (space) through 0x7E (tilde)".
 436:..\..\..\..\..\..\Software\uC-LIB/lib_ascii.c **** ***************************************************************************************************
 437:..\..\..\..\..\..\Software\uC-LIB/lib_ascii.c **** */
 438:..\..\..\..\..\..\Software\uC-LIB/lib_ascii.c **** 
ARM GAS  C:\Users\EDULU~1.DES\AppData\Local\Temp\ccrgvmSp.s 			page 18


 439:..\..\..\..\..\..\Software\uC-LIB/lib_ascii.c **** CPU_BOOLEAN  ASCII_IsPrint (CPU_CHAR  c)
 440:..\..\..\..\..\..\Software\uC-LIB/lib_ascii.c **** {
 511              		.loc 1 440 1 is_stmt 1 view -0
 512              		.cfi_startproc
 513              		@ args = 0, pretend = 0, frame = 0
 514              		@ frame_needed = 0, uses_anonymous_args = 0
 515              		@ link register save eliminated.
 441:..\..\..\..\..\..\Software\uC-LIB/lib_ascii.c ****     CPU_BOOLEAN  print;
 516              		.loc 1 441 5 view .LVU113
 442:..\..\..\..\..\..\Software\uC-LIB/lib_ascii.c **** 
 443:..\..\..\..\..\..\Software\uC-LIB/lib_ascii.c **** 
 444:..\..\..\..\..\..\Software\uC-LIB/lib_ascii.c ****     print = ASCII_IS_PRINT(c);
 517              		.loc 1 444 5 view .LVU114
 518              		.loc 1 444 13 is_stmt 0 view .LVU115
 519 0000 2038     		subs	r0, r0, #32
 520              	.LVL54:
 521              		.loc 1 444 13 view .LVU116
 522 0002 C0B2     		uxtb	r0, r0
 523              		.loc 1 444 11 view .LVU117
 524 0004 5E28     		cmp	r0, #94
 525 0006 01D8     		bhi	.L43
 526 0008 0120     		movs	r0, #1
 527              	.L42:
 528              	.LVL55:
 445:..\..\..\..\..\..\Software\uC-LIB/lib_ascii.c **** 
 446:..\..\..\..\..\..\Software\uC-LIB/lib_ascii.c ****     return (print);
 529              		.loc 1 446 5 is_stmt 1 discriminator 4 view .LVU118
 447:..\..\..\..\..\..\Software\uC-LIB/lib_ascii.c **** }
 530              		.loc 1 447 1 is_stmt 0 discriminator 4 view .LVU119
 531              		@ sp needed
 532 000a 7047     		bx	lr
 533              	.LVL56:
 534              	.L43:
 444:..\..\..\..\..\..\Software\uC-LIB/lib_ascii.c **** 
 535              		.loc 1 444 11 view .LVU120
 536 000c 0020     		movs	r0, #0
 537 000e FCE7     		b	.L42
 538              		.cfi_endproc
 539              	.LFE9:
 540              		.size	ASCII_IsPrint, .-ASCII_IsPrint
 541              		.section	.text.ASCII_IsGraph,"ax",%progbits
 542              		.align	1
 543              		.global	ASCII_IsGraph
 544              		.syntax unified
 545              		.code	16
 546              		.thumb_func
 547              		.fpu softvfp
 548              		.type	ASCII_IsGraph, %function
 549              	ASCII_IsGraph:
 550              	.LVL57:
 551              	.LFB10:
 448:..\..\..\..\..\..\Software\uC-LIB/lib_ascii.c **** 
 449:..\..\..\..\..\..\Software\uC-LIB/lib_ascii.c **** 
 450:..\..\..\..\..\..\Software\uC-LIB/lib_ascii.c **** /*
 451:..\..\..\..\..\..\Software\uC-LIB/lib_ascii.c **** ***************************************************************************************************
 452:..\..\..\..\..\..\Software\uC-LIB/lib_ascii.c **** *                                           ASCII_IsGraph()
 453:..\..\..\..\..\..\Software\uC-LIB/lib_ascii.c **** *
ARM GAS  C:\Users\EDULU~1.DES\AppData\Local\Temp\ccrgvmSp.s 			page 19


 454:..\..\..\..\..\..\Software\uC-LIB/lib_ascii.c **** * Description : Determine whether a character is any printing character except a space character.
 455:..\..\..\..\..\..\Software\uC-LIB/lib_ascii.c **** *
 456:..\..\..\..\..\..\Software\uC-LIB/lib_ascii.c **** * Argument(s) : c           Character to examine.
 457:..\..\..\..\..\..\Software\uC-LIB/lib_ascii.c **** *
 458:..\..\..\..\..\..\Software\uC-LIB/lib_ascii.c **** * Return(s)   : DEF_YES, if character is     a graphic character.
 459:..\..\..\..\..\..\Software\uC-LIB/lib_ascii.c **** *
 460:..\..\..\..\..\..\Software\uC-LIB/lib_ascii.c **** *               DEF_NO,	 if character is NOT a graphic character.
 461:..\..\..\..\..\..\Software\uC-LIB/lib_ascii.c **** *
 462:..\..\..\..\..\..\Software\uC-LIB/lib_ascii.c **** * Caller(s)   : Application.
 463:..\..\..\..\..\..\Software\uC-LIB/lib_ascii.c **** *
 464:..\..\..\..\..\..\Software\uC-LIB/lib_ascii.c **** * Note(s)     : (1) (a) ISO/IEC 9899:TC2, Section 7.4.1.6.(2) states that "isgraph() ... tests for 
 465:..\..\..\..\..\..\Software\uC-LIB/lib_ascii.c **** *                       printing character except space (' ')".
 466:..\..\..\..\..\..\Software\uC-LIB/lib_ascii.c **** *
 467:..\..\..\..\..\..\Software\uC-LIB/lib_ascii.c **** *                   (b) ISO/IEC 9899:TC2, Section 7.4.(3), Note 169, states that in "the seven-bit 
 468:..\..\..\..\..\..\Software\uC-LIB/lib_ascii.c **** *                       ASCII character set, the printing characters are those whose values lie fro
 469:..\..\..\..\..\..\Software\uC-LIB/lib_ascii.c **** *                       0x20 (space) through 0x7E (tilde)".
 470:..\..\..\..\..\..\Software\uC-LIB/lib_ascii.c **** ***************************************************************************************************
 471:..\..\..\..\..\..\Software\uC-LIB/lib_ascii.c **** */
 472:..\..\..\..\..\..\Software\uC-LIB/lib_ascii.c **** 
 473:..\..\..\..\..\..\Software\uC-LIB/lib_ascii.c **** CPU_BOOLEAN  ASCII_IsGraph (CPU_CHAR  c)
 474:..\..\..\..\..\..\Software\uC-LIB/lib_ascii.c **** {
 552              		.loc 1 474 1 is_stmt 1 view -0
 553              		.cfi_startproc
 554              		@ args = 0, pretend = 0, frame = 0
 555              		@ frame_needed = 0, uses_anonymous_args = 0
 556              		@ link register save eliminated.
 475:..\..\..\..\..\..\Software\uC-LIB/lib_ascii.c ****     CPU_BOOLEAN  graph;
 557              		.loc 1 475 5 view .LVU122
 476:..\..\..\..\..\..\Software\uC-LIB/lib_ascii.c **** 
 477:..\..\..\..\..\..\Software\uC-LIB/lib_ascii.c **** 
 478:..\..\..\..\..\..\Software\uC-LIB/lib_ascii.c ****     graph = ASCII_IS_GRAPH(c);
 558              		.loc 1 478 5 view .LVU123
 559              		.loc 1 478 13 is_stmt 0 view .LVU124
 560 0000 2138     		subs	r0, r0, #33
 561              	.LVL58:
 562              		.loc 1 478 13 view .LVU125
 563 0002 C0B2     		uxtb	r0, r0
 564              		.loc 1 478 11 view .LVU126
 565 0004 5D28     		cmp	r0, #93
 566 0006 01D8     		bhi	.L46
 567 0008 0120     		movs	r0, #1
 568              	.L45:
 569              	.LVL59:
 479:..\..\..\..\..\..\Software\uC-LIB/lib_ascii.c **** 
 480:..\..\..\..\..\..\Software\uC-LIB/lib_ascii.c ****     return (graph);
 570              		.loc 1 480 5 is_stmt 1 discriminator 4 view .LVU127
 481:..\..\..\..\..\..\Software\uC-LIB/lib_ascii.c **** }
 571              		.loc 1 481 1 is_stmt 0 discriminator 4 view .LVU128
 572              		@ sp needed
 573 000a 7047     		bx	lr
 574              	.LVL60:
 575              	.L46:
 478:..\..\..\..\..\..\Software\uC-LIB/lib_ascii.c **** 
 576              		.loc 1 478 11 view .LVU129
 577 000c 0020     		movs	r0, #0
 578 000e FCE7     		b	.L45
 579              		.cfi_endproc
ARM GAS  C:\Users\EDULU~1.DES\AppData\Local\Temp\ccrgvmSp.s 			page 20


 580              	.LFE10:
 581              		.size	ASCII_IsGraph, .-ASCII_IsGraph
 582              		.section	.text.ASCII_IsPunct,"ax",%progbits
 583              		.align	1
 584              		.global	ASCII_IsPunct
 585              		.syntax unified
 586              		.code	16
 587              		.thumb_func
 588              		.fpu softvfp
 589              		.type	ASCII_IsPunct, %function
 590              	ASCII_IsPunct:
 591              	.LVL61:
 592              	.LFB11:
 482:..\..\..\..\..\..\Software\uC-LIB/lib_ascii.c **** 
 483:..\..\..\..\..\..\Software\uC-LIB/lib_ascii.c **** 
 484:..\..\..\..\..\..\Software\uC-LIB/lib_ascii.c **** /*$PAGE*/
 485:..\..\..\..\..\..\Software\uC-LIB/lib_ascii.c **** /*
 486:..\..\..\..\..\..\Software\uC-LIB/lib_ascii.c **** ***************************************************************************************************
 487:..\..\..\..\..\..\Software\uC-LIB/lib_ascii.c **** *                                           ASCII_IsPunct()
 488:..\..\..\..\..\..\Software\uC-LIB/lib_ascii.c **** *
 489:..\..\..\..\..\..\Software\uC-LIB/lib_ascii.c **** * Description : Determine whether a character is a punctuation character.
 490:..\..\..\..\..\..\Software\uC-LIB/lib_ascii.c **** *
 491:..\..\..\..\..\..\Software\uC-LIB/lib_ascii.c **** * Argument(s) : c           Character to examine.
 492:..\..\..\..\..\..\Software\uC-LIB/lib_ascii.c **** *
 493:..\..\..\..\..\..\Software\uC-LIB/lib_ascii.c **** * Return(s)   : DEF_YES, if character is     a punctuation character.
 494:..\..\..\..\..\..\Software\uC-LIB/lib_ascii.c **** *
 495:..\..\..\..\..\..\Software\uC-LIB/lib_ascii.c **** *               DEF_NO,	 if character is NOT a punctuation character.
 496:..\..\..\..\..\..\Software\uC-LIB/lib_ascii.c **** *
 497:..\..\..\..\..\..\Software\uC-LIB/lib_ascii.c **** * Caller(s)   : Application.
 498:..\..\..\..\..\..\Software\uC-LIB/lib_ascii.c **** *
 499:..\..\..\..\..\..\Software\uC-LIB/lib_ascii.c **** * Note(s)     : (1) ISO/IEC 9899:TC2, Section 7.4.1.9.(2) states that "ispunct() returns true for e
 500:..\..\..\..\..\..\Software\uC-LIB/lib_ascii.c **** *                   printing character for which neither isspace() nor isalnum() is true".
 501:..\..\..\..\..\..\Software\uC-LIB/lib_ascii.c **** ***************************************************************************************************
 502:..\..\..\..\..\..\Software\uC-LIB/lib_ascii.c **** */
 503:..\..\..\..\..\..\Software\uC-LIB/lib_ascii.c **** 
 504:..\..\..\..\..\..\Software\uC-LIB/lib_ascii.c **** CPU_BOOLEAN  ASCII_IsPunct (CPU_CHAR  c)
 505:..\..\..\..\..\..\Software\uC-LIB/lib_ascii.c **** {
 593              		.loc 1 505 1 is_stmt 1 view -0
 594              		.cfi_startproc
 595              		@ args = 0, pretend = 0, frame = 0
 596              		@ frame_needed = 0, uses_anonymous_args = 0
 597              		@ link register save eliminated.
 506:..\..\..\..\..\..\Software\uC-LIB/lib_ascii.c ****     CPU_BOOLEAN  punct;
 598              		.loc 1 506 5 view .LVU131
 507:..\..\..\..\..\..\Software\uC-LIB/lib_ascii.c **** 
 508:..\..\..\..\..\..\Software\uC-LIB/lib_ascii.c **** 
 509:..\..\..\..\..\..\Software\uC-LIB/lib_ascii.c ****     punct = ASCII_IS_PUNCT(c);
 599              		.loc 1 509 5 view .LVU132
 600              		.loc 1 509 13 is_stmt 0 view .LVU133
 601 0000 0300     		movs	r3, r0
 602 0002 203B     		subs	r3, r3, #32
 603 0004 DBB2     		uxtb	r3, r3
 604              		.loc 1 509 11 view .LVU134
 605 0006 5E2B     		cmp	r3, #94
 606 0008 1BD8     		bhi	.L49
 607              		.loc 1 509 13 discriminator 1 view .LVU135
 608 000a 2028     		cmp	r0, #32
ARM GAS  C:\Users\EDULU~1.DES\AppData\Local\Temp\ccrgvmSp.s 			page 21


 609 000c 1BD0     		beq	.L50
 610              		.loc 1 509 13 discriminator 3 view .LVU136
 611 000e 0D28     		cmp	r0, #13
 612 0010 1BD0     		beq	.L51
 613              		.loc 1 509 13 discriminator 5 view .LVU137
 614 0012 0A28     		cmp	r0, #10
 615 0014 1BD0     		beq	.L52
 616              		.loc 1 509 13 discriminator 7 view .LVU138
 617 0016 0C28     		cmp	r0, #12
 618 0018 1BD0     		beq	.L53
 619              		.loc 1 509 13 discriminator 9 view .LVU139
 620 001a 0928     		cmp	r0, #9
 621 001c 1BD0     		beq	.L54
 622              		.loc 1 509 13 discriminator 11 view .LVU140
 623 001e 0B28     		cmp	r0, #11
 624 0020 1BD0     		beq	.L55
 625              		.loc 1 509 13 discriminator 13 view .LVU141
 626 0022 0300     		movs	r3, r0
 627 0024 413B     		subs	r3, r3, #65
 628 0026 DBB2     		uxtb	r3, r3
 629 0028 192B     		cmp	r3, #25
 630 002a 18D9     		bls	.L56
 631              		.loc 1 509 13 discriminator 15 view .LVU142
 632 002c 0300     		movs	r3, r0
 633 002e 613B     		subs	r3, r3, #97
 634 0030 DBB2     		uxtb	r3, r3
 635 0032 192B     		cmp	r3, #25
 636 0034 15D9     		bls	.L57
 637              		.loc 1 509 13 discriminator 17 view .LVU143
 638 0036 3038     		subs	r0, r0, #48
 639              	.LVL62:
 640              		.loc 1 509 13 discriminator 17 view .LVU144
 641 0038 C0B2     		uxtb	r0, r0
 642 003a 0928     		cmp	r0, #9
 643 003c 13D8     		bhi	.L58
 644              		.loc 1 509 11 view .LVU145
 645 003e 0020     		movs	r0, #0
 646 0040 00E0     		b	.L48
 647              	.LVL63:
 648              	.L49:
 649              		.loc 1 509 11 view .LVU146
 650 0042 0020     		movs	r0, #0
 651              	.LVL64:
 652              	.L48:
 510:..\..\..\..\..\..\Software\uC-LIB/lib_ascii.c **** 
 511:..\..\..\..\..\..\Software\uC-LIB/lib_ascii.c ****     return (punct);
 653              		.loc 1 511 5 is_stmt 1 discriminator 22 view .LVU147
 512:..\..\..\..\..\..\Software\uC-LIB/lib_ascii.c **** }
 654              		.loc 1 512 1 is_stmt 0 discriminator 22 view .LVU148
 655              		@ sp needed
 656 0044 7047     		bx	lr
 657              	.LVL65:
 658              	.L50:
 509:..\..\..\..\..\..\Software\uC-LIB/lib_ascii.c **** 
 659              		.loc 1 509 11 view .LVU149
 660 0046 0020     		movs	r0, #0
 661              	.LVL66:
ARM GAS  C:\Users\EDULU~1.DES\AppData\Local\Temp\ccrgvmSp.s 			page 22


 509:..\..\..\..\..\..\Software\uC-LIB/lib_ascii.c **** 
 662              		.loc 1 509 11 view .LVU150
 663 0048 FCE7     		b	.L48
 664              	.LVL67:
 665              	.L51:
 509:..\..\..\..\..\..\Software\uC-LIB/lib_ascii.c **** 
 666              		.loc 1 509 11 view .LVU151
 667 004a 0020     		movs	r0, #0
 668              	.LVL68:
 509:..\..\..\..\..\..\Software\uC-LIB/lib_ascii.c **** 
 669              		.loc 1 509 11 view .LVU152
 670 004c FAE7     		b	.L48
 671              	.LVL69:
 672              	.L52:
 509:..\..\..\..\..\..\Software\uC-LIB/lib_ascii.c **** 
 673              		.loc 1 509 11 view .LVU153
 674 004e 0020     		movs	r0, #0
 675              	.LVL70:
 509:..\..\..\..\..\..\Software\uC-LIB/lib_ascii.c **** 
 676              		.loc 1 509 11 view .LVU154
 677 0050 F8E7     		b	.L48
 678              	.LVL71:
 679              	.L53:
 509:..\..\..\..\..\..\Software\uC-LIB/lib_ascii.c **** 
 680              		.loc 1 509 11 view .LVU155
 681 0052 0020     		movs	r0, #0
 682              	.LVL72:
 509:..\..\..\..\..\..\Software\uC-LIB/lib_ascii.c **** 
 683              		.loc 1 509 11 view .LVU156
 684 0054 F6E7     		b	.L48
 685              	.LVL73:
 686              	.L54:
 509:..\..\..\..\..\..\Software\uC-LIB/lib_ascii.c **** 
 687              		.loc 1 509 11 view .LVU157
 688 0056 0020     		movs	r0, #0
 689              	.LVL74:
 509:..\..\..\..\..\..\Software\uC-LIB/lib_ascii.c **** 
 690              		.loc 1 509 11 view .LVU158
 691 0058 F4E7     		b	.L48
 692              	.LVL75:
 693              	.L55:
 509:..\..\..\..\..\..\Software\uC-LIB/lib_ascii.c **** 
 694              		.loc 1 509 11 view .LVU159
 695 005a 0020     		movs	r0, #0
 696              	.LVL76:
 509:..\..\..\..\..\..\Software\uC-LIB/lib_ascii.c **** 
 697              		.loc 1 509 11 view .LVU160
 698 005c F2E7     		b	.L48
 699              	.LVL77:
 700              	.L56:
 509:..\..\..\..\..\..\Software\uC-LIB/lib_ascii.c **** 
 701              		.loc 1 509 11 view .LVU161
 702 005e 0020     		movs	r0, #0
 703              	.LVL78:
 509:..\..\..\..\..\..\Software\uC-LIB/lib_ascii.c **** 
 704              		.loc 1 509 11 view .LVU162
 705 0060 F0E7     		b	.L48
ARM GAS  C:\Users\EDULU~1.DES\AppData\Local\Temp\ccrgvmSp.s 			page 23


 706              	.LVL79:
 707              	.L57:
 509:..\..\..\..\..\..\Software\uC-LIB/lib_ascii.c **** 
 708              		.loc 1 509 11 view .LVU163
 709 0062 0020     		movs	r0, #0
 710              	.LVL80:
 509:..\..\..\..\..\..\Software\uC-LIB/lib_ascii.c **** 
 711              		.loc 1 509 11 view .LVU164
 712 0064 EEE7     		b	.L48
 713              	.L58:
 714 0066 0120     		movs	r0, #1
 715 0068 ECE7     		b	.L48
 716              		.cfi_endproc
 717              	.LFE11:
 718              		.size	ASCII_IsPunct, .-ASCII_IsPunct
 719              		.section	.text.ASCII_IsCtrl,"ax",%progbits
 720              		.align	1
 721              		.global	ASCII_IsCtrl
 722              		.syntax unified
 723              		.code	16
 724              		.thumb_func
 725              		.fpu softvfp
 726              		.type	ASCII_IsCtrl, %function
 727              	ASCII_IsCtrl:
 728              	.LVL81:
 729              	.LFB12:
 513:..\..\..\..\..\..\Software\uC-LIB/lib_ascii.c **** 
 514:..\..\..\..\..\..\Software\uC-LIB/lib_ascii.c **** 
 515:..\..\..\..\..\..\Software\uC-LIB/lib_ascii.c **** /*
 516:..\..\..\..\..\..\Software\uC-LIB/lib_ascii.c **** ***************************************************************************************************
 517:..\..\..\..\..\..\Software\uC-LIB/lib_ascii.c **** *                                           ASCII_IsCtrl()
 518:..\..\..\..\..\..\Software\uC-LIB/lib_ascii.c **** *
 519:..\..\..\..\..\..\Software\uC-LIB/lib_ascii.c **** * Description : Determine whether a character is a control character.
 520:..\..\..\..\..\..\Software\uC-LIB/lib_ascii.c **** *
 521:..\..\..\..\..\..\Software\uC-LIB/lib_ascii.c **** * Argument(s) : c           Character to examine.
 522:..\..\..\..\..\..\Software\uC-LIB/lib_ascii.c **** *
 523:..\..\..\..\..\..\Software\uC-LIB/lib_ascii.c **** * Return(s)   : DEF_YES, if character is     a control character.
 524:..\..\..\..\..\..\Software\uC-LIB/lib_ascii.c **** *
 525:..\..\..\..\..\..\Software\uC-LIB/lib_ascii.c **** *               DEF_NO,	 if character is NOT a control character.
 526:..\..\..\..\..\..\Software\uC-LIB/lib_ascii.c **** *
 527:..\..\..\..\..\..\Software\uC-LIB/lib_ascii.c **** * Caller(s)   : Application.
 528:..\..\..\..\..\..\Software\uC-LIB/lib_ascii.c **** *
 529:..\..\..\..\..\..\Software\uC-LIB/lib_ascii.c **** * Note(s)     : (1) (a) ISO/IEC 9899:TC2, Section 7.4.1.4.(2) states that "iscntrl() ... tests for 
 530:..\..\..\..\..\..\Software\uC-LIB/lib_ascii.c **** *                       control character".
 531:..\..\..\..\..\..\Software\uC-LIB/lib_ascii.c **** *
 532:..\..\..\..\..\..\Software\uC-LIB/lib_ascii.c **** *                   (b) ISO/IEC 9899:TC2, Section 7.4.(3), Note 169, states that in "the seven-bit 
 533:..\..\..\..\..\..\Software\uC-LIB/lib_ascii.c **** *                       ASCII character set, ... the control characters are those whose values lie 
 534:..\..\..\..\..\..\Software\uC-LIB/lib_ascii.c **** *                       0 (NUL) through 0x1F (US), and the character 0x7F (DEL)".
 535:..\..\..\..\..\..\Software\uC-LIB/lib_ascii.c **** ***************************************************************************************************
 536:..\..\..\..\..\..\Software\uC-LIB/lib_ascii.c **** */
 537:..\..\..\..\..\..\Software\uC-LIB/lib_ascii.c **** 
 538:..\..\..\..\..\..\Software\uC-LIB/lib_ascii.c **** CPU_BOOLEAN  ASCII_IsCtrl (CPU_CHAR  c)
 539:..\..\..\..\..\..\Software\uC-LIB/lib_ascii.c **** {
 730              		.loc 1 539 1 is_stmt 1 view -0
 731              		.cfi_startproc
 732              		@ args = 0, pretend = 0, frame = 0
 733              		@ frame_needed = 0, uses_anonymous_args = 0
ARM GAS  C:\Users\EDULU~1.DES\AppData\Local\Temp\ccrgvmSp.s 			page 24


 734              		@ link register save eliminated.
 540:..\..\..\..\..\..\Software\uC-LIB/lib_ascii.c ****     CPU_BOOLEAN  ctrl;
 735              		.loc 1 540 5 view .LVU166
 541:..\..\..\..\..\..\Software\uC-LIB/lib_ascii.c **** 
 542:..\..\..\..\..\..\Software\uC-LIB/lib_ascii.c **** 
 543:..\..\..\..\..\..\Software\uC-LIB/lib_ascii.c ****     ctrl = ASCII_IS_CTRL(c);
 736              		.loc 1 543 5 view .LVU167
 737              		.loc 1 543 10 is_stmt 0 view .LVU168
 738 0000 1F28     		cmp	r0, #31
 739 0002 05D9     		bls	.L61
 740              		.loc 1 543 12 discriminator 2 view .LVU169
 741 0004 7F28     		cmp	r0, #127
 742 0006 01D0     		beq	.L63
 743              		.loc 1 543 10 view .LVU170
 744 0008 0020     		movs	r0, #0
 745              	.LVL82:
 746              		.loc 1 543 10 view .LVU171
 747 000a 02E0     		b	.L60
 748              	.LVL83:
 749              	.L63:
 750              		.loc 1 543 10 view .LVU172
 751 000c 7E38     		subs	r0, r0, #126
 752              	.LVL84:
 753              		.loc 1 543 10 view .LVU173
 754 000e 00E0     		b	.L60
 755              	.LVL85:
 756              	.L61:
 757              		.loc 1 543 10 view .LVU174
 758 0010 0120     		movs	r0, #1
 759              	.LVL86:
 760              	.L60:
 544:..\..\..\..\..\..\Software\uC-LIB/lib_ascii.c **** 
 545:..\..\..\..\..\..\Software\uC-LIB/lib_ascii.c ****     return (ctrl);
 761              		.loc 1 545 5 is_stmt 1 discriminator 6 view .LVU175
 546:..\..\..\..\..\..\Software\uC-LIB/lib_ascii.c **** }
 762              		.loc 1 546 1 is_stmt 0 discriminator 6 view .LVU176
 763              		@ sp needed
 764 0012 7047     		bx	lr
 765              		.cfi_endproc
 766              	.LFE12:
 767              		.size	ASCII_IsCtrl, .-ASCII_IsCtrl
 768              		.section	.text.ASCII_ToLower,"ax",%progbits
 769              		.align	1
 770              		.global	ASCII_ToLower
 771              		.syntax unified
 772              		.code	16
 773              		.thumb_func
 774              		.fpu softvfp
 775              		.type	ASCII_ToLower, %function
 776              	ASCII_ToLower:
 777              	.LVL87:
 778              	.LFB13:
 547:..\..\..\..\..\..\Software\uC-LIB/lib_ascii.c **** 
 548:..\..\..\..\..\..\Software\uC-LIB/lib_ascii.c **** 
 549:..\..\..\..\..\..\Software\uC-LIB/lib_ascii.c **** /*$PAGE*/
 550:..\..\..\..\..\..\Software\uC-LIB/lib_ascii.c **** /*
 551:..\..\..\..\..\..\Software\uC-LIB/lib_ascii.c **** ***************************************************************************************************
ARM GAS  C:\Users\EDULU~1.DES\AppData\Local\Temp\ccrgvmSp.s 			page 25


 552:..\..\..\..\..\..\Software\uC-LIB/lib_ascii.c **** *                                           ASCII_ToLower()
 553:..\..\..\..\..\..\Software\uC-LIB/lib_ascii.c **** *
 554:..\..\..\..\..\..\Software\uC-LIB/lib_ascii.c **** * Description : Convert uppercase alphabetic character to its corresponding lowercase alphabetic ch
 555:..\..\..\..\..\..\Software\uC-LIB/lib_ascii.c **** *
 556:..\..\..\..\..\..\Software\uC-LIB/lib_ascii.c **** * Argument(s) : c           Character to convert.
 557:..\..\..\..\..\..\Software\uC-LIB/lib_ascii.c **** *
 558:..\..\..\..\..\..\Software\uC-LIB/lib_ascii.c **** * Return(s)   : Lowercase equivalent of 'c', if character 'c' is an uppercase character (see Note #
 559:..\..\..\..\..\..\Software\uC-LIB/lib_ascii.c **** *
 560:..\..\..\..\..\..\Software\uC-LIB/lib_ascii.c **** *               Character 'c',               otherwise                                  (see Note #
 561:..\..\..\..\..\..\Software\uC-LIB/lib_ascii.c **** *
 562:..\..\..\..\..\..\Software\uC-LIB/lib_ascii.c **** * Caller(s)   : Application.
 563:..\..\..\..\..\..\Software\uC-LIB/lib_ascii.c **** *
 564:..\..\..\..\..\..\Software\uC-LIB/lib_ascii.c **** * Note(s)     : (1) (a) ISO/IEC 9899:TC2, Section 7.4.2.1.(2) states that "tolower() ... converts a
 565:..\..\..\..\..\..\Software\uC-LIB/lib_ascii.c **** *                       uppercase letter to a corresponding lowercase letter".
 566:..\..\..\..\..\..\Software\uC-LIB/lib_ascii.c **** *
 567:..\..\..\..\..\..\Software\uC-LIB/lib_ascii.c **** *                   (b) ISO/IEC 9899:TC2, Section 7.4.2.1.(3) states that :
 568:..\..\..\..\..\..\Software\uC-LIB/lib_ascii.c **** *
 569:..\..\..\..\..\..\Software\uC-LIB/lib_ascii.c **** *                       (1) (A) "if the argument is a character for which isupper() is true and the
 570:..\..\..\..\..\..\Software\uC-LIB/lib_ascii.c **** *                                one or more corresponding characters ... for which islower() is tr
 571:..\..\..\..\..\..\Software\uC-LIB/lib_ascii.c **** *                           (B) "tolower() ... returns one of the corresponding characters;" ...
 572:..\..\..\..\..\..\Software\uC-LIB/lib_ascii.c **** *
 573:..\..\..\..\..\..\Software\uC-LIB/lib_ascii.c **** *                       (2) "otherwise, the argument is returned unchanged."
 574:..\..\..\..\..\..\Software\uC-LIB/lib_ascii.c **** ***************************************************************************************************
 575:..\..\..\..\..\..\Software\uC-LIB/lib_ascii.c **** */
 576:..\..\..\..\..\..\Software\uC-LIB/lib_ascii.c **** 
 577:..\..\..\..\..\..\Software\uC-LIB/lib_ascii.c **** CPU_CHAR  ASCII_ToLower (CPU_CHAR  c)
 578:..\..\..\..\..\..\Software\uC-LIB/lib_ascii.c **** {
 779              		.loc 1 578 1 is_stmt 1 view -0
 780              		.cfi_startproc
 781              		@ args = 0, pretend = 0, frame = 0
 782              		@ frame_needed = 0, uses_anonymous_args = 0
 783              		@ link register save eliminated.
 579:..\..\..\..\..\..\Software\uC-LIB/lib_ascii.c ****     CPU_CHAR  lower;
 784              		.loc 1 579 5 view .LVU178
 580:..\..\..\..\..\..\Software\uC-LIB/lib_ascii.c **** 
 581:..\..\..\..\..\..\Software\uC-LIB/lib_ascii.c **** 
 582:..\..\..\..\..\..\Software\uC-LIB/lib_ascii.c ****     lower = ASCII_TO_LOWER(c);
 785              		.loc 1 582 5 view .LVU179
 786              		.loc 1 582 13 is_stmt 0 view .LVU180
 787 0000 0300     		movs	r3, r0
 788 0002 413B     		subs	r3, r3, #65
 789 0004 DBB2     		uxtb	r3, r3
 790              		.loc 1 582 11 view .LVU181
 791 0006 192B     		cmp	r3, #25
 792 0008 01D8     		bhi	.L65
 793              		.loc 1 582 11 discriminator 1 view .LVU182
 794 000a 2030     		adds	r0, r0, #32
 795              	.LVL88:
 796              		.loc 1 582 11 discriminator 1 view .LVU183
 797 000c C0B2     		uxtb	r0, r0
 798              	.L65:
 799              	.LVL89:
 583:..\..\..\..\..\..\Software\uC-LIB/lib_ascii.c **** 
 584:..\..\..\..\..\..\Software\uC-LIB/lib_ascii.c ****     return (lower);
 800              		.loc 1 584 5 is_stmt 1 discriminator 4 view .LVU184
 585:..\..\..\..\..\..\Software\uC-LIB/lib_ascii.c **** }
 801              		.loc 1 585 1 is_stmt 0 discriminator 4 view .LVU185
ARM GAS  C:\Users\EDULU~1.DES\AppData\Local\Temp\ccrgvmSp.s 			page 26


 802              		@ sp needed
 803 000e 7047     		bx	lr
 804              		.cfi_endproc
 805              	.LFE13:
 806              		.size	ASCII_ToLower, .-ASCII_ToLower
 807              		.section	.text.ASCII_ToUpper,"ax",%progbits
 808              		.align	1
 809              		.global	ASCII_ToUpper
 810              		.syntax unified
 811              		.code	16
 812              		.thumb_func
 813              		.fpu softvfp
 814              		.type	ASCII_ToUpper, %function
 815              	ASCII_ToUpper:
 816              	.LVL90:
 817              	.LFB14:
 586:..\..\..\..\..\..\Software\uC-LIB/lib_ascii.c **** 
 587:..\..\..\..\..\..\Software\uC-LIB/lib_ascii.c **** 
 588:..\..\..\..\..\..\Software\uC-LIB/lib_ascii.c **** /*
 589:..\..\..\..\..\..\Software\uC-LIB/lib_ascii.c **** ***************************************************************************************************
 590:..\..\..\..\..\..\Software\uC-LIB/lib_ascii.c **** *                                           ASCII_ToUpper()
 591:..\..\..\..\..\..\Software\uC-LIB/lib_ascii.c **** *
 592:..\..\..\..\..\..\Software\uC-LIB/lib_ascii.c **** * Description : Convert lowercase alphabetic character to its corresponding uppercase alphabetic ch
 593:..\..\..\..\..\..\Software\uC-LIB/lib_ascii.c **** *
 594:..\..\..\..\..\..\Software\uC-LIB/lib_ascii.c **** * Argument(s) : c           Character to convert.
 595:..\..\..\..\..\..\Software\uC-LIB/lib_ascii.c **** *
 596:..\..\..\..\..\..\Software\uC-LIB/lib_ascii.c **** * Return(s)   : Uppercase equivalent of 'c', if character 'c' is a lowercase character (see Note #1
 597:..\..\..\..\..\..\Software\uC-LIB/lib_ascii.c **** *
 598:..\..\..\..\..\..\Software\uC-LIB/lib_ascii.c **** *               Character 'c',               otherwise                                 (see Note #1
 599:..\..\..\..\..\..\Software\uC-LIB/lib_ascii.c **** *
 600:..\..\..\..\..\..\Software\uC-LIB/lib_ascii.c **** * Caller(s)   : Application.
 601:..\..\..\..\..\..\Software\uC-LIB/lib_ascii.c **** *
 602:..\..\..\..\..\..\Software\uC-LIB/lib_ascii.c **** * Note(s)     : (1) (a) ISO/IEC 9899:TC2, Section 7.4.2.2.(2) states that "toupper() ... converts a
 603:..\..\..\..\..\..\Software\uC-LIB/lib_ascii.c **** *                       lowercase letter to a corresponding uppercase letter".
 604:..\..\..\..\..\..\Software\uC-LIB/lib_ascii.c **** *
 605:..\..\..\..\..\..\Software\uC-LIB/lib_ascii.c **** *                   (b) ISO/IEC 9899:TC2, Section 7.4.2.2.(3) states that :
 606:..\..\..\..\..\..\Software\uC-LIB/lib_ascii.c **** *
 607:..\..\..\..\..\..\Software\uC-LIB/lib_ascii.c **** *                       (1) (A) "if the argument is a character for which islower() is true and the
 608:..\..\..\..\..\..\Software\uC-LIB/lib_ascii.c **** *                                one or more corresponding characters ... for which isupper() is tr
 609:..\..\..\..\..\..\Software\uC-LIB/lib_ascii.c **** *                           (B) "toupper() ... returns one of the corresponding characters;" ...
 610:..\..\..\..\..\..\Software\uC-LIB/lib_ascii.c **** *
 611:..\..\..\..\..\..\Software\uC-LIB/lib_ascii.c **** *                       (2) "otherwise, the argument is returned unchanged."
 612:..\..\..\..\..\..\Software\uC-LIB/lib_ascii.c **** ***************************************************************************************************
 613:..\..\..\..\..\..\Software\uC-LIB/lib_ascii.c **** */
 614:..\..\..\..\..\..\Software\uC-LIB/lib_ascii.c **** 
 615:..\..\..\..\..\..\Software\uC-LIB/lib_ascii.c **** CPU_CHAR  ASCII_ToUpper (CPU_CHAR  c)
 616:..\..\..\..\..\..\Software\uC-LIB/lib_ascii.c **** {
 818              		.loc 1 616 1 is_stmt 1 view -0
 819              		.cfi_startproc
 820              		@ args = 0, pretend = 0, frame = 0
 821              		@ frame_needed = 0, uses_anonymous_args = 0
 822              		@ link register save eliminated.
 617:..\..\..\..\..\..\Software\uC-LIB/lib_ascii.c ****     CPU_CHAR  upper;
 823              		.loc 1 617 5 view .LVU187
 618:..\..\..\..\..\..\Software\uC-LIB/lib_ascii.c **** 
 619:..\..\..\..\..\..\Software\uC-LIB/lib_ascii.c **** 
 620:..\..\..\..\..\..\Software\uC-LIB/lib_ascii.c ****     upper = ASCII_TO_UPPER(c);
ARM GAS  C:\Users\EDULU~1.DES\AppData\Local\Temp\ccrgvmSp.s 			page 27


 824              		.loc 1 620 5 view .LVU188
 825              		.loc 1 620 13 is_stmt 0 view .LVU189
 826 0000 0300     		movs	r3, r0
 827 0002 613B     		subs	r3, r3, #97
 828 0004 DBB2     		uxtb	r3, r3
 829              		.loc 1 620 11 view .LVU190
 830 0006 192B     		cmp	r3, #25
 831 0008 01D8     		bhi	.L67
 832              		.loc 1 620 11 discriminator 1 view .LVU191
 833 000a 2038     		subs	r0, r0, #32
 834              	.LVL91:
 835              		.loc 1 620 11 discriminator 1 view .LVU192
 836 000c C0B2     		uxtb	r0, r0
 837              	.L67:
 838              	.LVL92:
 621:..\..\..\..\..\..\Software\uC-LIB/lib_ascii.c **** 
 622:..\..\..\..\..\..\Software\uC-LIB/lib_ascii.c ****     return (upper);
 839              		.loc 1 622 5 is_stmt 1 discriminator 4 view .LVU193
 623:..\..\..\..\..\..\Software\uC-LIB/lib_ascii.c **** }
 840              		.loc 1 623 1 is_stmt 0 discriminator 4 view .LVU194
 841              		@ sp needed
 842 000e 7047     		bx	lr
 843              		.cfi_endproc
 844              	.LFE14:
 845              		.size	ASCII_ToUpper, .-ASCII_ToUpper
 846              		.section	.text.ASCII_Cmp,"ax",%progbits
 847              		.align	1
 848              		.global	ASCII_Cmp
 849              		.syntax unified
 850              		.code	16
 851              		.thumb_func
 852              		.fpu softvfp
 853              		.type	ASCII_Cmp, %function
 854              	ASCII_Cmp:
 855              	.LVL93:
 856              	.LFB15:
 624:..\..\..\..\..\..\Software\uC-LIB/lib_ascii.c **** 
 625:..\..\..\..\..\..\Software\uC-LIB/lib_ascii.c **** 
 626:..\..\..\..\..\..\Software\uC-LIB/lib_ascii.c **** /*$PAGE*/
 627:..\..\..\..\..\..\Software\uC-LIB/lib_ascii.c **** /*
 628:..\..\..\..\..\..\Software\uC-LIB/lib_ascii.c **** ***************************************************************************************************
 629:..\..\..\..\..\..\Software\uC-LIB/lib_ascii.c **** *                                             ASCII_Cmp()
 630:..\..\..\..\..\..\Software\uC-LIB/lib_ascii.c **** *
 631:..\..\..\..\..\..\Software\uC-LIB/lib_ascii.c **** * Description : Determine if two characters are identical (case-insensitive).
 632:..\..\..\..\..\..\Software\uC-LIB/lib_ascii.c **** *
 633:..\..\..\..\..\..\Software\uC-LIB/lib_ascii.c **** * Argument(s) : c1          First  character.
 634:..\..\..\..\..\..\Software\uC-LIB/lib_ascii.c **** *
 635:..\..\..\..\..\..\Software\uC-LIB/lib_ascii.c **** *               c2          Second character.
 636:..\..\..\..\..\..\Software\uC-LIB/lib_ascii.c **** *
 637:..\..\..\..\..\..\Software\uC-LIB/lib_ascii.c **** * Return(s)   : DEF_YES, if the characters are     identical.
 638:..\..\..\..\..\..\Software\uC-LIB/lib_ascii.c **** *
 639:..\..\..\..\..\..\Software\uC-LIB/lib_ascii.c **** *               DEF_NO,  if the characters are NOT identical.
 640:..\..\..\..\..\..\Software\uC-LIB/lib_ascii.c **** *
 641:..\..\..\..\..\..\Software\uC-LIB/lib_ascii.c **** * Caller(s)   : Application.
 642:..\..\..\..\..\..\Software\uC-LIB/lib_ascii.c **** *
 643:..\..\..\..\..\..\Software\uC-LIB/lib_ascii.c **** * Note(s)     : none.
 644:..\..\..\..\..\..\Software\uC-LIB/lib_ascii.c **** ***************************************************************************************************
ARM GAS  C:\Users\EDULU~1.DES\AppData\Local\Temp\ccrgvmSp.s 			page 28


 645:..\..\..\..\..\..\Software\uC-LIB/lib_ascii.c **** */
 646:..\..\..\..\..\..\Software\uC-LIB/lib_ascii.c **** 
 647:..\..\..\..\..\..\Software\uC-LIB/lib_ascii.c **** CPU_BOOLEAN  ASCII_Cmp (CPU_CHAR  c1,
 648:..\..\..\..\..\..\Software\uC-LIB/lib_ascii.c ****                         CPU_CHAR  c2)
 649:..\..\..\..\..\..\Software\uC-LIB/lib_ascii.c **** {
 857              		.loc 1 649 1 is_stmt 1 view -0
 858              		.cfi_startproc
 859              		@ args = 0, pretend = 0, frame = 0
 860              		@ frame_needed = 0, uses_anonymous_args = 0
 861              		.loc 1 649 1 is_stmt 0 view .LVU196
 862 0000 70B5     		push	{r4, r5, r6, lr}
 863              		.cfi_def_cfa_offset 16
 864              		.cfi_offset 4, -16
 865              		.cfi_offset 5, -12
 866              		.cfi_offset 6, -8
 867              		.cfi_offset 14, -4
 868 0002 0D00     		movs	r5, r1
 650:..\..\..\..\..\..\Software\uC-LIB/lib_ascii.c ****     CPU_CHAR     c1_upper;
 869              		.loc 1 650 5 is_stmt 1 view .LVU197
 651:..\..\..\..\..\..\Software\uC-LIB/lib_ascii.c ****     CPU_CHAR     c2_upper;
 870              		.loc 1 651 5 view .LVU198
 652:..\..\..\..\..\..\Software\uC-LIB/lib_ascii.c ****     CPU_BOOLEAN  cmp;
 871              		.loc 1 652 5 view .LVU199
 653:..\..\..\..\..\..\Software\uC-LIB/lib_ascii.c **** 
 654:..\..\..\..\..\..\Software\uC-LIB/lib_ascii.c **** 
 655:..\..\..\..\..\..\Software\uC-LIB/lib_ascii.c ****     c1_upper =  ASCII_ToUpper(c1);
 872              		.loc 1 655 5 view .LVU200
 873              		.loc 1 655 17 is_stmt 0 view .LVU201
 874 0004 FFF7FEFF 		bl	ASCII_ToUpper
 875              	.LVL94:
 876              		.loc 1 655 17 view .LVU202
 877 0008 0400     		movs	r4, r0
 878              	.LVL95:
 656:..\..\..\..\..\..\Software\uC-LIB/lib_ascii.c ****     c2_upper =  ASCII_ToUpper(c2);
 879              		.loc 1 656 5 is_stmt 1 view .LVU203
 880              		.loc 1 656 17 is_stmt 0 view .LVU204
 881 000a 2800     		movs	r0, r5
 882 000c FFF7FEFF 		bl	ASCII_ToUpper
 883              	.LVL96:
 657:..\..\..\..\..\..\Software\uC-LIB/lib_ascii.c ****     cmp      = (c1_upper == c2_upper) ? (DEF_YES) : (DEF_NO);
 884              		.loc 1 657 5 is_stmt 1 view .LVU205
 885              		.loc 1 657 14 is_stmt 0 view .LVU206
 886 0010 8442     		cmp	r4, r0
 887 0012 01D0     		beq	.L71
 888 0014 0020     		movs	r0, #0
 889              	.LVL97:
 890              	.L69:
 658:..\..\..\..\..\..\Software\uC-LIB/lib_ascii.c **** 
 659:..\..\..\..\..\..\Software\uC-LIB/lib_ascii.c ****     return (cmp);
 891              		.loc 1 659 5 is_stmt 1 discriminator 4 view .LVU207
 660:..\..\..\..\..\..\Software\uC-LIB/lib_ascii.c **** }
 892              		.loc 1 660 1 is_stmt 0 discriminator 4 view .LVU208
 893              		@ sp needed
 894              	.LVL98:
 895              		.loc 1 660 1 discriminator 4 view .LVU209
 896 0016 70BD     		pop	{r4, r5, r6, pc}
 897              	.LVL99:
ARM GAS  C:\Users\EDULU~1.DES\AppData\Local\Temp\ccrgvmSp.s 			page 29


 898              	.L71:
 657:..\..\..\..\..\..\Software\uC-LIB/lib_ascii.c ****     cmp      = (c1_upper == c2_upper) ? (DEF_YES) : (DEF_NO);
 899              		.loc 1 657 14 view .LVU210
 900 0018 0120     		movs	r0, #1
 901              	.LVL100:
 657:..\..\..\..\..\..\Software\uC-LIB/lib_ascii.c ****     cmp      = (c1_upper == c2_upper) ? (DEF_YES) : (DEF_NO);
 902              		.loc 1 657 14 view .LVU211
 903 001a FCE7     		b	.L69
 904              		.cfi_endproc
 905              	.LFE15:
 906              		.size	ASCII_Cmp, .-ASCII_Cmp
 907              		.text
 908              	.Letext0:
 909              		.file 2 "..\\..\\..\\..\\..\\..\\Software\\uC-CPU\\ARM-Cortex-M0\\GNU/cpu.h"