ARM GAS  C:\Users\EDULU~1.DES\AppData\Local\Temp\ccEcIMKV.s 			page 1


   1              		.cpu cortex-m0
   2              		.eabi_attribute 20, 1
   3              		.eabi_attribute 21, 1
   4              		.eabi_attribute 23, 3
   5              		.eabi_attribute 24, 1
   6              		.eabi_attribute 25, 1
   7              		.eabi_attribute 26, 1
   8              		.eabi_attribute 30, 1
   9              		.eabi_attribute 34, 0
  10              		.eabi_attribute 18, 4
  11              		.file	"os_cpu_c.c"
  12              		.text
  13              	.Ltext0:
  14              		.cfi_sections	.debug_frame
  15              		.section	.text.OSInitHookBegin,"ax",%progbits
  16              		.align	1
  17              		.global	OSInitHookBegin
  18              		.arch armv6s-m
  19              		.syntax unified
  20              		.code	16
  21              		.thumb_func
  22              		.fpu softvfp
  23              		.type	OSInitHookBegin, %function
  24              	OSInitHookBegin:
  25              	.LFB3:
  26              		.file 1 "..\\..\\..\\..\\..\\..\\Software\\uCOS-II\\Ports\\ARM-Cortex-M0\\Generic\\GNU\\os_cpu_c.c
   1:..\..\..\..\..\..\Software\uCOS-II\Ports\ARM-Cortex-M0\Generic\GNU/os_cpu_c.c **** /*
   2:..\..\..\..\..\..\Software\uCOS-II\Ports\ARM-Cortex-M0\Generic\GNU/os_cpu_c.c **** ***************************************************************************************************
   3:..\..\..\..\..\..\Software\uCOS-II\Ports\ARM-Cortex-M0\Generic\GNU/os_cpu_c.c **** *                                                uC/OS-II
   4:..\..\..\..\..\..\Software\uCOS-II\Ports\ARM-Cortex-M0\Generic\GNU/os_cpu_c.c **** *                                          The Real-Time Kernel
   5:..\..\..\..\..\..\Software\uCOS-II\Ports\ARM-Cortex-M0\Generic\GNU/os_cpu_c.c **** *
   6:..\..\..\..\..\..\Software\uCOS-II\Ports\ARM-Cortex-M0\Generic\GNU/os_cpu_c.c **** *
   7:..\..\..\..\..\..\Software\uCOS-II\Ports\ARM-Cortex-M0\Generic\GNU/os_cpu_c.c **** *                           (c) Copyright 2009-2015; Micrium, Inc.; Weston, FL
   8:..\..\..\..\..\..\Software\uCOS-II\Ports\ARM-Cortex-M0\Generic\GNU/os_cpu_c.c **** *                    All rights reserved.  Protected by international copyright laws.
   9:..\..\..\..\..\..\Software\uCOS-II\Ports\ARM-Cortex-M0\Generic\GNU/os_cpu_c.c **** *
  10:..\..\..\..\..\..\Software\uCOS-II\Ports\ARM-Cortex-M0\Generic\GNU/os_cpu_c.c **** *                                           ARM Cortex-M0 Port
  11:..\..\..\..\..\..\Software\uCOS-II\Ports\ARM-Cortex-M0\Generic\GNU/os_cpu_c.c **** *
  12:..\..\..\..\..\..\Software\uCOS-II\Ports\ARM-Cortex-M0\Generic\GNU/os_cpu_c.c **** * File      : OS_CPU_C.C
  13:..\..\..\..\..\..\Software\uCOS-II\Ports\ARM-Cortex-M0\Generic\GNU/os_cpu_c.c **** * Version   : V2.92.11
  14:..\..\..\..\..\..\Software\uCOS-II\Ports\ARM-Cortex-M0\Generic\GNU/os_cpu_c.c **** * By        : JJL
  15:..\..\..\..\..\..\Software\uCOS-II\Ports\ARM-Cortex-M0\Generic\GNU/os_cpu_c.c **** *             BN
  16:..\..\..\..\..\..\Software\uCOS-II\Ports\ARM-Cortex-M0\Generic\GNU/os_cpu_c.c **** *
  17:..\..\..\..\..\..\Software\uCOS-II\Ports\ARM-Cortex-M0\Generic\GNU/os_cpu_c.c **** * LICENSING TERMS:
  18:..\..\..\..\..\..\Software\uCOS-II\Ports\ARM-Cortex-M0\Generic\GNU/os_cpu_c.c **** * ---------------
  19:..\..\..\..\..\..\Software\uCOS-II\Ports\ARM-Cortex-M0\Generic\GNU/os_cpu_c.c **** *           uC/OS-II is provided in source form for FREE short-term evaluation, for educational use
  20:..\..\..\..\..\..\Software\uCOS-II\Ports\ARM-Cortex-M0\Generic\GNU/os_cpu_c.c **** *           for peaceful research.  If you plan or intend to use uC/OS-II in a commercial applicati
  21:..\..\..\..\..\..\Software\uCOS-II\Ports\ARM-Cortex-M0\Generic\GNU/os_cpu_c.c **** *           product then, you need to contact Micrium to properly license uC/OS-II for its use in y
  22:..\..\..\..\..\..\Software\uCOS-II\Ports\ARM-Cortex-M0\Generic\GNU/os_cpu_c.c **** *           application/product.   We provide ALL the source code for your convenience and to help 
  23:..\..\..\..\..\..\Software\uCOS-II\Ports\ARM-Cortex-M0\Generic\GNU/os_cpu_c.c **** *           experience uC/OS-II.  The fact that the source is provided does NOT mean that you can u
  24:..\..\..\..\..\..\Software\uCOS-II\Ports\ARM-Cortex-M0\Generic\GNU/os_cpu_c.c **** *           it commercially without paying a licensing fee.
  25:..\..\..\..\..\..\Software\uCOS-II\Ports\ARM-Cortex-M0\Generic\GNU/os_cpu_c.c **** *
  26:..\..\..\..\..\..\Software\uCOS-II\Ports\ARM-Cortex-M0\Generic\GNU/os_cpu_c.c **** *           Knowledge of the source code may NOT be used to develop a similar product.
  27:..\..\..\..\..\..\Software\uCOS-II\Ports\ARM-Cortex-M0\Generic\GNU/os_cpu_c.c **** *
  28:..\..\..\..\..\..\Software\uCOS-II\Ports\ARM-Cortex-M0\Generic\GNU/os_cpu_c.c **** *           Please help us continue to provide the embedded community with the finest software avai
  29:..\..\..\..\..\..\Software\uCOS-II\Ports\ARM-Cortex-M0\Generic\GNU/os_cpu_c.c **** *           Your honesty is greatly appreciated.
  30:..\..\..\..\..\..\Software\uCOS-II\Ports\ARM-Cortex-M0\Generic\GNU/os_cpu_c.c **** *
  31:..\..\..\..\..\..\Software\uCOS-II\Ports\ARM-Cortex-M0\Generic\GNU/os_cpu_c.c **** *           You can find our product's user manual, API reference, release notes and
ARM GAS  C:\Users\EDULU~1.DES\AppData\Local\Temp\ccEcIMKV.s 			page 2


  32:..\..\..\..\..\..\Software\uCOS-II\Ports\ARM-Cortex-M0\Generic\GNU/os_cpu_c.c **** *           more information at https://doc.micrium.com.
  33:..\..\..\..\..\..\Software\uCOS-II\Ports\ARM-Cortex-M0\Generic\GNU/os_cpu_c.c **** *           You can contact us at www.micrium.com, or by phone at +1 (954) 217-2036.
  34:..\..\..\..\..\..\Software\uCOS-II\Ports\ARM-Cortex-M0\Generic\GNU/os_cpu_c.c **** *
  35:..\..\..\..\..\..\Software\uCOS-II\Ports\ARM-Cortex-M0\Generic\GNU/os_cpu_c.c **** * For       : ARMv6M Cortex-M0 or Cortex-M0+
  36:..\..\..\..\..\..\Software\uCOS-II\Ports\ARM-Cortex-M0\Generic\GNU/os_cpu_c.c **** * Mode      : Thumb2
  37:..\..\..\..\..\..\Software\uCOS-II\Ports\ARM-Cortex-M0\Generic\GNU/os_cpu_c.c **** * Toolchain : GNU C Compiler
  38:..\..\..\..\..\..\Software\uCOS-II\Ports\ARM-Cortex-M0\Generic\GNU/os_cpu_c.c **** *
  39:..\..\..\..\..\..\Software\uCOS-II\Ports\ARM-Cortex-M0\Generic\GNU/os_cpu_c.c **** * Note(s)   : (1) This port supports the ARM Cortex-M0 and Cortex-M0+ architectures.
  40:..\..\..\..\..\..\Software\uCOS-II\Ports\ARM-Cortex-M0\Generic\GNU/os_cpu_c.c **** ***************************************************************************************************
  41:..\..\..\..\..\..\Software\uCOS-II\Ports\ARM-Cortex-M0\Generic\GNU/os_cpu_c.c **** */
  42:..\..\..\..\..\..\Software\uCOS-II\Ports\ARM-Cortex-M0\Generic\GNU/os_cpu_c.c **** 
  43:..\..\..\..\..\..\Software\uCOS-II\Ports\ARM-Cortex-M0\Generic\GNU/os_cpu_c.c **** #define   OS_CPU_GLOBALS
  44:..\..\..\..\..\..\Software\uCOS-II\Ports\ARM-Cortex-M0\Generic\GNU/os_cpu_c.c **** 
  45:..\..\..\..\..\..\Software\uCOS-II\Ports\ARM-Cortex-M0\Generic\GNU/os_cpu_c.c **** 
  46:..\..\..\..\..\..\Software\uCOS-II\Ports\ARM-Cortex-M0\Generic\GNU/os_cpu_c.c **** /*
  47:..\..\..\..\..\..\Software\uCOS-II\Ports\ARM-Cortex-M0\Generic\GNU/os_cpu_c.c **** ***************************************************************************************************
  48:..\..\..\..\..\..\Software\uCOS-II\Ports\ARM-Cortex-M0\Generic\GNU/os_cpu_c.c **** *                                             INCLUDE FILES
  49:..\..\..\..\..\..\Software\uCOS-II\Ports\ARM-Cortex-M0\Generic\GNU/os_cpu_c.c **** ***************************************************************************************************
  50:..\..\..\..\..\..\Software\uCOS-II\Ports\ARM-Cortex-M0\Generic\GNU/os_cpu_c.c **** */
  51:..\..\..\..\..\..\Software\uCOS-II\Ports\ARM-Cortex-M0\Generic\GNU/os_cpu_c.c **** 
  52:..\..\..\..\..\..\Software\uCOS-II\Ports\ARM-Cortex-M0\Generic\GNU/os_cpu_c.c **** #include  <ucos_ii.h>
  53:..\..\..\..\..\..\Software\uCOS-II\Ports\ARM-Cortex-M0\Generic\GNU/os_cpu_c.c **** 
  54:..\..\..\..\..\..\Software\uCOS-II\Ports\ARM-Cortex-M0\Generic\GNU/os_cpu_c.c **** 
  55:..\..\..\..\..\..\Software\uCOS-II\Ports\ARM-Cortex-M0\Generic\GNU/os_cpu_c.c **** /*
  56:..\..\..\..\..\..\Software\uCOS-II\Ports\ARM-Cortex-M0\Generic\GNU/os_cpu_c.c **** ***************************************************************************************************
  57:..\..\..\..\..\..\Software\uCOS-II\Ports\ARM-Cortex-M0\Generic\GNU/os_cpu_c.c **** *                                          LOCAL VARIABLES
  58:..\..\..\..\..\..\Software\uCOS-II\Ports\ARM-Cortex-M0\Generic\GNU/os_cpu_c.c **** ***************************************************************************************************
  59:..\..\..\..\..\..\Software\uCOS-II\Ports\ARM-Cortex-M0\Generic\GNU/os_cpu_c.c **** */
  60:..\..\..\..\..\..\Software\uCOS-II\Ports\ARM-Cortex-M0\Generic\GNU/os_cpu_c.c **** 
  61:..\..\..\..\..\..\Software\uCOS-II\Ports\ARM-Cortex-M0\Generic\GNU/os_cpu_c.c **** #if OS_TMR_EN > 0u
  62:..\..\..\..\..\..\Software\uCOS-II\Ports\ARM-Cortex-M0\Generic\GNU/os_cpu_c.c **** static  INT16U  OSTmrCtr;
  63:..\..\..\..\..\..\Software\uCOS-II\Ports\ARM-Cortex-M0\Generic\GNU/os_cpu_c.c **** #endif
  64:..\..\..\..\..\..\Software\uCOS-II\Ports\ARM-Cortex-M0\Generic\GNU/os_cpu_c.c **** 
  65:..\..\..\..\..\..\Software\uCOS-II\Ports\ARM-Cortex-M0\Generic\GNU/os_cpu_c.c **** 
  66:..\..\..\..\..\..\Software\uCOS-II\Ports\ARM-Cortex-M0\Generic\GNU/os_cpu_c.c **** /*
  67:..\..\..\..\..\..\Software\uCOS-II\Ports\ARM-Cortex-M0\Generic\GNU/os_cpu_c.c **** ***************************************************************************************************
  68:..\..\..\..\..\..\Software\uCOS-II\Ports\ARM-Cortex-M0\Generic\GNU/os_cpu_c.c **** *                                          SYS TICK DEFINES
  69:..\..\..\..\..\..\Software\uCOS-II\Ports\ARM-Cortex-M0\Generic\GNU/os_cpu_c.c **** ***************************************************************************************************
  70:..\..\..\..\..\..\Software\uCOS-II\Ports\ARM-Cortex-M0\Generic\GNU/os_cpu_c.c **** */
  71:..\..\..\..\..\..\Software\uCOS-II\Ports\ARM-Cortex-M0\Generic\GNU/os_cpu_c.c **** 
  72:..\..\..\..\..\..\Software\uCOS-II\Ports\ARM-Cortex-M0\Generic\GNU/os_cpu_c.c **** #define  OS_CPU_CM0_NVIC_ST_CTRL    (*((volatile INT32U *)0xE000E010uL)) /* SysTick Ctrl & Status R
  73:..\..\..\..\..\..\Software\uCOS-II\Ports\ARM-Cortex-M0\Generic\GNU/os_cpu_c.c **** #define  OS_CPU_CM0_NVIC_ST_RELOAD  (*((volatile INT32U *)0xE000E014uL)) /* SysTick Reload  Value R
  74:..\..\..\..\..\..\Software\uCOS-II\Ports\ARM-Cortex-M0\Generic\GNU/os_cpu_c.c **** #define  OS_CPU_CM0_NVIC_ST_CURRENT (*((volatile INT32U *)0xE000E018uL)) /* SysTick Current Value R
  75:..\..\..\..\..\..\Software\uCOS-II\Ports\ARM-Cortex-M0\Generic\GNU/os_cpu_c.c **** #define  OS_CPU_CM0_NVIC_ST_CAL     (*((volatile INT32U *)0xE000E01CuL)) /* SysTick Cal     Value R
  76:..\..\..\..\..\..\Software\uCOS-II\Ports\ARM-Cortex-M0\Generic\GNU/os_cpu_c.c **** #define  OS_CPU_CM0_NVIC_PRIO_ST    (*((volatile INT32U *)0xE000ED20uL)) /* SysTick Handler Prio  R
  77:..\..\..\..\..\..\Software\uCOS-II\Ports\ARM-Cortex-M0\Generic\GNU/os_cpu_c.c **** 
  78:..\..\..\..\..\..\Software\uCOS-II\Ports\ARM-Cortex-M0\Generic\GNU/os_cpu_c.c **** #define  OS_CPU_CM0_NVIC_ST_CTRL_COUNT                    0x00010000uL   /* Count flag.            
  79:..\..\..\..\..\..\Software\uCOS-II\Ports\ARM-Cortex-M0\Generic\GNU/os_cpu_c.c **** #define  OS_CPU_CM0_NVIC_ST_CTRL_CLK_SRC                  0x00000004uL   /* Clock Source.          
  80:..\..\..\..\..\..\Software\uCOS-II\Ports\ARM-Cortex-M0\Generic\GNU/os_cpu_c.c **** #define  OS_CPU_CM0_NVIC_ST_CTRL_INTEN                    0x00000002uL   /* Interrupt enable.      
  81:..\..\..\..\..\..\Software\uCOS-II\Ports\ARM-Cortex-M0\Generic\GNU/os_cpu_c.c **** #define  OS_CPU_CM0_NVIC_ST_CTRL_ENABLE                   0x00000001uL   /* Counter mode.          
  82:..\..\..\..\..\..\Software\uCOS-II\Ports\ARM-Cortex-M0\Generic\GNU/os_cpu_c.c **** #define  OS_CPU_CM0_NVIC_PRIO_MIN                               0xFFu    /* Min handler prio.      
  83:..\..\..\..\..\..\Software\uCOS-II\Ports\ARM-Cortex-M0\Generic\GNU/os_cpu_c.c **** 
  84:..\..\..\..\..\..\Software\uCOS-II\Ports\ARM-Cortex-M0\Generic\GNU/os_cpu_c.c **** 
  85:..\..\..\..\..\..\Software\uCOS-II\Ports\ARM-Cortex-M0\Generic\GNU/os_cpu_c.c **** /*
  86:..\..\..\..\..\..\Software\uCOS-II\Ports\ARM-Cortex-M0\Generic\GNU/os_cpu_c.c **** ***************************************************************************************************
  87:..\..\..\..\..\..\Software\uCOS-II\Ports\ARM-Cortex-M0\Generic\GNU/os_cpu_c.c **** *                                       OS INITIALIZATION HOOK
  88:..\..\..\..\..\..\Software\uCOS-II\Ports\ARM-Cortex-M0\Generic\GNU/os_cpu_c.c **** *                                            (BEGINNING)
ARM GAS  C:\Users\EDULU~1.DES\AppData\Local\Temp\ccEcIMKV.s 			page 3


  89:..\..\..\..\..\..\Software\uCOS-II\Ports\ARM-Cortex-M0\Generic\GNU/os_cpu_c.c **** *
  90:..\..\..\..\..\..\Software\uCOS-II\Ports\ARM-Cortex-M0\Generic\GNU/os_cpu_c.c **** * Description: This function is called by OSInit() at the beginning of OSInit().
  91:..\..\..\..\..\..\Software\uCOS-II\Ports\ARM-Cortex-M0\Generic\GNU/os_cpu_c.c **** *
  92:..\..\..\..\..\..\Software\uCOS-II\Ports\ARM-Cortex-M0\Generic\GNU/os_cpu_c.c **** * Arguments  : none
  93:..\..\..\..\..\..\Software\uCOS-II\Ports\ARM-Cortex-M0\Generic\GNU/os_cpu_c.c **** *
  94:..\..\..\..\..\..\Software\uCOS-II\Ports\ARM-Cortex-M0\Generic\GNU/os_cpu_c.c **** * Note(s)    : 1) Interrupts should be disabled during this call.
  95:..\..\..\..\..\..\Software\uCOS-II\Ports\ARM-Cortex-M0\Generic\GNU/os_cpu_c.c **** ***************************************************************************************************
  96:..\..\..\..\..\..\Software\uCOS-II\Ports\ARM-Cortex-M0\Generic\GNU/os_cpu_c.c **** */
  97:..\..\..\..\..\..\Software\uCOS-II\Ports\ARM-Cortex-M0\Generic\GNU/os_cpu_c.c **** #if OS_CPU_HOOKS_EN > 0u
  98:..\..\..\..\..\..\Software\uCOS-II\Ports\ARM-Cortex-M0\Generic\GNU/os_cpu_c.c **** void  OSInitHookBegin (void)
  99:..\..\..\..\..\..\Software\uCOS-II\Ports\ARM-Cortex-M0\Generic\GNU/os_cpu_c.c **** {
  27              		.loc 1 99 1 view -0
  28              		.cfi_startproc
  29              		@ args = 0, pretend = 0, frame = 0
  30              		@ frame_needed = 0, uses_anonymous_args = 0
  31              		@ link register save eliminated.
 100:..\..\..\..\..\..\Software\uCOS-II\Ports\ARM-Cortex-M0\Generic\GNU/os_cpu_c.c ****     INT32U   size;
  32              		.loc 1 100 5 view .LVU1
 101:..\..\..\..\..\..\Software\uCOS-II\Ports\ARM-Cortex-M0\Generic\GNU/os_cpu_c.c ****     OS_STK  *pstk;
  33              		.loc 1 101 5 view .LVU2
 102:..\..\..\..\..\..\Software\uCOS-II\Ports\ARM-Cortex-M0\Generic\GNU/os_cpu_c.c **** 
 103:..\..\..\..\..\..\Software\uCOS-II\Ports\ARM-Cortex-M0\Generic\GNU/os_cpu_c.c ****                                                                 /* Clear exception stack for stack 
 104:..\..\..\..\..\..\Software\uCOS-II\Ports\ARM-Cortex-M0\Generic\GNU/os_cpu_c.c ****     pstk = &OS_CPU_ExceptStk[0];
  34              		.loc 1 104 5 view .LVU3
  35              	.LVL0:
 105:..\..\..\..\..\..\Software\uCOS-II\Ports\ARM-Cortex-M0\Generic\GNU/os_cpu_c.c ****     size = OS_CPU_EXCEPT_STK_SIZE;
  36              		.loc 1 105 5 view .LVU4
 106:..\..\..\..\..\..\Software\uCOS-II\Ports\ARM-Cortex-M0\Generic\GNU/os_cpu_c.c ****     while (size > 0u) {
  37              		.loc 1 106 5 view .LVU5
 104:..\..\..\..\..\..\Software\uCOS-II\Ports\ARM-Cortex-M0\Generic\GNU/os_cpu_c.c ****     size = OS_CPU_EXCEPT_STK_SIZE;
  38              		.loc 1 104 10 is_stmt 0 view .LVU6
  39 0000 084B     		ldr	r3, .L5
 105:..\..\..\..\..\..\Software\uCOS-II\Ports\ARM-Cortex-M0\Generic\GNU/os_cpu_c.c ****     size = OS_CPU_EXCEPT_STK_SIZE;
  40              		.loc 1 105 10 view .LVU7
  41 0002 8022     		movs	r2, #128
  42              	.LVL1:
  43              	.L2:
  44              		.loc 1 106 11 view .LVU8
  45 0004 002A     		cmp	r2, #0
  46 0006 03D0     		beq	.L4
 107:..\..\..\..\..\..\Software\uCOS-II\Ports\ARM-Cortex-M0\Generic\GNU/os_cpu_c.c ****         size--;
  47              		.loc 1 107 9 is_stmt 1 view .LVU9
  48              		.loc 1 107 13 is_stmt 0 view .LVU10
  49 0008 013A     		subs	r2, r2, #1
  50              	.LVL2:
 108:..\..\..\..\..\..\Software\uCOS-II\Ports\ARM-Cortex-M0\Generic\GNU/os_cpu_c.c ****        *pstk++ = (OS_STK)0;
  51              		.loc 1 108 8 is_stmt 1 view .LVU11
  52              		.loc 1 108 16 is_stmt 0 view .LVU12
  53 000a 0021     		movs	r1, #0
  54 000c 02C3     		stmia	r3!, {r1}
  55              	.LVL3:
  56              		.loc 1 108 16 view .LVU13
  57 000e F9E7     		b	.L2
  58              	.LVL4:
  59              	.L4:
 109:..\..\..\..\..\..\Software\uCOS-II\Ports\ARM-Cortex-M0\Generic\GNU/os_cpu_c.c ****     }
 110:..\..\..\..\..\..\Software\uCOS-II\Ports\ARM-Cortex-M0\Generic\GNU/os_cpu_c.c **** 
ARM GAS  C:\Users\EDULU~1.DES\AppData\Local\Temp\ccEcIMKV.s 			page 4


 111:..\..\..\..\..\..\Software\uCOS-II\Ports\ARM-Cortex-M0\Generic\GNU/os_cpu_c.c ****                                                                 /* Align the ISR stack to 8-bytes  
 112:..\..\..\..\..\..\Software\uCOS-II\Ports\ARM-Cortex-M0\Generic\GNU/os_cpu_c.c ****     OS_CPU_ExceptStkBase = (OS_STK *)&OS_CPU_ExceptStk[OS_CPU_EXCEPT_STK_SIZE];
  60              		.loc 1 112 5 is_stmt 1 view .LVU14
 113:..\..\..\..\..\..\Software\uCOS-II\Ports\ARM-Cortex-M0\Generic\GNU/os_cpu_c.c ****     OS_CPU_ExceptStkBase = (OS_STK *)((OS_STK)(OS_CPU_ExceptStkBase) & 0xFFFFFFF8);
  61              		.loc 1 113 5 view .LVU15
  62              		.loc 1 113 70 is_stmt 0 view .LVU16
  63 0010 054B     		ldr	r3, .L5+4
  64              	.LVL5:
  65              		.loc 1 113 26 view .LVU17
  66 0012 0732     		adds	r2, r2, #7
  67              	.LVL6:
  68              		.loc 1 113 26 view .LVU18
  69 0014 9343     		bics	r3, r2
  70 0016 054A     		ldr	r2, .L5+8
  71              	.LVL7:
  72              		.loc 1 113 26 view .LVU19
  73 0018 1360     		str	r3, [r2]
 114:..\..\..\..\..\..\Software\uCOS-II\Ports\ARM-Cortex-M0\Generic\GNU/os_cpu_c.c **** 
 115:..\..\..\..\..\..\Software\uCOS-II\Ports\ARM-Cortex-M0\Generic\GNU/os_cpu_c.c **** #if OS_TMR_EN > 0u
 116:..\..\..\..\..\..\Software\uCOS-II\Ports\ARM-Cortex-M0\Generic\GNU/os_cpu_c.c ****     OSTmrCtr = 0u;
  74              		.loc 1 116 5 is_stmt 1 view .LVU20
  75              		.loc 1 116 14 is_stmt 0 view .LVU21
  76 001a 054B     		ldr	r3, .L5+12
  77 001c 0022     		movs	r2, #0
  78 001e 1A80     		strh	r2, [r3]
 117:..\..\..\..\..\..\Software\uCOS-II\Ports\ARM-Cortex-M0\Generic\GNU/os_cpu_c.c **** #endif
 118:..\..\..\..\..\..\Software\uCOS-II\Ports\ARM-Cortex-M0\Generic\GNU/os_cpu_c.c **** }
  79              		.loc 1 118 1 view .LVU22
  80              		@ sp needed
  81 0020 7047     		bx	lr
  82              	.L6:
  83 0022 C046     		.align	2
  84              	.L5:
  85 0024 00000000 		.word	OS_CPU_ExceptStk
  86 0028 00020000 		.word	OS_CPU_ExceptStk+512
  87 002c 00000000 		.word	OS_CPU_ExceptStkBase
  88 0030 00000000 		.word	.LANCHOR0
  89              		.cfi_endproc
  90              	.LFE3:
  91              		.size	OSInitHookBegin, .-OSInitHookBegin
  92              		.section	.text.OSInitHookEnd,"ax",%progbits
  93              		.align	1
  94              		.global	OSInitHookEnd
  95              		.syntax unified
  96              		.code	16
  97              		.thumb_func
  98              		.fpu softvfp
  99              		.type	OSInitHookEnd, %function
 100              	OSInitHookEnd:
 101              	.LFB4:
 119:..\..\..\..\..\..\Software\uCOS-II\Ports\ARM-Cortex-M0\Generic\GNU/os_cpu_c.c **** #endif
 120:..\..\..\..\..\..\Software\uCOS-II\Ports\ARM-Cortex-M0\Generic\GNU/os_cpu_c.c **** 
 121:..\..\..\..\..\..\Software\uCOS-II\Ports\ARM-Cortex-M0\Generic\GNU/os_cpu_c.c **** 
 122:..\..\..\..\..\..\Software\uCOS-II\Ports\ARM-Cortex-M0\Generic\GNU/os_cpu_c.c **** /*
 123:..\..\..\..\..\..\Software\uCOS-II\Ports\ARM-Cortex-M0\Generic\GNU/os_cpu_c.c **** ***************************************************************************************************
 124:..\..\..\..\..\..\Software\uCOS-II\Ports\ARM-Cortex-M0\Generic\GNU/os_cpu_c.c **** *                                       OS INITIALIZATION HOOK
 125:..\..\..\..\..\..\Software\uCOS-II\Ports\ARM-Cortex-M0\Generic\GNU/os_cpu_c.c **** *                                               (END)
ARM GAS  C:\Users\EDULU~1.DES\AppData\Local\Temp\ccEcIMKV.s 			page 5


 126:..\..\..\..\..\..\Software\uCOS-II\Ports\ARM-Cortex-M0\Generic\GNU/os_cpu_c.c **** *
 127:..\..\..\..\..\..\Software\uCOS-II\Ports\ARM-Cortex-M0\Generic\GNU/os_cpu_c.c **** * Description: This function is called by OSInit() at the end of OSInit().
 128:..\..\..\..\..\..\Software\uCOS-II\Ports\ARM-Cortex-M0\Generic\GNU/os_cpu_c.c **** *
 129:..\..\..\..\..\..\Software\uCOS-II\Ports\ARM-Cortex-M0\Generic\GNU/os_cpu_c.c **** * Arguments  : none
 130:..\..\..\..\..\..\Software\uCOS-II\Ports\ARM-Cortex-M0\Generic\GNU/os_cpu_c.c **** *
 131:..\..\..\..\..\..\Software\uCOS-II\Ports\ARM-Cortex-M0\Generic\GNU/os_cpu_c.c **** * Note(s)    : 1) Interrupts should be disabled during this call.
 132:..\..\..\..\..\..\Software\uCOS-II\Ports\ARM-Cortex-M0\Generic\GNU/os_cpu_c.c **** ***************************************************************************************************
 133:..\..\..\..\..\..\Software\uCOS-II\Ports\ARM-Cortex-M0\Generic\GNU/os_cpu_c.c **** */
 134:..\..\..\..\..\..\Software\uCOS-II\Ports\ARM-Cortex-M0\Generic\GNU/os_cpu_c.c **** #if OS_CPU_HOOKS_EN > 0u
 135:..\..\..\..\..\..\Software\uCOS-II\Ports\ARM-Cortex-M0\Generic\GNU/os_cpu_c.c **** void  OSInitHookEnd (void)
 136:..\..\..\..\..\..\Software\uCOS-II\Ports\ARM-Cortex-M0\Generic\GNU/os_cpu_c.c **** {
 102              		.loc 1 136 1 is_stmt 1 view -0
 103              		.cfi_startproc
 104              		@ args = 0, pretend = 0, frame = 0
 105              		@ frame_needed = 0, uses_anonymous_args = 0
 106              		@ link register save eliminated.
 137:..\..\..\..\..\..\Software\uCOS-II\Ports\ARM-Cortex-M0\Generic\GNU/os_cpu_c.c **** 
 138:..\..\..\..\..\..\Software\uCOS-II\Ports\ARM-Cortex-M0\Generic\GNU/os_cpu_c.c **** }
 107              		.loc 1 138 1 view .LVU24
 108              		@ sp needed
 109 0000 7047     		bx	lr
 110              		.cfi_endproc
 111              	.LFE4:
 112              		.size	OSInitHookEnd, .-OSInitHookEnd
 113              		.section	.text.OSTaskCreateHook,"ax",%progbits
 114              		.align	1
 115              		.global	OSTaskCreateHook
 116              		.syntax unified
 117              		.code	16
 118              		.thumb_func
 119              		.fpu softvfp
 120              		.type	OSTaskCreateHook, %function
 121              	OSTaskCreateHook:
 122              	.LVL8:
 123              	.LFB5:
 139:..\..\..\..\..\..\Software\uCOS-II\Ports\ARM-Cortex-M0\Generic\GNU/os_cpu_c.c **** #endif
 140:..\..\..\..\..\..\Software\uCOS-II\Ports\ARM-Cortex-M0\Generic\GNU/os_cpu_c.c **** 
 141:..\..\..\..\..\..\Software\uCOS-II\Ports\ARM-Cortex-M0\Generic\GNU/os_cpu_c.c **** 
 142:..\..\..\..\..\..\Software\uCOS-II\Ports\ARM-Cortex-M0\Generic\GNU/os_cpu_c.c **** /*
 143:..\..\..\..\..\..\Software\uCOS-II\Ports\ARM-Cortex-M0\Generic\GNU/os_cpu_c.c **** ***************************************************************************************************
 144:..\..\..\..\..\..\Software\uCOS-II\Ports\ARM-Cortex-M0\Generic\GNU/os_cpu_c.c **** *                                          TASK CREATION HOOK
 145:..\..\..\..\..\..\Software\uCOS-II\Ports\ARM-Cortex-M0\Generic\GNU/os_cpu_c.c **** *
 146:..\..\..\..\..\..\Software\uCOS-II\Ports\ARM-Cortex-M0\Generic\GNU/os_cpu_c.c **** * Description: This function is called when a task is created.
 147:..\..\..\..\..\..\Software\uCOS-II\Ports\ARM-Cortex-M0\Generic\GNU/os_cpu_c.c **** *
 148:..\..\..\..\..\..\Software\uCOS-II\Ports\ARM-Cortex-M0\Generic\GNU/os_cpu_c.c **** * Arguments  : ptcb   is a pointer to the task control block of the task being created.
 149:..\..\..\..\..\..\Software\uCOS-II\Ports\ARM-Cortex-M0\Generic\GNU/os_cpu_c.c **** *
 150:..\..\..\..\..\..\Software\uCOS-II\Ports\ARM-Cortex-M0\Generic\GNU/os_cpu_c.c **** * Note(s)    : 1) Interrupts are disabled during this call.
 151:..\..\..\..\..\..\Software\uCOS-II\Ports\ARM-Cortex-M0\Generic\GNU/os_cpu_c.c **** ***************************************************************************************************
 152:..\..\..\..\..\..\Software\uCOS-II\Ports\ARM-Cortex-M0\Generic\GNU/os_cpu_c.c **** */
 153:..\..\..\..\..\..\Software\uCOS-II\Ports\ARM-Cortex-M0\Generic\GNU/os_cpu_c.c **** #if OS_CPU_HOOKS_EN > 0u
 154:..\..\..\..\..\..\Software\uCOS-II\Ports\ARM-Cortex-M0\Generic\GNU/os_cpu_c.c **** void  OSTaskCreateHook (OS_TCB *ptcb)
 155:..\..\..\..\..\..\Software\uCOS-II\Ports\ARM-Cortex-M0\Generic\GNU/os_cpu_c.c **** {
 124              		.loc 1 155 1 view -0
 125              		.cfi_startproc
 126              		@ args = 0, pretend = 0, frame = 0
 127              		@ frame_needed = 0, uses_anonymous_args = 0
 128              		.loc 1 155 1 is_stmt 0 view .LVU26
ARM GAS  C:\Users\EDULU~1.DES\AppData\Local\Temp\ccEcIMKV.s 			page 6


 129 0000 10B5     		push	{r4, lr}
 130              		.cfi_def_cfa_offset 8
 131              		.cfi_offset 4, -8
 132              		.cfi_offset 14, -4
 156:..\..\..\..\..\..\Software\uCOS-II\Ports\ARM-Cortex-M0\Generic\GNU/os_cpu_c.c **** #if OS_APP_HOOKS_EN > 0u
 157:..\..\..\..\..\..\Software\uCOS-II\Ports\ARM-Cortex-M0\Generic\GNU/os_cpu_c.c ****     App_TaskCreateHook(ptcb);
 133              		.loc 1 157 5 is_stmt 1 view .LVU27
 134 0002 FFF7FEFF 		bl	App_TaskCreateHook
 135              	.LVL9:
 158:..\..\..\..\..\..\Software\uCOS-II\Ports\ARM-Cortex-M0\Generic\GNU/os_cpu_c.c **** #else
 159:..\..\..\..\..\..\Software\uCOS-II\Ports\ARM-Cortex-M0\Generic\GNU/os_cpu_c.c ****     (void)ptcb;                                                 /* Prevent compiler warning        
 160:..\..\..\..\..\..\Software\uCOS-II\Ports\ARM-Cortex-M0\Generic\GNU/os_cpu_c.c **** #endif
 161:..\..\..\..\..\..\Software\uCOS-II\Ports\ARM-Cortex-M0\Generic\GNU/os_cpu_c.c **** }
 136              		.loc 1 161 1 is_stmt 0 view .LVU28
 137              		@ sp needed
 138 0006 10BD     		pop	{r4, pc}
 139              		.cfi_endproc
 140              	.LFE5:
 141              		.size	OSTaskCreateHook, .-OSTaskCreateHook
 142              		.section	.text.OSTaskDelHook,"ax",%progbits
 143              		.align	1
 144              		.global	OSTaskDelHook
 145              		.syntax unified
 146              		.code	16
 147              		.thumb_func
 148              		.fpu softvfp
 149              		.type	OSTaskDelHook, %function
 150              	OSTaskDelHook:
 151              	.LVL10:
 152              	.LFB6:
 162:..\..\..\..\..\..\Software\uCOS-II\Ports\ARM-Cortex-M0\Generic\GNU/os_cpu_c.c **** #endif
 163:..\..\..\..\..\..\Software\uCOS-II\Ports\ARM-Cortex-M0\Generic\GNU/os_cpu_c.c **** 
 164:..\..\..\..\..\..\Software\uCOS-II\Ports\ARM-Cortex-M0\Generic\GNU/os_cpu_c.c **** 
 165:..\..\..\..\..\..\Software\uCOS-II\Ports\ARM-Cortex-M0\Generic\GNU/os_cpu_c.c **** /*
 166:..\..\..\..\..\..\Software\uCOS-II\Ports\ARM-Cortex-M0\Generic\GNU/os_cpu_c.c **** ***************************************************************************************************
 167:..\..\..\..\..\..\Software\uCOS-II\Ports\ARM-Cortex-M0\Generic\GNU/os_cpu_c.c **** *                                           TASK DELETION HOOK
 168:..\..\..\..\..\..\Software\uCOS-II\Ports\ARM-Cortex-M0\Generic\GNU/os_cpu_c.c **** *
 169:..\..\..\..\..\..\Software\uCOS-II\Ports\ARM-Cortex-M0\Generic\GNU/os_cpu_c.c **** * Description: This function is called when a task is deleted.
 170:..\..\..\..\..\..\Software\uCOS-II\Ports\ARM-Cortex-M0\Generic\GNU/os_cpu_c.c **** *
 171:..\..\..\..\..\..\Software\uCOS-II\Ports\ARM-Cortex-M0\Generic\GNU/os_cpu_c.c **** * Arguments  : ptcb   is a pointer to the task control block of the task being deleted.
 172:..\..\..\..\..\..\Software\uCOS-II\Ports\ARM-Cortex-M0\Generic\GNU/os_cpu_c.c **** *
 173:..\..\..\..\..\..\Software\uCOS-II\Ports\ARM-Cortex-M0\Generic\GNU/os_cpu_c.c **** * Note(s)    : 1) Interrupts are disabled during this call.
 174:..\..\..\..\..\..\Software\uCOS-II\Ports\ARM-Cortex-M0\Generic\GNU/os_cpu_c.c **** ***************************************************************************************************
 175:..\..\..\..\..\..\Software\uCOS-II\Ports\ARM-Cortex-M0\Generic\GNU/os_cpu_c.c **** */
 176:..\..\..\..\..\..\Software\uCOS-II\Ports\ARM-Cortex-M0\Generic\GNU/os_cpu_c.c **** #if OS_CPU_HOOKS_EN > 0u
 177:..\..\..\..\..\..\Software\uCOS-II\Ports\ARM-Cortex-M0\Generic\GNU/os_cpu_c.c **** void  OSTaskDelHook (OS_TCB *ptcb)
 178:..\..\..\..\..\..\Software\uCOS-II\Ports\ARM-Cortex-M0\Generic\GNU/os_cpu_c.c **** {
 153              		.loc 1 178 1 is_stmt 1 view -0
 154              		.cfi_startproc
 155              		@ args = 0, pretend = 0, frame = 0
 156              		@ frame_needed = 0, uses_anonymous_args = 0
 157              		.loc 1 178 1 is_stmt 0 view .LVU30
 158 0000 10B5     		push	{r4, lr}
 159              		.cfi_def_cfa_offset 8
 160              		.cfi_offset 4, -8
 161              		.cfi_offset 14, -4
 179:..\..\..\..\..\..\Software\uCOS-II\Ports\ARM-Cortex-M0\Generic\GNU/os_cpu_c.c **** #if OS_APP_HOOKS_EN > 0u
ARM GAS  C:\Users\EDULU~1.DES\AppData\Local\Temp\ccEcIMKV.s 			page 7


 180:..\..\..\..\..\..\Software\uCOS-II\Ports\ARM-Cortex-M0\Generic\GNU/os_cpu_c.c ****     App_TaskDelHook(ptcb);
 162              		.loc 1 180 5 is_stmt 1 view .LVU31
 163 0002 FFF7FEFF 		bl	App_TaskDelHook
 164              	.LVL11:
 181:..\..\..\..\..\..\Software\uCOS-II\Ports\ARM-Cortex-M0\Generic\GNU/os_cpu_c.c **** #else
 182:..\..\..\..\..\..\Software\uCOS-II\Ports\ARM-Cortex-M0\Generic\GNU/os_cpu_c.c ****     (void)ptcb;                                                 /* Prevent compiler warning        
 183:..\..\..\..\..\..\Software\uCOS-II\Ports\ARM-Cortex-M0\Generic\GNU/os_cpu_c.c **** #endif
 184:..\..\..\..\..\..\Software\uCOS-II\Ports\ARM-Cortex-M0\Generic\GNU/os_cpu_c.c **** }
 165              		.loc 1 184 1 is_stmt 0 view .LVU32
 166              		@ sp needed
 167 0006 10BD     		pop	{r4, pc}
 168              		.cfi_endproc
 169              	.LFE6:
 170              		.size	OSTaskDelHook, .-OSTaskDelHook
 171              		.section	.text.OSTaskIdleHook,"ax",%progbits
 172              		.align	1
 173              		.global	OSTaskIdleHook
 174              		.syntax unified
 175              		.code	16
 176              		.thumb_func
 177              		.fpu softvfp
 178              		.type	OSTaskIdleHook, %function
 179              	OSTaskIdleHook:
 180              	.LFB7:
 185:..\..\..\..\..\..\Software\uCOS-II\Ports\ARM-Cortex-M0\Generic\GNU/os_cpu_c.c **** #endif
 186:..\..\..\..\..\..\Software\uCOS-II\Ports\ARM-Cortex-M0\Generic\GNU/os_cpu_c.c **** 
 187:..\..\..\..\..\..\Software\uCOS-II\Ports\ARM-Cortex-M0\Generic\GNU/os_cpu_c.c **** 
 188:..\..\..\..\..\..\Software\uCOS-II\Ports\ARM-Cortex-M0\Generic\GNU/os_cpu_c.c **** /*
 189:..\..\..\..\..\..\Software\uCOS-II\Ports\ARM-Cortex-M0\Generic\GNU/os_cpu_c.c **** ***************************************************************************************************
 190:..\..\..\..\..\..\Software\uCOS-II\Ports\ARM-Cortex-M0\Generic\GNU/os_cpu_c.c **** *                                             IDLE TASK HOOK
 191:..\..\..\..\..\..\Software\uCOS-II\Ports\ARM-Cortex-M0\Generic\GNU/os_cpu_c.c **** *
 192:..\..\..\..\..\..\Software\uCOS-II\Ports\ARM-Cortex-M0\Generic\GNU/os_cpu_c.c **** * Description: This function is called by the idle task.  This hook has been added to allow you to 
 193:..\..\..\..\..\..\Software\uCOS-II\Ports\ARM-Cortex-M0\Generic\GNU/os_cpu_c.c **** *              such things as STOP the CPU to conserve power.
 194:..\..\..\..\..\..\Software\uCOS-II\Ports\ARM-Cortex-M0\Generic\GNU/os_cpu_c.c **** *
 195:..\..\..\..\..\..\Software\uCOS-II\Ports\ARM-Cortex-M0\Generic\GNU/os_cpu_c.c **** * Arguments  : none
 196:..\..\..\..\..\..\Software\uCOS-II\Ports\ARM-Cortex-M0\Generic\GNU/os_cpu_c.c **** *
 197:..\..\..\..\..\..\Software\uCOS-II\Ports\ARM-Cortex-M0\Generic\GNU/os_cpu_c.c **** * Note(s)    : 1) Interrupts are enabled during this call.
 198:..\..\..\..\..\..\Software\uCOS-II\Ports\ARM-Cortex-M0\Generic\GNU/os_cpu_c.c **** ***************************************************************************************************
 199:..\..\..\..\..\..\Software\uCOS-II\Ports\ARM-Cortex-M0\Generic\GNU/os_cpu_c.c **** */
 200:..\..\..\..\..\..\Software\uCOS-II\Ports\ARM-Cortex-M0\Generic\GNU/os_cpu_c.c **** #if OS_CPU_HOOKS_EN > 0u
 201:..\..\..\..\..\..\Software\uCOS-II\Ports\ARM-Cortex-M0\Generic\GNU/os_cpu_c.c **** void  OSTaskIdleHook (void)
 202:..\..\..\..\..\..\Software\uCOS-II\Ports\ARM-Cortex-M0\Generic\GNU/os_cpu_c.c **** {
 181              		.loc 1 202 1 is_stmt 1 view -0
 182              		.cfi_startproc
 183              		@ args = 0, pretend = 0, frame = 0
 184              		@ frame_needed = 0, uses_anonymous_args = 0
 185 0000 10B5     		push	{r4, lr}
 186              		.cfi_def_cfa_offset 8
 187              		.cfi_offset 4, -8
 188              		.cfi_offset 14, -4
 203:..\..\..\..\..\..\Software\uCOS-II\Ports\ARM-Cortex-M0\Generic\GNU/os_cpu_c.c **** #if OS_APP_HOOKS_EN > 0u
 204:..\..\..\..\..\..\Software\uCOS-II\Ports\ARM-Cortex-M0\Generic\GNU/os_cpu_c.c ****     App_TaskIdleHook();
 189              		.loc 1 204 5 view .LVU34
 190 0002 FFF7FEFF 		bl	App_TaskIdleHook
 191              	.LVL12:
 205:..\..\..\..\..\..\Software\uCOS-II\Ports\ARM-Cortex-M0\Generic\GNU/os_cpu_c.c **** #endif
 206:..\..\..\..\..\..\Software\uCOS-II\Ports\ARM-Cortex-M0\Generic\GNU/os_cpu_c.c **** }
ARM GAS  C:\Users\EDULU~1.DES\AppData\Local\Temp\ccEcIMKV.s 			page 8


 192              		.loc 1 206 1 is_stmt 0 view .LVU35
 193              		@ sp needed
 194 0006 10BD     		pop	{r4, pc}
 195              		.cfi_endproc
 196              	.LFE7:
 197              		.size	OSTaskIdleHook, .-OSTaskIdleHook
 198              		.section	.text.OSTaskReturnHook,"ax",%progbits
 199              		.align	1
 200              		.global	OSTaskReturnHook
 201              		.syntax unified
 202              		.code	16
 203              		.thumb_func
 204              		.fpu softvfp
 205              		.type	OSTaskReturnHook, %function
 206              	OSTaskReturnHook:
 207              	.LVL13:
 208              	.LFB8:
 207:..\..\..\..\..\..\Software\uCOS-II\Ports\ARM-Cortex-M0\Generic\GNU/os_cpu_c.c **** #endif
 208:..\..\..\..\..\..\Software\uCOS-II\Ports\ARM-Cortex-M0\Generic\GNU/os_cpu_c.c **** 
 209:..\..\..\..\..\..\Software\uCOS-II\Ports\ARM-Cortex-M0\Generic\GNU/os_cpu_c.c **** 
 210:..\..\..\..\..\..\Software\uCOS-II\Ports\ARM-Cortex-M0\Generic\GNU/os_cpu_c.c **** /*
 211:..\..\..\..\..\..\Software\uCOS-II\Ports\ARM-Cortex-M0\Generic\GNU/os_cpu_c.c **** ***************************************************************************************************
 212:..\..\..\..\..\..\Software\uCOS-II\Ports\ARM-Cortex-M0\Generic\GNU/os_cpu_c.c **** *                                            TASK RETURN HOOK
 213:..\..\..\..\..\..\Software\uCOS-II\Ports\ARM-Cortex-M0\Generic\GNU/os_cpu_c.c **** *
 214:..\..\..\..\..\..\Software\uCOS-II\Ports\ARM-Cortex-M0\Generic\GNU/os_cpu_c.c **** * Description: This function is called if a task accidentally returns.  In other words, a task shou
 215:..\..\..\..\..\..\Software\uCOS-II\Ports\ARM-Cortex-M0\Generic\GNU/os_cpu_c.c **** *              either be an infinite loop or delete itself when done.
 216:..\..\..\..\..\..\Software\uCOS-II\Ports\ARM-Cortex-M0\Generic\GNU/os_cpu_c.c **** *
 217:..\..\..\..\..\..\Software\uCOS-II\Ports\ARM-Cortex-M0\Generic\GNU/os_cpu_c.c **** * Arguments  : ptcb      is a pointer to the task control block of the task that is returning.
 218:..\..\..\..\..\..\Software\uCOS-II\Ports\ARM-Cortex-M0\Generic\GNU/os_cpu_c.c **** *
 219:..\..\..\..\..\..\Software\uCOS-II\Ports\ARM-Cortex-M0\Generic\GNU/os_cpu_c.c **** * Note(s)    : none
 220:..\..\..\..\..\..\Software\uCOS-II\Ports\ARM-Cortex-M0\Generic\GNU/os_cpu_c.c **** ***************************************************************************************************
 221:..\..\..\..\..\..\Software\uCOS-II\Ports\ARM-Cortex-M0\Generic\GNU/os_cpu_c.c **** */
 222:..\..\..\..\..\..\Software\uCOS-II\Ports\ARM-Cortex-M0\Generic\GNU/os_cpu_c.c **** 
 223:..\..\..\..\..\..\Software\uCOS-II\Ports\ARM-Cortex-M0\Generic\GNU/os_cpu_c.c **** #if OS_CPU_HOOKS_EN > 0u
 224:..\..\..\..\..\..\Software\uCOS-II\Ports\ARM-Cortex-M0\Generic\GNU/os_cpu_c.c **** void  OSTaskReturnHook (OS_TCB  *ptcb)
 225:..\..\..\..\..\..\Software\uCOS-II\Ports\ARM-Cortex-M0\Generic\GNU/os_cpu_c.c **** {
 209              		.loc 1 225 1 is_stmt 1 view -0
 210              		.cfi_startproc
 211              		@ args = 0, pretend = 0, frame = 0
 212              		@ frame_needed = 0, uses_anonymous_args = 0
 213              		.loc 1 225 1 is_stmt 0 view .LVU37
 214 0000 10B5     		push	{r4, lr}
 215              		.cfi_def_cfa_offset 8
 216              		.cfi_offset 4, -8
 217              		.cfi_offset 14, -4
 226:..\..\..\..\..\..\Software\uCOS-II\Ports\ARM-Cortex-M0\Generic\GNU/os_cpu_c.c **** #if OS_APP_HOOKS_EN > 0u
 227:..\..\..\..\..\..\Software\uCOS-II\Ports\ARM-Cortex-M0\Generic\GNU/os_cpu_c.c ****     App_TaskReturnHook(ptcb);
 218              		.loc 1 227 5 is_stmt 1 view .LVU38
 219 0002 FFF7FEFF 		bl	App_TaskReturnHook
 220              	.LVL14:
 228:..\..\..\..\..\..\Software\uCOS-II\Ports\ARM-Cortex-M0\Generic\GNU/os_cpu_c.c **** #else
 229:..\..\..\..\..\..\Software\uCOS-II\Ports\ARM-Cortex-M0\Generic\GNU/os_cpu_c.c ****     (void)ptcb;
 230:..\..\..\..\..\..\Software\uCOS-II\Ports\ARM-Cortex-M0\Generic\GNU/os_cpu_c.c **** #endif
 231:..\..\..\..\..\..\Software\uCOS-II\Ports\ARM-Cortex-M0\Generic\GNU/os_cpu_c.c **** }
 221              		.loc 1 231 1 is_stmt 0 view .LVU39
 222              		@ sp needed
 223 0006 10BD     		pop	{r4, pc}
ARM GAS  C:\Users\EDULU~1.DES\AppData\Local\Temp\ccEcIMKV.s 			page 9


 224              		.cfi_endproc
 225              	.LFE8:
 226              		.size	OSTaskReturnHook, .-OSTaskReturnHook
 227              		.section	.text.OSTaskStatHook,"ax",%progbits
 228              		.align	1
 229              		.global	OSTaskStatHook
 230              		.syntax unified
 231              		.code	16
 232              		.thumb_func
 233              		.fpu softvfp
 234              		.type	OSTaskStatHook, %function
 235              	OSTaskStatHook:
 236              	.LFB9:
 232:..\..\..\..\..\..\Software\uCOS-II\Ports\ARM-Cortex-M0\Generic\GNU/os_cpu_c.c **** #endif
 233:..\..\..\..\..\..\Software\uCOS-II\Ports\ARM-Cortex-M0\Generic\GNU/os_cpu_c.c **** 
 234:..\..\..\..\..\..\Software\uCOS-II\Ports\ARM-Cortex-M0\Generic\GNU/os_cpu_c.c **** 
 235:..\..\..\..\..\..\Software\uCOS-II\Ports\ARM-Cortex-M0\Generic\GNU/os_cpu_c.c **** /*
 236:..\..\..\..\..\..\Software\uCOS-II\Ports\ARM-Cortex-M0\Generic\GNU/os_cpu_c.c **** ***************************************************************************************************
 237:..\..\..\..\..\..\Software\uCOS-II\Ports\ARM-Cortex-M0\Generic\GNU/os_cpu_c.c **** *                                           STATISTIC TASK HOOK
 238:..\..\..\..\..\..\Software\uCOS-II\Ports\ARM-Cortex-M0\Generic\GNU/os_cpu_c.c **** *
 239:..\..\..\..\..\..\Software\uCOS-II\Ports\ARM-Cortex-M0\Generic\GNU/os_cpu_c.c **** * Description: This function is called every second by uC/OS-II's statistics task.  This allows you
 240:..\..\..\..\..\..\Software\uCOS-II\Ports\ARM-Cortex-M0\Generic\GNU/os_cpu_c.c **** *              application to add functionality to the statistics task.
 241:..\..\..\..\..\..\Software\uCOS-II\Ports\ARM-Cortex-M0\Generic\GNU/os_cpu_c.c **** *
 242:..\..\..\..\..\..\Software\uCOS-II\Ports\ARM-Cortex-M0\Generic\GNU/os_cpu_c.c **** * Arguments  : none
 243:..\..\..\..\..\..\Software\uCOS-II\Ports\ARM-Cortex-M0\Generic\GNU/os_cpu_c.c **** ***************************************************************************************************
 244:..\..\..\..\..\..\Software\uCOS-II\Ports\ARM-Cortex-M0\Generic\GNU/os_cpu_c.c **** */
 245:..\..\..\..\..\..\Software\uCOS-II\Ports\ARM-Cortex-M0\Generic\GNU/os_cpu_c.c **** 
 246:..\..\..\..\..\..\Software\uCOS-II\Ports\ARM-Cortex-M0\Generic\GNU/os_cpu_c.c **** #if OS_CPU_HOOKS_EN > 0u
 247:..\..\..\..\..\..\Software\uCOS-II\Ports\ARM-Cortex-M0\Generic\GNU/os_cpu_c.c **** void  OSTaskStatHook (void)
 248:..\..\..\..\..\..\Software\uCOS-II\Ports\ARM-Cortex-M0\Generic\GNU/os_cpu_c.c **** {
 237              		.loc 1 248 1 is_stmt 1 view -0
 238              		.cfi_startproc
 239              		@ args = 0, pretend = 0, frame = 0
 240              		@ frame_needed = 0, uses_anonymous_args = 0
 241 0000 10B5     		push	{r4, lr}
 242              		.cfi_def_cfa_offset 8
 243              		.cfi_offset 4, -8
 244              		.cfi_offset 14, -4
 249:..\..\..\..\..\..\Software\uCOS-II\Ports\ARM-Cortex-M0\Generic\GNU/os_cpu_c.c **** #if OS_APP_HOOKS_EN > 0u
 250:..\..\..\..\..\..\Software\uCOS-II\Ports\ARM-Cortex-M0\Generic\GNU/os_cpu_c.c ****     App_TaskStatHook();
 245              		.loc 1 250 5 view .LVU41
 246 0002 FFF7FEFF 		bl	App_TaskStatHook
 247              	.LVL15:
 251:..\..\..\..\..\..\Software\uCOS-II\Ports\ARM-Cortex-M0\Generic\GNU/os_cpu_c.c **** #endif
 252:..\..\..\..\..\..\Software\uCOS-II\Ports\ARM-Cortex-M0\Generic\GNU/os_cpu_c.c **** }
 248              		.loc 1 252 1 is_stmt 0 view .LVU42
 249              		@ sp needed
 250 0006 10BD     		pop	{r4, pc}
 251              		.cfi_endproc
 252              	.LFE9:
 253              		.size	OSTaskStatHook, .-OSTaskStatHook
 254              		.section	.text.OSTaskStkInit,"ax",%progbits
 255              		.align	1
 256              		.global	OSTaskStkInit
 257              		.syntax unified
 258              		.code	16
 259              		.thumb_func
ARM GAS  C:\Users\EDULU~1.DES\AppData\Local\Temp\ccEcIMKV.s 			page 10


 260              		.fpu softvfp
 261              		.type	OSTaskStkInit, %function
 262              	OSTaskStkInit:
 263              	.LVL16:
 264              	.LFB10:
 253:..\..\..\..\..\..\Software\uCOS-II\Ports\ARM-Cortex-M0\Generic\GNU/os_cpu_c.c **** #endif
 254:..\..\..\..\..\..\Software\uCOS-II\Ports\ARM-Cortex-M0\Generic\GNU/os_cpu_c.c **** 
 255:..\..\..\..\..\..\Software\uCOS-II\Ports\ARM-Cortex-M0\Generic\GNU/os_cpu_c.c **** 
 256:..\..\..\..\..\..\Software\uCOS-II\Ports\ARM-Cortex-M0\Generic\GNU/os_cpu_c.c **** /*
 257:..\..\..\..\..\..\Software\uCOS-II\Ports\ARM-Cortex-M0\Generic\GNU/os_cpu_c.c **** ***************************************************************************************************
 258:..\..\..\..\..\..\Software\uCOS-II\Ports\ARM-Cortex-M0\Generic\GNU/os_cpu_c.c **** *                                        INITIALIZE A TASK'S STACK
 259:..\..\..\..\..\..\Software\uCOS-II\Ports\ARM-Cortex-M0\Generic\GNU/os_cpu_c.c **** *
 260:..\..\..\..\..\..\Software\uCOS-II\Ports\ARM-Cortex-M0\Generic\GNU/os_cpu_c.c **** * Description: This function is called by either OSTaskCreate() or OSTaskCreateExt() to initialize 
 261:..\..\..\..\..\..\Software\uCOS-II\Ports\ARM-Cortex-M0\Generic\GNU/os_cpu_c.c **** *              stack frame of the task being created.  This function is highly processor specific.
 262:..\..\..\..\..\..\Software\uCOS-II\Ports\ARM-Cortex-M0\Generic\GNU/os_cpu_c.c **** *
 263:..\..\..\..\..\..\Software\uCOS-II\Ports\ARM-Cortex-M0\Generic\GNU/os_cpu_c.c **** * Arguments  : task          is a pointer to the task code
 264:..\..\..\..\..\..\Software\uCOS-II\Ports\ARM-Cortex-M0\Generic\GNU/os_cpu_c.c **** *
 265:..\..\..\..\..\..\Software\uCOS-II\Ports\ARM-Cortex-M0\Generic\GNU/os_cpu_c.c **** *              p_arg         is a pointer to a user supplied data area that will be passed to the t
 266:..\..\..\..\..\..\Software\uCOS-II\Ports\ARM-Cortex-M0\Generic\GNU/os_cpu_c.c **** *                            when the task first executes.
 267:..\..\..\..\..\..\Software\uCOS-II\Ports\ARM-Cortex-M0\Generic\GNU/os_cpu_c.c **** *
 268:..\..\..\..\..\..\Software\uCOS-II\Ports\ARM-Cortex-M0\Generic\GNU/os_cpu_c.c **** *              ptos          is a pointer to the top of stack.  It is assumed that 'ptos' points to
 269:..\..\..\..\..\..\Software\uCOS-II\Ports\ARM-Cortex-M0\Generic\GNU/os_cpu_c.c **** *                            a 'free' entry on the task stack.  If OS_STK_GROWTH is set to 1 then
 270:..\..\..\..\..\..\Software\uCOS-II\Ports\ARM-Cortex-M0\Generic\GNU/os_cpu_c.c **** *                            'ptos' will contain the HIGHEST valid address of the stack.  Similarly
 271:..\..\..\..\..\..\Software\uCOS-II\Ports\ARM-Cortex-M0\Generic\GNU/os_cpu_c.c **** *                            OS_STK_GROWTH is set to 0, the 'ptos' will contains the LOWEST valid a
 272:..\..\..\..\..\..\Software\uCOS-II\Ports\ARM-Cortex-M0\Generic\GNU/os_cpu_c.c **** *                            of the stack.
 273:..\..\..\..\..\..\Software\uCOS-II\Ports\ARM-Cortex-M0\Generic\GNU/os_cpu_c.c **** *
 274:..\..\..\..\..\..\Software\uCOS-II\Ports\ARM-Cortex-M0\Generic\GNU/os_cpu_c.c **** *              opt           specifies options that can be used to alter the behavior of OSTaskStkI
 275:..\..\..\..\..\..\Software\uCOS-II\Ports\ARM-Cortex-M0\Generic\GNU/os_cpu_c.c **** *                            (see uCOS_II.H for OS_TASK_OPT_xxx).
 276:..\..\..\..\..\..\Software\uCOS-II\Ports\ARM-Cortex-M0\Generic\GNU/os_cpu_c.c **** *
 277:..\..\..\..\..\..\Software\uCOS-II\Ports\ARM-Cortex-M0\Generic\GNU/os_cpu_c.c **** * Returns    : Always returns the location of the new top-of-stack once the processor registers hav
 278:..\..\..\..\..\..\Software\uCOS-II\Ports\ARM-Cortex-M0\Generic\GNU/os_cpu_c.c **** *              been placed on the stack in the proper order.
 279:..\..\..\..\..\..\Software\uCOS-II\Ports\ARM-Cortex-M0\Generic\GNU/os_cpu_c.c **** *
 280:..\..\..\..\..\..\Software\uCOS-II\Ports\ARM-Cortex-M0\Generic\GNU/os_cpu_c.c **** * Note(s)    : (1) Interrupts are enabled when task starts executing.
 281:..\..\..\..\..\..\Software\uCOS-II\Ports\ARM-Cortex-M0\Generic\GNU/os_cpu_c.c **** *
 282:..\..\..\..\..\..\Software\uCOS-II\Ports\ARM-Cortex-M0\Generic\GNU/os_cpu_c.c **** *              (2) All tasks run in Thread mode, using process stack.
 283:..\..\..\..\..\..\Software\uCOS-II\Ports\ARM-Cortex-M0\Generic\GNU/os_cpu_c.c **** *
 284:..\..\..\..\..\..\Software\uCOS-II\Ports\ARM-Cortex-M0\Generic\GNU/os_cpu_c.c **** *             (3) The SP must be 8-byte aligned in conforming to the Procedure Call Standard for th
 285:..\..\..\..\..\..\Software\uCOS-II\Ports\ARM-Cortex-M0\Generic\GNU/os_cpu_c.c **** *
 286:..\..\..\..\..\..\Software\uCOS-II\Ports\ARM-Cortex-M0\Generic\GNU/os_cpu_c.c **** *                    (a) Section 2.1 of the  ABI for the ARM Architecture Advisory Note. SP must be
 287:..\..\..\..\..\..\Software\uCOS-II\Ports\ARM-Cortex-M0\Generic\GNU/os_cpu_c.c **** *                        on entry to AAPCS-Conforming functions states :
 288:..\..\..\..\..\..\Software\uCOS-II\Ports\ARM-Cortex-M0\Generic\GNU/os_cpu_c.c **** *
 289:..\..\..\..\..\..\Software\uCOS-II\Ports\ARM-Cortex-M0\Generic\GNU/os_cpu_c.c **** *                        The Procedure Call Standard for the ARM Architecture [AAPCS] requires prim
 290:..\..\..\..\..\..\Software\uCOS-II\Ports\ARM-Cortex-M0\Generic\GNU/os_cpu_c.c **** *                        data types to be naturally aligned according to their sizes (for size = 1,
 291:..\..\..\..\..\..\Software\uCOS-II\Ports\ARM-Cortex-M0\Generic\GNU/os_cpu_c.c **** *                        Doing otherwise creates more problems than it solves.
 292:..\..\..\..\..\..\Software\uCOS-II\Ports\ARM-Cortex-M0\Generic\GNU/os_cpu_c.c **** *
 293:..\..\..\..\..\..\Software\uCOS-II\Ports\ARM-Cortex-M0\Generic\GNU/os_cpu_c.c **** *                        In return for preserving the natural alignment of data, conforming code is
 294:..\..\..\..\..\..\Software\uCOS-II\Ports\ARM-Cortex-M0\Generic\GNU/os_cpu_c.c **** *                        to rely on that alignment. To support aligning data allocated on the stack
 295:..\..\..\..\..\..\Software\uCOS-II\Ports\ARM-Cortex-M0\Generic\GNU/os_cpu_c.c **** *                        pointer (SP) is required to be 8-byte aligned on entry to a conforming fun
 296:..\..\..\..\..\..\Software\uCOS-II\Ports\ARM-Cortex-M0\Generic\GNU/os_cpu_c.c **** *                        practice this requirement is met if:
 297:..\..\..\..\..\..\Software\uCOS-II\Ports\ARM-Cortex-M0\Generic\GNU/os_cpu_c.c **** *
 298:..\..\..\..\..\..\Software\uCOS-II\Ports\ARM-Cortex-M0\Generic\GNU/os_cpu_c.c **** *                           (1) At each call site, the current size of the calling function’s stack
 299:..\..\..\..\..\..\Software\uCOS-II\Ports\ARM-Cortex-M0\Generic\GNU/os_cpu_c.c **** *                               This places an obligation on compilers and assembly language progra
 300:..\..\..\..\..\..\Software\uCOS-II\Ports\ARM-Cortex-M0\Generic\GNU/os_cpu_c.c **** *
 301:..\..\..\..\..\..\Software\uCOS-II\Ports\ARM-Cortex-M0\Generic\GNU/os_cpu_c.c **** *                           (2) SP is a multiple of 8 when control first enters a program.
 302:..\..\..\..\..\..\Software\uCOS-II\Ports\ARM-Cortex-M0\Generic\GNU/os_cpu_c.c **** *                               This places an obligation on authors of low level OS, RTOS, and run
 303:..\..\..\..\..\..\Software\uCOS-II\Ports\ARM-Cortex-M0\Generic\GNU/os_cpu_c.c **** *                               code to align SP at all points at which control first enters
 304:..\..\..\..\..\..\Software\uCOS-II\Ports\ARM-Cortex-M0\Generic\GNU/os_cpu_c.c **** *                               a body of (AAPCS-conforming) code.
ARM GAS  C:\Users\EDULU~1.DES\AppData\Local\Temp\ccEcIMKV.s 			page 11


 305:..\..\..\..\..\..\Software\uCOS-II\Ports\ARM-Cortex-M0\Generic\GNU/os_cpu_c.c **** *
 306:..\..\..\..\..\..\Software\uCOS-II\Ports\ARM-Cortex-M0\Generic\GNU/os_cpu_c.c **** *                       In turn, this requires the value of SP to be aligned to 0 modulo 8:
 307:..\..\..\..\..\..\Software\uCOS-II\Ports\ARM-Cortex-M0\Generic\GNU/os_cpu_c.c **** *
 308:..\..\..\..\..\..\Software\uCOS-II\Ports\ARM-Cortex-M0\Generic\GNU/os_cpu_c.c **** *                           (3) By exception handlers, before calling AAPCS-conforming code.
 309:..\..\..\..\..\..\Software\uCOS-II\Ports\ARM-Cortex-M0\Generic\GNU/os_cpu_c.c **** *
 310:..\..\..\..\..\..\Software\uCOS-II\Ports\ARM-Cortex-M0\Generic\GNU/os_cpu_c.c **** *                           (4) By OS/RTOS/run-time system code, before giving control to an applic
 311:..\..\..\..\..\..\Software\uCOS-II\Ports\ARM-Cortex-M0\Generic\GNU/os_cpu_c.c **** *
 312:..\..\..\..\..\..\Software\uCOS-II\Ports\ARM-Cortex-M0\Generic\GNU/os_cpu_c.c **** *                 (b) Section 2.3.1 corrective steps from the the SP must be 8-byte aligned on entr
 313:..\..\..\..\..\..\Software\uCOS-II\Ports\ARM-Cortex-M0\Generic\GNU/os_cpu_c.c **** *                     to AAPCS-conforming functions advisory note also states.
 314:..\..\..\..\..\..\Software\uCOS-II\Ports\ARM-Cortex-M0\Generic\GNU/os_cpu_c.c **** *
 315:..\..\..\..\..\..\Software\uCOS-II\Ports\ARM-Cortex-M0\Generic\GNU/os_cpu_c.c **** *                     " This requirement extends to operating systems and run-time code for all arc
 316:..\..\..\..\..\..\Software\uCOS-II\Ports\ARM-Cortex-M0\Generic\GNU/os_cpu_c.c **** *                       prior to ARMV7 and to the A, R and M architecture profiles thereafter. Spec
 317:..\..\..\..\..\..\Software\uCOS-II\Ports\ARM-Cortex-M0\Generic\GNU/os_cpu_c.c **** *                       associated with ARMV7M are discussed in §2.3.3"
 318:..\..\..\..\..\..\Software\uCOS-II\Ports\ARM-Cortex-M0\Generic\GNU/os_cpu_c.c **** *
 319:..\..\..\..\..\..\Software\uCOS-II\Ports\ARM-Cortex-M0\Generic\GNU/os_cpu_c.c **** *                     (1) Even if the SP 8-byte aligment is not a requirement for the ARMv7M profil
 320:..\..\..\..\..\..\Software\uCOS-II\Ports\ARM-Cortex-M0\Generic\GNU/os_cpu_c.c **** *                         to 8-byte boundaries to support legacy execution enviroments.
 321:..\..\..\..\..\..\Software\uCOS-II\Ports\ARM-Cortex-M0\Generic\GNU/os_cpu_c.c **** *
 322:..\..\..\..\..\..\Software\uCOS-II\Ports\ARM-Cortex-M0\Generic\GNU/os_cpu_c.c **** *                 (c) Section 5.2.1.2 from the Procedure Call Standard for the ARM
 323:..\..\..\..\..\..\Software\uCOS-II\Ports\ARM-Cortex-M0\Generic\GNU/os_cpu_c.c **** *                     architecture states :  "The stack must also conform to the following
 324:..\..\..\..\..\..\Software\uCOS-II\Ports\ARM-Cortex-M0\Generic\GNU/os_cpu_c.c **** *                     constraint at a public interface:
 325:..\..\..\..\..\..\Software\uCOS-II\Ports\ARM-Cortex-M0\Generic\GNU/os_cpu_c.c **** *
 326:..\..\..\..\..\..\Software\uCOS-II\Ports\ARM-Cortex-M0\Generic\GNU/os_cpu_c.c **** *                     (1) SP mod 8 = 0. The stack must be double-word aligned"
 327:..\..\..\..\..\..\Software\uCOS-II\Ports\ARM-Cortex-M0\Generic\GNU/os_cpu_c.c **** *
 328:..\..\..\..\..\..\Software\uCOS-II\Ports\ARM-Cortex-M0\Generic\GNU/os_cpu_c.c **** *                 (d) From the ARM Technical Support Knowledge Base. 8 Byte stack aligment.
 329:..\..\..\..\..\..\Software\uCOS-II\Ports\ARM-Cortex-M0\Generic\GNU/os_cpu_c.c **** *
 330:..\..\..\..\..\..\Software\uCOS-II\Ports\ARM-Cortex-M0\Generic\GNU/os_cpu_c.c **** *                     "8 byte stack alignment is a requirement of the ARM Architecture Procedure
 331:..\..\..\..\..\..\Software\uCOS-II\Ports\ARM-Cortex-M0\Generic\GNU/os_cpu_c.c **** *                      Call Standard [AAPCS]. This specifies that functions must maintain an 8 byte
 332:..\..\..\..\..\..\Software\uCOS-II\Ports\ARM-Cortex-M0\Generic\GNU/os_cpu_c.c **** *                      aligned stack address (e.g. 0x00, 0x08, 0x10, 0x18, 0x20) on all external
 333:..\..\..\..\..\..\Software\uCOS-II\Ports\ARM-Cortex-M0\Generic\GNU/os_cpu_c.c **** *                      interfaces. In practice this requirement is met if:
 334:..\..\..\..\..\..\Software\uCOS-II\Ports\ARM-Cortex-M0\Generic\GNU/os_cpu_c.c **** *
 335:..\..\..\..\..\..\Software\uCOS-II\Ports\ARM-Cortex-M0\Generic\GNU/os_cpu_c.c **** *                      (1) At each external interface, the current stack pointer
 336:..\..\..\..\..\..\Software\uCOS-II\Ports\ARM-Cortex-M0\Generic\GNU/os_cpu_c.c **** *                          is a multiple of 8 bytes.
 337:..\..\..\..\..\..\Software\uCOS-II\Ports\ARM-Cortex-M0\Generic\GNU/os_cpu_c.c **** *
 338:..\..\..\..\..\..\Software\uCOS-II\Ports\ARM-Cortex-M0\Generic\GNU/os_cpu_c.c **** *                      (2) Your OS maintains 8 byte stack alignment on its external interfaces
 339:..\..\..\..\..\..\Software\uCOS-II\Ports\ARM-Cortex-M0\Generic\GNU/os_cpu_c.c **** *                          e.g. on task switches"
 340:..\..\..\..\..\..\Software\uCOS-II\Ports\ARM-Cortex-M0\Generic\GNU/os_cpu_c.c **** *
 341:..\..\..\..\..\..\Software\uCOS-II\Ports\ARM-Cortex-M0\Generic\GNU/os_cpu_c.c **** *              (4) Exception Return Behavior(EXEC_RETURN)
 342:..\..\..\..\..\..\Software\uCOS-II\Ports\ARM-Cortex-M0\Generic\GNU/os_cpu_c.c **** *                  0xFFFFFFF1      Return to Thread mode. Exception return gets state from the Main
 343:..\..\..\..\..\..\Software\uCOS-II\Ports\ARM-Cortex-M0\Generic\GNU/os_cpu_c.c **** *                                  On Return execution uses the Main Stack.
 344:..\..\..\..\..\..\Software\uCOS-II\Ports\ARM-Cortex-M0\Generic\GNU/os_cpu_c.c **** *
 345:..\..\..\..\..\..\Software\uCOS-II\Ports\ARM-Cortex-M0\Generic\GNU/os_cpu_c.c **** *                  0xFFFFFFF9      Return to Thread mode. Exception return gets state from the Main
 346:..\..\..\..\..\..\Software\uCOS-II\Ports\ARM-Cortex-M0\Generic\GNU/os_cpu_c.c **** *                                  On Return execution uses the Main Stack.
 347:..\..\..\..\..\..\Software\uCOS-II\Ports\ARM-Cortex-M0\Generic\GNU/os_cpu_c.c **** *
 348:..\..\..\..\..\..\Software\uCOS-II\Ports\ARM-Cortex-M0\Generic\GNU/os_cpu_c.c **** *                  0xFFFFFFFD      Return to Thread mode. Exception return gets state from the Proc
 349:..\..\..\..\..\..\Software\uCOS-II\Ports\ARM-Cortex-M0\Generic\GNU/os_cpu_c.c **** *                                  On Return execution uses the Process Stack.
 350:..\..\..\..\..\..\Software\uCOS-II\Ports\ARM-Cortex-M0\Generic\GNU/os_cpu_c.c **** ***************************************************************************************************
 351:..\..\..\..\..\..\Software\uCOS-II\Ports\ARM-Cortex-M0\Generic\GNU/os_cpu_c.c **** */
 352:..\..\..\..\..\..\Software\uCOS-II\Ports\ARM-Cortex-M0\Generic\GNU/os_cpu_c.c **** 
 353:..\..\..\..\..\..\Software\uCOS-II\Ports\ARM-Cortex-M0\Generic\GNU/os_cpu_c.c **** OS_STK  *OSTaskStkInit (void    (*task)(void *p_arg),
 354:..\..\..\..\..\..\Software\uCOS-II\Ports\ARM-Cortex-M0\Generic\GNU/os_cpu_c.c ****                         void     *p_arg,
 355:..\..\..\..\..\..\Software\uCOS-II\Ports\ARM-Cortex-M0\Generic\GNU/os_cpu_c.c ****                         OS_STK   *ptos,
 356:..\..\..\..\..\..\Software\uCOS-II\Ports\ARM-Cortex-M0\Generic\GNU/os_cpu_c.c ****                         INT16U    opt)
 357:..\..\..\..\..\..\Software\uCOS-II\Ports\ARM-Cortex-M0\Generic\GNU/os_cpu_c.c **** {
 265              		.loc 1 357 1 is_stmt 1 view -0
 266              		.cfi_startproc
 267              		@ args = 0, pretend = 0, frame = 0
 268              		@ frame_needed = 0, uses_anonymous_args = 0
ARM GAS  C:\Users\EDULU~1.DES\AppData\Local\Temp\ccEcIMKV.s 			page 12


 269              		.loc 1 357 1 is_stmt 0 view .LVU44
 270 0000 10B5     		push	{r4, lr}
 271              		.cfi_def_cfa_offset 8
 272              		.cfi_offset 4, -8
 273              		.cfi_offset 14, -4
 358:..\..\..\..\..\..\Software\uCOS-II\Ports\ARM-Cortex-M0\Generic\GNU/os_cpu_c.c ****     OS_STK  *p_stk;
 274              		.loc 1 358 5 is_stmt 1 view .LVU45
 359:..\..\..\..\..\..\Software\uCOS-II\Ports\ARM-Cortex-M0\Generic\GNU/os_cpu_c.c **** 
 360:..\..\..\..\..\..\Software\uCOS-II\Ports\ARM-Cortex-M0\Generic\GNU/os_cpu_c.c **** 
 361:..\..\..\..\..\..\Software\uCOS-II\Ports\ARM-Cortex-M0\Generic\GNU/os_cpu_c.c ****     (void)opt;                                                  /* 'opt' is not used, prevent warni
 275              		.loc 1 361 5 view .LVU46
 362:..\..\..\..\..\..\Software\uCOS-II\Ports\ARM-Cortex-M0\Generic\GNU/os_cpu_c.c ****     p_stk      = ptos + 1u;                                     /* Load stack pointer              
 276              		.loc 1 362 5 view .LVU47
 277              		.loc 1 362 16 is_stmt 0 view .LVU48
 278 0002 0432     		adds	r2, r2, #4
 279              	.LVL17:
 363:..\..\..\..\..\..\Software\uCOS-II\Ports\ARM-Cortex-M0\Generic\GNU/os_cpu_c.c ****                                                                 /* Align the stack to 8-bytes.     
 364:..\..\..\..\..\..\Software\uCOS-II\Ports\ARM-Cortex-M0\Generic\GNU/os_cpu_c.c ****     p_stk      = (OS_STK *)((OS_STK)(p_stk) & 0xFFFFFFF8u);
 280              		.loc 1 364 5 is_stmt 1 view .LVU49
 281              		.loc 1 364 45 is_stmt 0 view .LVU50
 282 0004 0723     		movs	r3, #7
 283              	.LVL18:
 284              		.loc 1 364 45 view .LVU51
 285 0006 9A43     		bics	r2, r3
 286              	.LVL19:
 365:..\..\..\..\..\..\Software\uCOS-II\Ports\ARM-Cortex-M0\Generic\GNU/os_cpu_c.c ****                                                                 /* Registers stacked as if auto-sav
 366:..\..\..\..\..\..\Software\uCOS-II\Ports\ARM-Cortex-M0\Generic\GNU/os_cpu_c.c ****     *(--p_stk) = (OS_STK)0x01000000uL;                          /* xPSR                            
 287              		.loc 1 366 5 is_stmt 1 view .LVU52
 288              		.loc 1 366 16 is_stmt 0 view .LVU53
 289 0008 131F     		subs	r3, r2, #4
 290              	.LVL20:
 291              		.loc 1 366 16 view .LVU54
 292 000a 8024     		movs	r4, #128
 293 000c 6404     		lsls	r4, r4, #17
 294 000e 1C60     		str	r4, [r3]
 367:..\..\..\..\..\..\Software\uCOS-II\Ports\ARM-Cortex-M0\Generic\GNU/os_cpu_c.c ****     *(--p_stk) = (OS_STK)task;                                  /* Entry Point                     
 295              		.loc 1 367 5 is_stmt 1 view .LVU55
 296              	.LVL21:
 297              		.loc 1 367 16 is_stmt 0 view .LVU56
 298 0010 043B     		subs	r3, r3, #4
 299 0012 1860     		str	r0, [r3]
 368:..\..\..\..\..\..\Software\uCOS-II\Ports\ARM-Cortex-M0\Generic\GNU/os_cpu_c.c ****     *(--p_stk) = (OS_STK)OS_TaskReturn;                         /* R14 (LR)                        
 300              		.loc 1 368 5 is_stmt 1 view .LVU57
 301              	.LVL22:
 302              		.loc 1 368 16 is_stmt 0 view .LVU58
 303 0014 043B     		subs	r3, r3, #4
 304 0016 1748     		ldr	r0, .L14
 305              	.LVL23:
 306              		.loc 1 368 16 view .LVU59
 307 0018 1860     		str	r0, [r3]
 369:..\..\..\..\..\..\Software\uCOS-II\Ports\ARM-Cortex-M0\Generic\GNU/os_cpu_c.c ****     *(--p_stk) = (OS_STK)0x12121212uL;                          /* R12                             
 308              		.loc 1 369 5 is_stmt 1 view .LVU60
 309              	.LVL24:
 310              		.loc 1 369 16 is_stmt 0 view .LVU61
 311 001a 043B     		subs	r3, r3, #4
 312              	.LVL25:
 313              		.loc 1 369 16 view .LVU62
ARM GAS  C:\Users\EDULU~1.DES\AppData\Local\Temp\ccEcIMKV.s 			page 13


 314 001c 1648     		ldr	r0, .L14+4
 315 001e 1860     		str	r0, [r3]
 370:..\..\..\..\..\..\Software\uCOS-II\Ports\ARM-Cortex-M0\Generic\GNU/os_cpu_c.c ****     *(--p_stk) = (OS_STK)0x03030303uL;                          /* R3                              
 316              		.loc 1 370 5 is_stmt 1 view .LVU63
 317              	.LVL26:
 318              		.loc 1 370 16 is_stmt 0 view .LVU64
 319 0020 043B     		subs	r3, r3, #4
 320              	.LVL27:
 321              		.loc 1 370 16 view .LVU65
 322 0022 1648     		ldr	r0, .L14+8
 323 0024 1860     		str	r0, [r3]
 371:..\..\..\..\..\..\Software\uCOS-II\Ports\ARM-Cortex-M0\Generic\GNU/os_cpu_c.c ****     *(--p_stk) = (OS_STK)0x02020202uL;                          /* R2                              
 324              		.loc 1 371 5 is_stmt 1 view .LVU66
 325              	.LVL28:
 326              		.loc 1 371 16 is_stmt 0 view .LVU67
 327 0026 043B     		subs	r3, r3, #4
 328              	.LVL29:
 329              		.loc 1 371 16 view .LVU68
 330 0028 1548     		ldr	r0, .L14+12
 331 002a 1860     		str	r0, [r3]
 372:..\..\..\..\..\..\Software\uCOS-II\Ports\ARM-Cortex-M0\Generic\GNU/os_cpu_c.c ****     *(--p_stk) = (OS_STK)0x01010101uL;                          /* R1                              
 332              		.loc 1 372 5 is_stmt 1 view .LVU69
 333              	.LVL30:
 334              		.loc 1 372 16 is_stmt 0 view .LVU70
 335 002c 043B     		subs	r3, r3, #4
 336              	.LVL31:
 337              		.loc 1 372 16 view .LVU71
 338 002e 1548     		ldr	r0, .L14+16
 339 0030 1860     		str	r0, [r3]
 373:..\..\..\..\..\..\Software\uCOS-II\Ports\ARM-Cortex-M0\Generic\GNU/os_cpu_c.c ****     *(--p_stk) = (OS_STK)p_arg;                                 /* R0 : argument                   
 340              		.loc 1 373 5 is_stmt 1 view .LVU72
 341              	.LVL32:
 342              		.loc 1 373 16 is_stmt 0 view .LVU73
 343 0032 043B     		subs	r3, r3, #4
 344              	.LVL33:
 345              		.loc 1 373 16 view .LVU74
 346 0034 1960     		str	r1, [r3]
 374:..\..\..\..\..\..\Software\uCOS-II\Ports\ARM-Cortex-M0\Generic\GNU/os_cpu_c.c ****                                                                 /* Remaining registers saved on pro
 375:..\..\..\..\..\..\Software\uCOS-II\Ports\ARM-Cortex-M0\Generic\GNU/os_cpu_c.c ****     *(--p_stk) = (OS_STK)0xFFFFFFFDuL;                          /* R14: EXEC_RETURN; See Note 4    
 347              		.loc 1 375 5 is_stmt 1 view .LVU75
 348              	.LVL34:
 349              		.loc 1 375 16 is_stmt 0 view .LVU76
 350 0036 043B     		subs	r3, r3, #4
 351              	.LVL35:
 352              		.loc 1 375 16 view .LVU77
 353 0038 0321     		movs	r1, #3
 354              	.LVL36:
 355              		.loc 1 375 16 view .LVU78
 356 003a 4942     		rsbs	r1, r1, #0
 357 003c 1960     		str	r1, [r3]
 376:..\..\..\..\..\..\Software\uCOS-II\Ports\ARM-Cortex-M0\Generic\GNU/os_cpu_c.c ****     *(--p_stk) = (OS_STK)0x11111111uL;                          /* R11                             
 358              		.loc 1 376 5 is_stmt 1 view .LVU79
 359              	.LVL37:
 360              		.loc 1 376 16 is_stmt 0 view .LVU80
 361 003e 043B     		subs	r3, r3, #4
 362              	.LVL38:
 363              		.loc 1 376 16 view .LVU81
ARM GAS  C:\Users\EDULU~1.DES\AppData\Local\Temp\ccEcIMKV.s 			page 14


 364 0040 1149     		ldr	r1, .L14+20
 365 0042 1960     		str	r1, [r3]
 377:..\..\..\..\..\..\Software\uCOS-II\Ports\ARM-Cortex-M0\Generic\GNU/os_cpu_c.c ****     *(--p_stk) = (OS_STK)0x10101010uL;                          /* R10                             
 366              		.loc 1 377 5 is_stmt 1 view .LVU82
 367              	.LVL39:
 368              		.loc 1 377 16 is_stmt 0 view .LVU83
 369 0044 043B     		subs	r3, r3, #4
 370              	.LVL40:
 371              		.loc 1 377 16 view .LVU84
 372 0046 1149     		ldr	r1, .L14+24
 373 0048 1960     		str	r1, [r3]
 378:..\..\..\..\..\..\Software\uCOS-II\Ports\ARM-Cortex-M0\Generic\GNU/os_cpu_c.c ****     *(--p_stk) = (OS_STK)0x09090909uL;                          /* R9                              
 374              		.loc 1 378 5 is_stmt 1 view .LVU85
 375              	.LVL41:
 376              		.loc 1 378 16 is_stmt 0 view .LVU86
 377 004a 043B     		subs	r3, r3, #4
 378              	.LVL42:
 379              		.loc 1 378 16 view .LVU87
 380 004c 1049     		ldr	r1, .L14+28
 381 004e 1960     		str	r1, [r3]
 379:..\..\..\..\..\..\Software\uCOS-II\Ports\ARM-Cortex-M0\Generic\GNU/os_cpu_c.c ****     *(--p_stk) = (OS_STK)0x08080808uL;                          /* R8                              
 382              		.loc 1 379 5 is_stmt 1 view .LVU88
 383              	.LVL43:
 384              		.loc 1 379 16 is_stmt 0 view .LVU89
 385 0050 043B     		subs	r3, r3, #4
 386              	.LVL44:
 387              		.loc 1 379 16 view .LVU90
 388 0052 1049     		ldr	r1, .L14+32
 389 0054 1960     		str	r1, [r3]
 380:..\..\..\..\..\..\Software\uCOS-II\Ports\ARM-Cortex-M0\Generic\GNU/os_cpu_c.c ****     *(--p_stk) = (OS_STK)0x07070707uL;                          /* R7                              
 390              		.loc 1 380 5 is_stmt 1 view .LVU91
 391              	.LVL45:
 392              		.loc 1 380 16 is_stmt 0 view .LVU92
 393 0056 043B     		subs	r3, r3, #4
 394              	.LVL46:
 395              		.loc 1 380 16 view .LVU93
 396 0058 0F49     		ldr	r1, .L14+36
 397 005a 1960     		str	r1, [r3]
 381:..\..\..\..\..\..\Software\uCOS-II\Ports\ARM-Cortex-M0\Generic\GNU/os_cpu_c.c ****     *(--p_stk) = (OS_STK)0x06060606uL;                          /* R6                              
 398              		.loc 1 381 5 is_stmt 1 view .LVU94
 399              	.LVL47:
 400              		.loc 1 381 16 is_stmt 0 view .LVU95
 401 005c 043B     		subs	r3, r3, #4
 402              	.LVL48:
 403              		.loc 1 381 16 view .LVU96
 404 005e 0F49     		ldr	r1, .L14+40
 405 0060 1960     		str	r1, [r3]
 382:..\..\..\..\..\..\Software\uCOS-II\Ports\ARM-Cortex-M0\Generic\GNU/os_cpu_c.c ****     *(--p_stk) = (OS_STK)0x05050505uL;                          /* R5                              
 406              		.loc 1 382 5 is_stmt 1 view .LVU97
 407              	.LVL49:
 408              		.loc 1 382 16 is_stmt 0 view .LVU98
 409 0062 043B     		subs	r3, r3, #4
 410              	.LVL50:
 411              		.loc 1 382 16 view .LVU99
 412 0064 0E49     		ldr	r1, .L14+44
 413 0066 1960     		str	r1, [r3]
 383:..\..\..\..\..\..\Software\uCOS-II\Ports\ARM-Cortex-M0\Generic\GNU/os_cpu_c.c ****     *(--p_stk) = (OS_STK)0x04040404uL;                          /* R4                              
ARM GAS  C:\Users\EDULU~1.DES\AppData\Local\Temp\ccEcIMKV.s 			page 15


 414              		.loc 1 383 5 is_stmt 1 view .LVU100
 415              		.loc 1 383 16 is_stmt 0 view .LVU101
 416 0068 443A     		subs	r2, r2, #68
 417              	.LVL51:
 418              		.loc 1 383 16 view .LVU102
 419 006a 1000     		movs	r0, r2
 420              	.LVL52:
 421              		.loc 1 383 16 view .LVU103
 422 006c 0D4B     		ldr	r3, .L14+48
 423              	.LVL53:
 424              		.loc 1 383 16 view .LVU104
 425 006e 1360     		str	r3, [r2]
 384:..\..\..\..\..\..\Software\uCOS-II\Ports\ARM-Cortex-M0\Generic\GNU/os_cpu_c.c **** 
 385:..\..\..\..\..\..\Software\uCOS-II\Ports\ARM-Cortex-M0\Generic\GNU/os_cpu_c.c ****     return (p_stk);
 426              		.loc 1 385 5 is_stmt 1 view .LVU105
 386:..\..\..\..\..\..\Software\uCOS-II\Ports\ARM-Cortex-M0\Generic\GNU/os_cpu_c.c **** }
 427              		.loc 1 386 1 is_stmt 0 view .LVU106
 428              		@ sp needed
 429 0070 10BD     		pop	{r4, pc}
 430              	.L15:
 431 0072 C046     		.align	2
 432              	.L14:
 433 0074 00000000 		.word	OS_TaskReturn
 434 0078 12121212 		.word	303174162
 435 007c 03030303 		.word	50529027
 436 0080 02020202 		.word	33686018
 437 0084 01010101 		.word	16843009
 438 0088 11111111 		.word	286331153
 439 008c 10101010 		.word	269488144
 440 0090 09090909 		.word	151587081
 441 0094 08080808 		.word	134744072
 442 0098 07070707 		.word	117901063
 443 009c 06060606 		.word	101058054
 444 00a0 05050505 		.word	84215045
 445 00a4 04040404 		.word	67372036
 446              		.cfi_endproc
 447              	.LFE10:
 448              		.size	OSTaskStkInit, .-OSTaskStkInit
 449              		.section	.text.OSTaskSwHook,"ax",%progbits
 450              		.align	1
 451              		.global	OSTaskSwHook
 452              		.syntax unified
 453              		.code	16
 454              		.thumb_func
 455              		.fpu softvfp
 456              		.type	OSTaskSwHook, %function
 457              	OSTaskSwHook:
 458              	.LFB11:
 387:..\..\..\..\..\..\Software\uCOS-II\Ports\ARM-Cortex-M0\Generic\GNU/os_cpu_c.c **** 
 388:..\..\..\..\..\..\Software\uCOS-II\Ports\ARM-Cortex-M0\Generic\GNU/os_cpu_c.c **** 
 389:..\..\..\..\..\..\Software\uCOS-II\Ports\ARM-Cortex-M0\Generic\GNU/os_cpu_c.c **** /*
 390:..\..\..\..\..\..\Software\uCOS-II\Ports\ARM-Cortex-M0\Generic\GNU/os_cpu_c.c **** ***************************************************************************************************
 391:..\..\..\..\..\..\Software\uCOS-II\Ports\ARM-Cortex-M0\Generic\GNU/os_cpu_c.c **** *                                           TASK SWITCH HOOK
 392:..\..\..\..\..\..\Software\uCOS-II\Ports\ARM-Cortex-M0\Generic\GNU/os_cpu_c.c **** *
 393:..\..\..\..\..\..\Software\uCOS-II\Ports\ARM-Cortex-M0\Generic\GNU/os_cpu_c.c **** * Description: This function is called when a task switch is performed.  This allows you to perform
 394:..\..\..\..\..\..\Software\uCOS-II\Ports\ARM-Cortex-M0\Generic\GNU/os_cpu_c.c **** *              operations during a context switch.
 395:..\..\..\..\..\..\Software\uCOS-II\Ports\ARM-Cortex-M0\Generic\GNU/os_cpu_c.c **** *
ARM GAS  C:\Users\EDULU~1.DES\AppData\Local\Temp\ccEcIMKV.s 			page 16


 396:..\..\..\..\..\..\Software\uCOS-II\Ports\ARM-Cortex-M0\Generic\GNU/os_cpu_c.c **** * Arguments  : none
 397:..\..\..\..\..\..\Software\uCOS-II\Ports\ARM-Cortex-M0\Generic\GNU/os_cpu_c.c **** *
 398:..\..\..\..\..\..\Software\uCOS-II\Ports\ARM-Cortex-M0\Generic\GNU/os_cpu_c.c **** * Note(s)    : 1) Interrupts are disabled during this call.
 399:..\..\..\..\..\..\Software\uCOS-II\Ports\ARM-Cortex-M0\Generic\GNU/os_cpu_c.c **** *              2) It is assumed that the global pointer 'OSTCBHighRdy' points to the TCB of the tas
 400:..\..\..\..\..\..\Software\uCOS-II\Ports\ARM-Cortex-M0\Generic\GNU/os_cpu_c.c **** *                 will be 'switched in' (i.e. the highest priority task) and, 'OSTCBCur' points to 
 401:..\..\..\..\..\..\Software\uCOS-II\Ports\ARM-Cortex-M0\Generic\GNU/os_cpu_c.c **** *                 task being switched out (i.e. the preempted task).
 402:..\..\..\..\..\..\Software\uCOS-II\Ports\ARM-Cortex-M0\Generic\GNU/os_cpu_c.c **** ***************************************************************************************************
 403:..\..\..\..\..\..\Software\uCOS-II\Ports\ARM-Cortex-M0\Generic\GNU/os_cpu_c.c **** */
 404:..\..\..\..\..\..\Software\uCOS-II\Ports\ARM-Cortex-M0\Generic\GNU/os_cpu_c.c **** #if (OS_CPU_HOOKS_EN > 0u) && (OS_TASK_SW_HOOK_EN > 0u)
 405:..\..\..\..\..\..\Software\uCOS-II\Ports\ARM-Cortex-M0\Generic\GNU/os_cpu_c.c **** void  OSTaskSwHook (void)
 406:..\..\..\..\..\..\Software\uCOS-II\Ports\ARM-Cortex-M0\Generic\GNU/os_cpu_c.c **** {
 459              		.loc 1 406 1 is_stmt 1 view -0
 460              		.cfi_startproc
 461              		@ args = 0, pretend = 0, frame = 0
 462              		@ frame_needed = 0, uses_anonymous_args = 0
 463 0000 10B5     		push	{r4, lr}
 464              		.cfi_def_cfa_offset 8
 465              		.cfi_offset 4, -8
 466              		.cfi_offset 14, -4
 407:..\..\..\..\..\..\Software\uCOS-II\Ports\ARM-Cortex-M0\Generic\GNU/os_cpu_c.c **** #if OS_APP_HOOKS_EN > 0u
 408:..\..\..\..\..\..\Software\uCOS-II\Ports\ARM-Cortex-M0\Generic\GNU/os_cpu_c.c ****     App_TaskSwHook();
 467              		.loc 1 408 5 view .LVU108
 468 0002 FFF7FEFF 		bl	App_TaskSwHook
 469              	.LVL54:
 409:..\..\..\..\..\..\Software\uCOS-II\Ports\ARM-Cortex-M0\Generic\GNU/os_cpu_c.c **** #endif
 410:..\..\..\..\..\..\Software\uCOS-II\Ports\ARM-Cortex-M0\Generic\GNU/os_cpu_c.c **** }
 470              		.loc 1 410 1 is_stmt 0 view .LVU109
 471              		@ sp needed
 472 0006 10BD     		pop	{r4, pc}
 473              		.cfi_endproc
 474              	.LFE11:
 475              		.size	OSTaskSwHook, .-OSTaskSwHook
 476              		.section	.text.OSTCBInitHook,"ax",%progbits
 477              		.align	1
 478              		.global	OSTCBInitHook
 479              		.syntax unified
 480              		.code	16
 481              		.thumb_func
 482              		.fpu softvfp
 483              		.type	OSTCBInitHook, %function
 484              	OSTCBInitHook:
 485              	.LVL55:
 486              	.LFB12:
 411:..\..\..\..\..\..\Software\uCOS-II\Ports\ARM-Cortex-M0\Generic\GNU/os_cpu_c.c **** #endif
 412:..\..\..\..\..\..\Software\uCOS-II\Ports\ARM-Cortex-M0\Generic\GNU/os_cpu_c.c **** 
 413:..\..\..\..\..\..\Software\uCOS-II\Ports\ARM-Cortex-M0\Generic\GNU/os_cpu_c.c **** 
 414:..\..\..\..\..\..\Software\uCOS-II\Ports\ARM-Cortex-M0\Generic\GNU/os_cpu_c.c **** /*
 415:..\..\..\..\..\..\Software\uCOS-II\Ports\ARM-Cortex-M0\Generic\GNU/os_cpu_c.c **** ***************************************************************************************************
 416:..\..\..\..\..\..\Software\uCOS-II\Ports\ARM-Cortex-M0\Generic\GNU/os_cpu_c.c **** *                                           OS_TCBInit() HOOK
 417:..\..\..\..\..\..\Software\uCOS-II\Ports\ARM-Cortex-M0\Generic\GNU/os_cpu_c.c **** *
 418:..\..\..\..\..\..\Software\uCOS-II\Ports\ARM-Cortex-M0\Generic\GNU/os_cpu_c.c **** * Description: This function is called by OS_TCBInit() after setting up most of the TCB.
 419:..\..\..\..\..\..\Software\uCOS-II\Ports\ARM-Cortex-M0\Generic\GNU/os_cpu_c.c **** *
 420:..\..\..\..\..\..\Software\uCOS-II\Ports\ARM-Cortex-M0\Generic\GNU/os_cpu_c.c **** * Arguments  : ptcb    is a pointer to the TCB of the task being created.
 421:..\..\..\..\..\..\Software\uCOS-II\Ports\ARM-Cortex-M0\Generic\GNU/os_cpu_c.c **** *
 422:..\..\..\..\..\..\Software\uCOS-II\Ports\ARM-Cortex-M0\Generic\GNU/os_cpu_c.c **** * Note(s)    : 1) Interrupts may or may not be ENABLED during this call.
 423:..\..\..\..\..\..\Software\uCOS-II\Ports\ARM-Cortex-M0\Generic\GNU/os_cpu_c.c **** ***************************************************************************************************
 424:..\..\..\..\..\..\Software\uCOS-II\Ports\ARM-Cortex-M0\Generic\GNU/os_cpu_c.c **** */
ARM GAS  C:\Users\EDULU~1.DES\AppData\Local\Temp\ccEcIMKV.s 			page 17


 425:..\..\..\..\..\..\Software\uCOS-II\Ports\ARM-Cortex-M0\Generic\GNU/os_cpu_c.c **** #if OS_CPU_HOOKS_EN > 0u
 426:..\..\..\..\..\..\Software\uCOS-II\Ports\ARM-Cortex-M0\Generic\GNU/os_cpu_c.c **** void  OSTCBInitHook (OS_TCB *ptcb)
 427:..\..\..\..\..\..\Software\uCOS-II\Ports\ARM-Cortex-M0\Generic\GNU/os_cpu_c.c **** {
 487              		.loc 1 427 1 is_stmt 1 view -0
 488              		.cfi_startproc
 489              		@ args = 0, pretend = 0, frame = 0
 490              		@ frame_needed = 0, uses_anonymous_args = 0
 491              		.loc 1 427 1 is_stmt 0 view .LVU111
 492 0000 10B5     		push	{r4, lr}
 493              		.cfi_def_cfa_offset 8
 494              		.cfi_offset 4, -8
 495              		.cfi_offset 14, -4
 428:..\..\..\..\..\..\Software\uCOS-II\Ports\ARM-Cortex-M0\Generic\GNU/os_cpu_c.c **** #if OS_APP_HOOKS_EN > 0u
 429:..\..\..\..\..\..\Software\uCOS-II\Ports\ARM-Cortex-M0\Generic\GNU/os_cpu_c.c ****     App_TCBInitHook(ptcb);
 496              		.loc 1 429 5 is_stmt 1 view .LVU112
 497 0002 FFF7FEFF 		bl	App_TCBInitHook
 498              	.LVL56:
 430:..\..\..\..\..\..\Software\uCOS-II\Ports\ARM-Cortex-M0\Generic\GNU/os_cpu_c.c **** #else
 431:..\..\..\..\..\..\Software\uCOS-II\Ports\ARM-Cortex-M0\Generic\GNU/os_cpu_c.c ****     (void)ptcb;                                                 /* Prevent compiler warning        
 432:..\..\..\..\..\..\Software\uCOS-II\Ports\ARM-Cortex-M0\Generic\GNU/os_cpu_c.c **** #endif
 433:..\..\..\..\..\..\Software\uCOS-II\Ports\ARM-Cortex-M0\Generic\GNU/os_cpu_c.c **** }
 499              		.loc 1 433 1 is_stmt 0 view .LVU113
 500              		@ sp needed
 501 0006 10BD     		pop	{r4, pc}
 502              		.cfi_endproc
 503              	.LFE12:
 504              		.size	OSTCBInitHook, .-OSTCBInitHook
 505              		.section	.text.OSTimeTickHook,"ax",%progbits
 506              		.align	1
 507              		.global	OSTimeTickHook
 508              		.syntax unified
 509              		.code	16
 510              		.thumb_func
 511              		.fpu softvfp
 512              		.type	OSTimeTickHook, %function
 513              	OSTimeTickHook:
 514              	.LFB13:
 434:..\..\..\..\..\..\Software\uCOS-II\Ports\ARM-Cortex-M0\Generic\GNU/os_cpu_c.c **** #endif
 435:..\..\..\..\..\..\Software\uCOS-II\Ports\ARM-Cortex-M0\Generic\GNU/os_cpu_c.c **** 
 436:..\..\..\..\..\..\Software\uCOS-II\Ports\ARM-Cortex-M0\Generic\GNU/os_cpu_c.c **** 
 437:..\..\..\..\..\..\Software\uCOS-II\Ports\ARM-Cortex-M0\Generic\GNU/os_cpu_c.c **** /*
 438:..\..\..\..\..\..\Software\uCOS-II\Ports\ARM-Cortex-M0\Generic\GNU/os_cpu_c.c **** ***************************************************************************************************
 439:..\..\..\..\..\..\Software\uCOS-II\Ports\ARM-Cortex-M0\Generic\GNU/os_cpu_c.c **** *                                               TICK HOOK
 440:..\..\..\..\..\..\Software\uCOS-II\Ports\ARM-Cortex-M0\Generic\GNU/os_cpu_c.c **** *
 441:..\..\..\..\..\..\Software\uCOS-II\Ports\ARM-Cortex-M0\Generic\GNU/os_cpu_c.c **** * Description: This function is called every tick.
 442:..\..\..\..\..\..\Software\uCOS-II\Ports\ARM-Cortex-M0\Generic\GNU/os_cpu_c.c **** *
 443:..\..\..\..\..\..\Software\uCOS-II\Ports\ARM-Cortex-M0\Generic\GNU/os_cpu_c.c **** * Arguments  : none
 444:..\..\..\..\..\..\Software\uCOS-II\Ports\ARM-Cortex-M0\Generic\GNU/os_cpu_c.c **** *
 445:..\..\..\..\..\..\Software\uCOS-II\Ports\ARM-Cortex-M0\Generic\GNU/os_cpu_c.c **** * Note(s)    : 1) Interrupts may or may not be ENABLED during this call.
 446:..\..\..\..\..\..\Software\uCOS-II\Ports\ARM-Cortex-M0\Generic\GNU/os_cpu_c.c **** ***************************************************************************************************
 447:..\..\..\..\..\..\Software\uCOS-II\Ports\ARM-Cortex-M0\Generic\GNU/os_cpu_c.c **** */
 448:..\..\..\..\..\..\Software\uCOS-II\Ports\ARM-Cortex-M0\Generic\GNU/os_cpu_c.c **** #if (OS_CPU_HOOKS_EN > 0u) && (OS_TIME_TICK_HOOK_EN > 0u)
 449:..\..\..\..\..\..\Software\uCOS-II\Ports\ARM-Cortex-M0\Generic\GNU/os_cpu_c.c **** void  OSTimeTickHook (void)
 450:..\..\..\..\..\..\Software\uCOS-II\Ports\ARM-Cortex-M0\Generic\GNU/os_cpu_c.c **** {
 515              		.loc 1 450 1 is_stmt 1 view -0
 516              		.cfi_startproc
 517              		@ args = 0, pretend = 0, frame = 0
ARM GAS  C:\Users\EDULU~1.DES\AppData\Local\Temp\ccEcIMKV.s 			page 18


 518              		@ frame_needed = 0, uses_anonymous_args = 0
 519 0000 10B5     		push	{r4, lr}
 520              		.cfi_def_cfa_offset 8
 521              		.cfi_offset 4, -8
 522              		.cfi_offset 14, -4
 451:..\..\..\..\..\..\Software\uCOS-II\Ports\ARM-Cortex-M0\Generic\GNU/os_cpu_c.c **** #if OS_APP_HOOKS_EN > 0u
 452:..\..\..\..\..\..\Software\uCOS-II\Ports\ARM-Cortex-M0\Generic\GNU/os_cpu_c.c ****     App_TimeTickHook();
 523              		.loc 1 452 5 view .LVU115
 524 0002 FFF7FEFF 		bl	App_TimeTickHook
 525              	.LVL57:
 453:..\..\..\..\..\..\Software\uCOS-II\Ports\ARM-Cortex-M0\Generic\GNU/os_cpu_c.c **** #endif
 454:..\..\..\..\..\..\Software\uCOS-II\Ports\ARM-Cortex-M0\Generic\GNU/os_cpu_c.c **** 
 455:..\..\..\..\..\..\Software\uCOS-II\Ports\ARM-Cortex-M0\Generic\GNU/os_cpu_c.c **** #if OS_TMR_EN > 0u
 456:..\..\..\..\..\..\Software\uCOS-II\Ports\ARM-Cortex-M0\Generic\GNU/os_cpu_c.c ****     OSTmrCtr++;
 526              		.loc 1 456 5 view .LVU116
 527              		.loc 1 456 13 is_stmt 0 view .LVU117
 528 0006 074A     		ldr	r2, .L21
 529 0008 1388     		ldrh	r3, [r2]
 530 000a 0133     		adds	r3, r3, #1
 531 000c 9BB2     		uxth	r3, r3
 532 000e 1380     		strh	r3, [r2]
 457:..\..\..\..\..\..\Software\uCOS-II\Ports\ARM-Cortex-M0\Generic\GNU/os_cpu_c.c ****     if (OSTmrCtr >= (OS_TICKS_PER_SEC / OS_TMR_CFG_TICKS_PER_SEC)) {
 533              		.loc 1 457 5 is_stmt 1 view .LVU118
 534              		.loc 1 457 8 is_stmt 0 view .LVU119
 535 0010 632B     		cmp	r3, #99
 536 0012 00D8     		bhi	.L20
 537              	.L18:
 458:..\..\..\..\..\..\Software\uCOS-II\Ports\ARM-Cortex-M0\Generic\GNU/os_cpu_c.c ****         OSTmrCtr = 0u;
 459:..\..\..\..\..\..\Software\uCOS-II\Ports\ARM-Cortex-M0\Generic\GNU/os_cpu_c.c ****         OSTmrSignal();
 460:..\..\..\..\..\..\Software\uCOS-II\Ports\ARM-Cortex-M0\Generic\GNU/os_cpu_c.c ****     }
 461:..\..\..\..\..\..\Software\uCOS-II\Ports\ARM-Cortex-M0\Generic\GNU/os_cpu_c.c **** #endif
 462:..\..\..\..\..\..\Software\uCOS-II\Ports\ARM-Cortex-M0\Generic\GNU/os_cpu_c.c **** }
 538              		.loc 1 462 1 view .LVU120
 539              		@ sp needed
 540 0014 10BD     		pop	{r4, pc}
 541              	.L20:
 458:..\..\..\..\..\..\Software\uCOS-II\Ports\ARM-Cortex-M0\Generic\GNU/os_cpu_c.c ****         OSTmrCtr = 0u;
 542              		.loc 1 458 9 is_stmt 1 view .LVU121
 458:..\..\..\..\..\..\Software\uCOS-II\Ports\ARM-Cortex-M0\Generic\GNU/os_cpu_c.c ****         OSTmrCtr = 0u;
 543              		.loc 1 458 18 is_stmt 0 view .LVU122
 544 0016 1300     		movs	r3, r2
 545 0018 0022     		movs	r2, #0
 546 001a 1A80     		strh	r2, [r3]
 459:..\..\..\..\..\..\Software\uCOS-II\Ports\ARM-Cortex-M0\Generic\GNU/os_cpu_c.c ****     }
 547              		.loc 1 459 9 is_stmt 1 view .LVU123
 548 001c FFF7FEFF 		bl	OSTmrSignal
 549              	.LVL58:
 550              		.loc 1 462 1 is_stmt 0 view .LVU124
 551 0020 F8E7     		b	.L18
 552              	.L22:
 553 0022 C046     		.align	2
 554              	.L21:
 555 0024 00000000 		.word	.LANCHOR0
 556              		.cfi_endproc
 557              	.LFE13:
 558              		.size	OSTimeTickHook, .-OSTimeTickHook
 559              		.section	.text.SysTick_Handler,"ax",%progbits
ARM GAS  C:\Users\EDULU~1.DES\AppData\Local\Temp\ccEcIMKV.s 			page 19


 560              		.align	1
 561              		.global	SysTick_Handler
 562              		.syntax unified
 563              		.code	16
 564              		.thumb_func
 565              		.fpu softvfp
 566              		.type	SysTick_Handler, %function
 567              	SysTick_Handler:
 568              	.LFB14:
 463:..\..\..\..\..\..\Software\uCOS-II\Ports\ARM-Cortex-M0\Generic\GNU/os_cpu_c.c **** #endif
 464:..\..\..\..\..\..\Software\uCOS-II\Ports\ARM-Cortex-M0\Generic\GNU/os_cpu_c.c **** 
 465:..\..\..\..\..\..\Software\uCOS-II\Ports\ARM-Cortex-M0\Generic\GNU/os_cpu_c.c **** 
 466:..\..\..\..\..\..\Software\uCOS-II\Ports\ARM-Cortex-M0\Generic\GNU/os_cpu_c.c **** /*
 467:..\..\..\..\..\..\Software\uCOS-II\Ports\ARM-Cortex-M0\Generic\GNU/os_cpu_c.c **** ***************************************************************************************************
 468:..\..\..\..\..\..\Software\uCOS-II\Ports\ARM-Cortex-M0\Generic\GNU/os_cpu_c.c **** *                                          SYS TICK HANDLER
 469:..\..\..\..\..\..\Software\uCOS-II\Ports\ARM-Cortex-M0\Generic\GNU/os_cpu_c.c **** *
 470:..\..\..\..\..\..\Software\uCOS-II\Ports\ARM-Cortex-M0\Generic\GNU/os_cpu_c.c **** * Description: Handle the system tick (SysTick) interrupt, which is used to generate the uC/OS-II t
 471:..\..\..\..\..\..\Software\uCOS-II\Ports\ARM-Cortex-M0\Generic\GNU/os_cpu_c.c **** *              interrupt.
 472:..\..\..\..\..\..\Software\uCOS-II\Ports\ARM-Cortex-M0\Generic\GNU/os_cpu_c.c **** *
 473:..\..\..\..\..\..\Software\uCOS-II\Ports\ARM-Cortex-M0\Generic\GNU/os_cpu_c.c **** * Arguments  : None.
 474:..\..\..\..\..\..\Software\uCOS-II\Ports\ARM-Cortex-M0\Generic\GNU/os_cpu_c.c **** *
 475:..\..\..\..\..\..\Software\uCOS-II\Ports\ARM-Cortex-M0\Generic\GNU/os_cpu_c.c **** * Note(s)    : 1) This function MUST be placed on entry 15 of the Cortex-M0 vector table.
 476:..\..\..\..\..\..\Software\uCOS-II\Ports\ARM-Cortex-M0\Generic\GNU/os_cpu_c.c **** ***************************************************************************************************
 477:..\..\..\..\..\..\Software\uCOS-II\Ports\ARM-Cortex-M0\Generic\GNU/os_cpu_c.c **** */
 478:..\..\..\..\..\..\Software\uCOS-II\Ports\ARM-Cortex-M0\Generic\GNU/os_cpu_c.c **** 
 479:..\..\..\..\..\..\Software\uCOS-II\Ports\ARM-Cortex-M0\Generic\GNU/os_cpu_c.c **** void  SysTick_Handler (void)
 480:..\..\..\..\..\..\Software\uCOS-II\Ports\ARM-Cortex-M0\Generic\GNU/os_cpu_c.c **** {
 569              		.loc 1 480 1 is_stmt 1 view -0
 570              		.cfi_startproc
 571              		@ args = 0, pretend = 0, frame = 0
 572              		@ frame_needed = 0, uses_anonymous_args = 0
 573 0000 10B5     		push	{r4, lr}
 574              		.cfi_def_cfa_offset 8
 575              		.cfi_offset 4, -8
 576              		.cfi_offset 14, -4
 481:..\..\..\..\..\..\Software\uCOS-II\Ports\ARM-Cortex-M0\Generic\GNU/os_cpu_c.c **** #if OS_CRITICAL_METHOD == 3u                                    /* Allocate storage for CPU status 
 482:..\..\..\..\..\..\Software\uCOS-II\Ports\ARM-Cortex-M0\Generic\GNU/os_cpu_c.c ****     OS_CPU_SR  cpu_sr;
 577              		.loc 1 482 5 view .LVU126
 483:..\..\..\..\..\..\Software\uCOS-II\Ports\ARM-Cortex-M0\Generic\GNU/os_cpu_c.c **** #endif
 484:..\..\..\..\..\..\Software\uCOS-II\Ports\ARM-Cortex-M0\Generic\GNU/os_cpu_c.c **** 
 485:..\..\..\..\..\..\Software\uCOS-II\Ports\ARM-Cortex-M0\Generic\GNU/os_cpu_c.c **** 
 486:..\..\..\..\..\..\Software\uCOS-II\Ports\ARM-Cortex-M0\Generic\GNU/os_cpu_c.c ****     OS_ENTER_CRITICAL();
 578              		.loc 1 486 5 view .LVU127
 579              		.loc 1 486 5 view .LVU128
 580 0002 FFF7FEFF 		bl	OS_CPU_SR_Save
 581              	.LVL59:
 582 0006 0400     		movs	r4, r0
 583              	.LVL60:
 487:..\..\..\..\..\..\Software\uCOS-II\Ports\ARM-Cortex-M0\Generic\GNU/os_cpu_c.c ****     OSIntEnter();                                               /* Tell uC/OS-II that we are starti
 584              		.loc 1 487 5 view .LVU129
 585 0008 FFF7FEFF 		bl	OSIntEnter
 586              	.LVL61:
 488:..\..\..\..\..\..\Software\uCOS-II\Ports\ARM-Cortex-M0\Generic\GNU/os_cpu_c.c ****     OS_EXIT_CRITICAL();
 587              		.loc 1 488 5 view .LVU130
 588              		.loc 1 488 5 view .LVU131
 589 000c 2000     		movs	r0, r4
 590 000e FFF7FEFF 		bl	OS_CPU_SR_Restore
ARM GAS  C:\Users\EDULU~1.DES\AppData\Local\Temp\ccEcIMKV.s 			page 20


 591              	.LVL62:
 489:..\..\..\..\..\..\Software\uCOS-II\Ports\ARM-Cortex-M0\Generic\GNU/os_cpu_c.c **** 
 490:..\..\..\..\..\..\Software\uCOS-II\Ports\ARM-Cortex-M0\Generic\GNU/os_cpu_c.c ****     OSTimeTick();                                               /* Call uC/OS-II's OSTimeTick()    
 592              		.loc 1 490 5 view .LVU132
 593 0012 FFF7FEFF 		bl	OSTimeTick
 594              	.LVL63:
 491:..\..\..\..\..\..\Software\uCOS-II\Ports\ARM-Cortex-M0\Generic\GNU/os_cpu_c.c **** 
 492:..\..\..\..\..\..\Software\uCOS-II\Ports\ARM-Cortex-M0\Generic\GNU/os_cpu_c.c ****     OSIntExit();                                                /* Tell uC/OS-II that we are leavin
 595              		.loc 1 492 5 view .LVU133
 596 0016 FFF7FEFF 		bl	OSIntExit
 597              	.LVL64:
 493:..\..\..\..\..\..\Software\uCOS-II\Ports\ARM-Cortex-M0\Generic\GNU/os_cpu_c.c **** }
 598              		.loc 1 493 1 is_stmt 0 view .LVU134
 599              		@ sp needed
 600              	.LVL65:
 601              		.loc 1 493 1 view .LVU135
 602 001a 10BD     		pop	{r4, pc}
 603              		.cfi_endproc
 604              	.LFE14:
 605              		.size	SysTick_Handler, .-SysTick_Handler
 606              		.global	__aeabi_uidiv
 607              		.section	.text.OS_CPU_SysTickInit,"ax",%progbits
 608              		.align	1
 609              		.global	OS_CPU_SysTickInit
 610              		.syntax unified
 611              		.code	16
 612              		.thumb_func
 613              		.fpu softvfp
 614              		.type	OS_CPU_SysTickInit, %function
 615              	OS_CPU_SysTickInit:
 616              	.LVL66:
 617              	.LFB15:
 494:..\..\..\..\..\..\Software\uCOS-II\Ports\ARM-Cortex-M0\Generic\GNU/os_cpu_c.c **** 
 495:..\..\..\..\..\..\Software\uCOS-II\Ports\ARM-Cortex-M0\Generic\GNU/os_cpu_c.c **** 
 496:..\..\..\..\..\..\Software\uCOS-II\Ports\ARM-Cortex-M0\Generic\GNU/os_cpu_c.c **** /*
 497:..\..\..\..\..\..\Software\uCOS-II\Ports\ARM-Cortex-M0\Generic\GNU/os_cpu_c.c **** ***************************************************************************************************
 498:..\..\..\..\..\..\Software\uCOS-II\Ports\ARM-Cortex-M0\Generic\GNU/os_cpu_c.c **** *                                         INITIALIZE SYS TICK
 499:..\..\..\..\..\..\Software\uCOS-II\Ports\ARM-Cortex-M0\Generic\GNU/os_cpu_c.c **** *
 500:..\..\..\..\..\..\Software\uCOS-II\Ports\ARM-Cortex-M0\Generic\GNU/os_cpu_c.c **** * Description: Initialize the SysTick.
 501:..\..\..\..\..\..\Software\uCOS-II\Ports\ARM-Cortex-M0\Generic\GNU/os_cpu_c.c **** *
 502:..\..\..\..\..\..\Software\uCOS-II\Ports\ARM-Cortex-M0\Generic\GNU/os_cpu_c.c **** * Arguments  : cpu_freq         CPU clock frequency.
 503:..\..\..\..\..\..\Software\uCOS-II\Ports\ARM-Cortex-M0\Generic\GNU/os_cpu_c.c **** *
 504:..\..\..\..\..\..\Software\uCOS-II\Ports\ARM-Cortex-M0\Generic\GNU/os_cpu_c.c **** * Note(s)    : 1) This function MUST be called after OSStart() & after processor initialization.
 505:..\..\..\..\..\..\Software\uCOS-II\Ports\ARM-Cortex-M0\Generic\GNU/os_cpu_c.c **** ***************************************************************************************************
 506:..\..\..\..\..\..\Software\uCOS-II\Ports\ARM-Cortex-M0\Generic\GNU/os_cpu_c.c **** */
 507:..\..\..\..\..\..\Software\uCOS-II\Ports\ARM-Cortex-M0\Generic\GNU/os_cpu_c.c **** 
 508:..\..\..\..\..\..\Software\uCOS-II\Ports\ARM-Cortex-M0\Generic\GNU/os_cpu_c.c **** void  OS_CPU_SysTickInit (INT32U  cpu_freq)
 509:..\..\..\..\..\..\Software\uCOS-II\Ports\ARM-Cortex-M0\Generic\GNU/os_cpu_c.c **** {
 618              		.loc 1 509 1 is_stmt 1 view -0
 619              		.cfi_startproc
 620              		@ args = 0, pretend = 0, frame = 0
 621              		@ frame_needed = 0, uses_anonymous_args = 0
 622              		.loc 1 509 1 is_stmt 0 view .LVU137
 623 0000 10B5     		push	{r4, lr}
 624              		.cfi_def_cfa_offset 8
 625              		.cfi_offset 4, -8
 626              		.cfi_offset 14, -4
ARM GAS  C:\Users\EDULU~1.DES\AppData\Local\Temp\ccEcIMKV.s 			page 21


 510:..\..\..\..\..\..\Software\uCOS-II\Ports\ARM-Cortex-M0\Generic\GNU/os_cpu_c.c ****     INT32U  prio;
 627              		.loc 1 510 5 is_stmt 1 view .LVU138
 511:..\..\..\..\..\..\Software\uCOS-II\Ports\ARM-Cortex-M0\Generic\GNU/os_cpu_c.c ****     INT32U  cnts;
 628              		.loc 1 511 5 view .LVU139
 512:..\..\..\..\..\..\Software\uCOS-II\Ports\ARM-Cortex-M0\Generic\GNU/os_cpu_c.c **** 
 513:..\..\..\..\..\..\Software\uCOS-II\Ports\ARM-Cortex-M0\Generic\GNU/os_cpu_c.c **** 
 514:..\..\..\..\..\..\Software\uCOS-II\Ports\ARM-Cortex-M0\Generic\GNU/os_cpu_c.c ****     cnts = (cpu_freq / (INT32U)OS_TICKS_PER_SEC);               /* Determine nbr SysTick cnts betwe
 629              		.loc 1 514 5 view .LVU140
 630              		.loc 1 514 10 is_stmt 0 view .LVU141
 631 0002 FA21     		movs	r1, #250
 632 0004 8900     		lsls	r1, r1, #2
 633 0006 FFF7FEFF 		bl	__aeabi_uidiv
 634              	.LVL67:
 515:..\..\..\..\..\..\Software\uCOS-II\Ports\ARM-Cortex-M0\Generic\GNU/os_cpu_c.c **** 
 516:..\..\..\..\..\..\Software\uCOS-II\Ports\ARM-Cortex-M0\Generic\GNU/os_cpu_c.c ****     OS_CPU_CM0_NVIC_ST_RELOAD = cnts - 1u;
 635              		.loc 1 516 5 is_stmt 1 view .LVU142
 636              		.loc 1 516 38 is_stmt 0 view .LVU143
 637 000a 0138     		subs	r0, r0, #1
 638              	.LVL68:
 639              		.loc 1 516 31 view .LVU144
 640 000c 084B     		ldr	r3, .L25
 641 000e 1860     		str	r0, [r3]
 517:..\..\..\..\..\..\Software\uCOS-II\Ports\ARM-Cortex-M0\Generic\GNU/os_cpu_c.c **** 
 518:..\..\..\..\..\..\Software\uCOS-II\Ports\ARM-Cortex-M0\Generic\GNU/os_cpu_c.c ****                                                                 /* Set SysTick handler prio.       
 519:..\..\..\..\..\..\Software\uCOS-II\Ports\ARM-Cortex-M0\Generic\GNU/os_cpu_c.c ****     prio  =  OS_CPU_CM0_NVIC_PRIO_ST;
 642              		.loc 1 519 5 is_stmt 1 view .LVU145
 643              		.loc 1 519 11 is_stmt 0 view .LVU146
 644 0010 084A     		ldr	r2, .L25+4
 645 0012 1368     		ldr	r3, [r2]
 646              	.LVL69:
 520:..\..\..\..\..\..\Software\uCOS-II\Ports\ARM-Cortex-M0\Generic\GNU/os_cpu_c.c ****     prio &=  0x00FFFFFFu;
 647              		.loc 1 520 5 is_stmt 1 view .LVU147
 648              		.loc 1 520 10 is_stmt 0 view .LVU148
 649 0014 1B02     		lsls	r3, r3, #8
 650              	.LVL70:
 651              		.loc 1 520 10 view .LVU149
 652 0016 1B0A     		lsrs	r3, r3, #8
 653              	.LVL71:
 521:..\..\..\..\..\..\Software\uCOS-II\Ports\ARM-Cortex-M0\Generic\GNU/os_cpu_c.c ****     prio |= (OS_CPU_CFG_SYSTICK_PRIO  << 24u);
 654              		.loc 1 521 5 is_stmt 1 view .LVU150
 522:..\..\..\..\..\..\Software\uCOS-II\Ports\ARM-Cortex-M0\Generic\GNU/os_cpu_c.c **** 
 523:..\..\..\..\..\..\Software\uCOS-II\Ports\ARM-Cortex-M0\Generic\GNU/os_cpu_c.c ****     OS_CPU_CM0_NVIC_PRIO_ST   = prio;
 655              		.loc 1 523 5 view .LVU151
 656              		.loc 1 523 31 is_stmt 0 view .LVU152
 657 0018 1360     		str	r3, [r2]
 524:..\..\..\..\..\..\Software\uCOS-II\Ports\ARM-Cortex-M0\Generic\GNU/os_cpu_c.c **** 
 525:..\..\..\..\..\..\Software\uCOS-II\Ports\ARM-Cortex-M0\Generic\GNU/os_cpu_c.c ****                                                                 /* Enable timer.                   
 526:..\..\..\..\..\..\Software\uCOS-II\Ports\ARM-Cortex-M0\Generic\GNU/os_cpu_c.c ****     OS_CPU_CM0_NVIC_ST_CTRL  |= OS_CPU_CM0_NVIC_ST_CTRL_CLK_SRC |
 658              		.loc 1 526 5 is_stmt 1 view .LVU153
 659              		.loc 1 526 30 is_stmt 0 view .LVU154
 660 001a 074B     		ldr	r3, .L25+8
 661              	.LVL72:
 662              		.loc 1 526 30 view .LVU155
 663 001c 1A68     		ldr	r2, [r3]
 664              	.LVL73:
 665              		.loc 1 526 30 view .LVU156
 666 001e 0521     		movs	r1, #5
ARM GAS  C:\Users\EDULU~1.DES\AppData\Local\Temp\ccEcIMKV.s 			page 22


 667 0020 0A43     		orrs	r2, r1
 668 0022 1A60     		str	r2, [r3]
 669              	.LVL74:
 527:..\..\..\..\..\..\Software\uCOS-II\Ports\ARM-Cortex-M0\Generic\GNU/os_cpu_c.c **** 	                            OS_CPU_CM0_NVIC_ST_CTRL_ENABLE;
 528:..\..\..\..\..\..\Software\uCOS-II\Ports\ARM-Cortex-M0\Generic\GNU/os_cpu_c.c ****                                                                 /* Enable timer interrupt.         
 529:..\..\..\..\..\..\Software\uCOS-II\Ports\ARM-Cortex-M0\Generic\GNU/os_cpu_c.c ****     OS_CPU_CM0_NVIC_ST_CTRL  |= OS_CPU_CM0_NVIC_ST_CTRL_INTEN;
 670              		.loc 1 529 5 is_stmt 1 view .LVU157
 671              		.loc 1 529 30 is_stmt 0 view .LVU158
 672 0024 1A68     		ldr	r2, [r3]
 673 0026 0339     		subs	r1, r1, #3
 674 0028 0A43     		orrs	r2, r1
 675 002a 1A60     		str	r2, [r3]
 530:..\..\..\..\..\..\Software\uCOS-II\Ports\ARM-Cortex-M0\Generic\GNU/os_cpu_c.c **** }
 676              		.loc 1 530 1 view .LVU159
 677              		@ sp needed
 678 002c 10BD     		pop	{r4, pc}
 679              	.L26:
 680 002e C046     		.align	2
 681              	.L25:
 682 0030 14E000E0 		.word	-536813548
 683 0034 20ED00E0 		.word	-536810208
 684 0038 10E000E0 		.word	-536813552
 685              		.cfi_endproc
 686              	.LFE15:
 687              		.size	OS_CPU_SysTickInit, .-OS_CPU_SysTickInit
 688              		.comm	OS_CPU_ExceptStkBase,4,4
 689              		.comm	OS_CPU_ExceptStk,512,4
 690              		.bss
 691              		.align	1
 692              		.set	.LANCHOR0,. + 0
 693              		.type	OSTmrCtr, %object
 694              		.size	OSTmrCtr, 2
 695              	OSTmrCtr:
 696 0000 0000     		.space	2
 697              		.text
 698              	.Letext0:
 699              		.file 2 "c:\\program files (x86)\\gnu tools arm embedded\\8 2018-q4-major\\arm-none-eabi\\include\
 700              		.file 3 "c:\\program files (x86)\\gnu tools arm embedded\\8 2018-q4-major\\arm-none-eabi\\include\
 701              		.file 4 "c:\\program files (x86)\\gnu tools arm embedded\\8 2018-q4-major\\lib\\gcc\\arm-none-eabi
 702              		.file 5 "c:\\program files (x86)\\gnu tools arm embedded\\8 2018-q4-major\\arm-none-eabi\\include\
 703              		.file 6 "..\\..\\..\\..\\..\\..\\Software\\uCOS-II\\Ports\\ARM-Cortex-M0\\Generic\\GNU/os_cpu.h"
 704              		.file 7 "..\\..\\..\\..\\..\\..\\Software\\uCOS-II\\Source/ucos_ii.h"