ARM GAS  C:\Users\EDULU~1.DES\AppData\Local\Temp\ccFs9KIj.s 			page 1


   1              		.cpu cortex-m0
   2              		.eabi_attribute 20, 1
   3              		.eabi_attribute 21, 1
   4              		.eabi_attribute 23, 3
   5              		.eabi_attribute 24, 1
   6              		.eabi_attribute 25, 1
   7              		.eabi_attribute 26, 1
   8              		.eabi_attribute 30, 1
   9              		.eabi_attribute 34, 0
  10              		.eabi_attribute 18, 4
  11              		.file	"os_sem.c"
  12              		.text
  13              	.Ltext0:
  14              		.cfi_sections	.debug_frame
  15              		.section	.text.OSSemAccept,"ax",%progbits
  16              		.align	1
  17              		.global	OSSemAccept
  18              		.arch armv6s-m
  19              		.syntax unified
  20              		.code	16
  21              		.thumb_func
  22              		.fpu softvfp
  23              		.type	OSSemAccept, %function
  24              	OSSemAccept:
  25              	.LVL0:
  26              	.LFB3:
  27              		.file 1 "..\\..\\..\\..\\..\\..\\Software\\uCOS-II\\Source\\os_sem.c"
   1:..\..\..\..\..\..\Software\uCOS-II\Source/os_sem.c **** /*
   2:..\..\..\..\..\..\Software\uCOS-II\Source/os_sem.c **** ***************************************************************************************************
   3:..\..\..\..\..\..\Software\uCOS-II\Source/os_sem.c **** *                                                uC/OS-II
   4:..\..\..\..\..\..\Software\uCOS-II\Source/os_sem.c **** *                                          The Real-Time Kernel
   5:..\..\..\..\..\..\Software\uCOS-II\Source/os_sem.c **** *                                          SEMAPHORE MANAGEMENT
   6:..\..\..\..\..\..\Software\uCOS-II\Source/os_sem.c **** *
   7:..\..\..\..\..\..\Software\uCOS-II\Source/os_sem.c **** *                              (c) Copyright 1992-2013, Micrium, Weston, FL
   8:..\..\..\..\..\..\Software\uCOS-II\Source/os_sem.c **** *                                           All Rights Reserved
   9:..\..\..\..\..\..\Software\uCOS-II\Source/os_sem.c **** *
  10:..\..\..\..\..\..\Software\uCOS-II\Source/os_sem.c **** * File    : OS_SEM.C
  11:..\..\..\..\..\..\Software\uCOS-II\Source/os_sem.c **** * By      : Jean J. Labrosse
  12:..\..\..\..\..\..\Software\uCOS-II\Source/os_sem.c **** * Version : V2.92.11
  13:..\..\..\..\..\..\Software\uCOS-II\Source/os_sem.c **** *
  14:..\..\..\..\..\..\Software\uCOS-II\Source/os_sem.c **** * LICENSING TERMS:
  15:..\..\..\..\..\..\Software\uCOS-II\Source/os_sem.c **** * ---------------
  16:..\..\..\..\..\..\Software\uCOS-II\Source/os_sem.c **** *   uC/OS-II is provided in source form for FREE evaluation, for educational use or for peaceful re
  17:..\..\..\..\..\..\Software\uCOS-II\Source/os_sem.c **** * If you plan on using  uC/OS-II  in a commercial product you need to contact Micrium to properly l
  18:..\..\..\..\..\..\Software\uCOS-II\Source/os_sem.c **** * its use in your product. We provide ALL the source code for your convenience and to help you expe
  19:..\..\..\..\..\..\Software\uCOS-II\Source/os_sem.c **** * uC/OS-II.   The fact that the  source is provided does  NOT  mean that you can use it without  pa
  20:..\..\..\..\..\..\Software\uCOS-II\Source/os_sem.c **** * licensing fee.
  21:..\..\..\..\..\..\Software\uCOS-II\Source/os_sem.c **** ***************************************************************************************************
  22:..\..\..\..\..\..\Software\uCOS-II\Source/os_sem.c **** */
  23:..\..\..\..\..\..\Software\uCOS-II\Source/os_sem.c **** 
  24:..\..\..\..\..\..\Software\uCOS-II\Source/os_sem.c **** #define  MICRIUM_SOURCE
  25:..\..\..\..\..\..\Software\uCOS-II\Source/os_sem.c **** 
  26:..\..\..\..\..\..\Software\uCOS-II\Source/os_sem.c **** #ifndef  OS_MASTER_FILE
  27:..\..\..\..\..\..\Software\uCOS-II\Source/os_sem.c **** #include <ucos_ii.h>
  28:..\..\..\..\..\..\Software\uCOS-II\Source/os_sem.c **** #endif
  29:..\..\..\..\..\..\Software\uCOS-II\Source/os_sem.c **** 
  30:..\..\..\..\..\..\Software\uCOS-II\Source/os_sem.c **** #if OS_SEM_EN > 0u
ARM GAS  C:\Users\EDULU~1.DES\AppData\Local\Temp\ccFs9KIj.s 			page 2


  31:..\..\..\..\..\..\Software\uCOS-II\Source/os_sem.c **** /*$PAGE*/
  32:..\..\..\..\..\..\Software\uCOS-II\Source/os_sem.c **** /*
  33:..\..\..\..\..\..\Software\uCOS-II\Source/os_sem.c **** ***************************************************************************************************
  34:..\..\..\..\..\..\Software\uCOS-II\Source/os_sem.c **** *                                          ACCEPT SEMAPHORE
  35:..\..\..\..\..\..\Software\uCOS-II\Source/os_sem.c **** *
  36:..\..\..\..\..\..\Software\uCOS-II\Source/os_sem.c **** * Description: This function checks the semaphore to see if a resource is available or, if an event
  37:..\..\..\..\..\..\Software\uCOS-II\Source/os_sem.c **** *              occurred.  Unlike OSSemPend(), OSSemAccept() does not suspend the calling task if th
  38:..\..\..\..\..\..\Software\uCOS-II\Source/os_sem.c **** *              resource is not available or the event did not occur.
  39:..\..\..\..\..\..\Software\uCOS-II\Source/os_sem.c **** *
  40:..\..\..\..\..\..\Software\uCOS-II\Source/os_sem.c **** * Arguments  : pevent     is a pointer to the event control block
  41:..\..\..\..\..\..\Software\uCOS-II\Source/os_sem.c **** *
  42:..\..\..\..\..\..\Software\uCOS-II\Source/os_sem.c **** * Returns    : >  0       if the resource is available or the event did not occur the semaphore is
  43:..\..\..\..\..\..\Software\uCOS-II\Source/os_sem.c **** *                         decremented to obtain the resource.
  44:..\..\..\..\..\..\Software\uCOS-II\Source/os_sem.c **** *              == 0       if the resource is not available or the event did not occur or,
  45:..\..\..\..\..\..\Software\uCOS-II\Source/os_sem.c **** *                         if 'pevent' is a NULL pointer or,
  46:..\..\..\..\..\..\Software\uCOS-II\Source/os_sem.c **** *                         if you didn't pass a pointer to a semaphore
  47:..\..\..\..\..\..\Software\uCOS-II\Source/os_sem.c **** ***************************************************************************************************
  48:..\..\..\..\..\..\Software\uCOS-II\Source/os_sem.c **** */
  49:..\..\..\..\..\..\Software\uCOS-II\Source/os_sem.c **** 
  50:..\..\..\..\..\..\Software\uCOS-II\Source/os_sem.c **** #if OS_SEM_ACCEPT_EN > 0u
  51:..\..\..\..\..\..\Software\uCOS-II\Source/os_sem.c **** INT16U  OSSemAccept (OS_EVENT *pevent)
  52:..\..\..\..\..\..\Software\uCOS-II\Source/os_sem.c **** {
  28              		.loc 1 52 1 view -0
  29              		.cfi_startproc
  30              		@ args = 0, pretend = 0, frame = 0
  31              		@ frame_needed = 0, uses_anonymous_args = 0
  32              		.loc 1 52 1 is_stmt 0 view .LVU1
  33 0000 70B5     		push	{r4, r5, r6, lr}
  34              		.cfi_def_cfa_offset 16
  35              		.cfi_offset 4, -16
  36              		.cfi_offset 5, -12
  37              		.cfi_offset 6, -8
  38              		.cfi_offset 14, -4
  39 0002 041E     		subs	r4, r0, #0
  53:..\..\..\..\..\..\Software\uCOS-II\Source/os_sem.c ****     INT16U     cnt;
  40              		.loc 1 53 5 is_stmt 1 view .LVU2
  54:..\..\..\..\..\..\Software\uCOS-II\Source/os_sem.c **** #if OS_CRITICAL_METHOD == 3u                          /* Allocate storage for CPU status register  
  55:..\..\..\..\..\..\Software\uCOS-II\Source/os_sem.c ****     OS_CPU_SR  cpu_sr = 0u;
  41              		.loc 1 55 5 view .LVU3
  42              	.LVL1:
  56:..\..\..\..\..\..\Software\uCOS-II\Source/os_sem.c **** #endif
  57:..\..\..\..\..\..\Software\uCOS-II\Source/os_sem.c **** 
  58:..\..\..\..\..\..\Software\uCOS-II\Source/os_sem.c **** 
  59:..\..\..\..\..\..\Software\uCOS-II\Source/os_sem.c **** 
  60:..\..\..\..\..\..\Software\uCOS-II\Source/os_sem.c **** #if OS_ARG_CHK_EN > 0u
  61:..\..\..\..\..\..\Software\uCOS-II\Source/os_sem.c ****     if (pevent == (OS_EVENT *)0) {                    /* Validate 'pevent'                         
  43              		.loc 1 61 5 view .LVU4
  44              		.loc 1 61 8 is_stmt 0 view .LVU5
  45 0004 0FD0     		beq	.L4
  62:..\..\..\..\..\..\Software\uCOS-II\Source/os_sem.c ****         return (0u);
  63:..\..\..\..\..\..\Software\uCOS-II\Source/os_sem.c ****     }
  64:..\..\..\..\..\..\Software\uCOS-II\Source/os_sem.c **** #endif
  65:..\..\..\..\..\..\Software\uCOS-II\Source/os_sem.c ****     if (pevent->OSEventType != OS_EVENT_TYPE_SEM) {   /* Validate event block type                 
  46              		.loc 1 65 5 is_stmt 1 view .LVU6
  47              		.loc 1 65 15 is_stmt 0 view .LVU7
  48 0006 0378     		ldrb	r3, [r0]
  49              		.loc 1 65 8 view .LVU8
ARM GAS  C:\Users\EDULU~1.DES\AppData\Local\Temp\ccFs9KIj.s 			page 3


  50 0008 032B     		cmp	r3, #3
  51 000a 02D0     		beq	.L6
  66:..\..\..\..\..\..\Software\uCOS-II\Source/os_sem.c ****         return (0u);
  52              		.loc 1 66 16 view .LVU9
  53 000c 0025     		movs	r5, #0
  54              	.LVL2:
  55              	.L2:
  67:..\..\..\..\..\..\Software\uCOS-II\Source/os_sem.c ****     }
  68:..\..\..\..\..\..\Software\uCOS-II\Source/os_sem.c ****     OS_ENTER_CRITICAL();
  69:..\..\..\..\..\..\Software\uCOS-II\Source/os_sem.c ****     cnt = pevent->OSEventCnt;
  70:..\..\..\..\..\..\Software\uCOS-II\Source/os_sem.c ****     if (cnt > 0u) {                                   /* See if resource is available              
  71:..\..\..\..\..\..\Software\uCOS-II\Source/os_sem.c ****         pevent->OSEventCnt--;                         /* Yes, decrement semaphore and notify caller
  72:..\..\..\..\..\..\Software\uCOS-II\Source/os_sem.c ****     }
  73:..\..\..\..\..\..\Software\uCOS-II\Source/os_sem.c ****     OS_EXIT_CRITICAL();
  74:..\..\..\..\..\..\Software\uCOS-II\Source/os_sem.c ****     return (cnt);                                     /* Return semaphore count                    
  75:..\..\..\..\..\..\Software\uCOS-II\Source/os_sem.c **** }
  56              		.loc 1 75 1 view .LVU10
  57 000e 2800     		movs	r0, r5
  58              		@ sp needed
  59              	.LVL3:
  60              		.loc 1 75 1 view .LVU11
  61 0010 70BD     		pop	{r4, r5, r6, pc}
  62              	.LVL4:
  63              	.L6:
  68:..\..\..\..\..\..\Software\uCOS-II\Source/os_sem.c ****     cnt = pevent->OSEventCnt;
  64              		.loc 1 68 5 is_stmt 1 view .LVU12
  68:..\..\..\..\..\..\Software\uCOS-II\Source/os_sem.c ****     cnt = pevent->OSEventCnt;
  65              		.loc 1 68 5 view .LVU13
  66 0012 FFF7FEFF 		bl	OS_CPU_SR_Save
  67              	.LVL5:
  69:..\..\..\..\..\..\Software\uCOS-II\Source/os_sem.c ****     if (cnt > 0u) {                                   /* See if resource is available              
  68              		.loc 1 69 5 view .LVU14
  69:..\..\..\..\..\..\Software\uCOS-II\Source/os_sem.c ****     if (cnt > 0u) {                                   /* See if resource is available              
  69              		.loc 1 69 9 is_stmt 0 view .LVU15
  70 0016 2589     		ldrh	r5, [r4, #8]
  71              	.LVL6:
  70:..\..\..\..\..\..\Software\uCOS-II\Source/os_sem.c ****         pevent->OSEventCnt--;                         /* Yes, decrement semaphore and notify caller
  72              		.loc 1 70 5 is_stmt 1 view .LVU16
  70:..\..\..\..\..\..\Software\uCOS-II\Source/os_sem.c ****         pevent->OSEventCnt--;                         /* Yes, decrement semaphore and notify caller
  73              		.loc 1 70 8 is_stmt 0 view .LVU17
  74 0018 002D     		cmp	r5, #0
  75 001a 01D0     		beq	.L3
  71:..\..\..\..\..\..\Software\uCOS-II\Source/os_sem.c ****     }
  76              		.loc 1 71 9 is_stmt 1 view .LVU18
  71:..\..\..\..\..\..\Software\uCOS-II\Source/os_sem.c ****     }
  77              		.loc 1 71 27 is_stmt 0 view .LVU19
  78 001c 6B1E     		subs	r3, r5, #1
  79 001e 2381     		strh	r3, [r4, #8]
  80              	.L3:
  73:..\..\..\..\..\..\Software\uCOS-II\Source/os_sem.c ****     return (cnt);                                     /* Return semaphore count                    
  81              		.loc 1 73 5 is_stmt 1 view .LVU20
  73:..\..\..\..\..\..\Software\uCOS-II\Source/os_sem.c ****     return (cnt);                                     /* Return semaphore count                    
  82              		.loc 1 73 5 view .LVU21
  83 0020 FFF7FEFF 		bl	OS_CPU_SR_Restore
  84              	.LVL7:
  74:..\..\..\..\..\..\Software\uCOS-II\Source/os_sem.c **** }
  85              		.loc 1 74 5 view .LVU22
ARM GAS  C:\Users\EDULU~1.DES\AppData\Local\Temp\ccFs9KIj.s 			page 4


  74:..\..\..\..\..\..\Software\uCOS-II\Source/os_sem.c **** }
  86              		.loc 1 74 12 is_stmt 0 view .LVU23
  87 0024 F3E7     		b	.L2
  88              	.LVL8:
  89              	.L4:
  62:..\..\..\..\..\..\Software\uCOS-II\Source/os_sem.c ****     }
  90              		.loc 1 62 16 view .LVU24
  91 0026 0025     		movs	r5, #0
  92 0028 F1E7     		b	.L2
  93              		.cfi_endproc
  94              	.LFE3:
  95              		.size	OSSemAccept, .-OSSemAccept
  96              		.section	.text.OSSemCreate,"ax",%progbits
  97              		.align	1
  98              		.global	OSSemCreate
  99              		.syntax unified
 100              		.code	16
 101              		.thumb_func
 102              		.fpu softvfp
 103              		.type	OSSemCreate, %function
 104              	OSSemCreate:
 105              	.LVL9:
 106              	.LFB4:
  76:..\..\..\..\..\..\Software\uCOS-II\Source/os_sem.c **** #endif
  77:..\..\..\..\..\..\Software\uCOS-II\Source/os_sem.c **** 
  78:..\..\..\..\..\..\Software\uCOS-II\Source/os_sem.c **** /*$PAGE*/
  79:..\..\..\..\..\..\Software\uCOS-II\Source/os_sem.c **** /*
  80:..\..\..\..\..\..\Software\uCOS-II\Source/os_sem.c **** ***************************************************************************************************
  81:..\..\..\..\..\..\Software\uCOS-II\Source/os_sem.c **** *                                         CREATE A SEMAPHORE
  82:..\..\..\..\..\..\Software\uCOS-II\Source/os_sem.c **** *
  83:..\..\..\..\..\..\Software\uCOS-II\Source/os_sem.c **** * Description: This function creates a semaphore.
  84:..\..\..\..\..\..\Software\uCOS-II\Source/os_sem.c **** *
  85:..\..\..\..\..\..\Software\uCOS-II\Source/os_sem.c **** * Arguments  : cnt           is the initial value for the semaphore.  If the value is 0, no resourc
  86:..\..\..\..\..\..\Software\uCOS-II\Source/os_sem.c **** *                            available (or no event has occurred).  You initialize the semaphore to
  87:..\..\..\..\..\..\Software\uCOS-II\Source/os_sem.c **** *                            non-zero value to specify how many resources are available (e.g. if yo
  88:..\..\..\..\..\..\Software\uCOS-II\Source/os_sem.c **** *                            10 resources, you would initialize the semaphore to 10).
  89:..\..\..\..\..\..\Software\uCOS-II\Source/os_sem.c **** *
  90:..\..\..\..\..\..\Software\uCOS-II\Source/os_sem.c **** * Returns    : != (void *)0  is a pointer to the event control block (OS_EVENT) associated with the
  91:..\..\..\..\..\..\Software\uCOS-II\Source/os_sem.c **** *                            created semaphore
  92:..\..\..\..\..\..\Software\uCOS-II\Source/os_sem.c **** *              == (void *)0  if no event control blocks were available
  93:..\..\..\..\..\..\Software\uCOS-II\Source/os_sem.c **** ***************************************************************************************************
  94:..\..\..\..\..\..\Software\uCOS-II\Source/os_sem.c **** */
  95:..\..\..\..\..\..\Software\uCOS-II\Source/os_sem.c **** 
  96:..\..\..\..\..\..\Software\uCOS-II\Source/os_sem.c **** OS_EVENT  *OSSemCreate (INT16U cnt)
  97:..\..\..\..\..\..\Software\uCOS-II\Source/os_sem.c **** {
 107              		.loc 1 97 1 is_stmt 1 view -0
 108              		.cfi_startproc
 109              		@ args = 0, pretend = 0, frame = 0
 110              		@ frame_needed = 0, uses_anonymous_args = 0
 111              		.loc 1 97 1 is_stmt 0 view .LVU26
 112 0000 70B5     		push	{r4, r5, r6, lr}
 113              		.cfi_def_cfa_offset 16
 114              		.cfi_offset 4, -16
 115              		.cfi_offset 5, -12
 116              		.cfi_offset 6, -8
 117              		.cfi_offset 14, -4
 118 0002 0500     		movs	r5, r0
ARM GAS  C:\Users\EDULU~1.DES\AppData\Local\Temp\ccFs9KIj.s 			page 5


  98:..\..\..\..\..\..\Software\uCOS-II\Source/os_sem.c ****     OS_EVENT  *pevent;
 119              		.loc 1 98 5 is_stmt 1 view .LVU27
  99:..\..\..\..\..\..\Software\uCOS-II\Source/os_sem.c **** #if OS_CRITICAL_METHOD == 3u                               /* Allocate storage for CPU status regis
 100:..\..\..\..\..\..\Software\uCOS-II\Source/os_sem.c ****     OS_CPU_SR  cpu_sr = 0u;
 120              		.loc 1 100 5 view .LVU28
 121              	.LVL10:
 101:..\..\..\..\..\..\Software\uCOS-II\Source/os_sem.c **** #endif
 102:..\..\..\..\..\..\Software\uCOS-II\Source/os_sem.c **** 
 103:..\..\..\..\..\..\Software\uCOS-II\Source/os_sem.c **** 
 104:..\..\..\..\..\..\Software\uCOS-II\Source/os_sem.c **** 
 105:..\..\..\..\..\..\Software\uCOS-II\Source/os_sem.c **** #ifdef OS_SAFETY_CRITICAL_IEC61508
 106:..\..\..\..\..\..\Software\uCOS-II\Source/os_sem.c ****     if (OSSafetyCriticalStartFlag == OS_TRUE) {
 107:..\..\..\..\..\..\Software\uCOS-II\Source/os_sem.c ****         OS_SAFETY_CRITICAL_EXCEPTION();
 108:..\..\..\..\..\..\Software\uCOS-II\Source/os_sem.c ****         return ((OS_EVENT *)0);
 109:..\..\..\..\..\..\Software\uCOS-II\Source/os_sem.c ****     }
 110:..\..\..\..\..\..\Software\uCOS-II\Source/os_sem.c **** #endif
 111:..\..\..\..\..\..\Software\uCOS-II\Source/os_sem.c **** 
 112:..\..\..\..\..\..\Software\uCOS-II\Source/os_sem.c ****     if (OSIntNesting > 0u) {                               /* See if called from ISR ...           
 122              		.loc 1 112 5 view .LVU29
 123              		.loc 1 112 22 is_stmt 0 view .LVU30
 124 0004 0D4B     		ldr	r3, .L11
 125 0006 1B78     		ldrb	r3, [r3]
 126              		.loc 1 112 8 view .LVU31
 127 0008 002B     		cmp	r3, #0
 128 000a 15D1     		bne	.L10
 113:..\..\..\..\..\..\Software\uCOS-II\Source/os_sem.c ****         return ((OS_EVENT *)0);                            /* ... can't CREATE from an ISR         
 114:..\..\..\..\..\..\Software\uCOS-II\Source/os_sem.c ****     }
 115:..\..\..\..\..\..\Software\uCOS-II\Source/os_sem.c ****     OS_ENTER_CRITICAL();
 129              		.loc 1 115 5 is_stmt 1 view .LVU32
 130              		.loc 1 115 5 view .LVU33
 131 000c FFF7FEFF 		bl	OS_CPU_SR_Save
 132              	.LVL11:
 116:..\..\..\..\..\..\Software\uCOS-II\Source/os_sem.c ****     pevent = OSEventFreeList;                              /* Get next free event control block    
 133              		.loc 1 116 5 view .LVU34
 134              		.loc 1 116 12 is_stmt 0 view .LVU35
 135 0010 0B4B     		ldr	r3, .L11+4
 136 0012 1C68     		ldr	r4, [r3]
 137              	.LVL12:
 117:..\..\..\..\..\..\Software\uCOS-II\Source/os_sem.c ****     if (OSEventFreeList != (OS_EVENT *)0) {                /* See if pool of free ECB pool was empt
 138              		.loc 1 117 5 is_stmt 1 view .LVU36
 139              		.loc 1 117 8 is_stmt 0 view .LVU37
 140 0014 002C     		cmp	r4, #0
 141 0016 01D0     		beq	.L9
 118:..\..\..\..\..\..\Software\uCOS-II\Source/os_sem.c ****         OSEventFreeList = (OS_EVENT *)OSEventFreeList->OSEventPtr;
 142              		.loc 1 118 9 is_stmt 1 view .LVU38
 143              		.loc 1 118 25 is_stmt 0 view .LVU39
 144 0018 6268     		ldr	r2, [r4, #4]
 145 001a 1A60     		str	r2, [r3]
 146              	.L9:
 119:..\..\..\..\..\..\Software\uCOS-II\Source/os_sem.c ****     }
 120:..\..\..\..\..\..\Software\uCOS-II\Source/os_sem.c ****     OS_EXIT_CRITICAL();
 147              		.loc 1 120 5 is_stmt 1 view .LVU40
 148              		.loc 1 120 5 view .LVU41
 149 001c FFF7FEFF 		bl	OS_CPU_SR_Restore
 150              	.LVL13:
 121:..\..\..\..\..\..\Software\uCOS-II\Source/os_sem.c ****     if (pevent != (OS_EVENT *)0) {                         /* Get an event control block           
 151              		.loc 1 121 5 view .LVU42
ARM GAS  C:\Users\EDULU~1.DES\AppData\Local\Temp\ccFs9KIj.s 			page 6


 152              		.loc 1 121 8 is_stmt 0 view .LVU43
 153 0020 002C     		cmp	r4, #0
 154 0022 07D0     		beq	.L7
 122:..\..\..\..\..\..\Software\uCOS-II\Source/os_sem.c ****         pevent->OSEventType    = OS_EVENT_TYPE_SEM;
 155              		.loc 1 122 9 is_stmt 1 view .LVU44
 156              		.loc 1 122 32 is_stmt 0 view .LVU45
 157 0024 0323     		movs	r3, #3
 158 0026 2370     		strb	r3, [r4]
 123:..\..\..\..\..\..\Software\uCOS-II\Source/os_sem.c ****         pevent->OSEventCnt     = cnt;                      /* Set semaphore value                  
 159              		.loc 1 123 9 is_stmt 1 view .LVU46
 160              		.loc 1 123 32 is_stmt 0 view .LVU47
 161 0028 2581     		strh	r5, [r4, #8]
 124:..\..\..\..\..\..\Software\uCOS-II\Source/os_sem.c ****         pevent->OSEventPtr     = (void *)0;                /* Unlink from ECB free list            
 162              		.loc 1 124 9 is_stmt 1 view .LVU48
 163              		.loc 1 124 32 is_stmt 0 view .LVU49
 164 002a 0023     		movs	r3, #0
 165 002c 6360     		str	r3, [r4, #4]
 125:..\..\..\..\..\..\Software\uCOS-II\Source/os_sem.c **** #if OS_EVENT_NAME_EN > 0u
 126:..\..\..\..\..\..\Software\uCOS-II\Source/os_sem.c ****         pevent->OSEventName    = (INT8U *)(void *)"?";
 127:..\..\..\..\..\..\Software\uCOS-II\Source/os_sem.c **** #endif
 128:..\..\..\..\..\..\Software\uCOS-II\Source/os_sem.c ****         OS_EventWaitListInit(pevent);                      /* Initialize to 'nobody waiting' on sem
 166              		.loc 1 128 9 is_stmt 1 view .LVU50
 167 002e 2000     		movs	r0, r4
 168 0030 FFF7FEFF 		bl	OS_EventWaitListInit
 169              	.LVL14:
 170              	.L7:
 129:..\..\..\..\..\..\Software\uCOS-II\Source/os_sem.c ****     }
 130:..\..\..\..\..\..\Software\uCOS-II\Source/os_sem.c ****     return (pevent);
 131:..\..\..\..\..\..\Software\uCOS-II\Source/os_sem.c **** }
 171              		.loc 1 131 1 is_stmt 0 view .LVU51
 172 0034 2000     		movs	r0, r4
 173              		@ sp needed
 174 0036 70BD     		pop	{r4, r5, r6, pc}
 175              	.LVL15:
 176              	.L10:
 113:..\..\..\..\..\..\Software\uCOS-II\Source/os_sem.c ****     }
 177              		.loc 1 113 16 view .LVU52
 178 0038 0024     		movs	r4, #0
 179 003a FBE7     		b	.L7
 180              	.L12:
 181              		.align	2
 182              	.L11:
 183 003c 00000000 		.word	OSIntNesting
 184 0040 00000000 		.word	OSEventFreeList
 185              		.cfi_endproc
 186              	.LFE4:
 187              		.size	OSSemCreate, .-OSSemCreate
 188              		.section	.text.OSSemDel,"ax",%progbits
 189              		.align	1
 190              		.global	OSSemDel
 191              		.syntax unified
 192              		.code	16
 193              		.thumb_func
 194              		.fpu softvfp
 195              		.type	OSSemDel, %function
 196              	OSSemDel:
 197              	.LVL16:
ARM GAS  C:\Users\EDULU~1.DES\AppData\Local\Temp\ccFs9KIj.s 			page 7


 198              	.LFB5:
 132:..\..\..\..\..\..\Software\uCOS-II\Source/os_sem.c **** 
 133:..\..\..\..\..\..\Software\uCOS-II\Source/os_sem.c **** /*$PAGE*/
 134:..\..\..\..\..\..\Software\uCOS-II\Source/os_sem.c **** /*
 135:..\..\..\..\..\..\Software\uCOS-II\Source/os_sem.c **** ***************************************************************************************************
 136:..\..\..\..\..\..\Software\uCOS-II\Source/os_sem.c **** *                                         DELETE A SEMAPHORE
 137:..\..\..\..\..\..\Software\uCOS-II\Source/os_sem.c **** *
 138:..\..\..\..\..\..\Software\uCOS-II\Source/os_sem.c **** * Description: This function deletes a semaphore and readies all tasks pending on the semaphore.
 139:..\..\..\..\..\..\Software\uCOS-II\Source/os_sem.c **** *
 140:..\..\..\..\..\..\Software\uCOS-II\Source/os_sem.c **** * Arguments  : pevent        is a pointer to the event control block associated with the desired
 141:..\..\..\..\..\..\Software\uCOS-II\Source/os_sem.c **** *                            semaphore.
 142:..\..\..\..\..\..\Software\uCOS-II\Source/os_sem.c **** *
 143:..\..\..\..\..\..\Software\uCOS-II\Source/os_sem.c **** *              opt           determines delete options as follows:
 144:..\..\..\..\..\..\Software\uCOS-II\Source/os_sem.c **** *                            opt == OS_DEL_NO_PEND   Delete semaphore ONLY if no task pending
 145:..\..\..\..\..\..\Software\uCOS-II\Source/os_sem.c **** *                            opt == OS_DEL_ALWAYS    Deletes the semaphore even if tasks are waitin
 146:..\..\..\..\..\..\Software\uCOS-II\Source/os_sem.c **** *                                                    In this case, all the tasks pending will be re
 147:..\..\..\..\..\..\Software\uCOS-II\Source/os_sem.c **** *
 148:..\..\..\..\..\..\Software\uCOS-II\Source/os_sem.c **** *              perr          is a pointer to an error code that can contain one of the following va
 149:..\..\..\..\..\..\Software\uCOS-II\Source/os_sem.c **** *                            OS_ERR_NONE             The call was successful and the semaphore was 
 150:..\..\..\..\..\..\Software\uCOS-II\Source/os_sem.c **** *                            OS_ERR_DEL_ISR          If you attempted to delete the semaphore from 
 151:..\..\..\..\..\..\Software\uCOS-II\Source/os_sem.c **** *                            OS_ERR_INVALID_OPT      An invalid option was specified
 152:..\..\..\..\..\..\Software\uCOS-II\Source/os_sem.c **** *                            OS_ERR_TASK_WAITING     One or more tasks were waiting on the semaphor
 153:..\..\..\..\..\..\Software\uCOS-II\Source/os_sem.c **** *                            OS_ERR_EVENT_TYPE       If you didn't pass a pointer to a semaphore
 154:..\..\..\..\..\..\Software\uCOS-II\Source/os_sem.c **** *                            OS_ERR_PEVENT_NULL      If 'pevent' is a NULL pointer.
 155:..\..\..\..\..\..\Software\uCOS-II\Source/os_sem.c **** *
 156:..\..\..\..\..\..\Software\uCOS-II\Source/os_sem.c **** * Returns    : pevent        upon error
 157:..\..\..\..\..\..\Software\uCOS-II\Source/os_sem.c **** *              (OS_EVENT *)0 if the semaphore was successfully deleted.
 158:..\..\..\..\..\..\Software\uCOS-II\Source/os_sem.c **** *
 159:..\..\..\..\..\..\Software\uCOS-II\Source/os_sem.c **** * Note(s)    : 1) This function must be used with care.  Tasks that would normally expect the prese
 160:..\..\..\..\..\..\Software\uCOS-II\Source/os_sem.c **** *                 the semaphore MUST check the return code of OSSemPend().
 161:..\..\..\..\..\..\Software\uCOS-II\Source/os_sem.c **** *              2) OSSemAccept() callers will not know that the intended semaphore has been deleted 
 162:..\..\..\..\..\..\Software\uCOS-II\Source/os_sem.c **** *                 they check 'pevent' to see that it's a NULL pointer.
 163:..\..\..\..\..\..\Software\uCOS-II\Source/os_sem.c **** *              3) This call can potentially disable interrupts for a long time.  The interrupt disa
 164:..\..\..\..\..\..\Software\uCOS-II\Source/os_sem.c **** *                 time is directly proportional to the number of tasks waiting on the semaphore.
 165:..\..\..\..\..\..\Software\uCOS-II\Source/os_sem.c **** *              4) Because ALL tasks pending on the semaphore will be readied, you MUST be careful i
 166:..\..\..\..\..\..\Software\uCOS-II\Source/os_sem.c **** *                 applications where the semaphore is used for mutual exclusion because the resourc
 167:..\..\..\..\..\..\Software\uCOS-II\Source/os_sem.c **** *                 will no longer be guarded by the semaphore.
 168:..\..\..\..\..\..\Software\uCOS-II\Source/os_sem.c **** *              5) All tasks that were waiting for the semaphore will be readied and returned an 
 169:..\..\..\..\..\..\Software\uCOS-II\Source/os_sem.c **** *                 OS_ERR_PEND_ABORT if OSSemDel() was called with OS_DEL_ALWAYS
 170:..\..\..\..\..\..\Software\uCOS-II\Source/os_sem.c **** ***************************************************************************************************
 171:..\..\..\..\..\..\Software\uCOS-II\Source/os_sem.c **** */
 172:..\..\..\..\..\..\Software\uCOS-II\Source/os_sem.c **** 
 173:..\..\..\..\..\..\Software\uCOS-II\Source/os_sem.c **** #if OS_SEM_DEL_EN > 0u
 174:..\..\..\..\..\..\Software\uCOS-II\Source/os_sem.c **** OS_EVENT  *OSSemDel (OS_EVENT  *pevent,
 175:..\..\..\..\..\..\Software\uCOS-II\Source/os_sem.c ****                      INT8U      opt,
 176:..\..\..\..\..\..\Software\uCOS-II\Source/os_sem.c ****                      INT8U     *perr)
 177:..\..\..\..\..\..\Software\uCOS-II\Source/os_sem.c **** {
 199              		.loc 1 177 1 is_stmt 1 view -0
 200              		.cfi_startproc
 201              		@ args = 0, pretend = 0, frame = 8
 202              		@ frame_needed = 0, uses_anonymous_args = 0
 203              		.loc 1 177 1 is_stmt 0 view .LVU54
 204 0000 F0B5     		push	{r4, r5, r6, r7, lr}
 205              		.cfi_def_cfa_offset 20
 206              		.cfi_offset 4, -20
 207              		.cfi_offset 5, -16
 208              		.cfi_offset 6, -12
ARM GAS  C:\Users\EDULU~1.DES\AppData\Local\Temp\ccFs9KIj.s 			page 8


 209              		.cfi_offset 7, -8
 210              		.cfi_offset 14, -4
 211 0002 83B0     		sub	sp, sp, #12
 212              		.cfi_def_cfa_offset 32
 213 0004 0400     		movs	r4, r0
 214 0006 0E00     		movs	r6, r1
 215 0008 1500     		movs	r5, r2
 178:..\..\..\..\..\..\Software\uCOS-II\Source/os_sem.c ****     BOOLEAN    tasks_waiting;
 216              		.loc 1 178 5 is_stmt 1 view .LVU55
 179:..\..\..\..\..\..\Software\uCOS-II\Source/os_sem.c ****     OS_EVENT  *pevent_return;
 217              		.loc 1 179 5 view .LVU56
 180:..\..\..\..\..\..\Software\uCOS-II\Source/os_sem.c **** #if OS_CRITICAL_METHOD == 3u                               /* Allocate storage for CPU status regis
 181:..\..\..\..\..\..\Software\uCOS-II\Source/os_sem.c ****     OS_CPU_SR  cpu_sr = 0u;
 218              		.loc 1 181 5 view .LVU57
 219              	.LVL17:
 182:..\..\..\..\..\..\Software\uCOS-II\Source/os_sem.c **** #endif
 183:..\..\..\..\..\..\Software\uCOS-II\Source/os_sem.c **** 
 184:..\..\..\..\..\..\Software\uCOS-II\Source/os_sem.c **** 
 185:..\..\..\..\..\..\Software\uCOS-II\Source/os_sem.c **** 
 186:..\..\..\..\..\..\Software\uCOS-II\Source/os_sem.c **** #ifdef OS_SAFETY_CRITICAL
 187:..\..\..\..\..\..\Software\uCOS-II\Source/os_sem.c ****     if (perr == (INT8U *)0) {
 188:..\..\..\..\..\..\Software\uCOS-II\Source/os_sem.c ****         OS_SAFETY_CRITICAL_EXCEPTION();
 189:..\..\..\..\..\..\Software\uCOS-II\Source/os_sem.c ****         return ((OS_EVENT *)0);
 190:..\..\..\..\..\..\Software\uCOS-II\Source/os_sem.c ****     }
 191:..\..\..\..\..\..\Software\uCOS-II\Source/os_sem.c **** #endif
 192:..\..\..\..\..\..\Software\uCOS-II\Source/os_sem.c **** 
 193:..\..\..\..\..\..\Software\uCOS-II\Source/os_sem.c **** #if OS_ARG_CHK_EN > 0u
 194:..\..\..\..\..\..\Software\uCOS-II\Source/os_sem.c ****     if (pevent == (OS_EVENT *)0) {                         /* Validate 'pevent'                    
 220              		.loc 1 194 5 view .LVU58
 221              		.loc 1 194 8 is_stmt 0 view .LVU59
 222 000a 0028     		cmp	r0, #0
 223 000c 06D0     		beq	.L27
 195:..\..\..\..\..\..\Software\uCOS-II\Source/os_sem.c ****         *perr = OS_ERR_PEVENT_NULL;
 196:..\..\..\..\..\..\Software\uCOS-II\Source/os_sem.c ****         return (pevent);
 197:..\..\..\..\..\..\Software\uCOS-II\Source/os_sem.c ****     }
 198:..\..\..\..\..\..\Software\uCOS-II\Source/os_sem.c **** #endif
 199:..\..\..\..\..\..\Software\uCOS-II\Source/os_sem.c ****     if (pevent->OSEventType != OS_EVENT_TYPE_SEM) {        /* Validate event block type            
 224              		.loc 1 199 5 is_stmt 1 view .LVU60
 225              		.loc 1 199 15 is_stmt 0 view .LVU61
 226 000e 0378     		ldrb	r3, [r0]
 227              		.loc 1 199 8 view .LVU62
 228 0010 032B     		cmp	r3, #3
 229 0012 06D0     		beq	.L16
 200:..\..\..\..\..\..\Software\uCOS-II\Source/os_sem.c ****         *perr = OS_ERR_EVENT_TYPE;
 230              		.loc 1 200 9 is_stmt 1 view .LVU63
 231              		.loc 1 200 15 is_stmt 0 view .LVU64
 232 0014 0123     		movs	r3, #1
 233 0016 1370     		strb	r3, [r2]
 201:..\..\..\..\..\..\Software\uCOS-II\Source/os_sem.c ****         return (pevent);
 234              		.loc 1 201 9 is_stmt 1 view .LVU65
 235              	.LVL18:
 236              	.L13:
 202:..\..\..\..\..\..\Software\uCOS-II\Source/os_sem.c ****     }
 203:..\..\..\..\..\..\Software\uCOS-II\Source/os_sem.c ****     if (OSIntNesting > 0u) {                               /* See if called from ISR ...           
 204:..\..\..\..\..\..\Software\uCOS-II\Source/os_sem.c ****         *perr = OS_ERR_DEL_ISR;                            /* ... can't DELETE from an ISR         
 205:..\..\..\..\..\..\Software\uCOS-II\Source/os_sem.c ****         return (pevent);
 206:..\..\..\..\..\..\Software\uCOS-II\Source/os_sem.c ****     }
ARM GAS  C:\Users\EDULU~1.DES\AppData\Local\Temp\ccFs9KIj.s 			page 9


 207:..\..\..\..\..\..\Software\uCOS-II\Source/os_sem.c ****     OS_ENTER_CRITICAL();
 208:..\..\..\..\..\..\Software\uCOS-II\Source/os_sem.c ****     if (pevent->OSEventGrp != 0u) {                        /* See if any tasks waiting on semaphore
 209:..\..\..\..\..\..\Software\uCOS-II\Source/os_sem.c ****         tasks_waiting = OS_TRUE;                           /* Yes                                  
 210:..\..\..\..\..\..\Software\uCOS-II\Source/os_sem.c ****     } else {
 211:..\..\..\..\..\..\Software\uCOS-II\Source/os_sem.c ****         tasks_waiting = OS_FALSE;                          /* No                                   
 212:..\..\..\..\..\..\Software\uCOS-II\Source/os_sem.c ****     }
 213:..\..\..\..\..\..\Software\uCOS-II\Source/os_sem.c ****     switch (opt) {
 214:..\..\..\..\..\..\Software\uCOS-II\Source/os_sem.c ****         case OS_DEL_NO_PEND:                               /* Delete semaphore only if no task wait
 215:..\..\..\..\..\..\Software\uCOS-II\Source/os_sem.c ****              if (tasks_waiting == OS_FALSE) {
 216:..\..\..\..\..\..\Software\uCOS-II\Source/os_sem.c **** #if OS_EVENT_NAME_EN > 0u
 217:..\..\..\..\..\..\Software\uCOS-II\Source/os_sem.c ****                  pevent->OSEventName    = (INT8U *)(void *)"?";
 218:..\..\..\..\..\..\Software\uCOS-II\Source/os_sem.c **** #endif
 219:..\..\..\..\..\..\Software\uCOS-II\Source/os_sem.c ****                  pevent->OSEventType    = OS_EVENT_TYPE_UNUSED;
 220:..\..\..\..\..\..\Software\uCOS-II\Source/os_sem.c ****                  pevent->OSEventPtr     = OSEventFreeList; /* Return Event Control Block to free li
 221:..\..\..\..\..\..\Software\uCOS-II\Source/os_sem.c ****                  pevent->OSEventCnt     = 0u;
 222:..\..\..\..\..\..\Software\uCOS-II\Source/os_sem.c ****                  OSEventFreeList        = pevent;          /* Get next free event control block    
 223:..\..\..\..\..\..\Software\uCOS-II\Source/os_sem.c ****                  OS_EXIT_CRITICAL();
 224:..\..\..\..\..\..\Software\uCOS-II\Source/os_sem.c ****                  *perr                  = OS_ERR_NONE;
 225:..\..\..\..\..\..\Software\uCOS-II\Source/os_sem.c ****                  pevent_return          = (OS_EVENT *)0;   /* Semaphore has been deleted           
 226:..\..\..\..\..\..\Software\uCOS-II\Source/os_sem.c ****              } else {
 227:..\..\..\..\..\..\Software\uCOS-II\Source/os_sem.c ****                  OS_EXIT_CRITICAL();
 228:..\..\..\..\..\..\Software\uCOS-II\Source/os_sem.c ****                  *perr                  = OS_ERR_TASK_WAITING;
 229:..\..\..\..\..\..\Software\uCOS-II\Source/os_sem.c ****                  pevent_return          = pevent;
 230:..\..\..\..\..\..\Software\uCOS-II\Source/os_sem.c ****              }
 231:..\..\..\..\..\..\Software\uCOS-II\Source/os_sem.c ****              break;
 232:..\..\..\..\..\..\Software\uCOS-II\Source/os_sem.c **** 
 233:..\..\..\..\..\..\Software\uCOS-II\Source/os_sem.c ****         case OS_DEL_ALWAYS:                                /* Always delete the semaphore          
 234:..\..\..\..\..\..\Software\uCOS-II\Source/os_sem.c ****              while (pevent->OSEventGrp != 0u) {            /* Ready ALL tasks waiting for semaphore
 235:..\..\..\..\..\..\Software\uCOS-II\Source/os_sem.c ****                  (void)OS_EventTaskRdy(pevent, (void *)0, OS_STAT_SEM, OS_STAT_PEND_ABORT);
 236:..\..\..\..\..\..\Software\uCOS-II\Source/os_sem.c ****              }
 237:..\..\..\..\..\..\Software\uCOS-II\Source/os_sem.c **** #if OS_EVENT_NAME_EN > 0u
 238:..\..\..\..\..\..\Software\uCOS-II\Source/os_sem.c ****              pevent->OSEventName    = (INT8U *)(void *)"?";
 239:..\..\..\..\..\..\Software\uCOS-II\Source/os_sem.c **** #endif
 240:..\..\..\..\..\..\Software\uCOS-II\Source/os_sem.c ****              pevent->OSEventType    = OS_EVENT_TYPE_UNUSED;
 241:..\..\..\..\..\..\Software\uCOS-II\Source/os_sem.c ****              pevent->OSEventPtr     = OSEventFreeList;     /* Return Event Control Block to free li
 242:..\..\..\..\..\..\Software\uCOS-II\Source/os_sem.c ****              pevent->OSEventCnt     = 0u;
 243:..\..\..\..\..\..\Software\uCOS-II\Source/os_sem.c ****              OSEventFreeList        = pevent;              /* Get next free event control block    
 244:..\..\..\..\..\..\Software\uCOS-II\Source/os_sem.c ****              OS_EXIT_CRITICAL();
 245:..\..\..\..\..\..\Software\uCOS-II\Source/os_sem.c ****              if (tasks_waiting == OS_TRUE) {               /* Reschedule only if task(s) were waiti
 246:..\..\..\..\..\..\Software\uCOS-II\Source/os_sem.c ****                  OS_Sched();                               /* Find highest priority task ready to r
 247:..\..\..\..\..\..\Software\uCOS-II\Source/os_sem.c ****              }
 248:..\..\..\..\..\..\Software\uCOS-II\Source/os_sem.c ****              *perr                  = OS_ERR_NONE;
 249:..\..\..\..\..\..\Software\uCOS-II\Source/os_sem.c ****              pevent_return          = (OS_EVENT *)0;       /* Semaphore has been deleted           
 250:..\..\..\..\..\..\Software\uCOS-II\Source/os_sem.c ****              break;
 251:..\..\..\..\..\..\Software\uCOS-II\Source/os_sem.c **** 
 252:..\..\..\..\..\..\Software\uCOS-II\Source/os_sem.c ****         default:
 253:..\..\..\..\..\..\Software\uCOS-II\Source/os_sem.c ****              OS_EXIT_CRITICAL();
 254:..\..\..\..\..\..\Software\uCOS-II\Source/os_sem.c ****              *perr                  = OS_ERR_INVALID_OPT;
 255:..\..\..\..\..\..\Software\uCOS-II\Source/os_sem.c ****              pevent_return          = pevent;
 256:..\..\..\..\..\..\Software\uCOS-II\Source/os_sem.c ****              break;
 257:..\..\..\..\..\..\Software\uCOS-II\Source/os_sem.c ****     }
 258:..\..\..\..\..\..\Software\uCOS-II\Source/os_sem.c ****     return (pevent_return);
 259:..\..\..\..\..\..\Software\uCOS-II\Source/os_sem.c **** }
 237              		.loc 1 259 1 is_stmt 0 view .LVU66
 238 0018 03B0     		add	sp, sp, #12
 239              		@ sp needed
 240              	.LVL19:
ARM GAS  C:\Users\EDULU~1.DES\AppData\Local\Temp\ccFs9KIj.s 			page 10


 241              	.LVL20:
 242              		.loc 1 259 1 view .LVU67
 243 001a F0BD     		pop	{r4, r5, r6, r7, pc}
 244              	.LVL21:
 245              	.L27:
 195:..\..\..\..\..\..\Software\uCOS-II\Source/os_sem.c ****         return (pevent);
 246              		.loc 1 195 9 is_stmt 1 view .LVU68
 195:..\..\..\..\..\..\Software\uCOS-II\Source/os_sem.c ****         return (pevent);
 247              		.loc 1 195 15 is_stmt 0 view .LVU69
 248 001c 0423     		movs	r3, #4
 249 001e 1370     		strb	r3, [r2]
 196:..\..\..\..\..\..\Software\uCOS-II\Source/os_sem.c ****     }
 250              		.loc 1 196 9 is_stmt 1 view .LVU70
 196:..\..\..\..\..\..\Software\uCOS-II\Source/os_sem.c ****     }
 251              		.loc 1 196 16 is_stmt 0 view .LVU71
 252 0020 FAE7     		b	.L13
 253              	.L16:
 203:..\..\..\..\..\..\Software\uCOS-II\Source/os_sem.c ****         *perr = OS_ERR_DEL_ISR;                            /* ... can't DELETE from an ISR         
 254              		.loc 1 203 5 is_stmt 1 view .LVU72
 203:..\..\..\..\..\..\Software\uCOS-II\Source/os_sem.c ****         *perr = OS_ERR_DEL_ISR;                            /* ... can't DELETE from an ISR         
 255              		.loc 1 203 22 is_stmt 0 view .LVU73
 256 0022 274B     		ldr	r3, .L30
 257 0024 1B78     		ldrb	r3, [r3]
 203:..\..\..\..\..\..\Software\uCOS-II\Source/os_sem.c ****         *perr = OS_ERR_DEL_ISR;                            /* ... can't DELETE from an ISR         
 258              		.loc 1 203 8 view .LVU74
 259 0026 002B     		cmp	r3, #0
 260 0028 02D0     		beq	.L17
 204:..\..\..\..\..\..\Software\uCOS-II\Source/os_sem.c ****         return (pevent);
 261              		.loc 1 204 9 is_stmt 1 view .LVU75
 204:..\..\..\..\..\..\Software\uCOS-II\Source/os_sem.c ****         return (pevent);
 262              		.loc 1 204 15 is_stmt 0 view .LVU76
 263 002a 0F23     		movs	r3, #15
 264 002c 1370     		strb	r3, [r2]
 205:..\..\..\..\..\..\Software\uCOS-II\Source/os_sem.c ****     }
 265              		.loc 1 205 9 is_stmt 1 view .LVU77
 205:..\..\..\..\..\..\Software\uCOS-II\Source/os_sem.c ****     }
 266              		.loc 1 205 16 is_stmt 0 view .LVU78
 267 002e F3E7     		b	.L13
 268              	.L17:
 207:..\..\..\..\..\..\Software\uCOS-II\Source/os_sem.c ****     if (pevent->OSEventGrp != 0u) {                        /* See if any tasks waiting on semaphore
 269              		.loc 1 207 5 is_stmt 1 view .LVU79
 207:..\..\..\..\..\..\Software\uCOS-II\Source/os_sem.c ****     if (pevent->OSEventGrp != 0u) {                        /* See if any tasks waiting on semaphore
 270              		.loc 1 207 5 view .LVU80
 271 0030 FFF7FEFF 		bl	OS_CPU_SR_Save
 272              	.LVL22:
 207:..\..\..\..\..\..\Software\uCOS-II\Source/os_sem.c ****     if (pevent->OSEventGrp != 0u) {                        /* See if any tasks waiting on semaphore
 273              		.loc 1 207 5 is_stmt 0 view .LVU81
 274 0034 0190     		str	r0, [sp, #4]
 275              	.LVL23:
 208:..\..\..\..\..\..\Software\uCOS-II\Source/os_sem.c ****         tasks_waiting = OS_TRUE;                           /* Yes                                  
 276              		.loc 1 208 5 is_stmt 1 view .LVU82
 208:..\..\..\..\..\..\Software\uCOS-II\Source/os_sem.c ****         tasks_waiting = OS_TRUE;                           /* Yes                                  
 277              		.loc 1 208 15 is_stmt 0 view .LVU83
 278 0036 A37A     		ldrb	r3, [r4, #10]
 208:..\..\..\..\..\..\Software\uCOS-II\Source/os_sem.c ****         tasks_waiting = OS_TRUE;                           /* Yes                                  
 279              		.loc 1 208 8 view .LVU84
 280 0038 002B     		cmp	r3, #0
ARM GAS  C:\Users\EDULU~1.DES\AppData\Local\Temp\ccFs9KIj.s 			page 11


 281 003a 0BD0     		beq	.L25
 209:..\..\..\..\..\..\Software\uCOS-II\Source/os_sem.c ****     } else {
 282              		.loc 1 209 23 view .LVU85
 283 003c 0127     		movs	r7, #1
 284              	.L18:
 285              	.LVL24:
 213:..\..\..\..\..\..\Software\uCOS-II\Source/os_sem.c ****         case OS_DEL_NO_PEND:                               /* Delete semaphore only if no task wait
 286              		.loc 1 213 5 is_stmt 1 view .LVU86
 287 003e 002E     		cmp	r6, #0
 288 0040 0AD0     		beq	.L19
 289 0042 012E     		cmp	r6, #1
 290 0044 25D0     		beq	.L20
 253:..\..\..\..\..\..\Software\uCOS-II\Source/os_sem.c ****              *perr                  = OS_ERR_INVALID_OPT;
 291              		.loc 1 253 14 view .LVU87
 253:..\..\..\..\..\..\Software\uCOS-II\Source/os_sem.c ****              *perr                  = OS_ERR_INVALID_OPT;
 292              		.loc 1 253 14 view .LVU88
 293 0046 0198     		ldr	r0, [sp, #4]
 294              	.LVL25:
 253:..\..\..\..\..\..\Software\uCOS-II\Source/os_sem.c ****              *perr                  = OS_ERR_INVALID_OPT;
 295              		.loc 1 253 14 is_stmt 0 view .LVU89
 296 0048 FFF7FEFF 		bl	OS_CPU_SR_Restore
 297              	.LVL26:
 254:..\..\..\..\..\..\Software\uCOS-II\Source/os_sem.c ****              pevent_return          = pevent;
 298              		.loc 1 254 14 is_stmt 1 view .LVU90
 254:..\..\..\..\..\..\Software\uCOS-II\Source/os_sem.c ****              pevent_return          = pevent;
 299              		.loc 1 254 37 is_stmt 0 view .LVU91
 300 004c 0723     		movs	r3, #7
 301 004e 2B70     		strb	r3, [r5]
 255:..\..\..\..\..\..\Software\uCOS-II\Source/os_sem.c ****              break;
 302              		.loc 1 255 14 is_stmt 1 view .LVU92
 303              	.LVL27:
 256:..\..\..\..\..\..\Software\uCOS-II\Source/os_sem.c ****     }
 304              		.loc 1 256 14 view .LVU93
 255:..\..\..\..\..\..\Software\uCOS-II\Source/os_sem.c ****              break;
 305              		.loc 1 255 37 is_stmt 0 view .LVU94
 306 0050 2000     		movs	r0, r4
 256:..\..\..\..\..\..\Software\uCOS-II\Source/os_sem.c ****     }
 307              		.loc 1 256 14 view .LVU95
 308 0052 E1E7     		b	.L13
 309              	.LVL28:
 310              	.L25:
 211:..\..\..\..\..\..\Software\uCOS-II\Source/os_sem.c ****     }
 311              		.loc 1 211 23 view .LVU96
 312 0054 0027     		movs	r7, #0
 313 0056 F2E7     		b	.L18
 314              	.LVL29:
 315              	.L19:
 215:..\..\..\..\..\..\Software\uCOS-II\Source/os_sem.c **** #if OS_EVENT_NAME_EN > 0u
 316              		.loc 1 215 14 is_stmt 1 view .LVU97
 215:..\..\..\..\..\..\Software\uCOS-II\Source/os_sem.c **** #if OS_EVENT_NAME_EN > 0u
 317              		.loc 1 215 17 is_stmt 0 view .LVU98
 318 0058 002F     		cmp	r7, #0
 319 005a 06D0     		beq	.L28
 227:..\..\..\..\..\..\Software\uCOS-II\Source/os_sem.c ****                  *perr                  = OS_ERR_TASK_WAITING;
 320              		.loc 1 227 18 is_stmt 1 view .LVU99
 227:..\..\..\..\..\..\Software\uCOS-II\Source/os_sem.c ****                  *perr                  = OS_ERR_TASK_WAITING;
 321              		.loc 1 227 18 view .LVU100
ARM GAS  C:\Users\EDULU~1.DES\AppData\Local\Temp\ccFs9KIj.s 			page 12


 322 005c 0198     		ldr	r0, [sp, #4]
 323              	.LVL30:
 227:..\..\..\..\..\..\Software\uCOS-II\Source/os_sem.c ****                  *perr                  = OS_ERR_TASK_WAITING;
 324              		.loc 1 227 18 is_stmt 0 view .LVU101
 325 005e FFF7FEFF 		bl	OS_CPU_SR_Restore
 326              	.LVL31:
 228:..\..\..\..\..\..\Software\uCOS-II\Source/os_sem.c ****                  pevent_return          = pevent;
 327              		.loc 1 228 18 is_stmt 1 view .LVU102
 228:..\..\..\..\..\..\Software\uCOS-II\Source/os_sem.c ****                  pevent_return          = pevent;
 328              		.loc 1 228 41 is_stmt 0 view .LVU103
 329 0062 4923     		movs	r3, #73
 330 0064 2B70     		strb	r3, [r5]
 229:..\..\..\..\..\..\Software\uCOS-II\Source/os_sem.c ****              }
 331              		.loc 1 229 18 is_stmt 1 view .LVU104
 332              	.LVL32:
 229:..\..\..\..\..\..\Software\uCOS-II\Source/os_sem.c ****              }
 333              		.loc 1 229 41 is_stmt 0 view .LVU105
 334 0066 2000     		movs	r0, r4
 335 0068 D6E7     		b	.L13
 336              	.LVL33:
 337              	.L28:
 219:..\..\..\..\..\..\Software\uCOS-II\Source/os_sem.c ****                  pevent->OSEventPtr     = OSEventFreeList; /* Return Event Control Block to free li
 338              		.loc 1 219 18 is_stmt 1 view .LVU106
 219:..\..\..\..\..\..\Software\uCOS-II\Source/os_sem.c ****                  pevent->OSEventPtr     = OSEventFreeList; /* Return Event Control Block to free li
 339              		.loc 1 219 41 is_stmt 0 view .LVU107
 340 006a 0022     		movs	r2, #0
 341 006c 2270     		strb	r2, [r4]
 220:..\..\..\..\..\..\Software\uCOS-II\Source/os_sem.c ****                  pevent->OSEventCnt     = 0u;
 342              		.loc 1 220 18 is_stmt 1 view .LVU108
 220:..\..\..\..\..\..\Software\uCOS-II\Source/os_sem.c ****                  pevent->OSEventCnt     = 0u;
 343              		.loc 1 220 41 is_stmt 0 view .LVU109
 344 006e 154B     		ldr	r3, .L30+4
 345 0070 1968     		ldr	r1, [r3]
 346 0072 6160     		str	r1, [r4, #4]
 221:..\..\..\..\..\..\Software\uCOS-II\Source/os_sem.c ****                  OSEventFreeList        = pevent;          /* Get next free event control block    
 347              		.loc 1 221 18 is_stmt 1 view .LVU110
 221:..\..\..\..\..\..\Software\uCOS-II\Source/os_sem.c ****                  OSEventFreeList        = pevent;          /* Get next free event control block    
 348              		.loc 1 221 41 is_stmt 0 view .LVU111
 349 0074 2281     		strh	r2, [r4, #8]
 222:..\..\..\..\..\..\Software\uCOS-II\Source/os_sem.c ****                  OS_EXIT_CRITICAL();
 350              		.loc 1 222 18 is_stmt 1 view .LVU112
 222:..\..\..\..\..\..\Software\uCOS-II\Source/os_sem.c ****                  OS_EXIT_CRITICAL();
 351              		.loc 1 222 41 is_stmt 0 view .LVU113
 352 0076 1C60     		str	r4, [r3]
 223:..\..\..\..\..\..\Software\uCOS-II\Source/os_sem.c ****                  *perr                  = OS_ERR_NONE;
 353              		.loc 1 223 18 is_stmt 1 view .LVU114
 223:..\..\..\..\..\..\Software\uCOS-II\Source/os_sem.c ****                  *perr                  = OS_ERR_NONE;
 354              		.loc 1 223 18 view .LVU115
 355 0078 0198     		ldr	r0, [sp, #4]
 356              	.LVL34:
 223:..\..\..\..\..\..\Software\uCOS-II\Source/os_sem.c ****                  *perr                  = OS_ERR_NONE;
 357              		.loc 1 223 18 is_stmt 0 view .LVU116
 358 007a FFF7FEFF 		bl	OS_CPU_SR_Restore
 359              	.LVL35:
 224:..\..\..\..\..\..\Software\uCOS-II\Source/os_sem.c ****                  pevent_return          = (OS_EVENT *)0;   /* Semaphore has been deleted           
 360              		.loc 1 224 18 is_stmt 1 view .LVU117
 224:..\..\..\..\..\..\Software\uCOS-II\Source/os_sem.c ****                  pevent_return          = (OS_EVENT *)0;   /* Semaphore has been deleted           
ARM GAS  C:\Users\EDULU~1.DES\AppData\Local\Temp\ccFs9KIj.s 			page 13


 361              		.loc 1 224 41 is_stmt 0 view .LVU118
 362 007e 0023     		movs	r3, #0
 363 0080 2B70     		strb	r3, [r5]
 225:..\..\..\..\..\..\Software\uCOS-II\Source/os_sem.c ****              } else {
 364              		.loc 1 225 18 is_stmt 1 view .LVU119
 365              	.LVL36:
 225:..\..\..\..\..\..\Software\uCOS-II\Source/os_sem.c ****              } else {
 366              		.loc 1 225 41 is_stmt 0 view .LVU120
 367 0082 0020     		movs	r0, #0
 368 0084 C8E7     		b	.L13
 369              	.LVL37:
 370              	.L23:
 235:..\..\..\..\..\..\Software\uCOS-II\Source/os_sem.c ****              }
 371              		.loc 1 235 18 is_stmt 1 view .LVU121
 235:..\..\..\..\..\..\Software\uCOS-II\Source/os_sem.c ****              }
 372              		.loc 1 235 24 is_stmt 0 view .LVU122
 373 0086 0223     		movs	r3, #2
 374 0088 0122     		movs	r2, #1
 375 008a 0021     		movs	r1, #0
 376 008c 2000     		movs	r0, r4
 377 008e FFF7FEFF 		bl	OS_EventTaskRdy
 378              	.LVL38:
 379              	.L20:
 234:..\..\..\..\..\..\Software\uCOS-II\Source/os_sem.c ****                  (void)OS_EventTaskRdy(pevent, (void *)0, OS_STAT_SEM, OS_STAT_PEND_ABORT);
 380              		.loc 1 234 27 view .LVU123
 381 0092 A37A     		ldrb	r3, [r4, #10]
 234:..\..\..\..\..\..\Software\uCOS-II\Source/os_sem.c ****                  (void)OS_EventTaskRdy(pevent, (void *)0, OS_STAT_SEM, OS_STAT_PEND_ABORT);
 382              		.loc 1 234 20 view .LVU124
 383 0094 002B     		cmp	r3, #0
 384 0096 F6D1     		bne	.L23
 240:..\..\..\..\..\..\Software\uCOS-II\Source/os_sem.c ****              pevent->OSEventPtr     = OSEventFreeList;     /* Return Event Control Block to free li
 385              		.loc 1 240 14 is_stmt 1 view .LVU125
 240:..\..\..\..\..\..\Software\uCOS-II\Source/os_sem.c ****              pevent->OSEventPtr     = OSEventFreeList;     /* Return Event Control Block to free li
 386              		.loc 1 240 37 is_stmt 0 view .LVU126
 387 0098 0022     		movs	r2, #0
 388 009a 2270     		strb	r2, [r4]
 241:..\..\..\..\..\..\Software\uCOS-II\Source/os_sem.c ****              pevent->OSEventCnt     = 0u;
 389              		.loc 1 241 14 is_stmt 1 view .LVU127
 241:..\..\..\..\..\..\Software\uCOS-II\Source/os_sem.c ****              pevent->OSEventCnt     = 0u;
 390              		.loc 1 241 37 is_stmt 0 view .LVU128
 391 009c 094B     		ldr	r3, .L30+4
 392 009e 1968     		ldr	r1, [r3]
 393 00a0 6160     		str	r1, [r4, #4]
 242:..\..\..\..\..\..\Software\uCOS-II\Source/os_sem.c ****              OSEventFreeList        = pevent;              /* Get next free event control block    
 394              		.loc 1 242 14 is_stmt 1 view .LVU129
 242:..\..\..\..\..\..\Software\uCOS-II\Source/os_sem.c ****              OSEventFreeList        = pevent;              /* Get next free event control block    
 395              		.loc 1 242 37 is_stmt 0 view .LVU130
 396 00a2 2281     		strh	r2, [r4, #8]
 243:..\..\..\..\..\..\Software\uCOS-II\Source/os_sem.c ****              OS_EXIT_CRITICAL();
 397              		.loc 1 243 14 is_stmt 1 view .LVU131
 243:..\..\..\..\..\..\Software\uCOS-II\Source/os_sem.c ****              OS_EXIT_CRITICAL();
 398              		.loc 1 243 37 is_stmt 0 view .LVU132
 399 00a4 1C60     		str	r4, [r3]
 244:..\..\..\..\..\..\Software\uCOS-II\Source/os_sem.c ****              if (tasks_waiting == OS_TRUE) {               /* Reschedule only if task(s) were waiti
 400              		.loc 1 244 14 is_stmt 1 view .LVU133
 244:..\..\..\..\..\..\Software\uCOS-II\Source/os_sem.c ****              if (tasks_waiting == OS_TRUE) {               /* Reschedule only if task(s) were waiti
 401              		.loc 1 244 14 view .LVU134
ARM GAS  C:\Users\EDULU~1.DES\AppData\Local\Temp\ccFs9KIj.s 			page 14


 402 00a6 0198     		ldr	r0, [sp, #4]
 403 00a8 FFF7FEFF 		bl	OS_CPU_SR_Restore
 404              	.LVL39:
 245:..\..\..\..\..\..\Software\uCOS-II\Source/os_sem.c ****                  OS_Sched();                               /* Find highest priority task ready to r
 405              		.loc 1 245 14 view .LVU135
 245:..\..\..\..\..\..\Software\uCOS-II\Source/os_sem.c ****                  OS_Sched();                               /* Find highest priority task ready to r
 406              		.loc 1 245 17 is_stmt 0 view .LVU136
 407 00ac 012F     		cmp	r7, #1
 408 00ae 03D0     		beq	.L29
 409              	.L24:
 248:..\..\..\..\..\..\Software\uCOS-II\Source/os_sem.c ****              pevent_return          = (OS_EVENT *)0;       /* Semaphore has been deleted           
 410              		.loc 1 248 14 is_stmt 1 view .LVU137
 248:..\..\..\..\..\..\Software\uCOS-II\Source/os_sem.c ****              pevent_return          = (OS_EVENT *)0;       /* Semaphore has been deleted           
 411              		.loc 1 248 37 is_stmt 0 view .LVU138
 412 00b0 0023     		movs	r3, #0
 413 00b2 2B70     		strb	r3, [r5]
 249:..\..\..\..\..\..\Software\uCOS-II\Source/os_sem.c ****              break;
 414              		.loc 1 249 14 is_stmt 1 view .LVU139
 415              	.LVL40:
 250:..\..\..\..\..\..\Software\uCOS-II\Source/os_sem.c **** 
 416              		.loc 1 250 14 view .LVU140
 249:..\..\..\..\..\..\Software\uCOS-II\Source/os_sem.c ****              break;
 417              		.loc 1 249 37 is_stmt 0 view .LVU141
 418 00b4 0020     		movs	r0, #0
 250:..\..\..\..\..\..\Software\uCOS-II\Source/os_sem.c **** 
 419              		.loc 1 250 14 view .LVU142
 420 00b6 AFE7     		b	.L13
 421              	.LVL41:
 422              	.L29:
 246:..\..\..\..\..\..\Software\uCOS-II\Source/os_sem.c ****              }
 423              		.loc 1 246 18 is_stmt 1 view .LVU143
 424 00b8 FFF7FEFF 		bl	OS_Sched
 425              	.LVL42:
 426 00bc F8E7     		b	.L24
 427              	.L31:
 428 00be C046     		.align	2
 429              	.L30:
 430 00c0 00000000 		.word	OSIntNesting
 431 00c4 00000000 		.word	OSEventFreeList
 432              		.cfi_endproc
 433              	.LFE5:
 434              		.size	OSSemDel, .-OSSemDel
 435              		.section	.text.OSSemPend,"ax",%progbits
 436              		.align	1
 437              		.global	OSSemPend
 438              		.syntax unified
 439              		.code	16
 440              		.thumb_func
 441              		.fpu softvfp
 442              		.type	OSSemPend, %function
 443              	OSSemPend:
 444              	.LVL43:
 445              	.LFB6:
 260:..\..\..\..\..\..\Software\uCOS-II\Source/os_sem.c **** #endif
 261:..\..\..\..\..\..\Software\uCOS-II\Source/os_sem.c **** 
 262:..\..\..\..\..\..\Software\uCOS-II\Source/os_sem.c **** /*$PAGE*/
 263:..\..\..\..\..\..\Software\uCOS-II\Source/os_sem.c **** /*
ARM GAS  C:\Users\EDULU~1.DES\AppData\Local\Temp\ccFs9KIj.s 			page 15


 264:..\..\..\..\..\..\Software\uCOS-II\Source/os_sem.c **** ***************************************************************************************************
 265:..\..\..\..\..\..\Software\uCOS-II\Source/os_sem.c **** *                                          PEND ON SEMAPHORE
 266:..\..\..\..\..\..\Software\uCOS-II\Source/os_sem.c **** *
 267:..\..\..\..\..\..\Software\uCOS-II\Source/os_sem.c **** * Description: This function waits for a semaphore.
 268:..\..\..\..\..\..\Software\uCOS-II\Source/os_sem.c **** *
 269:..\..\..\..\..\..\Software\uCOS-II\Source/os_sem.c **** * Arguments  : pevent        is a pointer to the event control block associated with the desired
 270:..\..\..\..\..\..\Software\uCOS-II\Source/os_sem.c **** *                            semaphore.
 271:..\..\..\..\..\..\Software\uCOS-II\Source/os_sem.c **** *
 272:..\..\..\..\..\..\Software\uCOS-II\Source/os_sem.c **** *              timeout       is an optional timeout period (in clock ticks).  If non-zero, your tas
 273:..\..\..\..\..\..\Software\uCOS-II\Source/os_sem.c **** *                            wait for the resource up to the amount of time specified by this argum
 274:..\..\..\..\..\..\Software\uCOS-II\Source/os_sem.c **** *                            If you specify 0, however, your task will wait forever at the specifie
 275:..\..\..\..\..\..\Software\uCOS-II\Source/os_sem.c **** *                            semaphore or, until the resource becomes available (or the event occur
 276:..\..\..\..\..\..\Software\uCOS-II\Source/os_sem.c **** *
 277:..\..\..\..\..\..\Software\uCOS-II\Source/os_sem.c **** *              perr          is a pointer to where an error message will be deposited.  Possible er
 278:..\..\..\..\..\..\Software\uCOS-II\Source/os_sem.c **** *                            messages are:
 279:..\..\..\..\..\..\Software\uCOS-II\Source/os_sem.c **** *
 280:..\..\..\..\..\..\Software\uCOS-II\Source/os_sem.c **** *                            OS_ERR_NONE         The call was successful and your task owns the res
 281:..\..\..\..\..\..\Software\uCOS-II\Source/os_sem.c **** *                                                or, the event you are waiting for occurred.
 282:..\..\..\..\..\..\Software\uCOS-II\Source/os_sem.c **** *                            OS_ERR_TIMEOUT      The semaphore was not received within the specifie
 283:..\..\..\..\..\..\Software\uCOS-II\Source/os_sem.c **** *                                                'timeout'.
 284:..\..\..\..\..\..\Software\uCOS-II\Source/os_sem.c **** *                            OS_ERR_PEND_ABORT   The wait on the semaphore was aborted.
 285:..\..\..\..\..\..\Software\uCOS-II\Source/os_sem.c **** *                            OS_ERR_EVENT_TYPE   If you didn't pass a pointer to a semaphore.
 286:..\..\..\..\..\..\Software\uCOS-II\Source/os_sem.c **** *                            OS_ERR_PEND_ISR     If you called this function from an ISR and the re
 287:..\..\..\..\..\..\Software\uCOS-II\Source/os_sem.c **** *                                                would lead to a suspension.
 288:..\..\..\..\..\..\Software\uCOS-II\Source/os_sem.c **** *                            OS_ERR_PEVENT_NULL  If 'pevent' is a NULL pointer.
 289:..\..\..\..\..\..\Software\uCOS-II\Source/os_sem.c **** *                            OS_ERR_PEND_LOCKED  If you called this function when the scheduler is 
 290:..\..\..\..\..\..\Software\uCOS-II\Source/os_sem.c **** *
 291:..\..\..\..\..\..\Software\uCOS-II\Source/os_sem.c **** * Returns    : none
 292:..\..\..\..\..\..\Software\uCOS-II\Source/os_sem.c **** ***************************************************************************************************
 293:..\..\..\..\..\..\Software\uCOS-II\Source/os_sem.c **** */
 294:..\..\..\..\..\..\Software\uCOS-II\Source/os_sem.c **** /*$PAGE*/
 295:..\..\..\..\..\..\Software\uCOS-II\Source/os_sem.c **** void  OSSemPend (OS_EVENT  *pevent,
 296:..\..\..\..\..\..\Software\uCOS-II\Source/os_sem.c ****                  INT32U     timeout,
 297:..\..\..\..\..\..\Software\uCOS-II\Source/os_sem.c ****                  INT8U     *perr)
 298:..\..\..\..\..\..\Software\uCOS-II\Source/os_sem.c **** {
 446              		.loc 1 298 1 view -0
 447              		.cfi_startproc
 448              		@ args = 0, pretend = 0, frame = 8
 449              		@ frame_needed = 0, uses_anonymous_args = 0
 450              		.loc 1 298 1 is_stmt 0 view .LVU145
 451 0000 F0B5     		push	{r4, r5, r6, r7, lr}
 452              		.cfi_def_cfa_offset 20
 453              		.cfi_offset 4, -20
 454              		.cfi_offset 5, -16
 455              		.cfi_offset 6, -12
 456              		.cfi_offset 7, -8
 457              		.cfi_offset 14, -4
 458 0002 C646     		mov	lr, r8
 459 0004 00B5     		push	{lr}
 460              		.cfi_def_cfa_offset 24
 461              		.cfi_offset 8, -24
 462 0006 82B0     		sub	sp, sp, #8
 463              		.cfi_def_cfa_offset 32
 464 0008 0400     		movs	r4, r0
 465 000a 0E00     		movs	r6, r1
 466 000c 1500     		movs	r5, r2
 299:..\..\..\..\..\..\Software\uCOS-II\Source/os_sem.c **** #if OS_CRITICAL_METHOD == 3u                          /* Allocate storage for CPU status register  
ARM GAS  C:\Users\EDULU~1.DES\AppData\Local\Temp\ccFs9KIj.s 			page 16


 300:..\..\..\..\..\..\Software\uCOS-II\Source/os_sem.c ****     OS_CPU_SR  cpu_sr = 0u;
 467              		.loc 1 300 5 is_stmt 1 view .LVU146
 468              	.LVL44:
 301:..\..\..\..\..\..\Software\uCOS-II\Source/os_sem.c **** #endif
 302:..\..\..\..\..\..\Software\uCOS-II\Source/os_sem.c **** 
 303:..\..\..\..\..\..\Software\uCOS-II\Source/os_sem.c **** 
 304:..\..\..\..\..\..\Software\uCOS-II\Source/os_sem.c **** 
 305:..\..\..\..\..\..\Software\uCOS-II\Source/os_sem.c **** #ifdef OS_SAFETY_CRITICAL
 306:..\..\..\..\..\..\Software\uCOS-II\Source/os_sem.c ****     if (perr == (INT8U *)0) {
 307:..\..\..\..\..\..\Software\uCOS-II\Source/os_sem.c ****         OS_SAFETY_CRITICAL_EXCEPTION();
 308:..\..\..\..\..\..\Software\uCOS-II\Source/os_sem.c ****         return;
 309:..\..\..\..\..\..\Software\uCOS-II\Source/os_sem.c ****     }
 310:..\..\..\..\..\..\Software\uCOS-II\Source/os_sem.c **** #endif
 311:..\..\..\..\..\..\Software\uCOS-II\Source/os_sem.c **** 
 312:..\..\..\..\..\..\Software\uCOS-II\Source/os_sem.c **** #if OS_ARG_CHK_EN > 0u
 313:..\..\..\..\..\..\Software\uCOS-II\Source/os_sem.c ****     if (pevent == (OS_EVENT *)0) {                    /* Validate 'pevent'                         
 469              		.loc 1 313 5 view .LVU147
 470              		.loc 1 313 8 is_stmt 0 view .LVU148
 471 000e 0028     		cmp	r0, #0
 472 0010 08D0     		beq	.L44
 314:..\..\..\..\..\..\Software\uCOS-II\Source/os_sem.c ****         *perr = OS_ERR_PEVENT_NULL;
 315:..\..\..\..\..\..\Software\uCOS-II\Source/os_sem.c ****         return;
 316:..\..\..\..\..\..\Software\uCOS-II\Source/os_sem.c ****     }
 317:..\..\..\..\..\..\Software\uCOS-II\Source/os_sem.c **** #endif
 318:..\..\..\..\..\..\Software\uCOS-II\Source/os_sem.c ****     if (pevent->OSEventType != OS_EVENT_TYPE_SEM) {   /* Validate event block type                 
 473              		.loc 1 318 5 is_stmt 1 view .LVU149
 474              		.loc 1 318 15 is_stmt 0 view .LVU150
 475 0012 0378     		ldrb	r3, [r0]
 476              		.loc 1 318 8 view .LVU151
 477 0014 032B     		cmp	r3, #3
 478 0016 08D0     		beq	.L35
 319:..\..\..\..\..\..\Software\uCOS-II\Source/os_sem.c ****         *perr = OS_ERR_EVENT_TYPE;
 479              		.loc 1 319 9 is_stmt 1 view .LVU152
 480              		.loc 1 319 15 is_stmt 0 view .LVU153
 481 0018 0123     		movs	r3, #1
 482 001a 1370     		strb	r3, [r2]
 320:..\..\..\..\..\..\Software\uCOS-II\Source/os_sem.c ****         return;
 483              		.loc 1 320 9 is_stmt 1 view .LVU154
 484              	.LVL45:
 485              	.L32:
 321:..\..\..\..\..\..\Software\uCOS-II\Source/os_sem.c ****     }
 322:..\..\..\..\..\..\Software\uCOS-II\Source/os_sem.c ****     if (OSIntNesting > 0u) {                          /* See if called from ISR ...                
 323:..\..\..\..\..\..\Software\uCOS-II\Source/os_sem.c ****         *perr = OS_ERR_PEND_ISR;                      /* ... can't PEND from an ISR                
 324:..\..\..\..\..\..\Software\uCOS-II\Source/os_sem.c ****         return;
 325:..\..\..\..\..\..\Software\uCOS-II\Source/os_sem.c ****     }
 326:..\..\..\..\..\..\Software\uCOS-II\Source/os_sem.c ****     if (OSLockNesting > 0u) {                         /* See if called with scheduler locked ...   
 327:..\..\..\..\..\..\Software\uCOS-II\Source/os_sem.c ****         *perr = OS_ERR_PEND_LOCKED;                   /* ... can't PEND when locked                
 328:..\..\..\..\..\..\Software\uCOS-II\Source/os_sem.c ****         return;
 329:..\..\..\..\..\..\Software\uCOS-II\Source/os_sem.c ****     }
 330:..\..\..\..\..\..\Software\uCOS-II\Source/os_sem.c ****     OS_ENTER_CRITICAL();
 331:..\..\..\..\..\..\Software\uCOS-II\Source/os_sem.c ****     if (pevent->OSEventCnt > 0u) {                    /* If sem. is positive, resource available ..
 332:..\..\..\..\..\..\Software\uCOS-II\Source/os_sem.c ****         pevent->OSEventCnt--;                         /* ... decrement semaphore only if positive. 
 333:..\..\..\..\..\..\Software\uCOS-II\Source/os_sem.c ****         OS_EXIT_CRITICAL();
 334:..\..\..\..\..\..\Software\uCOS-II\Source/os_sem.c ****         *perr = OS_ERR_NONE;
 335:..\..\..\..\..\..\Software\uCOS-II\Source/os_sem.c ****         return;
 336:..\..\..\..\..\..\Software\uCOS-II\Source/os_sem.c ****     }
 337:..\..\..\..\..\..\Software\uCOS-II\Source/os_sem.c ****                                                       /* Otherwise, must wait until event occurs   
ARM GAS  C:\Users\EDULU~1.DES\AppData\Local\Temp\ccFs9KIj.s 			page 17


 338:..\..\..\..\..\..\Software\uCOS-II\Source/os_sem.c ****     OSTCBCur->OSTCBStat     |= OS_STAT_SEM;           /* Resource not available, pend on semaphore 
 339:..\..\..\..\..\..\Software\uCOS-II\Source/os_sem.c ****     OSTCBCur->OSTCBStatPend  = OS_STAT_PEND_OK;
 340:..\..\..\..\..\..\Software\uCOS-II\Source/os_sem.c ****     OSTCBCur->OSTCBDly       = timeout;               /* Store pend timeout in TCB                 
 341:..\..\..\..\..\..\Software\uCOS-II\Source/os_sem.c ****     OS_EventTaskWait(pevent);                         /* Suspend task until event or timeout occurs
 342:..\..\..\..\..\..\Software\uCOS-II\Source/os_sem.c ****     OS_EXIT_CRITICAL();
 343:..\..\..\..\..\..\Software\uCOS-II\Source/os_sem.c ****     OS_Sched();                                       /* Find next highest priority task ready     
 344:..\..\..\..\..\..\Software\uCOS-II\Source/os_sem.c ****     OS_ENTER_CRITICAL();
 345:..\..\..\..\..\..\Software\uCOS-II\Source/os_sem.c ****     switch (OSTCBCur->OSTCBStatPend) {                /* See if we timed-out or aborted            
 346:..\..\..\..\..\..\Software\uCOS-II\Source/os_sem.c ****         case OS_STAT_PEND_OK:
 347:..\..\..\..\..\..\Software\uCOS-II\Source/os_sem.c ****              *perr = OS_ERR_NONE;
 348:..\..\..\..\..\..\Software\uCOS-II\Source/os_sem.c ****              break;
 349:..\..\..\..\..\..\Software\uCOS-II\Source/os_sem.c **** 
 350:..\..\..\..\..\..\Software\uCOS-II\Source/os_sem.c ****         case OS_STAT_PEND_ABORT:
 351:..\..\..\..\..\..\Software\uCOS-II\Source/os_sem.c ****              *perr = OS_ERR_PEND_ABORT;               /* Indicate that we aborted                  
 352:..\..\..\..\..\..\Software\uCOS-II\Source/os_sem.c ****              break;
 353:..\..\..\..\..\..\Software\uCOS-II\Source/os_sem.c **** 
 354:..\..\..\..\..\..\Software\uCOS-II\Source/os_sem.c ****         case OS_STAT_PEND_TO:
 355:..\..\..\..\..\..\Software\uCOS-II\Source/os_sem.c ****         default:
 356:..\..\..\..\..\..\Software\uCOS-II\Source/os_sem.c ****              OS_EventTaskRemove(OSTCBCur, pevent);
 357:..\..\..\..\..\..\Software\uCOS-II\Source/os_sem.c ****              *perr = OS_ERR_TIMEOUT;                  /* Indicate that we didn't get event within T
 358:..\..\..\..\..\..\Software\uCOS-II\Source/os_sem.c ****              break;
 359:..\..\..\..\..\..\Software\uCOS-II\Source/os_sem.c ****     }
 360:..\..\..\..\..\..\Software\uCOS-II\Source/os_sem.c ****     OSTCBCur->OSTCBStat          =  OS_STAT_RDY;      /* Set   task  status to ready               
 361:..\..\..\..\..\..\Software\uCOS-II\Source/os_sem.c ****     OSTCBCur->OSTCBStatPend      =  OS_STAT_PEND_OK;  /* Clear pend  status                        
 362:..\..\..\..\..\..\Software\uCOS-II\Source/os_sem.c ****     OSTCBCur->OSTCBEventPtr      = (OS_EVENT  *)0;    /* Clear event pointers                      
 363:..\..\..\..\..\..\Software\uCOS-II\Source/os_sem.c **** #if (OS_EVENT_MULTI_EN > 0u)
 364:..\..\..\..\..\..\Software\uCOS-II\Source/os_sem.c ****     OSTCBCur->OSTCBEventMultiPtr = (OS_EVENT **)0;
 365:..\..\..\..\..\..\Software\uCOS-II\Source/os_sem.c **** #endif
 366:..\..\..\..\..\..\Software\uCOS-II\Source/os_sem.c ****     OS_EXIT_CRITICAL();
 367:..\..\..\..\..\..\Software\uCOS-II\Source/os_sem.c **** }
 486              		.loc 1 367 1 is_stmt 0 view .LVU155
 487 001c 02B0     		add	sp, sp, #8
 488              		@ sp needed
 489              	.LVL46:
 490              	.LVL47:
 491              		.loc 1 367 1 view .LVU156
 492 001e 04BC     		pop	{r2}
 493 0020 9046     		mov	r8, r2
 494 0022 F0BD     		pop	{r4, r5, r6, r7, pc}
 495              	.LVL48:
 496              	.L44:
 314:..\..\..\..\..\..\Software\uCOS-II\Source/os_sem.c ****         return;
 497              		.loc 1 314 9 is_stmt 1 view .LVU157
 314:..\..\..\..\..\..\Software\uCOS-II\Source/os_sem.c ****         return;
 498              		.loc 1 314 15 is_stmt 0 view .LVU158
 499 0024 0423     		movs	r3, #4
 500 0026 1370     		strb	r3, [r2]
 315:..\..\..\..\..\..\Software\uCOS-II\Source/os_sem.c ****     }
 501              		.loc 1 315 9 is_stmt 1 view .LVU159
 502 0028 F8E7     		b	.L32
 503              	.L35:
 322:..\..\..\..\..\..\Software\uCOS-II\Source/os_sem.c ****         *perr = OS_ERR_PEND_ISR;                      /* ... can't PEND from an ISR                
 504              		.loc 1 322 5 view .LVU160
 322:..\..\..\..\..\..\Software\uCOS-II\Source/os_sem.c ****         *perr = OS_ERR_PEND_ISR;                      /* ... can't PEND from an ISR                
 505              		.loc 1 322 22 is_stmt 0 view .LVU161
 506 002a 284B     		ldr	r3, .L47
 507 002c 1B78     		ldrb	r3, [r3]
ARM GAS  C:\Users\EDULU~1.DES\AppData\Local\Temp\ccFs9KIj.s 			page 18


 322:..\..\..\..\..\..\Software\uCOS-II\Source/os_sem.c ****         *perr = OS_ERR_PEND_ISR;                      /* ... can't PEND from an ISR                
 508              		.loc 1 322 8 view .LVU162
 509 002e 002B     		cmp	r3, #0
 510 0030 06D1     		bne	.L45
 326:..\..\..\..\..\..\Software\uCOS-II\Source/os_sem.c ****         *perr = OS_ERR_PEND_LOCKED;                   /* ... can't PEND when locked                
 511              		.loc 1 326 5 is_stmt 1 view .LVU163
 326:..\..\..\..\..\..\Software\uCOS-II\Source/os_sem.c ****         *perr = OS_ERR_PEND_LOCKED;                   /* ... can't PEND when locked                
 512              		.loc 1 326 23 is_stmt 0 view .LVU164
 513 0032 274B     		ldr	r3, .L47+4
 514 0034 1B78     		ldrb	r3, [r3]
 326:..\..\..\..\..\..\Software\uCOS-II\Source/os_sem.c ****         *perr = OS_ERR_PEND_LOCKED;                   /* ... can't PEND when locked                
 515              		.loc 1 326 8 view .LVU165
 516 0036 002B     		cmp	r3, #0
 517 0038 05D0     		beq	.L37
 327:..\..\..\..\..\..\Software\uCOS-II\Source/os_sem.c ****         return;
 518              		.loc 1 327 9 is_stmt 1 view .LVU166
 327:..\..\..\..\..\..\Software\uCOS-II\Source/os_sem.c ****         return;
 519              		.loc 1 327 15 is_stmt 0 view .LVU167
 520 003a 0D23     		movs	r3, #13
 521 003c 1370     		strb	r3, [r2]
 328:..\..\..\..\..\..\Software\uCOS-II\Source/os_sem.c ****     }
 522              		.loc 1 328 9 is_stmt 1 view .LVU168
 523 003e EDE7     		b	.L32
 524              	.L45:
 323:..\..\..\..\..\..\Software\uCOS-II\Source/os_sem.c ****         return;
 525              		.loc 1 323 9 view .LVU169
 323:..\..\..\..\..\..\Software\uCOS-II\Source/os_sem.c ****         return;
 526              		.loc 1 323 15 is_stmt 0 view .LVU170
 527 0040 0223     		movs	r3, #2
 528 0042 1370     		strb	r3, [r2]
 324:..\..\..\..\..\..\Software\uCOS-II\Source/os_sem.c ****     }
 529              		.loc 1 324 9 is_stmt 1 view .LVU171
 530 0044 EAE7     		b	.L32
 531              	.L37:
 330:..\..\..\..\..\..\Software\uCOS-II\Source/os_sem.c ****     if (pevent->OSEventCnt > 0u) {                    /* If sem. is positive, resource available ..
 532              		.loc 1 330 5 view .LVU172
 330:..\..\..\..\..\..\Software\uCOS-II\Source/os_sem.c ****     if (pevent->OSEventCnt > 0u) {                    /* If sem. is positive, resource available ..
 533              		.loc 1 330 5 view .LVU173
 534 0046 FFF7FEFF 		bl	OS_CPU_SR_Save
 535              	.LVL49:
 330:..\..\..\..\..\..\Software\uCOS-II\Source/os_sem.c ****     if (pevent->OSEventCnt > 0u) {                    /* If sem. is positive, resource available ..
 536              		.loc 1 330 5 is_stmt 0 view .LVU174
 537 004a 0190     		str	r0, [sp, #4]
 538              	.LVL50:
 331:..\..\..\..\..\..\Software\uCOS-II\Source/os_sem.c ****         pevent->OSEventCnt--;                         /* ... decrement semaphore only if positive. 
 539              		.loc 1 331 5 is_stmt 1 view .LVU175
 331:..\..\..\..\..\..\Software\uCOS-II\Source/os_sem.c ****         pevent->OSEventCnt--;                         /* ... decrement semaphore only if positive. 
 540              		.loc 1 331 15 is_stmt 0 view .LVU176
 541 004c 2389     		ldrh	r3, [r4, #8]
 331:..\..\..\..\..\..\Software\uCOS-II\Source/os_sem.c ****         pevent->OSEventCnt--;                         /* ... decrement semaphore only if positive. 
 542              		.loc 1 331 8 view .LVU177
 543 004e 002B     		cmp	r3, #0
 544 0050 23D1     		bne	.L46
 338:..\..\..\..\..\..\Software\uCOS-II\Source/os_sem.c ****     OSTCBCur->OSTCBStatPend  = OS_STAT_PEND_OK;
 545              		.loc 1 338 5 is_stmt 1 view .LVU178
 338:..\..\..\..\..\..\Software\uCOS-II\Source/os_sem.c ****     OSTCBCur->OSTCBStatPend  = OS_STAT_PEND_OK;
 546              		.loc 1 338 29 is_stmt 0 view .LVU179
ARM GAS  C:\Users\EDULU~1.DES\AppData\Local\Temp\ccFs9KIj.s 			page 19


 547 0052 204B     		ldr	r3, .L47+8
 548 0054 9846     		mov	r8, r3
 549 0056 1B68     		ldr	r3, [r3]
 550 0058 2421     		movs	r1, #36
 551 005a 5A5C     		ldrb	r2, [r3, r1]
 552 005c 0120     		movs	r0, #1
 553              	.LVL51:
 338:..\..\..\..\..\..\Software\uCOS-II\Source/os_sem.c ****     OSTCBCur->OSTCBStatPend  = OS_STAT_PEND_OK;
 554              		.loc 1 338 29 view .LVU180
 555 005e 0243     		orrs	r2, r0
 556 0060 5A54     		strb	r2, [r3, r1]
 339:..\..\..\..\..\..\Software\uCOS-II\Source/os_sem.c ****     OSTCBCur->OSTCBDly       = timeout;               /* Store pend timeout in TCB                 
 557              		.loc 1 339 5 is_stmt 1 view .LVU181
 339:..\..\..\..\..\..\Software\uCOS-II\Source/os_sem.c ****     OSTCBCur->OSTCBDly       = timeout;               /* Store pend timeout in TCB                 
 558              		.loc 1 339 30 is_stmt 0 view .LVU182
 559 0062 2527     		movs	r7, #37
 560 0064 0022     		movs	r2, #0
 561 0066 DA55     		strb	r2, [r3, r7]
 340:..\..\..\..\..\..\Software\uCOS-II\Source/os_sem.c ****     OS_EventTaskWait(pevent);                         /* Suspend task until event or timeout occurs
 562              		.loc 1 340 5 is_stmt 1 view .LVU183
 340:..\..\..\..\..\..\Software\uCOS-II\Source/os_sem.c ****     OS_EventTaskWait(pevent);                         /* Suspend task until event or timeout occurs
 563              		.loc 1 340 30 is_stmt 0 view .LVU184
 564 0068 1E62     		str	r6, [r3, #32]
 341:..\..\..\..\..\..\Software\uCOS-II\Source/os_sem.c ****     OS_EXIT_CRITICAL();
 565              		.loc 1 341 5 is_stmt 1 view .LVU185
 566 006a 2000     		movs	r0, r4
 567 006c FFF7FEFF 		bl	OS_EventTaskWait
 568              	.LVL52:
 342:..\..\..\..\..\..\Software\uCOS-II\Source/os_sem.c ****     OS_Sched();                                       /* Find next highest priority task ready     
 569              		.loc 1 342 5 view .LVU186
 342:..\..\..\..\..\..\Software\uCOS-II\Source/os_sem.c ****     OS_Sched();                                       /* Find next highest priority task ready     
 570              		.loc 1 342 5 view .LVU187
 571 0070 0198     		ldr	r0, [sp, #4]
 572 0072 FFF7FEFF 		bl	OS_CPU_SR_Restore
 573              	.LVL53:
 343:..\..\..\..\..\..\Software\uCOS-II\Source/os_sem.c ****     OS_ENTER_CRITICAL();
 574              		.loc 1 343 5 view .LVU188
 575 0076 FFF7FEFF 		bl	OS_Sched
 576              	.LVL54:
 344:..\..\..\..\..\..\Software\uCOS-II\Source/os_sem.c ****     switch (OSTCBCur->OSTCBStatPend) {                /* See if we timed-out or aborted            
 577              		.loc 1 344 5 view .LVU189
 344:..\..\..\..\..\..\Software\uCOS-II\Source/os_sem.c ****     switch (OSTCBCur->OSTCBStatPend) {                /* See if we timed-out or aborted            
 578              		.loc 1 344 5 view .LVU190
 579 007a FFF7FEFF 		bl	OS_CPU_SR_Save
 580              	.LVL55:
 581 007e 0600     		movs	r6, r0
 582              	.LVL56:
 345:..\..\..\..\..\..\Software\uCOS-II\Source/os_sem.c ****         case OS_STAT_PEND_OK:
 583              		.loc 1 345 5 view .LVU191
 345:..\..\..\..\..\..\Software\uCOS-II\Source/os_sem.c ****         case OS_STAT_PEND_OK:
 584              		.loc 1 345 21 is_stmt 0 view .LVU192
 585 0080 4346     		mov	r3, r8
 586 0082 1868     		ldr	r0, [r3]
 587              	.LVL57:
 345:..\..\..\..\..\..\Software\uCOS-II\Source/os_sem.c ****         case OS_STAT_PEND_OK:
 588              		.loc 1 345 21 view .LVU193
 589 0084 C35D     		ldrb	r3, [r0, r7]
ARM GAS  C:\Users\EDULU~1.DES\AppData\Local\Temp\ccFs9KIj.s 			page 20


 345:..\..\..\..\..\..\Software\uCOS-II\Source/os_sem.c ****         case OS_STAT_PEND_OK:
 590              		.loc 1 345 5 view .LVU194
 591 0086 002B     		cmp	r3, #0
 592 0088 0ED0     		beq	.L39
 593 008a 022B     		cmp	r3, #2
 594 008c 1AD0     		beq	.L40
 356:..\..\..\..\..\..\Software\uCOS-II\Source/os_sem.c ****              *perr = OS_ERR_TIMEOUT;                  /* Indicate that we didn't get event within T
 595              		.loc 1 356 14 is_stmt 1 view .LVU195
 596 008e 2100     		movs	r1, r4
 597 0090 FFF7FEFF 		bl	OS_EventTaskRemove
 598              	.LVL58:
 357:..\..\..\..\..\..\Software\uCOS-II\Source/os_sem.c ****              break;
 599              		.loc 1 357 14 view .LVU196
 357:..\..\..\..\..\..\Software\uCOS-II\Source/os_sem.c ****              break;
 600              		.loc 1 357 20 is_stmt 0 view .LVU197
 601 0094 0A23     		movs	r3, #10
 602 0096 2B70     		strb	r3, [r5]
 358:..\..\..\..\..\..\Software\uCOS-II\Source/os_sem.c ****     }
 603              		.loc 1 358 14 is_stmt 1 view .LVU198
 604 0098 08E0     		b	.L42
 605              	.LVL59:
 606              	.L46:
 332:..\..\..\..\..\..\Software\uCOS-II\Source/os_sem.c ****         OS_EXIT_CRITICAL();
 607              		.loc 1 332 9 view .LVU199
 332:..\..\..\..\..\..\Software\uCOS-II\Source/os_sem.c ****         OS_EXIT_CRITICAL();
 608              		.loc 1 332 27 is_stmt 0 view .LVU200
 609 009a 013B     		subs	r3, r3, #1
 610 009c 2381     		strh	r3, [r4, #8]
 333:..\..\..\..\..\..\Software\uCOS-II\Source/os_sem.c ****         *perr = OS_ERR_NONE;
 611              		.loc 1 333 9 is_stmt 1 view .LVU201
 333:..\..\..\..\..\..\Software\uCOS-II\Source/os_sem.c ****         *perr = OS_ERR_NONE;
 612              		.loc 1 333 9 view .LVU202
 613 009e FFF7FEFF 		bl	OS_CPU_SR_Restore
 614              	.LVL60:
 334:..\..\..\..\..\..\Software\uCOS-II\Source/os_sem.c ****         return;
 615              		.loc 1 334 9 view .LVU203
 334:..\..\..\..\..\..\Software\uCOS-II\Source/os_sem.c ****         return;
 616              		.loc 1 334 15 is_stmt 0 view .LVU204
 617 00a2 0023     		movs	r3, #0
 618 00a4 2B70     		strb	r3, [r5]
 335:..\..\..\..\..\..\Software\uCOS-II\Source/os_sem.c ****     }
 619              		.loc 1 335 9 is_stmt 1 view .LVU205
 620 00a6 B9E7     		b	.L32
 621              	.LVL61:
 622              	.L39:
 347:..\..\..\..\..\..\Software\uCOS-II\Source/os_sem.c ****              break;
 623              		.loc 1 347 14 view .LVU206
 347:..\..\..\..\..\..\Software\uCOS-II\Source/os_sem.c ****              break;
 624              		.loc 1 347 20 is_stmt 0 view .LVU207
 625 00a8 0023     		movs	r3, #0
 626 00aa 2B70     		strb	r3, [r5]
 348:..\..\..\..\..\..\Software\uCOS-II\Source/os_sem.c **** 
 627              		.loc 1 348 14 is_stmt 1 view .LVU208
 628              	.L42:
 360:..\..\..\..\..\..\Software\uCOS-II\Source/os_sem.c ****     OSTCBCur->OSTCBStatPend      =  OS_STAT_PEND_OK;  /* Clear pend  status                        
 629              		.loc 1 360 5 view .LVU209
 360:..\..\..\..\..\..\Software\uCOS-II\Source/os_sem.c ****     OSTCBCur->OSTCBStatPend      =  OS_STAT_PEND_OK;  /* Clear pend  status                        
ARM GAS  C:\Users\EDULU~1.DES\AppData\Local\Temp\ccFs9KIj.s 			page 21


 630              		.loc 1 360 13 is_stmt 0 view .LVU210
 631 00ac 094B     		ldr	r3, .L47+8
 632 00ae 1B68     		ldr	r3, [r3]
 360:..\..\..\..\..\..\Software\uCOS-II\Source/os_sem.c ****     OSTCBCur->OSTCBStatPend      =  OS_STAT_PEND_OK;  /* Clear pend  status                        
 633              		.loc 1 360 34 view .LVU211
 634 00b0 0022     		movs	r2, #0
 635 00b2 2421     		movs	r1, #36
 636 00b4 5A54     		strb	r2, [r3, r1]
 361:..\..\..\..\..\..\Software\uCOS-II\Source/os_sem.c ****     OSTCBCur->OSTCBEventPtr      = (OS_EVENT  *)0;    /* Clear event pointers                      
 637              		.loc 1 361 5 is_stmt 1 view .LVU212
 361:..\..\..\..\..\..\Software\uCOS-II\Source/os_sem.c ****     OSTCBCur->OSTCBEventPtr      = (OS_EVENT  *)0;    /* Clear event pointers                      
 638              		.loc 1 361 34 is_stmt 0 view .LVU213
 639 00b6 0131     		adds	r1, r1, #1
 640 00b8 5A54     		strb	r2, [r3, r1]
 362:..\..\..\..\..\..\Software\uCOS-II\Source/os_sem.c **** #if (OS_EVENT_MULTI_EN > 0u)
 641              		.loc 1 362 5 is_stmt 1 view .LVU214
 362:..\..\..\..\..\..\Software\uCOS-II\Source/os_sem.c **** #if (OS_EVENT_MULTI_EN > 0u)
 642              		.loc 1 362 34 is_stmt 0 view .LVU215
 643 00ba DA61     		str	r2, [r3, #28]
 366:..\..\..\..\..\..\Software\uCOS-II\Source/os_sem.c **** }
 644              		.loc 1 366 5 is_stmt 1 view .LVU216
 366:..\..\..\..\..\..\Software\uCOS-II\Source/os_sem.c **** }
 645              		.loc 1 366 5 view .LVU217
 646 00bc 3000     		movs	r0, r6
 647 00be FFF7FEFF 		bl	OS_CPU_SR_Restore
 648              	.LVL62:
 649 00c2 ABE7     		b	.L32
 650              	.L40:
 351:..\..\..\..\..\..\Software\uCOS-II\Source/os_sem.c ****              break;
 651              		.loc 1 351 14 view .LVU218
 351:..\..\..\..\..\..\Software\uCOS-II\Source/os_sem.c ****              break;
 652              		.loc 1 351 20 is_stmt 0 view .LVU219
 653 00c4 0E23     		movs	r3, #14
 654 00c6 2B70     		strb	r3, [r5]
 352:..\..\..\..\..\..\Software\uCOS-II\Source/os_sem.c **** 
 655              		.loc 1 352 14 is_stmt 1 view .LVU220
 656 00c8 F0E7     		b	.L42
 657              	.L48:
 658 00ca C046     		.align	2
 659              	.L47:
 660 00cc 00000000 		.word	OSIntNesting
 661 00d0 00000000 		.word	OSLockNesting
 662 00d4 00000000 		.word	OSTCBCur
 663              		.cfi_endproc
 664              	.LFE6:
 665              		.size	OSSemPend, .-OSSemPend
 666              		.section	.text.OSSemPendAbort,"ax",%progbits
 667              		.align	1
 668              		.global	OSSemPendAbort
 669              		.syntax unified
 670              		.code	16
 671              		.thumb_func
 672              		.fpu softvfp
 673              		.type	OSSemPendAbort, %function
 674              	OSSemPendAbort:
 675              	.LVL63:
 676              	.LFB7:
ARM GAS  C:\Users\EDULU~1.DES\AppData\Local\Temp\ccFs9KIj.s 			page 22


 368:..\..\..\..\..\..\Software\uCOS-II\Source/os_sem.c **** 
 369:..\..\..\..\..\..\Software\uCOS-II\Source/os_sem.c **** /*$PAGE*/
 370:..\..\..\..\..\..\Software\uCOS-II\Source/os_sem.c **** /*
 371:..\..\..\..\..\..\Software\uCOS-II\Source/os_sem.c **** ***************************************************************************************************
 372:..\..\..\..\..\..\Software\uCOS-II\Source/os_sem.c **** *                                    ABORT WAITING ON A SEMAPHORE
 373:..\..\..\..\..\..\Software\uCOS-II\Source/os_sem.c **** *
 374:..\..\..\..\..\..\Software\uCOS-II\Source/os_sem.c **** * Description: This function aborts & readies any tasks currently waiting on a semaphore.  This fun
 375:..\..\..\..\..\..\Software\uCOS-II\Source/os_sem.c **** *              should be used to fault-abort the wait on the semaphore, rather than to normally sig
 376:..\..\..\..\..\..\Software\uCOS-II\Source/os_sem.c **** *              the semaphore via OSSemPost().
 377:..\..\..\..\..\..\Software\uCOS-II\Source/os_sem.c **** *
 378:..\..\..\..\..\..\Software\uCOS-II\Source/os_sem.c **** * Arguments  : pevent        is a pointer to the event control block associated with the desired
 379:..\..\..\..\..\..\Software\uCOS-II\Source/os_sem.c **** *                            semaphore.
 380:..\..\..\..\..\..\Software\uCOS-II\Source/os_sem.c **** *
 381:..\..\..\..\..\..\Software\uCOS-II\Source/os_sem.c **** *              opt           determines the type of ABORT performed:
 382:..\..\..\..\..\..\Software\uCOS-II\Source/os_sem.c **** *                            OS_PEND_OPT_NONE         ABORT wait for a single task (HPT) waiting on
 383:..\..\..\..\..\..\Software\uCOS-II\Source/os_sem.c **** *                                                     semaphore
 384:..\..\..\..\..\..\Software\uCOS-II\Source/os_sem.c **** *                            OS_PEND_OPT_BROADCAST    ABORT wait for ALL tasks that are  waiting on
 385:..\..\..\..\..\..\Software\uCOS-II\Source/os_sem.c **** *                                                     semaphore
 386:..\..\..\..\..\..\Software\uCOS-II\Source/os_sem.c **** *
 387:..\..\..\..\..\..\Software\uCOS-II\Source/os_sem.c **** *              perr          is a pointer to where an error message will be deposited.  Possible er
 388:..\..\..\..\..\..\Software\uCOS-II\Source/os_sem.c **** *                            messages are:
 389:..\..\..\..\..\..\Software\uCOS-II\Source/os_sem.c **** *
 390:..\..\..\..\..\..\Software\uCOS-II\Source/os_sem.c **** *                            OS_ERR_NONE         No tasks were     waiting on the semaphore.
 391:..\..\..\..\..\..\Software\uCOS-II\Source/os_sem.c **** *                            OS_ERR_PEND_ABORT   At least one task waiting on the semaphore was rea
 392:..\..\..\..\..\..\Software\uCOS-II\Source/os_sem.c **** *                                                and informed of the aborted wait; check return val
 393:..\..\..\..\..\..\Software\uCOS-II\Source/os_sem.c **** *                                                for the number of tasks whose wait on the semaphor
 394:..\..\..\..\..\..\Software\uCOS-II\Source/os_sem.c **** *                                                was aborted.
 395:..\..\..\..\..\..\Software\uCOS-II\Source/os_sem.c **** *                            OS_ERR_EVENT_TYPE   If you didn't pass a pointer to a semaphore.
 396:..\..\..\..\..\..\Software\uCOS-II\Source/os_sem.c **** *                            OS_ERR_PEVENT_NULL  If 'pevent' is a NULL pointer.
 397:..\..\..\..\..\..\Software\uCOS-II\Source/os_sem.c **** *
 398:..\..\..\..\..\..\Software\uCOS-II\Source/os_sem.c **** * Returns    : == 0          if no tasks were waiting on the semaphore, or upon error.
 399:..\..\..\..\..\..\Software\uCOS-II\Source/os_sem.c **** *              >  0          if one or more tasks waiting on the semaphore are now readied and info
 400:..\..\..\..\..\..\Software\uCOS-II\Source/os_sem.c **** ***************************************************************************************************
 401:..\..\..\..\..\..\Software\uCOS-II\Source/os_sem.c **** */
 402:..\..\..\..\..\..\Software\uCOS-II\Source/os_sem.c **** 
 403:..\..\..\..\..\..\Software\uCOS-II\Source/os_sem.c **** #if OS_SEM_PEND_ABORT_EN > 0u
 404:..\..\..\..\..\..\Software\uCOS-II\Source/os_sem.c **** INT8U  OSSemPendAbort (OS_EVENT  *pevent,
 405:..\..\..\..\..\..\Software\uCOS-II\Source/os_sem.c ****                        INT8U      opt,
 406:..\..\..\..\..\..\Software\uCOS-II\Source/os_sem.c ****                        INT8U     *perr)
 407:..\..\..\..\..\..\Software\uCOS-II\Source/os_sem.c **** {
 677              		.loc 1 407 1 view -0
 678              		.cfi_startproc
 679              		@ args = 0, pretend = 0, frame = 0
 680              		@ frame_needed = 0, uses_anonymous_args = 0
 681              		.loc 1 407 1 is_stmt 0 view .LVU222
 682 0000 F8B5     		push	{r3, r4, r5, r6, r7, lr}
 683              		.cfi_def_cfa_offset 24
 684              		.cfi_offset 3, -24
 685              		.cfi_offset 4, -20
 686              		.cfi_offset 5, -16
 687              		.cfi_offset 6, -12
 688              		.cfi_offset 7, -8
 689              		.cfi_offset 14, -4
 690 0002 0400     		movs	r4, r0
 691 0004 0D00     		movs	r5, r1
 692 0006 1700     		movs	r7, r2
 408:..\..\..\..\..\..\Software\uCOS-II\Source/os_sem.c ****     INT8U      nbr_tasks;
ARM GAS  C:\Users\EDULU~1.DES\AppData\Local\Temp\ccFs9KIj.s 			page 23


 693              		.loc 1 408 5 is_stmt 1 view .LVU223
 409:..\..\..\..\..\..\Software\uCOS-II\Source/os_sem.c **** #if OS_CRITICAL_METHOD == 3u                          /* Allocate storage for CPU status register  
 410:..\..\..\..\..\..\Software\uCOS-II\Source/os_sem.c ****     OS_CPU_SR  cpu_sr = 0u;
 694              		.loc 1 410 5 view .LVU224
 695              	.LVL64:
 411:..\..\..\..\..\..\Software\uCOS-II\Source/os_sem.c **** #endif
 412:..\..\..\..\..\..\Software\uCOS-II\Source/os_sem.c **** 
 413:..\..\..\..\..\..\Software\uCOS-II\Source/os_sem.c **** 
 414:..\..\..\..\..\..\Software\uCOS-II\Source/os_sem.c **** 
 415:..\..\..\..\..\..\Software\uCOS-II\Source/os_sem.c **** #ifdef OS_SAFETY_CRITICAL
 416:..\..\..\..\..\..\Software\uCOS-II\Source/os_sem.c ****     if (perr == (INT8U *)0) {
 417:..\..\..\..\..\..\Software\uCOS-II\Source/os_sem.c ****         OS_SAFETY_CRITICAL_EXCEPTION();
 418:..\..\..\..\..\..\Software\uCOS-II\Source/os_sem.c ****         return (0u);
 419:..\..\..\..\..\..\Software\uCOS-II\Source/os_sem.c ****     }
 420:..\..\..\..\..\..\Software\uCOS-II\Source/os_sem.c **** #endif
 421:..\..\..\..\..\..\Software\uCOS-II\Source/os_sem.c **** 
 422:..\..\..\..\..\..\Software\uCOS-II\Source/os_sem.c **** #if OS_ARG_CHK_EN > 0u
 423:..\..\..\..\..\..\Software\uCOS-II\Source/os_sem.c ****     if (pevent == (OS_EVENT *)0) {                    /* Validate 'pevent'                         
 696              		.loc 1 423 5 view .LVU225
 697              		.loc 1 423 8 is_stmt 0 view .LVU226
 698 0008 0028     		cmp	r0, #0
 699 000a 07D0     		beq	.L60
 424:..\..\..\..\..\..\Software\uCOS-II\Source/os_sem.c ****         *perr = OS_ERR_PEVENT_NULL;
 425:..\..\..\..\..\..\Software\uCOS-II\Source/os_sem.c ****         return (0u);
 426:..\..\..\..\..\..\Software\uCOS-II\Source/os_sem.c ****     }
 427:..\..\..\..\..\..\Software\uCOS-II\Source/os_sem.c **** #endif
 428:..\..\..\..\..\..\Software\uCOS-II\Source/os_sem.c ****     if (pevent->OSEventType != OS_EVENT_TYPE_SEM) {   /* Validate event block type                 
 700              		.loc 1 428 5 is_stmt 1 view .LVU227
 701              		.loc 1 428 15 is_stmt 0 view .LVU228
 702 000c 0378     		ldrb	r3, [r0]
 703              		.loc 1 428 8 view .LVU229
 704 000e 032B     		cmp	r3, #3
 705 0010 08D0     		beq	.L52
 429:..\..\..\..\..\..\Software\uCOS-II\Source/os_sem.c ****         *perr = OS_ERR_EVENT_TYPE;
 706              		.loc 1 429 9 is_stmt 1 view .LVU230
 707              		.loc 1 429 15 is_stmt 0 view .LVU231
 708 0012 0123     		movs	r3, #1
 709 0014 1370     		strb	r3, [r2]
 430:..\..\..\..\..\..\Software\uCOS-II\Source/os_sem.c ****         return (0u);
 710              		.loc 1 430 9 is_stmt 1 view .LVU232
 711              		.loc 1 430 16 is_stmt 0 view .LVU233
 712 0016 0025     		movs	r5, #0
 713              	.LVL65:
 714              	.L51:
 431:..\..\..\..\..\..\Software\uCOS-II\Source/os_sem.c ****     }
 432:..\..\..\..\..\..\Software\uCOS-II\Source/os_sem.c ****     OS_ENTER_CRITICAL();
 433:..\..\..\..\..\..\Software\uCOS-II\Source/os_sem.c ****     if (pevent->OSEventGrp != 0u) {                   /* See if any task waiting on semaphore?     
 434:..\..\..\..\..\..\Software\uCOS-II\Source/os_sem.c ****         nbr_tasks = 0u;
 435:..\..\..\..\..\..\Software\uCOS-II\Source/os_sem.c ****         switch (opt) {
 436:..\..\..\..\..\..\Software\uCOS-II\Source/os_sem.c ****             case OS_PEND_OPT_BROADCAST:               /* Do we need to abort ALL waiting tasks?    
 437:..\..\..\..\..\..\Software\uCOS-II\Source/os_sem.c ****                  while (pevent->OSEventGrp != 0u) {   /* Yes, ready ALL tasks waiting on semaphore 
 438:..\..\..\..\..\..\Software\uCOS-II\Source/os_sem.c ****                      (void)OS_EventTaskRdy(pevent, (void *)0, OS_STAT_SEM, OS_STAT_PEND_ABORT);
 439:..\..\..\..\..\..\Software\uCOS-II\Source/os_sem.c ****                      nbr_tasks++;
 440:..\..\..\..\..\..\Software\uCOS-II\Source/os_sem.c ****                  }
 441:..\..\..\..\..\..\Software\uCOS-II\Source/os_sem.c ****                  break;
 442:..\..\..\..\..\..\Software\uCOS-II\Source/os_sem.c **** 
 443:..\..\..\..\..\..\Software\uCOS-II\Source/os_sem.c ****             case OS_PEND_OPT_NONE:
ARM GAS  C:\Users\EDULU~1.DES\AppData\Local\Temp\ccFs9KIj.s 			page 24


 444:..\..\..\..\..\..\Software\uCOS-II\Source/os_sem.c ****             default:                                  /* No,  ready HPT       waiting on semaphore 
 445:..\..\..\..\..\..\Software\uCOS-II\Source/os_sem.c ****                  (void)OS_EventTaskRdy(pevent, (void *)0, OS_STAT_SEM, OS_STAT_PEND_ABORT);
 446:..\..\..\..\..\..\Software\uCOS-II\Source/os_sem.c ****                  nbr_tasks++;
 447:..\..\..\..\..\..\Software\uCOS-II\Source/os_sem.c ****                  break;
 448:..\..\..\..\..\..\Software\uCOS-II\Source/os_sem.c ****         }
 449:..\..\..\..\..\..\Software\uCOS-II\Source/os_sem.c ****         OS_EXIT_CRITICAL();
 450:..\..\..\..\..\..\Software\uCOS-II\Source/os_sem.c ****         OS_Sched();                                   /* Find HPT ready to run                     
 451:..\..\..\..\..\..\Software\uCOS-II\Source/os_sem.c ****         *perr = OS_ERR_PEND_ABORT;
 452:..\..\..\..\..\..\Software\uCOS-II\Source/os_sem.c ****         return (nbr_tasks);
 453:..\..\..\..\..\..\Software\uCOS-II\Source/os_sem.c ****     }
 454:..\..\..\..\..\..\Software\uCOS-II\Source/os_sem.c ****     OS_EXIT_CRITICAL();
 455:..\..\..\..\..\..\Software\uCOS-II\Source/os_sem.c ****     *perr = OS_ERR_NONE;
 456:..\..\..\..\..\..\Software\uCOS-II\Source/os_sem.c ****     return (0u);                                      /* No tasks waiting on semaphore             
 457:..\..\..\..\..\..\Software\uCOS-II\Source/os_sem.c **** }
 715              		.loc 1 457 1 view .LVU234
 716 0018 2800     		movs	r0, r5
 717              		@ sp needed
 718              	.LVL66:
 719              	.LVL67:
 720              		.loc 1 457 1 view .LVU235
 721 001a F8BD     		pop	{r3, r4, r5, r6, r7, pc}
 722              	.LVL68:
 723              	.L60:
 424:..\..\..\..\..\..\Software\uCOS-II\Source/os_sem.c ****         return (0u);
 724              		.loc 1 424 9 is_stmt 1 view .LVU236
 424:..\..\..\..\..\..\Software\uCOS-II\Source/os_sem.c ****         return (0u);
 725              		.loc 1 424 15 is_stmt 0 view .LVU237
 726 001c 0423     		movs	r3, #4
 727 001e 1370     		strb	r3, [r2]
 425:..\..\..\..\..\..\Software\uCOS-II\Source/os_sem.c ****     }
 728              		.loc 1 425 9 is_stmt 1 view .LVU238
 425:..\..\..\..\..\..\Software\uCOS-II\Source/os_sem.c ****     }
 729              		.loc 1 425 16 is_stmt 0 view .LVU239
 730 0020 0025     		movs	r5, #0
 731 0022 F9E7     		b	.L51
 732              	.L52:
 432:..\..\..\..\..\..\Software\uCOS-II\Source/os_sem.c ****     if (pevent->OSEventGrp != 0u) {                   /* See if any task waiting on semaphore?     
 733              		.loc 1 432 5 is_stmt 1 view .LVU240
 432:..\..\..\..\..\..\Software\uCOS-II\Source/os_sem.c ****     if (pevent->OSEventGrp != 0u) {                   /* See if any task waiting on semaphore?     
 734              		.loc 1 432 5 view .LVU241
 735 0024 FFF7FEFF 		bl	OS_CPU_SR_Save
 736              	.LVL69:
 432:..\..\..\..\..\..\Software\uCOS-II\Source/os_sem.c ****     if (pevent->OSEventGrp != 0u) {                   /* See if any task waiting on semaphore?     
 737              		.loc 1 432 5 is_stmt 0 view .LVU242
 738 0028 0600     		movs	r6, r0
 739              	.LVL70:
 433:..\..\..\..\..\..\Software\uCOS-II\Source/os_sem.c ****         nbr_tasks = 0u;
 740              		.loc 1 433 5 is_stmt 1 view .LVU243
 433:..\..\..\..\..\..\Software\uCOS-II\Source/os_sem.c ****         nbr_tasks = 0u;
 741              		.loc 1 433 15 is_stmt 0 view .LVU244
 742 002a A37A     		ldrb	r3, [r4, #10]
 433:..\..\..\..\..\..\Software\uCOS-II\Source/os_sem.c ****         nbr_tasks = 0u;
 743              		.loc 1 433 8 view .LVU245
 744 002c 002B     		cmp	r3, #0
 745 002e 1ED0     		beq	.L53
 434:..\..\..\..\..\..\Software\uCOS-II\Source/os_sem.c ****         switch (opt) {
 746              		.loc 1 434 9 is_stmt 1 view .LVU246
ARM GAS  C:\Users\EDULU~1.DES\AppData\Local\Temp\ccFs9KIj.s 			page 25


 747              	.LVL71:
 435:..\..\..\..\..\..\Software\uCOS-II\Source/os_sem.c ****             case OS_PEND_OPT_BROADCAST:               /* Do we need to abort ALL waiting tasks?    
 748              		.loc 1 435 9 view .LVU247
 749 0030 012D     		cmp	r5, #1
 750 0032 14D1     		bne	.L61
 434:..\..\..\..\..\..\Software\uCOS-II\Source/os_sem.c ****         switch (opt) {
 751              		.loc 1 434 19 is_stmt 0 view .LVU248
 752 0034 0025     		movs	r5, #0
 753 0036 07E0     		b	.L54
 754              	.LVL72:
 755              	.L56:
 438:..\..\..\..\..\..\Software\uCOS-II\Source/os_sem.c ****                      nbr_tasks++;
 756              		.loc 1 438 22 is_stmt 1 view .LVU249
 438:..\..\..\..\..\..\Software\uCOS-II\Source/os_sem.c ****                      nbr_tasks++;
 757              		.loc 1 438 28 is_stmt 0 view .LVU250
 758 0038 0223     		movs	r3, #2
 759 003a 0122     		movs	r2, #1
 760 003c 0021     		movs	r1, #0
 761 003e 2000     		movs	r0, r4
 762 0040 FFF7FEFF 		bl	OS_EventTaskRdy
 763              	.LVL73:
 439:..\..\..\..\..\..\Software\uCOS-II\Source/os_sem.c ****                  }
 764              		.loc 1 439 22 is_stmt 1 view .LVU251
 439:..\..\..\..\..\..\Software\uCOS-II\Source/os_sem.c ****                  }
 765              		.loc 1 439 31 is_stmt 0 view .LVU252
 766 0044 0135     		adds	r5, r5, #1
 767              	.LVL74:
 439:..\..\..\..\..\..\Software\uCOS-II\Source/os_sem.c ****                  }
 768              		.loc 1 439 31 view .LVU253
 769 0046 EDB2     		uxtb	r5, r5
 770              	.LVL75:
 771              	.L54:
 437:..\..\..\..\..\..\Software\uCOS-II\Source/os_sem.c ****                      (void)OS_EventTaskRdy(pevent, (void *)0, OS_STAT_SEM, OS_STAT_PEND_ABORT);
 772              		.loc 1 437 31 view .LVU254
 773 0048 A37A     		ldrb	r3, [r4, #10]
 437:..\..\..\..\..\..\Software\uCOS-II\Source/os_sem.c ****                      (void)OS_EventTaskRdy(pevent, (void *)0, OS_STAT_SEM, OS_STAT_PEND_ABORT);
 774              		.loc 1 437 24 view .LVU255
 775 004a 002B     		cmp	r3, #0
 776 004c F4D1     		bne	.L56
 777              	.LVL76:
 778              	.L57:
 449:..\..\..\..\..\..\Software\uCOS-II\Source/os_sem.c ****         OS_Sched();                                   /* Find HPT ready to run                     
 779              		.loc 1 449 9 is_stmt 1 view .LVU256
 449:..\..\..\..\..\..\Software\uCOS-II\Source/os_sem.c ****         OS_Sched();                                   /* Find HPT ready to run                     
 780              		.loc 1 449 9 view .LVU257
 781 004e 3000     		movs	r0, r6
 782 0050 FFF7FEFF 		bl	OS_CPU_SR_Restore
 783              	.LVL77:
 450:..\..\..\..\..\..\Software\uCOS-II\Source/os_sem.c ****         *perr = OS_ERR_PEND_ABORT;
 784              		.loc 1 450 9 view .LVU258
 785 0054 FFF7FEFF 		bl	OS_Sched
 786              	.LVL78:
 451:..\..\..\..\..\..\Software\uCOS-II\Source/os_sem.c ****         return (nbr_tasks);
 787              		.loc 1 451 9 view .LVU259
 451:..\..\..\..\..\..\Software\uCOS-II\Source/os_sem.c ****         return (nbr_tasks);
 788              		.loc 1 451 15 is_stmt 0 view .LVU260
 789 0058 0E23     		movs	r3, #14
ARM GAS  C:\Users\EDULU~1.DES\AppData\Local\Temp\ccFs9KIj.s 			page 26


 790 005a 3B70     		strb	r3, [r7]
 452:..\..\..\..\..\..\Software\uCOS-II\Source/os_sem.c ****     }
 791              		.loc 1 452 9 is_stmt 1 view .LVU261
 452:..\..\..\..\..\..\Software\uCOS-II\Source/os_sem.c ****     }
 792              		.loc 1 452 16 is_stmt 0 view .LVU262
 793 005c DCE7     		b	.L51
 794              	.LVL79:
 795              	.L61:
 445:..\..\..\..\..\..\Software\uCOS-II\Source/os_sem.c ****                  nbr_tasks++;
 796              		.loc 1 445 18 is_stmt 1 view .LVU263
 445:..\..\..\..\..\..\Software\uCOS-II\Source/os_sem.c ****                  nbr_tasks++;
 797              		.loc 1 445 24 is_stmt 0 view .LVU264
 798 005e 0223     		movs	r3, #2
 799 0060 0122     		movs	r2, #1
 800 0062 0021     		movs	r1, #0
 801 0064 2000     		movs	r0, r4
 802              	.LVL80:
 445:..\..\..\..\..\..\Software\uCOS-II\Source/os_sem.c ****                  nbr_tasks++;
 803              		.loc 1 445 24 view .LVU265
 804 0066 FFF7FEFF 		bl	OS_EventTaskRdy
 805              	.LVL81:
 446:..\..\..\..\..\..\Software\uCOS-II\Source/os_sem.c ****                  break;
 806              		.loc 1 446 18 is_stmt 1 view .LVU266
 447:..\..\..\..\..\..\Software\uCOS-II\Source/os_sem.c ****         }
 807              		.loc 1 447 18 view .LVU267
 446:..\..\..\..\..\..\Software\uCOS-II\Source/os_sem.c ****                  break;
 808              		.loc 1 446 27 is_stmt 0 view .LVU268
 809 006a 0125     		movs	r5, #1
 447:..\..\..\..\..\..\Software\uCOS-II\Source/os_sem.c ****         }
 810              		.loc 1 447 18 view .LVU269
 811 006c EFE7     		b	.L57
 812              	.LVL82:
 813              	.L53:
 454:..\..\..\..\..\..\Software\uCOS-II\Source/os_sem.c ****     *perr = OS_ERR_NONE;
 814              		.loc 1 454 5 is_stmt 1 view .LVU270
 454:..\..\..\..\..\..\Software\uCOS-II\Source/os_sem.c ****     *perr = OS_ERR_NONE;
 815              		.loc 1 454 5 view .LVU271
 816 006e FFF7FEFF 		bl	OS_CPU_SR_Restore
 817              	.LVL83:
 455:..\..\..\..\..\..\Software\uCOS-II\Source/os_sem.c ****     return (0u);                                      /* No tasks waiting on semaphore             
 818              		.loc 1 455 5 view .LVU272
 455:..\..\..\..\..\..\Software\uCOS-II\Source/os_sem.c ****     return (0u);                                      /* No tasks waiting on semaphore             
 819              		.loc 1 455 11 is_stmt 0 view .LVU273
 820 0072 0023     		movs	r3, #0
 821 0074 3B70     		strb	r3, [r7]
 456:..\..\..\..\..\..\Software\uCOS-II\Source/os_sem.c **** }
 822              		.loc 1 456 5 is_stmt 1 view .LVU274
 456:..\..\..\..\..\..\Software\uCOS-II\Source/os_sem.c **** }
 823              		.loc 1 456 12 is_stmt 0 view .LVU275
 824 0076 0025     		movs	r5, #0
 825 0078 CEE7     		b	.L51
 826              		.cfi_endproc
 827              	.LFE7:
 828              		.size	OSSemPendAbort, .-OSSemPendAbort
 829              		.section	.text.OSSemPost,"ax",%progbits
 830              		.align	1
 831              		.global	OSSemPost
ARM GAS  C:\Users\EDULU~1.DES\AppData\Local\Temp\ccFs9KIj.s 			page 27


 832              		.syntax unified
 833              		.code	16
 834              		.thumb_func
 835              		.fpu softvfp
 836              		.type	OSSemPost, %function
 837              	OSSemPost:
 838              	.LVL84:
 839              	.LFB8:
 458:..\..\..\..\..\..\Software\uCOS-II\Source/os_sem.c **** #endif
 459:..\..\..\..\..\..\Software\uCOS-II\Source/os_sem.c **** 
 460:..\..\..\..\..\..\Software\uCOS-II\Source/os_sem.c **** /*$PAGE*/
 461:..\..\..\..\..\..\Software\uCOS-II\Source/os_sem.c **** /*
 462:..\..\..\..\..\..\Software\uCOS-II\Source/os_sem.c **** ***************************************************************************************************
 463:..\..\..\..\..\..\Software\uCOS-II\Source/os_sem.c **** *                                         POST TO A SEMAPHORE
 464:..\..\..\..\..\..\Software\uCOS-II\Source/os_sem.c **** *
 465:..\..\..\..\..\..\Software\uCOS-II\Source/os_sem.c **** * Description: This function signals a semaphore
 466:..\..\..\..\..\..\Software\uCOS-II\Source/os_sem.c **** *
 467:..\..\..\..\..\..\Software\uCOS-II\Source/os_sem.c **** * Arguments  : pevent        is a pointer to the event control block associated with the desired
 468:..\..\..\..\..\..\Software\uCOS-II\Source/os_sem.c **** *                            semaphore.
 469:..\..\..\..\..\..\Software\uCOS-II\Source/os_sem.c **** *
 470:..\..\..\..\..\..\Software\uCOS-II\Source/os_sem.c **** * Returns    : OS_ERR_NONE         The call was successful and the semaphore was signaled.
 471:..\..\..\..\..\..\Software\uCOS-II\Source/os_sem.c **** *              OS_ERR_SEM_OVF      If the semaphore count exceeded its limit. In other words, you h
 472:..\..\..\..\..\..\Software\uCOS-II\Source/os_sem.c **** *                                  signaled the semaphore more often than you waited on it with eit
 473:..\..\..\..\..\..\Software\uCOS-II\Source/os_sem.c **** *                                  OSSemAccept() or OSSemPend().
 474:..\..\..\..\..\..\Software\uCOS-II\Source/os_sem.c **** *              OS_ERR_EVENT_TYPE   If you didn't pass a pointer to a semaphore
 475:..\..\..\..\..\..\Software\uCOS-II\Source/os_sem.c **** *              OS_ERR_PEVENT_NULL  If 'pevent' is a NULL pointer.
 476:..\..\..\..\..\..\Software\uCOS-II\Source/os_sem.c **** ***************************************************************************************************
 477:..\..\..\..\..\..\Software\uCOS-II\Source/os_sem.c **** */
 478:..\..\..\..\..\..\Software\uCOS-II\Source/os_sem.c **** 
 479:..\..\..\..\..\..\Software\uCOS-II\Source/os_sem.c **** INT8U  OSSemPost (OS_EVENT *pevent)
 480:..\..\..\..\..\..\Software\uCOS-II\Source/os_sem.c **** {
 840              		.loc 1 480 1 is_stmt 1 view -0
 841              		.cfi_startproc
 842              		@ args = 0, pretend = 0, frame = 0
 843              		@ frame_needed = 0, uses_anonymous_args = 0
 844              		.loc 1 480 1 is_stmt 0 view .LVU277
 845 0000 70B5     		push	{r4, r5, r6, lr}
 846              		.cfi_def_cfa_offset 16
 847              		.cfi_offset 4, -16
 848              		.cfi_offset 5, -12
 849              		.cfi_offset 6, -8
 850              		.cfi_offset 14, -4
 851 0002 041E     		subs	r4, r0, #0
 481:..\..\..\..\..\..\Software\uCOS-II\Source/os_sem.c **** #if OS_CRITICAL_METHOD == 3u                          /* Allocate storage for CPU status register  
 482:..\..\..\..\..\..\Software\uCOS-II\Source/os_sem.c ****     OS_CPU_SR  cpu_sr = 0u;
 852              		.loc 1 482 5 is_stmt 1 view .LVU278
 853              	.LVL85:
 483:..\..\..\..\..\..\Software\uCOS-II\Source/os_sem.c **** #endif
 484:..\..\..\..\..\..\Software\uCOS-II\Source/os_sem.c **** 
 485:..\..\..\..\..\..\Software\uCOS-II\Source/os_sem.c **** 
 486:..\..\..\..\..\..\Software\uCOS-II\Source/os_sem.c **** 
 487:..\..\..\..\..\..\Software\uCOS-II\Source/os_sem.c **** #if OS_ARG_CHK_EN > 0u
 488:..\..\..\..\..\..\Software\uCOS-II\Source/os_sem.c ****     if (pevent == (OS_EVENT *)0) {                    /* Validate 'pevent'                         
 854              		.loc 1 488 5 view .LVU279
 855              		.loc 1 488 8 is_stmt 0 view .LVU280
 856 0004 25D0     		beq	.L66
 489:..\..\..\..\..\..\Software\uCOS-II\Source/os_sem.c ****         return (OS_ERR_PEVENT_NULL);
ARM GAS  C:\Users\EDULU~1.DES\AppData\Local\Temp\ccFs9KIj.s 			page 28


 490:..\..\..\..\..\..\Software\uCOS-II\Source/os_sem.c ****     }
 491:..\..\..\..\..\..\Software\uCOS-II\Source/os_sem.c **** #endif
 492:..\..\..\..\..\..\Software\uCOS-II\Source/os_sem.c ****     if (pevent->OSEventType != OS_EVENT_TYPE_SEM) {   /* Validate event block type                 
 857              		.loc 1 492 5 is_stmt 1 view .LVU281
 858              		.loc 1 492 15 is_stmt 0 view .LVU282
 859 0006 0378     		ldrb	r3, [r0]
 860              		.loc 1 492 8 view .LVU283
 861 0008 032B     		cmp	r3, #3
 862 000a 01D0     		beq	.L68
 493:..\..\..\..\..\..\Software\uCOS-II\Source/os_sem.c ****         return (OS_ERR_EVENT_TYPE);
 863              		.loc 1 493 16 view .LVU284
 864 000c 0120     		movs	r0, #1
 865              	.LVL86:
 866              	.L63:
 494:..\..\..\..\..\..\Software\uCOS-II\Source/os_sem.c ****     }
 495:..\..\..\..\..\..\Software\uCOS-II\Source/os_sem.c ****     OS_ENTER_CRITICAL();
 496:..\..\..\..\..\..\Software\uCOS-II\Source/os_sem.c ****     if (pevent->OSEventGrp != 0u) {                   /* See if any task waiting for semaphore     
 497:..\..\..\..\..\..\Software\uCOS-II\Source/os_sem.c ****                                                       /* Ready HPT waiting on event                
 498:..\..\..\..\..\..\Software\uCOS-II\Source/os_sem.c ****         (void)OS_EventTaskRdy(pevent, (void *)0, OS_STAT_SEM, OS_STAT_PEND_OK);
 499:..\..\..\..\..\..\Software\uCOS-II\Source/os_sem.c ****         OS_EXIT_CRITICAL();
 500:..\..\..\..\..\..\Software\uCOS-II\Source/os_sem.c ****         OS_Sched();                                   /* Find HPT ready to run                     
 501:..\..\..\..\..\..\Software\uCOS-II\Source/os_sem.c ****         return (OS_ERR_NONE);
 502:..\..\..\..\..\..\Software\uCOS-II\Source/os_sem.c ****     }
 503:..\..\..\..\..\..\Software\uCOS-II\Source/os_sem.c ****     if (pevent->OSEventCnt < 65535u) {                /* Make sure semaphore will not overflow     
 504:..\..\..\..\..\..\Software\uCOS-II\Source/os_sem.c ****         pevent->OSEventCnt++;                         /* Increment semaphore count to register even
 505:..\..\..\..\..\..\Software\uCOS-II\Source/os_sem.c ****         OS_EXIT_CRITICAL();
 506:..\..\..\..\..\..\Software\uCOS-II\Source/os_sem.c ****         return (OS_ERR_NONE);
 507:..\..\..\..\..\..\Software\uCOS-II\Source/os_sem.c ****     }
 508:..\..\..\..\..\..\Software\uCOS-II\Source/os_sem.c ****     OS_EXIT_CRITICAL();                               /* Semaphore value has reached its maximum   
 509:..\..\..\..\..\..\Software\uCOS-II\Source/os_sem.c ****     return (OS_ERR_SEM_OVF);
 510:..\..\..\..\..\..\Software\uCOS-II\Source/os_sem.c **** }
 867              		.loc 1 510 1 view .LVU285
 868              		@ sp needed
 869              	.LVL87:
 870              		.loc 1 510 1 view .LVU286
 871 000e 70BD     		pop	{r4, r5, r6, pc}
 872              	.LVL88:
 873              	.L68:
 495:..\..\..\..\..\..\Software\uCOS-II\Source/os_sem.c ****     if (pevent->OSEventGrp != 0u) {                   /* See if any task waiting for semaphore     
 874              		.loc 1 495 5 is_stmt 1 view .LVU287
 495:..\..\..\..\..\..\Software\uCOS-II\Source/os_sem.c ****     if (pevent->OSEventGrp != 0u) {                   /* See if any task waiting for semaphore     
 875              		.loc 1 495 5 view .LVU288
 876 0010 FFF7FEFF 		bl	OS_CPU_SR_Save
 877              	.LVL89:
 495:..\..\..\..\..\..\Software\uCOS-II\Source/os_sem.c ****     if (pevent->OSEventGrp != 0u) {                   /* See if any task waiting for semaphore     
 878              		.loc 1 495 5 is_stmt 0 view .LVU289
 879 0014 0500     		movs	r5, r0
 880              	.LVL90:
 496:..\..\..\..\..\..\Software\uCOS-II\Source/os_sem.c ****                                                       /* Ready HPT waiting on event                
 881              		.loc 1 496 5 is_stmt 1 view .LVU290
 496:..\..\..\..\..\..\Software\uCOS-II\Source/os_sem.c ****                                                       /* Ready HPT waiting on event                
 882              		.loc 1 496 15 is_stmt 0 view .LVU291
 883 0016 A37A     		ldrb	r3, [r4, #10]
 496:..\..\..\..\..\..\Software\uCOS-II\Source/os_sem.c ****                                                       /* Ready HPT waiting on event                
 884              		.loc 1 496 8 view .LVU292
 885 0018 002B     		cmp	r3, #0
 886 001a 09D1     		bne	.L69
ARM GAS  C:\Users\EDULU~1.DES\AppData\Local\Temp\ccFs9KIj.s 			page 29


 503:..\..\..\..\..\..\Software\uCOS-II\Source/os_sem.c ****         pevent->OSEventCnt++;                         /* Increment semaphore count to register even
 887              		.loc 1 503 5 is_stmt 1 view .LVU293
 503:..\..\..\..\..\..\Software\uCOS-II\Source/os_sem.c ****         pevent->OSEventCnt++;                         /* Increment semaphore count to register even
 888              		.loc 1 503 15 is_stmt 0 view .LVU294
 889 001c 2389     		ldrh	r3, [r4, #8]
 503:..\..\..\..\..\..\Software\uCOS-II\Source/os_sem.c ****         pevent->OSEventCnt++;                         /* Increment semaphore count to register even
 890              		.loc 1 503 8 view .LVU295
 891 001e 0E4A     		ldr	r2, .L70
 892 0020 9342     		cmp	r3, r2
 893 0022 12D0     		beq	.L65
 504:..\..\..\..\..\..\Software\uCOS-II\Source/os_sem.c ****         OS_EXIT_CRITICAL();
 894              		.loc 1 504 9 is_stmt 1 view .LVU296
 504:..\..\..\..\..\..\Software\uCOS-II\Source/os_sem.c ****         OS_EXIT_CRITICAL();
 895              		.loc 1 504 27 is_stmt 0 view .LVU297
 896 0024 0133     		adds	r3, r3, #1
 897 0026 2381     		strh	r3, [r4, #8]
 505:..\..\..\..\..\..\Software\uCOS-II\Source/os_sem.c ****         return (OS_ERR_NONE);
 898              		.loc 1 505 9 is_stmt 1 view .LVU298
 505:..\..\..\..\..\..\Software\uCOS-II\Source/os_sem.c ****         return (OS_ERR_NONE);
 899              		.loc 1 505 9 view .LVU299
 900 0028 FFF7FEFF 		bl	OS_CPU_SR_Restore
 901              	.LVL91:
 506:..\..\..\..\..\..\Software\uCOS-II\Source/os_sem.c ****     }
 902              		.loc 1 506 9 view .LVU300
 506:..\..\..\..\..\..\Software\uCOS-II\Source/os_sem.c ****     }
 903              		.loc 1 506 16 is_stmt 0 view .LVU301
 904 002c 0020     		movs	r0, #0
 905 002e EEE7     		b	.L63
 906              	.LVL92:
 907              	.L69:
 498:..\..\..\..\..\..\Software\uCOS-II\Source/os_sem.c ****         OS_EXIT_CRITICAL();
 908              		.loc 1 498 9 is_stmt 1 view .LVU302
 498:..\..\..\..\..\..\Software\uCOS-II\Source/os_sem.c ****         OS_EXIT_CRITICAL();
 909              		.loc 1 498 15 is_stmt 0 view .LVU303
 910 0030 0023     		movs	r3, #0
 911 0032 0122     		movs	r2, #1
 912 0034 0021     		movs	r1, #0
 913 0036 2000     		movs	r0, r4
 914              	.LVL93:
 498:..\..\..\..\..\..\Software\uCOS-II\Source/os_sem.c ****         OS_EXIT_CRITICAL();
 915              		.loc 1 498 15 view .LVU304
 916 0038 FFF7FEFF 		bl	OS_EventTaskRdy
 917              	.LVL94:
 499:..\..\..\..\..\..\Software\uCOS-II\Source/os_sem.c ****         OS_Sched();                                   /* Find HPT ready to run                     
 918              		.loc 1 499 9 is_stmt 1 view .LVU305
 499:..\..\..\..\..\..\Software\uCOS-II\Source/os_sem.c ****         OS_Sched();                                   /* Find HPT ready to run                     
 919              		.loc 1 499 9 view .LVU306
 920 003c 2800     		movs	r0, r5
 921 003e FFF7FEFF 		bl	OS_CPU_SR_Restore
 922              	.LVL95:
 500:..\..\..\..\..\..\Software\uCOS-II\Source/os_sem.c ****         return (OS_ERR_NONE);
 923              		.loc 1 500 9 view .LVU307
 924 0042 FFF7FEFF 		bl	OS_Sched
 925              	.LVL96:
 501:..\..\..\..\..\..\Software\uCOS-II\Source/os_sem.c ****     }
 926              		.loc 1 501 9 view .LVU308
 501:..\..\..\..\..\..\Software\uCOS-II\Source/os_sem.c ****     }
ARM GAS  C:\Users\EDULU~1.DES\AppData\Local\Temp\ccFs9KIj.s 			page 30


 927              		.loc 1 501 16 is_stmt 0 view .LVU309
 928 0046 0020     		movs	r0, #0
 929 0048 E1E7     		b	.L63
 930              	.LVL97:
 931              	.L65:
 508:..\..\..\..\..\..\Software\uCOS-II\Source/os_sem.c ****     return (OS_ERR_SEM_OVF);
 932              		.loc 1 508 5 is_stmt 1 view .LVU310
 508:..\..\..\..\..\..\Software\uCOS-II\Source/os_sem.c ****     return (OS_ERR_SEM_OVF);
 933              		.loc 1 508 5 view .LVU311
 934 004a FFF7FEFF 		bl	OS_CPU_SR_Restore
 935              	.LVL98:
 509:..\..\..\..\..\..\Software\uCOS-II\Source/os_sem.c **** }
 936              		.loc 1 509 5 view .LVU312
 509:..\..\..\..\..\..\Software\uCOS-II\Source/os_sem.c **** }
 937              		.loc 1 509 12 is_stmt 0 view .LVU313
 938 004e 3320     		movs	r0, #51
 939 0050 DDE7     		b	.L63
 940              	.LVL99:
 941              	.L66:
 489:..\..\..\..\..\..\Software\uCOS-II\Source/os_sem.c ****     }
 942              		.loc 1 489 16 view .LVU314
 943 0052 0420     		movs	r0, #4
 944              	.LVL100:
 489:..\..\..\..\..\..\Software\uCOS-II\Source/os_sem.c ****     }
 945              		.loc 1 489 16 view .LVU315
 946 0054 DBE7     		b	.L63
 947              	.L71:
 948 0056 C046     		.align	2
 949              	.L70:
 950 0058 FFFF0000 		.word	65535
 951              		.cfi_endproc
 952              	.LFE8:
 953              		.size	OSSemPost, .-OSSemPost
 954              		.section	.text.OSSemQuery,"ax",%progbits
 955              		.align	1
 956              		.global	OSSemQuery
 957              		.syntax unified
 958              		.code	16
 959              		.thumb_func
 960              		.fpu softvfp
 961              		.type	OSSemQuery, %function
 962              	OSSemQuery:
 963              	.LVL101:
 964              	.LFB9:
 511:..\..\..\..\..\..\Software\uCOS-II\Source/os_sem.c **** 
 512:..\..\..\..\..\..\Software\uCOS-II\Source/os_sem.c **** /*$PAGE*/
 513:..\..\..\..\..\..\Software\uCOS-II\Source/os_sem.c **** /*
 514:..\..\..\..\..\..\Software\uCOS-II\Source/os_sem.c **** ***************************************************************************************************
 515:..\..\..\..\..\..\Software\uCOS-II\Source/os_sem.c **** *                                          QUERY A SEMAPHORE
 516:..\..\..\..\..\..\Software\uCOS-II\Source/os_sem.c **** *
 517:..\..\..\..\..\..\Software\uCOS-II\Source/os_sem.c **** * Description: This function obtains information about a semaphore
 518:..\..\..\..\..\..\Software\uCOS-II\Source/os_sem.c **** *
 519:..\..\..\..\..\..\Software\uCOS-II\Source/os_sem.c **** * Arguments  : pevent        is a pointer to the event control block associated with the desired
 520:..\..\..\..\..\..\Software\uCOS-II\Source/os_sem.c **** *                            semaphore
 521:..\..\..\..\..\..\Software\uCOS-II\Source/os_sem.c **** *
 522:..\..\..\..\..\..\Software\uCOS-II\Source/os_sem.c **** *              p_sem_data    is a pointer to a structure that will contain information about the
 523:..\..\..\..\..\..\Software\uCOS-II\Source/os_sem.c **** *                            semaphore.
ARM GAS  C:\Users\EDULU~1.DES\AppData\Local\Temp\ccFs9KIj.s 			page 31


 524:..\..\..\..\..\..\Software\uCOS-II\Source/os_sem.c **** *
 525:..\..\..\..\..\..\Software\uCOS-II\Source/os_sem.c **** * Returns    : OS_ERR_NONE         The call was successful and the message was sent
 526:..\..\..\..\..\..\Software\uCOS-II\Source/os_sem.c **** *              OS_ERR_EVENT_TYPE   If you are attempting to obtain data from a non semaphore.
 527:..\..\..\..\..\..\Software\uCOS-II\Source/os_sem.c **** *              OS_ERR_PEVENT_NULL  If 'pevent'     is a NULL pointer.
 528:..\..\..\..\..\..\Software\uCOS-II\Source/os_sem.c **** *              OS_ERR_PDATA_NULL   If 'p_sem_data' is a NULL pointer
 529:..\..\..\..\..\..\Software\uCOS-II\Source/os_sem.c **** ***************************************************************************************************
 530:..\..\..\..\..\..\Software\uCOS-II\Source/os_sem.c **** */
 531:..\..\..\..\..\..\Software\uCOS-II\Source/os_sem.c **** 
 532:..\..\..\..\..\..\Software\uCOS-II\Source/os_sem.c **** #if OS_SEM_QUERY_EN > 0u
 533:..\..\..\..\..\..\Software\uCOS-II\Source/os_sem.c **** INT8U  OSSemQuery (OS_EVENT     *pevent,
 534:..\..\..\..\..\..\Software\uCOS-II\Source/os_sem.c ****                    OS_SEM_DATA  *p_sem_data)
 535:..\..\..\..\..\..\Software\uCOS-II\Source/os_sem.c **** {
 965              		.loc 1 535 1 is_stmt 1 view -0
 966              		.cfi_startproc
 967              		@ args = 0, pretend = 0, frame = 0
 968              		@ frame_needed = 0, uses_anonymous_args = 0
 969              		.loc 1 535 1 is_stmt 0 view .LVU317
 970 0000 70B5     		push	{r4, r5, r6, lr}
 971              		.cfi_def_cfa_offset 16
 972              		.cfi_offset 4, -16
 973              		.cfi_offset 5, -12
 974              		.cfi_offset 6, -8
 975              		.cfi_offset 14, -4
 976 0002 0400     		movs	r4, r0
 977 0004 0D00     		movs	r5, r1
 536:..\..\..\..\..\..\Software\uCOS-II\Source/os_sem.c ****     INT8U       i;
 978              		.loc 1 536 5 is_stmt 1 view .LVU318
 537:..\..\..\..\..\..\Software\uCOS-II\Source/os_sem.c ****     OS_PRIO    *psrc;
 979              		.loc 1 537 5 view .LVU319
 538:..\..\..\..\..\..\Software\uCOS-II\Source/os_sem.c ****     OS_PRIO    *pdest;
 980              		.loc 1 538 5 view .LVU320
 539:..\..\..\..\..\..\Software\uCOS-II\Source/os_sem.c **** #if OS_CRITICAL_METHOD == 3u                               /* Allocate storage for CPU status regis
 540:..\..\..\..\..\..\Software\uCOS-II\Source/os_sem.c ****     OS_CPU_SR   cpu_sr = 0u;
 981              		.loc 1 540 5 view .LVU321
 982              	.LVL102:
 541:..\..\..\..\..\..\Software\uCOS-II\Source/os_sem.c **** #endif
 542:..\..\..\..\..\..\Software\uCOS-II\Source/os_sem.c **** 
 543:..\..\..\..\..\..\Software\uCOS-II\Source/os_sem.c **** 
 544:..\..\..\..\..\..\Software\uCOS-II\Source/os_sem.c **** 
 545:..\..\..\..\..\..\Software\uCOS-II\Source/os_sem.c **** #if OS_ARG_CHK_EN > 0u
 546:..\..\..\..\..\..\Software\uCOS-II\Source/os_sem.c ****     if (pevent == (OS_EVENT *)0) {                         /* Validate 'pevent'                    
 983              		.loc 1 546 5 view .LVU322
 984              		.loc 1 546 8 is_stmt 0 view .LVU323
 985 0006 0028     		cmp	r0, #0
 986 0008 1DD0     		beq	.L76
 547:..\..\..\..\..\..\Software\uCOS-II\Source/os_sem.c ****         return (OS_ERR_PEVENT_NULL);
 548:..\..\..\..\..\..\Software\uCOS-II\Source/os_sem.c ****     }
 549:..\..\..\..\..\..\Software\uCOS-II\Source/os_sem.c ****     if (p_sem_data == (OS_SEM_DATA *)0) {                  /* Validate 'p_sem_data'                
 987              		.loc 1 549 5 is_stmt 1 view .LVU324
 988              		.loc 1 549 8 is_stmt 0 view .LVU325
 989 000a 0029     		cmp	r1, #0
 990 000c 1DD0     		beq	.L77
 550:..\..\..\..\..\..\Software\uCOS-II\Source/os_sem.c ****         return (OS_ERR_PDATA_NULL);
 551:..\..\..\..\..\..\Software\uCOS-II\Source/os_sem.c ****     }
 552:..\..\..\..\..\..\Software\uCOS-II\Source/os_sem.c **** #endif
 553:..\..\..\..\..\..\Software\uCOS-II\Source/os_sem.c ****     if (pevent->OSEventType != OS_EVENT_TYPE_SEM) {        /* Validate event block type            
 991              		.loc 1 553 5 is_stmt 1 view .LVU326
ARM GAS  C:\Users\EDULU~1.DES\AppData\Local\Temp\ccFs9KIj.s 			page 32


 992              		.loc 1 553 15 is_stmt 0 view .LVU327
 993 000e 0378     		ldrb	r3, [r0]
 994              		.loc 1 553 8 view .LVU328
 995 0010 032B     		cmp	r3, #3
 996 0012 01D0     		beq	.L79
 554:..\..\..\..\..\..\Software\uCOS-II\Source/os_sem.c ****         return (OS_ERR_EVENT_TYPE);
 997              		.loc 1 554 16 view .LVU329
 998 0014 0120     		movs	r0, #1
 999              	.LVL103:
 1000              	.L73:
 555:..\..\..\..\..\..\Software\uCOS-II\Source/os_sem.c ****     }
 556:..\..\..\..\..\..\Software\uCOS-II\Source/os_sem.c ****     OS_ENTER_CRITICAL();
 557:..\..\..\..\..\..\Software\uCOS-II\Source/os_sem.c ****     p_sem_data->OSEventGrp = pevent->OSEventGrp;           /* Copy message mailbox wait list       
 558:..\..\..\..\..\..\Software\uCOS-II\Source/os_sem.c ****     psrc                   = &pevent->OSEventTbl[0];
 559:..\..\..\..\..\..\Software\uCOS-II\Source/os_sem.c ****     pdest                  = &p_sem_data->OSEventTbl[0];
 560:..\..\..\..\..\..\Software\uCOS-II\Source/os_sem.c ****     for (i = 0u; i < OS_EVENT_TBL_SIZE; i++) {
 561:..\..\..\..\..\..\Software\uCOS-II\Source/os_sem.c ****         *pdest++ = *psrc++;
 562:..\..\..\..\..\..\Software\uCOS-II\Source/os_sem.c ****     }
 563:..\..\..\..\..\..\Software\uCOS-II\Source/os_sem.c ****     p_sem_data->OSCnt = pevent->OSEventCnt;                /* Get semaphore count                  
 564:..\..\..\..\..\..\Software\uCOS-II\Source/os_sem.c ****     OS_EXIT_CRITICAL();
 565:..\..\..\..\..\..\Software\uCOS-II\Source/os_sem.c ****     return (OS_ERR_NONE);
 566:..\..\..\..\..\..\Software\uCOS-II\Source/os_sem.c **** }
 1001              		.loc 1 566 1 view .LVU330
 1002              		@ sp needed
 1003              	.LVL104:
 1004              	.LVL105:
 1005              		.loc 1 566 1 view .LVU331
 1006 0016 70BD     		pop	{r4, r5, r6, pc}
 1007              	.LVL106:
 1008              	.L79:
 556:..\..\..\..\..\..\Software\uCOS-II\Source/os_sem.c ****     p_sem_data->OSEventGrp = pevent->OSEventGrp;           /* Copy message mailbox wait list       
 1009              		.loc 1 556 5 is_stmt 1 view .LVU332
 556:..\..\..\..\..\..\Software\uCOS-II\Source/os_sem.c ****     p_sem_data->OSEventGrp = pevent->OSEventGrp;           /* Copy message mailbox wait list       
 1010              		.loc 1 556 5 view .LVU333
 1011 0018 FFF7FEFF 		bl	OS_CPU_SR_Save
 1012              	.LVL107:
 557:..\..\..\..\..\..\Software\uCOS-II\Source/os_sem.c ****     psrc                   = &pevent->OSEventTbl[0];
 1013              		.loc 1 557 5 view .LVU334
 557:..\..\..\..\..\..\Software\uCOS-II\Source/os_sem.c ****     psrc                   = &pevent->OSEventTbl[0];
 1014              		.loc 1 557 36 is_stmt 0 view .LVU335
 1015 001c A37A     		ldrb	r3, [r4, #10]
 557:..\..\..\..\..\..\Software\uCOS-II\Source/os_sem.c ****     psrc                   = &pevent->OSEventTbl[0];
 1016              		.loc 1 557 28 view .LVU336
 1017 001e AB71     		strb	r3, [r5, #6]
 558:..\..\..\..\..\..\Software\uCOS-II\Source/os_sem.c ****     pdest                  = &p_sem_data->OSEventTbl[0];
 1018              		.loc 1 558 5 is_stmt 1 view .LVU337
 558:..\..\..\..\..\..\Software\uCOS-II\Source/os_sem.c ****     pdest                  = &p_sem_data->OSEventTbl[0];
 1019              		.loc 1 558 28 is_stmt 0 view .LVU338
 1020 0020 2100     		movs	r1, r4
 1021 0022 0B31     		adds	r1, r1, #11
 1022              	.LVL108:
 559:..\..\..\..\..\..\Software\uCOS-II\Source/os_sem.c ****     for (i = 0u; i < OS_EVENT_TBL_SIZE; i++) {
 1023              		.loc 1 559 5 is_stmt 1 view .LVU339
 559:..\..\..\..\..\..\Software\uCOS-II\Source/os_sem.c ****     for (i = 0u; i < OS_EVENT_TBL_SIZE; i++) {
 1024              		.loc 1 559 28 is_stmt 0 view .LVU340
 1025 0024 AA1C     		adds	r2, r5, #2
 1026              	.LVL109:
ARM GAS  C:\Users\EDULU~1.DES\AppData\Local\Temp\ccFs9KIj.s 			page 33


 560:..\..\..\..\..\..\Software\uCOS-II\Source/os_sem.c ****         *pdest++ = *psrc++;
 1027              		.loc 1 560 5 is_stmt 1 view .LVU341
 560:..\..\..\..\..\..\Software\uCOS-II\Source/os_sem.c ****         *pdest++ = *psrc++;
 1028              		.loc 1 560 12 is_stmt 0 view .LVU342
 1029 0026 0023     		movs	r3, #0
 560:..\..\..\..\..\..\Software\uCOS-II\Source/os_sem.c ****         *pdest++ = *psrc++;
 1030              		.loc 1 560 5 view .LVU343
 1031 0028 05E0     		b	.L74
 1032              	.LVL110:
 1033              	.L75:
 561:..\..\..\..\..\..\Software\uCOS-II\Source/os_sem.c ****     }
 1034              		.loc 1 561 9 is_stmt 1 discriminator 3 view .LVU344
 561:..\..\..\..\..\..\Software\uCOS-II\Source/os_sem.c ****     }
 1035              		.loc 1 561 20 is_stmt 0 discriminator 3 view .LVU345
 1036 002a 0E78     		ldrb	r6, [r1]
 561:..\..\..\..\..\..\Software\uCOS-II\Source/os_sem.c ****     }
 1037              		.loc 1 561 18 discriminator 3 view .LVU346
 1038 002c 1670     		strb	r6, [r2]
 560:..\..\..\..\..\..\Software\uCOS-II\Source/os_sem.c ****         *pdest++ = *psrc++;
 1039              		.loc 1 560 42 discriminator 3 view .LVU347
 1040 002e 0133     		adds	r3, r3, #1
 1041              	.LVL111:
 560:..\..\..\..\..\..\Software\uCOS-II\Source/os_sem.c ****         *pdest++ = *psrc++;
 1042              		.loc 1 560 42 discriminator 3 view .LVU348
 1043 0030 DBB2     		uxtb	r3, r3
 1044              	.LVL112:
 561:..\..\..\..\..\..\Software\uCOS-II\Source/os_sem.c ****     }
 1045              		.loc 1 561 15 discriminator 3 view .LVU349
 1046 0032 0132     		adds	r2, r2, #1
 1047              	.LVL113:
 561:..\..\..\..\..\..\Software\uCOS-II\Source/os_sem.c ****     }
 1048              		.loc 1 561 25 discriminator 3 view .LVU350
 1049 0034 0131     		adds	r1, r1, #1
 1050              	.LVL114:
 1051              	.L74:
 560:..\..\..\..\..\..\Software\uCOS-II\Source/os_sem.c ****         *pdest++ = *psrc++;
 1052              		.loc 1 560 5 discriminator 1 view .LVU351
 1053 0036 032B     		cmp	r3, #3
 1054 0038 F7D9     		bls	.L75
 563:..\..\..\..\..\..\Software\uCOS-II\Source/os_sem.c ****     OS_EXIT_CRITICAL();
 1055              		.loc 1 563 5 is_stmt 1 view .LVU352
 563:..\..\..\..\..\..\Software\uCOS-II\Source/os_sem.c ****     OS_EXIT_CRITICAL();
 1056              		.loc 1 563 31 is_stmt 0 view .LVU353
 1057 003a 2389     		ldrh	r3, [r4, #8]
 1058              	.LVL115:
 563:..\..\..\..\..\..\Software\uCOS-II\Source/os_sem.c ****     OS_EXIT_CRITICAL();
 1059              		.loc 1 563 23 view .LVU354
 1060 003c 2B80     		strh	r3, [r5]
 564:..\..\..\..\..\..\Software\uCOS-II\Source/os_sem.c ****     return (OS_ERR_NONE);
 1061              		.loc 1 564 5 is_stmt 1 view .LVU355
 564:..\..\..\..\..\..\Software\uCOS-II\Source/os_sem.c ****     return (OS_ERR_NONE);
 1062              		.loc 1 564 5 view .LVU356
 1063 003e FFF7FEFF 		bl	OS_CPU_SR_Restore
 1064              	.LVL116:
 565:..\..\..\..\..\..\Software\uCOS-II\Source/os_sem.c **** }
 1065              		.loc 1 565 5 view .LVU357
 565:..\..\..\..\..\..\Software\uCOS-II\Source/os_sem.c **** }
ARM GAS  C:\Users\EDULU~1.DES\AppData\Local\Temp\ccFs9KIj.s 			page 34


 1066              		.loc 1 565 12 is_stmt 0 view .LVU358
 1067 0042 0020     		movs	r0, #0
 1068 0044 E7E7     		b	.L73
 1069              	.LVL117:
 1070              	.L76:
 547:..\..\..\..\..\..\Software\uCOS-II\Source/os_sem.c ****     }
 1071              		.loc 1 547 16 view .LVU359
 1072 0046 0420     		movs	r0, #4
 1073              	.LVL118:
 547:..\..\..\..\..\..\Software\uCOS-II\Source/os_sem.c ****     }
 1074              		.loc 1 547 16 view .LVU360
 1075 0048 E5E7     		b	.L73
 1076              	.LVL119:
 1077              	.L77:
 550:..\..\..\..\..\..\Software\uCOS-II\Source/os_sem.c ****     }
 1078              		.loc 1 550 16 view .LVU361
 1079 004a 0920     		movs	r0, #9
 1080              	.LVL120:
 550:..\..\..\..\..\..\Software\uCOS-II\Source/os_sem.c ****     }
 1081              		.loc 1 550 16 view .LVU362
 1082 004c E3E7     		b	.L73
 1083              		.cfi_endproc
 1084              	.LFE9:
 1085              		.size	OSSemQuery, .-OSSemQuery
 1086              		.section	.text.OSSemSet,"ax",%progbits
 1087              		.align	1
 1088              		.global	OSSemSet
 1089              		.syntax unified
 1090              		.code	16
 1091              		.thumb_func
 1092              		.fpu softvfp
 1093              		.type	OSSemSet, %function
 1094              	OSSemSet:
 1095              	.LVL121:
 1096              	.LFB10:
 567:..\..\..\..\..\..\Software\uCOS-II\Source/os_sem.c **** #endif                                                     /* OS_SEM_QUERY_EN                      
 568:..\..\..\..\..\..\Software\uCOS-II\Source/os_sem.c **** 
 569:..\..\..\..\..\..\Software\uCOS-II\Source/os_sem.c **** /*$PAGE*/
 570:..\..\..\..\..\..\Software\uCOS-II\Source/os_sem.c **** /*
 571:..\..\..\..\..\..\Software\uCOS-II\Source/os_sem.c **** ***************************************************************************************************
 572:..\..\..\..\..\..\Software\uCOS-II\Source/os_sem.c **** *                                            SET SEMAPHORE
 573:..\..\..\..\..\..\Software\uCOS-II\Source/os_sem.c **** *
 574:..\..\..\..\..\..\Software\uCOS-II\Source/os_sem.c **** * Description: This function sets the semaphore count to the value specified as an argument.  Typic
 575:..\..\..\..\..\..\Software\uCOS-II\Source/os_sem.c **** *              this value would be 0.
 576:..\..\..\..\..\..\Software\uCOS-II\Source/os_sem.c **** *
 577:..\..\..\..\..\..\Software\uCOS-II\Source/os_sem.c **** *              You would typically use this function when a semaphore is used as a signaling mechan
 578:..\..\..\..\..\..\Software\uCOS-II\Source/os_sem.c **** *              and, you want to reset the count value.
 579:..\..\..\..\..\..\Software\uCOS-II\Source/os_sem.c **** *
 580:..\..\..\..\..\..\Software\uCOS-II\Source/os_sem.c **** * Arguments  : pevent     is a pointer to the event control block
 581:..\..\..\..\..\..\Software\uCOS-II\Source/os_sem.c **** *
 582:..\..\..\..\..\..\Software\uCOS-II\Source/os_sem.c **** *              cnt        is the new value for the semaphore count.  You would pass 0 to reset the
 583:..\..\..\..\..\..\Software\uCOS-II\Source/os_sem.c **** *                         semaphore count.
 584:..\..\..\..\..\..\Software\uCOS-II\Source/os_sem.c **** *
 585:..\..\..\..\..\..\Software\uCOS-II\Source/os_sem.c **** *              perr       is a pointer to an error code returned by the function as follows:
 586:..\..\..\..\..\..\Software\uCOS-II\Source/os_sem.c **** *
 587:..\..\..\..\..\..\Software\uCOS-II\Source/os_sem.c **** *                            OS_ERR_NONE          The call was successful and the semaphore value w
 588:..\..\..\..\..\..\Software\uCOS-II\Source/os_sem.c **** *                            OS_ERR_EVENT_TYPE    If you didn't pass a pointer to a semaphore.
ARM GAS  C:\Users\EDULU~1.DES\AppData\Local\Temp\ccFs9KIj.s 			page 35


 589:..\..\..\..\..\..\Software\uCOS-II\Source/os_sem.c **** *                            OS_ERR_PEVENT_NULL   If 'pevent' is a NULL pointer.
 590:..\..\..\..\..\..\Software\uCOS-II\Source/os_sem.c **** *                            OS_ERR_TASK_WAITING  If tasks are waiting on the semaphore.
 591:..\..\..\..\..\..\Software\uCOS-II\Source/os_sem.c **** ***************************************************************************************************
 592:..\..\..\..\..\..\Software\uCOS-II\Source/os_sem.c **** */
 593:..\..\..\..\..\..\Software\uCOS-II\Source/os_sem.c **** 
 594:..\..\..\..\..\..\Software\uCOS-II\Source/os_sem.c **** #if OS_SEM_SET_EN > 0u
 595:..\..\..\..\..\..\Software\uCOS-II\Source/os_sem.c **** void  OSSemSet (OS_EVENT  *pevent,
 596:..\..\..\..\..\..\Software\uCOS-II\Source/os_sem.c ****                 INT16U     cnt,
 597:..\..\..\..\..\..\Software\uCOS-II\Source/os_sem.c ****                 INT8U     *perr)
 598:..\..\..\..\..\..\Software\uCOS-II\Source/os_sem.c **** {
 1097              		.loc 1 598 1 is_stmt 1 view -0
 1098              		.cfi_startproc
 1099              		@ args = 0, pretend = 0, frame = 0
 1100              		@ frame_needed = 0, uses_anonymous_args = 0
 1101              		.loc 1 598 1 is_stmt 0 view .LVU364
 1102 0000 70B5     		push	{r4, r5, r6, lr}
 1103              		.cfi_def_cfa_offset 16
 1104              		.cfi_offset 4, -16
 1105              		.cfi_offset 5, -12
 1106              		.cfi_offset 6, -8
 1107              		.cfi_offset 14, -4
 1108 0002 0400     		movs	r4, r0
 1109 0004 0E00     		movs	r6, r1
 1110 0006 1500     		movs	r5, r2
 599:..\..\..\..\..\..\Software\uCOS-II\Source/os_sem.c **** #if OS_CRITICAL_METHOD == 3u                          /* Allocate storage for CPU status register  
 600:..\..\..\..\..\..\Software\uCOS-II\Source/os_sem.c ****     OS_CPU_SR  cpu_sr = 0u;
 1111              		.loc 1 600 5 is_stmt 1 view .LVU365
 1112              	.LVL122:
 601:..\..\..\..\..\..\Software\uCOS-II\Source/os_sem.c **** #endif
 602:..\..\..\..\..\..\Software\uCOS-II\Source/os_sem.c **** 
 603:..\..\..\..\..\..\Software\uCOS-II\Source/os_sem.c **** 
 604:..\..\..\..\..\..\Software\uCOS-II\Source/os_sem.c **** 
 605:..\..\..\..\..\..\Software\uCOS-II\Source/os_sem.c **** #ifdef OS_SAFETY_CRITICAL
 606:..\..\..\..\..\..\Software\uCOS-II\Source/os_sem.c ****     if (perr == (INT8U *)0) {
 607:..\..\..\..\..\..\Software\uCOS-II\Source/os_sem.c ****         OS_SAFETY_CRITICAL_EXCEPTION();
 608:..\..\..\..\..\..\Software\uCOS-II\Source/os_sem.c ****         return;
 609:..\..\..\..\..\..\Software\uCOS-II\Source/os_sem.c ****     }
 610:..\..\..\..\..\..\Software\uCOS-II\Source/os_sem.c **** #endif
 611:..\..\..\..\..\..\Software\uCOS-II\Source/os_sem.c **** 
 612:..\..\..\..\..\..\Software\uCOS-II\Source/os_sem.c **** #if OS_ARG_CHK_EN > 0u
 613:..\..\..\..\..\..\Software\uCOS-II\Source/os_sem.c ****     if (pevent == (OS_EVENT *)0) {                    /* Validate 'pevent'                         
 1113              		.loc 1 613 5 view .LVU366
 1114              		.loc 1 613 8 is_stmt 0 view .LVU367
 1115 0008 0028     		cmp	r0, #0
 1116 000a 05D0     		beq	.L87
 614:..\..\..\..\..\..\Software\uCOS-II\Source/os_sem.c ****         *perr = OS_ERR_PEVENT_NULL;
 615:..\..\..\..\..\..\Software\uCOS-II\Source/os_sem.c ****         return;
 616:..\..\..\..\..\..\Software\uCOS-II\Source/os_sem.c ****     }
 617:..\..\..\..\..\..\Software\uCOS-II\Source/os_sem.c **** #endif
 618:..\..\..\..\..\..\Software\uCOS-II\Source/os_sem.c ****     if (pevent->OSEventType != OS_EVENT_TYPE_SEM) {   /* Validate event block type                 
 1117              		.loc 1 618 5 is_stmt 1 view .LVU368
 1118              		.loc 1 618 15 is_stmt 0 view .LVU369
 1119 000c 0378     		ldrb	r3, [r0]
 1120              		.loc 1 618 8 view .LVU370
 1121 000e 032B     		cmp	r3, #3
 1122 0010 05D0     		beq	.L83
 619:..\..\..\..\..\..\Software\uCOS-II\Source/os_sem.c ****         *perr = OS_ERR_EVENT_TYPE;
ARM GAS  C:\Users\EDULU~1.DES\AppData\Local\Temp\ccFs9KIj.s 			page 36


 1123              		.loc 1 619 9 is_stmt 1 view .LVU371
 1124              		.loc 1 619 15 is_stmt 0 view .LVU372
 1125 0012 0123     		movs	r3, #1
 1126 0014 1370     		strb	r3, [r2]
 620:..\..\..\..\..\..\Software\uCOS-II\Source/os_sem.c ****         return;
 1127              		.loc 1 620 9 is_stmt 1 view .LVU373
 1128              	.LVL123:
 1129              	.L80:
 621:..\..\..\..\..\..\Software\uCOS-II\Source/os_sem.c ****     }
 622:..\..\..\..\..\..\Software\uCOS-II\Source/os_sem.c ****     OS_ENTER_CRITICAL();
 623:..\..\..\..\..\..\Software\uCOS-II\Source/os_sem.c ****     *perr = OS_ERR_NONE;
 624:..\..\..\..\..\..\Software\uCOS-II\Source/os_sem.c ****     if (pevent->OSEventCnt > 0u) {                    /* See if semaphore already has a count      
 625:..\..\..\..\..\..\Software\uCOS-II\Source/os_sem.c ****         pevent->OSEventCnt = cnt;                     /* Yes, set it to the new value specified.   
 626:..\..\..\..\..\..\Software\uCOS-II\Source/os_sem.c ****     } else {                                          /* No                                        
 627:..\..\..\..\..\..\Software\uCOS-II\Source/os_sem.c ****         if (pevent->OSEventGrp == 0u) {               /*      See if task(s) waiting?              
 628:..\..\..\..\..\..\Software\uCOS-II\Source/os_sem.c ****             pevent->OSEventCnt = cnt;                 /*      No, OK to set the value              
 629:..\..\..\..\..\..\Software\uCOS-II\Source/os_sem.c ****         } else {
 630:..\..\..\..\..\..\Software\uCOS-II\Source/os_sem.c ****             *perr              = OS_ERR_TASK_WAITING;
 631:..\..\..\..\..\..\Software\uCOS-II\Source/os_sem.c ****         }
 632:..\..\..\..\..\..\Software\uCOS-II\Source/os_sem.c ****     }
 633:..\..\..\..\..\..\Software\uCOS-II\Source/os_sem.c ****     OS_EXIT_CRITICAL();
 634:..\..\..\..\..\..\Software\uCOS-II\Source/os_sem.c **** }
 1130              		.loc 1 634 1 is_stmt 0 view .LVU374
 1131              		@ sp needed
 1132              	.LVL124:
 1133              	.LVL125:
 1134              		.loc 1 634 1 view .LVU375
 1135 0016 70BD     		pop	{r4, r5, r6, pc}
 1136              	.LVL126:
 1137              	.L87:
 614:..\..\..\..\..\..\Software\uCOS-II\Source/os_sem.c ****         return;
 1138              		.loc 1 614 9 is_stmt 1 view .LVU376
 614:..\..\..\..\..\..\Software\uCOS-II\Source/os_sem.c ****         return;
 1139              		.loc 1 614 15 is_stmt 0 view .LVU377
 1140 0018 0423     		movs	r3, #4
 1141 001a 1370     		strb	r3, [r2]
 615:..\..\..\..\..\..\Software\uCOS-II\Source/os_sem.c ****     }
 1142              		.loc 1 615 9 is_stmt 1 view .LVU378
 1143 001c FBE7     		b	.L80
 1144              	.L83:
 622:..\..\..\..\..\..\Software\uCOS-II\Source/os_sem.c ****     *perr = OS_ERR_NONE;
 1145              		.loc 1 622 5 view .LVU379
 622:..\..\..\..\..\..\Software\uCOS-II\Source/os_sem.c ****     *perr = OS_ERR_NONE;
 1146              		.loc 1 622 5 view .LVU380
 1147 001e FFF7FEFF 		bl	OS_CPU_SR_Save
 1148              	.LVL127:
 623:..\..\..\..\..\..\Software\uCOS-II\Source/os_sem.c ****     if (pevent->OSEventCnt > 0u) {                    /* See if semaphore already has a count      
 1149              		.loc 1 623 5 view .LVU381
 623:..\..\..\..\..\..\Software\uCOS-II\Source/os_sem.c ****     if (pevent->OSEventCnt > 0u) {                    /* See if semaphore already has a count      
 1150              		.loc 1 623 11 is_stmt 0 view .LVU382
 1151 0022 0023     		movs	r3, #0
 1152 0024 2B70     		strb	r3, [r5]
 624:..\..\..\..\..\..\Software\uCOS-II\Source/os_sem.c ****         pevent->OSEventCnt = cnt;                     /* Yes, set it to the new value specified.   
 1153              		.loc 1 624 5 is_stmt 1 view .LVU383
 624:..\..\..\..\..\..\Software\uCOS-II\Source/os_sem.c ****         pevent->OSEventCnt = cnt;                     /* Yes, set it to the new value specified.   
 1154              		.loc 1 624 15 is_stmt 0 view .LVU384
 1155 0026 2389     		ldrh	r3, [r4, #8]
ARM GAS  C:\Users\EDULU~1.DES\AppData\Local\Temp\ccFs9KIj.s 			page 37


 624:..\..\..\..\..\..\Software\uCOS-II\Source/os_sem.c ****         pevent->OSEventCnt = cnt;                     /* Yes, set it to the new value specified.   
 1156              		.loc 1 624 8 view .LVU385
 1157 0028 002B     		cmp	r3, #0
 1158 002a 03D0     		beq	.L84
 625:..\..\..\..\..\..\Software\uCOS-II\Source/os_sem.c ****     } else {                                          /* No                                        
 1159              		.loc 1 625 9 is_stmt 1 view .LVU386
 625:..\..\..\..\..\..\Software\uCOS-II\Source/os_sem.c ****     } else {                                          /* No                                        
 1160              		.loc 1 625 28 is_stmt 0 view .LVU387
 1161 002c 2681     		strh	r6, [r4, #8]
 1162              	.L85:
 633:..\..\..\..\..\..\Software\uCOS-II\Source/os_sem.c **** }
 1163              		.loc 1 633 5 is_stmt 1 view .LVU388
 633:..\..\..\..\..\..\Software\uCOS-II\Source/os_sem.c **** }
 1164              		.loc 1 633 5 view .LVU389
 1165 002e FFF7FEFF 		bl	OS_CPU_SR_Restore
 1166              	.LVL128:
 633:..\..\..\..\..\..\Software\uCOS-II\Source/os_sem.c **** }
 1167              		.loc 1 633 5 is_stmt 0 view .LVU390
 1168 0032 F0E7     		b	.L80
 1169              	.LVL129:
 1170              	.L84:
 627:..\..\..\..\..\..\Software\uCOS-II\Source/os_sem.c ****             pevent->OSEventCnt = cnt;                 /*      No, OK to set the value              
 1171              		.loc 1 627 9 is_stmt 1 view .LVU391
 627:..\..\..\..\..\..\Software\uCOS-II\Source/os_sem.c ****             pevent->OSEventCnt = cnt;                 /*      No, OK to set the value              
 1172              		.loc 1 627 19 is_stmt 0 view .LVU392
 1173 0034 A37A     		ldrb	r3, [r4, #10]
 627:..\..\..\..\..\..\Software\uCOS-II\Source/os_sem.c ****             pevent->OSEventCnt = cnt;                 /*      No, OK to set the value              
 1174              		.loc 1 627 12 view .LVU393
 1175 0036 002B     		cmp	r3, #0
 1176 0038 01D1     		bne	.L86
 628:..\..\..\..\..\..\Software\uCOS-II\Source/os_sem.c ****         } else {
 1177              		.loc 1 628 13 is_stmt 1 view .LVU394
 628:..\..\..\..\..\..\Software\uCOS-II\Source/os_sem.c ****         } else {
 1178              		.loc 1 628 32 is_stmt 0 view .LVU395
 1179 003a 2681     		strh	r6, [r4, #8]
 1180 003c F7E7     		b	.L85
 1181              	.L86:
 630:..\..\..\..\..\..\Software\uCOS-II\Source/os_sem.c ****         }
 1182              		.loc 1 630 13 is_stmt 1 view .LVU396
 630:..\..\..\..\..\..\Software\uCOS-II\Source/os_sem.c ****         }
 1183              		.loc 1 630 32 is_stmt 0 view .LVU397
 1184 003e 4923     		movs	r3, #73
 1185 0040 2B70     		strb	r3, [r5]
 1186 0042 F4E7     		b	.L85
 1187              		.cfi_endproc
 1188              	.LFE10:
 1189              		.size	OSSemSet, .-OSSemSet
 1190              		.text
 1191              	.Letext0:
 1192              		.file 2 "c:\\program files (x86)\\gnu tools arm embedded\\8 2018-q4-major\\arm-none-eabi\\include\
 1193              		.file 3 "c:\\program files (x86)\\gnu tools arm embedded\\8 2018-q4-major\\arm-none-eabi\\include\
 1194              		.file 4 "c:\\program files (x86)\\gnu tools arm embedded\\8 2018-q4-major\\lib\\gcc\\arm-none-eabi
 1195              		.file 5 "c:\\program files (x86)\\gnu tools arm embedded\\8 2018-q4-major\\arm-none-eabi\\include\
 1196              		.file 6 "..\\..\\..\\..\\..\\..\\Software\\uCOS-II\\Ports\\ARM-Cortex-M0\\Generic\\GNU/os_cpu.h"
 1197              		.file 7 "..\\..\\..\\..\\..\\..\\Software\\uCOS-II\\Source/ucos_ii.h"