ARM GAS  C:\Users\EDULU~1.DES\AppData\Local\Temp\ccgrKYGn.s 			page 1


   1              		.cpu cortex-m0
   2              		.eabi_attribute 20, 1
   3              		.eabi_attribute 21, 1
   4              		.eabi_attribute 23, 3
   5              		.eabi_attribute 24, 1
   6              		.eabi_attribute 25, 1
   7              		.eabi_attribute 26, 1
   8              		.eabi_attribute 30, 1
   9              		.eabi_attribute 34, 0
  10              		.eabi_attribute 18, 4
  11              		.file	"os_task.c"
  12              		.text
  13              	.Ltext0:
  14              		.cfi_sections	.debug_frame
  15              		.section	.text.OSTaskChangePrio,"ax",%progbits
  16              		.align	1
  17              		.global	OSTaskChangePrio
  18              		.arch armv6s-m
  19              		.syntax unified
  20              		.code	16
  21              		.thumb_func
  22              		.fpu softvfp
  23              		.type	OSTaskChangePrio, %function
  24              	OSTaskChangePrio:
  25              	.LVL0:
  26              	.LFB3:
  27              		.file 1 "..\\..\\..\\..\\..\\..\\Software\\uCOS-II\\Source\\os_task.c"
   1:..\..\..\..\..\..\Software\uCOS-II\Source/os_task.c **** /*
   2:..\..\..\..\..\..\Software\uCOS-II\Source/os_task.c **** ***************************************************************************************************
   3:..\..\..\..\..\..\Software\uCOS-II\Source/os_task.c **** *                                                uC/OS-II
   4:..\..\..\..\..\..\Software\uCOS-II\Source/os_task.c **** *                                          The Real-Time Kernel
   5:..\..\..\..\..\..\Software\uCOS-II\Source/os_task.c **** *                                            TASK MANAGEMENT
   6:..\..\..\..\..\..\Software\uCOS-II\Source/os_task.c **** *
   7:..\..\..\..\..\..\Software\uCOS-II\Source/os_task.c **** *                              (c) Copyright 1992-2013, Micrium, Weston, FL
   8:..\..\..\..\..\..\Software\uCOS-II\Source/os_task.c **** *                                           All Rights Reserved
   9:..\..\..\..\..\..\Software\uCOS-II\Source/os_task.c **** *
  10:..\..\..\..\..\..\Software\uCOS-II\Source/os_task.c **** * File    : OS_TASK.C
  11:..\..\..\..\..\..\Software\uCOS-II\Source/os_task.c **** * By      : Jean J. Labrosse
  12:..\..\..\..\..\..\Software\uCOS-II\Source/os_task.c **** * Version : V2.92.11
  13:..\..\..\..\..\..\Software\uCOS-II\Source/os_task.c **** *
  14:..\..\..\..\..\..\Software\uCOS-II\Source/os_task.c **** * LICENSING TERMS:
  15:..\..\..\..\..\..\Software\uCOS-II\Source/os_task.c **** * ---------------
  16:..\..\..\..\..\..\Software\uCOS-II\Source/os_task.c **** *   uC/OS-II is provided in source form for FREE evaluation, for educational use or for peaceful re
  17:..\..\..\..\..\..\Software\uCOS-II\Source/os_task.c **** * If you plan on using  uC/OS-II  in a commercial product you need to contact Micrium to properly l
  18:..\..\..\..\..\..\Software\uCOS-II\Source/os_task.c **** * its use in your product. We provide ALL the source code for your convenience and to help you expe
  19:..\..\..\..\..\..\Software\uCOS-II\Source/os_task.c **** * uC/OS-II.   The fact that the  source is provided does  NOT  mean that you can use it without  pa
  20:..\..\..\..\..\..\Software\uCOS-II\Source/os_task.c **** * licensing fee.
  21:..\..\..\..\..\..\Software\uCOS-II\Source/os_task.c **** ***************************************************************************************************
  22:..\..\..\..\..\..\Software\uCOS-II\Source/os_task.c **** */
  23:..\..\..\..\..\..\Software\uCOS-II\Source/os_task.c **** 
  24:..\..\..\..\..\..\Software\uCOS-II\Source/os_task.c **** #define  MICRIUM_SOURCE
  25:..\..\..\..\..\..\Software\uCOS-II\Source/os_task.c **** 
  26:..\..\..\..\..\..\Software\uCOS-II\Source/os_task.c **** #ifndef  OS_MASTER_FILE
  27:..\..\..\..\..\..\Software\uCOS-II\Source/os_task.c **** #include <ucos_ii.h>
  28:..\..\..\..\..\..\Software\uCOS-II\Source/os_task.c **** #endif
  29:..\..\..\..\..\..\Software\uCOS-II\Source/os_task.c **** 
  30:..\..\..\..\..\..\Software\uCOS-II\Source/os_task.c **** /*$PAGE*/
ARM GAS  C:\Users\EDULU~1.DES\AppData\Local\Temp\ccgrKYGn.s 			page 2


  31:..\..\..\..\..\..\Software\uCOS-II\Source/os_task.c **** /*
  32:..\..\..\..\..\..\Software\uCOS-II\Source/os_task.c **** ***************************************************************************************************
  33:..\..\..\..\..\..\Software\uCOS-II\Source/os_task.c **** *                                      CHANGE PRIORITY OF A TASK
  34:..\..\..\..\..\..\Software\uCOS-II\Source/os_task.c **** *
  35:..\..\..\..\..\..\Software\uCOS-II\Source/os_task.c **** * Description: This function allows you to change the priority of a task dynamically.  Note that th
  36:..\..\..\..\..\..\Software\uCOS-II\Source/os_task.c **** *              priority MUST be available.
  37:..\..\..\..\..\..\Software\uCOS-II\Source/os_task.c **** *
  38:..\..\..\..\..\..\Software\uCOS-II\Source/os_task.c **** * Arguments  : oldp     is the old priority
  39:..\..\..\..\..\..\Software\uCOS-II\Source/os_task.c **** *
  40:..\..\..\..\..\..\Software\uCOS-II\Source/os_task.c **** *              newp     is the new priority
  41:..\..\..\..\..\..\Software\uCOS-II\Source/os_task.c **** *
  42:..\..\..\..\..\..\Software\uCOS-II\Source/os_task.c **** * Returns    : OS_ERR_NONE            is the call was successful
  43:..\..\..\..\..\..\Software\uCOS-II\Source/os_task.c **** *              OS_ERR_PRIO_INVALID    if the priority you specify is higher that the maximum allowe
  44:..\..\..\..\..\..\Software\uCOS-II\Source/os_task.c **** *                                     (i.e. >= OS_LOWEST_PRIO)
  45:..\..\..\..\..\..\Software\uCOS-II\Source/os_task.c **** *              OS_ERR_PRIO_EXIST      if the new priority already exist.
  46:..\..\..\..\..\..\Software\uCOS-II\Source/os_task.c **** *              OS_ERR_PRIO            there is no task with the specified OLD priority (i.e. the OL
  47:..\..\..\..\..\..\Software\uCOS-II\Source/os_task.c **** *                                     not exist.
  48:..\..\..\..\..\..\Software\uCOS-II\Source/os_task.c **** *              OS_ERR_TASK_NOT_EXIST  if the task is assigned to a Mutex PIP.
  49:..\..\..\..\..\..\Software\uCOS-II\Source/os_task.c **** ***************************************************************************************************
  50:..\..\..\..\..\..\Software\uCOS-II\Source/os_task.c **** */
  51:..\..\..\..\..\..\Software\uCOS-II\Source/os_task.c **** 
  52:..\..\..\..\..\..\Software\uCOS-II\Source/os_task.c **** #if OS_TASK_CHANGE_PRIO_EN > 0u
  53:..\..\..\..\..\..\Software\uCOS-II\Source/os_task.c **** INT8U  OSTaskChangePrio (INT8U  oldprio,
  54:..\..\..\..\..\..\Software\uCOS-II\Source/os_task.c ****                          INT8U  newprio)
  55:..\..\..\..\..\..\Software\uCOS-II\Source/os_task.c **** {
  28              		.loc 1 55 1 view -0
  29              		.cfi_startproc
  30              		@ args = 0, pretend = 0, frame = 8
  31              		@ frame_needed = 0, uses_anonymous_args = 0
  32              		.loc 1 55 1 is_stmt 0 view .LVU1
  33 0000 F0B5     		push	{r4, r5, r6, r7, lr}
  34              		.cfi_def_cfa_offset 20
  35              		.cfi_offset 4, -20
  36              		.cfi_offset 5, -16
  37              		.cfi_offset 6, -12
  38              		.cfi_offset 7, -8
  39              		.cfi_offset 14, -4
  40 0002 DE46     		mov	lr, fp
  41 0004 5746     		mov	r7, r10
  42 0006 4E46     		mov	r6, r9
  43 0008 4546     		mov	r5, r8
  44 000a E0B5     		push	{r5, r6, r7, lr}
  45              		.cfi_def_cfa_offset 36
  46              		.cfi_offset 8, -36
  47              		.cfi_offset 9, -32
  48              		.cfi_offset 10, -28
  49              		.cfi_offset 11, -24
  50 000c 83B0     		sub	sp, sp, #12
  51              		.cfi_def_cfa_offset 48
  52 000e 0400     		movs	r4, r0
  53 0010 0D00     		movs	r5, r1
  56:..\..\..\..\..\..\Software\uCOS-II\Source/os_task.c **** #if (OS_EVENT_EN)
  57:..\..\..\..\..\..\Software\uCOS-II\Source/os_task.c ****     OS_EVENT  *pevent;
  54              		.loc 1 57 5 is_stmt 1 view .LVU2
  58:..\..\..\..\..\..\Software\uCOS-II\Source/os_task.c **** #if (OS_EVENT_MULTI_EN > 0u)
  59:..\..\..\..\..\..\Software\uCOS-II\Source/os_task.c ****     OS_EVENT **pevents;
  60:..\..\..\..\..\..\Software\uCOS-II\Source/os_task.c **** #endif
ARM GAS  C:\Users\EDULU~1.DES\AppData\Local\Temp\ccgrKYGn.s 			page 3


  61:..\..\..\..\..\..\Software\uCOS-II\Source/os_task.c **** #endif
  62:..\..\..\..\..\..\Software\uCOS-II\Source/os_task.c ****     OS_TCB    *ptcb;
  55              		.loc 1 62 5 view .LVU3
  63:..\..\..\..\..\..\Software\uCOS-II\Source/os_task.c ****     INT8U      y_new;
  56              		.loc 1 63 5 view .LVU4
  64:..\..\..\..\..\..\Software\uCOS-II\Source/os_task.c ****     INT8U      x_new;
  57              		.loc 1 64 5 view .LVU5
  65:..\..\..\..\..\..\Software\uCOS-II\Source/os_task.c ****     INT8U      y_old;
  58              		.loc 1 65 5 view .LVU6
  66:..\..\..\..\..\..\Software\uCOS-II\Source/os_task.c ****     OS_PRIO    bity_new;
  59              		.loc 1 66 5 view .LVU7
  67:..\..\..\..\..\..\Software\uCOS-II\Source/os_task.c ****     OS_PRIO    bitx_new;
  60              		.loc 1 67 5 view .LVU8
  68:..\..\..\..\..\..\Software\uCOS-II\Source/os_task.c ****     OS_PRIO    bity_old;
  61              		.loc 1 68 5 view .LVU9
  69:..\..\..\..\..\..\Software\uCOS-II\Source/os_task.c ****     OS_PRIO    bitx_old;
  62              		.loc 1 69 5 view .LVU10
  70:..\..\..\..\..\..\Software\uCOS-II\Source/os_task.c **** #if OS_CRITICAL_METHOD == 3u
  71:..\..\..\..\..\..\Software\uCOS-II\Source/os_task.c ****     OS_CPU_SR  cpu_sr = 0u;                                 /* Storage for CPU status register     
  63              		.loc 1 71 5 view .LVU11
  64              	.LVL1:
  72:..\..\..\..\..\..\Software\uCOS-II\Source/os_task.c **** #endif
  73:..\..\..\..\..\..\Software\uCOS-II\Source/os_task.c **** 
  74:..\..\..\..\..\..\Software\uCOS-II\Source/os_task.c **** 
  75:..\..\..\..\..\..\Software\uCOS-II\Source/os_task.c **** /*$PAGE*/
  76:..\..\..\..\..\..\Software\uCOS-II\Source/os_task.c **** #if OS_ARG_CHK_EN > 0u
  77:..\..\..\..\..\..\Software\uCOS-II\Source/os_task.c ****     if (oldprio >= OS_LOWEST_PRIO) {
  65              		.loc 1 77 5 view .LVU12
  66              		.loc 1 77 8 is_stmt 0 view .LVU13
  67 0012 1E28     		cmp	r0, #30
  68 0014 02D9     		bls	.L2
  78:..\..\..\..\..\..\Software\uCOS-II\Source/os_task.c ****         if (oldprio != OS_PRIO_SELF) {
  69              		.loc 1 78 9 is_stmt 1 view .LVU14
  70              		.loc 1 78 12 is_stmt 0 view .LVU15
  71 0016 FF28     		cmp	r0, #255
  72 0018 00D0     		beq	.LCB43
  73 001a 8BE0     		b	.L12	@long jump
  74              	.LCB43:
  75              	.L2:
  79:..\..\..\..\..\..\Software\uCOS-II\Source/os_task.c ****             return (OS_ERR_PRIO_INVALID);
  80:..\..\..\..\..\..\Software\uCOS-II\Source/os_task.c ****         }
  81:..\..\..\..\..\..\Software\uCOS-II\Source/os_task.c ****     }
  82:..\..\..\..\..\..\Software\uCOS-II\Source/os_task.c ****     if (newprio >= OS_LOWEST_PRIO) {
  76              		.loc 1 82 5 is_stmt 1 view .LVU16
  77              		.loc 1 82 8 is_stmt 0 view .LVU17
  78 001c 1E2D     		cmp	r5, #30
  79 001e 00D9     		bls	.LCB47
  80 0020 8AE0     		b	.L13	@long jump
  81              	.LCB47:
  83:..\..\..\..\..\..\Software\uCOS-II\Source/os_task.c ****         return (OS_ERR_PRIO_INVALID);
  84:..\..\..\..\..\..\Software\uCOS-II\Source/os_task.c ****     }
  85:..\..\..\..\..\..\Software\uCOS-II\Source/os_task.c **** #endif
  86:..\..\..\..\..\..\Software\uCOS-II\Source/os_task.c ****     OS_ENTER_CRITICAL();
  82              		.loc 1 86 5 is_stmt 1 view .LVU18
  83              		.loc 1 86 5 view .LVU19
  84 0022 FFF7FEFF 		bl	OS_CPU_SR_Save
  85              	.LVL2:
ARM GAS  C:\Users\EDULU~1.DES\AppData\Local\Temp\ccgrKYGn.s 			page 4


  86              		.loc 1 86 5 is_stmt 0 view .LVU20
  87 0026 0190     		str	r0, [sp, #4]
  88              	.LVL3:
  87:..\..\..\..\..\..\Software\uCOS-II\Source/os_task.c ****     if (OSTCBPrioTbl[newprio] != (OS_TCB *)0) {             /* New priority must not already exist 
  89              		.loc 1 87 5 is_stmt 1 view .LVU21
  90              		.loc 1 87 21 is_stmt 0 view .LVU22
  91 0028 AB00     		lsls	r3, r5, #2
  92 002a 474A     		ldr	r2, .L20
  93 002c 9B58     		ldr	r3, [r3, r2]
  94              		.loc 1 87 8 view .LVU23
  95 002e 002B     		cmp	r3, #0
  96 0030 69D1     		bne	.L15
  88:..\..\..\..\..\..\Software\uCOS-II\Source/os_task.c ****         OS_EXIT_CRITICAL();
  89:..\..\..\..\..\..\Software\uCOS-II\Source/os_task.c ****         return (OS_ERR_PRIO_EXIST);
  90:..\..\..\..\..\..\Software\uCOS-II\Source/os_task.c ****     }
  91:..\..\..\..\..\..\Software\uCOS-II\Source/os_task.c ****     if (oldprio == OS_PRIO_SELF) {                          /* See if changing self                
  97              		.loc 1 91 5 is_stmt 1 view .LVU24
  98              		.loc 1 91 8 is_stmt 0 view .LVU25
  99 0032 FF2C     		cmp	r4, #255
 100 0034 6BD0     		beq	.L16
 101              	.LVL4:
 102              	.L5:
  92:..\..\..\..\..\..\Software\uCOS-II\Source/os_task.c ****         oldprio = OSTCBCur->OSTCBPrio;                      /* Yes, get priority                   
  93:..\..\..\..\..\..\Software\uCOS-II\Source/os_task.c ****     }
  94:..\..\..\..\..\..\Software\uCOS-II\Source/os_task.c ****     ptcb = OSTCBPrioTbl[oldprio];
 103              		.loc 1 94 5 is_stmt 1 view .LVU26
 104              		.loc 1 94 24 is_stmt 0 view .LVU27
 105 0036 2100     		movs	r1, r4
 106              		.loc 1 94 10 view .LVU28
 107 0038 A400     		lsls	r4, r4, #2
 108              	.LVL5:
 109              		.loc 1 94 10 view .LVU29
 110 003a 434B     		ldr	r3, .L20
 111 003c E358     		ldr	r3, [r4, r3]
 112              	.LVL6:
  95:..\..\..\..\..\..\Software\uCOS-II\Source/os_task.c ****     if (ptcb == (OS_TCB *)0) {                              /* Does task to change exist?          
 113              		.loc 1 95 5 is_stmt 1 view .LVU30
 114              		.loc 1 95 8 is_stmt 0 view .LVU31
 115 003e 002B     		cmp	r3, #0
 116 0040 6AD0     		beq	.L17
  96:..\..\..\..\..\..\Software\uCOS-II\Source/os_task.c ****         OS_EXIT_CRITICAL();                                 /* No, can't change its priority!      
  97:..\..\..\..\..\..\Software\uCOS-II\Source/os_task.c ****         return (OS_ERR_PRIO);
  98:..\..\..\..\..\..\Software\uCOS-II\Source/os_task.c ****     }
  99:..\..\..\..\..\..\Software\uCOS-II\Source/os_task.c ****     if (ptcb == OS_TCB_RESERVED) {                          /* Is task assigned to Mutex           
 117              		.loc 1 99 5 is_stmt 1 view .LVU32
 118              		.loc 1 99 8 is_stmt 0 view .LVU33
 119 0042 012B     		cmp	r3, #1
 120 0044 6DD0     		beq	.L18
 100:..\..\..\..\..\..\Software\uCOS-II\Source/os_task.c ****         OS_EXIT_CRITICAL();                                 /* No, can't change its priority!      
 101:..\..\..\..\..\..\Software\uCOS-II\Source/os_task.c ****         return (OS_ERR_TASK_NOT_EXIST);
 102:..\..\..\..\..\..\Software\uCOS-II\Source/os_task.c ****     }
 103:..\..\..\..\..\..\Software\uCOS-II\Source/os_task.c **** #if OS_LOWEST_PRIO <= 63u
 104:..\..\..\..\..\..\Software\uCOS-II\Source/os_task.c ****     y_new                 = (INT8U)(newprio >> 3u);         /* Yes, compute new TCB fields         
 121              		.loc 1 104 5 is_stmt 1 view .LVU34
 122              		.loc 1 104 27 is_stmt 0 view .LVU35
 123 0046 E808     		lsrs	r0, r5, #3
 124              	.LVL7:
ARM GAS  C:\Users\EDULU~1.DES\AppData\Local\Temp\ccgrKYGn.s 			page 5


 105:..\..\..\..\..\..\Software\uCOS-II\Source/os_task.c ****     x_new                 = (INT8U)(newprio & 0x07u);
 125              		.loc 1 105 5 is_stmt 1 view .LVU36
 126              		.loc 1 105 27 is_stmt 0 view .LVU37
 127 0048 0727     		movs	r7, #7
 128 004a 2F40     		ands	r7, r5
 129 004c BC46     		mov	ip, r7
 130              	.LVL8:
 106:..\..\..\..\..\..\Software\uCOS-II\Source/os_task.c **** #else
 107:..\..\..\..\..\..\Software\uCOS-II\Source/os_task.c ****     y_new                 = (INT8U)((INT8U)(newprio >> 4u) & 0x0Fu);
 108:..\..\..\..\..\..\Software\uCOS-II\Source/os_task.c ****     x_new                 = (INT8U)(newprio & 0x0Fu);
 109:..\..\..\..\..\..\Software\uCOS-II\Source/os_task.c **** #endif
 110:..\..\..\..\..\..\Software\uCOS-II\Source/os_task.c ****     bity_new              = (OS_PRIO)(1uL << y_new);
 131              		.loc 1 110 5 is_stmt 1 view .LVU38
 132              		.loc 1 110 43 is_stmt 0 view .LVU39
 133 004e 0122     		movs	r2, #1
 134 0050 1600     		movs	r6, r2
 135 0052 8640     		lsls	r6, r6, r0
 136              		.loc 1 110 27 view .LVU40
 137 0054 F6B2     		uxtb	r6, r6
 138              	.LVL9:
 111:..\..\..\..\..\..\Software\uCOS-II\Source/os_task.c ****     bitx_new              = (OS_PRIO)(1uL << x_new);
 139              		.loc 1 111 5 is_stmt 1 view .LVU41
 140              		.loc 1 111 43 is_stmt 0 view .LVU42
 141 0056 BA40     		lsls	r2, r2, r7
 142              		.loc 1 111 27 view .LVU43
 143 0058 D2B2     		uxtb	r2, r2
 144              	.LVL10:
 112:..\..\..\..\..\..\Software\uCOS-II\Source/os_task.c **** 
 113:..\..\..\..\..\..\Software\uCOS-II\Source/os_task.c ****     OSTCBPrioTbl[oldprio] = (OS_TCB *)0;                    /* Remove TCB from old priority        
 145              		.loc 1 113 5 is_stmt 1 view .LVU44
 146              		.loc 1 113 27 is_stmt 0 view .LVU45
 147 005a 3B4C     		ldr	r4, .L20
 148 005c 8900     		lsls	r1, r1, #2
 149 005e 0027     		movs	r7, #0
 150              	.LVL11:
 151              		.loc 1 113 27 view .LVU46
 152 0060 0F51     		str	r7, [r1, r4]
 114:..\..\..\..\..\..\Software\uCOS-II\Source/os_task.c ****     OSTCBPrioTbl[newprio] =  ptcb;                          /* Place pointer to TCB @ new priority 
 153              		.loc 1 114 5 is_stmt 1 view .LVU47
 154              		.loc 1 114 27 is_stmt 0 view .LVU48
 155 0062 A900     		lsls	r1, r5, #2
 156 0064 0B51     		str	r3, [r1, r4]
 115:..\..\..\..\..\..\Software\uCOS-II\Source/os_task.c ****     y_old                 =  ptcb->OSTCBY;
 157              		.loc 1 115 5 is_stmt 1 view .LVU49
 158              		.loc 1 115 27 is_stmt 0 view .LVU50
 159 0066 2821     		movs	r1, #40
 160 0068 5C5C     		ldrb	r4, [r3, r1]
 161              	.LVL12:
 116:..\..\..\..\..\..\Software\uCOS-II\Source/os_task.c ****     bity_old              =  ptcb->OSTCBBitY;
 162              		.loc 1 116 5 is_stmt 1 view .LVU51
 163              		.loc 1 116 27 is_stmt 0 view .LVU52
 164 006a 0231     		adds	r1, r1, #2
 165 006c 595C     		ldrb	r1, [r3, r1]
 166 006e 8946     		mov	r9, r1
 167              	.LVL13:
 117:..\..\..\..\..\..\Software\uCOS-II\Source/os_task.c ****     bitx_old              =  ptcb->OSTCBBitX;
 168              		.loc 1 117 5 is_stmt 1 view .LVU53
ARM GAS  C:\Users\EDULU~1.DES\AppData\Local\Temp\ccgrKYGn.s 			page 6


 169              		.loc 1 117 27 is_stmt 0 view .LVU54
 170 0070 2921     		movs	r1, #41
 171 0072 595C     		ldrb	r1, [r3, r1]
 172 0074 8846     		mov	r8, r1
 173              	.LVL14:
 118:..\..\..\..\..\..\Software\uCOS-II\Source/os_task.c ****     if ((OSRdyTbl[y_old] &   bitx_old) != 0u) {             /* If task is ready make it not        
 174              		.loc 1 118 5 is_stmt 1 view .LVU55
 175              		.loc 1 118 18 is_stmt 0 view .LVU56
 176 0076 3549     		ldr	r1, .L20+4
 177 0078 095D     		ldrb	r1, [r1, r4]
 178              		.loc 1 118 8 view .LVU57
 179 007a 4746     		mov	r7, r8
 180 007c 0F42     		tst	r7, r1
 181 007e 16D0     		beq	.L8
 119:..\..\..\..\..\..\Software\uCOS-II\Source/os_task.c ****          OSRdyTbl[y_old] &= (OS_PRIO)~bitx_old;
 182              		.loc 1 119 10 is_stmt 1 view .LVU58
 183              		.loc 1 119 26 is_stmt 0 view .LVU59
 184 0080 B943     		bics	r1, r7
 185 0082 324F     		ldr	r7, .L20+4
 186 0084 3955     		strb	r1, [r7, r4]
 120:..\..\..\..\..\..\Software\uCOS-II\Source/os_task.c ****          if (OSRdyTbl[y_old] == 0u) {
 187              		.loc 1 120 10 is_stmt 1 view .LVU60
 188              		.loc 1 120 13 is_stmt 0 view .LVU61
 189 0086 06D1     		bne	.L9
 121:..\..\..\..\..\..\Software\uCOS-II\Source/os_task.c ****              OSRdyGrp &= (OS_PRIO)~bity_old;
 190              		.loc 1 121 14 is_stmt 1 view .LVU62
 191              		.loc 1 121 23 is_stmt 0 view .LVU63
 192 0088 3149     		ldr	r1, .L20+8
 193 008a 8A46     		mov	r10, r1
 194 008c 0978     		ldrb	r1, [r1]
 195 008e 4F46     		mov	r7, r9
 196 0090 B943     		bics	r1, r7
 197 0092 5746     		mov	r7, r10
 198 0094 3970     		strb	r1, [r7]
 199              	.L9:
 122:..\..\..\..\..\..\Software\uCOS-II\Source/os_task.c ****          }
 123:..\..\..\..\..\..\Software\uCOS-II\Source/os_task.c ****          OSRdyGrp        |= bity_new;                       /* Make new priority ready to run      
 200              		.loc 1 123 10 is_stmt 1 view .LVU64
 201              		.loc 1 123 26 is_stmt 0 view .LVU65
 202 0096 2E49     		ldr	r1, .L20+8
 203 0098 8A46     		mov	r10, r1
 204 009a 0978     		ldrb	r1, [r1]
 205 009c 3143     		orrs	r1, r6
 206 009e 5746     		mov	r7, r10
 207 00a0 3970     		strb	r1, [r7]
 124:..\..\..\..\..\..\Software\uCOS-II\Source/os_task.c ****          OSRdyTbl[y_new] |= bitx_new;
 208              		.loc 1 124 10 is_stmt 1 view .LVU66
 209              		.loc 1 124 26 is_stmt 0 view .LVU67
 210 00a2 2A49     		ldr	r1, .L20+4
 211 00a4 8A46     		mov	r10, r1
 212 00a6 095C     		ldrb	r1, [r1, r0]
 213 00a8 1143     		orrs	r1, r2
 214 00aa 5746     		mov	r7, r10
 215 00ac 3954     		strb	r1, [r7, r0]
 216              	.L8:
 125:..\..\..\..\..\..\Software\uCOS-II\Source/os_task.c ****     }
 126:..\..\..\..\..\..\Software\uCOS-II\Source/os_task.c **** 
ARM GAS  C:\Users\EDULU~1.DES\AppData\Local\Temp\ccgrKYGn.s 			page 7


 127:..\..\..\..\..\..\Software\uCOS-II\Source/os_task.c **** #if (OS_EVENT_EN)
 128:..\..\..\..\..\..\Software\uCOS-II\Source/os_task.c ****     pevent = ptcb->OSTCBEventPtr;
 217              		.loc 1 128 5 is_stmt 1 view .LVU68
 218              		.loc 1 128 12 is_stmt 0 view .LVU69
 219 00ae D969     		ldr	r1, [r3, #28]
 220              	.LVL15:
 129:..\..\..\..\..\..\Software\uCOS-II\Source/os_task.c ****     if (pevent != (OS_EVENT *)0) {
 221              		.loc 1 129 5 is_stmt 1 view .LVU70
 222              		.loc 1 129 8 is_stmt 0 view .LVU71
 223 00b0 0029     		cmp	r1, #0
 224 00b2 14D0     		beq	.L10
 130:..\..\..\..\..\..\Software\uCOS-II\Source/os_task.c ****         pevent->OSEventTbl[y_old] &= (OS_PRIO)~bitx_old;    /* Remove old task prio from wait list 
 225              		.loc 1 130 9 is_stmt 1 view .LVU72
 226              		.loc 1 130 35 is_stmt 0 view .LVU73
 227 00b4 A346     		mov	fp, r4
 228 00b6 8B44     		add	fp, fp, r1
 229 00b8 5C46     		mov	r4, fp
 230              	.LVL16:
 231              		.loc 1 130 35 view .LVU74
 232 00ba E77A     		ldrb	r7, [r4, #11]
 233 00bc 4446     		mov	r4, r8
 234 00be A743     		bics	r7, r4
 235 00c0 3C1E     		subs	r4, r7, #0
 236 00c2 5F46     		mov	r7, fp
 237 00c4 FC72     		strb	r4, [r7, #11]
 131:..\..\..\..\..\..\Software\uCOS-II\Source/os_task.c ****         if (pevent->OSEventTbl[y_old] == 0u) {
 238              		.loc 1 131 9 is_stmt 1 view .LVU75
 239              		.loc 1 131 12 is_stmt 0 view .LVU76
 240 00c6 03D1     		bne	.L11
 132:..\..\..\..\..\..\Software\uCOS-II\Source/os_task.c ****             pevent->OSEventGrp    &= (OS_PRIO)~bity_old;
 241              		.loc 1 132 13 is_stmt 1 view .LVU77
 242              		.loc 1 132 35 is_stmt 0 view .LVU78
 243 00c8 8C7A     		ldrb	r4, [r1, #10]
 244 00ca 4F46     		mov	r7, r9
 245 00cc BC43     		bics	r4, r7
 246 00ce 8C72     		strb	r4, [r1, #10]
 247              	.L11:
 133:..\..\..\..\..\..\Software\uCOS-II\Source/os_task.c ****         }
 134:..\..\..\..\..\..\Software\uCOS-II\Source/os_task.c ****         pevent->OSEventGrp        |= bity_new;              /* Add    new task prio to   wait list 
 248              		.loc 1 134 9 is_stmt 1 view .LVU79
 249              		.loc 1 134 35 is_stmt 0 view .LVU80
 250 00d0 8C7A     		ldrb	r4, [r1, #10]
 251 00d2 3443     		orrs	r4, r6
 252 00d4 8C72     		strb	r4, [r1, #10]
 135:..\..\..\..\..\..\Software\uCOS-II\Source/os_task.c ****         pevent->OSEventTbl[y_new] |= bitx_new;
 253              		.loc 1 135 9 is_stmt 1 view .LVU81
 254              		.loc 1 135 35 is_stmt 0 view .LVU82
 255 00d6 0918     		adds	r1, r1, r0
 256              	.LVL17:
 257              		.loc 1 135 35 view .LVU83
 258 00d8 CC7A     		ldrb	r4, [r1, #11]
 259 00da 1443     		orrs	r4, r2
 260 00dc CC72     		strb	r4, [r1, #11]
 261              	.L10:
 136:..\..\..\..\..\..\Software\uCOS-II\Source/os_task.c ****     }
 137:..\..\..\..\..\..\Software\uCOS-II\Source/os_task.c **** #if (OS_EVENT_MULTI_EN > 0u)
 138:..\..\..\..\..\..\Software\uCOS-II\Source/os_task.c ****     if (ptcb->OSTCBEventMultiPtr != (OS_EVENT **)0) {
ARM GAS  C:\Users\EDULU~1.DES\AppData\Local\Temp\ccgrKYGn.s 			page 8


 139:..\..\..\..\..\..\Software\uCOS-II\Source/os_task.c ****         pevents =  ptcb->OSTCBEventMultiPtr;
 140:..\..\..\..\..\..\Software\uCOS-II\Source/os_task.c ****         pevent  = *pevents;
 141:..\..\..\..\..\..\Software\uCOS-II\Source/os_task.c ****         while (pevent != (OS_EVENT *)0) {
 142:..\..\..\..\..\..\Software\uCOS-II\Source/os_task.c ****             pevent->OSEventTbl[y_old] &= (OS_PRIO)~bitx_old;   /* Remove old task prio from wait li
 143:..\..\..\..\..\..\Software\uCOS-II\Source/os_task.c ****             if (pevent->OSEventTbl[y_old] == 0u) {
 144:..\..\..\..\..\..\Software\uCOS-II\Source/os_task.c ****                 pevent->OSEventGrp    &= (OS_PRIO)~bity_old;
 145:..\..\..\..\..\..\Software\uCOS-II\Source/os_task.c ****             }
 146:..\..\..\..\..\..\Software\uCOS-II\Source/os_task.c ****             pevent->OSEventGrp        |= bity_new;          /* Add    new task prio to   wait lists
 147:..\..\..\..\..\..\Software\uCOS-II\Source/os_task.c ****             pevent->OSEventTbl[y_new] |= bitx_new;
 148:..\..\..\..\..\..\Software\uCOS-II\Source/os_task.c ****             pevents++;
 149:..\..\..\..\..\..\Software\uCOS-II\Source/os_task.c ****             pevent                     = *pevents;
 150:..\..\..\..\..\..\Software\uCOS-II\Source/os_task.c ****         }
 151:..\..\..\..\..\..\Software\uCOS-II\Source/os_task.c ****     }
 152:..\..\..\..\..\..\Software\uCOS-II\Source/os_task.c **** #endif
 153:..\..\..\..\..\..\Software\uCOS-II\Source/os_task.c **** #endif
 154:..\..\..\..\..\..\Software\uCOS-II\Source/os_task.c **** 
 155:..\..\..\..\..\..\Software\uCOS-II\Source/os_task.c ****     ptcb->OSTCBPrio = newprio;                              /* Set new task priority               
 262              		.loc 1 155 5 is_stmt 1 view .LVU84
 263              		.loc 1 155 21 is_stmt 0 view .LVU85
 264 00de 2621     		movs	r1, #38
 265 00e0 5D54     		strb	r5, [r3, r1]
 156:..\..\..\..\..\..\Software\uCOS-II\Source/os_task.c ****     ptcb->OSTCBY    = y_new;
 266              		.loc 1 156 5 is_stmt 1 view .LVU86
 267              		.loc 1 156 21 is_stmt 0 view .LVU87
 268 00e2 0231     		adds	r1, r1, #2
 269 00e4 5854     		strb	r0, [r3, r1]
 157:..\..\..\..\..\..\Software\uCOS-II\Source/os_task.c ****     ptcb->OSTCBX    = x_new;
 270              		.loc 1 157 5 is_stmt 1 view .LVU88
 271              		.loc 1 157 21 is_stmt 0 view .LVU89
 272 00e6 0139     		subs	r1, r1, #1
 273 00e8 6046     		mov	r0, ip
 274              	.LVL18:
 275              		.loc 1 157 21 view .LVU90
 276 00ea 5854     		strb	r0, [r3, r1]
 158:..\..\..\..\..\..\Software\uCOS-II\Source/os_task.c ****     ptcb->OSTCBBitY = bity_new;
 277              		.loc 1 158 5 is_stmt 1 view .LVU91
 278              		.loc 1 158 21 is_stmt 0 view .LVU92
 279 00ec 0331     		adds	r1, r1, #3
 280              	.LVL19:
 281              		.loc 1 158 21 view .LVU93
 282 00ee 5E54     		strb	r6, [r3, r1]
 159:..\..\..\..\..\..\Software\uCOS-II\Source/os_task.c ****     ptcb->OSTCBBitX = bitx_new;
 283              		.loc 1 159 5 is_stmt 1 view .LVU94
 284              		.loc 1 159 21 is_stmt 0 view .LVU95
 285 00f0 0139     		subs	r1, r1, #1
 286              	.LVL20:
 287              		.loc 1 159 21 view .LVU96
 288 00f2 5A54     		strb	r2, [r3, r1]
 160:..\..\..\..\..\..\Software\uCOS-II\Source/os_task.c ****     OS_EXIT_CRITICAL();
 289              		.loc 1 160 5 is_stmt 1 view .LVU97
 290              		.loc 1 160 5 view .LVU98
 291 00f4 0198     		ldr	r0, [sp, #4]
 292 00f6 FFF7FEFF 		bl	OS_CPU_SR_Restore
 293              	.LVL21:
 161:..\..\..\..\..\..\Software\uCOS-II\Source/os_task.c ****     if (OSRunning == OS_TRUE) {
 294              		.loc 1 161 5 view .LVU99
 295              		.loc 1 161 19 is_stmt 0 view .LVU100
ARM GAS  C:\Users\EDULU~1.DES\AppData\Local\Temp\ccgrKYGn.s 			page 9


 296 00fa 164B     		ldr	r3, .L20+12
 297 00fc 1B78     		ldrb	r3, [r3]
 298              		.loc 1 161 8 view .LVU101
 299 00fe 012B     		cmp	r3, #1
 300 0100 14D0     		beq	.L19
 162:..\..\..\..\..\..\Software\uCOS-II\Source/os_task.c ****         OS_Sched();                                         /* Find new highest priority task      
 163:..\..\..\..\..\..\Software\uCOS-II\Source/os_task.c ****     }
 164:..\..\..\..\..\..\Software\uCOS-II\Source/os_task.c ****     return (OS_ERR_NONE);
 301              		.loc 1 164 12 view .LVU102
 302 0102 0020     		movs	r0, #0
 303 0104 19E0     		b	.L3
 304              	.LVL22:
 305              	.L15:
  88:..\..\..\..\..\..\Software\uCOS-II\Source/os_task.c ****         return (OS_ERR_PRIO_EXIST);
 306              		.loc 1 88 9 is_stmt 1 view .LVU103
  88:..\..\..\..\..\..\Software\uCOS-II\Source/os_task.c ****         return (OS_ERR_PRIO_EXIST);
 307              		.loc 1 88 9 view .LVU104
 308 0106 FFF7FEFF 		bl	OS_CPU_SR_Restore
 309              	.LVL23:
  89:..\..\..\..\..\..\Software\uCOS-II\Source/os_task.c ****     }
 310              		.loc 1 89 9 view .LVU105
  89:..\..\..\..\..\..\Software\uCOS-II\Source/os_task.c ****     }
 311              		.loc 1 89 16 is_stmt 0 view .LVU106
 312 010a 2820     		movs	r0, #40
 313 010c 15E0     		b	.L3
 314              	.LVL24:
 315              	.L16:
  92:..\..\..\..\..\..\Software\uCOS-II\Source/os_task.c ****     }
 316              		.loc 1 92 9 is_stmt 1 view .LVU107
  92:..\..\..\..\..\..\Software\uCOS-II\Source/os_task.c ****     }
 317              		.loc 1 92 27 is_stmt 0 view .LVU108
 318 010e 124B     		ldr	r3, .L20+16
 319 0110 1A68     		ldr	r2, [r3]
  92:..\..\..\..\..\..\Software\uCOS-II\Source/os_task.c ****     }
 320              		.loc 1 92 17 view .LVU109
 321 0112 2623     		movs	r3, #38
 322 0114 D45C     		ldrb	r4, [r2, r3]
 323              	.LVL25:
  92:..\..\..\..\..\..\Software\uCOS-II\Source/os_task.c ****     }
 324              		.loc 1 92 17 view .LVU110
 325 0116 8EE7     		b	.L5
 326              	.LVL26:
 327              	.L17:
  96:..\..\..\..\..\..\Software\uCOS-II\Source/os_task.c ****         return (OS_ERR_PRIO);
 328              		.loc 1 96 9 is_stmt 1 view .LVU111
  96:..\..\..\..\..\..\Software\uCOS-II\Source/os_task.c ****         return (OS_ERR_PRIO);
 329              		.loc 1 96 9 view .LVU112
 330 0118 0198     		ldr	r0, [sp, #4]
 331              	.LVL27:
  96:..\..\..\..\..\..\Software\uCOS-II\Source/os_task.c ****         return (OS_ERR_PRIO);
 332              		.loc 1 96 9 is_stmt 0 view .LVU113
 333 011a FFF7FEFF 		bl	OS_CPU_SR_Restore
 334              	.LVL28:
  97:..\..\..\..\..\..\Software\uCOS-II\Source/os_task.c ****     }
 335              		.loc 1 97 9 is_stmt 1 view .LVU114
  97:..\..\..\..\..\..\Software\uCOS-II\Source/os_task.c ****     }
 336              		.loc 1 97 16 is_stmt 0 view .LVU115
ARM GAS  C:\Users\EDULU~1.DES\AppData\Local\Temp\ccgrKYGn.s 			page 10


 337 011e 2920     		movs	r0, #41
 338 0120 0BE0     		b	.L3
 339              	.LVL29:
 340              	.L18:
 100:..\..\..\..\..\..\Software\uCOS-II\Source/os_task.c ****         return (OS_ERR_TASK_NOT_EXIST);
 341              		.loc 1 100 9 is_stmt 1 view .LVU116
 100:..\..\..\..\..\..\Software\uCOS-II\Source/os_task.c ****         return (OS_ERR_TASK_NOT_EXIST);
 342              		.loc 1 100 9 view .LVU117
 343 0122 0198     		ldr	r0, [sp, #4]
 344              	.LVL30:
 100:..\..\..\..\..\..\Software\uCOS-II\Source/os_task.c ****         return (OS_ERR_TASK_NOT_EXIST);
 345              		.loc 1 100 9 is_stmt 0 view .LVU118
 346 0124 FFF7FEFF 		bl	OS_CPU_SR_Restore
 347              	.LVL31:
 101:..\..\..\..\..\..\Software\uCOS-II\Source/os_task.c ****     }
 348              		.loc 1 101 9 is_stmt 1 view .LVU119
 101:..\..\..\..\..\..\Software\uCOS-II\Source/os_task.c ****     }
 349              		.loc 1 101 16 is_stmt 0 view .LVU120
 350 0128 4320     		movs	r0, #67
 351 012a 06E0     		b	.L3
 352              	.LVL32:
 353              	.L19:
 162:..\..\..\..\..\..\Software\uCOS-II\Source/os_task.c ****     }
 354              		.loc 1 162 9 is_stmt 1 view .LVU121
 355 012c FFF7FEFF 		bl	OS_Sched
 356              	.LVL33:
 357              		.loc 1 164 12 is_stmt 0 view .LVU122
 358 0130 0020     		movs	r0, #0
 359 0132 02E0     		b	.L3
 360              	.LVL34:
 361              	.L12:
  79:..\..\..\..\..\..\Software\uCOS-II\Source/os_task.c ****         }
 362              		.loc 1 79 20 view .LVU123
 363 0134 2A20     		movs	r0, #42
 364              	.LVL35:
  79:..\..\..\..\..\..\Software\uCOS-II\Source/os_task.c ****         }
 365              		.loc 1 79 20 view .LVU124
 366 0136 00E0     		b	.L3
 367              	.LVL36:
 368              	.L13:
  83:..\..\..\..\..\..\Software\uCOS-II\Source/os_task.c ****     }
 369              		.loc 1 83 16 view .LVU125
 370 0138 2A20     		movs	r0, #42
 371              	.LVL37:
 372              	.L3:
 165:..\..\..\..\..\..\Software\uCOS-II\Source/os_task.c **** }
 373              		.loc 1 165 1 view .LVU126
 374 013a 03B0     		add	sp, sp, #12
 375              		@ sp needed
 376 013c 3CBC     		pop	{r2, r3, r4, r5}
 377 013e 9046     		mov	r8, r2
 378 0140 9946     		mov	r9, r3
 379 0142 A246     		mov	r10, r4
 380 0144 AB46     		mov	fp, r5
 381 0146 F0BD     		pop	{r4, r5, r6, r7, pc}
 382              	.L21:
 383              		.align	2
ARM GAS  C:\Users\EDULU~1.DES\AppData\Local\Temp\ccgrKYGn.s 			page 11


 384              	.L20:
 385 0148 00000000 		.word	OSTCBPrioTbl
 386 014c 00000000 		.word	OSRdyTbl
 387 0150 00000000 		.word	OSRdyGrp
 388 0154 00000000 		.word	OSRunning
 389 0158 00000000 		.word	OSTCBCur
 390              		.cfi_endproc
 391              	.LFE3:
 392              		.size	OSTaskChangePrio, .-OSTaskChangePrio
 393              		.section	.text.OSTaskCreate,"ax",%progbits
 394              		.align	1
 395              		.global	OSTaskCreate
 396              		.syntax unified
 397              		.code	16
 398              		.thumb_func
 399              		.fpu softvfp
 400              		.type	OSTaskCreate, %function
 401              	OSTaskCreate:
 402              	.LVL38:
 403              	.LFB4:
 166:..\..\..\..\..\..\Software\uCOS-II\Source/os_task.c **** #endif
 167:..\..\..\..\..\..\Software\uCOS-II\Source/os_task.c **** /*$PAGE*/
 168:..\..\..\..\..\..\Software\uCOS-II\Source/os_task.c **** /*
 169:..\..\..\..\..\..\Software\uCOS-II\Source/os_task.c **** ***************************************************************************************************
 170:..\..\..\..\..\..\Software\uCOS-II\Source/os_task.c **** *                                            CREATE A TASK
 171:..\..\..\..\..\..\Software\uCOS-II\Source/os_task.c **** *
 172:..\..\..\..\..\..\Software\uCOS-II\Source/os_task.c **** * Description: This function is used to have uC/OS-II manage the execution of a task.  Tasks can ei
 173:..\..\..\..\..\..\Software\uCOS-II\Source/os_task.c **** *              be created prior to the start of multitasking or by a running task.  A task cannot b
 174:..\..\..\..\..\..\Software\uCOS-II\Source/os_task.c **** *              created by an ISR.
 175:..\..\..\..\..\..\Software\uCOS-II\Source/os_task.c **** *
 176:..\..\..\..\..\..\Software\uCOS-II\Source/os_task.c **** * Arguments  : task     is a pointer to the task's code
 177:..\..\..\..\..\..\Software\uCOS-II\Source/os_task.c **** *
 178:..\..\..\..\..\..\Software\uCOS-II\Source/os_task.c **** *              p_arg    is a pointer to an optional data area which can be used to pass parameters 
 179:..\..\..\..\..\..\Software\uCOS-II\Source/os_task.c **** *                       the task when the task first executes.  Where the task is concerned it thin
 180:..\..\..\..\..\..\Software\uCOS-II\Source/os_task.c **** *                       it was invoked and passed the argument 'p_arg' as follows:
 181:..\..\..\..\..\..\Software\uCOS-II\Source/os_task.c **** *
 182:..\..\..\..\..\..\Software\uCOS-II\Source/os_task.c **** *                           void Task (void *p_arg)
 183:..\..\..\..\..\..\Software\uCOS-II\Source/os_task.c **** *                           {
 184:..\..\..\..\..\..\Software\uCOS-II\Source/os_task.c **** *                               for (;;) {
 185:..\..\..\..\..\..\Software\uCOS-II\Source/os_task.c **** *                                   Task code;
 186:..\..\..\..\..\..\Software\uCOS-II\Source/os_task.c **** *                               }
 187:..\..\..\..\..\..\Software\uCOS-II\Source/os_task.c **** *                           }
 188:..\..\..\..\..\..\Software\uCOS-II\Source/os_task.c **** *
 189:..\..\..\..\..\..\Software\uCOS-II\Source/os_task.c **** *              ptos     is a pointer to the task's top of stack.  If the configuration constant
 190:..\..\..\..\..\..\Software\uCOS-II\Source/os_task.c **** *                       OS_STK_GROWTH is set to 1, the stack is assumed to grow downward (i.e. from
 191:..\..\..\..\..\..\Software\uCOS-II\Source/os_task.c **** *                       memory to low memory).  'pstk' will thus point to the highest (valid) memor
 192:..\..\..\..\..\..\Software\uCOS-II\Source/os_task.c **** *                       location of the stack.  If OS_STK_GROWTH is set to 0, 'pstk' will point to 
 193:..\..\..\..\..\..\Software\uCOS-II\Source/os_task.c **** *                       lowest memory location of the stack and the stack will grow with increasing
 194:..\..\..\..\..\..\Software\uCOS-II\Source/os_task.c **** *                       memory locations.
 195:..\..\..\..\..\..\Software\uCOS-II\Source/os_task.c **** *
 196:..\..\..\..\..\..\Software\uCOS-II\Source/os_task.c **** *              prio     is the task's priority.  A unique priority MUST be assigned to each task an
 197:..\..\..\..\..\..\Software\uCOS-II\Source/os_task.c **** *                       lower the number, the higher the priority.
 198:..\..\..\..\..\..\Software\uCOS-II\Source/os_task.c **** *
 199:..\..\..\..\..\..\Software\uCOS-II\Source/os_task.c **** * Returns    : OS_ERR_NONE                      if the function was successful.
 200:..\..\..\..\..\..\Software\uCOS-II\Source/os_task.c **** *              OS_ERR_PRIO_EXIST                if the task priority already exist
 201:..\..\..\..\..\..\Software\uCOS-II\Source/os_task.c **** *                                               (each task MUST have a unique priority).
 202:..\..\..\..\..\..\Software\uCOS-II\Source/os_task.c **** *              OS_ERR_PRIO_INVALID              if the priority you specify is higher that the maxi
ARM GAS  C:\Users\EDULU~1.DES\AppData\Local\Temp\ccgrKYGn.s 			page 12


 203:..\..\..\..\..\..\Software\uCOS-II\Source/os_task.c **** *                                               allowed (i.e. >= OS_LOWEST_PRIO)
 204:..\..\..\..\..\..\Software\uCOS-II\Source/os_task.c **** *              OS_ERR_TASK_CREATE_ISR           if you tried to create a task from an ISR.
 205:..\..\..\..\..\..\Software\uCOS-II\Source/os_task.c **** *              OS_ERR_ILLEGAL_CREATE_RUN_TIME   if you tried to create a task after safety critical
 206:..\..\..\..\..\..\Software\uCOS-II\Source/os_task.c **** *                                               operation started.
 207:..\..\..\..\..\..\Software\uCOS-II\Source/os_task.c **** ***************************************************************************************************
 208:..\..\..\..\..\..\Software\uCOS-II\Source/os_task.c **** */
 209:..\..\..\..\..\..\Software\uCOS-II\Source/os_task.c **** 
 210:..\..\..\..\..\..\Software\uCOS-II\Source/os_task.c **** #if OS_TASK_CREATE_EN > 0u
 211:..\..\..\..\..\..\Software\uCOS-II\Source/os_task.c **** INT8U  OSTaskCreate (void   (*task)(void *p_arg),
 212:..\..\..\..\..\..\Software\uCOS-II\Source/os_task.c ****                      void    *p_arg,
 213:..\..\..\..\..\..\Software\uCOS-II\Source/os_task.c ****                      OS_STK  *ptos,
 214:..\..\..\..\..\..\Software\uCOS-II\Source/os_task.c ****                      INT8U    prio)
 215:..\..\..\..\..\..\Software\uCOS-II\Source/os_task.c **** {
 404              		.loc 1 215 1 is_stmt 1 view -0
 405              		.cfi_startproc
 406              		@ args = 0, pretend = 0, frame = 0
 407              		@ frame_needed = 0, uses_anonymous_args = 0
 408              		.loc 1 215 1 is_stmt 0 view .LVU128
 409 0000 F0B5     		push	{r4, r5, r6, r7, lr}
 410              		.cfi_def_cfa_offset 20
 411              		.cfi_offset 4, -20
 412              		.cfi_offset 5, -16
 413              		.cfi_offset 6, -12
 414              		.cfi_offset 7, -8
 415              		.cfi_offset 14, -4
 416 0002 85B0     		sub	sp, sp, #20
 417              		.cfi_def_cfa_offset 40
 418 0004 0500     		movs	r5, r0
 419 0006 0E00     		movs	r6, r1
 420 0008 1700     		movs	r7, r2
 421 000a 1C00     		movs	r4, r3
 216:..\..\..\..\..\..\Software\uCOS-II\Source/os_task.c ****     OS_STK     *psp;
 422              		.loc 1 216 5 is_stmt 1 view .LVU129
 217:..\..\..\..\..\..\Software\uCOS-II\Source/os_task.c ****     INT8U       err;
 423              		.loc 1 217 5 view .LVU130
 218:..\..\..\..\..\..\Software\uCOS-II\Source/os_task.c **** #if OS_CRITICAL_METHOD == 3u                 /* Allocate storage for CPU status register           
 219:..\..\..\..\..\..\Software\uCOS-II\Source/os_task.c ****     OS_CPU_SR   cpu_sr = 0u;
 424              		.loc 1 219 5 view .LVU131
 425              	.LVL39:
 220:..\..\..\..\..\..\Software\uCOS-II\Source/os_task.c **** #endif
 221:..\..\..\..\..\..\Software\uCOS-II\Source/os_task.c **** 
 222:..\..\..\..\..\..\Software\uCOS-II\Source/os_task.c **** 
 223:..\..\..\..\..\..\Software\uCOS-II\Source/os_task.c **** 
 224:..\..\..\..\..\..\Software\uCOS-II\Source/os_task.c **** #ifdef OS_SAFETY_CRITICAL_IEC61508
 225:..\..\..\..\..\..\Software\uCOS-II\Source/os_task.c ****     if (OSSafetyCriticalStartFlag == OS_TRUE) {
 226:..\..\..\..\..\..\Software\uCOS-II\Source/os_task.c ****         OS_SAFETY_CRITICAL_EXCEPTION();
 227:..\..\..\..\..\..\Software\uCOS-II\Source/os_task.c ****         return (OS_ERR_ILLEGAL_CREATE_RUN_TIME);
 228:..\..\..\..\..\..\Software\uCOS-II\Source/os_task.c ****     }
 229:..\..\..\..\..\..\Software\uCOS-II\Source/os_task.c **** #endif
 230:..\..\..\..\..\..\Software\uCOS-II\Source/os_task.c **** 
 231:..\..\..\..\..\..\Software\uCOS-II\Source/os_task.c **** #if OS_ARG_CHK_EN > 0u
 232:..\..\..\..\..\..\Software\uCOS-II\Source/os_task.c ****     if (prio > OS_LOWEST_PRIO) {             /* Make sure priority is within allowable range       
 426              		.loc 1 232 5 view .LVU132
 427              		.loc 1 232 8 is_stmt 0 view .LVU133
 428 000c 1F2B     		cmp	r3, #31
 429 000e 3AD8     		bhi	.L28
 233:..\..\..\..\..\..\Software\uCOS-II\Source/os_task.c ****         return (OS_ERR_PRIO_INVALID);
ARM GAS  C:\Users\EDULU~1.DES\AppData\Local\Temp\ccgrKYGn.s 			page 13


 234:..\..\..\..\..\..\Software\uCOS-II\Source/os_task.c ****     }
 235:..\..\..\..\..\..\Software\uCOS-II\Source/os_task.c **** #endif
 236:..\..\..\..\..\..\Software\uCOS-II\Source/os_task.c ****     OS_ENTER_CRITICAL();
 430              		.loc 1 236 5 is_stmt 1 view .LVU134
 431              		.loc 1 236 5 view .LVU135
 432 0010 FFF7FEFF 		bl	OS_CPU_SR_Save
 433              	.LVL40:
 237:..\..\..\..\..\..\Software\uCOS-II\Source/os_task.c ****     if (OSIntNesting > 0u) {                 /* Make sure we don't create the task from within an I
 434              		.loc 1 237 5 view .LVU136
 435              		.loc 1 237 22 is_stmt 0 view .LVU137
 436 0014 1D4B     		ldr	r3, .L31
 437 0016 1B78     		ldrb	r3, [r3]
 438              		.loc 1 237 8 view .LVU138
 439 0018 002B     		cmp	r3, #0
 440 001a 0AD1     		bne	.L29
 238:..\..\..\..\..\..\Software\uCOS-II\Source/os_task.c ****         OS_EXIT_CRITICAL();
 239:..\..\..\..\..\..\Software\uCOS-II\Source/os_task.c ****         return (OS_ERR_TASK_CREATE_ISR);
 240:..\..\..\..\..\..\Software\uCOS-II\Source/os_task.c ****     }
 241:..\..\..\..\..\..\Software\uCOS-II\Source/os_task.c ****     if (OSTCBPrioTbl[prio] == (OS_TCB *)0) { /* Make sure task doesn't already exist at this priori
 441              		.loc 1 241 5 is_stmt 1 view .LVU139
 442              		.loc 1 241 21 is_stmt 0 view .LVU140
 443 001c A300     		lsls	r3, r4, #2
 444 001e 1C4A     		ldr	r2, .L31+4
 445 0020 9B58     		ldr	r3, [r3, r2]
 446              		.loc 1 241 8 view .LVU141
 447 0022 002B     		cmp	r3, #0
 448 0024 09D0     		beq	.L30
 242:..\..\..\..\..\..\Software\uCOS-II\Source/os_task.c ****         OSTCBPrioTbl[prio] = OS_TCB_RESERVED;/* Reserve the priority to prevent others from doing .
 243:..\..\..\..\..\..\Software\uCOS-II\Source/os_task.c ****                                              /* ... the same thing until task is created.          
 244:..\..\..\..\..\..\Software\uCOS-II\Source/os_task.c ****         OS_EXIT_CRITICAL();
 245:..\..\..\..\..\..\Software\uCOS-II\Source/os_task.c ****         psp = OSTaskStkInit(task, p_arg, ptos, 0u);             /* Initialize the task's stack     
 246:..\..\..\..\..\..\Software\uCOS-II\Source/os_task.c ****         err = OS_TCBInit(prio, psp, (OS_STK *)0, 0u, 0u, (void *)0, 0u);
 247:..\..\..\..\..\..\Software\uCOS-II\Source/os_task.c ****         if (err == OS_ERR_NONE) {
 248:..\..\..\..\..\..\Software\uCOS-II\Source/os_task.c ****             if (OSRunning == OS_TRUE) {      /* Find highest priority task if multitasking has star
 249:..\..\..\..\..\..\Software\uCOS-II\Source/os_task.c ****                 OS_Sched();
 250:..\..\..\..\..\..\Software\uCOS-II\Source/os_task.c ****             }
 251:..\..\..\..\..\..\Software\uCOS-II\Source/os_task.c ****         } else {
 252:..\..\..\..\..\..\Software\uCOS-II\Source/os_task.c ****             OS_ENTER_CRITICAL();
 253:..\..\..\..\..\..\Software\uCOS-II\Source/os_task.c ****             OSTCBPrioTbl[prio] = (OS_TCB *)0;/* Make this priority available to others             
 254:..\..\..\..\..\..\Software\uCOS-II\Source/os_task.c ****             OS_EXIT_CRITICAL();
 255:..\..\..\..\..\..\Software\uCOS-II\Source/os_task.c ****         }
 256:..\..\..\..\..\..\Software\uCOS-II\Source/os_task.c ****         return (err);
 257:..\..\..\..\..\..\Software\uCOS-II\Source/os_task.c ****     }
 258:..\..\..\..\..\..\Software\uCOS-II\Source/os_task.c ****     OS_EXIT_CRITICAL();
 449              		.loc 1 258 5 is_stmt 1 view .LVU142
 450              		.loc 1 258 5 view .LVU143
 451 0026 FFF7FEFF 		bl	OS_CPU_SR_Restore
 452              	.LVL41:
 259:..\..\..\..\..\..\Software\uCOS-II\Source/os_task.c ****     return (OS_ERR_PRIO_EXIST);
 453              		.loc 1 259 5 view .LVU144
 454              		.loc 1 259 12 is_stmt 0 view .LVU145
 455 002a 2825     		movs	r5, #40
 456              	.LVL42:
 457              	.L23:
 260:..\..\..\..\..\..\Software\uCOS-II\Source/os_task.c **** }
 458              		.loc 1 260 1 view .LVU146
 459 002c 2800     		movs	r0, r5
ARM GAS  C:\Users\EDULU~1.DES\AppData\Local\Temp\ccgrKYGn.s 			page 14


 460 002e 05B0     		add	sp, sp, #20
 461              		@ sp needed
 462              	.LVL43:
 463              	.LVL44:
 464              		.loc 1 260 1 view .LVU147
 465 0030 F0BD     		pop	{r4, r5, r6, r7, pc}
 466              	.LVL45:
 467              	.L29:
 238:..\..\..\..\..\..\Software\uCOS-II\Source/os_task.c ****         return (OS_ERR_TASK_CREATE_ISR);
 468              		.loc 1 238 9 is_stmt 1 view .LVU148
 238:..\..\..\..\..\..\Software\uCOS-II\Source/os_task.c ****         return (OS_ERR_TASK_CREATE_ISR);
 469              		.loc 1 238 9 view .LVU149
 470 0032 FFF7FEFF 		bl	OS_CPU_SR_Restore
 471              	.LVL46:
 239:..\..\..\..\..\..\Software\uCOS-II\Source/os_task.c ****     }
 472              		.loc 1 239 9 view .LVU150
 239:..\..\..\..\..\..\Software\uCOS-II\Source/os_task.c ****     }
 473              		.loc 1 239 16 is_stmt 0 view .LVU151
 474 0036 3C25     		movs	r5, #60
 475              	.LVL47:
 239:..\..\..\..\..\..\Software\uCOS-II\Source/os_task.c ****     }
 476              		.loc 1 239 16 view .LVU152
 477 0038 F8E7     		b	.L23
 478              	.LVL48:
 479              	.L30:
 242:..\..\..\..\..\..\Software\uCOS-II\Source/os_task.c ****                                              /* ... the same thing until task is created.          
 480              		.loc 1 242 9 is_stmt 1 view .LVU153
 242:..\..\..\..\..\..\Software\uCOS-II\Source/os_task.c ****                                              /* ... the same thing until task is created.          
 481              		.loc 1 242 28 is_stmt 0 view .LVU154
 482 003a A300     		lsls	r3, r4, #2
 483 003c 0121     		movs	r1, #1
 484 003e 9950     		str	r1, [r3, r2]
 244:..\..\..\..\..\..\Software\uCOS-II\Source/os_task.c ****         psp = OSTaskStkInit(task, p_arg, ptos, 0u);             /* Initialize the task's stack     
 485              		.loc 1 244 9 is_stmt 1 view .LVU155
 244:..\..\..\..\..\..\Software\uCOS-II\Source/os_task.c ****         psp = OSTaskStkInit(task, p_arg, ptos, 0u);             /* Initialize the task's stack     
 486              		.loc 1 244 9 view .LVU156
 487 0040 FFF7FEFF 		bl	OS_CPU_SR_Restore
 488              	.LVL49:
 245:..\..\..\..\..\..\Software\uCOS-II\Source/os_task.c ****         err = OS_TCBInit(prio, psp, (OS_STK *)0, 0u, 0u, (void *)0, 0u);
 489              		.loc 1 245 9 view .LVU157
 245:..\..\..\..\..\..\Software\uCOS-II\Source/os_task.c ****         err = OS_TCBInit(prio, psp, (OS_STK *)0, 0u, 0u, (void *)0, 0u);
 490              		.loc 1 245 15 is_stmt 0 view .LVU158
 491 0044 0023     		movs	r3, #0
 492 0046 3A00     		movs	r2, r7
 493 0048 3100     		movs	r1, r6
 494 004a 2800     		movs	r0, r5
 495 004c FFF7FEFF 		bl	OSTaskStkInit
 496              	.LVL50:
 497 0050 0100     		movs	r1, r0
 498              	.LVL51:
 246:..\..\..\..\..\..\Software\uCOS-II\Source/os_task.c ****         if (err == OS_ERR_NONE) {
 499              		.loc 1 246 9 is_stmt 1 view .LVU159
 246:..\..\..\..\..\..\Software\uCOS-II\Source/os_task.c ****         if (err == OS_ERR_NONE) {
 500              		.loc 1 246 15 is_stmt 0 view .LVU160
 501 0052 0023     		movs	r3, #0
 502 0054 0293     		str	r3, [sp, #8]
 503 0056 0193     		str	r3, [sp, #4]
ARM GAS  C:\Users\EDULU~1.DES\AppData\Local\Temp\ccgrKYGn.s 			page 15


 504 0058 0093     		str	r3, [sp]
 505 005a 0022     		movs	r2, #0
 506 005c 2000     		movs	r0, r4
 507              	.LVL52:
 246:..\..\..\..\..\..\Software\uCOS-II\Source/os_task.c ****         if (err == OS_ERR_NONE) {
 508              		.loc 1 246 15 view .LVU161
 509 005e FFF7FEFF 		bl	OS_TCBInit
 510              	.LVL53:
 246:..\..\..\..\..\..\Software\uCOS-II\Source/os_task.c ****         if (err == OS_ERR_NONE) {
 511              		.loc 1 246 15 view .LVU162
 512 0062 051E     		subs	r5, r0, #0
 513              	.LVL54:
 247:..\..\..\..\..\..\Software\uCOS-II\Source/os_task.c ****             if (OSRunning == OS_TRUE) {      /* Find highest priority task if multitasking has star
 514              		.loc 1 247 9 is_stmt 1 view .LVU163
 247:..\..\..\..\..\..\Software\uCOS-II\Source/os_task.c ****             if (OSRunning == OS_TRUE) {      /* Find highest priority task if multitasking has star
 515              		.loc 1 247 12 is_stmt 0 view .LVU164
 516 0064 06D1     		bne	.L26
 248:..\..\..\..\..\..\Software\uCOS-II\Source/os_task.c ****                 OS_Sched();
 517              		.loc 1 248 13 is_stmt 1 view .LVU165
 248:..\..\..\..\..\..\Software\uCOS-II\Source/os_task.c ****                 OS_Sched();
 518              		.loc 1 248 27 is_stmt 0 view .LVU166
 519 0066 0B4B     		ldr	r3, .L31+8
 520 0068 1B78     		ldrb	r3, [r3]
 248:..\..\..\..\..\..\Software\uCOS-II\Source/os_task.c ****                 OS_Sched();
 521              		.loc 1 248 16 view .LVU167
 522 006a 012B     		cmp	r3, #1
 523 006c DED1     		bne	.L23
 249:..\..\..\..\..\..\Software\uCOS-II\Source/os_task.c ****             }
 524              		.loc 1 249 17 is_stmt 1 view .LVU168
 525 006e FFF7FEFF 		bl	OS_Sched
 526              	.LVL55:
 249:..\..\..\..\..\..\Software\uCOS-II\Source/os_task.c ****             }
 527              		.loc 1 249 17 is_stmt 0 view .LVU169
 528 0072 DBE7     		b	.L23
 529              	.LVL56:
 530              	.L26:
 252:..\..\..\..\..\..\Software\uCOS-II\Source/os_task.c ****             OSTCBPrioTbl[prio] = (OS_TCB *)0;/* Make this priority available to others             
 531              		.loc 1 252 13 is_stmt 1 view .LVU170
 252:..\..\..\..\..\..\Software\uCOS-II\Source/os_task.c ****             OSTCBPrioTbl[prio] = (OS_TCB *)0;/* Make this priority available to others             
 532              		.loc 1 252 13 view .LVU171
 533 0074 FFF7FEFF 		bl	OS_CPU_SR_Save
 534              	.LVL57:
 253:..\..\..\..\..\..\Software\uCOS-II\Source/os_task.c ****             OS_EXIT_CRITICAL();
 535              		.loc 1 253 13 view .LVU172
 253:..\..\..\..\..\..\Software\uCOS-II\Source/os_task.c ****             OS_EXIT_CRITICAL();
 536              		.loc 1 253 32 is_stmt 0 view .LVU173
 537 0078 A400     		lsls	r4, r4, #2
 538 007a 054B     		ldr	r3, .L31+4
 539 007c 0022     		movs	r2, #0
 540 007e E250     		str	r2, [r4, r3]
 254:..\..\..\..\..\..\Software\uCOS-II\Source/os_task.c ****         }
 541              		.loc 1 254 13 is_stmt 1 view .LVU174
 254:..\..\..\..\..\..\Software\uCOS-II\Source/os_task.c ****         }
 542              		.loc 1 254 13 view .LVU175
 543 0080 FFF7FEFF 		bl	OS_CPU_SR_Restore
 544              	.LVL58:
 256:..\..\..\..\..\..\Software\uCOS-II\Source/os_task.c ****     }
ARM GAS  C:\Users\EDULU~1.DES\AppData\Local\Temp\ccgrKYGn.s 			page 16


 545              		.loc 1 256 9 view .LVU176
 256:..\..\..\..\..\..\Software\uCOS-II\Source/os_task.c ****     }
 546              		.loc 1 256 16 is_stmt 0 view .LVU177
 547 0084 D2E7     		b	.L23
 548              	.LVL59:
 549              	.L28:
 233:..\..\..\..\..\..\Software\uCOS-II\Source/os_task.c ****     }
 550              		.loc 1 233 16 view .LVU178
 551 0086 2A25     		movs	r5, #42
 552 0088 D0E7     		b	.L23
 553              	.L32:
 554 008a C046     		.align	2
 555              	.L31:
 556 008c 00000000 		.word	OSIntNesting
 557 0090 00000000 		.word	OSTCBPrioTbl
 558 0094 00000000 		.word	OSRunning
 559              		.cfi_endproc
 560              	.LFE4:
 561              		.size	OSTaskCreate, .-OSTaskCreate
 562              		.section	.text.OSTaskResume,"ax",%progbits
 563              		.align	1
 564              		.global	OSTaskResume
 565              		.syntax unified
 566              		.code	16
 567              		.thumb_func
 568              		.fpu softvfp
 569              		.type	OSTaskResume, %function
 570              	OSTaskResume:
 571              	.LVL60:
 572              	.LFB6:
 261:..\..\..\..\..\..\Software\uCOS-II\Source/os_task.c **** #endif
 262:..\..\..\..\..\..\Software\uCOS-II\Source/os_task.c **** /*$PAGE*/
 263:..\..\..\..\..\..\Software\uCOS-II\Source/os_task.c **** /*
 264:..\..\..\..\..\..\Software\uCOS-II\Source/os_task.c **** ***************************************************************************************************
 265:..\..\..\..\..\..\Software\uCOS-II\Source/os_task.c **** *                                  CREATE A TASK (Extended Version)
 266:..\..\..\..\..\..\Software\uCOS-II\Source/os_task.c **** *
 267:..\..\..\..\..\..\Software\uCOS-II\Source/os_task.c **** * Description: This function is used to have uC/OS-II manage the execution of a task.  Tasks can ei
 268:..\..\..\..\..\..\Software\uCOS-II\Source/os_task.c **** *              be created prior to the start of multitasking or by a running task.  A task cannot b
 269:..\..\..\..\..\..\Software\uCOS-II\Source/os_task.c **** *              created by an ISR.  This function is similar to OSTaskCreate() except that it allows
 270:..\..\..\..\..\..\Software\uCOS-II\Source/os_task.c **** *              additional information about a task to be specified.
 271:..\..\..\..\..\..\Software\uCOS-II\Source/os_task.c **** *
 272:..\..\..\..\..\..\Software\uCOS-II\Source/os_task.c **** * Arguments  : task      is a pointer to the task's code
 273:..\..\..\..\..\..\Software\uCOS-II\Source/os_task.c **** *
 274:..\..\..\..\..\..\Software\uCOS-II\Source/os_task.c **** *              p_arg     is a pointer to an optional data area which can be used to pass parameters
 275:..\..\..\..\..\..\Software\uCOS-II\Source/os_task.c **** *                        the task when the task first executes.  Where the task is concerned it thi
 276:..\..\..\..\..\..\Software\uCOS-II\Source/os_task.c **** *                        it was invoked and passed the argument 'p_arg' as follows:
 277:..\..\..\..\..\..\Software\uCOS-II\Source/os_task.c **** *
 278:..\..\..\..\..\..\Software\uCOS-II\Source/os_task.c **** *                            void Task (void *p_arg)
 279:..\..\..\..\..\..\Software\uCOS-II\Source/os_task.c **** *                            {
 280:..\..\..\..\..\..\Software\uCOS-II\Source/os_task.c **** *                                for (;;) {
 281:..\..\..\..\..\..\Software\uCOS-II\Source/os_task.c **** *                                    Task code;
 282:..\..\..\..\..\..\Software\uCOS-II\Source/os_task.c **** *                                }
 283:..\..\..\..\..\..\Software\uCOS-II\Source/os_task.c **** *                            }
 284:..\..\..\..\..\..\Software\uCOS-II\Source/os_task.c **** *
 285:..\..\..\..\..\..\Software\uCOS-II\Source/os_task.c **** *              ptos      is a pointer to the task's top of stack.  If the configuration constant
 286:..\..\..\..\..\..\Software\uCOS-II\Source/os_task.c **** *                        OS_STK_GROWTH is set to 1, the stack is assumed to grow downward (i.e. fro
 287:..\..\..\..\..\..\Software\uCOS-II\Source/os_task.c **** *                        memory to low memory).  'ptos' will thus point to the highest (valid) memo
ARM GAS  C:\Users\EDULU~1.DES\AppData\Local\Temp\ccgrKYGn.s 			page 17


 288:..\..\..\..\..\..\Software\uCOS-II\Source/os_task.c **** *                        location of the stack.  If OS_STK_GROWTH is set to 0, 'ptos' will point to
 289:..\..\..\..\..\..\Software\uCOS-II\Source/os_task.c **** *                        lowest memory location of the stack and the stack will grow with increasin
 290:..\..\..\..\..\..\Software\uCOS-II\Source/os_task.c **** *                        memory locations.  'ptos' MUST point to a valid 'free' data item.
 291:..\..\..\..\..\..\Software\uCOS-II\Source/os_task.c **** *
 292:..\..\..\..\..\..\Software\uCOS-II\Source/os_task.c **** *              prio      is the task's priority.  A unique priority MUST be assigned to each task a
 293:..\..\..\..\..\..\Software\uCOS-II\Source/os_task.c **** *                        lower the number, the higher the priority.
 294:..\..\..\..\..\..\Software\uCOS-II\Source/os_task.c **** *
 295:..\..\..\..\..\..\Software\uCOS-II\Source/os_task.c **** *              id        is the task's ID (0..65535)
 296:..\..\..\..\..\..\Software\uCOS-II\Source/os_task.c **** *
 297:..\..\..\..\..\..\Software\uCOS-II\Source/os_task.c **** *              pbos      is a pointer to the task's bottom of stack.  If the configuration constant
 298:..\..\..\..\..\..\Software\uCOS-II\Source/os_task.c **** *                        OS_STK_GROWTH is set to 1, the stack is assumed to grow downward (i.e. fro
 299:..\..\..\..\..\..\Software\uCOS-II\Source/os_task.c **** *                        memory to low memory).  'pbos' will thus point to the LOWEST (valid) memor
 300:..\..\..\..\..\..\Software\uCOS-II\Source/os_task.c **** *                        location of the stack.  If OS_STK_GROWTH is set to 0, 'pbos' will point to
 301:..\..\..\..\..\..\Software\uCOS-II\Source/os_task.c **** *                        HIGHEST memory location of the stack and the stack will grow with increasi
 302:..\..\..\..\..\..\Software\uCOS-II\Source/os_task.c **** *                        memory locations.  'pbos' MUST point to a valid 'free' data item.
 303:..\..\..\..\..\..\Software\uCOS-II\Source/os_task.c **** *
 304:..\..\..\..\..\..\Software\uCOS-II\Source/os_task.c **** *              stk_size  is the size of the stack in number of elements.  If OS_STK is set to INT8U
 305:..\..\..\..\..\..\Software\uCOS-II\Source/os_task.c **** *                        'stk_size' corresponds to the number of bytes available.  If OS_STK is set
 306:..\..\..\..\..\..\Software\uCOS-II\Source/os_task.c **** *                        INT16U, 'stk_size' contains the number of 16-bit entries available.  Final
 307:..\..\..\..\..\..\Software\uCOS-II\Source/os_task.c **** *                        OS_STK is set to INT32U, 'stk_size' contains the number of 32-bit entries
 308:..\..\..\..\..\..\Software\uCOS-II\Source/os_task.c **** *                        available on the stack.
 309:..\..\..\..\..\..\Software\uCOS-II\Source/os_task.c **** *
 310:..\..\..\..\..\..\Software\uCOS-II\Source/os_task.c **** *              pext      is a pointer to a user supplied memory location which is used as a TCB ext
 311:..\..\..\..\..\..\Software\uCOS-II\Source/os_task.c **** *                        For example, this user memory can hold the contents of floating-point regi
 312:..\..\..\..\..\..\Software\uCOS-II\Source/os_task.c **** *                        during a context switch, the time each task takes to execute, the number o
 313:..\..\..\..\..\..\Software\uCOS-II\Source/os_task.c **** *                        the task has been switched-in, etc.
 314:..\..\..\..\..\..\Software\uCOS-II\Source/os_task.c **** *
 315:..\..\..\..\..\..\Software\uCOS-II\Source/os_task.c **** *              opt       contains additional information (or options) about the behavior of the tas
 316:..\..\..\..\..\..\Software\uCOS-II\Source/os_task.c **** *                        LOWER 8-bits are reserved by uC/OS-II while the upper 8 bits can be applic
 317:..\..\..\..\..\..\Software\uCOS-II\Source/os_task.c **** *                        specific.  See OS_TASK_OPT_??? in uCOS-II.H.  Current choices are:
 318:..\..\..\..\..\..\Software\uCOS-II\Source/os_task.c **** *
 319:..\..\..\..\..\..\Software\uCOS-II\Source/os_task.c **** *                        OS_TASK_OPT_STK_CHK      Stack checking to be allowed for the task
 320:..\..\..\..\..\..\Software\uCOS-II\Source/os_task.c **** *                        OS_TASK_OPT_STK_CLR      Clear the stack when the task is created
 321:..\..\..\..\..\..\Software\uCOS-II\Source/os_task.c **** *                        OS_TASK_OPT_SAVE_FP      If the CPU has floating-point registers, save the
 322:..\..\..\..\..\..\Software\uCOS-II\Source/os_task.c **** *                                                 during a context switch.
 323:..\..\..\..\..\..\Software\uCOS-II\Source/os_task.c **** *
 324:..\..\..\..\..\..\Software\uCOS-II\Source/os_task.c **** * Returns    : OS_ERR_NONE                      if the function was successful.
 325:..\..\..\..\..\..\Software\uCOS-II\Source/os_task.c **** *              OS_ERR_PRIO_EXIST                if the task priority already exist
 326:..\..\..\..\..\..\Software\uCOS-II\Source/os_task.c **** *                                               (each task MUST have a unique priority).
 327:..\..\..\..\..\..\Software\uCOS-II\Source/os_task.c **** *              OS_ERR_PRIO_INVALID              if the priority you specify is higher that the maxi
 328:..\..\..\..\..\..\Software\uCOS-II\Source/os_task.c **** *                                               allowed (i.e. > OS_LOWEST_PRIO)
 329:..\..\..\..\..\..\Software\uCOS-II\Source/os_task.c **** *              OS_ERR_TASK_CREATE_ISR           if you tried to create a task from an ISR.
 330:..\..\..\..\..\..\Software\uCOS-II\Source/os_task.c **** *              OS_ERR_ILLEGAL_CREATE_RUN_TIME   if you tried to create a task after safety critical
 331:..\..\..\..\..\..\Software\uCOS-II\Source/os_task.c **** *                                               operation started.
 332:..\..\..\..\..\..\Software\uCOS-II\Source/os_task.c **** ***************************************************************************************************
 333:..\..\..\..\..\..\Software\uCOS-II\Source/os_task.c **** */
 334:..\..\..\..\..\..\Software\uCOS-II\Source/os_task.c **** /*$PAGE*/
 335:..\..\..\..\..\..\Software\uCOS-II\Source/os_task.c **** #if OS_TASK_CREATE_EXT_EN > 0u
 336:..\..\..\..\..\..\Software\uCOS-II\Source/os_task.c **** INT8U  OSTaskCreateExt (void   (*task)(void *p_arg),
 337:..\..\..\..\..\..\Software\uCOS-II\Source/os_task.c ****                         void    *p_arg,
 338:..\..\..\..\..\..\Software\uCOS-II\Source/os_task.c ****                         OS_STK  *ptos,
 339:..\..\..\..\..\..\Software\uCOS-II\Source/os_task.c ****                         INT8U    prio,
 340:..\..\..\..\..\..\Software\uCOS-II\Source/os_task.c ****                         INT16U   id,
 341:..\..\..\..\..\..\Software\uCOS-II\Source/os_task.c ****                         OS_STK  *pbos,
 342:..\..\..\..\..\..\Software\uCOS-II\Source/os_task.c ****                         INT32U   stk_size,
 343:..\..\..\..\..\..\Software\uCOS-II\Source/os_task.c ****                         void    *pext,
 344:..\..\..\..\..\..\Software\uCOS-II\Source/os_task.c ****                         INT16U   opt)
ARM GAS  C:\Users\EDULU~1.DES\AppData\Local\Temp\ccgrKYGn.s 			page 18


 345:..\..\..\..\..\..\Software\uCOS-II\Source/os_task.c **** {
 346:..\..\..\..\..\..\Software\uCOS-II\Source/os_task.c ****     OS_STK     *psp;
 347:..\..\..\..\..\..\Software\uCOS-II\Source/os_task.c ****     INT8U       err;
 348:..\..\..\..\..\..\Software\uCOS-II\Source/os_task.c **** #if OS_CRITICAL_METHOD == 3u                 /* Allocate storage for CPU status register           
 349:..\..\..\..\..\..\Software\uCOS-II\Source/os_task.c ****     OS_CPU_SR   cpu_sr = 0u;
 350:..\..\..\..\..\..\Software\uCOS-II\Source/os_task.c **** #endif
 351:..\..\..\..\..\..\Software\uCOS-II\Source/os_task.c **** 
 352:..\..\..\..\..\..\Software\uCOS-II\Source/os_task.c **** 
 353:..\..\..\..\..\..\Software\uCOS-II\Source/os_task.c **** 
 354:..\..\..\..\..\..\Software\uCOS-II\Source/os_task.c **** #ifdef OS_SAFETY_CRITICAL_IEC61508
 355:..\..\..\..\..\..\Software\uCOS-II\Source/os_task.c ****     if (OSSafetyCriticalStartFlag == OS_TRUE) {
 356:..\..\..\..\..\..\Software\uCOS-II\Source/os_task.c ****         OS_SAFETY_CRITICAL_EXCEPTION();
 357:..\..\..\..\..\..\Software\uCOS-II\Source/os_task.c ****         return (OS_ERR_ILLEGAL_CREATE_RUN_TIME);
 358:..\..\..\..\..\..\Software\uCOS-II\Source/os_task.c ****     }
 359:..\..\..\..\..\..\Software\uCOS-II\Source/os_task.c **** #endif
 360:..\..\..\..\..\..\Software\uCOS-II\Source/os_task.c **** 
 361:..\..\..\..\..\..\Software\uCOS-II\Source/os_task.c **** #if OS_ARG_CHK_EN > 0u
 362:..\..\..\..\..\..\Software\uCOS-II\Source/os_task.c ****     if (prio > OS_LOWEST_PRIO) {             /* Make sure priority is within allowable range       
 363:..\..\..\..\..\..\Software\uCOS-II\Source/os_task.c ****         return (OS_ERR_PRIO_INVALID);
 364:..\..\..\..\..\..\Software\uCOS-II\Source/os_task.c ****     }
 365:..\..\..\..\..\..\Software\uCOS-II\Source/os_task.c **** #endif
 366:..\..\..\..\..\..\Software\uCOS-II\Source/os_task.c ****     OS_ENTER_CRITICAL();
 367:..\..\..\..\..\..\Software\uCOS-II\Source/os_task.c ****     if (OSIntNesting > 0u) {                 /* Make sure we don't create the task from within an I
 368:..\..\..\..\..\..\Software\uCOS-II\Source/os_task.c ****         OS_EXIT_CRITICAL();
 369:..\..\..\..\..\..\Software\uCOS-II\Source/os_task.c ****         return (OS_ERR_TASK_CREATE_ISR);
 370:..\..\..\..\..\..\Software\uCOS-II\Source/os_task.c ****     }
 371:..\..\..\..\..\..\Software\uCOS-II\Source/os_task.c ****     if (OSTCBPrioTbl[prio] == (OS_TCB *)0) { /* Make sure task doesn't already exist at this priori
 372:..\..\..\..\..\..\Software\uCOS-II\Source/os_task.c ****         OSTCBPrioTbl[prio] = OS_TCB_RESERVED;/* Reserve the priority to prevent others from doing .
 373:..\..\..\..\..\..\Software\uCOS-II\Source/os_task.c ****                                              /* ... the same thing until task is created.          
 374:..\..\..\..\..\..\Software\uCOS-II\Source/os_task.c ****         OS_EXIT_CRITICAL();
 375:..\..\..\..\..\..\Software\uCOS-II\Source/os_task.c **** 
 376:..\..\..\..\..\..\Software\uCOS-II\Source/os_task.c **** #if (OS_TASK_STAT_STK_CHK_EN > 0u)
 377:..\..\..\..\..\..\Software\uCOS-II\Source/os_task.c ****         OS_TaskStkClr(pbos, stk_size, opt);                    /* Clear the task stack (if needed) 
 378:..\..\..\..\..\..\Software\uCOS-II\Source/os_task.c **** #endif
 379:..\..\..\..\..\..\Software\uCOS-II\Source/os_task.c **** 
 380:..\..\..\..\..\..\Software\uCOS-II\Source/os_task.c ****         psp = OSTaskStkInit(task, p_arg, ptos, opt);           /* Initialize the task's stack      
 381:..\..\..\..\..\..\Software\uCOS-II\Source/os_task.c ****         err = OS_TCBInit(prio, psp, pbos, id, stk_size, pext, opt);
 382:..\..\..\..\..\..\Software\uCOS-II\Source/os_task.c ****         if (err == OS_ERR_NONE) {
 383:..\..\..\..\..\..\Software\uCOS-II\Source/os_task.c ****             if (OSRunning == OS_TRUE) {                        /* Find HPT if multitasking has star
 384:..\..\..\..\..\..\Software\uCOS-II\Source/os_task.c ****                 OS_Sched();
 385:..\..\..\..\..\..\Software\uCOS-II\Source/os_task.c ****             }
 386:..\..\..\..\..\..\Software\uCOS-II\Source/os_task.c ****         } else {
 387:..\..\..\..\..\..\Software\uCOS-II\Source/os_task.c ****             OS_ENTER_CRITICAL();
 388:..\..\..\..\..\..\Software\uCOS-II\Source/os_task.c ****             OSTCBPrioTbl[prio] = (OS_TCB *)0;                  /* Make this priority avail. to othe
 389:..\..\..\..\..\..\Software\uCOS-II\Source/os_task.c ****             OS_EXIT_CRITICAL();
 390:..\..\..\..\..\..\Software\uCOS-II\Source/os_task.c ****         }
 391:..\..\..\..\..\..\Software\uCOS-II\Source/os_task.c ****         return (err);
 392:..\..\..\..\..\..\Software\uCOS-II\Source/os_task.c ****     }
 393:..\..\..\..\..\..\Software\uCOS-II\Source/os_task.c ****     OS_EXIT_CRITICAL();
 394:..\..\..\..\..\..\Software\uCOS-II\Source/os_task.c ****     return (OS_ERR_PRIO_EXIST);
 395:..\..\..\..\..\..\Software\uCOS-II\Source/os_task.c **** }
 396:..\..\..\..\..\..\Software\uCOS-II\Source/os_task.c **** #endif
 397:..\..\..\..\..\..\Software\uCOS-II\Source/os_task.c **** /*$PAGE*/
 398:..\..\..\..\..\..\Software\uCOS-II\Source/os_task.c **** /*
 399:..\..\..\..\..\..\Software\uCOS-II\Source/os_task.c **** ***************************************************************************************************
 400:..\..\..\..\..\..\Software\uCOS-II\Source/os_task.c **** *                                            DELETE A TASK
 401:..\..\..\..\..\..\Software\uCOS-II\Source/os_task.c **** *
ARM GAS  C:\Users\EDULU~1.DES\AppData\Local\Temp\ccgrKYGn.s 			page 19


 402:..\..\..\..\..\..\Software\uCOS-II\Source/os_task.c **** * Description: This function allows you to delete a task.  The calling task can delete itself by
 403:..\..\..\..\..\..\Software\uCOS-II\Source/os_task.c **** *              its own priority number.  The deleted task is returned to the dormant state and can 
 404:..\..\..\..\..\..\Software\uCOS-II\Source/os_task.c **** *              re-activated by creating the deleted task again.
 405:..\..\..\..\..\..\Software\uCOS-II\Source/os_task.c **** *
 406:..\..\..\..\..\..\Software\uCOS-II\Source/os_task.c **** * Arguments  : prio    is the priority of the task to delete.  Note that you can explicitly delete
 407:..\..\..\..\..\..\Software\uCOS-II\Source/os_task.c **** *                      the current task without knowing its priority level by setting 'prio' to
 408:..\..\..\..\..\..\Software\uCOS-II\Source/os_task.c **** *                      OS_PRIO_SELF.
 409:..\..\..\..\..\..\Software\uCOS-II\Source/os_task.c **** *
 410:..\..\..\..\..\..\Software\uCOS-II\Source/os_task.c **** * Returns    : OS_ERR_NONE             if the call is successful
 411:..\..\..\..\..\..\Software\uCOS-II\Source/os_task.c **** *              OS_ERR_TASK_DEL_IDLE    if you attempted to delete uC/OS-II's idle task
 412:..\..\..\..\..\..\Software\uCOS-II\Source/os_task.c **** *              OS_ERR_PRIO_INVALID     if the priority you specify is higher that the maximum allow
 413:..\..\..\..\..\..\Software\uCOS-II\Source/os_task.c **** *                                      (i.e. >= OS_LOWEST_PRIO) or, you have not specified OS_PRIO_
 414:..\..\..\..\..\..\Software\uCOS-II\Source/os_task.c **** *              OS_ERR_TASK_DEL         if the task is assigned to a Mutex PIP.
 415:..\..\..\..\..\..\Software\uCOS-II\Source/os_task.c **** *              OS_ERR_TASK_NOT_EXIST   if the task you want to delete does not exist.
 416:..\..\..\..\..\..\Software\uCOS-II\Source/os_task.c **** *              OS_ERR_TASK_DEL_ISR     if you tried to delete a task from an ISR
 417:..\..\..\..\..\..\Software\uCOS-II\Source/os_task.c **** *
 418:..\..\..\..\..\..\Software\uCOS-II\Source/os_task.c **** * Notes      : 1) To reduce interrupt latency, OSTaskDel() 'disables' the task:
 419:..\..\..\..\..\..\Software\uCOS-II\Source/os_task.c **** *                    a) by making it not ready
 420:..\..\..\..\..\..\Software\uCOS-II\Source/os_task.c **** *                    b) by removing it from any wait lists
 421:..\..\..\..\..\..\Software\uCOS-II\Source/os_task.c **** *                    c) by preventing OSTimeTick() from making the task ready to run.
 422:..\..\..\..\..\..\Software\uCOS-II\Source/os_task.c **** *                 The task can then be 'unlinked' from the miscellaneous structures in uC/OS-II.
 423:..\..\..\..\..\..\Software\uCOS-II\Source/os_task.c **** *              2) The function OS_Dummy() is called after OS_EXIT_CRITICAL() because, on most proce
 424:..\..\..\..\..\..\Software\uCOS-II\Source/os_task.c **** *                 the next instruction following the enable interrupt instruction is ignored.
 425:..\..\..\..\..\..\Software\uCOS-II\Source/os_task.c **** *              3) An ISR cannot delete a task.
 426:..\..\..\..\..\..\Software\uCOS-II\Source/os_task.c **** *              4) The lock nesting counter is incremented because, for a brief instant, if the curr
 427:..\..\..\..\..\..\Software\uCOS-II\Source/os_task.c **** *                 task is being deleted, the current task would not be able to be rescheduled becau
 428:..\..\..\..\..\..\Software\uCOS-II\Source/os_task.c **** *                 is removed from the ready list.  Incrementing the nesting counter prevents anothe
 429:..\..\..\..\..\..\Software\uCOS-II\Source/os_task.c **** *                 from being schedule.  This means that an ISR would return to the current task whi
 430:..\..\..\..\..\..\Software\uCOS-II\Source/os_task.c **** *                 being deleted.  The rest of the deletion would thus be able to be completed.
 431:..\..\..\..\..\..\Software\uCOS-II\Source/os_task.c **** ***************************************************************************************************
 432:..\..\..\..\..\..\Software\uCOS-II\Source/os_task.c **** */
 433:..\..\..\..\..\..\Software\uCOS-II\Source/os_task.c **** 
 434:..\..\..\..\..\..\Software\uCOS-II\Source/os_task.c **** #if OS_TASK_DEL_EN > 0u
 435:..\..\..\..\..\..\Software\uCOS-II\Source/os_task.c **** INT8U  OSTaskDel (INT8U prio)
 436:..\..\..\..\..\..\Software\uCOS-II\Source/os_task.c **** {
 437:..\..\..\..\..\..\Software\uCOS-II\Source/os_task.c **** #if (OS_FLAG_EN > 0u) && (OS_MAX_FLAGS > 0u)
 438:..\..\..\..\..\..\Software\uCOS-II\Source/os_task.c ****     OS_FLAG_NODE *pnode;
 439:..\..\..\..\..\..\Software\uCOS-II\Source/os_task.c **** #endif
 440:..\..\..\..\..\..\Software\uCOS-II\Source/os_task.c ****     OS_TCB       *ptcb;
 441:..\..\..\..\..\..\Software\uCOS-II\Source/os_task.c **** #if OS_CRITICAL_METHOD == 3u                            /* Allocate storage for CPU status register
 442:..\..\..\..\..\..\Software\uCOS-II\Source/os_task.c ****     OS_CPU_SR     cpu_sr = 0u;
 443:..\..\..\..\..\..\Software\uCOS-II\Source/os_task.c **** #endif
 444:..\..\..\..\..\..\Software\uCOS-II\Source/os_task.c **** 
 445:..\..\..\..\..\..\Software\uCOS-II\Source/os_task.c **** 
 446:..\..\..\..\..\..\Software\uCOS-II\Source/os_task.c **** 
 447:..\..\..\..\..\..\Software\uCOS-II\Source/os_task.c ****     if (OSIntNesting > 0u) {                            /* See if trying to delete from ISR        
 448:..\..\..\..\..\..\Software\uCOS-II\Source/os_task.c ****         return (OS_ERR_TASK_DEL_ISR);
 449:..\..\..\..\..\..\Software\uCOS-II\Source/os_task.c ****     }
 450:..\..\..\..\..\..\Software\uCOS-II\Source/os_task.c ****     if (prio == OS_TASK_IDLE_PRIO) {                    /* Not allowed to delete idle task         
 451:..\..\..\..\..\..\Software\uCOS-II\Source/os_task.c ****         return (OS_ERR_TASK_DEL_IDLE);
 452:..\..\..\..\..\..\Software\uCOS-II\Source/os_task.c ****     }
 453:..\..\..\..\..\..\Software\uCOS-II\Source/os_task.c **** #if OS_ARG_CHK_EN > 0u
 454:..\..\..\..\..\..\Software\uCOS-II\Source/os_task.c ****     if (prio >= OS_LOWEST_PRIO) {                       /* Task priority valid ?                   
 455:..\..\..\..\..\..\Software\uCOS-II\Source/os_task.c ****         if (prio != OS_PRIO_SELF) {
 456:..\..\..\..\..\..\Software\uCOS-II\Source/os_task.c ****             return (OS_ERR_PRIO_INVALID);
 457:..\..\..\..\..\..\Software\uCOS-II\Source/os_task.c ****         }
 458:..\..\..\..\..\..\Software\uCOS-II\Source/os_task.c ****     }
ARM GAS  C:\Users\EDULU~1.DES\AppData\Local\Temp\ccgrKYGn.s 			page 20


 459:..\..\..\..\..\..\Software\uCOS-II\Source/os_task.c **** #endif
 460:..\..\..\..\..\..\Software\uCOS-II\Source/os_task.c **** 
 461:..\..\..\..\..\..\Software\uCOS-II\Source/os_task.c **** /*$PAGE*/
 462:..\..\..\..\..\..\Software\uCOS-II\Source/os_task.c ****     OS_ENTER_CRITICAL();
 463:..\..\..\..\..\..\Software\uCOS-II\Source/os_task.c ****     if (prio == OS_PRIO_SELF) {                         /* See if requesting to delete self        
 464:..\..\..\..\..\..\Software\uCOS-II\Source/os_task.c ****         prio = OSTCBCur->OSTCBPrio;                     /* Set priority to delete to current       
 465:..\..\..\..\..\..\Software\uCOS-II\Source/os_task.c ****     }
 466:..\..\..\..\..\..\Software\uCOS-II\Source/os_task.c ****     ptcb = OSTCBPrioTbl[prio];
 467:..\..\..\..\..\..\Software\uCOS-II\Source/os_task.c ****     if (ptcb == (OS_TCB *)0) {                          /* Task to delete must exist               
 468:..\..\..\..\..\..\Software\uCOS-II\Source/os_task.c ****         OS_EXIT_CRITICAL();
 469:..\..\..\..\..\..\Software\uCOS-II\Source/os_task.c ****         return (OS_ERR_TASK_NOT_EXIST);
 470:..\..\..\..\..\..\Software\uCOS-II\Source/os_task.c ****     }
 471:..\..\..\..\..\..\Software\uCOS-II\Source/os_task.c ****     if (ptcb == OS_TCB_RESERVED) {                      /* Must not be assigned to Mutex           
 472:..\..\..\..\..\..\Software\uCOS-II\Source/os_task.c ****         OS_EXIT_CRITICAL();
 473:..\..\..\..\..\..\Software\uCOS-II\Source/os_task.c ****         return (OS_ERR_TASK_DEL);
 474:..\..\..\..\..\..\Software\uCOS-II\Source/os_task.c ****     }
 475:..\..\..\..\..\..\Software\uCOS-II\Source/os_task.c **** 
 476:..\..\..\..\..\..\Software\uCOS-II\Source/os_task.c ****     OSRdyTbl[ptcb->OSTCBY] &= (OS_PRIO)~ptcb->OSTCBBitX;
 477:..\..\..\..\..\..\Software\uCOS-II\Source/os_task.c ****     if (OSRdyTbl[ptcb->OSTCBY] == 0u) {                 /* Make task not ready                     
 478:..\..\..\..\..\..\Software\uCOS-II\Source/os_task.c ****         OSRdyGrp           &= (OS_PRIO)~ptcb->OSTCBBitY;
 479:..\..\..\..\..\..\Software\uCOS-II\Source/os_task.c ****     }
 480:..\..\..\..\..\..\Software\uCOS-II\Source/os_task.c **** 
 481:..\..\..\..\..\..\Software\uCOS-II\Source/os_task.c **** #if (OS_EVENT_EN)
 482:..\..\..\..\..\..\Software\uCOS-II\Source/os_task.c ****     if (ptcb->OSTCBEventPtr != (OS_EVENT *)0) {
 483:..\..\..\..\..\..\Software\uCOS-II\Source/os_task.c ****         OS_EventTaskRemove(ptcb, ptcb->OSTCBEventPtr);  /* Remove this task from any event   wait l
 484:..\..\..\..\..\..\Software\uCOS-II\Source/os_task.c ****     }
 485:..\..\..\..\..\..\Software\uCOS-II\Source/os_task.c **** #if (OS_EVENT_MULTI_EN > 0u)
 486:..\..\..\..\..\..\Software\uCOS-II\Source/os_task.c ****     if (ptcb->OSTCBEventMultiPtr != (OS_EVENT **)0) {   /* Remove this task from any events' wait l
 487:..\..\..\..\..\..\Software\uCOS-II\Source/os_task.c ****         OS_EventTaskRemoveMulti(ptcb, ptcb->OSTCBEventMultiPtr);
 488:..\..\..\..\..\..\Software\uCOS-II\Source/os_task.c ****     }
 489:..\..\..\..\..\..\Software\uCOS-II\Source/os_task.c **** #endif
 490:..\..\..\..\..\..\Software\uCOS-II\Source/os_task.c **** #endif
 491:..\..\..\..\..\..\Software\uCOS-II\Source/os_task.c **** 
 492:..\..\..\..\..\..\Software\uCOS-II\Source/os_task.c **** #if (OS_FLAG_EN > 0u) && (OS_MAX_FLAGS > 0u)
 493:..\..\..\..\..\..\Software\uCOS-II\Source/os_task.c ****     pnode = ptcb->OSTCBFlagNode;
 494:..\..\..\..\..\..\Software\uCOS-II\Source/os_task.c ****     if (pnode != (OS_FLAG_NODE *)0) {                   /* If task is waiting on event flag        
 495:..\..\..\..\..\..\Software\uCOS-II\Source/os_task.c ****         OS_FlagUnlink(pnode);                           /* Remove from wait list                   
 496:..\..\..\..\..\..\Software\uCOS-II\Source/os_task.c ****     }
 497:..\..\..\..\..\..\Software\uCOS-II\Source/os_task.c **** #endif
 498:..\..\..\..\..\..\Software\uCOS-II\Source/os_task.c **** 
 499:..\..\..\..\..\..\Software\uCOS-II\Source/os_task.c ****     ptcb->OSTCBDly      = 0u;                           /* Prevent OSTimeTick() from updating      
 500:..\..\..\..\..\..\Software\uCOS-II\Source/os_task.c ****     ptcb->OSTCBStat     = OS_STAT_RDY;                  /* Prevent task from being resumed         
 501:..\..\..\..\..\..\Software\uCOS-II\Source/os_task.c ****     ptcb->OSTCBStatPend = OS_STAT_PEND_OK;
 502:..\..\..\..\..\..\Software\uCOS-II\Source/os_task.c ****     if (OSLockNesting < 255u) {                         /* Make sure we don't context switch       
 503:..\..\..\..\..\..\Software\uCOS-II\Source/os_task.c ****         OSLockNesting++;
 504:..\..\..\..\..\..\Software\uCOS-II\Source/os_task.c ****     }
 505:..\..\..\..\..\..\Software\uCOS-II\Source/os_task.c ****     OS_EXIT_CRITICAL();                                 /* Enabling INT. ignores next instruc.     
 506:..\..\..\..\..\..\Software\uCOS-II\Source/os_task.c ****     OS_Dummy();                                         /* ... Dummy ensures that INTs will be     
 507:..\..\..\..\..\..\Software\uCOS-II\Source/os_task.c ****     OS_ENTER_CRITICAL();                                /* ... disabled HERE!                      
 508:..\..\..\..\..\..\Software\uCOS-II\Source/os_task.c ****     if (OSLockNesting > 0u) {                           /* Remove context switch lock              
 509:..\..\..\..\..\..\Software\uCOS-II\Source/os_task.c ****         OSLockNesting--;
 510:..\..\..\..\..\..\Software\uCOS-II\Source/os_task.c ****     }
 511:..\..\..\..\..\..\Software\uCOS-II\Source/os_task.c ****     OSTaskDelHook(ptcb);                                /* Call user defined hook                  
 512:..\..\..\..\..\..\Software\uCOS-II\Source/os_task.c **** 
 513:..\..\..\..\..\..\Software\uCOS-II\Source/os_task.c **** #if OS_TASK_CREATE_EXT_EN > 0u
 514:..\..\..\..\..\..\Software\uCOS-II\Source/os_task.c **** #if defined(OS_TLS_TBL_SIZE) && (OS_TLS_TBL_SIZE > 0u)
 515:..\..\..\..\..\..\Software\uCOS-II\Source/os_task.c ****     OS_TLS_TaskDel(ptcb);                               /* Call TLS hook                           
ARM GAS  C:\Users\EDULU~1.DES\AppData\Local\Temp\ccgrKYGn.s 			page 21


 516:..\..\..\..\..\..\Software\uCOS-II\Source/os_task.c **** #endif
 517:..\..\..\..\..\..\Software\uCOS-II\Source/os_task.c **** #endif
 518:..\..\..\..\..\..\Software\uCOS-II\Source/os_task.c **** 
 519:..\..\..\..\..\..\Software\uCOS-II\Source/os_task.c ****     OSTaskCtr--;                                        /* One less task being managed             
 520:..\..\..\..\..\..\Software\uCOS-II\Source/os_task.c ****     OSTCBPrioTbl[prio] = (OS_TCB *)0;                   /* Clear old priority entry                
 521:..\..\..\..\..\..\Software\uCOS-II\Source/os_task.c ****     if (ptcb->OSTCBPrev == (OS_TCB *)0) {               /* Remove from TCB chain                   
 522:..\..\..\..\..\..\Software\uCOS-II\Source/os_task.c ****         ptcb->OSTCBNext->OSTCBPrev = (OS_TCB *)0;
 523:..\..\..\..\..\..\Software\uCOS-II\Source/os_task.c ****         OSTCBList                  = ptcb->OSTCBNext;
 524:..\..\..\..\..\..\Software\uCOS-II\Source/os_task.c ****     } else {
 525:..\..\..\..\..\..\Software\uCOS-II\Source/os_task.c ****         ptcb->OSTCBPrev->OSTCBNext = ptcb->OSTCBNext;
 526:..\..\..\..\..\..\Software\uCOS-II\Source/os_task.c ****         ptcb->OSTCBNext->OSTCBPrev = ptcb->OSTCBPrev;
 527:..\..\..\..\..\..\Software\uCOS-II\Source/os_task.c ****     }
 528:..\..\..\..\..\..\Software\uCOS-II\Source/os_task.c ****     ptcb->OSTCBNext     = OSTCBFreeList;                /* Return TCB to free TCB list             
 529:..\..\..\..\..\..\Software\uCOS-II\Source/os_task.c ****     OSTCBFreeList       = ptcb;
 530:..\..\..\..\..\..\Software\uCOS-II\Source/os_task.c **** #if OS_TASK_NAME_EN > 0u
 531:..\..\..\..\..\..\Software\uCOS-II\Source/os_task.c ****     ptcb->OSTCBTaskName = (INT8U *)(void *)"?";
 532:..\..\..\..\..\..\Software\uCOS-II\Source/os_task.c **** #endif
 533:..\..\..\..\..\..\Software\uCOS-II\Source/os_task.c ****     OS_EXIT_CRITICAL();
 534:..\..\..\..\..\..\Software\uCOS-II\Source/os_task.c ****     if (OSRunning == OS_TRUE) {
 535:..\..\..\..\..\..\Software\uCOS-II\Source/os_task.c ****         OS_Sched();                                     /* Find new highest priority task          
 536:..\..\..\..\..\..\Software\uCOS-II\Source/os_task.c ****     }
 537:..\..\..\..\..\..\Software\uCOS-II\Source/os_task.c ****     return (OS_ERR_NONE);
 538:..\..\..\..\..\..\Software\uCOS-II\Source/os_task.c **** }
 539:..\..\..\..\..\..\Software\uCOS-II\Source/os_task.c **** #endif
 540:..\..\..\..\..\..\Software\uCOS-II\Source/os_task.c **** /*$PAGE*/
 541:..\..\..\..\..\..\Software\uCOS-II\Source/os_task.c **** /*
 542:..\..\..\..\..\..\Software\uCOS-II\Source/os_task.c **** ***************************************************************************************************
 543:..\..\..\..\..\..\Software\uCOS-II\Source/os_task.c **** *                                  REQUEST THAT A TASK DELETE ITSELF
 544:..\..\..\..\..\..\Software\uCOS-II\Source/os_task.c **** *
 545:..\..\..\..\..\..\Software\uCOS-II\Source/os_task.c **** * Description: This function is used to:
 546:..\..\..\..\..\..\Software\uCOS-II\Source/os_task.c **** *                   a) notify a task to delete itself.
 547:..\..\..\..\..\..\Software\uCOS-II\Source/os_task.c **** *                   b) to see if a task requested that the current task delete itself.
 548:..\..\..\..\..\..\Software\uCOS-II\Source/os_task.c **** *              This function is a little tricky to understand.  Basically, you have a task that nee
 549:..\..\..\..\..\..\Software\uCOS-II\Source/os_task.c **** *              to be deleted however, this task has resources that it has allocated (memory buffers
 550:..\..\..\..\..\..\Software\uCOS-II\Source/os_task.c **** *              semaphores, mailboxes, queues etc.).  The task cannot be deleted otherwise these
 551:..\..\..\..\..\..\Software\uCOS-II\Source/os_task.c **** *              resources would not be freed.  The requesting task calls OSTaskDelReq() to indicate 
 552:..\..\..\..\..\..\Software\uCOS-II\Source/os_task.c **** *              the task needs to be deleted.  Deleting of the task is however, deferred to the task
 553:..\..\..\..\..\..\Software\uCOS-II\Source/os_task.c **** *              be deleted.  For example, suppose that task #10 needs to be deleted.  The requesting
 554:..\..\..\..\..\..\Software\uCOS-II\Source/os_task.c **** *              example, task #5, would call OSTaskDelReq(10).  When task #10 gets to execute, it ca
 555:..\..\..\..\..\..\Software\uCOS-II\Source/os_task.c **** *              this function by specifying OS_PRIO_SELF and monitors the returned value.  If the re
 556:..\..\..\..\..\..\Software\uCOS-II\Source/os_task.c **** *              value is OS_ERR_TASK_DEL_REQ, another task requested a task delete.  Task #10 would 
 557:..\..\..\..\..\..\Software\uCOS-II\Source/os_task.c **** *              this:
 558:..\..\..\..\..\..\Software\uCOS-II\Source/os_task.c **** *
 559:..\..\..\..\..\..\Software\uCOS-II\Source/os_task.c **** *                   void Task(void *p_arg)
 560:..\..\..\..\..\..\Software\uCOS-II\Source/os_task.c **** *                   {
 561:..\..\..\..\..\..\Software\uCOS-II\Source/os_task.c **** *                       .
 562:..\..\..\..\..\..\Software\uCOS-II\Source/os_task.c **** *                       .
 563:..\..\..\..\..\..\Software\uCOS-II\Source/os_task.c **** *                       while (1) {
 564:..\..\..\..\..\..\Software\uCOS-II\Source/os_task.c **** *                           OSTimeDly(1);
 565:..\..\..\..\..\..\Software\uCOS-II\Source/os_task.c **** *                           if (OSTaskDelReq(OS_PRIO_SELF) == OS_ERR_TASK_DEL_REQ) {
 566:..\..\..\..\..\..\Software\uCOS-II\Source/os_task.c **** *                               Release any owned resources;
 567:..\..\..\..\..\..\Software\uCOS-II\Source/os_task.c **** *                               De-allocate any dynamic memory;
 568:..\..\..\..\..\..\Software\uCOS-II\Source/os_task.c **** *                               OSTaskDel(OS_PRIO_SELF);
 569:..\..\..\..\..\..\Software\uCOS-II\Source/os_task.c **** *                           }
 570:..\..\..\..\..\..\Software\uCOS-II\Source/os_task.c **** *                       }
 571:..\..\..\..\..\..\Software\uCOS-II\Source/os_task.c **** *                   }
 572:..\..\..\..\..\..\Software\uCOS-II\Source/os_task.c **** *
ARM GAS  C:\Users\EDULU~1.DES\AppData\Local\Temp\ccgrKYGn.s 			page 22


 573:..\..\..\..\..\..\Software\uCOS-II\Source/os_task.c **** * Arguments  : prio    is the priority of the task to request the delete from
 574:..\..\..\..\..\..\Software\uCOS-II\Source/os_task.c **** *
 575:..\..\..\..\..\..\Software\uCOS-II\Source/os_task.c **** * Returns    : OS_ERR_NONE            if the task exist and the request has been registered
 576:..\..\..\..\..\..\Software\uCOS-II\Source/os_task.c **** *              OS_ERR_TASK_NOT_EXIST  if the task has been deleted.  This allows the caller to know
 577:..\..\..\..\..\..\Software\uCOS-II\Source/os_task.c **** *                                     the request has been executed.
 578:..\..\..\..\..\..\Software\uCOS-II\Source/os_task.c **** *              OS_ERR_TASK_DEL        if the task is assigned to a Mutex.
 579:..\..\..\..\..\..\Software\uCOS-II\Source/os_task.c **** *              OS_ERR_TASK_DEL_IDLE   if you requested to delete uC/OS-II's idle task
 580:..\..\..\..\..\..\Software\uCOS-II\Source/os_task.c **** *              OS_ERR_PRIO_INVALID    if the priority you specify is higher that the maximum allowe
 581:..\..\..\..\..\..\Software\uCOS-II\Source/os_task.c **** *                                     (i.e. >= OS_LOWEST_PRIO) or, you have not specified OS_PRIO_S
 582:..\..\..\..\..\..\Software\uCOS-II\Source/os_task.c **** *              OS_ERR_TASK_DEL_REQ    if a task (possibly another task) requested that the running 
 583:..\..\..\..\..\..\Software\uCOS-II\Source/os_task.c **** *                                     deleted.
 584:..\..\..\..\..\..\Software\uCOS-II\Source/os_task.c **** ***************************************************************************************************
 585:..\..\..\..\..\..\Software\uCOS-II\Source/os_task.c **** */
 586:..\..\..\..\..\..\Software\uCOS-II\Source/os_task.c **** /*$PAGE*/
 587:..\..\..\..\..\..\Software\uCOS-II\Source/os_task.c **** #if OS_TASK_DEL_EN > 0u
 588:..\..\..\..\..\..\Software\uCOS-II\Source/os_task.c **** INT8U  OSTaskDelReq (INT8U prio)
 589:..\..\..\..\..\..\Software\uCOS-II\Source/os_task.c **** {
 590:..\..\..\..\..\..\Software\uCOS-II\Source/os_task.c ****     INT8U      stat;
 591:..\..\..\..\..\..\Software\uCOS-II\Source/os_task.c ****     OS_TCB    *ptcb;
 592:..\..\..\..\..\..\Software\uCOS-II\Source/os_task.c **** #if OS_CRITICAL_METHOD == 3u                     /* Allocate storage for CPU status register       
 593:..\..\..\..\..\..\Software\uCOS-II\Source/os_task.c ****     OS_CPU_SR  cpu_sr = 0u;
 594:..\..\..\..\..\..\Software\uCOS-II\Source/os_task.c **** #endif
 595:..\..\..\..\..\..\Software\uCOS-II\Source/os_task.c **** 
 596:..\..\..\..\..\..\Software\uCOS-II\Source/os_task.c **** 
 597:..\..\..\..\..\..\Software\uCOS-II\Source/os_task.c **** 
 598:..\..\..\..\..\..\Software\uCOS-II\Source/os_task.c ****     if (prio == OS_TASK_IDLE_PRIO) {                            /* Not allowed to delete idle task 
 599:..\..\..\..\..\..\Software\uCOS-II\Source/os_task.c ****         return (OS_ERR_TASK_DEL_IDLE);
 600:..\..\..\..\..\..\Software\uCOS-II\Source/os_task.c ****     }
 601:..\..\..\..\..\..\Software\uCOS-II\Source/os_task.c **** #if OS_ARG_CHK_EN > 0u
 602:..\..\..\..\..\..\Software\uCOS-II\Source/os_task.c ****     if (prio >= OS_LOWEST_PRIO) {                               /* Task priority valid ?           
 603:..\..\..\..\..\..\Software\uCOS-II\Source/os_task.c ****         if (prio != OS_PRIO_SELF) {
 604:..\..\..\..\..\..\Software\uCOS-II\Source/os_task.c ****             return (OS_ERR_PRIO_INVALID);
 605:..\..\..\..\..\..\Software\uCOS-II\Source/os_task.c ****         }
 606:..\..\..\..\..\..\Software\uCOS-II\Source/os_task.c ****     }
 607:..\..\..\..\..\..\Software\uCOS-II\Source/os_task.c **** #endif
 608:..\..\..\..\..\..\Software\uCOS-II\Source/os_task.c ****     if (prio == OS_PRIO_SELF) {                                 /* See if a task is requesting to .
 609:..\..\..\..\..\..\Software\uCOS-II\Source/os_task.c ****         OS_ENTER_CRITICAL();                                    /* ... this task to delete itself  
 610:..\..\..\..\..\..\Software\uCOS-II\Source/os_task.c ****         stat = OSTCBCur->OSTCBDelReq;                           /* Return request status to caller 
 611:..\..\..\..\..\..\Software\uCOS-II\Source/os_task.c ****         OS_EXIT_CRITICAL();
 612:..\..\..\..\..\..\Software\uCOS-II\Source/os_task.c ****         return (stat);
 613:..\..\..\..\..\..\Software\uCOS-II\Source/os_task.c ****     }
 614:..\..\..\..\..\..\Software\uCOS-II\Source/os_task.c ****     OS_ENTER_CRITICAL();
 615:..\..\..\..\..\..\Software\uCOS-II\Source/os_task.c ****     ptcb = OSTCBPrioTbl[prio];
 616:..\..\..\..\..\..\Software\uCOS-II\Source/os_task.c ****     if (ptcb == (OS_TCB *)0) {                                  /* Task to delete must exist       
 617:..\..\..\..\..\..\Software\uCOS-II\Source/os_task.c ****         OS_EXIT_CRITICAL();
 618:..\..\..\..\..\..\Software\uCOS-II\Source/os_task.c ****         return (OS_ERR_TASK_NOT_EXIST);                         /* Task must already be deleted    
 619:..\..\..\..\..\..\Software\uCOS-II\Source/os_task.c ****     }
 620:..\..\..\..\..\..\Software\uCOS-II\Source/os_task.c ****     if (ptcb == OS_TCB_RESERVED) {                              /* Must NOT be assigned to a Mutex 
 621:..\..\..\..\..\..\Software\uCOS-II\Source/os_task.c ****         OS_EXIT_CRITICAL();
 622:..\..\..\..\..\..\Software\uCOS-II\Source/os_task.c ****         return (OS_ERR_TASK_DEL);
 623:..\..\..\..\..\..\Software\uCOS-II\Source/os_task.c ****     }
 624:..\..\..\..\..\..\Software\uCOS-II\Source/os_task.c ****     ptcb->OSTCBDelReq = OS_ERR_TASK_DEL_REQ;                    /* Set flag indicating task to be D
 625:..\..\..\..\..\..\Software\uCOS-II\Source/os_task.c ****     OS_EXIT_CRITICAL();
 626:..\..\..\..\..\..\Software\uCOS-II\Source/os_task.c ****     return (OS_ERR_NONE);
 627:..\..\..\..\..\..\Software\uCOS-II\Source/os_task.c **** }
 628:..\..\..\..\..\..\Software\uCOS-II\Source/os_task.c **** #endif
 629:..\..\..\..\..\..\Software\uCOS-II\Source/os_task.c **** /*$PAGE*/
ARM GAS  C:\Users\EDULU~1.DES\AppData\Local\Temp\ccgrKYGn.s 			page 23


 630:..\..\..\..\..\..\Software\uCOS-II\Source/os_task.c **** /*
 631:..\..\..\..\..\..\Software\uCOS-II\Source/os_task.c **** ***************************************************************************************************
 632:..\..\..\..\..\..\Software\uCOS-II\Source/os_task.c **** *                                       GET THE NAME OF A TASK
 633:..\..\..\..\..\..\Software\uCOS-II\Source/os_task.c **** *
 634:..\..\..\..\..\..\Software\uCOS-II\Source/os_task.c **** * Description: This function is called to obtain the name of a task.
 635:..\..\..\..\..\..\Software\uCOS-II\Source/os_task.c **** *
 636:..\..\..\..\..\..\Software\uCOS-II\Source/os_task.c **** * Arguments  : prio      is the priority of the task that you want to obtain the name from.
 637:..\..\..\..\..\..\Software\uCOS-II\Source/os_task.c **** *
 638:..\..\..\..\..\..\Software\uCOS-II\Source/os_task.c **** *              pname     is a pointer to a pointer to an ASCII string that will receive the name of
 639:..\..\..\..\..\..\Software\uCOS-II\Source/os_task.c **** *
 640:..\..\..\..\..\..\Software\uCOS-II\Source/os_task.c **** *              perr      is a pointer to an error code that can contain one of the following values
 641:..\..\..\..\..\..\Software\uCOS-II\Source/os_task.c **** *
 642:..\..\..\..\..\..\Software\uCOS-II\Source/os_task.c **** *                        OS_ERR_NONE                if the requested task is resumed
 643:..\..\..\..\..\..\Software\uCOS-II\Source/os_task.c **** *                        OS_ERR_TASK_NOT_EXIST      if the task has not been created or is assigned
 644:..\..\..\..\..\..\Software\uCOS-II\Source/os_task.c **** *                        OS_ERR_PRIO_INVALID        if you specified an invalid priority:
 645:..\..\..\..\..\..\Software\uCOS-II\Source/os_task.c **** *                                                   A higher value than the idle task or not OS_PRI
 646:..\..\..\..\..\..\Software\uCOS-II\Source/os_task.c **** *                        OS_ERR_PNAME_NULL          You passed a NULL pointer for 'pname'
 647:..\..\..\..\..\..\Software\uCOS-II\Source/os_task.c **** *                        OS_ERR_NAME_GET_ISR        You called this function from an ISR
 648:..\..\..\..\..\..\Software\uCOS-II\Source/os_task.c **** *
 649:..\..\..\..\..\..\Software\uCOS-II\Source/os_task.c **** *
 650:..\..\..\..\..\..\Software\uCOS-II\Source/os_task.c **** * Returns    : The length of the string or 0 if the task does not exist.
 651:..\..\..\..\..\..\Software\uCOS-II\Source/os_task.c **** ***************************************************************************************************
 652:..\..\..\..\..\..\Software\uCOS-II\Source/os_task.c **** */
 653:..\..\..\..\..\..\Software\uCOS-II\Source/os_task.c **** 
 654:..\..\..\..\..\..\Software\uCOS-II\Source/os_task.c **** #if OS_TASK_NAME_EN > 0u
 655:..\..\..\..\..\..\Software\uCOS-II\Source/os_task.c **** INT8U  OSTaskNameGet (INT8U    prio,
 656:..\..\..\..\..\..\Software\uCOS-II\Source/os_task.c ****                       INT8U  **pname,
 657:..\..\..\..\..\..\Software\uCOS-II\Source/os_task.c ****                       INT8U   *perr)
 658:..\..\..\..\..\..\Software\uCOS-II\Source/os_task.c **** {
 659:..\..\..\..\..\..\Software\uCOS-II\Source/os_task.c ****     OS_TCB    *ptcb;
 660:..\..\..\..\..\..\Software\uCOS-II\Source/os_task.c ****     INT8U      len;
 661:..\..\..\..\..\..\Software\uCOS-II\Source/os_task.c **** #if OS_CRITICAL_METHOD == 3u                             /* Allocate storage for CPU status registe
 662:..\..\..\..\..\..\Software\uCOS-II\Source/os_task.c ****     OS_CPU_SR  cpu_sr = 0u;
 663:..\..\..\..\..\..\Software\uCOS-II\Source/os_task.c **** #endif
 664:..\..\..\..\..\..\Software\uCOS-II\Source/os_task.c **** 
 665:..\..\..\..\..\..\Software\uCOS-II\Source/os_task.c **** 
 666:..\..\..\..\..\..\Software\uCOS-II\Source/os_task.c **** 
 667:..\..\..\..\..\..\Software\uCOS-II\Source/os_task.c **** #ifdef OS_SAFETY_CRITICAL
 668:..\..\..\..\..\..\Software\uCOS-II\Source/os_task.c ****     if (perr == (INT8U *)0) {
 669:..\..\..\..\..\..\Software\uCOS-II\Source/os_task.c ****         OS_SAFETY_CRITICAL_EXCEPTION();
 670:..\..\..\..\..\..\Software\uCOS-II\Source/os_task.c ****         return (0u);
 671:..\..\..\..\..\..\Software\uCOS-II\Source/os_task.c ****     }
 672:..\..\..\..\..\..\Software\uCOS-II\Source/os_task.c **** #endif
 673:..\..\..\..\..\..\Software\uCOS-II\Source/os_task.c **** 
 674:..\..\..\..\..\..\Software\uCOS-II\Source/os_task.c **** #if OS_ARG_CHK_EN > 0u
 675:..\..\..\..\..\..\Software\uCOS-II\Source/os_task.c ****     if (prio > OS_LOWEST_PRIO) {                         /* Task priority valid ?                  
 676:..\..\..\..\..\..\Software\uCOS-II\Source/os_task.c ****         if (prio != OS_PRIO_SELF) {
 677:..\..\..\..\..\..\Software\uCOS-II\Source/os_task.c ****             *perr = OS_ERR_PRIO_INVALID;                 /* No                                     
 678:..\..\..\..\..\..\Software\uCOS-II\Source/os_task.c ****             return (0u);
 679:..\..\..\..\..\..\Software\uCOS-II\Source/os_task.c ****         }
 680:..\..\..\..\..\..\Software\uCOS-II\Source/os_task.c ****     }
 681:..\..\..\..\..\..\Software\uCOS-II\Source/os_task.c ****     if (pname == (INT8U **)0) {                          /* Is 'pname' a NULL pointer?             
 682:..\..\..\..\..\..\Software\uCOS-II\Source/os_task.c ****         *perr = OS_ERR_PNAME_NULL;                       /* Yes                                    
 683:..\..\..\..\..\..\Software\uCOS-II\Source/os_task.c ****         return (0u);
 684:..\..\..\..\..\..\Software\uCOS-II\Source/os_task.c ****     }
 685:..\..\..\..\..\..\Software\uCOS-II\Source/os_task.c **** #endif
 686:..\..\..\..\..\..\Software\uCOS-II\Source/os_task.c ****     if (OSIntNesting > 0u) {                              /* See if trying to call from an ISR     
ARM GAS  C:\Users\EDULU~1.DES\AppData\Local\Temp\ccgrKYGn.s 			page 24


 687:..\..\..\..\..\..\Software\uCOS-II\Source/os_task.c ****         *perr = OS_ERR_NAME_GET_ISR;
 688:..\..\..\..\..\..\Software\uCOS-II\Source/os_task.c ****         return (0u);
 689:..\..\..\..\..\..\Software\uCOS-II\Source/os_task.c ****     }
 690:..\..\..\..\..\..\Software\uCOS-II\Source/os_task.c ****     OS_ENTER_CRITICAL();
 691:..\..\..\..\..\..\Software\uCOS-II\Source/os_task.c ****     if (prio == OS_PRIO_SELF) {                          /* See if caller desires it's own name    
 692:..\..\..\..\..\..\Software\uCOS-II\Source/os_task.c ****         prio = OSTCBCur->OSTCBPrio;
 693:..\..\..\..\..\..\Software\uCOS-II\Source/os_task.c ****     }
 694:..\..\..\..\..\..\Software\uCOS-II\Source/os_task.c ****     ptcb = OSTCBPrioTbl[prio];
 695:..\..\..\..\..\..\Software\uCOS-II\Source/os_task.c ****     if (ptcb == (OS_TCB *)0) {                           /* Does task exist?                       
 696:..\..\..\..\..\..\Software\uCOS-II\Source/os_task.c ****         OS_EXIT_CRITICAL();                              /* No                                     
 697:..\..\..\..\..\..\Software\uCOS-II\Source/os_task.c ****         *perr = OS_ERR_TASK_NOT_EXIST;
 698:..\..\..\..\..\..\Software\uCOS-II\Source/os_task.c ****         return (0u);
 699:..\..\..\..\..\..\Software\uCOS-II\Source/os_task.c ****     }
 700:..\..\..\..\..\..\Software\uCOS-II\Source/os_task.c ****     if (ptcb == OS_TCB_RESERVED) {                       /* Task assigned to a Mutex?              
 701:..\..\..\..\..\..\Software\uCOS-II\Source/os_task.c ****         OS_EXIT_CRITICAL();                              /* Yes                                    
 702:..\..\..\..\..\..\Software\uCOS-II\Source/os_task.c ****         *perr = OS_ERR_TASK_NOT_EXIST;
 703:..\..\..\..\..\..\Software\uCOS-II\Source/os_task.c ****         return (0u);
 704:..\..\..\..\..\..\Software\uCOS-II\Source/os_task.c ****     }
 705:..\..\..\..\..\..\Software\uCOS-II\Source/os_task.c ****     *pname = ptcb->OSTCBTaskName;
 706:..\..\..\..\..\..\Software\uCOS-II\Source/os_task.c ****     len    = OS_StrLen(*pname);
 707:..\..\..\..\..\..\Software\uCOS-II\Source/os_task.c ****     OS_EXIT_CRITICAL();
 708:..\..\..\..\..\..\Software\uCOS-II\Source/os_task.c ****     *perr  = OS_ERR_NONE;
 709:..\..\..\..\..\..\Software\uCOS-II\Source/os_task.c ****     return (len);
 710:..\..\..\..\..\..\Software\uCOS-II\Source/os_task.c **** }
 711:..\..\..\..\..\..\Software\uCOS-II\Source/os_task.c **** #endif
 712:..\..\..\..\..\..\Software\uCOS-II\Source/os_task.c **** 
 713:..\..\..\..\..\..\Software\uCOS-II\Source/os_task.c **** /*$PAGE*/
 714:..\..\..\..\..\..\Software\uCOS-II\Source/os_task.c **** /*
 715:..\..\..\..\..\..\Software\uCOS-II\Source/os_task.c **** ***************************************************************************************************
 716:..\..\..\..\..\..\Software\uCOS-II\Source/os_task.c **** *                                       ASSIGN A NAME TO A TASK
 717:..\..\..\..\..\..\Software\uCOS-II\Source/os_task.c **** *
 718:..\..\..\..\..\..\Software\uCOS-II\Source/os_task.c **** * Description: This function is used to set the name of a task.
 719:..\..\..\..\..\..\Software\uCOS-II\Source/os_task.c **** *
 720:..\..\..\..\..\..\Software\uCOS-II\Source/os_task.c **** * Arguments  : prio      is the priority of the task that you want the assign a name to.
 721:..\..\..\..\..\..\Software\uCOS-II\Source/os_task.c **** *
 722:..\..\..\..\..\..\Software\uCOS-II\Source/os_task.c **** *              pname     is a pointer to an ASCII string that contains the name of the task.
 723:..\..\..\..\..\..\Software\uCOS-II\Source/os_task.c **** *
 724:..\..\..\..\..\..\Software\uCOS-II\Source/os_task.c **** *              perr       is a pointer to an error code that can contain one of the following value
 725:..\..\..\..\..\..\Software\uCOS-II\Source/os_task.c **** *
 726:..\..\..\..\..\..\Software\uCOS-II\Source/os_task.c **** *                        OS_ERR_NONE                if the requested task is resumed
 727:..\..\..\..\..\..\Software\uCOS-II\Source/os_task.c **** *                        OS_ERR_TASK_NOT_EXIST      if the task has not been created or is assigned
 728:..\..\..\..\..\..\Software\uCOS-II\Source/os_task.c **** *                        OS_ERR_PNAME_NULL          You passed a NULL pointer for 'pname'
 729:..\..\..\..\..\..\Software\uCOS-II\Source/os_task.c **** *                        OS_ERR_PRIO_INVALID        if you specified an invalid priority:
 730:..\..\..\..\..\..\Software\uCOS-II\Source/os_task.c **** *                                                   A higher value than the idle task or not OS_PRI
 731:..\..\..\..\..\..\Software\uCOS-II\Source/os_task.c **** *                        OS_ERR_NAME_SET_ISR        if you called this function from an ISR
 732:..\..\..\..\..\..\Software\uCOS-II\Source/os_task.c **** *
 733:..\..\..\..\..\..\Software\uCOS-II\Source/os_task.c **** * Returns    : None
 734:..\..\..\..\..\..\Software\uCOS-II\Source/os_task.c **** ***************************************************************************************************
 735:..\..\..\..\..\..\Software\uCOS-II\Source/os_task.c **** */
 736:..\..\..\..\..\..\Software\uCOS-II\Source/os_task.c **** #if OS_TASK_NAME_EN > 0u
 737:..\..\..\..\..\..\Software\uCOS-II\Source/os_task.c **** void  OSTaskNameSet (INT8U   prio,
 738:..\..\..\..\..\..\Software\uCOS-II\Source/os_task.c ****                      INT8U  *pname,
 739:..\..\..\..\..\..\Software\uCOS-II\Source/os_task.c ****                      INT8U  *perr)
 740:..\..\..\..\..\..\Software\uCOS-II\Source/os_task.c **** {
 741:..\..\..\..\..\..\Software\uCOS-II\Source/os_task.c ****     OS_TCB    *ptcb;
 742:..\..\..\..\..\..\Software\uCOS-II\Source/os_task.c **** #if OS_CRITICAL_METHOD == 3u                         /* Allocate storage for CPU status register   
 743:..\..\..\..\..\..\Software\uCOS-II\Source/os_task.c ****     OS_CPU_SR  cpu_sr = 0u;
ARM GAS  C:\Users\EDULU~1.DES\AppData\Local\Temp\ccgrKYGn.s 			page 25


 744:..\..\..\..\..\..\Software\uCOS-II\Source/os_task.c **** #endif
 745:..\..\..\..\..\..\Software\uCOS-II\Source/os_task.c **** 
 746:..\..\..\..\..\..\Software\uCOS-II\Source/os_task.c **** 
 747:..\..\..\..\..\..\Software\uCOS-II\Source/os_task.c **** 
 748:..\..\..\..\..\..\Software\uCOS-II\Source/os_task.c **** #ifdef OS_SAFETY_CRITICAL
 749:..\..\..\..\..\..\Software\uCOS-II\Source/os_task.c ****     if (perr == (INT8U *)0) {
 750:..\..\..\..\..\..\Software\uCOS-II\Source/os_task.c ****         OS_SAFETY_CRITICAL_EXCEPTION();
 751:..\..\..\..\..\..\Software\uCOS-II\Source/os_task.c ****         return;
 752:..\..\..\..\..\..\Software\uCOS-II\Source/os_task.c ****     }
 753:..\..\..\..\..\..\Software\uCOS-II\Source/os_task.c **** #endif
 754:..\..\..\..\..\..\Software\uCOS-II\Source/os_task.c **** 
 755:..\..\..\..\..\..\Software\uCOS-II\Source/os_task.c **** #if OS_ARG_CHK_EN > 0u
 756:..\..\..\..\..\..\Software\uCOS-II\Source/os_task.c ****     if (prio > OS_LOWEST_PRIO) {                     /* Task priority valid ?                      
 757:..\..\..\..\..\..\Software\uCOS-II\Source/os_task.c ****         if (prio != OS_PRIO_SELF) {
 758:..\..\..\..\..\..\Software\uCOS-II\Source/os_task.c ****             *perr = OS_ERR_PRIO_INVALID;             /* No                                         
 759:..\..\..\..\..\..\Software\uCOS-II\Source/os_task.c ****             return;
 760:..\..\..\..\..\..\Software\uCOS-II\Source/os_task.c ****         }
 761:..\..\..\..\..\..\Software\uCOS-II\Source/os_task.c ****     }
 762:..\..\..\..\..\..\Software\uCOS-II\Source/os_task.c ****     if (pname == (INT8U *)0) {                       /* Is 'pname' a NULL pointer?                 
 763:..\..\..\..\..\..\Software\uCOS-II\Source/os_task.c ****         *perr = OS_ERR_PNAME_NULL;                   /* Yes                                        
 764:..\..\..\..\..\..\Software\uCOS-II\Source/os_task.c ****         return;
 765:..\..\..\..\..\..\Software\uCOS-II\Source/os_task.c ****     }
 766:..\..\..\..\..\..\Software\uCOS-II\Source/os_task.c **** #endif
 767:..\..\..\..\..\..\Software\uCOS-II\Source/os_task.c ****     if (OSIntNesting > 0u) {                         /* See if trying to call from an ISR          
 768:..\..\..\..\..\..\Software\uCOS-II\Source/os_task.c ****         *perr = OS_ERR_NAME_SET_ISR;
 769:..\..\..\..\..\..\Software\uCOS-II\Source/os_task.c ****         return;
 770:..\..\..\..\..\..\Software\uCOS-II\Source/os_task.c ****     }
 771:..\..\..\..\..\..\Software\uCOS-II\Source/os_task.c ****     OS_ENTER_CRITICAL();
 772:..\..\..\..\..\..\Software\uCOS-II\Source/os_task.c ****     if (prio == OS_PRIO_SELF) {                      /* See if caller desires to set it's own name 
 773:..\..\..\..\..\..\Software\uCOS-II\Source/os_task.c ****         prio = OSTCBCur->OSTCBPrio;
 774:..\..\..\..\..\..\Software\uCOS-II\Source/os_task.c ****     }
 775:..\..\..\..\..\..\Software\uCOS-II\Source/os_task.c ****     ptcb = OSTCBPrioTbl[prio];
 776:..\..\..\..\..\..\Software\uCOS-II\Source/os_task.c ****     if (ptcb == (OS_TCB *)0) {                       /* Does task exist?                           
 777:..\..\..\..\..\..\Software\uCOS-II\Source/os_task.c ****         OS_EXIT_CRITICAL();                          /* No                                         
 778:..\..\..\..\..\..\Software\uCOS-II\Source/os_task.c ****         *perr = OS_ERR_TASK_NOT_EXIST;
 779:..\..\..\..\..\..\Software\uCOS-II\Source/os_task.c ****         return;
 780:..\..\..\..\..\..\Software\uCOS-II\Source/os_task.c ****     }
 781:..\..\..\..\..\..\Software\uCOS-II\Source/os_task.c ****     if (ptcb == OS_TCB_RESERVED) {                   /* Task assigned to a Mutex?                  
 782:..\..\..\..\..\..\Software\uCOS-II\Source/os_task.c ****         OS_EXIT_CRITICAL();                          /* Yes                                        
 783:..\..\..\..\..\..\Software\uCOS-II\Source/os_task.c ****         *perr = OS_ERR_TASK_NOT_EXIST;
 784:..\..\..\..\..\..\Software\uCOS-II\Source/os_task.c ****         return;
 785:..\..\..\..\..\..\Software\uCOS-II\Source/os_task.c ****     }
 786:..\..\..\..\..\..\Software\uCOS-II\Source/os_task.c ****     ptcb->OSTCBTaskName = pname;
 787:..\..\..\..\..\..\Software\uCOS-II\Source/os_task.c ****     OS_EXIT_CRITICAL();
 788:..\..\..\..\..\..\Software\uCOS-II\Source/os_task.c ****     *perr               = OS_ERR_NONE;
 789:..\..\..\..\..\..\Software\uCOS-II\Source/os_task.c **** }
 790:..\..\..\..\..\..\Software\uCOS-II\Source/os_task.c **** #endif
 791:..\..\..\..\..\..\Software\uCOS-II\Source/os_task.c **** 
 792:..\..\..\..\..\..\Software\uCOS-II\Source/os_task.c **** /*$PAGE*/
 793:..\..\..\..\..\..\Software\uCOS-II\Source/os_task.c **** /*
 794:..\..\..\..\..\..\Software\uCOS-II\Source/os_task.c **** ***************************************************************************************************
 795:..\..\..\..\..\..\Software\uCOS-II\Source/os_task.c **** *                                       RESUME A SUSPENDED TASK
 796:..\..\..\..\..\..\Software\uCOS-II\Source/os_task.c **** *
 797:..\..\..\..\..\..\Software\uCOS-II\Source/os_task.c **** * Description: This function is called to resume a previously suspended task.  This is the only cal
 798:..\..\..\..\..\..\Software\uCOS-II\Source/os_task.c **** *              will remove an explicit task suspension.
 799:..\..\..\..\..\..\Software\uCOS-II\Source/os_task.c **** *
 800:..\..\..\..\..\..\Software\uCOS-II\Source/os_task.c **** * Arguments  : prio     is the priority of the task to resume.
ARM GAS  C:\Users\EDULU~1.DES\AppData\Local\Temp\ccgrKYGn.s 			page 26


 801:..\..\..\..\..\..\Software\uCOS-II\Source/os_task.c **** *
 802:..\..\..\..\..\..\Software\uCOS-II\Source/os_task.c **** * Returns    : OS_ERR_NONE                if the requested task is resumed
 803:..\..\..\..\..\..\Software\uCOS-II\Source/os_task.c **** *              OS_ERR_PRIO_INVALID        if the priority you specify is higher that the maximum al
 804:..\..\..\..\..\..\Software\uCOS-II\Source/os_task.c **** *                                         (i.e. >= OS_LOWEST_PRIO)
 805:..\..\..\..\..\..\Software\uCOS-II\Source/os_task.c **** *              OS_ERR_TASK_RESUME_PRIO    if the task to resume does not exist
 806:..\..\..\..\..\..\Software\uCOS-II\Source/os_task.c **** *              OS_ERR_TASK_NOT_EXIST      if the task is assigned to a Mutex PIP
 807:..\..\..\..\..\..\Software\uCOS-II\Source/os_task.c **** *              OS_ERR_TASK_NOT_SUSPENDED  if the task to resume has not been suspended
 808:..\..\..\..\..\..\Software\uCOS-II\Source/os_task.c **** ***************************************************************************************************
 809:..\..\..\..\..\..\Software\uCOS-II\Source/os_task.c **** */
 810:..\..\..\..\..\..\Software\uCOS-II\Source/os_task.c **** 
 811:..\..\..\..\..\..\Software\uCOS-II\Source/os_task.c **** #if OS_TASK_SUSPEND_EN > 0u
 812:..\..\..\..\..\..\Software\uCOS-II\Source/os_task.c **** INT8U  OSTaskResume (INT8U prio)
 813:..\..\..\..\..\..\Software\uCOS-II\Source/os_task.c **** {
 573              		.loc 1 813 1 is_stmt 1 view -0
 574              		.cfi_startproc
 575              		@ args = 0, pretend = 0, frame = 0
 576              		@ frame_needed = 0, uses_anonymous_args = 0
 577              		.loc 1 813 1 is_stmt 0 view .LVU180
 578 0000 10B5     		push	{r4, lr}
 579              		.cfi_def_cfa_offset 8
 580              		.cfi_offset 4, -8
 581              		.cfi_offset 14, -4
 582 0002 0400     		movs	r4, r0
 814:..\..\..\..\..\..\Software\uCOS-II\Source/os_task.c ****     OS_TCB    *ptcb;
 583              		.loc 1 814 5 is_stmt 1 view .LVU181
 815:..\..\..\..\..\..\Software\uCOS-II\Source/os_task.c **** #if OS_CRITICAL_METHOD == 3u                                  /* Storage for CPU status register   
 816:..\..\..\..\..\..\Software\uCOS-II\Source/os_task.c ****     OS_CPU_SR  cpu_sr = 0u;
 584              		.loc 1 816 5 view .LVU182
 585              	.LVL61:
 817:..\..\..\..\..\..\Software\uCOS-II\Source/os_task.c **** #endif
 818:..\..\..\..\..\..\Software\uCOS-II\Source/os_task.c **** 
 819:..\..\..\..\..\..\Software\uCOS-II\Source/os_task.c **** 
 820:..\..\..\..\..\..\Software\uCOS-II\Source/os_task.c **** 
 821:..\..\..\..\..\..\Software\uCOS-II\Source/os_task.c **** #if OS_ARG_CHK_EN > 0u
 822:..\..\..\..\..\..\Software\uCOS-II\Source/os_task.c ****     if (prio >= OS_LOWEST_PRIO) {                             /* Make sure task priority is valid  
 586              		.loc 1 822 5 view .LVU183
 587              		.loc 1 822 8 is_stmt 0 view .LVU184
 588 0004 1E28     		cmp	r0, #30
 589 0006 40D8     		bhi	.L41
 823:..\..\..\..\..\..\Software\uCOS-II\Source/os_task.c ****         return (OS_ERR_PRIO_INVALID);
 824:..\..\..\..\..\..\Software\uCOS-II\Source/os_task.c ****     }
 825:..\..\..\..\..\..\Software\uCOS-II\Source/os_task.c **** #endif
 826:..\..\..\..\..\..\Software\uCOS-II\Source/os_task.c ****     OS_ENTER_CRITICAL();
 590              		.loc 1 826 5 is_stmt 1 view .LVU185
 591              		.loc 1 826 5 view .LVU186
 592 0008 FFF7FEFF 		bl	OS_CPU_SR_Save
 593              	.LVL62:
 827:..\..\..\..\..\..\Software\uCOS-II\Source/os_task.c ****     ptcb = OSTCBPrioTbl[prio];
 594              		.loc 1 827 5 view .LVU187
 595              		.loc 1 827 10 is_stmt 0 view .LVU188
 596 000c A400     		lsls	r4, r4, #2
 597 000e 204B     		ldr	r3, .L44
 598 0010 E358     		ldr	r3, [r4, r3]
 599              	.LVL63:
 828:..\..\..\..\..\..\Software\uCOS-II\Source/os_task.c ****     if (ptcb == (OS_TCB *)0) {                                /* Task to suspend must exist        
 600              		.loc 1 828 5 is_stmt 1 view .LVU189
 601              		.loc 1 828 8 is_stmt 0 view .LVU190
ARM GAS  C:\Users\EDULU~1.DES\AppData\Local\Temp\ccgrKYGn.s 			page 27


 602 0012 002B     		cmp	r3, #0
 603 0014 26D0     		beq	.L42
 829:..\..\..\..\..\..\Software\uCOS-II\Source/os_task.c ****         OS_EXIT_CRITICAL();
 830:..\..\..\..\..\..\Software\uCOS-II\Source/os_task.c ****         return (OS_ERR_TASK_RESUME_PRIO);
 831:..\..\..\..\..\..\Software\uCOS-II\Source/os_task.c ****     }
 832:..\..\..\..\..\..\Software\uCOS-II\Source/os_task.c ****     if (ptcb == OS_TCB_RESERVED) {                            /* See if assigned to Mutex          
 604              		.loc 1 832 5 is_stmt 1 view .LVU191
 605              		.loc 1 832 8 is_stmt 0 view .LVU192
 606 0016 012B     		cmp	r3, #1
 607 0018 28D0     		beq	.L43
 833:..\..\..\..\..\..\Software\uCOS-II\Source/os_task.c ****         OS_EXIT_CRITICAL();
 834:..\..\..\..\..\..\Software\uCOS-II\Source/os_task.c ****         return (OS_ERR_TASK_NOT_EXIST);
 835:..\..\..\..\..\..\Software\uCOS-II\Source/os_task.c ****     }
 836:..\..\..\..\..\..\Software\uCOS-II\Source/os_task.c ****     if ((ptcb->OSTCBStat & OS_STAT_SUSPEND) != OS_STAT_RDY) { /* Task must be suspended            
 608              		.loc 1 836 5 is_stmt 1 view .LVU193
 609              		.loc 1 836 14 is_stmt 0 view .LVU194
 610 001a 2422     		movs	r2, #36
 611 001c 9A5C     		ldrb	r2, [r3, r2]
 612              		.loc 1 836 8 view .LVU195
 613 001e 1107     		lsls	r1, r2, #28
 614 0020 2FD5     		bpl	.L37
 837:..\..\..\..\..\..\Software\uCOS-II\Source/os_task.c ****         ptcb->OSTCBStat &= (INT8U)~(INT8U)OS_STAT_SUSPEND;    /* Remove suspension                 
 615              		.loc 1 837 9 is_stmt 1 view .LVU196
 616              		.loc 1 837 25 is_stmt 0 view .LVU197
 617 0022 0821     		movs	r1, #8
 618 0024 8A43     		bics	r2, r1
 619 0026 1C31     		adds	r1, r1, #28
 620 0028 5A54     		strb	r2, [r3, r1]
 838:..\..\..\..\..\..\Software\uCOS-II\Source/os_task.c ****         if ((ptcb->OSTCBStat & OS_STAT_PEND_ANY) == OS_STAT_RDY) { /* See if task is now ready     
 621              		.loc 1 838 9 is_stmt 1 view .LVU198
 622              		.loc 1 838 12 is_stmt 0 view .LVU199
 623 002a 1331     		adds	r1, r1, #19
 624 002c 1142     		tst	r1, r2
 625 002e 25D1     		bne	.L38
 839:..\..\..\..\..\..\Software\uCOS-II\Source/os_task.c ****             if (ptcb->OSTCBDly == 0u) {
 626              		.loc 1 839 13 is_stmt 1 view .LVU200
 627              		.loc 1 839 16 is_stmt 0 view .LVU201
 628 0030 1A6A     		ldr	r2, [r3, #32]
 629 0032 002A     		cmp	r2, #0
 630 0034 1ED1     		bne	.L39
 840:..\..\..\..\..\..\Software\uCOS-II\Source/os_task.c ****                 OSRdyGrp               |= ptcb->OSTCBBitY;    /* Yes, Make task ready to run       
 631              		.loc 1 840 17 is_stmt 1 view .LVU202
 632              		.loc 1 840 47 is_stmt 0 view .LVU203
 633 0036 2A32     		adds	r2, r2, #42
 634 0038 9A5C     		ldrb	r2, [r3, r2]
 635              		.loc 1 840 40 view .LVU204
 636 003a 1649     		ldr	r1, .L44+4
 637 003c 0C78     		ldrb	r4, [r1]
 638 003e 2243     		orrs	r2, r4
 639 0040 0A70     		strb	r2, [r1]
 841:..\..\..\..\..\..\Software\uCOS-II\Source/os_task.c ****                 OSRdyTbl[ptcb->OSTCBY] |= ptcb->OSTCBBitX;
 640              		.loc 1 841 17 is_stmt 1 view .LVU205
 641              		.loc 1 841 30 is_stmt 0 view .LVU206
 642 0042 2822     		movs	r2, #40
 643 0044 9A5C     		ldrb	r2, [r3, r2]
 644              		.loc 1 841 47 view .LVU207
 645 0046 2921     		movs	r1, #41
ARM GAS  C:\Users\EDULU~1.DES\AppData\Local\Temp\ccgrKYGn.s 			page 28


 646 0048 5B5C     		ldrb	r3, [r3, r1]
 647              	.LVL64:
 648              		.loc 1 841 40 view .LVU208
 649 004a 1349     		ldr	r1, .L44+8
 650 004c 8C5C     		ldrb	r4, [r1, r2]
 651 004e 2343     		orrs	r3, r4
 652 0050 8B54     		strb	r3, [r1, r2]
 842:..\..\..\..\..\..\Software\uCOS-II\Source/os_task.c ****                 OS_EXIT_CRITICAL();
 653              		.loc 1 842 17 is_stmt 1 view .LVU209
 654              		.loc 1 842 17 view .LVU210
 655 0052 FFF7FEFF 		bl	OS_CPU_SR_Restore
 656              	.LVL65:
 843:..\..\..\..\..\..\Software\uCOS-II\Source/os_task.c ****                 if (OSRunning == OS_TRUE) {
 657              		.loc 1 843 17 view .LVU211
 658              		.loc 1 843 31 is_stmt 0 view .LVU212
 659 0056 114B     		ldr	r3, .L44+12
 660 0058 1B78     		ldrb	r3, [r3]
 661              		.loc 1 843 20 view .LVU213
 662 005a 012B     		cmp	r3, #1
 663 005c 0CD1     		bne	.L40
 844:..\..\..\..\..\..\Software\uCOS-II\Source/os_task.c ****                     OS_Sched();                               /* Find new highest priority task    
 664              		.loc 1 844 21 is_stmt 1 view .LVU214
 665 005e FFF7FEFF 		bl	OS_Sched
 666              	.LVL66:
 667 0062 09E0     		b	.L40
 668              	.LVL67:
 669              	.L42:
 829:..\..\..\..\..\..\Software\uCOS-II\Source/os_task.c ****         return (OS_ERR_TASK_RESUME_PRIO);
 670              		.loc 1 829 9 view .LVU215
 829:..\..\..\..\..\..\Software\uCOS-II\Source/os_task.c ****         return (OS_ERR_TASK_RESUME_PRIO);
 671              		.loc 1 829 9 view .LVU216
 672 0064 FFF7FEFF 		bl	OS_CPU_SR_Restore
 673              	.LVL68:
 830:..\..\..\..\..\..\Software\uCOS-II\Source/os_task.c ****     }
 674              		.loc 1 830 9 view .LVU217
 830:..\..\..\..\..\..\Software\uCOS-II\Source/os_task.c ****     }
 675              		.loc 1 830 16 is_stmt 0 view .LVU218
 676 0068 4620     		movs	r0, #70
 677 006a 06E0     		b	.L34
 678              	.LVL69:
 679              	.L43:
 833:..\..\..\..\..\..\Software\uCOS-II\Source/os_task.c ****         return (OS_ERR_TASK_NOT_EXIST);
 680              		.loc 1 833 9 is_stmt 1 view .LVU219
 833:..\..\..\..\..\..\Software\uCOS-II\Source/os_task.c ****         return (OS_ERR_TASK_NOT_EXIST);
 681              		.loc 1 833 9 view .LVU220
 682 006c FFF7FEFF 		bl	OS_CPU_SR_Restore
 683              	.LVL70:
 834:..\..\..\..\..\..\Software\uCOS-II\Source/os_task.c ****     }
 684              		.loc 1 834 9 view .LVU221
 834:..\..\..\..\..\..\Software\uCOS-II\Source/os_task.c ****     }
 685              		.loc 1 834 16 is_stmt 0 view .LVU222
 686 0070 4320     		movs	r0, #67
 687 0072 02E0     		b	.L34
 688              	.LVL71:
 689              	.L39:
 845:..\..\..\..\..\..\Software\uCOS-II\Source/os_task.c ****                 }
 846:..\..\..\..\..\..\Software\uCOS-II\Source/os_task.c ****             } else {
ARM GAS  C:\Users\EDULU~1.DES\AppData\Local\Temp\ccgrKYGn.s 			page 29


 847:..\..\..\..\..\..\Software\uCOS-II\Source/os_task.c ****                 OS_EXIT_CRITICAL();
 690              		.loc 1 847 17 is_stmt 1 view .LVU223
 691              		.loc 1 847 17 view .LVU224
 692 0074 FFF7FEFF 		bl	OS_CPU_SR_Restore
 693              	.LVL72:
 694              	.L40:
 848:..\..\..\..\..\..\Software\uCOS-II\Source/os_task.c ****             }
 849:..\..\..\..\..\..\Software\uCOS-II\Source/os_task.c ****         } else {                                              /* Must be pending on event          
 850:..\..\..\..\..\..\Software\uCOS-II\Source/os_task.c ****             OS_EXIT_CRITICAL();
 851:..\..\..\..\..\..\Software\uCOS-II\Source/os_task.c ****         }
 852:..\..\..\..\..\..\Software\uCOS-II\Source/os_task.c ****         return (OS_ERR_NONE);
 695              		.loc 1 852 9 view .LVU225
 696              		.loc 1 852 16 is_stmt 0 view .LVU226
 697 0078 0020     		movs	r0, #0
 698              	.L34:
 853:..\..\..\..\..\..\Software\uCOS-II\Source/os_task.c ****     }
 854:..\..\..\..\..\..\Software\uCOS-II\Source/os_task.c ****     OS_EXIT_CRITICAL();
 855:..\..\..\..\..\..\Software\uCOS-II\Source/os_task.c ****     return (OS_ERR_TASK_NOT_SUSPENDED);
 856:..\..\..\..\..\..\Software\uCOS-II\Source/os_task.c **** }
 699              		.loc 1 856 1 view .LVU227
 700              		@ sp needed
 701 007a 10BD     		pop	{r4, pc}
 702              	.LVL73:
 703              	.L38:
 850:..\..\..\..\..\..\Software\uCOS-II\Source/os_task.c ****         }
 704              		.loc 1 850 13 is_stmt 1 view .LVU228
 850:..\..\..\..\..\..\Software\uCOS-II\Source/os_task.c ****         }
 705              		.loc 1 850 13 view .LVU229
 706 007c FFF7FEFF 		bl	OS_CPU_SR_Restore
 707              	.LVL74:
 850:..\..\..\..\..\..\Software\uCOS-II\Source/os_task.c ****         }
 708              		.loc 1 850 13 is_stmt 0 view .LVU230
 709 0080 FAE7     		b	.L40
 710              	.LVL75:
 711              	.L37:
 854:..\..\..\..\..\..\Software\uCOS-II\Source/os_task.c ****     return (OS_ERR_TASK_NOT_SUSPENDED);
 712              		.loc 1 854 5 is_stmt 1 view .LVU231
 854:..\..\..\..\..\..\Software\uCOS-II\Source/os_task.c ****     return (OS_ERR_TASK_NOT_SUSPENDED);
 713              		.loc 1 854 5 view .LVU232
 714 0082 FFF7FEFF 		bl	OS_CPU_SR_Restore
 715              	.LVL76:
 855:..\..\..\..\..\..\Software\uCOS-II\Source/os_task.c **** }
 716              		.loc 1 855 5 view .LVU233
 855:..\..\..\..\..\..\Software\uCOS-II\Source/os_task.c **** }
 717              		.loc 1 855 12 is_stmt 0 view .LVU234
 718 0086 4420     		movs	r0, #68
 719 0088 F7E7     		b	.L34
 720              	.LVL77:
 721              	.L41:
 823:..\..\..\..\..\..\Software\uCOS-II\Source/os_task.c ****     }
 722              		.loc 1 823 16 view .LVU235
 723 008a 2A20     		movs	r0, #42
 724              	.LVL78:
 823:..\..\..\..\..\..\Software\uCOS-II\Source/os_task.c ****     }
 725              		.loc 1 823 16 view .LVU236
 726 008c F5E7     		b	.L34
 727              	.L45:
ARM GAS  C:\Users\EDULU~1.DES\AppData\Local\Temp\ccgrKYGn.s 			page 30


 728 008e C046     		.align	2
 729              	.L44:
 730 0090 00000000 		.word	OSTCBPrioTbl
 731 0094 00000000 		.word	OSRdyGrp
 732 0098 00000000 		.word	OSRdyTbl
 733 009c 00000000 		.word	OSRunning
 734              		.cfi_endproc
 735              	.LFE6:
 736              		.size	OSTaskResume, .-OSTaskResume
 737              		.section	.text.OSTaskStkChk,"ax",%progbits
 738              		.align	1
 739              		.global	OSTaskStkChk
 740              		.syntax unified
 741              		.code	16
 742              		.thumb_func
 743              		.fpu softvfp
 744              		.type	OSTaskStkChk, %function
 745              	OSTaskStkChk:
 746              	.LVL79:
 747              	.LFB7:
 857:..\..\..\..\..\..\Software\uCOS-II\Source/os_task.c **** #endif
 858:..\..\..\..\..\..\Software\uCOS-II\Source/os_task.c **** /*$PAGE*/
 859:..\..\..\..\..\..\Software\uCOS-II\Source/os_task.c **** /*
 860:..\..\..\..\..\..\Software\uCOS-II\Source/os_task.c **** ***************************************************************************************************
 861:..\..\..\..\..\..\Software\uCOS-II\Source/os_task.c **** *                                           STACK CHECKING
 862:..\..\..\..\..\..\Software\uCOS-II\Source/os_task.c **** *
 863:..\..\..\..\..\..\Software\uCOS-II\Source/os_task.c **** * Description: This function is called to check the amount of free memory left on the specified tas
 864:..\..\..\..\..\..\Software\uCOS-II\Source/os_task.c **** *              stack.
 865:..\..\..\..\..\..\Software\uCOS-II\Source/os_task.c **** *
 866:..\..\..\..\..\..\Software\uCOS-II\Source/os_task.c **** * Arguments  : prio          is the task priority
 867:..\..\..\..\..\..\Software\uCOS-II\Source/os_task.c **** *
 868:..\..\..\..\..\..\Software\uCOS-II\Source/os_task.c **** *              p_stk_data    is a pointer to a data structure of type OS_STK_DATA.
 869:..\..\..\..\..\..\Software\uCOS-II\Source/os_task.c **** *
 870:..\..\..\..\..\..\Software\uCOS-II\Source/os_task.c **** * Returns    : OS_ERR_NONE            upon success
 871:..\..\..\..\..\..\Software\uCOS-II\Source/os_task.c **** *              OS_ERR_PRIO_INVALID    if the priority you specify is higher that the maximum allowe
 872:..\..\..\..\..\..\Software\uCOS-II\Source/os_task.c **** *                                     (i.e. > OS_LOWEST_PRIO) or, you have not specified OS_PRIO_SE
 873:..\..\..\..\..\..\Software\uCOS-II\Source/os_task.c **** *              OS_ERR_TASK_NOT_EXIST  if the desired task has not been created or is assigned to a 
 874:..\..\..\..\..\..\Software\uCOS-II\Source/os_task.c **** *              OS_ERR_TASK_OPT        if you did NOT specified OS_TASK_OPT_STK_CHK when the task wa
 875:..\..\..\..\..\..\Software\uCOS-II\Source/os_task.c **** *              OS_ERR_PDATA_NULL      if 'p_stk_data' is a NULL pointer
 876:..\..\..\..\..\..\Software\uCOS-II\Source/os_task.c **** ***************************************************************************************************
 877:..\..\..\..\..\..\Software\uCOS-II\Source/os_task.c **** */
 878:..\..\..\..\..\..\Software\uCOS-II\Source/os_task.c **** #if (OS_TASK_STAT_STK_CHK_EN > 0u) && (OS_TASK_CREATE_EXT_EN > 0u)
 879:..\..\..\..\..\..\Software\uCOS-II\Source/os_task.c **** INT8U  OSTaskStkChk (INT8U         prio,
 880:..\..\..\..\..\..\Software\uCOS-II\Source/os_task.c ****                      OS_STK_DATA  *p_stk_data)
 881:..\..\..\..\..\..\Software\uCOS-II\Source/os_task.c **** {
 748              		.loc 1 881 1 is_stmt 1 view -0
 749              		.cfi_startproc
 750              		@ args = 0, pretend = 0, frame = 0
 751              		@ frame_needed = 0, uses_anonymous_args = 0
 752              		.loc 1 881 1 is_stmt 0 view .LVU238
 753 0000 70B5     		push	{r4, r5, r6, lr}
 754              		.cfi_def_cfa_offset 16
 755              		.cfi_offset 4, -16
 756              		.cfi_offset 5, -12
 757              		.cfi_offset 6, -8
 758              		.cfi_offset 14, -4
 759 0002 0400     		movs	r4, r0
ARM GAS  C:\Users\EDULU~1.DES\AppData\Local\Temp\ccgrKYGn.s 			page 31


 760 0004 0D00     		movs	r5, r1
 882:..\..\..\..\..\..\Software\uCOS-II\Source/os_task.c ****     OS_TCB    *ptcb;
 761              		.loc 1 882 5 is_stmt 1 view .LVU239
 883:..\..\..\..\..\..\Software\uCOS-II\Source/os_task.c ****     OS_STK    *pchk;
 762              		.loc 1 883 5 view .LVU240
 884:..\..\..\..\..\..\Software\uCOS-II\Source/os_task.c ****     INT32U     nfree;
 763              		.loc 1 884 5 view .LVU241
 885:..\..\..\..\..\..\Software\uCOS-II\Source/os_task.c ****     INT32U     size;
 764              		.loc 1 885 5 view .LVU242
 886:..\..\..\..\..\..\Software\uCOS-II\Source/os_task.c **** #if OS_CRITICAL_METHOD == 3u                           /* Allocate storage for CPU status register 
 887:..\..\..\..\..\..\Software\uCOS-II\Source/os_task.c ****     OS_CPU_SR  cpu_sr = 0u;
 765              		.loc 1 887 5 view .LVU243
 766              	.LVL80:
 888:..\..\..\..\..\..\Software\uCOS-II\Source/os_task.c **** #endif
 889:..\..\..\..\..\..\Software\uCOS-II\Source/os_task.c **** 
 890:..\..\..\..\..\..\Software\uCOS-II\Source/os_task.c **** 
 891:..\..\..\..\..\..\Software\uCOS-II\Source/os_task.c **** 
 892:..\..\..\..\..\..\Software\uCOS-II\Source/os_task.c **** #if OS_ARG_CHK_EN > 0u
 893:..\..\..\..\..\..\Software\uCOS-II\Source/os_task.c ****     if (prio > OS_LOWEST_PRIO) {                       /* Make sure task priority is valid         
 767              		.loc 1 893 5 view .LVU244
 768              		.loc 1 893 8 is_stmt 0 view .LVU245
 769 0006 1F28     		cmp	r0, #31
 770 0008 01D9     		bls	.L47
 894:..\..\..\..\..\..\Software\uCOS-II\Source/os_task.c ****         if (prio != OS_PRIO_SELF) {
 771              		.loc 1 894 9 is_stmt 1 view .LVU246
 772              		.loc 1 894 12 is_stmt 0 view .LVU247
 773 000a FF28     		cmp	r0, #255
 774 000c 32D1     		bne	.L55
 775              	.L47:
 895:..\..\..\..\..\..\Software\uCOS-II\Source/os_task.c ****             return (OS_ERR_PRIO_INVALID);
 896:..\..\..\..\..\..\Software\uCOS-II\Source/os_task.c ****         }
 897:..\..\..\..\..\..\Software\uCOS-II\Source/os_task.c ****     }
 898:..\..\..\..\..\..\Software\uCOS-II\Source/os_task.c ****     if (p_stk_data == (OS_STK_DATA *)0) {              /* Validate 'p_stk_data'                    
 776              		.loc 1 898 5 is_stmt 1 view .LVU248
 777              		.loc 1 898 8 is_stmt 0 view .LVU249
 778 000e 002D     		cmp	r5, #0
 779 0010 32D0     		beq	.L56
 899:..\..\..\..\..\..\Software\uCOS-II\Source/os_task.c ****         return (OS_ERR_PDATA_NULL);
 900:..\..\..\..\..\..\Software\uCOS-II\Source/os_task.c ****     }
 901:..\..\..\..\..\..\Software\uCOS-II\Source/os_task.c **** #endif
 902:..\..\..\..\..\..\Software\uCOS-II\Source/os_task.c ****     p_stk_data->OSFree = 0u;                           /* Assume failure, set to 0 size            
 780              		.loc 1 902 5 is_stmt 1 view .LVU250
 781              		.loc 1 902 24 is_stmt 0 view .LVU251
 782 0012 0023     		movs	r3, #0
 783 0014 2B60     		str	r3, [r5]
 903:..\..\..\..\..\..\Software\uCOS-II\Source/os_task.c ****     p_stk_data->OSUsed = 0u;
 784              		.loc 1 903 5 is_stmt 1 view .LVU252
 785              		.loc 1 903 24 is_stmt 0 view .LVU253
 786 0016 6B60     		str	r3, [r5, #4]
 904:..\..\..\..\..\..\Software\uCOS-II\Source/os_task.c ****     OS_ENTER_CRITICAL();
 787              		.loc 1 904 5 is_stmt 1 view .LVU254
 788              		.loc 1 904 5 view .LVU255
 789 0018 FFF7FEFF 		bl	OS_CPU_SR_Save
 790              	.LVL81:
 905:..\..\..\..\..\..\Software\uCOS-II\Source/os_task.c ****     if (prio == OS_PRIO_SELF) {                        /* See if check for SELF                    
 791              		.loc 1 905 5 view .LVU256
 792              		.loc 1 905 8 is_stmt 0 view .LVU257
ARM GAS  C:\Users\EDULU~1.DES\AppData\Local\Temp\ccgrKYGn.s 			page 32


 793 001c FF2C     		cmp	r4, #255
 794 001e 13D0     		beq	.L57
 795              	.LVL82:
 796              	.L49:
 906:..\..\..\..\..\..\Software\uCOS-II\Source/os_task.c ****         prio = OSTCBCur->OSTCBPrio;
 907:..\..\..\..\..\..\Software\uCOS-II\Source/os_task.c ****     }
 908:..\..\..\..\..\..\Software\uCOS-II\Source/os_task.c ****     ptcb = OSTCBPrioTbl[prio];
 797              		.loc 1 908 5 is_stmt 1 view .LVU258
 798              		.loc 1 908 10 is_stmt 0 view .LVU259
 799 0020 A400     		lsls	r4, r4, #2
 800              	.LVL83:
 801              		.loc 1 908 10 view .LVU260
 802 0022 164B     		ldr	r3, .L62
 803 0024 E358     		ldr	r3, [r4, r3]
 804              	.LVL84:
 909:..\..\..\..\..\..\Software\uCOS-II\Source/os_task.c ****     if (ptcb == (OS_TCB *)0) {                         /* Make sure task exist                     
 805              		.loc 1 909 5 is_stmt 1 view .LVU261
 806              		.loc 1 909 8 is_stmt 0 view .LVU262
 807 0026 002B     		cmp	r3, #0
 808 0028 13D0     		beq	.L58
 910:..\..\..\..\..\..\Software\uCOS-II\Source/os_task.c ****         OS_EXIT_CRITICAL();
 911:..\..\..\..\..\..\Software\uCOS-II\Source/os_task.c ****         return (OS_ERR_TASK_NOT_EXIST);
 912:..\..\..\..\..\..\Software\uCOS-II\Source/os_task.c ****     }
 913:..\..\..\..\..\..\Software\uCOS-II\Source/os_task.c ****     if (ptcb == OS_TCB_RESERVED) {
 809              		.loc 1 913 5 is_stmt 1 view .LVU263
 810              		.loc 1 913 8 is_stmt 0 view .LVU264
 811 002a 012B     		cmp	r3, #1
 812 002c 15D0     		beq	.L59
 914:..\..\..\..\..\..\Software\uCOS-II\Source/os_task.c ****         OS_EXIT_CRITICAL();
 915:..\..\..\..\..\..\Software\uCOS-II\Source/os_task.c ****         return (OS_ERR_TASK_NOT_EXIST);
 916:..\..\..\..\..\..\Software\uCOS-II\Source/os_task.c ****     }
 917:..\..\..\..\..\..\Software\uCOS-II\Source/os_task.c ****     if ((ptcb->OSTCBOpt & OS_TASK_OPT_STK_CHK) == 0u) { /* Make sure stack checking option is set  
 813              		.loc 1 917 5 is_stmt 1 view .LVU265
 814              		.loc 1 917 14 is_stmt 0 view .LVU266
 815 002e 1A8A     		ldrh	r2, [r3, #16]
 816              		.loc 1 917 8 view .LVU267
 817 0030 D207     		lsls	r2, r2, #31
 818 0032 16D5     		bpl	.L60
 918:..\..\..\..\..\..\Software\uCOS-II\Source/os_task.c ****         OS_EXIT_CRITICAL();
 919:..\..\..\..\..\..\Software\uCOS-II\Source/os_task.c ****         return (OS_ERR_TASK_OPT);
 920:..\..\..\..\..\..\Software\uCOS-II\Source/os_task.c ****     }
 921:..\..\..\..\..\..\Software\uCOS-II\Source/os_task.c ****     nfree = 0u;
 819              		.loc 1 921 5 is_stmt 1 view .LVU268
 820              	.LVL85:
 922:..\..\..\..\..\..\Software\uCOS-II\Source/os_task.c ****     size  = ptcb->OSTCBStkSize;
 821              		.loc 1 922 5 view .LVU269
 822              		.loc 1 922 11 is_stmt 0 view .LVU270
 823 0034 DE68     		ldr	r6, [r3, #12]
 824              	.LVL86:
 923:..\..\..\..\..\..\Software\uCOS-II\Source/os_task.c ****     pchk  = ptcb->OSTCBStkBottom;
 825              		.loc 1 923 5 is_stmt 1 view .LVU271
 826              		.loc 1 923 11 is_stmt 0 view .LVU272
 827 0036 9C68     		ldr	r4, [r3, #8]
 828              	.LVL87:
 924:..\..\..\..\..\..\Software\uCOS-II\Source/os_task.c ****     OS_EXIT_CRITICAL();
 829              		.loc 1 924 5 is_stmt 1 view .LVU273
 830              		.loc 1 924 5 view .LVU274
ARM GAS  C:\Users\EDULU~1.DES\AppData\Local\Temp\ccgrKYGn.s 			page 33


 831 0038 FFF7FEFF 		bl	OS_CPU_SR_Restore
 832              	.LVL88:
 925:..\..\..\..\..\..\Software\uCOS-II\Source/os_task.c **** #if OS_STK_GROWTH == 1u
 926:..\..\..\..\..\..\Software\uCOS-II\Source/os_task.c ****     while (*pchk++ == (OS_STK)0) {                    /* Compute the number of zero entries on the 
 833              		.loc 1 926 5 view .LVU275
 921:..\..\..\..\..\..\Software\uCOS-II\Source/os_task.c ****     size  = ptcb->OSTCBStkSize;
 834              		.loc 1 921 11 is_stmt 0 view .LVU276
 835 003c 0022     		movs	r2, #0
 836              	.LVL89:
 837              	.L53:
 838              		.loc 1 926 12 view .LVU277
 839 003e 02CC     		ldmia	r4!, {r1}
 840              	.LVL90:
 841              		.loc 1 926 11 view .LVU278
 842 0040 0029     		cmp	r1, #0
 843 0042 12D1     		bne	.L61
 927:..\..\..\..\..\..\Software\uCOS-II\Source/os_task.c ****         nfree++;
 844              		.loc 1 927 9 is_stmt 1 view .LVU279
 845              		.loc 1 927 14 is_stmt 0 view .LVU280
 846 0044 0132     		adds	r2, r2, #1
 847              	.LVL91:
 848              		.loc 1 927 14 view .LVU281
 849 0046 FAE7     		b	.L53
 850              	.LVL92:
 851              	.L57:
 906:..\..\..\..\..\..\Software\uCOS-II\Source/os_task.c ****     }
 852              		.loc 1 906 9 is_stmt 1 view .LVU282
 906:..\..\..\..\..\..\Software\uCOS-II\Source/os_task.c ****     }
 853              		.loc 1 906 24 is_stmt 0 view .LVU283
 854 0048 0D4B     		ldr	r3, .L62+4
 855 004a 1A68     		ldr	r2, [r3]
 906:..\..\..\..\..\..\Software\uCOS-II\Source/os_task.c ****     }
 856              		.loc 1 906 14 view .LVU284
 857 004c 2623     		movs	r3, #38
 858 004e D45C     		ldrb	r4, [r2, r3]
 859              	.LVL93:
 906:..\..\..\..\..\..\Software\uCOS-II\Source/os_task.c ****     }
 860              		.loc 1 906 14 view .LVU285
 861 0050 E6E7     		b	.L49
 862              	.LVL94:
 863              	.L58:
 910:..\..\..\..\..\..\Software\uCOS-II\Source/os_task.c ****         return (OS_ERR_TASK_NOT_EXIST);
 864              		.loc 1 910 9 is_stmt 1 view .LVU286
 910:..\..\..\..\..\..\Software\uCOS-II\Source/os_task.c ****         return (OS_ERR_TASK_NOT_EXIST);
 865              		.loc 1 910 9 view .LVU287
 866 0052 FFF7FEFF 		bl	OS_CPU_SR_Restore
 867              	.LVL95:
 911:..\..\..\..\..\..\Software\uCOS-II\Source/os_task.c ****     }
 868              		.loc 1 911 9 view .LVU288
 911:..\..\..\..\..\..\Software\uCOS-II\Source/os_task.c ****     }
 869              		.loc 1 911 16 is_stmt 0 view .LVU289
 870 0056 4320     		movs	r0, #67
 871 0058 0BE0     		b	.L48
 872              	.LVL96:
 873              	.L59:
 914:..\..\..\..\..\..\Software\uCOS-II\Source/os_task.c ****         return (OS_ERR_TASK_NOT_EXIST);
 874              		.loc 1 914 9 is_stmt 1 view .LVU290
ARM GAS  C:\Users\EDULU~1.DES\AppData\Local\Temp\ccgrKYGn.s 			page 34


 914:..\..\..\..\..\..\Software\uCOS-II\Source/os_task.c ****         return (OS_ERR_TASK_NOT_EXIST);
 875              		.loc 1 914 9 view .LVU291
 876 005a FFF7FEFF 		bl	OS_CPU_SR_Restore
 877              	.LVL97:
 915:..\..\..\..\..\..\Software\uCOS-II\Source/os_task.c ****     }
 878              		.loc 1 915 9 view .LVU292
 915:..\..\..\..\..\..\Software\uCOS-II\Source/os_task.c ****     }
 879              		.loc 1 915 16 is_stmt 0 view .LVU293
 880 005e 4320     		movs	r0, #67
 881 0060 07E0     		b	.L48
 882              	.LVL98:
 883              	.L60:
 918:..\..\..\..\..\..\Software\uCOS-II\Source/os_task.c ****         return (OS_ERR_TASK_OPT);
 884              		.loc 1 918 9 is_stmt 1 view .LVU294
 918:..\..\..\..\..\..\Software\uCOS-II\Source/os_task.c ****         return (OS_ERR_TASK_OPT);
 885              		.loc 1 918 9 view .LVU295
 886 0062 FFF7FEFF 		bl	OS_CPU_SR_Restore
 887              	.LVL99:
 919:..\..\..\..\..\..\Software\uCOS-II\Source/os_task.c ****     }
 888              		.loc 1 919 9 view .LVU296
 919:..\..\..\..\..\..\Software\uCOS-II\Source/os_task.c ****     }
 889              		.loc 1 919 16 is_stmt 0 view .LVU297
 890 0066 4520     		movs	r0, #69
 891 0068 03E0     		b	.L48
 892              	.LVL100:
 893              	.L61:
 928:..\..\..\..\..\..\Software\uCOS-II\Source/os_task.c ****     }
 929:..\..\..\..\..\..\Software\uCOS-II\Source/os_task.c **** #else
 930:..\..\..\..\..\..\Software\uCOS-II\Source/os_task.c ****     while (*pchk-- == (OS_STK)0) {
 931:..\..\..\..\..\..\Software\uCOS-II\Source/os_task.c ****         nfree++;
 932:..\..\..\..\..\..\Software\uCOS-II\Source/os_task.c ****     }
 933:..\..\..\..\..\..\Software\uCOS-II\Source/os_task.c **** #endif
 934:..\..\..\..\..\..\Software\uCOS-II\Source/os_task.c ****     p_stk_data->OSFree = nfree;                       /* Store   number of free entries on the stk 
 894              		.loc 1 934 5 is_stmt 1 view .LVU298
 895              		.loc 1 934 24 is_stmt 0 view .LVU299
 896 006a 2A60     		str	r2, [r5]
 935:..\..\..\..\..\..\Software\uCOS-II\Source/os_task.c ****     p_stk_data->OSUsed = size - nfree;                /* Compute number of entries used on the stk 
 897              		.loc 1 935 5 is_stmt 1 view .LVU300
 898              		.loc 1 935 31 is_stmt 0 view .LVU301
 899 006c B21A     		subs	r2, r6, r2
 900              	.LVL101:
 901              		.loc 1 935 24 view .LVU302
 902 006e 6A60     		str	r2, [r5, #4]
 936:..\..\..\..\..\..\Software\uCOS-II\Source/os_task.c ****     return (OS_ERR_NONE);
 903              		.loc 1 936 5 is_stmt 1 view .LVU303
 904              		.loc 1 936 12 is_stmt 0 view .LVU304
 905 0070 0020     		movs	r0, #0
 906              	.LVL102:
 907              	.L48:
 937:..\..\..\..\..\..\Software\uCOS-II\Source/os_task.c **** }
 908              		.loc 1 937 1 view .LVU305
 909              		@ sp needed
 910              	.LVL103:
 911              		.loc 1 937 1 view .LVU306
 912 0072 70BD     		pop	{r4, r5, r6, pc}
 913              	.LVL104:
 914              	.L55:
ARM GAS  C:\Users\EDULU~1.DES\AppData\Local\Temp\ccgrKYGn.s 			page 35


 895:..\..\..\..\..\..\Software\uCOS-II\Source/os_task.c ****         }
 915              		.loc 1 895 20 view .LVU307
 916 0074 2A20     		movs	r0, #42
 917              	.LVL105:
 895:..\..\..\..\..\..\Software\uCOS-II\Source/os_task.c ****         }
 918              		.loc 1 895 20 view .LVU308
 919 0076 FCE7     		b	.L48
 920              	.LVL106:
 921              	.L56:
 899:..\..\..\..\..\..\Software\uCOS-II\Source/os_task.c ****     }
 922              		.loc 1 899 16 view .LVU309
 923 0078 0920     		movs	r0, #9
 924              	.LVL107:
 899:..\..\..\..\..\..\Software\uCOS-II\Source/os_task.c ****     }
 925              		.loc 1 899 16 view .LVU310
 926 007a FAE7     		b	.L48
 927              	.L63:
 928              		.align	2
 929              	.L62:
 930 007c 00000000 		.word	OSTCBPrioTbl
 931 0080 00000000 		.word	OSTCBCur
 932              		.cfi_endproc
 933              	.LFE7:
 934              		.size	OSTaskStkChk, .-OSTaskStkChk
 935              		.section	.text.OSTaskSuspend,"ax",%progbits
 936              		.align	1
 937              		.global	OSTaskSuspend
 938              		.syntax unified
 939              		.code	16
 940              		.thumb_func
 941              		.fpu softvfp
 942              		.type	OSTaskSuspend, %function
 943              	OSTaskSuspend:
 944              	.LVL108:
 945              	.LFB8:
 938:..\..\..\..\..\..\Software\uCOS-II\Source/os_task.c **** #endif
 939:..\..\..\..\..\..\Software\uCOS-II\Source/os_task.c **** /*$PAGE*/
 940:..\..\..\..\..\..\Software\uCOS-II\Source/os_task.c **** /*
 941:..\..\..\..\..\..\Software\uCOS-II\Source/os_task.c **** ***************************************************************************************************
 942:..\..\..\..\..\..\Software\uCOS-II\Source/os_task.c **** *                                           SUSPEND A TASK
 943:..\..\..\..\..\..\Software\uCOS-II\Source/os_task.c **** *
 944:..\..\..\..\..\..\Software\uCOS-II\Source/os_task.c **** * Description: This function is called to suspend a task.  The task can be the calling task if the
 945:..\..\..\..\..\..\Software\uCOS-II\Source/os_task.c **** *              priority passed to OSTaskSuspend() is the priority of the calling task or OS_PRIO_SE
 946:..\..\..\..\..\..\Software\uCOS-II\Source/os_task.c **** *
 947:..\..\..\..\..\..\Software\uCOS-II\Source/os_task.c **** * Arguments  : prio     is the priority of the task to suspend.  If you specify OS_PRIO_SELF, the
 948:..\..\..\..\..\..\Software\uCOS-II\Source/os_task.c **** *                       calling task will suspend itself and rescheduling will occur.
 949:..\..\..\..\..\..\Software\uCOS-II\Source/os_task.c **** *
 950:..\..\..\..\..\..\Software\uCOS-II\Source/os_task.c **** * Returns    : OS_ERR_NONE               if the requested task is suspended
 951:..\..\..\..\..\..\Software\uCOS-II\Source/os_task.c **** *              OS_ERR_TASK_SUSPEND_IDLE  if you attempted to suspend the idle task which is not all
 952:..\..\..\..\..\..\Software\uCOS-II\Source/os_task.c **** *              OS_ERR_PRIO_INVALID       if the priority you specify is higher that the maximum all
 953:..\..\..\..\..\..\Software\uCOS-II\Source/os_task.c **** *                                        (i.e. >= OS_LOWEST_PRIO) or, you have not specified OS_PRI
 954:..\..\..\..\..\..\Software\uCOS-II\Source/os_task.c **** *              OS_ERR_TASK_SUSPEND_PRIO  if the task to suspend does not exist
 955:..\..\..\..\..\..\Software\uCOS-II\Source/os_task.c **** *              OS_ERR_TASK_NOT_EXITS     if the task is assigned to a Mutex PIP
 956:..\..\..\..\..\..\Software\uCOS-II\Source/os_task.c **** *
 957:..\..\..\..\..\..\Software\uCOS-II\Source/os_task.c **** * Note       : You should use this function with great care.  If you suspend a task that is waiting
 958:..\..\..\..\..\..\Software\uCOS-II\Source/os_task.c **** *              an event (i.e. a message, a semaphore, a queue ...) you will prevent this task from
 959:..\..\..\..\..\..\Software\uCOS-II\Source/os_task.c **** *              running when the event arrives.
ARM GAS  C:\Users\EDULU~1.DES\AppData\Local\Temp\ccgrKYGn.s 			page 36


 960:..\..\..\..\..\..\Software\uCOS-II\Source/os_task.c **** ***************************************************************************************************
 961:..\..\..\..\..\..\Software\uCOS-II\Source/os_task.c **** */
 962:..\..\..\..\..\..\Software\uCOS-II\Source/os_task.c **** 
 963:..\..\..\..\..\..\Software\uCOS-II\Source/os_task.c **** #if OS_TASK_SUSPEND_EN > 0u
 964:..\..\..\..\..\..\Software\uCOS-II\Source/os_task.c **** INT8U  OSTaskSuspend (INT8U prio)
 965:..\..\..\..\..\..\Software\uCOS-II\Source/os_task.c **** {
 946              		.loc 1 965 1 is_stmt 1 view -0
 947              		.cfi_startproc
 948              		@ args = 0, pretend = 0, frame = 0
 949              		@ frame_needed = 0, uses_anonymous_args = 0
 950              		.loc 1 965 1 is_stmt 0 view .LVU312
 951 0000 70B5     		push	{r4, r5, r6, lr}
 952              		.cfi_def_cfa_offset 16
 953              		.cfi_offset 4, -16
 954              		.cfi_offset 5, -12
 955              		.cfi_offset 6, -8
 956              		.cfi_offset 14, -4
 957 0002 0400     		movs	r4, r0
 966:..\..\..\..\..\..\Software\uCOS-II\Source/os_task.c ****     BOOLEAN    self;
 958              		.loc 1 966 5 is_stmt 1 view .LVU313
 967:..\..\..\..\..\..\Software\uCOS-II\Source/os_task.c ****     OS_TCB    *ptcb;
 959              		.loc 1 967 5 view .LVU314
 968:..\..\..\..\..\..\Software\uCOS-II\Source/os_task.c ****     INT8U      y;
 960              		.loc 1 968 5 view .LVU315
 969:..\..\..\..\..\..\Software\uCOS-II\Source/os_task.c **** #if OS_CRITICAL_METHOD == 3u                     /* Allocate storage for CPU status register       
 970:..\..\..\..\..\..\Software\uCOS-II\Source/os_task.c ****     OS_CPU_SR  cpu_sr = 0u;
 961              		.loc 1 970 5 view .LVU316
 962              	.LVL109:
 971:..\..\..\..\..\..\Software\uCOS-II\Source/os_task.c **** #endif
 972:..\..\..\..\..\..\Software\uCOS-II\Source/os_task.c **** 
 973:..\..\..\..\..\..\Software\uCOS-II\Source/os_task.c **** 
 974:..\..\..\..\..\..\Software\uCOS-II\Source/os_task.c **** 
 975:..\..\..\..\..\..\Software\uCOS-II\Source/os_task.c **** #if OS_ARG_CHK_EN > 0u
 976:..\..\..\..\..\..\Software\uCOS-II\Source/os_task.c ****     if (prio == OS_TASK_IDLE_PRIO) {                            /* Not allowed to suspend idle task
 963              		.loc 1 976 5 view .LVU317
 964              		.loc 1 976 8 is_stmt 0 view .LVU318
 965 0004 1F28     		cmp	r0, #31
 966 0006 43D0     		beq	.L72
 977:..\..\..\..\..\..\Software\uCOS-II\Source/os_task.c ****         return (OS_ERR_TASK_SUSPEND_IDLE);
 978:..\..\..\..\..\..\Software\uCOS-II\Source/os_task.c ****     }
 979:..\..\..\..\..\..\Software\uCOS-II\Source/os_task.c ****     if (prio >= OS_LOWEST_PRIO) {                               /* Task priority valid ?           
 967              		.loc 1 979 5 is_stmt 1 view .LVU319
 968              		.loc 1 979 8 is_stmt 0 view .LVU320
 969 0008 1E28     		cmp	r0, #30
 970 000a 01D9     		bls	.L66
 980:..\..\..\..\..\..\Software\uCOS-II\Source/os_task.c ****         if (prio != OS_PRIO_SELF) {
 971              		.loc 1 980 9 is_stmt 1 view .LVU321
 972              		.loc 1 980 12 is_stmt 0 view .LVU322
 973 000c FF28     		cmp	r0, #255
 974 000e 41D1     		bne	.L73
 975              	.L66:
 981:..\..\..\..\..\..\Software\uCOS-II\Source/os_task.c ****             return (OS_ERR_PRIO_INVALID);
 982:..\..\..\..\..\..\Software\uCOS-II\Source/os_task.c ****         }
 983:..\..\..\..\..\..\Software\uCOS-II\Source/os_task.c ****     }
 984:..\..\..\..\..\..\Software\uCOS-II\Source/os_task.c **** #endif
 985:..\..\..\..\..\..\Software\uCOS-II\Source/os_task.c ****     OS_ENTER_CRITICAL();
 976              		.loc 1 985 5 is_stmt 1 view .LVU323
ARM GAS  C:\Users\EDULU~1.DES\AppData\Local\Temp\ccgrKYGn.s 			page 37


 977              		.loc 1 985 5 view .LVU324
 978 0010 FFF7FEFF 		bl	OS_CPU_SR_Save
 979              	.LVL110:
 986:..\..\..\..\..\..\Software\uCOS-II\Source/os_task.c ****     if (prio == OS_PRIO_SELF) {                                 /* See if suspend SELF             
 980              		.loc 1 986 5 view .LVU325
 981              		.loc 1 986 8 is_stmt 0 view .LVU326
 982 0014 FF2C     		cmp	r4, #255
 983 0016 27D0     		beq	.L76
 987:..\..\..\..\..\..\Software\uCOS-II\Source/os_task.c ****         prio = OSTCBCur->OSTCBPrio;
 988:..\..\..\..\..\..\Software\uCOS-II\Source/os_task.c ****         self = OS_TRUE;
 989:..\..\..\..\..\..\Software\uCOS-II\Source/os_task.c ****     } else if (prio == OSTCBCur->OSTCBPrio) {                   /* See if suspending self          
 984              		.loc 1 989 12 is_stmt 1 view .LVU327
 985              		.loc 1 989 32 is_stmt 0 view .LVU328
 986 0018 1F4B     		ldr	r3, .L81
 987 001a 1A68     		ldr	r2, [r3]
 988 001c 2623     		movs	r3, #38
 989 001e D35C     		ldrb	r3, [r2, r3]
 990              		.loc 1 989 15 view .LVU329
 991 0020 A342     		cmp	r3, r4
 992 0022 27D0     		beq	.L77
 990:..\..\..\..\..\..\Software\uCOS-II\Source/os_task.c ****         self = OS_TRUE;
 991:..\..\..\..\..\..\Software\uCOS-II\Source/os_task.c ****     } else {
 992:..\..\..\..\..\..\Software\uCOS-II\Source/os_task.c ****         self = OS_FALSE;                                        /* No suspending another task      
 993              		.loc 1 992 14 view .LVU330
 994 0024 0025     		movs	r5, #0
 995              	.LVL111:
 996              	.L68:
 993:..\..\..\..\..\..\Software\uCOS-II\Source/os_task.c ****     }
 994:..\..\..\..\..\..\Software\uCOS-II\Source/os_task.c ****     ptcb = OSTCBPrioTbl[prio];
 997              		.loc 1 994 5 is_stmt 1 view .LVU331
 998              		.loc 1 994 10 is_stmt 0 view .LVU332
 999 0026 A400     		lsls	r4, r4, #2
 1000              	.LVL112:
 1001              		.loc 1 994 10 view .LVU333
 1002 0028 1C4B     		ldr	r3, .L81+4
 1003 002a E358     		ldr	r3, [r4, r3]
 1004              	.LVL113:
 995:..\..\..\..\..\..\Software\uCOS-II\Source/os_task.c ****     if (ptcb == (OS_TCB *)0) {                                  /* Task to suspend must exist      
 1005              		.loc 1 995 5 is_stmt 1 view .LVU334
 1006              		.loc 1 995 8 is_stmt 0 view .LVU335
 1007 002c 002B     		cmp	r3, #0
 1008 002e 23D0     		beq	.L78
 996:..\..\..\..\..\..\Software\uCOS-II\Source/os_task.c ****         OS_EXIT_CRITICAL();
 997:..\..\..\..\..\..\Software\uCOS-II\Source/os_task.c ****         return (OS_ERR_TASK_SUSPEND_PRIO);
 998:..\..\..\..\..\..\Software\uCOS-II\Source/os_task.c ****     }
 999:..\..\..\..\..\..\Software\uCOS-II\Source/os_task.c ****     if (ptcb == OS_TCB_RESERVED) {                              /* See if assigned to Mutex        
 1009              		.loc 1 999 5 is_stmt 1 view .LVU336
 1010              		.loc 1 999 8 is_stmt 0 view .LVU337
 1011 0030 012B     		cmp	r3, #1
 1012 0032 25D0     		beq	.L79
1000:..\..\..\..\..\..\Software\uCOS-II\Source/os_task.c ****         OS_EXIT_CRITICAL();
1001:..\..\..\..\..\..\Software\uCOS-II\Source/os_task.c ****         return (OS_ERR_TASK_NOT_EXIST);
1002:..\..\..\..\..\..\Software\uCOS-II\Source/os_task.c ****     }
1003:..\..\..\..\..\..\Software\uCOS-II\Source/os_task.c ****     y            = ptcb->OSTCBY;
 1013              		.loc 1 1003 5 is_stmt 1 view .LVU338
 1014              		.loc 1 1003 18 is_stmt 0 view .LVU339
 1015 0034 2822     		movs	r2, #40
ARM GAS  C:\Users\EDULU~1.DES\AppData\Local\Temp\ccgrKYGn.s 			page 38


 1016 0036 995C     		ldrb	r1, [r3, r2]
 1017              	.LVL114:
1004:..\..\..\..\..\..\Software\uCOS-II\Source/os_task.c ****     OSRdyTbl[y] &= (OS_PRIO)~ptcb->OSTCBBitX;                   /* Make task not ready             
 1018              		.loc 1 1004 5 is_stmt 1 view .LVU340
 1019              		.loc 1 1004 34 is_stmt 0 view .LVU341
 1020 0038 0132     		adds	r2, r2, #1
 1021 003a 9E5C     		ldrb	r6, [r3, r2]
 1022              		.loc 1 1004 17 view .LVU342
 1023 003c 184C     		ldr	r4, .L81+8
 1024 003e 625C     		ldrb	r2, [r4, r1]
 1025 0040 B243     		bics	r2, r6
 1026 0042 6254     		strb	r2, [r4, r1]
1005:..\..\..\..\..\..\Software\uCOS-II\Source/os_task.c ****     if (OSRdyTbl[y] == 0u) {
 1027              		.loc 1 1005 5 is_stmt 1 view .LVU343
 1028              		.loc 1 1005 8 is_stmt 0 view .LVU344
 1029 0044 05D1     		bne	.L71
1006:..\..\..\..\..\..\Software\uCOS-II\Source/os_task.c ****         OSRdyGrp &= (OS_PRIO)~ptcb->OSTCBBitY;
 1030              		.loc 1 1006 9 is_stmt 1 view .LVU345
 1031              		.loc 1 1006 35 is_stmt 0 view .LVU346
 1032 0046 2A32     		adds	r2, r2, #42
 1033 0048 9C5C     		ldrb	r4, [r3, r2]
 1034              		.loc 1 1006 18 view .LVU347
 1035 004a 1649     		ldr	r1, .L81+12
 1036              	.LVL115:
 1037              		.loc 1 1006 18 view .LVU348
 1038 004c 0A78     		ldrb	r2, [r1]
 1039 004e A243     		bics	r2, r4
 1040 0050 0A70     		strb	r2, [r1]
 1041              	.L71:
1007:..\..\..\..\..\..\Software\uCOS-II\Source/os_task.c ****     }
1008:..\..\..\..\..\..\Software\uCOS-II\Source/os_task.c ****     ptcb->OSTCBStat |= OS_STAT_SUSPEND;                         /* Status of task is 'SUSPENDED'   
 1042              		.loc 1 1008 5 is_stmt 1 view .LVU349
 1043              		.loc 1 1008 21 is_stmt 0 view .LVU350
 1044 0052 2421     		movs	r1, #36
 1045 0054 5A5C     		ldrb	r2, [r3, r1]
 1046 0056 0824     		movs	r4, #8
 1047 0058 2243     		orrs	r2, r4
 1048 005a 5A54     		strb	r2, [r3, r1]
1009:..\..\..\..\..\..\Software\uCOS-II\Source/os_task.c ****     OS_EXIT_CRITICAL();
 1049              		.loc 1 1009 5 is_stmt 1 view .LVU351
 1050              		.loc 1 1009 5 view .LVU352
 1051 005c FFF7FEFF 		bl	OS_CPU_SR_Restore
 1052              	.LVL116:
1010:..\..\..\..\..\..\Software\uCOS-II\Source/os_task.c ****     if (self == OS_TRUE) {                                      /* Context switch only if SELF     
 1053              		.loc 1 1010 5 view .LVU353
 1054              		.loc 1 1010 8 is_stmt 0 view .LVU354
 1055 0060 012D     		cmp	r5, #1
 1056 0062 11D0     		beq	.L80
1011:..\..\..\..\..\..\Software\uCOS-II\Source/os_task.c ****         OS_Sched();                                             /* Find new highest priority task  
1012:..\..\..\..\..\..\Software\uCOS-II\Source/os_task.c ****     }
1013:..\..\..\..\..\..\Software\uCOS-II\Source/os_task.c ****     return (OS_ERR_NONE);
 1057              		.loc 1 1013 12 view .LVU355
 1058 0064 0020     		movs	r0, #0
 1059              	.LVL117:
 1060              	.L65:
1014:..\..\..\..\..\..\Software\uCOS-II\Source/os_task.c **** }
 1061              		.loc 1 1014 1 view .LVU356
ARM GAS  C:\Users\EDULU~1.DES\AppData\Local\Temp\ccgrKYGn.s 			page 39


 1062              		@ sp needed
 1063 0066 70BD     		pop	{r4, r5, r6, pc}
 1064              	.LVL118:
 1065              	.L76:
 987:..\..\..\..\..\..\Software\uCOS-II\Source/os_task.c ****         self = OS_TRUE;
 1066              		.loc 1 987 9 is_stmt 1 view .LVU357
 987:..\..\..\..\..\..\Software\uCOS-II\Source/os_task.c ****         self = OS_TRUE;
 1067              		.loc 1 987 24 is_stmt 0 view .LVU358
 1068 0068 0B4B     		ldr	r3, .L81
 1069 006a 1A68     		ldr	r2, [r3]
 987:..\..\..\..\..\..\Software\uCOS-II\Source/os_task.c ****         self = OS_TRUE;
 1070              		.loc 1 987 14 view .LVU359
 1071 006c 2623     		movs	r3, #38
 1072 006e D45C     		ldrb	r4, [r2, r3]
 1073              	.LVL119:
 988:..\..\..\..\..\..\Software\uCOS-II\Source/os_task.c ****     } else if (prio == OSTCBCur->OSTCBPrio) {                   /* See if suspending self          
 1074              		.loc 1 988 9 is_stmt 1 view .LVU360
 988:..\..\..\..\..\..\Software\uCOS-II\Source/os_task.c ****     } else if (prio == OSTCBCur->OSTCBPrio) {                   /* See if suspending self          
 1075              		.loc 1 988 14 is_stmt 0 view .LVU361
 1076 0070 0125     		movs	r5, #1
 1077 0072 D8E7     		b	.L68
 1078              	.LVL120:
 1079              	.L77:
 990:..\..\..\..\..\..\Software\uCOS-II\Source/os_task.c ****     } else {
 1080              		.loc 1 990 14 view .LVU362
 1081 0074 0125     		movs	r5, #1
 1082 0076 D6E7     		b	.L68
 1083              	.LVL121:
 1084              	.L78:
 996:..\..\..\..\..\..\Software\uCOS-II\Source/os_task.c ****         return (OS_ERR_TASK_SUSPEND_PRIO);
 1085              		.loc 1 996 9 is_stmt 1 view .LVU363
 996:..\..\..\..\..\..\Software\uCOS-II\Source/os_task.c ****         return (OS_ERR_TASK_SUSPEND_PRIO);
 1086              		.loc 1 996 9 view .LVU364
 1087 0078 FFF7FEFF 		bl	OS_CPU_SR_Restore
 1088              	.LVL122:
 997:..\..\..\..\..\..\Software\uCOS-II\Source/os_task.c ****     }
 1089              		.loc 1 997 9 view .LVU365
 997:..\..\..\..\..\..\Software\uCOS-II\Source/os_task.c ****     }
 1090              		.loc 1 997 16 is_stmt 0 view .LVU366
 1091 007c 4820     		movs	r0, #72
 1092 007e F2E7     		b	.L65
 1093              	.LVL123:
 1094              	.L79:
1000:..\..\..\..\..\..\Software\uCOS-II\Source/os_task.c ****         return (OS_ERR_TASK_NOT_EXIST);
 1095              		.loc 1 1000 9 is_stmt 1 view .LVU367
1000:..\..\..\..\..\..\Software\uCOS-II\Source/os_task.c ****         return (OS_ERR_TASK_NOT_EXIST);
 1096              		.loc 1 1000 9 view .LVU368
 1097 0080 FFF7FEFF 		bl	OS_CPU_SR_Restore
 1098              	.LVL124:
1001:..\..\..\..\..\..\Software\uCOS-II\Source/os_task.c ****     }
 1099              		.loc 1 1001 9 view .LVU369
1001:..\..\..\..\..\..\Software\uCOS-II\Source/os_task.c ****     }
 1100              		.loc 1 1001 16 is_stmt 0 view .LVU370
 1101 0084 4320     		movs	r0, #67
 1102 0086 EEE7     		b	.L65
 1103              	.L80:
1011:..\..\..\..\..\..\Software\uCOS-II\Source/os_task.c ****     }
ARM GAS  C:\Users\EDULU~1.DES\AppData\Local\Temp\ccgrKYGn.s 			page 40


 1104              		.loc 1 1011 9 is_stmt 1 view .LVU371
 1105 0088 FFF7FEFF 		bl	OS_Sched
 1106              	.LVL125:
1013:..\..\..\..\..\..\Software\uCOS-II\Source/os_task.c **** }
 1107              		.loc 1 1013 12 is_stmt 0 view .LVU372
 1108 008c 0020     		movs	r0, #0
 1109 008e EAE7     		b	.L65
 1110              	.LVL126:
 1111              	.L72:
 977:..\..\..\..\..\..\Software\uCOS-II\Source/os_task.c ****     }
 1112              		.loc 1 977 16 view .LVU373
 1113 0090 4720     		movs	r0, #71
 1114              	.LVL127:
 977:..\..\..\..\..\..\Software\uCOS-II\Source/os_task.c ****     }
 1115              		.loc 1 977 16 view .LVU374
 1116 0092 E8E7     		b	.L65
 1117              	.LVL128:
 1118              	.L73:
 981:..\..\..\..\..\..\Software\uCOS-II\Source/os_task.c ****         }
 1119              		.loc 1 981 20 view .LVU375
 1120 0094 2A20     		movs	r0, #42
 1121              	.LVL129:
 981:..\..\..\..\..\..\Software\uCOS-II\Source/os_task.c ****         }
 1122              		.loc 1 981 20 view .LVU376
 1123 0096 E6E7     		b	.L65
 1124              	.L82:
 1125              		.align	2
 1126              	.L81:
 1127 0098 00000000 		.word	OSTCBCur
 1128 009c 00000000 		.word	OSTCBPrioTbl
 1129 00a0 00000000 		.word	OSRdyTbl
 1130 00a4 00000000 		.word	OSRdyGrp
 1131              		.cfi_endproc
 1132              	.LFE8:
 1133              		.size	OSTaskSuspend, .-OSTaskSuspend
 1134              		.section	.text.OSTaskRegGet,"ax",%progbits
 1135              		.align	1
 1136              		.global	OSTaskRegGet
 1137              		.syntax unified
 1138              		.code	16
 1139              		.thumb_func
 1140              		.fpu softvfp
 1141              		.type	OSTaskRegGet, %function
 1142              	OSTaskRegGet:
 1143              	.LVL130:
 1144              	.LFB9:
1015:..\..\..\..\..\..\Software\uCOS-II\Source/os_task.c **** #endif
1016:..\..\..\..\..\..\Software\uCOS-II\Source/os_task.c **** /*$PAGE*/
1017:..\..\..\..\..\..\Software\uCOS-II\Source/os_task.c **** /*
1018:..\..\..\..\..\..\Software\uCOS-II\Source/os_task.c **** ***************************************************************************************************
1019:..\..\..\..\..\..\Software\uCOS-II\Source/os_task.c **** *                                            QUERY A TASK
1020:..\..\..\..\..\..\Software\uCOS-II\Source/os_task.c **** *
1021:..\..\..\..\..\..\Software\uCOS-II\Source/os_task.c **** * Description: This function is called to obtain a copy of the desired task's TCB.
1022:..\..\..\..\..\..\Software\uCOS-II\Source/os_task.c **** *
1023:..\..\..\..\..\..\Software\uCOS-II\Source/os_task.c **** * Arguments  : prio         is the priority of the task to obtain information from.
1024:..\..\..\..\..\..\Software\uCOS-II\Source/os_task.c **** *
1025:..\..\..\..\..\..\Software\uCOS-II\Source/os_task.c **** *              p_task_data  is a pointer to where the desired task's OS_TCB will be stored.
ARM GAS  C:\Users\EDULU~1.DES\AppData\Local\Temp\ccgrKYGn.s 			page 41


1026:..\..\..\..\..\..\Software\uCOS-II\Source/os_task.c **** *
1027:..\..\..\..\..\..\Software\uCOS-II\Source/os_task.c **** * Returns    : OS_ERR_NONE            if the requested task is suspended
1028:..\..\..\..\..\..\Software\uCOS-II\Source/os_task.c **** *              OS_ERR_PRIO_INVALID    if the priority you specify is higher that the maximum allowe
1029:..\..\..\..\..\..\Software\uCOS-II\Source/os_task.c **** *                                     (i.e. > OS_LOWEST_PRIO) or, you have not specified OS_PRIO_SE
1030:..\..\..\..\..\..\Software\uCOS-II\Source/os_task.c **** *              OS_ERR_PRIO            if the desired task has not been created
1031:..\..\..\..\..\..\Software\uCOS-II\Source/os_task.c **** *              OS_ERR_TASK_NOT_EXIST  if the task is assigned to a Mutex PIP
1032:..\..\..\..\..\..\Software\uCOS-II\Source/os_task.c **** *              OS_ERR_PDATA_NULL      if 'p_task_data' is a NULL pointer
1033:..\..\..\..\..\..\Software\uCOS-II\Source/os_task.c **** ***************************************************************************************************
1034:..\..\..\..\..\..\Software\uCOS-II\Source/os_task.c **** */
1035:..\..\..\..\..\..\Software\uCOS-II\Source/os_task.c **** 
1036:..\..\..\..\..\..\Software\uCOS-II\Source/os_task.c **** #if OS_TASK_QUERY_EN > 0u
1037:..\..\..\..\..\..\Software\uCOS-II\Source/os_task.c **** INT8U  OSTaskQuery (INT8U    prio,
1038:..\..\..\..\..\..\Software\uCOS-II\Source/os_task.c ****                     OS_TCB  *p_task_data)
1039:..\..\..\..\..\..\Software\uCOS-II\Source/os_task.c **** {
1040:..\..\..\..\..\..\Software\uCOS-II\Source/os_task.c ****     OS_TCB    *ptcb;
1041:..\..\..\..\..\..\Software\uCOS-II\Source/os_task.c **** #if OS_CRITICAL_METHOD == 3u                     /* Allocate storage for CPU status register       
1042:..\..\..\..\..\..\Software\uCOS-II\Source/os_task.c ****     OS_CPU_SR  cpu_sr = 0u;
1043:..\..\..\..\..\..\Software\uCOS-II\Source/os_task.c **** #endif
1044:..\..\..\..\..\..\Software\uCOS-II\Source/os_task.c **** 
1045:..\..\..\..\..\..\Software\uCOS-II\Source/os_task.c **** 
1046:..\..\..\..\..\..\Software\uCOS-II\Source/os_task.c **** 
1047:..\..\..\..\..\..\Software\uCOS-II\Source/os_task.c **** #if OS_ARG_CHK_EN > 0u
1048:..\..\..\..\..\..\Software\uCOS-II\Source/os_task.c ****     if (prio > OS_LOWEST_PRIO) {                 /* Task priority valid ?                          
1049:..\..\..\..\..\..\Software\uCOS-II\Source/os_task.c ****         if (prio != OS_PRIO_SELF) {
1050:..\..\..\..\..\..\Software\uCOS-II\Source/os_task.c ****             return (OS_ERR_PRIO_INVALID);
1051:..\..\..\..\..\..\Software\uCOS-II\Source/os_task.c ****         }
1052:..\..\..\..\..\..\Software\uCOS-II\Source/os_task.c ****     }
1053:..\..\..\..\..\..\Software\uCOS-II\Source/os_task.c ****     if (p_task_data == (OS_TCB *)0) {            /* Validate 'p_task_data'                         
1054:..\..\..\..\..\..\Software\uCOS-II\Source/os_task.c ****         return (OS_ERR_PDATA_NULL);
1055:..\..\..\..\..\..\Software\uCOS-II\Source/os_task.c ****     }
1056:..\..\..\..\..\..\Software\uCOS-II\Source/os_task.c **** #endif
1057:..\..\..\..\..\..\Software\uCOS-II\Source/os_task.c ****     OS_ENTER_CRITICAL();
1058:..\..\..\..\..\..\Software\uCOS-II\Source/os_task.c ****     if (prio == OS_PRIO_SELF) {                  /* See if suspend SELF                            
1059:..\..\..\..\..\..\Software\uCOS-II\Source/os_task.c ****         prio = OSTCBCur->OSTCBPrio;
1060:..\..\..\..\..\..\Software\uCOS-II\Source/os_task.c ****     }
1061:..\..\..\..\..\..\Software\uCOS-II\Source/os_task.c ****     ptcb = OSTCBPrioTbl[prio];
1062:..\..\..\..\..\..\Software\uCOS-II\Source/os_task.c ****     if (ptcb == (OS_TCB *)0) {                   /* Task to query must exist                       
1063:..\..\..\..\..\..\Software\uCOS-II\Source/os_task.c ****         OS_EXIT_CRITICAL();
1064:..\..\..\..\..\..\Software\uCOS-II\Source/os_task.c ****         return (OS_ERR_PRIO);
1065:..\..\..\..\..\..\Software\uCOS-II\Source/os_task.c ****     }
1066:..\..\..\..\..\..\Software\uCOS-II\Source/os_task.c ****     if (ptcb == OS_TCB_RESERVED) {               /* Task to query must not be assigned to a Mutex  
1067:..\..\..\..\..\..\Software\uCOS-II\Source/os_task.c ****         OS_EXIT_CRITICAL();
1068:..\..\..\..\..\..\Software\uCOS-II\Source/os_task.c ****         return (OS_ERR_TASK_NOT_EXIST);
1069:..\..\..\..\..\..\Software\uCOS-II\Source/os_task.c ****     }
1070:..\..\..\..\..\..\Software\uCOS-II\Source/os_task.c ****                                                  /* Copy TCB into user storage area                
1071:..\..\..\..\..\..\Software\uCOS-II\Source/os_task.c ****     OS_MemCopy((INT8U *)p_task_data, (INT8U *)ptcb, sizeof(OS_TCB));
1072:..\..\..\..\..\..\Software\uCOS-II\Source/os_task.c ****     OS_EXIT_CRITICAL();
1073:..\..\..\..\..\..\Software\uCOS-II\Source/os_task.c ****     return (OS_ERR_NONE);
1074:..\..\..\..\..\..\Software\uCOS-II\Source/os_task.c **** }
1075:..\..\..\..\..\..\Software\uCOS-II\Source/os_task.c **** #endif
1076:..\..\..\..\..\..\Software\uCOS-II\Source/os_task.c **** /*$PAGE*/
1077:..\..\..\..\..\..\Software\uCOS-II\Source/os_task.c **** /*
1078:..\..\..\..\..\..\Software\uCOS-II\Source/os_task.c **** ***************************************************************************************************
1079:..\..\..\..\..\..\Software\uCOS-II\Source/os_task.c **** *                              GET THE CURRENT VALUE OF A TASK REGISTER
1080:..\..\..\..\..\..\Software\uCOS-II\Source/os_task.c **** *
1081:..\..\..\..\..\..\Software\uCOS-II\Source/os_task.c **** * Description: This function is called to obtain the current value of a task register.  Task regist
1082:..\..\..\..\..\..\Software\uCOS-II\Source/os_task.c **** *              are application specific and can be used to store task specific values such as 'erro
ARM GAS  C:\Users\EDULU~1.DES\AppData\Local\Temp\ccgrKYGn.s 			page 42


1083:..\..\..\..\..\..\Software\uCOS-II\Source/os_task.c **** *              numbers' (i.e. errno), statistics, etc.  Each task register can hold a 32-bit value.
1084:..\..\..\..\..\..\Software\uCOS-II\Source/os_task.c **** *
1085:..\..\..\..\..\..\Software\uCOS-II\Source/os_task.c **** * Arguments  : prio      is the priority of the task you want to get the task register from.  If yo
1086:..\..\..\..\..\..\Software\uCOS-II\Source/os_task.c **** *                        specify OS_PRIO_SELF then the task register of the current task will be ob
1087:..\..\..\..\..\..\Software\uCOS-II\Source/os_task.c **** *
1088:..\..\..\..\..\..\Software\uCOS-II\Source/os_task.c **** *              id        is the 'id' of the desired task register.  Note that the 'id' must be less
1089:..\..\..\..\..\..\Software\uCOS-II\Source/os_task.c **** *                        than OS_TASK_REG_TBL_SIZE
1090:..\..\..\..\..\..\Software\uCOS-II\Source/os_task.c **** *
1091:..\..\..\..\..\..\Software\uCOS-II\Source/os_task.c **** *              perr      is a pointer to a variable that will hold an error code related to this ca
1092:..\..\..\..\..\..\Software\uCOS-II\Source/os_task.c **** *
1093:..\..\..\..\..\..\Software\uCOS-II\Source/os_task.c **** *                        OS_ERR_NONE            if the call was successful
1094:..\..\..\..\..\..\Software\uCOS-II\Source/os_task.c **** *                        OS_ERR_PRIO_INVALID    if you specified an invalid priority
1095:..\..\..\..\..\..\Software\uCOS-II\Source/os_task.c **** *                        OS_ERR_ID_INVALID      if the 'id' is not between 0 and OS_TASK_REG_TBL_SI
1096:..\..\..\..\..\..\Software\uCOS-II\Source/os_task.c **** *
1097:..\..\..\..\..\..\Software\uCOS-II\Source/os_task.c **** * Returns    : The current value of the task's register or 0 if an error is detected.
1098:..\..\..\..\..\..\Software\uCOS-II\Source/os_task.c **** *
1099:..\..\..\..\..\..\Software\uCOS-II\Source/os_task.c **** * Note(s)    : The maximum number of task variables is 254
1100:..\..\..\..\..\..\Software\uCOS-II\Source/os_task.c **** ***************************************************************************************************
1101:..\..\..\..\..\..\Software\uCOS-II\Source/os_task.c **** */
1102:..\..\..\..\..\..\Software\uCOS-II\Source/os_task.c **** 
1103:..\..\..\..\..\..\Software\uCOS-II\Source/os_task.c **** #if OS_TASK_REG_TBL_SIZE > 0u
1104:..\..\..\..\..\..\Software\uCOS-II\Source/os_task.c **** INT32U  OSTaskRegGet (INT8U   prio,
1105:..\..\..\..\..\..\Software\uCOS-II\Source/os_task.c ****                       INT8U   id,
1106:..\..\..\..\..\..\Software\uCOS-II\Source/os_task.c ****                       INT8U  *perr)
1107:..\..\..\..\..\..\Software\uCOS-II\Source/os_task.c **** {
 1145              		.loc 1 1107 1 is_stmt 1 view -0
 1146              		.cfi_startproc
 1147              		@ args = 0, pretend = 0, frame = 0
 1148              		@ frame_needed = 0, uses_anonymous_args = 0
 1149              		.loc 1 1107 1 is_stmt 0 view .LVU378
 1150 0000 70B5     		push	{r4, r5, r6, lr}
 1151              		.cfi_def_cfa_offset 16
 1152              		.cfi_offset 4, -16
 1153              		.cfi_offset 5, -12
 1154              		.cfi_offset 6, -8
 1155              		.cfi_offset 14, -4
 1156 0002 0400     		movs	r4, r0
 1157 0004 0D00     		movs	r5, r1
 1158 0006 1600     		movs	r6, r2
1108:..\..\..\..\..\..\Software\uCOS-II\Source/os_task.c **** #if OS_CRITICAL_METHOD == 3u                     /* Allocate storage for CPU status register       
1109:..\..\..\..\..\..\Software\uCOS-II\Source/os_task.c ****     OS_CPU_SR  cpu_sr = 0u;
 1159              		.loc 1 1109 5 is_stmt 1 view .LVU379
 1160              	.LVL131:
1110:..\..\..\..\..\..\Software\uCOS-II\Source/os_task.c **** #endif
1111:..\..\..\..\..\..\Software\uCOS-II\Source/os_task.c ****     INT32U     value;
 1161              		.loc 1 1111 5 view .LVU380
1112:..\..\..\..\..\..\Software\uCOS-II\Source/os_task.c ****     OS_TCB    *ptcb;
 1162              		.loc 1 1112 5 view .LVU381
1113:..\..\..\..\..\..\Software\uCOS-II\Source/os_task.c **** 
1114:..\..\..\..\..\..\Software\uCOS-II\Source/os_task.c **** 
1115:..\..\..\..\..\..\Software\uCOS-II\Source/os_task.c **** 
1116:..\..\..\..\..\..\Software\uCOS-II\Source/os_task.c **** #ifdef OS_SAFETY_CRITICAL
1117:..\..\..\..\..\..\Software\uCOS-II\Source/os_task.c ****     if (perr == (INT8U *)0) {
1118:..\..\..\..\..\..\Software\uCOS-II\Source/os_task.c ****         OS_SAFETY_CRITICAL_EXCEPTION();
1119:..\..\..\..\..\..\Software\uCOS-II\Source/os_task.c ****         return (0u);
1120:..\..\..\..\..\..\Software\uCOS-II\Source/os_task.c ****     }
1121:..\..\..\..\..\..\Software\uCOS-II\Source/os_task.c **** #endif
ARM GAS  C:\Users\EDULU~1.DES\AppData\Local\Temp\ccgrKYGn.s 			page 43


1122:..\..\..\..\..\..\Software\uCOS-II\Source/os_task.c **** 
1123:..\..\..\..\..\..\Software\uCOS-II\Source/os_task.c **** #if OS_ARG_CHK_EN > 0u
1124:..\..\..\..\..\..\Software\uCOS-II\Source/os_task.c ****     if (prio >= OS_LOWEST_PRIO) {
 1163              		.loc 1 1124 5 view .LVU382
 1164              		.loc 1 1124 8 is_stmt 0 view .LVU383
 1165 0008 1E28     		cmp	r0, #30
 1166 000a 05D9     		bls	.L84
1125:..\..\..\..\..\..\Software\uCOS-II\Source/os_task.c ****         if (prio != OS_PRIO_SELF) {
 1167              		.loc 1 1125 9 is_stmt 1 view .LVU384
 1168              		.loc 1 1125 12 is_stmt 0 view .LVU385
 1169 000c FF28     		cmp	r0, #255
 1170 000e 03D0     		beq	.L84
1126:..\..\..\..\..\..\Software\uCOS-II\Source/os_task.c ****             *perr = OS_ERR_PRIO_INVALID;
 1171              		.loc 1 1126 13 is_stmt 1 view .LVU386
 1172              		.loc 1 1126 19 is_stmt 0 view .LVU387
 1173 0010 2A23     		movs	r3, #42
 1174 0012 1370     		strb	r3, [r2]
1127:..\..\..\..\..\..\Software\uCOS-II\Source/os_task.c ****             return (0u);
 1175              		.loc 1 1127 13 is_stmt 1 view .LVU388
 1176              		.loc 1 1127 20 is_stmt 0 view .LVU389
 1177 0014 0024     		movs	r4, #0
 1178 0016 04E0     		b	.L83
 1179              	.L84:
1128:..\..\..\..\..\..\Software\uCOS-II\Source/os_task.c ****         }
1129:..\..\..\..\..\..\Software\uCOS-II\Source/os_task.c ****     }
1130:..\..\..\..\..\..\Software\uCOS-II\Source/os_task.c ****     if (id >= OS_TASK_REG_TBL_SIZE) {
 1180              		.loc 1 1130 5 is_stmt 1 view .LVU390
 1181              		.loc 1 1130 8 is_stmt 0 view .LVU391
 1182 0018 002D     		cmp	r5, #0
 1183 001a 04D0     		beq	.L86
1131:..\..\..\..\..\..\Software\uCOS-II\Source/os_task.c ****         *perr = OS_ERR_ID_INVALID;
 1184              		.loc 1 1131 9 is_stmt 1 view .LVU392
 1185              		.loc 1 1131 15 is_stmt 0 view .LVU393
 1186 001c 0823     		movs	r3, #8
 1187 001e 3370     		strb	r3, [r6]
1132:..\..\..\..\..\..\Software\uCOS-II\Source/os_task.c ****         return (0u);
 1188              		.loc 1 1132 9 is_stmt 1 view .LVU394
 1189              		.loc 1 1132 16 is_stmt 0 view .LVU395
 1190 0020 0024     		movs	r4, #0
 1191              	.LVL132:
 1192              	.L83:
1133:..\..\..\..\..\..\Software\uCOS-II\Source/os_task.c ****     }
1134:..\..\..\..\..\..\Software\uCOS-II\Source/os_task.c **** #endif
1135:..\..\..\..\..\..\Software\uCOS-II\Source/os_task.c ****     OS_ENTER_CRITICAL();
1136:..\..\..\..\..\..\Software\uCOS-II\Source/os_task.c ****     if (prio == OS_PRIO_SELF) {                  /* See if need to get register from current task  
1137:..\..\..\..\..\..\Software\uCOS-II\Source/os_task.c ****         ptcb = OSTCBCur;
1138:..\..\..\..\..\..\Software\uCOS-II\Source/os_task.c ****     } else {
1139:..\..\..\..\..\..\Software\uCOS-II\Source/os_task.c ****         ptcb = OSTCBPrioTbl[prio];
1140:..\..\..\..\..\..\Software\uCOS-II\Source/os_task.c ****     }
1141:..\..\..\..\..\..\Software\uCOS-II\Source/os_task.c ****     value = ptcb->OSTCBRegTbl[id];
1142:..\..\..\..\..\..\Software\uCOS-II\Source/os_task.c ****     OS_EXIT_CRITICAL();
1143:..\..\..\..\..\..\Software\uCOS-II\Source/os_task.c ****     *perr = OS_ERR_NONE;
1144:..\..\..\..\..\..\Software\uCOS-II\Source/os_task.c ****     return (value);
1145:..\..\..\..\..\..\Software\uCOS-II\Source/os_task.c **** }
 1193              		.loc 1 1145 1 view .LVU396
 1194 0022 2000     		movs	r0, r4
 1195              		@ sp needed
ARM GAS  C:\Users\EDULU~1.DES\AppData\Local\Temp\ccgrKYGn.s 			page 44


 1196              	.LVL133:
 1197              		.loc 1 1145 1 view .LVU397
 1198 0024 70BD     		pop	{r4, r5, r6, pc}
 1199              	.LVL134:
 1200              	.L86:
1135:..\..\..\..\..\..\Software\uCOS-II\Source/os_task.c ****     if (prio == OS_PRIO_SELF) {                  /* See if need to get register from current task  
 1201              		.loc 1 1135 5 is_stmt 1 view .LVU398
1135:..\..\..\..\..\..\Software\uCOS-II\Source/os_task.c ****     if (prio == OS_PRIO_SELF) {                  /* See if need to get register from current task  
 1202              		.loc 1 1135 5 view .LVU399
 1203 0026 FFF7FEFF 		bl	OS_CPU_SR_Save
 1204              	.LVL135:
1136:..\..\..\..\..\..\Software\uCOS-II\Source/os_task.c ****         ptcb = OSTCBCur;
 1205              		.loc 1 1136 5 view .LVU400
1136:..\..\..\..\..\..\Software\uCOS-II\Source/os_task.c ****         ptcb = OSTCBCur;
 1206              		.loc 1 1136 8 is_stmt 0 view .LVU401
 1207 002a FF2C     		cmp	r4, #255
 1208 002c 0BD0     		beq	.L89
1139:..\..\..\..\..\..\Software\uCOS-II\Source/os_task.c ****     }
 1209              		.loc 1 1139 9 is_stmt 1 view .LVU402
1139:..\..\..\..\..\..\Software\uCOS-II\Source/os_task.c ****     }
 1210              		.loc 1 1139 14 is_stmt 0 view .LVU403
 1211 002e A400     		lsls	r4, r4, #2
 1212 0030 064B     		ldr	r3, .L90
 1213 0032 E358     		ldr	r3, [r4, r3]
 1214              	.LVL136:
 1215              	.L88:
1141:..\..\..\..\..\..\Software\uCOS-II\Source/os_task.c ****     OS_EXIT_CRITICAL();
 1216              		.loc 1 1141 5 is_stmt 1 view .LVU404
1141:..\..\..\..\..\..\Software\uCOS-II\Source/os_task.c ****     OS_EXIT_CRITICAL();
 1217              		.loc 1 1141 11 is_stmt 0 view .LVU405
 1218 0034 0A35     		adds	r5, r5, #10
 1219 0036 AD00     		lsls	r5, r5, #2
 1220 0038 5D19     		adds	r5, r3, r5
 1221 003a 6C68     		ldr	r4, [r5, #4]
 1222              	.LVL137:
1142:..\..\..\..\..\..\Software\uCOS-II\Source/os_task.c ****     *perr = OS_ERR_NONE;
 1223              		.loc 1 1142 5 is_stmt 1 view .LVU406
1142:..\..\..\..\..\..\Software\uCOS-II\Source/os_task.c ****     *perr = OS_ERR_NONE;
 1224              		.loc 1 1142 5 view .LVU407
 1225 003c FFF7FEFF 		bl	OS_CPU_SR_Restore
 1226              	.LVL138:
1143:..\..\..\..\..\..\Software\uCOS-II\Source/os_task.c ****     return (value);
 1227              		.loc 1 1143 5 view .LVU408
1143:..\..\..\..\..\..\Software\uCOS-II\Source/os_task.c ****     return (value);
 1228              		.loc 1 1143 11 is_stmt 0 view .LVU409
 1229 0040 0023     		movs	r3, #0
 1230 0042 3370     		strb	r3, [r6]
1144:..\..\..\..\..\..\Software\uCOS-II\Source/os_task.c **** }
 1231              		.loc 1 1144 5 is_stmt 1 view .LVU410
1144:..\..\..\..\..\..\Software\uCOS-II\Source/os_task.c **** }
 1232              		.loc 1 1144 12 is_stmt 0 view .LVU411
 1233 0044 EDE7     		b	.L83
 1234              	.LVL139:
 1235              	.L89:
1137:..\..\..\..\..\..\Software\uCOS-II\Source/os_task.c ****     } else {
 1236              		.loc 1 1137 9 is_stmt 1 view .LVU412
1137:..\..\..\..\..\..\Software\uCOS-II\Source/os_task.c ****     } else {
ARM GAS  C:\Users\EDULU~1.DES\AppData\Local\Temp\ccgrKYGn.s 			page 45


 1237              		.loc 1 1137 14 is_stmt 0 view .LVU413
 1238 0046 024B     		ldr	r3, .L90+4
 1239 0048 1B68     		ldr	r3, [r3]
 1240              	.LVL140:
1137:..\..\..\..\..\..\Software\uCOS-II\Source/os_task.c ****     } else {
 1241              		.loc 1 1137 14 view .LVU414
 1242 004a F3E7     		b	.L88
 1243              	.L91:
 1244              		.align	2
 1245              	.L90:
 1246 004c 00000000 		.word	OSTCBPrioTbl
 1247 0050 00000000 		.word	OSTCBCur
 1248              		.cfi_endproc
 1249              	.LFE9:
 1250              		.size	OSTaskRegGet, .-OSTaskRegGet
 1251              		.section	.text.OSTaskRegGetID,"ax",%progbits
 1252              		.align	1
 1253              		.global	OSTaskRegGetID
 1254              		.syntax unified
 1255              		.code	16
 1256              		.thumb_func
 1257              		.fpu softvfp
 1258              		.type	OSTaskRegGetID, %function
 1259              	OSTaskRegGetID:
 1260              	.LVL141:
 1261              	.LFB10:
1146:..\..\..\..\..\..\Software\uCOS-II\Source/os_task.c **** #endif
1147:..\..\..\..\..\..\Software\uCOS-II\Source/os_task.c **** 
1148:..\..\..\..\..\..\Software\uCOS-II\Source/os_task.c **** /*$PAGE*/
1149:..\..\..\..\..\..\Software\uCOS-II\Source/os_task.c **** /*
1150:..\..\..\..\..\..\Software\uCOS-II\Source/os_task.c **** ***************************************************************************************************
1151:..\..\..\..\..\..\Software\uCOS-II\Source/os_task.c **** *                                    ALLOCATE THE NEXT AVAILABLE TASK REGISTER ID
1152:..\..\..\..\..\..\Software\uCOS-II\Source/os_task.c **** *
1153:..\..\..\..\..\..\Software\uCOS-II\Source/os_task.c **** * Description: This function is called to obtain a task register ID.  This function thus allows tas
1154:..\..\..\..\..\..\Software\uCOS-II\Source/os_task.c **** *              allocated dynamically instead of statically.
1155:..\..\..\..\..\..\Software\uCOS-II\Source/os_task.c **** *
1156:..\..\..\..\..\..\Software\uCOS-II\Source/os_task.c **** * Arguments  : p_err       is a pointer to a variable that will hold an error code related to this 
1157:..\..\..\..\..\..\Software\uCOS-II\Source/os_task.c **** *
1158:..\..\..\..\..\..\Software\uCOS-II\Source/os_task.c **** *                            OS_ERR_NONE               if the call was successful
1159:..\..\..\..\..\..\Software\uCOS-II\Source/os_task.c **** *                            OS_ERR_NO_MORE_ID_AVAIL   if you are attempting to assign more task re
1160:..\..\..\..\..\..\Software\uCOS-II\Source/os_task.c **** *                                                           have available through OS_TASK_REG_TBL_
1161:..\..\..\..\..\..\Software\uCOS-II\Source/os_task.c **** *
1162:..\..\..\..\..\..\Software\uCOS-II\Source/os_task.c **** * Returns    : The next available task register 'id' or OS_TASK_REG_TBL_SIZE if an error is detecte
1163:..\..\..\..\..\..\Software\uCOS-II\Source/os_task.c **** ***************************************************************************************************
1164:..\..\..\..\..\..\Software\uCOS-II\Source/os_task.c **** */
1165:..\..\..\..\..\..\Software\uCOS-II\Source/os_task.c **** 
1166:..\..\..\..\..\..\Software\uCOS-II\Source/os_task.c **** #if OS_TASK_REG_TBL_SIZE > 0u
1167:..\..\..\..\..\..\Software\uCOS-II\Source/os_task.c **** INT8U  OSTaskRegGetID (INT8U  *perr)
1168:..\..\..\..\..\..\Software\uCOS-II\Source/os_task.c **** {
 1262              		.loc 1 1168 1 is_stmt 1 view -0
 1263              		.cfi_startproc
 1264              		@ args = 0, pretend = 0, frame = 0
 1265              		@ frame_needed = 0, uses_anonymous_args = 0
 1266              		.loc 1 1168 1 is_stmt 0 view .LVU416
 1267 0000 70B5     		push	{r4, r5, r6, lr}
 1268              		.cfi_def_cfa_offset 16
 1269              		.cfi_offset 4, -16
ARM GAS  C:\Users\EDULU~1.DES\AppData\Local\Temp\ccgrKYGn.s 			page 46


 1270              		.cfi_offset 5, -12
 1271              		.cfi_offset 6, -8
 1272              		.cfi_offset 14, -4
 1273 0002 0500     		movs	r5, r0
1169:..\..\..\..\..\..\Software\uCOS-II\Source/os_task.c **** #if OS_CRITICAL_METHOD == 3u                                    /* Allocate storage for CPU status 
1170:..\..\..\..\..\..\Software\uCOS-II\Source/os_task.c ****     OS_CPU_SR  cpu_sr = 0u;
 1274              		.loc 1 1170 5 is_stmt 1 view .LVU417
 1275              	.LVL142:
1171:..\..\..\..\..\..\Software\uCOS-II\Source/os_task.c **** #endif
1172:..\..\..\..\..\..\Software\uCOS-II\Source/os_task.c ****     INT8U      id;
 1276              		.loc 1 1172 5 view .LVU418
1173:..\..\..\..\..\..\Software\uCOS-II\Source/os_task.c **** 
1174:..\..\..\..\..\..\Software\uCOS-II\Source/os_task.c **** 
1175:..\..\..\..\..\..\Software\uCOS-II\Source/os_task.c **** #ifdef OS_SAFETY_CRITICAL
1176:..\..\..\..\..\..\Software\uCOS-II\Source/os_task.c ****     if (perr == (INT8U *)0) {
1177:..\..\..\..\..\..\Software\uCOS-II\Source/os_task.c ****         OS_SAFETY_CRITICAL_EXCEPTION();
1178:..\..\..\..\..\..\Software\uCOS-II\Source/os_task.c ****         return ((INT8U)OS_TASK_REG_TBL_SIZE);
1179:..\..\..\..\..\..\Software\uCOS-II\Source/os_task.c ****     }
1180:..\..\..\..\..\..\Software\uCOS-II\Source/os_task.c **** #endif
1181:..\..\..\..\..\..\Software\uCOS-II\Source/os_task.c **** 
1182:..\..\..\..\..\..\Software\uCOS-II\Source/os_task.c ****     OS_ENTER_CRITICAL();
 1277              		.loc 1 1182 5 view .LVU419
 1278              		.loc 1 1182 5 view .LVU420
 1279 0004 FFF7FEFF 		bl	OS_CPU_SR_Save
 1280              	.LVL143:
1183:..\..\..\..\..\..\Software\uCOS-II\Source/os_task.c ****     if (OSTaskRegNextAvailID >= OS_TASK_REG_TBL_SIZE) {         /* See if we exceeded the number of
 1281              		.loc 1 1183 5 view .LVU421
 1282              		.loc 1 1183 30 is_stmt 0 view .LVU422
 1283 0008 094B     		ldr	r3, .L96
 1284 000a 1C78     		ldrb	r4, [r3]
 1285              		.loc 1 1183 8 view .LVU423
 1286 000c 002C     		cmp	r4, #0
 1287 000e 08D1     		bne	.L95
1184:..\..\..\..\..\..\Software\uCOS-II\Source/os_task.c ****        *perr = OS_ERR_NO_MORE_ID_AVAIL;                         /* Yes, cannot allocate more task r
1185:..\..\..\..\..\..\Software\uCOS-II\Source/os_task.c ****         OS_EXIT_CRITICAL();
1186:..\..\..\..\..\..\Software\uCOS-II\Source/os_task.c ****         return ((INT8U)OS_TASK_REG_TBL_SIZE);
1187:..\..\..\..\..\..\Software\uCOS-II\Source/os_task.c ****     }
1188:..\..\..\..\..\..\Software\uCOS-II\Source/os_task.c ****      
1189:..\..\..\..\..\..\Software\uCOS-II\Source/os_task.c ****     id   = OSTaskRegNextAvailID;                                /* Assign the next available ID    
 1288              		.loc 1 1189 5 is_stmt 1 view .LVU424
 1289              	.LVL144:
1190:..\..\..\..\..\..\Software\uCOS-II\Source/os_task.c ****     OSTaskRegNextAvailID++;                                     /* Increment available ID for next 
 1290              		.loc 1 1190 5 view .LVU425
 1291              		.loc 1 1190 25 is_stmt 0 view .LVU426
 1292 0010 631C     		adds	r3, r4, #1
 1293 0012 074A     		ldr	r2, .L96
 1294 0014 1370     		strb	r3, [r2]
1191:..\..\..\..\..\..\Software\uCOS-II\Source/os_task.c ****     OS_EXIT_CRITICAL();
 1295              		.loc 1 1191 5 is_stmt 1 view .LVU427
 1296              		.loc 1 1191 5 view .LVU428
 1297 0016 FFF7FEFF 		bl	OS_CPU_SR_Restore
 1298              	.LVL145:
1192:..\..\..\..\..\..\Software\uCOS-II\Source/os_task.c ****    *perr = OS_ERR_NONE;
 1299              		.loc 1 1192 4 view .LVU429
 1300              		.loc 1 1192 10 is_stmt 0 view .LVU430
 1301 001a 0023     		movs	r3, #0
 1302 001c 2B70     		strb	r3, [r5]
ARM GAS  C:\Users\EDULU~1.DES\AppData\Local\Temp\ccgrKYGn.s 			page 47


1193:..\..\..\..\..\..\Software\uCOS-II\Source/os_task.c ****     return (id);
 1303              		.loc 1 1193 5 is_stmt 1 view .LVU431
 1304              	.LVL146:
 1305              	.L94:
1194:..\..\..\..\..\..\Software\uCOS-II\Source/os_task.c **** }
 1306              		.loc 1 1194 1 is_stmt 0 view .LVU432
 1307 001e 2000     		movs	r0, r4
 1308              		@ sp needed
 1309              	.LVL147:
 1310              		.loc 1 1194 1 view .LVU433
 1311 0020 70BD     		pop	{r4, r5, r6, pc}
 1312              	.LVL148:
 1313              	.L95:
1184:..\..\..\..\..\..\Software\uCOS-II\Source/os_task.c ****         OS_EXIT_CRITICAL();
 1314              		.loc 1 1184 8 is_stmt 1 view .LVU434
1184:..\..\..\..\..\..\Software\uCOS-II\Source/os_task.c ****         OS_EXIT_CRITICAL();
 1315              		.loc 1 1184 14 is_stmt 0 view .LVU435
 1316 0022 9623     		movs	r3, #150
 1317 0024 2B70     		strb	r3, [r5]
1185:..\..\..\..\..\..\Software\uCOS-II\Source/os_task.c ****         return ((INT8U)OS_TASK_REG_TBL_SIZE);
 1318              		.loc 1 1185 9 is_stmt 1 view .LVU436
1185:..\..\..\..\..\..\Software\uCOS-II\Source/os_task.c ****         return ((INT8U)OS_TASK_REG_TBL_SIZE);
 1319              		.loc 1 1185 9 view .LVU437
 1320 0026 FFF7FEFF 		bl	OS_CPU_SR_Restore
 1321              	.LVL149:
1186:..\..\..\..\..\..\Software\uCOS-II\Source/os_task.c ****     }
 1322              		.loc 1 1186 9 view .LVU438
1186:..\..\..\..\..\..\Software\uCOS-II\Source/os_task.c ****     }
 1323              		.loc 1 1186 16 is_stmt 0 view .LVU439
 1324 002a 0124     		movs	r4, #1
 1325 002c F7E7     		b	.L94
 1326              	.L97:
 1327 002e C046     		.align	2
 1328              	.L96:
 1329 0030 00000000 		.word	OSTaskRegNextAvailID
 1330              		.cfi_endproc
 1331              	.LFE10:
 1332              		.size	OSTaskRegGetID, .-OSTaskRegGetID
 1333              		.section	.text.OSTaskRegSet,"ax",%progbits
 1334              		.align	1
 1335              		.global	OSTaskRegSet
 1336              		.syntax unified
 1337              		.code	16
 1338              		.thumb_func
 1339              		.fpu softvfp
 1340              		.type	OSTaskRegSet, %function
 1341              	OSTaskRegSet:
 1342              	.LVL150:
 1343              	.LFB11:
1195:..\..\..\..\..\..\Software\uCOS-II\Source/os_task.c **** #endif
1196:..\..\..\..\..\..\Software\uCOS-II\Source/os_task.c **** 
1197:..\..\..\..\..\..\Software\uCOS-II\Source/os_task.c **** /*$PAGE*/
1198:..\..\..\..\..\..\Software\uCOS-II\Source/os_task.c **** /*
1199:..\..\..\..\..\..\Software\uCOS-II\Source/os_task.c **** ***************************************************************************************************
1200:..\..\..\..\..\..\Software\uCOS-II\Source/os_task.c **** *                              SET THE CURRENT VALUE OF A TASK VARIABLE
1201:..\..\..\..\..\..\Software\uCOS-II\Source/os_task.c **** *
1202:..\..\..\..\..\..\Software\uCOS-II\Source/os_task.c **** * Description: This function is called to change the current value of a task register.  Task regist
ARM GAS  C:\Users\EDULU~1.DES\AppData\Local\Temp\ccgrKYGn.s 			page 48


1203:..\..\..\..\..\..\Software\uCOS-II\Source/os_task.c **** *              are application specific and can be used to store task specific values such as 'erro
1204:..\..\..\..\..\..\Software\uCOS-II\Source/os_task.c **** *              numbers' (i.e. errno), statistics, etc.  Each task register can hold a 32-bit value.
1205:..\..\..\..\..\..\Software\uCOS-II\Source/os_task.c **** *
1206:..\..\..\..\..\..\Software\uCOS-II\Source/os_task.c **** * Arguments  : prio      is the priority of the task you want to set the task register for.  If you
1207:..\..\..\..\..\..\Software\uCOS-II\Source/os_task.c **** *                        specify OS_PRIO_SELF then the task register of the current task will be ob
1208:..\..\..\..\..\..\Software\uCOS-II\Source/os_task.c **** *
1209:..\..\..\..\..\..\Software\uCOS-II\Source/os_task.c **** *              id        is the 'id' of the desired task register.  Note that the 'id' must be less
1210:..\..\..\..\..\..\Software\uCOS-II\Source/os_task.c **** *                        than OS_TASK_REG_TBL_SIZE
1211:..\..\..\..\..\..\Software\uCOS-II\Source/os_task.c **** *
1212:..\..\..\..\..\..\Software\uCOS-II\Source/os_task.c **** *              value     is the desired value for the task register.
1213:..\..\..\..\..\..\Software\uCOS-II\Source/os_task.c **** *
1214:..\..\..\..\..\..\Software\uCOS-II\Source/os_task.c **** *              perr      is a pointer to a variable that will hold an error code related to this ca
1215:..\..\..\..\..\..\Software\uCOS-II\Source/os_task.c **** *
1216:..\..\..\..\..\..\Software\uCOS-II\Source/os_task.c **** *                        OS_ERR_NONE            if the call was successful
1217:..\..\..\..\..\..\Software\uCOS-II\Source/os_task.c **** *                        OS_ERR_PRIO_INVALID    if you specified an invalid priority
1218:..\..\..\..\..\..\Software\uCOS-II\Source/os_task.c **** *                        OS_ERR_ID_INVALID      if the 'id' is not between 0 and OS_TASK_REG_TBL_SI
1219:..\..\..\..\..\..\Software\uCOS-II\Source/os_task.c **** *
1220:..\..\..\..\..\..\Software\uCOS-II\Source/os_task.c **** * Returns    : The current value of the task's variable or 0 if an error is detected.
1221:..\..\..\..\..\..\Software\uCOS-II\Source/os_task.c **** *
1222:..\..\..\..\..\..\Software\uCOS-II\Source/os_task.c **** * Note(s)    : The maximum number of task variables is 254
1223:..\..\..\..\..\..\Software\uCOS-II\Source/os_task.c **** ***************************************************************************************************
1224:..\..\..\..\..\..\Software\uCOS-II\Source/os_task.c **** */
1225:..\..\..\..\..\..\Software\uCOS-II\Source/os_task.c **** 
1226:..\..\..\..\..\..\Software\uCOS-II\Source/os_task.c **** #if OS_TASK_REG_TBL_SIZE > 0u
1227:..\..\..\..\..\..\Software\uCOS-II\Source/os_task.c **** void  OSTaskRegSet (INT8U    prio,
1228:..\..\..\..\..\..\Software\uCOS-II\Source/os_task.c ****                     INT8U    id,
1229:..\..\..\..\..\..\Software\uCOS-II\Source/os_task.c ****                     INT32U   value,
1230:..\..\..\..\..\..\Software\uCOS-II\Source/os_task.c ****                     INT8U   *perr)
1231:..\..\..\..\..\..\Software\uCOS-II\Source/os_task.c **** {
 1344              		.loc 1 1231 1 is_stmt 1 view -0
 1345              		.cfi_startproc
 1346              		@ args = 0, pretend = 0, frame = 0
 1347              		@ frame_needed = 0, uses_anonymous_args = 0
 1348              		.loc 1 1231 1 is_stmt 0 view .LVU441
 1349 0000 F8B5     		push	{r3, r4, r5, r6, r7, lr}
 1350              		.cfi_def_cfa_offset 24
 1351              		.cfi_offset 3, -24
 1352              		.cfi_offset 4, -20
 1353              		.cfi_offset 5, -16
 1354              		.cfi_offset 6, -12
 1355              		.cfi_offset 7, -8
 1356              		.cfi_offset 14, -4
 1357 0002 0400     		movs	r4, r0
 1358 0004 0D00     		movs	r5, r1
 1359 0006 1600     		movs	r6, r2
 1360 0008 1F00     		movs	r7, r3
1232:..\..\..\..\..\..\Software\uCOS-II\Source/os_task.c **** #if OS_CRITICAL_METHOD == 3u                     /* Allocate storage for CPU status register       
1233:..\..\..\..\..\..\Software\uCOS-II\Source/os_task.c ****     OS_CPU_SR  cpu_sr = 0u;
 1361              		.loc 1 1233 5 is_stmt 1 view .LVU442
 1362              	.LVL151:
1234:..\..\..\..\..\..\Software\uCOS-II\Source/os_task.c **** #endif
1235:..\..\..\..\..\..\Software\uCOS-II\Source/os_task.c ****     OS_TCB    *ptcb;
 1363              		.loc 1 1235 5 view .LVU443
1236:..\..\..\..\..\..\Software\uCOS-II\Source/os_task.c **** 
1237:..\..\..\..\..\..\Software\uCOS-II\Source/os_task.c **** 
1238:..\..\..\..\..\..\Software\uCOS-II\Source/os_task.c **** #ifdef OS_SAFETY_CRITICAL
1239:..\..\..\..\..\..\Software\uCOS-II\Source/os_task.c ****     if (perr == (INT8U *)0) {
ARM GAS  C:\Users\EDULU~1.DES\AppData\Local\Temp\ccgrKYGn.s 			page 49


1240:..\..\..\..\..\..\Software\uCOS-II\Source/os_task.c ****         OS_SAFETY_CRITICAL_EXCEPTION();
1241:..\..\..\..\..\..\Software\uCOS-II\Source/os_task.c ****         return;
1242:..\..\..\..\..\..\Software\uCOS-II\Source/os_task.c ****     }
1243:..\..\..\..\..\..\Software\uCOS-II\Source/os_task.c **** #endif
1244:..\..\..\..\..\..\Software\uCOS-II\Source/os_task.c **** 
1245:..\..\..\..\..\..\Software\uCOS-II\Source/os_task.c **** #if OS_ARG_CHK_EN > 0u
1246:..\..\..\..\..\..\Software\uCOS-II\Source/os_task.c ****     if (prio >= OS_LOWEST_PRIO) {
 1364              		.loc 1 1246 5 view .LVU444
 1365              		.loc 1 1246 8 is_stmt 0 view .LVU445
 1366 000a 1E28     		cmp	r0, #30
 1367 000c 04D9     		bls	.L99
1247:..\..\..\..\..\..\Software\uCOS-II\Source/os_task.c ****         if (prio != OS_PRIO_SELF) {
 1368              		.loc 1 1247 9 is_stmt 1 view .LVU446
 1369              		.loc 1 1247 12 is_stmt 0 view .LVU447
 1370 000e FF28     		cmp	r0, #255
 1371 0010 02D0     		beq	.L99
1248:..\..\..\..\..\..\Software\uCOS-II\Source/os_task.c ****             *perr = OS_ERR_PRIO_INVALID;
 1372              		.loc 1 1248 13 is_stmt 1 view .LVU448
 1373              		.loc 1 1248 19 is_stmt 0 view .LVU449
 1374 0012 2A23     		movs	r3, #42
 1375              	.LVL152:
 1376              		.loc 1 1248 19 view .LVU450
 1377 0014 3B70     		strb	r3, [r7]
1249:..\..\..\..\..\..\Software\uCOS-II\Source/os_task.c ****             return;
 1378              		.loc 1 1249 13 is_stmt 1 view .LVU451
 1379 0016 03E0     		b	.L98
 1380              	.LVL153:
 1381              	.L99:
1250:..\..\..\..\..\..\Software\uCOS-II\Source/os_task.c ****         }
1251:..\..\..\..\..\..\Software\uCOS-II\Source/os_task.c ****     }
1252:..\..\..\..\..\..\Software\uCOS-II\Source/os_task.c ****     if (id >= OS_TASK_REG_TBL_SIZE) {
 1382              		.loc 1 1252 5 view .LVU452
 1383              		.loc 1 1252 8 is_stmt 0 view .LVU453
 1384 0018 002D     		cmp	r5, #0
 1385 001a 02D0     		beq	.L101
1253:..\..\..\..\..\..\Software\uCOS-II\Source/os_task.c ****         *perr = OS_ERR_ID_INVALID;
 1386              		.loc 1 1253 9 is_stmt 1 view .LVU454
 1387              		.loc 1 1253 15 is_stmt 0 view .LVU455
 1388 001c 0823     		movs	r3, #8
 1389              	.LVL154:
 1390              		.loc 1 1253 15 view .LVU456
 1391 001e 3B70     		strb	r3, [r7]
1254:..\..\..\..\..\..\Software\uCOS-II\Source/os_task.c ****         return;
 1392              		.loc 1 1254 9 is_stmt 1 view .LVU457
 1393              	.LVL155:
 1394              	.L98:
1255:..\..\..\..\..\..\Software\uCOS-II\Source/os_task.c ****     }
1256:..\..\..\..\..\..\Software\uCOS-II\Source/os_task.c **** #endif
1257:..\..\..\..\..\..\Software\uCOS-II\Source/os_task.c ****     OS_ENTER_CRITICAL();
1258:..\..\..\..\..\..\Software\uCOS-II\Source/os_task.c ****     if (prio == OS_PRIO_SELF) {                  /* See if need to get register from current task  
1259:..\..\..\..\..\..\Software\uCOS-II\Source/os_task.c ****         ptcb = OSTCBCur;
1260:..\..\..\..\..\..\Software\uCOS-II\Source/os_task.c ****     } else {
1261:..\..\..\..\..\..\Software\uCOS-II\Source/os_task.c ****         ptcb = OSTCBPrioTbl[prio];
1262:..\..\..\..\..\..\Software\uCOS-II\Source/os_task.c ****     }
1263:..\..\..\..\..\..\Software\uCOS-II\Source/os_task.c ****     ptcb->OSTCBRegTbl[id] = value;
1264:..\..\..\..\..\..\Software\uCOS-II\Source/os_task.c ****     OS_EXIT_CRITICAL();
1265:..\..\..\..\..\..\Software\uCOS-II\Source/os_task.c ****     *perr                 = OS_ERR_NONE;
ARM GAS  C:\Users\EDULU~1.DES\AppData\Local\Temp\ccgrKYGn.s 			page 50


1266:..\..\..\..\..\..\Software\uCOS-II\Source/os_task.c **** }
 1395              		.loc 1 1266 1 is_stmt 0 view .LVU458
 1396              		@ sp needed
 1397              	.LVL156:
 1398              	.LVL157:
 1399              		.loc 1 1266 1 view .LVU459
 1400 0020 F8BD     		pop	{r3, r4, r5, r6, r7, pc}
 1401              	.LVL158:
 1402              	.L101:
1257:..\..\..\..\..\..\Software\uCOS-II\Source/os_task.c ****     if (prio == OS_PRIO_SELF) {                  /* See if need to get register from current task  
 1403              		.loc 1 1257 5 is_stmt 1 view .LVU460
1257:..\..\..\..\..\..\Software\uCOS-II\Source/os_task.c ****     if (prio == OS_PRIO_SELF) {                  /* See if need to get register from current task  
 1404              		.loc 1 1257 5 view .LVU461
 1405 0022 FFF7FEFF 		bl	OS_CPU_SR_Save
 1406              	.LVL159:
1258:..\..\..\..\..\..\Software\uCOS-II\Source/os_task.c ****         ptcb = OSTCBCur;
 1407              		.loc 1 1258 5 view .LVU462
1258:..\..\..\..\..\..\Software\uCOS-II\Source/os_task.c ****         ptcb = OSTCBCur;
 1408              		.loc 1 1258 8 is_stmt 0 view .LVU463
 1409 0026 FF2C     		cmp	r4, #255
 1410 0028 0BD0     		beq	.L104
1261:..\..\..\..\..\..\Software\uCOS-II\Source/os_task.c ****     }
 1411              		.loc 1 1261 9 is_stmt 1 view .LVU464
1261:..\..\..\..\..\..\Software\uCOS-II\Source/os_task.c ****     }
 1412              		.loc 1 1261 14 is_stmt 0 view .LVU465
 1413 002a A400     		lsls	r4, r4, #2
 1414 002c 064B     		ldr	r3, .L105
 1415 002e E358     		ldr	r3, [r4, r3]
 1416              	.LVL160:
 1417              	.L103:
1263:..\..\..\..\..\..\Software\uCOS-II\Source/os_task.c ****     OS_EXIT_CRITICAL();
 1418              		.loc 1 1263 5 is_stmt 1 view .LVU466
1263:..\..\..\..\..\..\Software\uCOS-II\Source/os_task.c ****     OS_EXIT_CRITICAL();
 1419              		.loc 1 1263 27 is_stmt 0 view .LVU467
 1420 0030 0A35     		adds	r5, r5, #10
 1421 0032 AD00     		lsls	r5, r5, #2
 1422 0034 5D19     		adds	r5, r3, r5
 1423 0036 6E60     		str	r6, [r5, #4]
1264:..\..\..\..\..\..\Software\uCOS-II\Source/os_task.c ****     *perr                 = OS_ERR_NONE;
 1424              		.loc 1 1264 5 is_stmt 1 view .LVU468
1264:..\..\..\..\..\..\Software\uCOS-II\Source/os_task.c ****     *perr                 = OS_ERR_NONE;
 1425              		.loc 1 1264 5 view .LVU469
 1426 0038 FFF7FEFF 		bl	OS_CPU_SR_Restore
 1427              	.LVL161:
1265:..\..\..\..\..\..\Software\uCOS-II\Source/os_task.c **** }
 1428              		.loc 1 1265 5 view .LVU470
1265:..\..\..\..\..\..\Software\uCOS-II\Source/os_task.c **** }
 1429              		.loc 1 1265 27 is_stmt 0 view .LVU471
 1430 003c 0023     		movs	r3, #0
 1431 003e 3B70     		strb	r3, [r7]
 1432 0040 EEE7     		b	.L98
 1433              	.LVL162:
 1434              	.L104:
1259:..\..\..\..\..\..\Software\uCOS-II\Source/os_task.c ****     } else {
 1435              		.loc 1 1259 9 is_stmt 1 view .LVU472
1259:..\..\..\..\..\..\Software\uCOS-II\Source/os_task.c ****     } else {
 1436              		.loc 1 1259 14 is_stmt 0 view .LVU473
ARM GAS  C:\Users\EDULU~1.DES\AppData\Local\Temp\ccgrKYGn.s 			page 51


 1437 0042 024B     		ldr	r3, .L105+4
 1438 0044 1B68     		ldr	r3, [r3]
 1439              	.LVL163:
1259:..\..\..\..\..\..\Software\uCOS-II\Source/os_task.c ****     } else {
 1440              		.loc 1 1259 14 view .LVU474
 1441 0046 F3E7     		b	.L103
 1442              	.L106:
 1443              		.align	2
 1444              	.L105:
 1445 0048 00000000 		.word	OSTCBPrioTbl
 1446 004c 00000000 		.word	OSTCBCur
 1447              		.cfi_endproc
 1448              	.LFE11:
 1449              		.size	OSTaskRegSet, .-OSTaskRegSet
 1450              		.section	.text.OS_TaskReturn,"ax",%progbits
 1451              		.align	1
 1452              		.global	OS_TaskReturn
 1453              		.syntax unified
 1454              		.code	16
 1455              		.thumb_func
 1456              		.fpu softvfp
 1457              		.type	OS_TaskReturn, %function
 1458              	OS_TaskReturn:
 1459              	.LFB12:
1267:..\..\..\..\..\..\Software\uCOS-II\Source/os_task.c **** #endif
1268:..\..\..\..\..\..\Software\uCOS-II\Source/os_task.c **** 
1269:..\..\..\..\..\..\Software\uCOS-II\Source/os_task.c **** /*$PAGE*/
1270:..\..\..\..\..\..\Software\uCOS-II\Source/os_task.c **** /*
1271:..\..\..\..\..\..\Software\uCOS-II\Source/os_task.c **** ***************************************************************************************************
1272:..\..\..\..\..\..\Software\uCOS-II\Source/os_task.c **** *                                    CATCH ACCIDENTAL TASK RETURN
1273:..\..\..\..\..\..\Software\uCOS-II\Source/os_task.c **** *
1274:..\..\..\..\..\..\Software\uCOS-II\Source/os_task.c **** * Description: This function is called if a task accidentally returns without deleting itself.  In 
1275:..\..\..\..\..\..\Software\uCOS-II\Source/os_task.c **** *              words, a task should either be an infinite loop or delete itself if it's done.
1276:..\..\..\..\..\..\Software\uCOS-II\Source/os_task.c **** *
1277:..\..\..\..\..\..\Software\uCOS-II\Source/os_task.c **** * Arguments  : none
1278:..\..\..\..\..\..\Software\uCOS-II\Source/os_task.c **** *
1279:..\..\..\..\..\..\Software\uCOS-II\Source/os_task.c **** * Returns    : none
1280:..\..\..\..\..\..\Software\uCOS-II\Source/os_task.c **** *
1281:..\..\..\..\..\..\Software\uCOS-II\Source/os_task.c **** * Note(s)    : This function is INTERNAL to uC/OS-II and your application should not call it.
1282:..\..\..\..\..\..\Software\uCOS-II\Source/os_task.c **** ***************************************************************************************************
1283:..\..\..\..\..\..\Software\uCOS-II\Source/os_task.c **** */
1284:..\..\..\..\..\..\Software\uCOS-II\Source/os_task.c **** 
1285:..\..\..\..\..\..\Software\uCOS-II\Source/os_task.c **** void  OS_TaskReturn (void)
1286:..\..\..\..\..\..\Software\uCOS-II\Source/os_task.c **** {
 1460              		.loc 1 1286 1 is_stmt 1 view -0
 1461              		.cfi_startproc
 1462              		@ Volatile: function does not return.
 1463              		@ args = 0, pretend = 0, frame = 0
 1464              		@ frame_needed = 0, uses_anonymous_args = 0
 1465 0000 10B5     		push	{r4, lr}
 1466              		.cfi_def_cfa_offset 8
 1467              		.cfi_offset 4, -8
 1468              		.cfi_offset 14, -4
1287:..\..\..\..\..\..\Software\uCOS-II\Source/os_task.c ****     OSTaskReturnHook(OSTCBCur);                   /* Call hook to let user decide on what to do    
 1469              		.loc 1 1287 5 view .LVU476
 1470 0002 044B     		ldr	r3, .L109
 1471 0004 1868     		ldr	r0, [r3]
ARM GAS  C:\Users\EDULU~1.DES\AppData\Local\Temp\ccgrKYGn.s 			page 52


 1472 0006 FFF7FEFF 		bl	OSTaskReturnHook
 1473              	.LVL164:
 1474              	.L108:
1288:..\..\..\..\..\..\Software\uCOS-II\Source/os_task.c **** 
1289:..\..\..\..\..\..\Software\uCOS-II\Source/os_task.c **** #if OS_TASK_DEL_EN > 0u
1290:..\..\..\..\..\..\Software\uCOS-II\Source/os_task.c ****     (void)OSTaskDel(OS_PRIO_SELF);                /* Delete task if it accidentally returns!       
1291:..\..\..\..\..\..\Software\uCOS-II\Source/os_task.c **** #else
1292:..\..\..\..\..\..\Software\uCOS-II\Source/os_task.c ****     for (;;) {
 1475              		.loc 1 1292 5 discriminator 1 view .LVU477
1293:..\..\..\..\..\..\Software\uCOS-II\Source/os_task.c ****         OSTimeDly(OS_TICKS_PER_SEC);
 1476              		.loc 1 1293 9 discriminator 1 view .LVU478
 1477 000a FA20     		movs	r0, #250
 1478 000c 8000     		lsls	r0, r0, #2
 1479 000e FFF7FEFF 		bl	OSTimeDly
 1480              	.LVL165:
 1481 0012 FAE7     		b	.L108
 1482              	.L110:
 1483              		.align	2
 1484              	.L109:
 1485 0014 00000000 		.word	OSTCBCur
 1486              		.cfi_endproc
 1487              	.LFE12:
 1488              		.size	OS_TaskReturn, .-OS_TaskReturn
 1489              		.section	.text.OS_TaskStkClr,"ax",%progbits
 1490              		.align	1
 1491              		.global	OS_TaskStkClr
 1492              		.syntax unified
 1493              		.code	16
 1494              		.thumb_func
 1495              		.fpu softvfp
 1496              		.type	OS_TaskStkClr, %function
 1497              	OS_TaskStkClr:
 1498              	.LVL166:
 1499              	.LFB13:
1294:..\..\..\..\..\..\Software\uCOS-II\Source/os_task.c ****     }
1295:..\..\..\..\..\..\Software\uCOS-II\Source/os_task.c **** #endif
1296:..\..\..\..\..\..\Software\uCOS-II\Source/os_task.c **** }
1297:..\..\..\..\..\..\Software\uCOS-II\Source/os_task.c **** 
1298:..\..\..\..\..\..\Software\uCOS-II\Source/os_task.c **** /*$PAGE*/
1299:..\..\..\..\..\..\Software\uCOS-II\Source/os_task.c **** /*
1300:..\..\..\..\..\..\Software\uCOS-II\Source/os_task.c **** ***************************************************************************************************
1301:..\..\..\..\..\..\Software\uCOS-II\Source/os_task.c **** *                                          CLEAR TASK STACK
1302:..\..\..\..\..\..\Software\uCOS-II\Source/os_task.c **** *
1303:..\..\..\..\..\..\Software\uCOS-II\Source/os_task.c **** * Description: This function is used to clear the stack of a task (i.e. write all zeros)
1304:..\..\..\..\..\..\Software\uCOS-II\Source/os_task.c **** *
1305:..\..\..\..\..\..\Software\uCOS-II\Source/os_task.c **** * Arguments  : pbos     is a pointer to the task's bottom of stack.  If the configuration constant
1306:..\..\..\..\..\..\Software\uCOS-II\Source/os_task.c **** *                       OS_STK_GROWTH is set to 1, the stack is assumed to grow downward (i.e. from
1307:..\..\..\..\..\..\Software\uCOS-II\Source/os_task.c **** *                       memory to low memory).  'pbos' will thus point to the lowest (valid) memory
1308:..\..\..\..\..\..\Software\uCOS-II\Source/os_task.c **** *                       location of the stack.  If OS_STK_GROWTH is set to 0, 'pbos' will point to 
1309:..\..\..\..\..\..\Software\uCOS-II\Source/os_task.c **** *                       highest memory location of the stack and the stack will grow with increasin
1310:..\..\..\..\..\..\Software\uCOS-II\Source/os_task.c **** *                       memory locations.  'pbos' MUST point to a valid 'free' data item.
1311:..\..\..\..\..\..\Software\uCOS-II\Source/os_task.c **** *
1312:..\..\..\..\..\..\Software\uCOS-II\Source/os_task.c **** *              size     is the number of 'stack elements' to clear.
1313:..\..\..\..\..\..\Software\uCOS-II\Source/os_task.c **** *
1314:..\..\..\..\..\..\Software\uCOS-II\Source/os_task.c **** *              opt      contains additional information (or options) about the behavior of the task
1315:..\..\..\..\..\..\Software\uCOS-II\Source/os_task.c **** *                       LOWER 8-bits are reserved by uC/OS-II while the upper 8 bits can be applica
1316:..\..\..\..\..\..\Software\uCOS-II\Source/os_task.c **** *                       specific.  See OS_TASK_OPT_??? in uCOS-II.H.
ARM GAS  C:\Users\EDULU~1.DES\AppData\Local\Temp\ccgrKYGn.s 			page 53


1317:..\..\..\..\..\..\Software\uCOS-II\Source/os_task.c **** *
1318:..\..\..\..\..\..\Software\uCOS-II\Source/os_task.c **** * Returns    : none
1319:..\..\..\..\..\..\Software\uCOS-II\Source/os_task.c **** ***************************************************************************************************
1320:..\..\..\..\..\..\Software\uCOS-II\Source/os_task.c **** */
1321:..\..\..\..\..\..\Software\uCOS-II\Source/os_task.c **** #if (OS_TASK_STAT_STK_CHK_EN > 0u) && (OS_TASK_CREATE_EXT_EN > 0u)
1322:..\..\..\..\..\..\Software\uCOS-II\Source/os_task.c **** void  OS_TaskStkClr (OS_STK  *pbos,
1323:..\..\..\..\..\..\Software\uCOS-II\Source/os_task.c ****                      INT32U   size,
1324:..\..\..\..\..\..\Software\uCOS-II\Source/os_task.c ****                      INT16U   opt)
1325:..\..\..\..\..\..\Software\uCOS-II\Source/os_task.c **** {
 1500              		.loc 1 1325 1 view -0
 1501              		.cfi_startproc
 1502              		@ args = 0, pretend = 0, frame = 0
 1503              		@ frame_needed = 0, uses_anonymous_args = 0
 1504              		@ link register save eliminated.
1326:..\..\..\..\..\..\Software\uCOS-II\Source/os_task.c ****     if ((opt & OS_TASK_OPT_STK_CHK) != 0x0000u) {      /* See if stack checking has been enabled   
 1505              		.loc 1 1326 5 view .LVU480
 1506              		.loc 1 1326 8 is_stmt 0 view .LVU481
 1507 0000 D307     		lsls	r3, r2, #31
 1508 0002 01D5     		bpl	.L111
1327:..\..\..\..\..\..\Software\uCOS-II\Source/os_task.c ****         if ((opt & OS_TASK_OPT_STK_CLR) != 0x0000u) {  /* See if stack needs to be cleared         
 1509              		.loc 1 1327 9 is_stmt 1 view .LVU482
 1510              		.loc 1 1327 12 is_stmt 0 view .LVU483
 1511 0004 9307     		lsls	r3, r2, #30
 1512 0006 00D4     		bmi	.L113
 1513              	.LVL167:
 1514              	.L111:
1328:..\..\..\..\..\..\Software\uCOS-II\Source/os_task.c **** #if OS_STK_GROWTH == 1u
1329:..\..\..\..\..\..\Software\uCOS-II\Source/os_task.c ****             while (size > 0u) {                        /* Stack grows from HIGH to LOW memory      
1330:..\..\..\..\..\..\Software\uCOS-II\Source/os_task.c ****                 size--;
1331:..\..\..\..\..\..\Software\uCOS-II\Source/os_task.c ****                 *pbos++ = (OS_STK)0;                   /* Clear from bottom of stack and up!       
1332:..\..\..\..\..\..\Software\uCOS-II\Source/os_task.c ****             }
1333:..\..\..\..\..\..\Software\uCOS-II\Source/os_task.c **** #else
1334:..\..\..\..\..\..\Software\uCOS-II\Source/os_task.c ****             while (size > 0u) {                        /* Stack grows from LOW to HIGH memory      
1335:..\..\..\..\..\..\Software\uCOS-II\Source/os_task.c ****                 size--;
1336:..\..\..\..\..\..\Software\uCOS-II\Source/os_task.c ****                 *pbos-- = (OS_STK)0;                   /* Clear from bottom of stack and down      
1337:..\..\..\..\..\..\Software\uCOS-II\Source/os_task.c ****             }
1338:..\..\..\..\..\..\Software\uCOS-II\Source/os_task.c **** #endif
1339:..\..\..\..\..\..\Software\uCOS-II\Source/os_task.c ****         }
1340:..\..\..\..\..\..\Software\uCOS-II\Source/os_task.c ****     }
1341:..\..\..\..\..\..\Software\uCOS-II\Source/os_task.c **** }
 1515              		.loc 1 1341 1 view .LVU484
 1516              		@ sp needed
 1517 0008 7047     		bx	lr
 1518              	.L113:
1329:..\..\..\..\..\..\Software\uCOS-II\Source/os_task.c ****                 size--;
 1519              		.loc 1 1329 19 view .LVU485
 1520 000a 0029     		cmp	r1, #0
 1521 000c FCD0     		beq	.L111
1330:..\..\..\..\..\..\Software\uCOS-II\Source/os_task.c ****                 *pbos++ = (OS_STK)0;                   /* Clear from bottom of stack and up!       
 1522              		.loc 1 1330 17 is_stmt 1 view .LVU486
1330:..\..\..\..\..\..\Software\uCOS-II\Source/os_task.c ****                 *pbos++ = (OS_STK)0;                   /* Clear from bottom of stack and up!       
 1523              		.loc 1 1330 21 is_stmt 0 view .LVU487
 1524 000e 0139     		subs	r1, r1, #1
 1525              	.LVL168:
1331:..\..\..\..\..\..\Software\uCOS-II\Source/os_task.c ****             }
 1526              		.loc 1 1331 17 is_stmt 1 view .LVU488
1331:..\..\..\..\..\..\Software\uCOS-II\Source/os_task.c ****             }
ARM GAS  C:\Users\EDULU~1.DES\AppData\Local\Temp\ccgrKYGn.s 			page 54


 1527              		.loc 1 1331 25 is_stmt 0 view .LVU489
 1528 0010 0023     		movs	r3, #0
 1529 0012 08C0     		stmia	r0!, {r3}
 1530              	.LVL169:
1331:..\..\..\..\..\..\Software\uCOS-II\Source/os_task.c ****             }
 1531              		.loc 1 1331 25 view .LVU490
 1532 0014 F9E7     		b	.L113
 1533              		.cfi_endproc
 1534              	.LFE13:
 1535              		.size	OS_TaskStkClr, .-OS_TaskStkClr
 1536              		.section	.text.OSTaskCreateExt,"ax",%progbits
 1537              		.align	1
 1538              		.global	OSTaskCreateExt
 1539              		.syntax unified
 1540              		.code	16
 1541              		.thumb_func
 1542              		.fpu softvfp
 1543              		.type	OSTaskCreateExt, %function
 1544              	OSTaskCreateExt:
 1545              	.LVL170:
 1546              	.LFB5:
 345:..\..\..\..\..\..\Software\uCOS-II\Source/os_task.c ****     OS_STK     *psp;
 1547              		.loc 1 345 1 is_stmt 1 view -0
 1548              		.cfi_startproc
 1549              		@ args = 20, pretend = 0, frame = 8
 1550              		@ frame_needed = 0, uses_anonymous_args = 0
 345:..\..\..\..\..\..\Software\uCOS-II\Source/os_task.c ****     OS_STK     *psp;
 1551              		.loc 1 345 1 is_stmt 0 view .LVU492
 1552 0000 F0B5     		push	{r4, r5, r6, r7, lr}
 1553              		.cfi_def_cfa_offset 20
 1554              		.cfi_offset 4, -20
 1555              		.cfi_offset 5, -16
 1556              		.cfi_offset 6, -12
 1557              		.cfi_offset 7, -8
 1558              		.cfi_offset 14, -4
 1559 0002 87B0     		sub	sp, sp, #28
 1560              		.cfi_def_cfa_offset 48
 1561 0004 0490     		str	r0, [sp, #16]
 1562 0006 0591     		str	r1, [sp, #20]
 1563 0008 1700     		movs	r7, r2
 1564 000a 1C00     		movs	r4, r3
 1565 000c 0CAB     		add	r3, sp, #48
 1566              	.LVL171:
 345:..\..\..\..\..\..\Software\uCOS-II\Source/os_task.c ****     OS_STK     *psp;
 1567              		.loc 1 345 1 view .LVU493
 1568 000e 1D88     		ldrh	r5, [r3]
 1569 0010 10AB     		add	r3, sp, #64
 1570              	.LVL172:
 345:..\..\..\..\..\..\Software\uCOS-II\Source/os_task.c ****     OS_STK     *psp;
 1571              		.loc 1 345 1 view .LVU494
 1572 0012 1E88     		ldrh	r6, [r3]
 346:..\..\..\..\..\..\Software\uCOS-II\Source/os_task.c ****     INT8U       err;
 1573              		.loc 1 346 5 is_stmt 1 view .LVU495
 347:..\..\..\..\..\..\Software\uCOS-II\Source/os_task.c **** #if OS_CRITICAL_METHOD == 3u                 /* Allocate storage for CPU status register           
 1574              		.loc 1 347 5 view .LVU496
 349:..\..\..\..\..\..\Software\uCOS-II\Source/os_task.c **** #endif
 1575              		.loc 1 349 5 view .LVU497
ARM GAS  C:\Users\EDULU~1.DES\AppData\Local\Temp\ccgrKYGn.s 			page 55


 1576              	.LVL173:
 362:..\..\..\..\..\..\Software\uCOS-II\Source/os_task.c ****         return (OS_ERR_PRIO_INVALID);
 1577              		.loc 1 362 5 view .LVU498
 362:..\..\..\..\..\..\Software\uCOS-II\Source/os_task.c ****         return (OS_ERR_PRIO_INVALID);
 1578              		.loc 1 362 8 is_stmt 0 view .LVU499
 1579 0014 1F2C     		cmp	r4, #31
 1580 0016 41D8     		bhi	.L121
 366:..\..\..\..\..\..\Software\uCOS-II\Source/os_task.c ****     if (OSIntNesting > 0u) {                 /* Make sure we don't create the task from within an I
 1581              		.loc 1 366 5 is_stmt 1 view .LVU500
 366:..\..\..\..\..\..\Software\uCOS-II\Source/os_task.c ****     if (OSIntNesting > 0u) {                 /* Make sure we don't create the task from within an I
 1582              		.loc 1 366 5 view .LVU501
 1583 0018 FFF7FEFF 		bl	OS_CPU_SR_Save
 1584              	.LVL174:
 367:..\..\..\..\..\..\Software\uCOS-II\Source/os_task.c ****         OS_EXIT_CRITICAL();
 1585              		.loc 1 367 5 view .LVU502
 367:..\..\..\..\..\..\Software\uCOS-II\Source/os_task.c ****         OS_EXIT_CRITICAL();
 1586              		.loc 1 367 22 is_stmt 0 view .LVU503
 1587 001c 204B     		ldr	r3, .L124
 1588 001e 1B78     		ldrb	r3, [r3]
 367:..\..\..\..\..\..\Software\uCOS-II\Source/os_task.c ****         OS_EXIT_CRITICAL();
 1589              		.loc 1 367 8 view .LVU504
 1590 0020 002B     		cmp	r3, #0
 1591 0022 0AD1     		bne	.L122
 371:..\..\..\..\..\..\Software\uCOS-II\Source/os_task.c ****         OSTCBPrioTbl[prio] = OS_TCB_RESERVED;/* Reserve the priority to prevent others from doing .
 1592              		.loc 1 371 5 is_stmt 1 view .LVU505
 371:..\..\..\..\..\..\Software\uCOS-II\Source/os_task.c ****         OSTCBPrioTbl[prio] = OS_TCB_RESERVED;/* Reserve the priority to prevent others from doing .
 1593              		.loc 1 371 21 is_stmt 0 view .LVU506
 1594 0024 A300     		lsls	r3, r4, #2
 1595 0026 1F4A     		ldr	r2, .L124+4
 1596 0028 9B58     		ldr	r3, [r3, r2]
 371:..\..\..\..\..\..\Software\uCOS-II\Source/os_task.c ****         OSTCBPrioTbl[prio] = OS_TCB_RESERVED;/* Reserve the priority to prevent others from doing .
 1597              		.loc 1 371 8 view .LVU507
 1598 002a 002B     		cmp	r3, #0
 1599 002c 09D0     		beq	.L123
 393:..\..\..\..\..\..\Software\uCOS-II\Source/os_task.c ****     return (OS_ERR_PRIO_EXIST);
 1600              		.loc 1 393 5 is_stmt 1 view .LVU508
 393:..\..\..\..\..\..\Software\uCOS-II\Source/os_task.c ****     return (OS_ERR_PRIO_EXIST);
 1601              		.loc 1 393 5 view .LVU509
 1602 002e FFF7FEFF 		bl	OS_CPU_SR_Restore
 1603              	.LVL175:
 394:..\..\..\..\..\..\Software\uCOS-II\Source/os_task.c **** }
 1604              		.loc 1 394 5 view .LVU510
 394:..\..\..\..\..\..\Software\uCOS-II\Source/os_task.c **** }
 1605              		.loc 1 394 12 is_stmt 0 view .LVU511
 1606 0032 2825     		movs	r5, #40
 1607              	.L116:
 395:..\..\..\..\..\..\Software\uCOS-II\Source/os_task.c **** #endif
 1608              		.loc 1 395 1 view .LVU512
 1609 0034 2800     		movs	r0, r5
 1610 0036 07B0     		add	sp, sp, #28
 1611              		@ sp needed
 1612              	.LVL176:
 395:..\..\..\..\..\..\Software\uCOS-II\Source/os_task.c **** #endif
 1613              		.loc 1 395 1 view .LVU513
 1614 0038 F0BD     		pop	{r4, r5, r6, r7, pc}
 1615              	.LVL177:
 1616              	.L122:
ARM GAS  C:\Users\EDULU~1.DES\AppData\Local\Temp\ccgrKYGn.s 			page 56


 368:..\..\..\..\..\..\Software\uCOS-II\Source/os_task.c ****         return (OS_ERR_TASK_CREATE_ISR);
 1617              		.loc 1 368 9 is_stmt 1 view .LVU514
 368:..\..\..\..\..\..\Software\uCOS-II\Source/os_task.c ****         return (OS_ERR_TASK_CREATE_ISR);
 1618              		.loc 1 368 9 view .LVU515
 1619 003a FFF7FEFF 		bl	OS_CPU_SR_Restore
 1620              	.LVL178:
 369:..\..\..\..\..\..\Software\uCOS-II\Source/os_task.c ****     }
 1621              		.loc 1 369 9 view .LVU516
 369:..\..\..\..\..\..\Software\uCOS-II\Source/os_task.c ****     }
 1622              		.loc 1 369 16 is_stmt 0 view .LVU517
 1623 003e 3C25     		movs	r5, #60
 1624 0040 F8E7     		b	.L116
 1625              	.LVL179:
 1626              	.L123:
 372:..\..\..\..\..\..\Software\uCOS-II\Source/os_task.c ****                                              /* ... the same thing until task is created.          
 1627              		.loc 1 372 9 is_stmt 1 view .LVU518
 372:..\..\..\..\..\..\Software\uCOS-II\Source/os_task.c ****                                              /* ... the same thing until task is created.          
 1628              		.loc 1 372 28 is_stmt 0 view .LVU519
 1629 0042 A300     		lsls	r3, r4, #2
 1630 0044 0121     		movs	r1, #1
 1631 0046 9950     		str	r1, [r3, r2]
 374:..\..\..\..\..\..\Software\uCOS-II\Source/os_task.c **** 
 1632              		.loc 1 374 9 is_stmt 1 view .LVU520
 374:..\..\..\..\..\..\Software\uCOS-II\Source/os_task.c **** 
 1633              		.loc 1 374 9 view .LVU521
 1634 0048 FFF7FEFF 		bl	OS_CPU_SR_Restore
 1635              	.LVL180:
 377:..\..\..\..\..\..\Software\uCOS-II\Source/os_task.c **** #endif
 1636              		.loc 1 377 9 view .LVU522
 1637 004c 3200     		movs	r2, r6
 1638 004e 0E99     		ldr	r1, [sp, #56]
 1639 0050 0D98     		ldr	r0, [sp, #52]
 1640 0052 FFF7FEFF 		bl	OS_TaskStkClr
 1641              	.LVL181:
 380:..\..\..\..\..\..\Software\uCOS-II\Source/os_task.c ****         err = OS_TCBInit(prio, psp, pbos, id, stk_size, pext, opt);
 1642              		.loc 1 380 9 view .LVU523
 380:..\..\..\..\..\..\Software\uCOS-II\Source/os_task.c ****         err = OS_TCBInit(prio, psp, pbos, id, stk_size, pext, opt);
 1643              		.loc 1 380 15 is_stmt 0 view .LVU524
 1644 0056 3300     		movs	r3, r6
 1645 0058 3A00     		movs	r2, r7
 1646 005a 0599     		ldr	r1, [sp, #20]
 1647 005c 0498     		ldr	r0, [sp, #16]
 1648 005e FFF7FEFF 		bl	OSTaskStkInit
 1649              	.LVL182:
 1650 0062 0100     		movs	r1, r0
 1651              	.LVL183:
 381:..\..\..\..\..\..\Software\uCOS-II\Source/os_task.c ****         if (err == OS_ERR_NONE) {
 1652              		.loc 1 381 9 is_stmt 1 view .LVU525
 381:..\..\..\..\..\..\Software\uCOS-II\Source/os_task.c ****         if (err == OS_ERR_NONE) {
 1653              		.loc 1 381 15 is_stmt 0 view .LVU526
 1654 0064 0296     		str	r6, [sp, #8]
 1655 0066 0F9B     		ldr	r3, [sp, #60]
 1656 0068 0193     		str	r3, [sp, #4]
 1657 006a 0E9B     		ldr	r3, [sp, #56]
 1658 006c 0093     		str	r3, [sp]
 1659 006e 2B00     		movs	r3, r5
 1660 0070 0D9A     		ldr	r2, [sp, #52]
ARM GAS  C:\Users\EDULU~1.DES\AppData\Local\Temp\ccgrKYGn.s 			page 57


 1661 0072 2000     		movs	r0, r4
 1662              	.LVL184:
 381:..\..\..\..\..\..\Software\uCOS-II\Source/os_task.c ****         if (err == OS_ERR_NONE) {
 1663              		.loc 1 381 15 view .LVU527
 1664 0074 FFF7FEFF 		bl	OS_TCBInit
 1665              	.LVL185:
 381:..\..\..\..\..\..\Software\uCOS-II\Source/os_task.c ****         if (err == OS_ERR_NONE) {
 1666              		.loc 1 381 15 view .LVU528
 1667 0078 051E     		subs	r5, r0, #0
 1668              	.LVL186:
 382:..\..\..\..\..\..\Software\uCOS-II\Source/os_task.c ****             if (OSRunning == OS_TRUE) {                        /* Find HPT if multitasking has star
 1669              		.loc 1 382 9 is_stmt 1 view .LVU529
 382:..\..\..\..\..\..\Software\uCOS-II\Source/os_task.c ****             if (OSRunning == OS_TRUE) {                        /* Find HPT if multitasking has star
 1670              		.loc 1 382 12 is_stmt 0 view .LVU530
 1671 007a 06D1     		bne	.L119
 383:..\..\..\..\..\..\Software\uCOS-II\Source/os_task.c ****                 OS_Sched();
 1672              		.loc 1 383 13 is_stmt 1 view .LVU531
 383:..\..\..\..\..\..\Software\uCOS-II\Source/os_task.c ****                 OS_Sched();
 1673              		.loc 1 383 27 is_stmt 0 view .LVU532
 1674 007c 0A4B     		ldr	r3, .L124+8
 1675 007e 1B78     		ldrb	r3, [r3]
 383:..\..\..\..\..\..\Software\uCOS-II\Source/os_task.c ****                 OS_Sched();
 1676              		.loc 1 383 16 view .LVU533
 1677 0080 012B     		cmp	r3, #1
 1678 0082 D7D1     		bne	.L116
 384:..\..\..\..\..\..\Software\uCOS-II\Source/os_task.c ****             }
 1679              		.loc 1 384 17 is_stmt 1 view .LVU534
 1680 0084 FFF7FEFF 		bl	OS_Sched
 1681              	.LVL187:
 384:..\..\..\..\..\..\Software\uCOS-II\Source/os_task.c ****             }
 1682              		.loc 1 384 17 is_stmt 0 view .LVU535
 1683 0088 D4E7     		b	.L116
 1684              	.LVL188:
 1685              	.L119:
 387:..\..\..\..\..\..\Software\uCOS-II\Source/os_task.c ****             OSTCBPrioTbl[prio] = (OS_TCB *)0;                  /* Make this priority avail. to othe
 1686              		.loc 1 387 13 is_stmt 1 view .LVU536
 387:..\..\..\..\..\..\Software\uCOS-II\Source/os_task.c ****             OSTCBPrioTbl[prio] = (OS_TCB *)0;                  /* Make this priority avail. to othe
 1687              		.loc 1 387 13 view .LVU537
 1688 008a FFF7FEFF 		bl	OS_CPU_SR_Save
 1689              	.LVL189:
 388:..\..\..\..\..\..\Software\uCOS-II\Source/os_task.c ****             OS_EXIT_CRITICAL();
 1690              		.loc 1 388 13 view .LVU538
 388:..\..\..\..\..\..\Software\uCOS-II\Source/os_task.c ****             OS_EXIT_CRITICAL();
 1691              		.loc 1 388 32 is_stmt 0 view .LVU539
 1692 008e A400     		lsls	r4, r4, #2
 1693 0090 044B     		ldr	r3, .L124+4
 1694 0092 0022     		movs	r2, #0
 1695 0094 E250     		str	r2, [r4, r3]
 389:..\..\..\..\..\..\Software\uCOS-II\Source/os_task.c ****         }
 1696              		.loc 1 389 13 is_stmt 1 view .LVU540
 389:..\..\..\..\..\..\Software\uCOS-II\Source/os_task.c ****         }
 1697              		.loc 1 389 13 view .LVU541
 1698 0096 FFF7FEFF 		bl	OS_CPU_SR_Restore
 1699              	.LVL190:
 391:..\..\..\..\..\..\Software\uCOS-II\Source/os_task.c ****     }
 1700              		.loc 1 391 9 view .LVU542
 391:..\..\..\..\..\..\Software\uCOS-II\Source/os_task.c ****     }
ARM GAS  C:\Users\EDULU~1.DES\AppData\Local\Temp\ccgrKYGn.s 			page 58


 1701              		.loc 1 391 16 is_stmt 0 view .LVU543
 1702 009a CBE7     		b	.L116
 1703              	.LVL191:
 1704              	.L121:
 363:..\..\..\..\..\..\Software\uCOS-II\Source/os_task.c ****     }
 1705              		.loc 1 363 16 view .LVU544
 1706 009c 2A25     		movs	r5, #42
 1707 009e C9E7     		b	.L116
 1708              	.L125:
 1709              		.align	2
 1710              	.L124:
 1711 00a0 00000000 		.word	OSIntNesting
 1712 00a4 00000000 		.word	OSTCBPrioTbl
 1713 00a8 00000000 		.word	OSRunning
 1714              		.cfi_endproc
 1715              	.LFE5:
 1716              		.size	OSTaskCreateExt, .-OSTaskCreateExt
 1717              		.text
 1718              	.Letext0:
 1719              		.file 2 "c:\\program files (x86)\\gnu tools arm embedded\\8 2018-q4-major\\arm-none-eabi\\include\
 1720              		.file 3 "c:\\program files (x86)\\gnu tools arm embedded\\8 2018-q4-major\\arm-none-eabi\\include\
 1721              		.file 4 "c:\\program files (x86)\\gnu tools arm embedded\\8 2018-q4-major\\lib\\gcc\\arm-none-eabi
 1722              		.file 5 "c:\\program files (x86)\\gnu tools arm embedded\\8 2018-q4-major\\arm-none-eabi\\include\
 1723              		.file 6 "..\\..\\..\\..\\..\\..\\Software\\uCOS-II\\Ports\\ARM-Cortex-M0\\Generic\\GNU/os_cpu.h"
 1724              		.file 7 "..\\..\\..\\..\\..\\..\\Software\\uCOS-II\\Source/ucos_ii.h"