ARM GAS  C:\Users\EDULU~1.DES\AppData\Local\Temp\ccojSC1E.s 			page 1


   1              		.cpu cortex-m0
   2              		.eabi_attribute 20, 1
   3              		.eabi_attribute 21, 1
   4              		.eabi_attribute 23, 3
   5              		.eabi_attribute 24, 1
   6              		.eabi_attribute 25, 1
   7              		.eabi_attribute 26, 1
   8              		.eabi_attribute 30, 1
   9              		.eabi_attribute 34, 0
  10              		.eabi_attribute 18, 4
  11              		.file	"os_time.c"
  12              		.text
  13              	.Ltext0:
  14              		.cfi_sections	.debug_frame
  15              		.section	.text.OSTimeDly,"ax",%progbits
  16              		.align	1
  17              		.global	OSTimeDly
  18              		.arch armv6s-m
  19              		.syntax unified
  20              		.code	16
  21              		.thumb_func
  22              		.fpu softvfp
  23              		.type	OSTimeDly, %function
  24              	OSTimeDly:
  25              	.LVL0:
  26              	.LFB3:
  27              		.file 1 "..\\..\\..\\..\\..\\..\\Software\\uCOS-II\\Source\\os_time.c"
   1:..\..\..\..\..\..\Software\uCOS-II\Source/os_time.c **** /*
   2:..\..\..\..\..\..\Software\uCOS-II\Source/os_time.c **** ***************************************************************************************************
   3:..\..\..\..\..\..\Software\uCOS-II\Source/os_time.c **** *                                                uC/OS-II
   4:..\..\..\..\..\..\Software\uCOS-II\Source/os_time.c **** *                                          The Real-Time Kernel
   5:..\..\..\..\..\..\Software\uCOS-II\Source/os_time.c **** *                                             TIME MANAGEMENT
   6:..\..\..\..\..\..\Software\uCOS-II\Source/os_time.c **** *
   7:..\..\..\..\..\..\Software\uCOS-II\Source/os_time.c **** *                              (c) Copyright 1992-2013, Micrium, Weston, FL
   8:..\..\..\..\..\..\Software\uCOS-II\Source/os_time.c **** *                                           All Rights Reserved
   9:..\..\..\..\..\..\Software\uCOS-II\Source/os_time.c **** *
  10:..\..\..\..\..\..\Software\uCOS-II\Source/os_time.c **** * File    : OS_TIME.C
  11:..\..\..\..\..\..\Software\uCOS-II\Source/os_time.c **** * By      : Jean J. Labrosse
  12:..\..\..\..\..\..\Software\uCOS-II\Source/os_time.c **** * Version : V2.92.11
  13:..\..\..\..\..\..\Software\uCOS-II\Source/os_time.c **** *
  14:..\..\..\..\..\..\Software\uCOS-II\Source/os_time.c **** * LICENSING TERMS:
  15:..\..\..\..\..\..\Software\uCOS-II\Source/os_time.c **** * ---------------
  16:..\..\..\..\..\..\Software\uCOS-II\Source/os_time.c **** *   uC/OS-II is provided in source form for FREE evaluation, for educational use or for peaceful re
  17:..\..\..\..\..\..\Software\uCOS-II\Source/os_time.c **** * If you plan on using  uC/OS-II  in a commercial product you need to contact Micrium to properly l
  18:..\..\..\..\..\..\Software\uCOS-II\Source/os_time.c **** * its use in your product. We provide ALL the source code for your convenience and to help you expe
  19:..\..\..\..\..\..\Software\uCOS-II\Source/os_time.c **** * uC/OS-II.   The fact that the  source is provided does  NOT  mean that you can use it without  pa
  20:..\..\..\..\..\..\Software\uCOS-II\Source/os_time.c **** * licensing fee.
  21:..\..\..\..\..\..\Software\uCOS-II\Source/os_time.c **** ***************************************************************************************************
  22:..\..\..\..\..\..\Software\uCOS-II\Source/os_time.c **** */
  23:..\..\..\..\..\..\Software\uCOS-II\Source/os_time.c **** 
  24:..\..\..\..\..\..\Software\uCOS-II\Source/os_time.c **** #define  MICRIUM_SOURCE
  25:..\..\..\..\..\..\Software\uCOS-II\Source/os_time.c **** 
  26:..\..\..\..\..\..\Software\uCOS-II\Source/os_time.c **** #ifndef  OS_MASTER_FILE
  27:..\..\..\..\..\..\Software\uCOS-II\Source/os_time.c **** #include <ucos_ii.h>
  28:..\..\..\..\..\..\Software\uCOS-II\Source/os_time.c **** #endif
  29:..\..\..\..\..\..\Software\uCOS-II\Source/os_time.c **** 
  30:..\..\..\..\..\..\Software\uCOS-II\Source/os_time.c **** /*
ARM GAS  C:\Users\EDULU~1.DES\AppData\Local\Temp\ccojSC1E.s 			page 2


  31:..\..\..\..\..\..\Software\uCOS-II\Source/os_time.c **** ***************************************************************************************************
  32:..\..\..\..\..\..\Software\uCOS-II\Source/os_time.c **** *                                        DELAY TASK 'n' TICKS
  33:..\..\..\..\..\..\Software\uCOS-II\Source/os_time.c **** *
  34:..\..\..\..\..\..\Software\uCOS-II\Source/os_time.c **** * Description: This function is called to delay execution of the currently running task until the
  35:..\..\..\..\..\..\Software\uCOS-II\Source/os_time.c **** *              specified number of system ticks expires.  This, of course, directly equates to dela
  36:..\..\..\..\..\..\Software\uCOS-II\Source/os_time.c **** *              the current task for some time to expire.  No delay will result If the specified del
  37:..\..\..\..\..\..\Software\uCOS-II\Source/os_time.c **** *              0.  If the specified delay is greater than 0 then, a context switch will result.
  38:..\..\..\..\..\..\Software\uCOS-II\Source/os_time.c **** *
  39:..\..\..\..\..\..\Software\uCOS-II\Source/os_time.c **** * Arguments  : ticks     is the time delay that the task will be suspended in number of clock 'tick
  40:..\..\..\..\..\..\Software\uCOS-II\Source/os_time.c **** *                        Note that by specifying 0, the task will not be delayed.
  41:..\..\..\..\..\..\Software\uCOS-II\Source/os_time.c **** *
  42:..\..\..\..\..\..\Software\uCOS-II\Source/os_time.c **** * Returns    : none
  43:..\..\..\..\..\..\Software\uCOS-II\Source/os_time.c **** ***************************************************************************************************
  44:..\..\..\..\..\..\Software\uCOS-II\Source/os_time.c **** */
  45:..\..\..\..\..\..\Software\uCOS-II\Source/os_time.c **** 
  46:..\..\..\..\..\..\Software\uCOS-II\Source/os_time.c **** void  OSTimeDly (INT32U ticks)
  47:..\..\..\..\..\..\Software\uCOS-II\Source/os_time.c **** {
  28              		.loc 1 47 1 view -0
  29              		.cfi_startproc
  30              		@ args = 0, pretend = 0, frame = 0
  31              		@ frame_needed = 0, uses_anonymous_args = 0
  32              		.loc 1 47 1 is_stmt 0 view .LVU1
  33 0000 70B5     		push	{r4, r5, r6, lr}
  34              		.cfi_def_cfa_offset 16
  35              		.cfi_offset 4, -16
  36              		.cfi_offset 5, -12
  37              		.cfi_offset 6, -8
  38              		.cfi_offset 14, -4
  39 0002 0400     		movs	r4, r0
  48:..\..\..\..\..\..\Software\uCOS-II\Source/os_time.c ****     INT8U      y;
  40              		.loc 1 48 5 is_stmt 1 view .LVU2
  49:..\..\..\..\..\..\Software\uCOS-II\Source/os_time.c **** #if OS_CRITICAL_METHOD == 3u                     /* Allocate storage for CPU status register       
  50:..\..\..\..\..\..\Software\uCOS-II\Source/os_time.c ****     OS_CPU_SR  cpu_sr = 0u;
  41              		.loc 1 50 5 view .LVU3
  42              	.LVL1:
  51:..\..\..\..\..\..\Software\uCOS-II\Source/os_time.c **** #endif
  52:..\..\..\..\..\..\Software\uCOS-II\Source/os_time.c **** 
  53:..\..\..\..\..\..\Software\uCOS-II\Source/os_time.c **** 
  54:..\..\..\..\..\..\Software\uCOS-II\Source/os_time.c **** 
  55:..\..\..\..\..\..\Software\uCOS-II\Source/os_time.c ****     if (OSIntNesting > 0u) {                     /* See if trying to call from an ISR              
  43              		.loc 1 55 5 view .LVU4
  44              		.loc 1 55 22 is_stmt 0 view .LVU5
  45 0004 114B     		ldr	r3, .L5
  46 0006 1B78     		ldrb	r3, [r3]
  47              		.loc 1 55 8 view .LVU6
  48 0008 002B     		cmp	r3, #0
  49 000a 05D1     		bne	.L1
  56:..\..\..\..\..\..\Software\uCOS-II\Source/os_time.c ****         return;
  57:..\..\..\..\..\..\Software\uCOS-II\Source/os_time.c ****     }
  58:..\..\..\..\..\..\Software\uCOS-II\Source/os_time.c ****     if (OSLockNesting > 0u) {                    /* See if called with scheduler locked            
  50              		.loc 1 58 5 is_stmt 1 view .LVU7
  51              		.loc 1 58 23 is_stmt 0 view .LVU8
  52 000c 104B     		ldr	r3, .L5+4
  53 000e 1B78     		ldrb	r3, [r3]
  54              		.loc 1 58 8 view .LVU9
  55 0010 002B     		cmp	r3, #0
  56 0012 01D1     		bne	.L1
ARM GAS  C:\Users\EDULU~1.DES\AppData\Local\Temp\ccojSC1E.s 			page 3


  59:..\..\..\..\..\..\Software\uCOS-II\Source/os_time.c ****         return;
  60:..\..\..\..\..\..\Software\uCOS-II\Source/os_time.c ****     }
  61:..\..\..\..\..\..\Software\uCOS-II\Source/os_time.c ****     if (ticks > 0u) {                            /* 0 means no delay!                              
  57              		.loc 1 61 5 is_stmt 1 view .LVU10
  58              		.loc 1 61 8 is_stmt 0 view .LVU11
  59 0014 0028     		cmp	r0, #0
  60 0016 00D1     		bne	.L4
  61              	.LVL2:
  62              	.L1:
  62:..\..\..\..\..\..\Software\uCOS-II\Source/os_time.c ****         OS_ENTER_CRITICAL();
  63:..\..\..\..\..\..\Software\uCOS-II\Source/os_time.c ****         y            =  OSTCBCur->OSTCBY;        /* Delay current task                             
  64:..\..\..\..\..\..\Software\uCOS-II\Source/os_time.c ****         OSRdyTbl[y] &= (OS_PRIO)~OSTCBCur->OSTCBBitX;
  65:..\..\..\..\..\..\Software\uCOS-II\Source/os_time.c ****         if (OSRdyTbl[y] == 0u) {
  66:..\..\..\..\..\..\Software\uCOS-II\Source/os_time.c ****             OSRdyGrp &= (OS_PRIO)~OSTCBCur->OSTCBBitY;
  67:..\..\..\..\..\..\Software\uCOS-II\Source/os_time.c ****         }
  68:..\..\..\..\..\..\Software\uCOS-II\Source/os_time.c ****         OSTCBCur->OSTCBDly = ticks;              /* Load ticks in TCB                              
  69:..\..\..\..\..\..\Software\uCOS-II\Source/os_time.c ****         OS_EXIT_CRITICAL();
  70:..\..\..\..\..\..\Software\uCOS-II\Source/os_time.c ****         OS_Sched();                              /* Find next task to run!                         
  71:..\..\..\..\..\..\Software\uCOS-II\Source/os_time.c ****     }
  72:..\..\..\..\..\..\Software\uCOS-II\Source/os_time.c **** }
  63              		.loc 1 72 1 view .LVU12
  64              		@ sp needed
  65              	.LVL3:
  66              		.loc 1 72 1 view .LVU13
  67 0018 70BD     		pop	{r4, r5, r6, pc}
  68              	.LVL4:
  69              	.L4:
  62:..\..\..\..\..\..\Software\uCOS-II\Source/os_time.c ****         OS_ENTER_CRITICAL();
  70              		.loc 1 62 9 is_stmt 1 view .LVU14
  62:..\..\..\..\..\..\Software\uCOS-II\Source/os_time.c ****         OS_ENTER_CRITICAL();
  71              		.loc 1 62 9 view .LVU15
  72 001a FFF7FEFF 		bl	OS_CPU_SR_Save
  73              	.LVL5:
  63:..\..\..\..\..\..\Software\uCOS-II\Source/os_time.c ****         OSRdyTbl[y] &= (OS_PRIO)~OSTCBCur->OSTCBBitX;
  74              		.loc 1 63 9 view .LVU16
  63:..\..\..\..\..\..\Software\uCOS-II\Source/os_time.c ****         OSRdyTbl[y] &= (OS_PRIO)~OSTCBCur->OSTCBBitX;
  75              		.loc 1 63 33 is_stmt 0 view .LVU17
  76 001e 0D4B     		ldr	r3, .L5+8
  77 0020 1A68     		ldr	r2, [r3]
  63:..\..\..\..\..\..\Software\uCOS-II\Source/os_time.c ****         OSRdyTbl[y] &= (OS_PRIO)~OSTCBCur->OSTCBBitX;
  78              		.loc 1 63 22 view .LVU18
  79 0022 2823     		movs	r3, #40
  80 0024 D15C     		ldrb	r1, [r2, r3]
  81              	.LVL6:
  64:..\..\..\..\..\..\Software\uCOS-II\Source/os_time.c ****         if (OSRdyTbl[y] == 0u) {
  82              		.loc 1 64 9 is_stmt 1 view .LVU19
  64:..\..\..\..\..\..\Software\uCOS-II\Source/os_time.c ****         if (OSRdyTbl[y] == 0u) {
  83              		.loc 1 64 42 is_stmt 0 view .LVU20
  84 0026 0133     		adds	r3, r3, #1
  85 0028 D65C     		ldrb	r6, [r2, r3]
  64:..\..\..\..\..\..\Software\uCOS-II\Source/os_time.c ****         if (OSRdyTbl[y] == 0u) {
  86              		.loc 1 64 21 view .LVU21
  87 002a 0B4D     		ldr	r5, .L5+12
  88 002c 6B5C     		ldrb	r3, [r5, r1]
  89 002e B343     		bics	r3, r6
  90 0030 6B54     		strb	r3, [r5, r1]
  65:..\..\..\..\..\..\Software\uCOS-II\Source/os_time.c ****             OSRdyGrp &= (OS_PRIO)~OSTCBCur->OSTCBBitY;
ARM GAS  C:\Users\EDULU~1.DES\AppData\Local\Temp\ccojSC1E.s 			page 4


  91              		.loc 1 65 9 is_stmt 1 view .LVU22
  65:..\..\..\..\..\..\Software\uCOS-II\Source/os_time.c ****             OSRdyGrp &= (OS_PRIO)~OSTCBCur->OSTCBBitY;
  92              		.loc 1 65 12 is_stmt 0 view .LVU23
  93 0032 05D1     		bne	.L3
  66:..\..\..\..\..\..\Software\uCOS-II\Source/os_time.c ****         }
  94              		.loc 1 66 13 is_stmt 1 view .LVU24
  66:..\..\..\..\..\..\Software\uCOS-II\Source/os_time.c ****         }
  95              		.loc 1 66 43 is_stmt 0 view .LVU25
  96 0034 2A33     		adds	r3, r3, #42
  97 0036 D55C     		ldrb	r5, [r2, r3]
  66:..\..\..\..\..\..\Software\uCOS-II\Source/os_time.c ****         }
  98              		.loc 1 66 22 view .LVU26
  99 0038 0849     		ldr	r1, .L5+16
 100              	.LVL7:
  66:..\..\..\..\..\..\Software\uCOS-II\Source/os_time.c ****         }
 101              		.loc 1 66 22 view .LVU27
 102 003a 0B78     		ldrb	r3, [r1]
 103 003c AB43     		bics	r3, r5
 104 003e 0B70     		strb	r3, [r1]
 105              	.L3:
  68:..\..\..\..\..\..\Software\uCOS-II\Source/os_time.c ****         OS_EXIT_CRITICAL();
 106              		.loc 1 68 9 is_stmt 1 view .LVU28
  68:..\..\..\..\..\..\Software\uCOS-II\Source/os_time.c ****         OS_EXIT_CRITICAL();
 107              		.loc 1 68 28 is_stmt 0 view .LVU29
 108 0040 1462     		str	r4, [r2, #32]
  69:..\..\..\..\..\..\Software\uCOS-II\Source/os_time.c ****         OS_Sched();                              /* Find next task to run!                         
 109              		.loc 1 69 9 is_stmt 1 view .LVU30
  69:..\..\..\..\..\..\Software\uCOS-II\Source/os_time.c ****         OS_Sched();                              /* Find next task to run!                         
 110              		.loc 1 69 9 view .LVU31
 111 0042 FFF7FEFF 		bl	OS_CPU_SR_Restore
 112              	.LVL8:
  70:..\..\..\..\..\..\Software\uCOS-II\Source/os_time.c ****     }
 113              		.loc 1 70 9 view .LVU32
 114 0046 FFF7FEFF 		bl	OS_Sched
 115              	.LVL9:
 116 004a E5E7     		b	.L1
 117              	.L6:
 118              		.align	2
 119              	.L5:
 120 004c 00000000 		.word	OSIntNesting
 121 0050 00000000 		.word	OSLockNesting
 122 0054 00000000 		.word	OSTCBCur
 123 0058 00000000 		.word	OSRdyTbl
 124 005c 00000000 		.word	OSRdyGrp
 125              		.cfi_endproc
 126              	.LFE3:
 127              		.size	OSTimeDly, .-OSTimeDly
 128              		.global	__aeabi_uidiv
 129              		.section	.text.OSTimeDlyHMSM,"ax",%progbits
 130              		.align	1
 131              		.global	OSTimeDlyHMSM
 132              		.syntax unified
 133              		.code	16
 134              		.thumb_func
 135              		.fpu softvfp
 136              		.type	OSTimeDlyHMSM, %function
 137              	OSTimeDlyHMSM:
ARM GAS  C:\Users\EDULU~1.DES\AppData\Local\Temp\ccojSC1E.s 			page 5


 138              	.LVL10:
 139              	.LFB4:
  73:..\..\..\..\..\..\Software\uCOS-II\Source/os_time.c **** /*$PAGE*/
  74:..\..\..\..\..\..\Software\uCOS-II\Source/os_time.c **** /*
  75:..\..\..\..\..\..\Software\uCOS-II\Source/os_time.c **** ***************************************************************************************************
  76:..\..\..\..\..\..\Software\uCOS-II\Source/os_time.c **** *                                    DELAY TASK FOR SPECIFIED TIME
  77:..\..\..\..\..\..\Software\uCOS-II\Source/os_time.c **** *
  78:..\..\..\..\..\..\Software\uCOS-II\Source/os_time.c **** * Description: This function is called to delay execution of the currently running task until some 
  79:..\..\..\..\..\..\Software\uCOS-II\Source/os_time.c **** *              expires.  This call allows you to specify the delay time in HOURS, MINUTES, SECONDS 
  80:..\..\..\..\..\..\Software\uCOS-II\Source/os_time.c **** *              MILLISECONDS instead of ticks.
  81:..\..\..\..\..\..\Software\uCOS-II\Source/os_time.c **** *
  82:..\..\..\..\..\..\Software\uCOS-II\Source/os_time.c **** * Arguments  : hours     specifies the number of hours that the task will be delayed (max. is 255)
  83:..\..\..\..\..\..\Software\uCOS-II\Source/os_time.c **** *              minutes   specifies the number of minutes (max. 59)
  84:..\..\..\..\..\..\Software\uCOS-II\Source/os_time.c **** *              seconds   specifies the number of seconds (max. 59)
  85:..\..\..\..\..\..\Software\uCOS-II\Source/os_time.c **** *              ms        specifies the number of milliseconds (max. 999)
  86:..\..\..\..\..\..\Software\uCOS-II\Source/os_time.c **** *
  87:..\..\..\..\..\..\Software\uCOS-II\Source/os_time.c **** * Returns    : OS_ERR_NONE
  88:..\..\..\..\..\..\Software\uCOS-II\Source/os_time.c **** *              OS_ERR_TIME_INVALID_MINUTES
  89:..\..\..\..\..\..\Software\uCOS-II\Source/os_time.c **** *              OS_ERR_TIME_INVALID_SECONDS
  90:..\..\..\..\..\..\Software\uCOS-II\Source/os_time.c **** *              OS_ERR_TIME_INVALID_MS
  91:..\..\..\..\..\..\Software\uCOS-II\Source/os_time.c **** *              OS_ERR_TIME_ZERO_DLY
  92:..\..\..\..\..\..\Software\uCOS-II\Source/os_time.c **** *              OS_ERR_TIME_DLY_ISR
  93:..\..\..\..\..\..\Software\uCOS-II\Source/os_time.c **** *
  94:..\..\..\..\..\..\Software\uCOS-II\Source/os_time.c **** * Note(s)    : The resolution on the milliseconds depends on the tick rate.  For example, you can't
  95:..\..\..\..\..\..\Software\uCOS-II\Source/os_time.c **** *              a 10 mS delay if the ticker interrupts every 100 mS.  In this case, the delay would 
  96:..\..\..\..\..\..\Software\uCOS-II\Source/os_time.c **** *              set to 0.  The actual delay is rounded to the nearest tick.
  97:..\..\..\..\..\..\Software\uCOS-II\Source/os_time.c **** ***************************************************************************************************
  98:..\..\..\..\..\..\Software\uCOS-II\Source/os_time.c **** */
  99:..\..\..\..\..\..\Software\uCOS-II\Source/os_time.c **** 
 100:..\..\..\..\..\..\Software\uCOS-II\Source/os_time.c **** #if OS_TIME_DLY_HMSM_EN > 0u
 101:..\..\..\..\..\..\Software\uCOS-II\Source/os_time.c **** INT8U  OSTimeDlyHMSM (INT8U   hours,
 102:..\..\..\..\..\..\Software\uCOS-II\Source/os_time.c ****                       INT8U   minutes,
 103:..\..\..\..\..\..\Software\uCOS-II\Source/os_time.c ****                       INT8U   seconds,
 104:..\..\..\..\..\..\Software\uCOS-II\Source/os_time.c ****                       INT16U  ms)
 105:..\..\..\..\..\..\Software\uCOS-II\Source/os_time.c **** {
 140              		.loc 1 105 1 view -0
 141              		.cfi_startproc
 142              		@ args = 0, pretend = 0, frame = 0
 143              		@ frame_needed = 0, uses_anonymous_args = 0
 144              		.loc 1 105 1 is_stmt 0 view .LVU34
 145 0000 70B5     		push	{r4, r5, r6, lr}
 146              		.cfi_def_cfa_offset 16
 147              		.cfi_offset 4, -16
 148              		.cfi_offset 5, -12
 149              		.cfi_offset 6, -8
 150              		.cfi_offset 14, -4
 106:..\..\..\..\..\..\Software\uCOS-II\Source/os_time.c ****     INT32U ticks;
 151              		.loc 1 106 5 is_stmt 1 view .LVU35
 107:..\..\..\..\..\..\Software\uCOS-II\Source/os_time.c **** 
 108:..\..\..\..\..\..\Software\uCOS-II\Source/os_time.c **** 
 109:..\..\..\..\..\..\Software\uCOS-II\Source/os_time.c ****     if (OSIntNesting > 0u) {                     /* See if trying to call from an ISR              
 152              		.loc 1 109 5 view .LVU36
 153              		.loc 1 109 22 is_stmt 0 view .LVU37
 154 0002 204C     		ldr	r4, .L16
 155 0004 2478     		ldrb	r4, [r4]
 156              		.loc 1 109 8 view .LVU38
 157 0006 002C     		cmp	r4, #0
ARM GAS  C:\Users\EDULU~1.DES\AppData\Local\Temp\ccojSC1E.s 			page 6


 158 0008 2FD1     		bne	.L10
 110:..\..\..\..\..\..\Software\uCOS-II\Source/os_time.c ****         return (OS_ERR_TIME_DLY_ISR);
 111:..\..\..\..\..\..\Software\uCOS-II\Source/os_time.c ****     }
 112:..\..\..\..\..\..\Software\uCOS-II\Source/os_time.c ****     if (OSLockNesting > 0u) {                    /* See if called with scheduler locked            
 159              		.loc 1 112 5 is_stmt 1 view .LVU39
 160              		.loc 1 112 23 is_stmt 0 view .LVU40
 161 000a 1F4C     		ldr	r4, .L16+4
 162 000c 2478     		ldrb	r4, [r4]
 163              		.loc 1 112 8 view .LVU41
 164 000e 002C     		cmp	r4, #0
 165 0010 2DD1     		bne	.L11
 113:..\..\..\..\..\..\Software\uCOS-II\Source/os_time.c ****         return (OS_ERR_SCHED_LOCKED);
 114:..\..\..\..\..\..\Software\uCOS-II\Source/os_time.c ****     }
 115:..\..\..\..\..\..\Software\uCOS-II\Source/os_time.c **** #if OS_ARG_CHK_EN > 0u
 116:..\..\..\..\..\..\Software\uCOS-II\Source/os_time.c ****     if (hours == 0u) {
 166              		.loc 1 116 5 is_stmt 1 view .LVU42
 167              		.loc 1 116 8 is_stmt 0 view .LVU43
 168 0012 0028     		cmp	r0, #0
 169 0014 05D1     		bne	.L9
 117:..\..\..\..\..\..\Software\uCOS-II\Source/os_time.c ****         if (minutes == 0u) {
 170              		.loc 1 117 9 is_stmt 1 view .LVU44
 171              		.loc 1 117 12 is_stmt 0 view .LVU45
 172 0016 0029     		cmp	r1, #0
 173 0018 03D1     		bne	.L9
 118:..\..\..\..\..\..\Software\uCOS-II\Source/os_time.c ****             if (seconds == 0u) {
 174              		.loc 1 118 13 is_stmt 1 view .LVU46
 175              		.loc 1 118 16 is_stmt 0 view .LVU47
 176 001a 002A     		cmp	r2, #0
 177 001c 01D1     		bne	.L9
 119:..\..\..\..\..\..\Software\uCOS-II\Source/os_time.c ****                 if (ms == 0u) {
 178              		.loc 1 119 17 is_stmt 1 view .LVU48
 179              		.loc 1 119 20 is_stmt 0 view .LVU49
 180 001e 002B     		cmp	r3, #0
 181 0020 27D0     		beq	.L12
 182              	.L9:
 120:..\..\..\..\..\..\Software\uCOS-II\Source/os_time.c ****                     return (OS_ERR_TIME_ZERO_DLY);
 121:..\..\..\..\..\..\Software\uCOS-II\Source/os_time.c ****                 }
 122:..\..\..\..\..\..\Software\uCOS-II\Source/os_time.c ****             }
 123:..\..\..\..\..\..\Software\uCOS-II\Source/os_time.c ****         }
 124:..\..\..\..\..\..\Software\uCOS-II\Source/os_time.c ****     }
 125:..\..\..\..\..\..\Software\uCOS-II\Source/os_time.c ****     if (minutes > 59u) {
 183              		.loc 1 125 5 is_stmt 1 view .LVU50
 184              		.loc 1 125 8 is_stmt 0 view .LVU51
 185 0022 3B29     		cmp	r1, #59
 186 0024 27D8     		bhi	.L13
 126:..\..\..\..\..\..\Software\uCOS-II\Source/os_time.c ****         return (OS_ERR_TIME_INVALID_MINUTES);    /* Validate arguments to be within range          
 127:..\..\..\..\..\..\Software\uCOS-II\Source/os_time.c ****     }
 128:..\..\..\..\..\..\Software\uCOS-II\Source/os_time.c ****     if (seconds > 59u) {
 187              		.loc 1 128 5 is_stmt 1 view .LVU52
 188              		.loc 1 128 8 is_stmt 0 view .LVU53
 189 0026 3B2A     		cmp	r2, #59
 190 0028 27D8     		bhi	.L14
 129:..\..\..\..\..\..\Software\uCOS-II\Source/os_time.c ****         return (OS_ERR_TIME_INVALID_SECONDS);
 130:..\..\..\..\..\..\Software\uCOS-II\Source/os_time.c ****     }
 131:..\..\..\..\..\..\Software\uCOS-II\Source/os_time.c ****     if (ms > 999u) {
 191              		.loc 1 131 5 is_stmt 1 view .LVU54
 192              		.loc 1 131 8 is_stmt 0 view .LVU55
ARM GAS  C:\Users\EDULU~1.DES\AppData\Local\Temp\ccojSC1E.s 			page 7


 193 002a 184D     		ldr	r5, .L16+8
 194 002c AB42     		cmp	r3, r5
 195 002e 26D8     		bhi	.L15
 132:..\..\..\..\..\..\Software\uCOS-II\Source/os_time.c ****         return (OS_ERR_TIME_INVALID_MS);
 133:..\..\..\..\..\..\Software\uCOS-II\Source/os_time.c ****     }
 134:..\..\..\..\..\..\Software\uCOS-II\Source/os_time.c **** #endif
 135:..\..\..\..\..\..\Software\uCOS-II\Source/os_time.c ****                                                  /* Compute the total number of clock ticks require
 136:..\..\..\..\..\..\Software\uCOS-II\Source/os_time.c ****                                                  /* .. (rounded to the nearest tick)               
 137:..\..\..\..\..\..\Software\uCOS-II\Source/os_time.c ****     ticks = ((INT32U)hours * 3600uL + (INT32U)minutes * 60uL + (INT32U)seconds) * OS_TICKS_PER_SEC
 196              		.loc 1 137 5 is_stmt 1 view .LVU56
 197              		.loc 1 137 28 is_stmt 0 view .LVU57
 198 0030 0501     		lsls	r5, r0, #4
 199 0032 2D1A     		subs	r5, r5, r0
 200 0034 2801     		lsls	r0, r5, #4
 201              	.LVL11:
 202              		.loc 1 137 28 view .LVU58
 203 0036 401B     		subs	r0, r0, r5
 204 0038 0501     		lsls	r5, r0, #4
 205              		.loc 1 137 55 view .LVU59
 206 003a 0801     		lsls	r0, r1, #4
 207 003c 411A     		subs	r1, r0, r1
 208              	.LVL12:
 209              		.loc 1 137 55 view .LVU60
 210 003e 8800     		lsls	r0, r1, #2
 211              		.loc 1 137 37 view .LVU61
 212 0040 2818     		adds	r0, r5, r0
 213              		.loc 1 137 62 view .LVU62
 214 0042 8018     		adds	r0, r0, r2
 215              		.loc 1 137 81 view .LVU63
 216 0044 4201     		lsls	r2, r0, #5
 217              	.LVL13:
 218              		.loc 1 137 81 view .LVU64
 219 0046 121A     		subs	r2, r2, r0
 220 0048 9200     		lsls	r2, r2, #2
 221 004a 1218     		adds	r2, r2, r0
 222 004c D500     		lsls	r5, r2, #3
 138:..\..\..\..\..\..\Software\uCOS-II\Source/os_time.c ****           + OS_TICKS_PER_SEC * ((INT32U)ms + 500uL / OS_TICKS_PER_SEC) / 1000uL;
 223              		.loc 1 138 30 view .LVU65
 224 004e 5A01     		lsls	r2, r3, #5
 225 0050 D21A     		subs	r2, r2, r3
 226 0052 9200     		lsls	r2, r2, #2
 227 0054 D318     		adds	r3, r2, r3
 228              	.LVL14:
 229              		.loc 1 138 30 view .LVU66
 230 0056 D800     		lsls	r0, r3, #3
 231              		.loc 1 138 72 view .LVU67
 232 0058 FA21     		movs	r1, #250
 233 005a 8900     		lsls	r1, r1, #2
 234 005c FFF7FEFF 		bl	__aeabi_uidiv
 235              	.LVL15:
 137:..\..\..\..\..\..\Software\uCOS-II\Source/os_time.c ****           + OS_TICKS_PER_SEC * ((INT32U)ms + 500uL / OS_TICKS_PER_SEC) / 1000uL;
 236              		.loc 1 137 11 view .LVU68
 237 0060 2818     		adds	r0, r5, r0
 238              	.LVL16:
 139:..\..\..\..\..\..\Software\uCOS-II\Source/os_time.c ****     OSTimeDly(ticks);
 239              		.loc 1 139 5 is_stmt 1 view .LVU69
 240 0062 FFF7FEFF 		bl	OSTimeDly
ARM GAS  C:\Users\EDULU~1.DES\AppData\Local\Temp\ccojSC1E.s 			page 8


 241              	.LVL17:
 140:..\..\..\..\..\..\Software\uCOS-II\Source/os_time.c ****     return (OS_ERR_NONE);
 242              		.loc 1 140 5 view .LVU70
 243              	.L8:
 141:..\..\..\..\..\..\Software\uCOS-II\Source/os_time.c **** }
 244              		.loc 1 141 1 is_stmt 0 view .LVU71
 245 0066 2000     		movs	r0, r4
 246              		@ sp needed
 247 0068 70BD     		pop	{r4, r5, r6, pc}
 248              	.LVL18:
 249              	.L10:
 110:..\..\..\..\..\..\Software\uCOS-II\Source/os_time.c ****     }
 250              		.loc 1 110 16 view .LVU72
 251 006a 5524     		movs	r4, #85
 252 006c FBE7     		b	.L8
 253              	.L11:
 113:..\..\..\..\..\..\Software\uCOS-II\Source/os_time.c ****     }
 254              		.loc 1 113 16 view .LVU73
 255 006e 3224     		movs	r4, #50
 256 0070 F9E7     		b	.L8
 257              	.L12:
 120:..\..\..\..\..\..\Software\uCOS-II\Source/os_time.c ****                 }
 258              		.loc 1 120 28 view .LVU74
 259 0072 5424     		movs	r4, #84
 260 0074 F7E7     		b	.L8
 261              	.L13:
 126:..\..\..\..\..\..\Software\uCOS-II\Source/os_time.c ****     }
 262              		.loc 1 126 16 view .LVU75
 263 0076 5124     		movs	r4, #81
 264 0078 F5E7     		b	.L8
 265              	.L14:
 129:..\..\..\..\..\..\Software\uCOS-II\Source/os_time.c ****     }
 266              		.loc 1 129 16 view .LVU76
 267 007a 5224     		movs	r4, #82
 268 007c F3E7     		b	.L8
 269              	.L15:
 132:..\..\..\..\..\..\Software\uCOS-II\Source/os_time.c ****     }
 270              		.loc 1 132 16 view .LVU77
 271 007e 5324     		movs	r4, #83
 272 0080 F1E7     		b	.L8
 273              	.L17:
 274 0082 C046     		.align	2
 275              	.L16:
 276 0084 00000000 		.word	OSIntNesting
 277 0088 00000000 		.word	OSLockNesting
 278 008c E7030000 		.word	999
 279              		.cfi_endproc
 280              	.LFE4:
 281              		.size	OSTimeDlyHMSM, .-OSTimeDlyHMSM
 282              		.section	.text.OSTimeDlyResume,"ax",%progbits
 283              		.align	1
 284              		.global	OSTimeDlyResume
 285              		.syntax unified
 286              		.code	16
 287              		.thumb_func
 288              		.fpu softvfp
 289              		.type	OSTimeDlyResume, %function
ARM GAS  C:\Users\EDULU~1.DES\AppData\Local\Temp\ccojSC1E.s 			page 9


 290              	OSTimeDlyResume:
 291              	.LVL19:
 292              	.LFB5:
 142:..\..\..\..\..\..\Software\uCOS-II\Source/os_time.c **** #endif
 143:..\..\..\..\..\..\Software\uCOS-II\Source/os_time.c **** /*$PAGE*/
 144:..\..\..\..\..\..\Software\uCOS-II\Source/os_time.c **** /*
 145:..\..\..\..\..\..\Software\uCOS-II\Source/os_time.c **** ***************************************************************************************************
 146:..\..\..\..\..\..\Software\uCOS-II\Source/os_time.c **** *                                        RESUME A DELAYED TASK
 147:..\..\..\..\..\..\Software\uCOS-II\Source/os_time.c **** *
 148:..\..\..\..\..\..\Software\uCOS-II\Source/os_time.c **** * Description: This function is used resume a task that has been delayed through a call to either
 149:..\..\..\..\..\..\Software\uCOS-II\Source/os_time.c **** *              OSTimeDly() or OSTimeDlyHMSM().  Note that you can call this function to resume a
 150:..\..\..\..\..\..\Software\uCOS-II\Source/os_time.c **** *              task that is waiting for an event with timeout.  This would make the task look
 151:..\..\..\..\..\..\Software\uCOS-II\Source/os_time.c **** *              like a timeout occurred.
 152:..\..\..\..\..\..\Software\uCOS-II\Source/os_time.c **** *
 153:..\..\..\..\..\..\Software\uCOS-II\Source/os_time.c **** * Arguments  : prio                      specifies the priority of the task to resume
 154:..\..\..\..\..\..\Software\uCOS-II\Source/os_time.c **** *
 155:..\..\..\..\..\..\Software\uCOS-II\Source/os_time.c **** * Returns    : OS_ERR_NONE               Task has been resumed
 156:..\..\..\..\..\..\Software\uCOS-II\Source/os_time.c **** *              OS_ERR_PRIO_INVALID       if the priority you specify is higher that the maximum all
 157:..\..\..\..\..\..\Software\uCOS-II\Source/os_time.c **** *                                        (i.e. >= OS_LOWEST_PRIO)
 158:..\..\..\..\..\..\Software\uCOS-II\Source/os_time.c **** *              OS_ERR_TIME_NOT_DLY       Task is not waiting for time to expire
 159:..\..\..\..\..\..\Software\uCOS-II\Source/os_time.c **** *              OS_ERR_TASK_NOT_EXIST     The desired task has not been created or has been assigned
 160:..\..\..\..\..\..\Software\uCOS-II\Source/os_time.c **** ***************************************************************************************************
 161:..\..\..\..\..\..\Software\uCOS-II\Source/os_time.c **** */
 162:..\..\..\..\..\..\Software\uCOS-II\Source/os_time.c **** 
 163:..\..\..\..\..\..\Software\uCOS-II\Source/os_time.c **** #if OS_TIME_DLY_RESUME_EN > 0u
 164:..\..\..\..\..\..\Software\uCOS-II\Source/os_time.c **** INT8U  OSTimeDlyResume (INT8U prio)
 165:..\..\..\..\..\..\Software\uCOS-II\Source/os_time.c **** {
 293              		.loc 1 165 1 is_stmt 1 view -0
 294              		.cfi_startproc
 295              		@ args = 0, pretend = 0, frame = 0
 296              		@ frame_needed = 0, uses_anonymous_args = 0
 297              		.loc 1 165 1 is_stmt 0 view .LVU79
 298 0000 10B5     		push	{r4, lr}
 299              		.cfi_def_cfa_offset 8
 300              		.cfi_offset 4, -8
 301              		.cfi_offset 14, -4
 302 0002 0400     		movs	r4, r0
 166:..\..\..\..\..\..\Software\uCOS-II\Source/os_time.c ****     OS_TCB    *ptcb;
 303              		.loc 1 166 5 is_stmt 1 view .LVU80
 167:..\..\..\..\..\..\Software\uCOS-II\Source/os_time.c **** #if OS_CRITICAL_METHOD == 3u                                   /* Storage for CPU status register  
 168:..\..\..\..\..\..\Software\uCOS-II\Source/os_time.c ****     OS_CPU_SR  cpu_sr = 0u;
 304              		.loc 1 168 5 view .LVU81
 305              	.LVL20:
 169:..\..\..\..\..\..\Software\uCOS-II\Source/os_time.c **** #endif
 170:..\..\..\..\..\..\Software\uCOS-II\Source/os_time.c **** 
 171:..\..\..\..\..\..\Software\uCOS-II\Source/os_time.c **** 
 172:..\..\..\..\..\..\Software\uCOS-II\Source/os_time.c **** 
 173:..\..\..\..\..\..\Software\uCOS-II\Source/os_time.c ****     if (prio >= OS_LOWEST_PRIO) {
 306              		.loc 1 173 5 view .LVU82
 307              		.loc 1 173 8 is_stmt 0 view .LVU83
 308 0004 1E28     		cmp	r0, #30
 309 0006 44D8     		bhi	.L26
 174:..\..\..\..\..\..\Software\uCOS-II\Source/os_time.c ****         return (OS_ERR_PRIO_INVALID);
 175:..\..\..\..\..\..\Software\uCOS-II\Source/os_time.c ****     }
 176:..\..\..\..\..\..\Software\uCOS-II\Source/os_time.c ****     OS_ENTER_CRITICAL();
 310              		.loc 1 176 5 is_stmt 1 view .LVU84
 311              		.loc 1 176 5 view .LVU85
ARM GAS  C:\Users\EDULU~1.DES\AppData\Local\Temp\ccojSC1E.s 			page 10


 312 0008 FFF7FEFF 		bl	OS_CPU_SR_Save
 313              	.LVL21:
 177:..\..\..\..\..\..\Software\uCOS-II\Source/os_time.c ****     ptcb = OSTCBPrioTbl[prio];                                 /* Make sure that task exist        
 314              		.loc 1 177 5 view .LVU86
 315              		.loc 1 177 10 is_stmt 0 view .LVU87
 316 000c A400     		lsls	r4, r4, #2
 317 000e 224B     		ldr	r3, .L30
 318 0010 E358     		ldr	r3, [r4, r3]
 319              	.LVL22:
 178:..\..\..\..\..\..\Software\uCOS-II\Source/os_time.c ****     if (ptcb == (OS_TCB *)0) {
 320              		.loc 1 178 5 is_stmt 1 view .LVU88
 321              		.loc 1 178 8 is_stmt 0 view .LVU89
 322 0012 002B     		cmp	r3, #0
 323 0014 29D0     		beq	.L27
 179:..\..\..\..\..\..\Software\uCOS-II\Source/os_time.c ****         OS_EXIT_CRITICAL();
 180:..\..\..\..\..\..\Software\uCOS-II\Source/os_time.c ****         return (OS_ERR_TASK_NOT_EXIST);                        /* The task does not exist          
 181:..\..\..\..\..\..\Software\uCOS-II\Source/os_time.c ****     }
 182:..\..\..\..\..\..\Software\uCOS-II\Source/os_time.c ****     if (ptcb == OS_TCB_RESERVED) {
 324              		.loc 1 182 5 is_stmt 1 view .LVU90
 325              		.loc 1 182 8 is_stmt 0 view .LVU91
 326 0016 012B     		cmp	r3, #1
 327 0018 2BD0     		beq	.L28
 183:..\..\..\..\..\..\Software\uCOS-II\Source/os_time.c ****         OS_EXIT_CRITICAL();
 184:..\..\..\..\..\..\Software\uCOS-II\Source/os_time.c ****         return (OS_ERR_TASK_NOT_EXIST);                        /* The task does not exist          
 185:..\..\..\..\..\..\Software\uCOS-II\Source/os_time.c ****     }
 186:..\..\..\..\..\..\Software\uCOS-II\Source/os_time.c ****     if (ptcb->OSTCBDly == 0u) {                                /* See if task is delayed           
 328              		.loc 1 186 5 is_stmt 1 view .LVU92
 329              		.loc 1 186 8 is_stmt 0 view .LVU93
 330 001a 1A6A     		ldr	r2, [r3, #32]
 331 001c 002A     		cmp	r2, #0
 332 001e 2CD0     		beq	.L29
 187:..\..\..\..\..\..\Software\uCOS-II\Source/os_time.c ****         OS_EXIT_CRITICAL();
 188:..\..\..\..\..\..\Software\uCOS-II\Source/os_time.c ****         return (OS_ERR_TIME_NOT_DLY);                          /* Indicate that task was not delaye
 189:..\..\..\..\..\..\Software\uCOS-II\Source/os_time.c ****     }
 190:..\..\..\..\..\..\Software\uCOS-II\Source/os_time.c **** 
 191:..\..\..\..\..\..\Software\uCOS-II\Source/os_time.c ****     ptcb->OSTCBDly = 0u;                                       /* Clear the time delay             
 333              		.loc 1 191 5 is_stmt 1 view .LVU94
 334              		.loc 1 191 20 is_stmt 0 view .LVU95
 335 0020 0022     		movs	r2, #0
 336 0022 1A62     		str	r2, [r3, #32]
 192:..\..\..\..\..\..\Software\uCOS-II\Source/os_time.c ****     if ((ptcb->OSTCBStat & OS_STAT_PEND_ANY) != OS_STAT_RDY) {
 337              		.loc 1 192 5 is_stmt 1 view .LVU96
 338              		.loc 1 192 14 is_stmt 0 view .LVU97
 339 0024 2432     		adds	r2, r2, #36
 340 0026 9A5C     		ldrb	r2, [r3, r2]
 341              		.loc 1 192 8 view .LVU98
 342 0028 3721     		movs	r1, #55
 343 002a 1142     		tst	r1, r2
 344 002c 29D0     		beq	.L23
 193:..\..\..\..\..\..\Software\uCOS-II\Source/os_time.c ****         ptcb->OSTCBStat     &= ~OS_STAT_PEND_ANY;              /* Yes, Clear status flag           
 345              		.loc 1 193 9 is_stmt 1 view .LVU99
 346              		.loc 1 193 29 is_stmt 0 view .LVU100
 347 002e 8A43     		bics	r2, r1
 348 0030 1339     		subs	r1, r1, #19
 349 0032 5A54     		strb	r2, [r3, r1]
 194:..\..\..\..\..\..\Software\uCOS-II\Source/os_time.c ****         ptcb->OSTCBStatPend  =  OS_STAT_PEND_TO;               /* Indicate PEND timeout            
 350              		.loc 1 194 9 is_stmt 1 view .LVU101
ARM GAS  C:\Users\EDULU~1.DES\AppData\Local\Temp\ccojSC1E.s 			page 11


 351              		.loc 1 194 30 is_stmt 0 view .LVU102
 352 0034 2522     		movs	r2, #37
 353 0036 2339     		subs	r1, r1, #35
 354 0038 9954     		strb	r1, [r3, r2]
 355              	.L24:
 195:..\..\..\..\..\..\Software\uCOS-II\Source/os_time.c ****     } else {
 196:..\..\..\..\..\..\Software\uCOS-II\Source/os_time.c ****         ptcb->OSTCBStatPend  =  OS_STAT_PEND_OK;
 197:..\..\..\..\..\..\Software\uCOS-II\Source/os_time.c ****     }
 198:..\..\..\..\..\..\Software\uCOS-II\Source/os_time.c ****     if ((ptcb->OSTCBStat & OS_STAT_SUSPEND) == OS_STAT_RDY) {  /* Is task suspended?               
 356              		.loc 1 198 5 is_stmt 1 view .LVU103
 357              		.loc 1 198 14 is_stmt 0 view .LVU104
 358 003a 2422     		movs	r2, #36
 359 003c 9A5C     		ldrb	r2, [r3, r2]
 360              		.loc 1 198 8 view .LVU105
 361 003e 1207     		lsls	r2, r2, #28
 362 0040 23D4     		bmi	.L25
 199:..\..\..\..\..\..\Software\uCOS-II\Source/os_time.c ****         OSRdyGrp               |= ptcb->OSTCBBitY;             /* No,  Make ready                  
 363              		.loc 1 199 9 is_stmt 1 view .LVU106
 364              		.loc 1 199 39 is_stmt 0 view .LVU107
 365 0042 2A22     		movs	r2, #42
 366 0044 9A5C     		ldrb	r2, [r3, r2]
 367              		.loc 1 199 32 view .LVU108
 368 0046 1549     		ldr	r1, .L30+4
 369 0048 0C78     		ldrb	r4, [r1]
 370 004a 2243     		orrs	r2, r4
 371 004c 0A70     		strb	r2, [r1]
 200:..\..\..\..\..\..\Software\uCOS-II\Source/os_time.c ****         OSRdyTbl[ptcb->OSTCBY] |= ptcb->OSTCBBitX;
 372              		.loc 1 200 9 is_stmt 1 view .LVU109
 373              		.loc 1 200 22 is_stmt 0 view .LVU110
 374 004e 2822     		movs	r2, #40
 375 0050 9A5C     		ldrb	r2, [r3, r2]
 376              		.loc 1 200 39 view .LVU111
 377 0052 2921     		movs	r1, #41
 378 0054 5B5C     		ldrb	r3, [r3, r1]
 379              	.LVL23:
 380              		.loc 1 200 32 view .LVU112
 381 0056 1249     		ldr	r1, .L30+8
 382 0058 8C5C     		ldrb	r4, [r1, r2]
 383 005a 2343     		orrs	r3, r4
 384 005c 8B54     		strb	r3, [r1, r2]
 201:..\..\..\..\..\..\Software\uCOS-II\Source/os_time.c ****         OS_EXIT_CRITICAL();
 385              		.loc 1 201 9 is_stmt 1 view .LVU113
 386              		.loc 1 201 9 view .LVU114
 387 005e FFF7FEFF 		bl	OS_CPU_SR_Restore
 388              	.LVL24:
 202:..\..\..\..\..\..\Software\uCOS-II\Source/os_time.c ****         OS_Sched();                                            /* See if this is new highest priori
 389              		.loc 1 202 9 view .LVU115
 390 0062 FFF7FEFF 		bl	OS_Sched
 391              	.LVL25:
 203:..\..\..\..\..\..\Software\uCOS-II\Source/os_time.c ****     } else {
 204:..\..\..\..\..\..\Software\uCOS-II\Source/os_time.c ****         OS_EXIT_CRITICAL();                                    /* Task may be suspended            
 205:..\..\..\..\..\..\Software\uCOS-II\Source/os_time.c ****     }
 206:..\..\..\..\..\..\Software\uCOS-II\Source/os_time.c ****     return (OS_ERR_NONE);
 392              		.loc 1 206 12 is_stmt 0 view .LVU116
 393 0066 0020     		movs	r0, #0
 394 0068 14E0     		b	.L19
 395              	.LVL26:
ARM GAS  C:\Users\EDULU~1.DES\AppData\Local\Temp\ccojSC1E.s 			page 12


 396              	.L27:
 179:..\..\..\..\..\..\Software\uCOS-II\Source/os_time.c ****         return (OS_ERR_TASK_NOT_EXIST);                        /* The task does not exist          
 397              		.loc 1 179 9 is_stmt 1 view .LVU117
 179:..\..\..\..\..\..\Software\uCOS-II\Source/os_time.c ****         return (OS_ERR_TASK_NOT_EXIST);                        /* The task does not exist          
 398              		.loc 1 179 9 view .LVU118
 399 006a FFF7FEFF 		bl	OS_CPU_SR_Restore
 400              	.LVL27:
 180:..\..\..\..\..\..\Software\uCOS-II\Source/os_time.c ****     }
 401              		.loc 1 180 9 view .LVU119
 180:..\..\..\..\..\..\Software\uCOS-II\Source/os_time.c ****     }
 402              		.loc 1 180 16 is_stmt 0 view .LVU120
 403 006e 4320     		movs	r0, #67
 404 0070 10E0     		b	.L19
 405              	.LVL28:
 406              	.L28:
 183:..\..\..\..\..\..\Software\uCOS-II\Source/os_time.c ****         return (OS_ERR_TASK_NOT_EXIST);                        /* The task does not exist          
 407              		.loc 1 183 9 is_stmt 1 view .LVU121
 183:..\..\..\..\..\..\Software\uCOS-II\Source/os_time.c ****         return (OS_ERR_TASK_NOT_EXIST);                        /* The task does not exist          
 408              		.loc 1 183 9 view .LVU122
 409 0072 FFF7FEFF 		bl	OS_CPU_SR_Restore
 410              	.LVL29:
 184:..\..\..\..\..\..\Software\uCOS-II\Source/os_time.c ****     }
 411              		.loc 1 184 9 view .LVU123
 184:..\..\..\..\..\..\Software\uCOS-II\Source/os_time.c ****     }
 412              		.loc 1 184 16 is_stmt 0 view .LVU124
 413 0076 4320     		movs	r0, #67
 414 0078 0CE0     		b	.L19
 415              	.LVL30:
 416              	.L29:
 187:..\..\..\..\..\..\Software\uCOS-II\Source/os_time.c ****         return (OS_ERR_TIME_NOT_DLY);                          /* Indicate that task was not delaye
 417              		.loc 1 187 9 is_stmt 1 view .LVU125
 187:..\..\..\..\..\..\Software\uCOS-II\Source/os_time.c ****         return (OS_ERR_TIME_NOT_DLY);                          /* Indicate that task was not delaye
 418              		.loc 1 187 9 view .LVU126
 419 007a FFF7FEFF 		bl	OS_CPU_SR_Restore
 420              	.LVL31:
 188:..\..\..\..\..\..\Software\uCOS-II\Source/os_time.c ****     }
 421              		.loc 1 188 9 view .LVU127
 188:..\..\..\..\..\..\Software\uCOS-II\Source/os_time.c ****     }
 422              		.loc 1 188 16 is_stmt 0 view .LVU128
 423 007e 5020     		movs	r0, #80
 424 0080 08E0     		b	.L19
 425              	.LVL32:
 426              	.L23:
 196:..\..\..\..\..\..\Software\uCOS-II\Source/os_time.c ****     }
 427              		.loc 1 196 9 is_stmt 1 view .LVU129
 196:..\..\..\..\..\..\Software\uCOS-II\Source/os_time.c ****     }
 428              		.loc 1 196 30 is_stmt 0 view .LVU130
 429 0082 2522     		movs	r2, #37
 430 0084 0021     		movs	r1, #0
 431 0086 9954     		strb	r1, [r3, r2]
 432 0088 D7E7     		b	.L24
 433              	.L25:
 204:..\..\..\..\..\..\Software\uCOS-II\Source/os_time.c ****     }
 434              		.loc 1 204 9 is_stmt 1 view .LVU131
 204:..\..\..\..\..\..\Software\uCOS-II\Source/os_time.c ****     }
 435              		.loc 1 204 9 view .LVU132
 436 008a FFF7FEFF 		bl	OS_CPU_SR_Restore
ARM GAS  C:\Users\EDULU~1.DES\AppData\Local\Temp\ccojSC1E.s 			page 13


 437              	.LVL33:
 438              		.loc 1 206 12 is_stmt 0 view .LVU133
 439 008e 0020     		movs	r0, #0
 440 0090 00E0     		b	.L19
 441              	.LVL34:
 442              	.L26:
 174:..\..\..\..\..\..\Software\uCOS-II\Source/os_time.c ****     }
 443              		.loc 1 174 16 view .LVU134
 444 0092 2A20     		movs	r0, #42
 445              	.LVL35:
 446              	.L19:
 207:..\..\..\..\..\..\Software\uCOS-II\Source/os_time.c **** }
 447              		.loc 1 207 1 view .LVU135
 448              		@ sp needed
 449 0094 10BD     		pop	{r4, pc}
 450              	.L31:
 451 0096 C046     		.align	2
 452              	.L30:
 453 0098 00000000 		.word	OSTCBPrioTbl
 454 009c 00000000 		.word	OSRdyGrp
 455 00a0 00000000 		.word	OSRdyTbl
 456              		.cfi_endproc
 457              	.LFE5:
 458              		.size	OSTimeDlyResume, .-OSTimeDlyResume
 459              		.section	.text.OSTimeGet,"ax",%progbits
 460              		.align	1
 461              		.global	OSTimeGet
 462              		.syntax unified
 463              		.code	16
 464              		.thumb_func
 465              		.fpu softvfp
 466              		.type	OSTimeGet, %function
 467              	OSTimeGet:
 468              	.LFB6:
 208:..\..\..\..\..\..\Software\uCOS-II\Source/os_time.c **** #endif
 209:..\..\..\..\..\..\Software\uCOS-II\Source/os_time.c **** /*$PAGE*/
 210:..\..\..\..\..\..\Software\uCOS-II\Source/os_time.c **** /*
 211:..\..\..\..\..\..\Software\uCOS-II\Source/os_time.c **** ***************************************************************************************************
 212:..\..\..\..\..\..\Software\uCOS-II\Source/os_time.c **** *                                       GET CURRENT SYSTEM TIME
 213:..\..\..\..\..\..\Software\uCOS-II\Source/os_time.c **** *
 214:..\..\..\..\..\..\Software\uCOS-II\Source/os_time.c **** * Description: This function is used by your application to obtain the current value of the 32-bit
 215:..\..\..\..\..\..\Software\uCOS-II\Source/os_time.c **** *              counter which keeps track of the number of clock ticks.
 216:..\..\..\..\..\..\Software\uCOS-II\Source/os_time.c **** *
 217:..\..\..\..\..\..\Software\uCOS-II\Source/os_time.c **** * Arguments  : none
 218:..\..\..\..\..\..\Software\uCOS-II\Source/os_time.c **** *
 219:..\..\..\..\..\..\Software\uCOS-II\Source/os_time.c **** * Returns    : The current value of OSTime
 220:..\..\..\..\..\..\Software\uCOS-II\Source/os_time.c **** ***************************************************************************************************
 221:..\..\..\..\..\..\Software\uCOS-II\Source/os_time.c **** */
 222:..\..\..\..\..\..\Software\uCOS-II\Source/os_time.c **** 
 223:..\..\..\..\..\..\Software\uCOS-II\Source/os_time.c **** #if OS_TIME_GET_SET_EN > 0u
 224:..\..\..\..\..\..\Software\uCOS-II\Source/os_time.c **** INT32U  OSTimeGet (void)
 225:..\..\..\..\..\..\Software\uCOS-II\Source/os_time.c **** {
 469              		.loc 1 225 1 is_stmt 1 view -0
 470              		.cfi_startproc
 471              		@ args = 0, pretend = 0, frame = 0
 472              		@ frame_needed = 0, uses_anonymous_args = 0
 473 0000 10B5     		push	{r4, lr}
ARM GAS  C:\Users\EDULU~1.DES\AppData\Local\Temp\ccojSC1E.s 			page 14


 474              		.cfi_def_cfa_offset 8
 475              		.cfi_offset 4, -8
 476              		.cfi_offset 14, -4
 226:..\..\..\..\..\..\Software\uCOS-II\Source/os_time.c ****     INT32U     ticks;
 477              		.loc 1 226 5 view .LVU137
 227:..\..\..\..\..\..\Software\uCOS-II\Source/os_time.c **** #if OS_CRITICAL_METHOD == 3u                     /* Allocate storage for CPU status register       
 228:..\..\..\..\..\..\Software\uCOS-II\Source/os_time.c ****     OS_CPU_SR  cpu_sr = 0u;
 478              		.loc 1 228 5 view .LVU138
 479              	.LVL36:
 229:..\..\..\..\..\..\Software\uCOS-II\Source/os_time.c **** #endif
 230:..\..\..\..\..\..\Software\uCOS-II\Source/os_time.c **** 
 231:..\..\..\..\..\..\Software\uCOS-II\Source/os_time.c **** 
 232:..\..\..\..\..\..\Software\uCOS-II\Source/os_time.c **** 
 233:..\..\..\..\..\..\Software\uCOS-II\Source/os_time.c ****     OS_ENTER_CRITICAL();
 480              		.loc 1 233 5 view .LVU139
 481              		.loc 1 233 5 view .LVU140
 482 0002 FFF7FEFF 		bl	OS_CPU_SR_Save
 483              	.LVL37:
 234:..\..\..\..\..\..\Software\uCOS-II\Source/os_time.c ****     ticks = OSTime;
 484              		.loc 1 234 5 view .LVU141
 485              		.loc 1 234 11 is_stmt 0 view .LVU142
 486 0006 034B     		ldr	r3, .L33
 487 0008 1C68     		ldr	r4, [r3]
 488              	.LVL38:
 235:..\..\..\..\..\..\Software\uCOS-II\Source/os_time.c ****     OS_EXIT_CRITICAL();
 489              		.loc 1 235 5 is_stmt 1 view .LVU143
 490              		.loc 1 235 5 view .LVU144
 491 000a FFF7FEFF 		bl	OS_CPU_SR_Restore
 492              	.LVL39:
 236:..\..\..\..\..\..\Software\uCOS-II\Source/os_time.c ****     return (ticks);
 493              		.loc 1 236 5 view .LVU145
 237:..\..\..\..\..\..\Software\uCOS-II\Source/os_time.c **** }
 494              		.loc 1 237 1 is_stmt 0 view .LVU146
 495 000e 2000     		movs	r0, r4
 496              		@ sp needed
 497              	.LVL40:
 498              		.loc 1 237 1 view .LVU147
 499 0010 10BD     		pop	{r4, pc}
 500              	.L34:
 501 0012 C046     		.align	2
 502              	.L33:
 503 0014 00000000 		.word	OSTime
 504              		.cfi_endproc
 505              	.LFE6:
 506              		.size	OSTimeGet, .-OSTimeGet
 507              		.section	.text.OSTimeSet,"ax",%progbits
 508              		.align	1
 509              		.global	OSTimeSet
 510              		.syntax unified
 511              		.code	16
 512              		.thumb_func
 513              		.fpu softvfp
 514              		.type	OSTimeSet, %function
 515              	OSTimeSet:
 516              	.LVL41:
 517              	.LFB7:
 238:..\..\..\..\..\..\Software\uCOS-II\Source/os_time.c **** #endif
ARM GAS  C:\Users\EDULU~1.DES\AppData\Local\Temp\ccojSC1E.s 			page 15


 239:..\..\..\..\..\..\Software\uCOS-II\Source/os_time.c **** 
 240:..\..\..\..\..\..\Software\uCOS-II\Source/os_time.c **** /*
 241:..\..\..\..\..\..\Software\uCOS-II\Source/os_time.c **** ***************************************************************************************************
 242:..\..\..\..\..\..\Software\uCOS-II\Source/os_time.c **** *                                          SET SYSTEM CLOCK
 243:..\..\..\..\..\..\Software\uCOS-II\Source/os_time.c **** *
 244:..\..\..\..\..\..\Software\uCOS-II\Source/os_time.c **** * Description: This function sets the 32-bit counter which keeps track of the number of clock ticks
 245:..\..\..\..\..\..\Software\uCOS-II\Source/os_time.c **** *
 246:..\..\..\..\..\..\Software\uCOS-II\Source/os_time.c **** * Arguments  : ticks      specifies the new value that OSTime needs to take.
 247:..\..\..\..\..\..\Software\uCOS-II\Source/os_time.c **** *
 248:..\..\..\..\..\..\Software\uCOS-II\Source/os_time.c **** * Returns    : none
 249:..\..\..\..\..\..\Software\uCOS-II\Source/os_time.c **** ***************************************************************************************************
 250:..\..\..\..\..\..\Software\uCOS-II\Source/os_time.c **** */
 251:..\..\..\..\..\..\Software\uCOS-II\Source/os_time.c **** 
 252:..\..\..\..\..\..\Software\uCOS-II\Source/os_time.c **** #if OS_TIME_GET_SET_EN > 0u
 253:..\..\..\..\..\..\Software\uCOS-II\Source/os_time.c **** void  OSTimeSet (INT32U ticks)
 254:..\..\..\..\..\..\Software\uCOS-II\Source/os_time.c **** {
 518              		.loc 1 254 1 is_stmt 1 view -0
 519              		.cfi_startproc
 520              		@ args = 0, pretend = 0, frame = 0
 521              		@ frame_needed = 0, uses_anonymous_args = 0
 522              		.loc 1 254 1 is_stmt 0 view .LVU149
 523 0000 10B5     		push	{r4, lr}
 524              		.cfi_def_cfa_offset 8
 525              		.cfi_offset 4, -8
 526              		.cfi_offset 14, -4
 527 0002 0400     		movs	r4, r0
 255:..\..\..\..\..\..\Software\uCOS-II\Source/os_time.c **** #if OS_CRITICAL_METHOD == 3u                     /* Allocate storage for CPU status register       
 256:..\..\..\..\..\..\Software\uCOS-II\Source/os_time.c ****     OS_CPU_SR  cpu_sr = 0u;
 528              		.loc 1 256 5 is_stmt 1 view .LVU150
 529              	.LVL42:
 257:..\..\..\..\..\..\Software\uCOS-II\Source/os_time.c **** #endif
 258:..\..\..\..\..\..\Software\uCOS-II\Source/os_time.c **** 
 259:..\..\..\..\..\..\Software\uCOS-II\Source/os_time.c **** 
 260:..\..\..\..\..\..\Software\uCOS-II\Source/os_time.c **** 
 261:..\..\..\..\..\..\Software\uCOS-II\Source/os_time.c ****     OS_ENTER_CRITICAL();
 530              		.loc 1 261 5 view .LVU151
 531              		.loc 1 261 5 view .LVU152
 532 0004 FFF7FEFF 		bl	OS_CPU_SR_Save
 533              	.LVL43:
 262:..\..\..\..\..\..\Software\uCOS-II\Source/os_time.c ****     OSTime = ticks;
 534              		.loc 1 262 5 view .LVU153
 535              		.loc 1 262 12 is_stmt 0 view .LVU154
 536 0008 024B     		ldr	r3, .L36
 537 000a 1C60     		str	r4, [r3]
 263:..\..\..\..\..\..\Software\uCOS-II\Source/os_time.c ****     OS_EXIT_CRITICAL();
 538              		.loc 1 263 5 is_stmt 1 view .LVU155
 539              		.loc 1 263 5 view .LVU156
 540 000c FFF7FEFF 		bl	OS_CPU_SR_Restore
 541              	.LVL44:
 264:..\..\..\..\..\..\Software\uCOS-II\Source/os_time.c **** }
 542              		.loc 1 264 1 is_stmt 0 view .LVU157
 543              		@ sp needed
 544              	.LVL45:
 545              		.loc 1 264 1 view .LVU158
 546 0010 10BD     		pop	{r4, pc}
 547              	.L37:
 548 0012 C046     		.align	2
ARM GAS  C:\Users\EDULU~1.DES\AppData\Local\Temp\ccojSC1E.s 			page 16


 549              	.L36:
 550 0014 00000000 		.word	OSTime
 551              		.cfi_endproc
 552              	.LFE7:
 553              		.size	OSTimeSet, .-OSTimeSet
 554              		.text
 555              	.Letext0:
 556              		.file 2 "c:\\program files (x86)\\gnu tools arm embedded\\8 2018-q4-major\\arm-none-eabi\\include\
 557              		.file 3 "c:\\program files (x86)\\gnu tools arm embedded\\8 2018-q4-major\\arm-none-eabi\\include\
 558              		.file 4 "c:\\program files (x86)\\gnu tools arm embedded\\8 2018-q4-major\\lib\\gcc\\arm-none-eabi
 559              		.file 5 "c:\\program files (x86)\\gnu tools arm embedded\\8 2018-q4-major\\arm-none-eabi\\include\
 560              		.file 6 "..\\..\\..\\..\\..\\..\\Software\\uCOS-II\\Ports\\ARM-Cortex-M0\\Generic\\GNU/os_cpu.h"
 561              		.file 7 "..\\..\\..\\..\\..\\..\\Software\\uCOS-II\\Source/ucos_ii.h"