ARM GAS  C:\Users\EDULU~1.DES\AppData\Local\Temp\ccgrKYGn.s 			page 1


   1              		.cpu cortex-m0
   2              		.eabi_attribute 20, 1
   3              		.eabi_attribute 21, 1
   4              		.eabi_attribute 23, 3
   5              		.eabi_attribute 24, 1
   6              		.eabi_attribute 25, 1
   7              		.eabi_attribute 26, 1
   8              		.eabi_attribute 30, 1
   9              		.eabi_attribute 34, 0
  10              		.eabi_attribute 18, 4
  11              		.file	"os_task.c"
  12              		.text
  13              	.Ltext0:
  14              		.cfi_sections	.debug_frame
  15              		.section	.text.OSTaskChangePrio,"ax",%progbits
  16              		.align	1
  17              		.global	OSTaskChangePrio
  18              		.arch armv6s-m
  19              		.syntax unified
  20              		.code	16
  21              		.thumb_func
  22              		.fpu softvfp
  23              		.type	OSTaskChangePrio, %function
  24              	OSTaskChangePrio:
  25              	.LVL0:
  26              	.LFB3:
  27              		.file 1 "..\\..\\..\\..\\..\\..\\Software\\uCOS-II\\Source\\os_task.c"
   1:..\..\..\..\..\..\Software\uCOS-II\Source/os_task.c **** /*
   2:..\..\..\..\..\..\Software\uCOS-II\Source/os_task.c **** ***************************************************************************************************
   3:..\..\..\..\..\..\Software\uCOS-II\Source/os_task.c **** *                                                uC/OS-II
   4:..\..\..\..\..\..\Software\uCOS-II\Source/os_task.c **** *                                          The Real-Time Kernel
   5:..\..\..\..\..\..\Software\uCOS-II\Source/os_task.c **** *                                            TASK MANAGEMENT
   6:..\..\..\..\..\..\Software\uCOS-II\Source/os_task.c **** *
   7:..\..\..\..\..\..\Software\uCOS-II\Source/os_task.c **** *                              (c) Copyright 1992-2013, Micrium, Weston, FL
   8:..\..\..\..\..\..\Software\uCOS-II\Source/os_task.c **** *                                           All Rights Reserved
   9:..\..\..\..\..\..\Software\uCOS-II\Source/os_task.c **** *
  10:..\..\..\..\..\..\Software\uCOS-II\Source/os_task.c **** * File    : OS_TASK.C
  11:..\..\..\..\..\..\Software\uCOS-II\Source/os_task.c **** * By      : Jean J. Labrosse
  12:..\..\..\..\..\..\Software\uCOS-II\Source/os_task.c **** * Version : V2.92.11
  13:..\..\..\..\..\..\Software\uCOS-II\Source/os_task.c **** *
  14:..\..\..\..\..\..\Software\uCOS-II\Source/os_task.c **** * LICENSING TERMS:
  15:..\..\..\..\..\..\Software\uCOS-II\Source/os_task.c **** * ---------------
  16:..\..\..\..\..\..\Software\uCOS-II\Source/os_task.c **** *   uC/OS-II is provided in source form for FREE evaluation, for educational use or for peaceful re
  17:..\..\..\..\..\..\Software\uCOS-II\Source/os_task.c **** * If you plan on using  uC/OS-II  in a commercial product you need to contact Micrium to properly l
  18:..\..\..\..\..\..\Software\uCOS-II\Source/os_task.c **** * its use in your product. We provide ALL the source code for your convenience and to help you expe
  19:..\..\..\..\..\..\Software\uCOS-II\Source/os_task.c **** * uC/OS-II.   The fact that the  source is provided does  NOT  mean that you can use it without  pa
  20:..\..\..\..\..\..\Software\uCOS-II\Source/os_task.c **** * licensing fee.
  21:..\..\..\..\..\..\Software\uCOS-II\Source/os_task.c **** ***************************************************************************************************
  22:..\..\..\..\..\..\Software\uCOS-II\Source/os_task.c **** */
  23:..\..\..\..\..\..\Software\uCOS-II\Source/os_task.c **** 
  24:..\..\..\..\..\..\Software\uCOS-II\Source/os_task.c **** #define  MICRIUM_SOURCE
  25:..\..\..\..\..\..\Software\uCOS-II\Source/os_task.c **** 
  26:..\..\..\..\..\..\Software\uCOS-II\Source/os_task.c **** #ifndef  OS_MASTER_FILE
  27:..\..\..\..\..\..\Software\uCOS-II\Source/os_task.c **** #include <ucos_ii.h>
  28:..\..\..\..\..\..\Software\uCOS-II\Source/os_task.c **** #endif
  29:..\..\..\..\..\..\Software\uCOS-II\Source/os_task.c **** 
  30:..\..\..\..\..\..\Software\uCOS-II\Source/os_task.c **** /*$PAGE*/
ARM GAS  C:\Users\EDULU~1.DES\AppData\Local\Temp\ccgrKYGn.s 			page 2


  31:..\..\..\..\..\..\Software\uCOS-II\Source/os_task.c **** /*
  32:..\..\..\..\..\..\Software\uCOS-II\Source/os_task.c **** ***************************************************************************************************
  33:..\..\..\..\..\..\Software\uCOS-II\Source/os_task.c **** *                                      CHANGE PRIORITY OF A TASK
  34:..\..\..\..\..\..\Software\uCOS-II\Source/os_task.c **** *
  35:..\..\..\..\..\..\Software\uCOS-II\Source/os_task.c **** * Description: This function allows you to change the priority of a task dynamically.  Note that th
  36:..\..\..\..\..\..\Software\uCOS-II\Source/os_task.c **** *              priority MUST be available.
  37:..\..\..\..\..\..\Software\uCOS-II\Source/os_task.c **** *
  38:..\..\..\..\..\..\Software\uCOS-II\Source/os_task.c **** * Arguments  : oldp     is the old priority
  39:..\..\..\..\..\..\Software\uCOS-II\Source/os_task.c **** *
  40:..\..\..\..\..\..\Software\uCOS-II\Source/os_task.c **** *              newp     is the new priority
  41:..\..\..\..\..\..\Software\uCOS-II\Source/os_task.c **** *
  42:..\..\..\..\..\..\Software\uCOS-II\Source/os_task.c **** * Returns    : OS_ERR_NONE            is the call was successful
  43:..\..\..\..\..\..\Software\uCOS-II\Source/os_task.c **** *              OS_ERR_PRIO_INVALID    if the priority you specify is higher that the maximum allowe
  44:..\..\..\..\..\..\Software\uCOS-II\Source/os_task.c **** *                                     (i.e. >= OS_LOWEST_PRIO)
  45:..\..\..\..\..\..\Software\uCOS-II\Source/os_task.c **** *              OS_ERR_PRIO_EXIST      if the new priority already exist.
  46:..\..\..\..\..\..\Software\uCOS-II\Source/os_task.c **** *              OS_ERR_PRIO            there is no task with the specified OLD priority (i.e. the OL
  47:..\..\..\..\..\..\Software\uCOS-II\Source/os_task.c **** *                                     not exist.
  48:..\..\..\..\..\..\Software\uCOS-II\Source/os_task.c **** *              OS_ERR_TASK_NOT_EXIST  if the task is assigned to a Mutex PIP.
  49:..\..\..\..\..\..\Software\uCOS-II\Source/os_task.c **** ***************************************************************************************************
  50:..\..\..\..\..\..\Software\uCOS-II\Source/os_task.c **** */
  51:..\..\..\..\..\..\Software\uCOS-II\Source/os_task.c **** 
  52:..\..\..\..\..\..\Software\uCOS-II\Source/os_task.c **** #if OS_TASK_CHANGE_PRIO_EN > 0u
  53:..\..\..\..\..\..\Software\uCOS-II\Source/os_task.c **** INT8U  OSTaskChangePrio (INT8U  oldprio,
  54:..\..\..\..\..\..\Software\uCOS-II\Source/os_task.c ****                          INT8U  newprio)
  55:..\..\..\..\..\..\Software\uCOS-II\Source/os_task.c **** {
  28              		.loc 1 55 1 view -0
  29              		.cfi_startproc
  30              		@ args = 0, pretend = 0, frame = 8
  31              		@ frame_needed = 0, uses_anonymous_args = 0
  32              		.loc 1 55 1 is_stmt 0 view .LVU1
  33 0000 F0B5     		push	{r4, r5, r6, r7, lr}
  34              		.cfi_def_cfa_offset 20
  35              		.cfi_offset 4, -20
  36              		.cfi_offset 5, -16
  37              		.cfi_offset 6, -12
  38              		.cfi_offset 7, -8
  39              		.cfi_offset 14, -4
  40 0002 DE46     		mov	lr, fp
  41 0004 5746     		mov	r7, r10
  42 0006 4E46     		mov	r6, r9
  43 0008 4546     		mov	r5, r8
  44 000a E0B5     		push	{r5, r6, r7, lr}
  45              		.cfi_def_cfa_offset 36
  46              		.cfi_offset 8, -36
  47              		.cfi_offset 9, -32
  48              		.cfi_offset 10, -28
  49              		.cfi_offset 11, -24
  50 000c 83B0     		sub	sp, sp, #12
  51              		.cfi_def_cfa_offset 48
  52 000e 0400     		movs	r4, r0
  53 0010 0D00     		movs	r5, r1
  56:..\..\..\..\..\..\Software\uCOS-II\Source/os_task.c **** #if (OS_EVENT_EN)
  57:..\..\..\..\..\..\Software\uCOS-II\Source/os_task.c ****     OS_EVENT  *pevent;
  54              		.loc 1 57 5 is_stmt 1 view .LVU2
  58:..\..\..\..\..\..\Software\uCOS-II\Source/os_task.c **** #if (OS_EVENT_MULTI_EN > 0u)
  59:..\..\..\..\..\..\Software\uCOS-II\Source/os_task.c ****     OS_EVENT **pevents;
  60:..\..\..\..\..\..\Software\uCOS-II\Source/os_task.c **** #endif
ARM GAS  C:\Users\EDULU~1.DES\AppData\Local\Temp\ccgrKYGn.s 			page 3


  61:..\..\..\..\..\..\Software\uCOS-II\Source/os_task.c **** #endif
  62:..\..\..\..\..\..\Software\uCOS-II\Source/os_task.c ****     OS_TCB    *ptcb;
  55              		.loc 1 62 5 view .LVU3
  63:..\..\..\..\..\..\Software\uCOS-II\Source/os_task.c ****     INT8U      y_new;
  56              		.loc 1 63 5 view .LVU4
  64:..\..\..\..\..\..\Software\uCOS-II\Source/os_task.c ****     INT8U      x_new;
  57              		.loc 1 64 5 view .LVU5
  65:..\..\..\..\..\..\Software\uCOS-II\Source/os_task.c ****     INT8U      y_old;
  58              		.loc 1 65 5 view .LVU6
  66:..\..\..\..\..\..\Software\uCOS-II\Source/os_task.c ****     OS_PRIO    bity_new;
  59              		.loc 1 66 5 view .LVU7
  67:..\..\..\..\..\..\Software\uCOS-II\Source/os_task.c ****     OS_PRIO    bitx_new;
  60              		.loc 1 67 5 view .LVU8
  68:..\..\..\..\..\..\Software\uCOS-II\Source/os_task.c ****     OS_PRIO    bity_old;
  61              		.loc 1 68 5 view .LVU9
  69:..\..\..\..\..\..\Software\uCOS-II\Source/os_task.c ****     OS_PRIO    bitx_old;
  62              		.loc 1 69 5 view .LVU10
  70:..\..\..\..\..\..\Software\uCOS-II\Source/os_task.c **** #if OS_CRITICAL_METHOD == 3u
  71:..\..\..\..\..\..\Software\uCOS-II\Source/os_task.c ****     OS_CPU_SR  cpu_sr = 0u;                                 /* Storage for CPU status register     
  63              		.loc 1 71 5 view .LVU11
  64              	.LVL1:
  72:..\..\..\..\..\..\Software\uCOS-II\Source/os_task.c **** #endif
  73:..\..\..\..\..\..\Software\uCOS-II\Source/os_task.c **** 
  74:..\..\..\..\..\..\Software\uCOS-II\Source/os_task.c **** 
  75:..\..\..\..\..\..\Software\uCOS-II\Source/os_task.c **** /*$PAGE*/
  76:..\..\..\..\..\..\Software\uCOS-II\Source/os_task.c **** #if OS_ARG_CHK_EN > 0u
  77:..\..\..\..\..\..\Software\uCOS-II\Source/os_task.c ****     if (oldprio >= OS_LOWEST_PRIO) {
  65              		.loc 1 77 5 view .LVU12
  66              		.loc 1 77 8 is_stmt 0 view .LVU13
  67 0012 1E28     		cmp	r0, #30
  68 0014 02D9     		bls	.L2
  78:..\..\..\..\..\..\Software\uCOS-II\Source/os_task.c ****         if (oldprio != OS_PRIO_SELF) {
  69              		.loc 1 78 9 is_stmt 1 view .LVU14
  70              		.loc 1 78 12 is_stmt 0 view .LVU15
  71 0016 FF28     		cmp	r0, #255
  72 0018 00D0     		beq	.LCB43
  73 001a 8BE0     		b	.L12	@long jump
  74              	.LCB43:
  75              	.L2:
  79:..\..\..\..\..\..\Software\uCOS-II\Source/os_task.c ****             return (OS_ERR_PRIO_INVALID);
  80:..\..\..\..\..\..\Software\uCOS-II\Source/os_task.c ****         }
  81:..\..\..\..\..\..\Software\uCOS-II\Source/os_task.c ****     }
  82:..\..\..\..\..\..\Software\uCOS-II\Source/os_task.c ****     if (newprio >= OS_LOWEST_PRIO) {
  76              		.loc 1 82 5 is_stmt 1 view .LVU16
  77              		.loc 1 82 8 is_stmt 0 view .LVU17
  78 001c 1E2D     		cmp	r5, #30
  79 001e 00D9     		bls	.LCB47
  80 0020 8AE0     		b	.L13	@long jump
  81              	.LCB47:
  83:..\..\..\..\..\..\Software\uCOS-II\Source/os_task.c ****         return (OS_ERR_PRIO_INVALID);
  84:..\..\..\..\..\..\Software\uCOS-II\Source/os_task.c ****     }
  85:..\..\..\..\..\..\Software\uCOS-II\Source/os_task.c **** #endif
  86:..\..\..\..\..\..\Software\uCOS-II\Source/os_task.c ****     OS_ENTER_CRITICAL();
  82              		.loc 1 86 5 is_stmt 1 view .LVU18
  83              		.loc 1 86 5 view .LVU19
  84 0022 FFF7FEFF 		bl	OS_CPU_SR_Save
  85              	.LVL2:
ARM GAS  C:\Users\EDULU~1.DES\AppData\Local\Temp\ccgrKYGn.s 			page 4


  86              		.loc 1 86 5 is_stmt 0 view .LVU20
  87 0026 0190     		str	r0, [sp, #4]
  88              	.LVL3:
  87:..\..\..\..\..\..\Software\uCOS-II\Source/os_task.c ****     if (OSTCBPrioTbl[newprio] != (OS_TCB *)0) {             /* New priority must not already exist 
  89              		.loc 1 87 5 is_stmt 1 view .LVU21
  90              		.loc 1 87 21 is_stmt 0 view .LVU22
  91 0028 AB00     		lsls	r3, r5, #2
  92 002a 474A     		ldr	r2, .L20
  93 002c 9B58     		ldr	r3, [r3, r2]
  94              		.loc 1 87 8 view .LVU23
  95 002e 002B     		cmp	r3, #0
  96 0030 69D1     		bne	.L15
  88:..\..\..\..\..\..\Software\uCOS-II\Source/os_task.c ****         OS_EXIT_CRITICAL();
  89:..\..\..\..\..\..\Software\uCOS-II\Source/os_task.c ****         return (OS_ERR_PRIO_EXIST);
  90:..\..\..\..\..\..\Software\uCOS-II\Source/os_task.c ****     }
  91:..\..\..\..\..\..\Software\uCOS-II\Source/os_task.c ****     if (oldprio == OS_PRIO_SELF) {                          /* See if changing self                
  97              		.loc 1 91 5 is_stmt 1 view .LVU24
  98              		.loc 1 91 8 is_stmt 0 view .LVU25
  99 0032 FF2C     		cmp	r4, #255
 100 0034 6BD0     		beq	.L16
 101              	.LVL4:
 102              	.L5:
  92:..\..\..\..\..\..\Software\uCOS-II\Source/os_task.c ****         oldprio = OSTCBCur->OSTCBPrio;                      /* Yes, get priority                   
  93:..\..\..\..\..\..\Software\uCOS-II\Source/os_task.c ****     }
  94:..\..\..\..\..\..\Software\uCOS-II\Source/os_task.c ****     ptcb = OSTCBPrioTbl[oldprio];
 103              		.loc 1 94 5 is_stmt 1 view .LVU26
 104              		.loc 1 94 24 is_stmt 0 view .LVU27
 105 0036 2100     		movs	r1, r4
 106              		.loc 1 94 10 view .LVU28
 107 0038 A400     		lsls	r4, r4, #2
 108              	.LVL5:
 109              		.loc 1 94 10 view .LVU29
 110 003a 434B     		ldr	r3, .L20
 111 003c E358     		ldr	r3, [r4, r3]
 112              	.LVL6:
  95:..\..\..\..\..\..\Software\uCOS-II\Source/os_task.c ****     if (ptcb == (OS_TCB *)0) {                              /* Does task to change exist?          
 113              		.loc 1 95 5 is_stmt 1 view .LVU30
 114              		.loc 1 95 8 is_stmt 0 view .LVU31
 115 003e 002B     		cmp	r3, #0
 116 0040 6AD0     		beq	.L17
  96:..\..\..\..\..\..\Software\uCOS-II\Source/os_task.c ****         OS_EXIT_CRITICAL();                                 /* No, can't change its priority!      
  97:..\..\..\..\..\..\Software\uCOS-II\Source/os_task.c ****         return (OS_ERR_PRIO);
  98:..\..\..\..\..\..\Software\uCOS-II\Source/os_task.c ****     }
  99:..\..\..\..\..\..\Software\uCOS-II\Source/os_task.c ****     if (ptcb == OS_TCB_RESERVED) {                          /* Is task assigned to Mutex           
 117              		.loc 1 99 5 is_stmt 1 view .LVU32
 118              		.loc 1 99 8 is_stmt 0 view .LVU33
 119 0042 012B     		cmp	r3, #1
 120 0044 6DD0     		beq	.L18
 100:..\..\..\..\..\..\Software\uCOS-II\Source/os_task.c ****         OS_EXIT_CRITICAL();                                 /* No, can't change its priority!      
 101:..\..\..\..\..\..\Software\uCOS-II\Source/os_task.c ****         return (OS_ERR_TASK_NOT_EXIST);
 102:..\..\..\..\..\..\Software\uCOS-II\Source/os_task.c ****     }
 103:..\..\..\..\..\..\Software\uCOS-II\Source/os_task.c **** #if OS_LOWEST_PRIO <= 63u
 104:..\..\..\..\..\..\Software\uCOS-II\Source/os_task.c ****     y_new                 = (INT8U)(newprio >> 3u);         /* Yes, compute new TCB fields         
 121              		.loc 1 104 5 is_stmt 1 view .LVU34
 122              		.loc 1 104 27 is_stmt 0 view .LVU35
 123 0046 E808     		lsrs	r0, r5, #3
 124              	.LVL7:
ARM GAS  C:\Users\EDULU~1.DES\AppData\Local\Temp\ccgrKYGn.s 			page 5


 105:..\..\..\..\..\..\Software\uCOS-II\Source/os_task.c ****     x_new                 = (INT8U)(newprio & 0x07u);
 125              		.loc 1 105 5 is_stmt 1 view .LVU36
 126              		.loc 1 105 27 is_stmt 0 view .LVU37
 127 0048 0727     		movs	r7, #7
 128 004a 2F40     		ands	r7, r5
 129 004c BC46     		mov	ip, r7
 130              	.LVL8:
 106:..\..\..\..\..\..\Software\uCOS-II\Source/os_task.c **** #else
 107:..\..\..\..\..\..\Software\uCOS-II\Source/os_task.c ****     y_new                 = (INT8U)((INT8U)(newprio >> 4u) & 0x0Fu);
 108:..\..\..\..\..\..\Software\uCOS-II\Source/os_task.c ****     x_new                 = (INT8U)(newprio & 0x0Fu);
 109:..\..\..\..\..\..\Software\uCOS-II\Source/os_task.c **** #endif
 110:..\..\..\..\..\..\Software\uCOS-II\Source/os_task.c ****     bity_new              = (OS_PRIO)(1uL << y_new);
 131              		.loc 1 110 5 is_stmt 1 view .LVU38
 132              		.loc 1 110 43 is_stmt 0 view .LVU39
 133 004e 0122     		movs	r2, #1
 134 0050 1600     		movs	r6, r2
 135 0052 8640     		lsls	r6, r6, r0
 136              		.loc 1 110 27 view .LVU40
 137 0054 F6B2     		uxtb	r6, r6
 138              	.LVL9:
 111:..\..\..\..\..\..\Software\uCOS-II\Source/os_task.c ****     bitx_new              = (OS_PRIO)(1uL << x_new);
 139              		.loc 1 111 5 is_stmt 1 view .LVU41
 140              		.loc 1 111 43 is_stmt 0 view .LVU42
 141 0056 BA40     		lsls	r2, r2, r7
 142              		.loc 1 111 27 view .LVU43
 143 0058 D2B2     		uxtb	r2, r2
 144              	.LVL10:
 112:..\..\..\..\..\..\Software\uCOS-II\Source/os_task.c **** 
 113:..\..\..\..\..\..\Software\uCOS-II\Source/os_task.c ****     OSTCBPrioTbl[oldprio] = (OS_TCB *)0;                    /* Remove TCB from old priority        
 145              		.loc 1 113 5 is_stmt 1 view .LVU44
 146              		.loc 1 113 27 is_stmt 0 view .LVU45
 147 005a 3B4C     		ldr	r4, .L20
 148 005c 8900     		lsls	r1, r1, #2
 149 005e 0027     		movs	r7, #0
 150              	.LVL11:
 151              		.loc 1 113 27 view .LVU46
 152 0060 0F51     		str	r7, [r1, r4]
 114:..\..\..\..\..\..\Software\uCOS-II\Source/os_task.c ****     OSTCBPrioTbl[newprio] =  ptcb;                          /* Place pointer to TCB @ new priority 
 153              		.loc 1 114 5 is_stmt 1 view .LVU47
 154              		.loc 1 114 27 is_stmt 0 view .LVU48
 155 0062 A900     		lsls	r1, r5, #2
 156 0064 0B51     		str	r3, [r1, r4]
 115:..\..\..\..\..\..\Software\uCOS-II\Source/os_task.c ****     y_old                 =  ptcb->OSTCBY;
 157              		.loc 1 115 5 is_stmt 1 view .LVU49
 158              		.loc 1 115 27 is_stmt 0 view .LVU50
 159 0066 2821     		movs	r1, #40
 160 0068 5C5C     		ldrb	r4, [r3, r1]
 161              	.LVL12:
 116:..\..\..\..\..\..\Software\uCOS-II\Source/os_task.c ****     bity_old              =  ptcb->OSTCBBitY;
 162              		.loc 1 116 5 is_stmt 1 view .LVU51
 163              		.loc 1 116 27 is_stmt 0 view .LVU52
 164 006a 0231     		adds	r1, r1, #2
 165 006c 595C     		ldrb	r1, [r3, r1]
 166 006e 8946     		mov	r9, r1
 167              	.LVL13:
 117:..\..\..\..\..\..\Software\uCOS-II\Source/os_task.c ****     bitx_old              =  ptcb->OSTCBBitX;
 168              		.loc 1 117 5 is_stmt 1 view .LVU53
ARM GAS  C:\Users\EDULU~1.DES\AppData\Local\Temp\ccgrKYGn.s 			page 6


 169              		.loc 1 117 27 is_stmt 0 view .LVU54
 170 0070 2921     		movs	r1, #41
 171 0072 595C     		ldrb	r1, [r3, r1]
 172 0074 8846     		mov	r8, r1
 173              	.LVL14:
 118:..\..\..\..\..\..\Software\uCOS-II\Source/os_task.c ****     if ((OSRdyTbl[y_old] &   bitx_old) != 0u) {             /* If task is ready make it not        
 174              		.loc 1 118 5 is_stmt 1 view .LVU55
 175              		.loc 1 118 18 is_stmt 0 view .LVU56
 176 0076 3549     		ldr	r1, .L20+4
 177 0078 095D     		ldrb	r1, [r1, r4]
 178              		.loc 1 118 8 view .LVU57
 179 007a 4746     		mov	r7, r8
 180 007c 0F42     		tst	r7, r1
 181 007e 16D0     		beq	.L8
 119:..\..\..\..\..\..\Software\uCOS-II\Source/os_task.c ****          OSRdyTbl[y_old] &= (OS_PRIO)~bitx_old;
 182              		.loc 1 119 10 is_stmt 1 view .LVU58
 183              		.loc 1 119 26 is_stmt 0 view .LVU59
 184 0080 B943     		bics	r1, r7
 185 0082 324F     		ldr	r7, .L20+4
 186 0084 3955     		strb	r1, [r7, r4]
 120:..\..\..\..\..\..\Software\uCOS-II\Source/os_task.c ****          if (OSRdyTbl[y_old] == 0u) {
 187              		.loc 1 120 10 is_stmt 1 view .LVU60
 188              		.loc 1 120 13 is_stmt 0 view .LVU61
 189 0086 06D1     		bne	.L9
 121:..\..\..\..\..\..\Software\uCOS-II\Source/os_task.c ****              OSRdyGrp &= (OS_PRIO)~bity_old;
 190              		.loc 1 121 14 is_stmt 1 view .LVU62
 191              		.loc 1 121 23 is_stmt 0 view .LVU63
 192 0088 3149     		ldr	r1, .L20+8
 193 008a 8A46     		mov	r10, r1
 194 008c 0978     		ldrb	r1, [r1]
 195 008e 4F46     		mov	r7, r9
 196 0090 B943     		bics	r1, r7
 197 0092 5746     		mov	r7, r10
 198 0094 3970     		strb	r1, [r7]
 199              	.L9:
 122:..\..\..\..\..\..\Software\uCOS-II\Source/os_task.c ****          }
 123:..\..\..\..\..\..\Software\uCOS-II\Source/os_task.c ****          OSRdyGrp        |= bity_new;                       /* Make new priority ready to run      
 200              		.loc 1 123 10 is_stmt 1 view .LVU64
 201              		.loc 1 123 26 is_stmt 0 view .LVU65
 202 0096 2E49     		ldr	r1, .L20+8
 203 0098 8A46     		mov	r10, r1
 204 009a 0978     		ldrb	r1, [r1]
 205 009c 3143     		orrs	r1, r6
 206 009e 5746     		mov	r7, r10
 207 00a0 3970     		strb	r1, [r7]
 124:..\..\..\..\..\..\Software\uCOS-II\Source/os_task.c ****          OSRdyTbl[y_new] |= bitx_new;
 208              		.loc 1 124 10 is_stmt 1 view .LVU66
 209              		.loc 1 124 26 is_stmt 0 view .LVU67
 210 00a2 2A49     		ldr	r1, .L20+4
 211 00a4 8A46     		mov	r10, r1
 212 00a6 095C     		ldrb	r1, [r1, r0]
 213 00a8 1143     		orrs	r1, r2
 214 00aa 5746     		mov	r7, r10
 215 00ac 3954     		strb	r1, [r7, r0]
 216              	.L8:
 125:..\..\..\..\..\..\Software\uCOS-II\Source/os_task.c ****     }
 126:..\..\..\..\..\..\Software\uCOS-II\Source/os_task.c **** 
ARM GAS  C:\Users\EDULU~1.DES\AppData\Local\Temp\ccgrKYGn.s 			page 7


 127:..\..\..\..\..\..\Software\uCOS-II\Source/os_task.c **** #if (OS_EVENT_EN)
 128:..\..\..\..\..\..\Software\uCOS-II\Source/os_task.c ****     pevent = ptcb->OSTCBEventPtr;
 217              		.loc 1 128 5 is_stmt 1 view .LVU68
 218              		.loc 1 128 12 is_stmt 0 view .LVU69
 219 00ae D969     		ldr	r1, [r3, #28]
 220              	.LVL15:
 129:..\..\..\..\..\..\Software\uCOS-II\Source/os_task.c ****     if (pevent != (OS_EVENT *)0) {
 221              		.loc 1 129 5 is_stmt 1 view .LVU70
 222              		.loc 1 129 8 is_stmt 0 view .LVU71
 223 00b0 0029     		cmp	r1, #0
 224 00b2 14D0     		beq	.L10
 130:..\..\..\..\..\..\Software\uCOS-II\Source/os_task.c ****         pevent->OSEventTbl[y_old] &= (OS_PRIO)~bitx_old;    /* Remove old task prio from wait list 
 225              		.loc 1 130 9 is_stmt 1 view .LVU72
 226              		.loc 1 130 35 is_stmt 0 view .LVU73
 227 00b4 A346     		mov	fp, r4
 228 00b6 8B44     		add	fp, fp, r1
 229 00b8 5C46     		mov	r4, fp
 230              	.LVL16:
 231              		.loc 1 130 35 view .LVU74
 232 00ba E77A     		ldrb	r7, [r4, #11]
 233 00bc 4446     		mov	r4, r8
 234 00be A743     		bics	r7, r4
 235 00c0 3C1E     		subs	r4, r7, #0
 236 00c2 5F46     		mov	r7, fp
 237 00c4 FC72     		strb	r4, [r7, #11]
 131:..\..\..\..\..\..\Software\uCOS-II\Source/os_task.c ****         if (pevent->OSEventTbl[y_old] == 0u) {
 238              		.loc 1 131 9 is_stmt 1 view .LVU75
 239              		.loc 1 131 12 is_stmt 0 view .LVU76
 240 00c6 03D1     		bne	.L11
 132:..\..\..\..\..\..\Software\uCOS-II\Source/os_task.c ****             pevent->OSEventGrp    &= (OS_PRIO)~bity_old;
 241              		.loc 1 132 13 is_stmt 1 view .LVU77
 242              		.loc 1 132 35 is_stmt 0 view .LVU78
 243 00c8 8C7A     		ldrb	r4, [r1, #10]
 244 00ca 4F46     		mov	r7, r9
 245 00cc BC43     		bics	r4, r7
 246 00ce 8C72     		strb	r4, [r1, #10]
 247              	.L11:
 133:..\..\..\..\..\..\Software\uCOS-II\Source/os_task.c ****         }
 134:..\..\..\..\..\..\Software\uCOS-II\Source/os_task.c ****         pevent->OSEventGrp        |= bity_new;              /* Add    new task prio to   wait list 
 248              		.loc 1 134 9 is_stmt 1 view .LVU79
 249              		.loc 1 134 35 is_stmt 0 view .LVU80
 250 00d0 8C7A     		ldrb	r4, [r1, #10]
 251 00d2 3443     		orrs	r4, r6
 252 00d4 8C72     		strb	r4, [r1, #10]
 135:..\..\..\..\..\..\Software\uCOS-II\Source/os_task.c ****         pevent->OSEventTbl[y_new] |= bitx_new;
 253              		.loc 1 135 9 is_stmt 1 view .LVU81
 254              		.loc 1 135 35 is_stmt 0 view .LVU82
 255 00d6 0918     		adds	r1, r1, r0
 256              	.LVL17:
 257              		.loc 1 135 35 view .LVU83
 258 00d8 CC7A     		ldrb	r4, [r1, #11]
 259 00da 1443     		orrs	r4, r2
 260 00dc CC72     		strb	r4, [r1, #11]
 261              	.L10:
 136:..\..\..\..\..\..\Software\uCOS-II\Source/os_task.c ****     }
 137:..\..\..\..\..\..\Software\uCOS-II\Source/os_task.c **** #if (OS_EVENT_MULTI_EN > 0u)
 138:..\..\..\..\..\..\Software\uCOS-II\Source/os_task.c ****     if (ptcb->OSTCBEventMultiPtr != (OS_EVENT **)0) {
ARM GAS  C:\Users\EDULU~1.DES\AppData\Local\Temp\ccgrKYGn.s 			page 8


 139:..\..\..\..\..\..\Software\uCOS-II\Source/os_task.c ****         pevents =  ptcb->OSTCBEventMultiPtr;
 140:..\..\..\..\..\..\Software\uCOS-II\Source/os_task.c ****         pevent  = *pevents;
 141:..\..\..\..\..\..\Software\uCOS-II\Source/os_task.c ****         while (pevent != (OS_EVENT *)0) {
 142:..\..\..\..\..\..\Software\uCOS-II\Source/os_task.c ****             pevent->OSEventTbl[y_old] &= (OS_PRIO)~bitx_old;   /* Remove old task prio from wait li
 143:..\..\..\..\..\..\Software\uCOS-II\Source/os_task.c ****             if (pevent->OSEventTbl[y_old] == 0u) {
 144:..\..\..\..\..\..\Software\uCOS-II\Source/os_task.c ****                 pevent->OSEventGrp    &= (OS_PRIO)~bity_old;
 145:..\..\..\..\..\..\Software\uCOS-II\Source/os_task.c ****             }
 146:..\..\..\..\..\..\Software\uCOS-II\Source/os_task.c ****             pevent->OSEventGrp        |= bity_new;          /* Add    new task prio to   wait lists
 147:..\..\..\..\..\..\Software\uCOS-II\Source/os_task.c ****             pevent->OSEventTbl[y_new] |= bitx_new;
 148:..\..\..\..\..\..\Software\uCOS-II\Source/os_task.c ****             pevents++;
 149:..\..\..\..\..\..\Software\uCOS-II\Source/os_task.c ****             pevent                     = *pevents;
 150:..\..\..\..\..\..\Software\uCOS-II\Source/os_task.c ****         }
 151:..\..\..\..\..\..\Software\uCOS-II\Source/os_task.c ****     }
 152:..\..\..\..\..\..\Software\uCOS-II\Source/os_task.c **** #endif
 153:..\..\..\..\..\..\Software\uCOS-II\Source/os_task.c **** #endif
 154:..\..\..\..\..\..\Software\uCOS-II\Source/os_task.c **** 
 155:..\..\..\..\..\..\Software\uCOS-II\Source/os_task.c ****     ptcb->OSTCBPrio = newprio;                              /* Set new task priority               
 262              		.loc 1 155 5 is_stmt 1 view .LVU84
 263              		.loc 1 155 21 is_stmt 0 view .LVU85
 264 00de 2621     		movs	r1, #38
 265 00e0 5D54     		strb	r5, [r3, r1]
 156:..\..\..\..\..\..\Software\uCOS-II\Source/os_task.c ****     ptcb->OSTCBY    = y_new;
 266              		.loc 1 156 5 is_stmt 1 view .LVU86
 267              		.loc 1 156 21 is_stmt 0 view .LVU87
 268 00e2 0231     		adds	r1, r1, #2
 269 00e4 5854     		strb	r0, [r3, r1]
 157:..\..\..\..\..\..\Software\uCOS-II\Source/os_task.c ****     ptcb->OSTCBX    = x_new;
 270              		.loc 1 157 5 is_stmt 1 view .LVU88
 271              		.loc 1 157 21 is_stmt 0 view .LVU89
 272 00e6 0139     		subs	r1, r1, #1
 273 00e8 6046     		mov	r0, ip
 274              	.LVL18:
 275              		.loc 1 157 21 view .LVU90
 276 00ea 5854     		strb	r0, [r3, r1]
 158:..\..\..\..\..\..\Software\uCOS-II\Source/os_task.c ****     ptcb->OSTCBBitY = bity_new;
 277              		.loc 1 158 5 is_stmt 1 view .LVU91
 278              		.loc 1 158 21 is_stmt 0 view .LVU92
 279 00ec 0331     		adds	r1, r1, #3
 280              	.LVL19:
 281              		.loc 1 158 21 view .LVU93
 282 00ee 5E54     		strb	r6, [r3, r1]
 159:..\..\..\..\..\..\Software\uCOS-II\Source/os_task.c ****     ptcb->OSTCBBitX = bitx_new;
 283              		.loc 1 159 5 is_stmt 1 view .LVU94
 284              		.loc 1 159 21 is_stmt 0 view .LVU95
 285 00f0 0139     		subs	r1, r1, #1
 286              	.LVL20:
 287              		.loc 1 159 21 view .LVU96
 288 00f2 5A54     		strb	r2, [r3, r1]
 160:..\..\..\..\..\..\Software\uCOS-II\Source/os_task.c ****     OS_EXIT_CRITICAL();
 289              		.loc 1 160 5 is_stmt 1 view .LVU97
 290              		.loc 1 160 5 view .LVU98
 291 00f4 0198     		ldr	r0, [sp, #4]
 292 00f6 FFF7FEFF 		bl	OS_CPU_SR_Restore
 293              	.LVL21:
 161:..\..\..\..\..\..\Software\uCOS-II\Source/os_task.c ****     if (OSRunning == OS_TRUE) {
 294              		.loc 1 161 5 view .LVU99
 295              		.loc 1 161 19 is_stmt 0 view .LVU100
ARM GAS  C:\Users\EDULU~1.DES\AppData\Local\Temp\ccgrKYGn.s 			page 9


 296 00fa 164B     		ldr	r3, .L20+12
 297 00fc 1B78     		ldrb	r3, [r3]
 298              		.loc 1 161 8 view .LVU101
 299 00fe 012B     		cmp	r3, #1
 300 0100 14D0     		beq	.L19
 162:..\..\..\..\..\..\Software\uCOS-II\Source/os_task.c ****         OS_Sched();                                         /* Find new highest priority task      
 163:..\..\..\..\..\..\Software\uCOS-II\Source/os_task.c ****     }
 164:..\..\..\..\..\..\Software\uCOS-II\Source/os_task.c ****     return (OS_ERR_NONE);
 301              		.loc 1 164 12 view .LVU102
 302 0102 0020     		movs	r0, #0
 303 0104 19E0     		b	.L3
 304              	.LVL22:
 305              	.L15:
  88:..\..\..\..\..\..\Software\uCOS-II\Source/os_task.c ****         return (OS_ERR_PRIO_EXIST);
 306              		.loc 1 88 9 is_stmt 1 view .LVU103
  88:..\..\..\..\..\..\Software\uCOS-II\Source/os_task.c ****         return (OS_ERR_PRIO_EXIST);
 307              		.loc 1 88 9 view .LVU104
 308 0106 FFF7FEFF 		bl	OS_CPU_SR_Restore
 309              	.LVL23:
  89:..\..\..\..\..\..\Software\uCOS-II\Source/os_task.c ****     }
 310              		.loc 1 89 9 view .LVU105
  89:..\..\..\..\..\..\Software\uCOS-II\Source/os_task.c ****     }
 311              		.loc 1 89 16 is_stmt 0 view .LVU106
 312 010a 2820     		movs	r0, #40
 313 010c 15E0     		b	.L3
 314              	.LVL24:
 315              	.L16:
  92:..\..\..\..\..\..\Software\uCOS-II\Source/os_task.c ****     }
 316              		.loc 1 92 9 is_stmt 1 view .LVU107
  92:..\..\..\..\..\..\Software\uCOS-II\Source/os_task.c ****     }
 317              		.loc 1 92 27 is_stmt 0 view .LVU108
 318 010e 124B     		ldr	r3, .L20+16
 319 0110 1A68     		ldr	r2, [r3]
  92:..\..\..\..\..\..\Software\uCOS-II\Source/os_task.c ****     }
 320              		.loc 1 92 17 view .LVU109
 321 0112 2623     		movs	r3, #38
 322 0114 D45C     		ldrb	r4, [r2, r3]
 323              	.LVL25:
  92:..\..\..\..\..\..\Software\uCOS-II\Source/os_task.c ****     }
 324              		.loc 1 92 17 view .LVU110
 325 0116 8EE7     		b	.L5
 326              	.LVL26:
 327              	.L17:
  96:..\..\..\..\..\..\Software\uCOS-II\Source/os_task.c ****         return (OS_ERR_PRIO);
 328              		.loc 1 96 9 is_stmt 1 view .LVU111
  96:..\..\..\..\..\..\Software\uCOS-II\Source/os_task.c ****         return (OS_ERR_PRIO);
 329              		.loc 1 96 9 view .LVU112
 330 0118 0198     		ldr	r0, [sp, #4]
 331              	.LVL27:
  96:..\..\..\..\..\..\Software\uCOS-II\Source/os_task.c ****         return (OS_ERR_PRIO);
 332              		.loc 1 96 9 is_stmt 0 view .LVU113
 333 011a FFF7FEFF 		bl	OS_CPU_SR_Restore
 334              	.LVL28:
  97:..\..\..\..\..\..\Software\uCOS-II\Source/os_task.c ****     }
 335              		.loc 1 97 9 is_stmt 1 view .LVU114
  97:..\..\..\..\..\..\Software\uCOS-II\Source/os_task.c ****     }
 336              		.loc 1 97 16 is_stmt 0 view .LVU115
ARM GAS  C:\Users\EDULU~1.DES\AppData\Local\Temp\ccgrKYGn.s 			page 10


 337 011e 2920     		movs	r0, #41
 338 0120 0BE0     		b	.L3
 339              	.LVL29:
 340              	.L18:
 100:..\..\..\..\..\..\Software\uCOS-II\Source/os_task.c ****         return (OS_ERR_TASK_NOT_EXIST);
 341              		.loc 1 100 9 is_stmt 1 view .LVU116
 100:..\..\..\..\..\..\Software\uCOS-II\Source/os_task.c ****         return (OS_ERR_TASK_NOT_EXIST);
 342              		.loc 1 100 9 view .LVU117
 343 0122 0198     		ldr	r0, [sp, #4]
 344              	.LVL30:
 100:..\..\..\..\..\..\Software\uCOS-II\Source/os_task.c ****         return (OS_ERR_TASK_NOT_EXIST);
 345              		.loc 1 100 9 is_stmt 0 view .LVU118
 346 0124 FFF7FEFF 		bl	OS_CPU_SR_Restore
 347              	.LVL31:
 101:..\..\..\..\..\..\Software\uCOS-II\Source/os_task.c ****     }
 348              		.loc 1 101 9 is_stmt 1 view .LVU119
 101:..\..\..\..\..\..\Software\uCOS-II\Source/os_task.c ****     }
 349              		.loc 1 101 16 is_stmt 0 view .LVU120
 350 0128 4320     		movs	r0, #67
 351 012a 06E0     		b	.L3
 352              	.LVL32:
 353              	.L19:
 162:..\..\..\..\..\..\Software\uCOS-II\Source/os_task.c ****     }
 354              		.loc 1 162 9 is_stmt 1 view .LVU121
 355 012c FFF7FEFF 		bl	OS_Sched
 356              	.LVL33:
 357              		.loc 1 164 12 is_stmt 0 view .LVU122
 358 0130 0020     		movs	r0, #0
 359 0132 02E0     		b	.L3
 360              	.LVL34:
 361              	.L12:
  79:..\..\..\..\..\..\Software\uCOS-II\Source/os_task.c ****         }
 362              		.loc 1 79 20 view .LVU123
 363 0134 2A20     		movs	r0, #42
 364              	.LVL35:
  79:..\..\..\..\..\..\Software\uCOS-II\Source/os_task.c ****         }
 365              		.loc 1 79 20 view .LVU124
 366 0136 00E0     		b	.L3
 367              	.LVL36:
 368              	.L13:
  83:..\..\..\..\..\..\Software\uCOS-II\Source/os_task.c ****     }
 369              		.loc 1 83 16 view .LVU125
 370 0138 2A20     		movs	r0, #42
 371              	.LVL37:
 372              	.L3:
 165:..\..\..\..\..\..\Software\uCOS-II\Source/os_task.c **** }
 373              		.loc 1 165 1 view .LVU126
 374 013a 03B0     		add	sp, sp, #12
 375              		@ sp needed
 376 013c 3CBC     		pop	{r2, r3, r4, r5}
 377 013e 9046     		mov	r8, r2
 378 0140 9946     		mov	r9, r3
 379 0142 A246     		mov	r10, r4
 380 0144 AB46     		mov	fp, r5
 381 0146 F0BD     		pop	{r4, r5, r6, r7, pc}
 382              	.L21:
 383              		.align	2
ARM GAS  C:\Users\EDULU~1.DES\AppData\Local\Temp\ccgrKYGn.s 			page 11


 384              	.L20:
 385 0148 00000000 		.word	OSTCBPrioTbl
 386 014c 00000000 		.word	OSRdyTbl
 387 0150 00000000 		.word	OSRdyGrp
 388 0154 00000000 		.word	OSRunning
 389 0158 00000000 		.word	OSTCBCur
 390              		.cfi_endproc
 391              	.LFE3:
 392              		.size	OSTaskChangePrio, .-OSTaskChangePrio
 393              		.section	.text.OSTaskCreate,"ax",%progbits
 394              		.align	1
 395              		.global	OSTaskCreate
 396              		.syntax unified
 397              		.code	16
 398              		.thumb_func
 399              		.fpu softvfp
 400              		.type	OSTaskCreate, %function
 401              	OSTaskCreate:
 402              	.LVL38:
 403              	.LFB4:
 166:..\..\..\..\..\..\Software\uCOS-II\Source/os_task.c **** #endif
 167:..\..\..\..\..\..\Software\uCOS-II\Source/os_task.c **** /*$PAGE*/
 168:..\..\..\..\..\..\Software\uCOS-II\Source/os_task.c **** /*
 169:..\..\..\..\..\..\Software\uCOS-II\Source/os_task.c **** ***************************************************************************************************
 170:..\..\..\..\..\..\Software\uCOS-II\Source/os_task.c **** *                                            CREATE A TASK
 171:..\..\..\..\..\..\Software\uCOS-II\Source/os_task.c **** *
 172:..\..\..\..\..\..\Software\uCOS-II\Source/os_task.c **** * Description: This function is used to have uC/OS-II manage the execution of a task.  Tasks can ei
 173:..\..\..\..\..\..\Software\uCOS-II\Source/os_task.c **** *              be created prior to the start of multitasking or by a running task.  A task cannot b
 174:..\..\..\..\..\..\Software\uCOS-II\Source/os_task.c **** *              created by an ISR.
 175:..\..\..\..\..\..\Software\uCOS-II\Source/os_task.c **** *
 176:..\..\..\..\..\..\Software\uCOS-II\Source/os_task.c **** * Arguments  : task     is a pointer to the task's code
 177:..\..\..\..\..\..\Software\uCOS-II\Source/os_task.c **** *
 178:..\..\..\..\..\..\Software\uCOS-II\Source/os_task.c **** *              p_arg    is a pointer to an optional data area which can be used to pass parameters 
 179:..\..\..\..\..\..\Software\uCOS-II\Source/os_task.c **** *                       the task when the task first executes.  Where the task is concerned it thin
 180:..\..\..\..\..\..\Software\uCOS-II\Source/os_task.c **** *                       it was invoked and passed the argument 'p_arg' as follows:
 181:..\..\..\..\..\..\Software\uCOS-II\Source/os_task.c **** *
 182:..\..\..\..\..\..\Software\uCOS-II\Source/os_task.c **** *                           void Task (void *p_arg)
 183:..\..\..\..\..\..\Software\uCOS-II\Source/os_task.c **** *                           {
 184:..\..\..\..\..\..\Software\uCOS-II\Source/os_task.c **** *                               for (;;) {
 185:..\..\..\..\..\..\Software\uCOS-II\Source/os_task.c **** *                                   Task code;
 186:..\..\..\..\..\..\Software\uCOS-II\Source/os_task.c **** *                               }
 187:..\..\..\..\..\..\Software\uCOS-II\Source/os_task.c **** *                           }
 188:..\..\..\..\..\..\Software\uCOS-II\Source/os_task.c **** *
 189:..\..\..\..\..\..\Software\uCOS-II\Source/os_task.c **** *              ptos     is a pointer to the task's top of stack.  If the configuration constant
 190:..\..\..\..\..\..\Software\uCOS-II\Source/os_task.c **** *                       OS_STK_GROWTH is set to 1, the stack is assumed to grow downward (i.e. from
 191:..\..\..\..\..\..\Software\uCOS-II\Source/os_task.c **** *                       memory to low memory).  'pstk' will thus point to the highest (valid) memor
 192:..\..\..\..\..\..\Software\uCOS-II\Source/os_task.c **** *                       location of the stack.  If OS_STK_GROWTH is set to 0, 'pstk' will point to 
 193:..\..\..\..\..\..\Software\uCOS-II\Source/os_task.c **** *                       lowest memory location of the stack and the stack will grow with increasing
 194:..\..\..\..\..\..\Software\uCOS-II\Source/os_task.c **** *                       memory locations.
 195:..\..\..\..\..\..\Software\uCOS-II\Source/os_task.c **** *
 196:..\..\..\..\..\..\Software\uCOS-II\Source/os_task.c **** *              prio     is the task's priority.  A unique priority MUST be assigned to each task an
 197:..\..\..\..\..\..\Software\uCOS-II\Source/os_task.c **** *                       lower the number, the higher the priority.
 198:..\..\..\..\..\..\Software\uCOS-II\Source/os_task.c **** *
 199:..\..\..\..\..\..\Software\uCOS-II\Source/os_task.c **** * Returns    : OS_ERR_NONE                      if the function was successful.
 200:..\..\..\..\..\..\Software\uCOS-II\Source/os_task.c **** *              OS_ERR_PRIO_EXIST                if the task priority already exist
 201:..\..\..\..\..\..\Software\uCOS-II\Source/os_task.c **** *                                               (each task MUST have a unique priority).
 202:..\..\..\..\..\..\Software\uCOS-II\Source/os_task.c **** *              OS_ERR_PRIO_INVALID              if the priority you specify is higher that the maxi
ARM GAS  C:\Users\EDULU~1.DES\AppData\Local\Temp\ccgrKYGn.s 			page 12


 203:..\..\..\..\..\..\Software\uCOS-II\Source/os_task.c **** *                                               allowed (i.e. >= OS_LOWEST_PRIO)
 204:..\..\..\..\..\..\Software\uCOS-II\Source/os_task.c **** *              OS_ERR_TASK_CREATE_ISR           if you tried to create a task from an ISR.
 205:..\..\..\..\..\..\Software\uCOS-II\Source/os_task.c **** *              OS_ERR_ILLEGAL_CREATE_RUN_TIME   if you tried to create a task after safety critical
 206:..\..\..\..\..\..\Software\uCOS-II\Source/os_task.c **** *                                               operation started.
 207:..\..\..\..\..\..\Software\uCOS-II\Source/os_task.c **** ***************************************************************************************************
 208:..\..\..\..\..\..\Software\uCOS-II\Source/os_task.c **** */
 209:..\..\..\..\..\..\Software\uCOS-II\Source/os_task.c **** 
 210:..\..\..\..\..\..\Software\uCOS-II\Source/os_task.c **** #if OS_TASK_CREATE_EN > 0u
 211:..\..\..\..\..\..\Software\uCOS-II\Source/os_task.c **** INT8U  OSTaskCreate (void   (*task)(void *p_arg),
 212:..\..\..\..\..\..\Software\uCOS-II\Source/os_task.c ****                      void    *p_arg,
 213:..\..\..\..\..\..\Software\uCOS-II\Source/os_task.c ****                      OS_STK  *ptos,
 214:..\..\..\..\..\..\Software\uCOS-II\Source/os_task.c ****                      INT8U    prio)
 215:..\..\..\..\..\..\Software\uCOS-II\Source/os_task.c **** {
 404              		.loc 1 215 1 is_stmt 1 view -0
 405              		.cfi_startproc
 406              		@ args = 0, pretend = 0, frame = 0
 407              		@ frame_needed = 0, uses_anonymous_args = 0
 408              		.loc 1 215 1 is_stmt 0 view .LVU128
 409 0000 F0B5     		push	{r4, r5, r6, r7, lr}
 410              		.cfi_def_cfa_offset 20
 411              		.cfi_offset 4, -20
 412              		.cfi_offset 5, -16
 413              		.cfi_offset 6, -12
 414              		.cfi_offset 7, -8
 415              		.cfi_offset 14, -4
 416 0002 85B0     		sub	sp, sp, #20
 417              		.cfi_def_cfa_offset 40
 418 0004 0500     		movs	r5, r0
 419 0006 0E00     		movs	r6, r1
 420 0008 1700     		movs	r7, r2
 421 000a 1C00     		movs	r4, r3
 216:..\..\..\..\..\..\Software\uCOS-II\Source/os_task.c ****     OS_STK     *psp;
 422              		.loc 1 216 5 is_stmt 1 view .LVU129
 217:..\..\..\..\..\..\Software\uCOS-II\Source/os_task.c ****     INT8U       err;
 423              		.loc 1 217 5 view .LVU130
 218:..\..\..\..\..\..\Software\uCOS-II\Source/os_task.c **** #if OS_CRITICAL_METHOD == 3u                 /* Allocate storage for CPU status register           
 219:..\..\..\..\..\..\Software\uCOS-II\Source/os_task.c ****     OS_CPU_SR   cpu_sr = 0u;
 424              		.loc 1 219 5 view .LVU131
 425              	.LVL39:
 220:..\..\..\..\..\..\Software\uCOS-II\Source/os_task.c **** #endif
 221:..\..\..\..\..\..\Software\uCOS-II\Source/os_task.c **** 
 222:..\..\..\..\..\..\Software\uCOS-II\Source/os_task.c **** 
 223:..\..\..\..\..\..\Software\uCOS-II\Source/os_task.c **** 
 224:..\..\..\..\..\..\Software\uCOS-II\Source/os_task.c **** #ifdef OS_SAFETY_CRITICAL_IEC61508
 225:..\..\..\..\..\..\Software\uCOS-II\Source/os_task.c ****     if (OSSafetyCriticalStartFlag == OS_TRUE) {
 226:..\..\..\..\..\..\Software\uCOS-II\Source/os_task.c ****         OS_SAFETY_CRITICAL_EXCEPTION();
 227:..\..\..\..\..\..\Software\uCOS-II\Source/os_task.c ****         return (OS_ERR_ILLEGAL_CREATE_RUN_TIME);
 228:..\..\..\..\..\..\Software\uCOS-II\Source/os_task.c ****     }
 229:..\..\..\..\..\..\Software\uCOS-II\Source/os_task.c **** #endif
 230:..\..\..\..\..\..\Software\uCOS-II\Source/os_task.c **** 
 231:..\..\..\..\..\..\Software\uCOS-II\Source/os_task.c **** #if OS_ARG_CHK_EN > 0u
 232:..\..\..\..\..\..\Software\uCOS-II\Source/os_task.c ****     if (prio > OS_LOWEST_PRIO) {             /* Make sure priority is within allowable range       
 426              		.loc 1 232 5 view .LVU132
 427              		.loc 1 232 8 is_stmt 0 view .LVU133
 428 000c 1F2B     		cmp	r3, #31
 429 000e 3AD8     		bhi	.L28
 233:..\..\..\..\..\..\Software\uCOS-II\Source/os_task.c ****         return (OS_ERR_PRIO_INVALID);
ARM GAS  C:\Users\EDULU~1.DES\AppData\Local\Temp\ccgrKYGn.s 			page 13


 234:..\..\..\..\..\..\Software\uCOS-II\Source/os_task.c ****     }
 235:..\..\..\..\..\..\Software\uCOS-II\Source/os_task.c **** #endif
 236:..\..\..\..\..\..\Software\uCOS-II\Source/os_task.c ****     OS_ENTER_CRITICAL();
 430              		.loc 1 236 5 is_stmt 1 view .LVU134
 431              		.loc 1 236 5 view .LVU135
 432 0010 FFF7FEFF 		bl	OS_CPU_SR_Save
 433              	.LVL40:
 237:..\..\..\..\..\..\Software\uCOS-II\Source/os_task.c ****     if (OSIntNesting > 0u) {                 /* Make sure we don't create the task from within an I
 434              		.loc 1 237 5 view .LVU136
 435              		.loc 1 237 22 is_stmt 0 view .LVU137
 436 0014 1D4B     		ldr	r3, .L31
 437 0016 1B78     		ldrb	r3, [r3]
 438              		.loc 1 237 8 view .LVU138
 439 0018 002B     		cmp	r3, #0
 440 001a 0AD1     		bne	.L29
 238:..\..\..\..\..\..\Software\uCOS-II\Source/os_task.c ****         OS_EXIT_CRITICAL();
 239:..\..\..\..\..\..\Software\uCOS-II\Source/os_task.c ****         return (OS_ERR_TASK_CREATE_ISR);
 240:..\..\..\..\..\..\Software\uCOS-II\Source/os_task.c ****     }
 241:..\..\..\..\..\..\Software\uCOS-II\Source/os_task.c ****     if (OSTCBPrioTbl[prio] == (OS_TCB *)0) { /* Make sure task doesn't already exist at this priori
 441              		.loc 1 241 5 is_stmt 1 view .LVU139
 442              		.loc 1 241 21 is_stmt 0 view .LVU140
 443 001c A300     		lsls	r3, r4, #2
 444 001e 1C4A     		ldr	r2, .L31+4
 445 0020 9B58     		ldr	r3, [r3, r2]
 446              		.loc 1 241 8 view .LVU141
 447 0022 002B     		cmp	r3, #0
 448 0024 09D0     		beq	.L30
 242:..\..\..\..\..\..\Software\uCOS-II\Source/os_task.c ****         OSTCBPrioTbl[prio] = OS_TCB_RESERVED;/* Reserve the priority to prevent others from doing .
 243:..\..\..\..\..\..\Software\uCOS-II\Source/os_task.c ****                                              /* ... the same thing until task is created.          
 244:..\..\..\..\..\..\Software\uCOS-II\Source/os_task.c ****         OS_EXIT_CRITICAL();
 245:..\..\..\..\..\..\Software\uCOS-II\Source/os_task.c ****         psp = OSTaskStkInit(task, p_arg, ptos, 0u);             /* Initialize the task's stack     
 246:..\..\..\..\..\..\Software\uCOS-II\Source/os_task.c ****         err = OS_TCBInit(prio, psp, (OS_STK *)0, 0u, 0u, (void *)0, 0u);
 247:..\..\..\..\..\..\Software\uCOS-II\Source/os_task.c ****         if (err == OS_ERR_NONE) {
 248:..\..\..\..\..\..\Software\uCOS-II\Source/os_task.c ****             if (OSRunning == OS_TRUE) {      /* Find highest priority task if multitasking has star
 249:..\..\..\..\..\..\Software\uCOS-II\Source/os_task.c ****                 OS_Sched();
 250:..\..\..\..\..\..\Software\uCOS-II\Source/os_task.c ****             }
 251:..\..\..\..\..\..\Software\uCOS-II\Source/os_task.c ****         } else {
 252:..\..\..\..\..\..\Software\uCOS-II\Source/os_task.c ****             OS_ENTER_CRITICAL();
 253:..\..\..\..\..\..\Software\uCOS-II\Source/os_task.c ****             OSTCBPrioTbl[prio] = (OS_TCB *)0;/* Make this priority available to others             
 254:..\..\..\..\..\..\Software\uCOS-II\Source/os_task.c ****             OS_EXIT_CRITICAL();
 255:..\..\..\..\..\..\Software\uCOS-II\Source/os_task.c ****         }
 256:..\..\..\..\..\..\Software\uCOS-II\Source/os_task.c ****         return (err);
 257:..\..\..\..\..\..\Software\uCOS-II\Source/os_task.c ****     }
 258:..\..\..\..\..\..\Software\uCOS-II\Source/os_task.c ****     OS_EXIT_CRITICAL();
 449              		.loc 1 258 5 is_stmt 1 view .LVU142
 450              		.loc 1 258 5 view .LVU143
 451 0026 FFF7FEFF 		bl	OS_CPU_SR_Restore
 452              	.LVL41:
 259:..\..\..\..\..\..\Software\uCOS-II\Source/os_task.c ****     return (OS_ERR_PRIO_EXIST);
 453              		.loc 1 259 5 view .LVU144
 454              		.loc 1 259 12 is_stmt 0 view .LVU145
 455 002a 2825     		movs	r5, #40
 456              	.LVL42:
 457              	.L23:
 260:..\..\..\..\..\..\Software\uCOS-II\Source/os_task.c **** }
 458              		.loc 1 260 1 view .LVU146
 459 002c 2800     		movs	r0, r5
ARM GAS  C:\Users\EDULU~1.DES\AppData\Local\Temp\ccgrKYGn.s 			page 14


 460 002e 05B0     		add	sp, sp, #20
 461              		@ sp needed
 462              	.LVL43:
 463              	.LVL44:
 464              		.loc 1 260 1 view .LVU147
 465 0030 F0BD     		pop	{r4, r5, r6, r7, pc}
 466              	.LVL45:
 467              	.L29:
 238:..\..\..\..\..\..\Software\uCOS-II\Source/os_task.c ****         return (OS_ERR_TASK_CREATE_ISR);
 468              		.loc 1 238 9 is_stmt 1 view .LVU148
 238:..\..\..\..\..\..\Software\uCOS-II\Source/os_task.c ****         return (OS_ERR_TASK_CREATE_ISR);
 469              		.loc 1 238 9 view .LVU149
 470 0032 FFF7FEFF 		bl	OS_CPU_SR_Restore
 471              	.LVL46:
 239:..\..\..\..\..\..\Software\uCOS-II\Source/os_task.c ****     }
 472              		.loc 1 239 9 view .LVU150
 239:..\..\..\..\..\..\Software\uCOS-II\Source/os_task.c ****     }
 473              		.loc 1 239 16 is_stmt 0 view .LVU151
 474 0036 3C25     		movs	r5, #60
 475              	.LVL47:
 239:..\..\..\..\..\..\Software\uCOS-II\Source/os_task.c ****     }
 476              		.loc 1 239 16 view .LVU152
 477 0038 F8E7     		b	.L23
 478              	.LVL48:
 479              	.L30:
 242:..\..\..\..\..\..\Software\uCOS-II\Source/os_task.c ****                                              /* ... the same thing until task is created.          
 480              		.loc 1 242 9 is_stmt 1 view .LVU153
 242:..\..\..\..\..\..\Software\uCOS-II\Source/os_task.c ****                                              /* ... the same thing until task is created.          
 481              		.loc 1 242 28 is_stmt 0 view .LVU154
 482 003a A300     		lsls	r3, r4, #2
 483 003c 0121     		movs	r1, #1
 484 003e 9950     		str	r1, [r3, r2]
 244:..\..\..\..\..\..\Software\uCOS-II\Source/os_task.c ****         psp = OSTaskStkInit(task, p_arg, ptos, 0u);             /* Initialize the task's stack     
 485              		.loc 1 244 9 is_stmt 1 view .LVU155
 244:..\..\..\..\..\..\Software\uCOS-II\Source/os_task.c ****         psp = OSTaskStkInit(task, p_arg, ptos, 0u);             /* Initialize the task's stack     
 486              		.loc 1 244 9 view .LVU156
 487 0040 FFF7FEFF 		bl	OS_CPU_SR_Restore
 488              	.LVL49:
 245:..\..\..\..\..\..\Software\uCOS-II\Source/os_task.c ****         err = OS_TCBInit(prio, psp, (OS_STK *)0, 0u, 0u, (void *)0, 0u);
 489              		.loc 1 245 9 view .LVU157
 245:..\..\..\..\..\..\Software\uCOS-II\Source/os_task.c ****         err = OS_TCBInit(prio, psp, (OS_STK *)0, 0u, 0u, (void *)0, 0u);
 490              		.loc 1 245 15 is_stmt 0 view .LVU158
 491 0044 0023     		movs	r3, #0
 492 0046 3A00     		movs	r2, r7
 493 0048 3100     		movs	r1, r6
 494 004a 2800     		movs	r0, r5
 495 004c FFF7FEFF 		bl	OSTaskStkInit
 496              	.LVL50:
 497 0050 0100     		movs	r1, r0
 498              	.LVL51:
 246:..\..\..\..\..\..\Software\uCOS-II\Source/os_task.c ****         if (err == OS_ERR_NONE) {
 499              		.loc 1 246 9 is_stmt 1 view .LVU159
 246:..\..\..\..\..\..\Software\uCOS-II\Source/os_task.c ****         if (err == OS_ERR_NONE) {
 500              		.loc 1 246 15 is_stmt 0 view .LVU160
 501 0052 0023     		movs	r3, #0
 502 0054 0293     		str	r3, [sp, #8]
 503 0056 0193     		str	r3, [sp, #4]
ARM GAS  C:\Users\EDULU~1.DES\AppData\Local\Temp\ccgrKYGn.s 			page 15


 504 0058 0093     		str	r3, [sp]
 505 005a 0022     		movs	r2, #0
 506 005c 2000     		movs	r0, r4
 507              	.LVL52:
 246:..\..\..\..\..\..\Software\uCOS-II\Source/os_task.c ****         if (err == OS_ERR_NONE) {
 508              		.loc 1 246 15 view .LVU161
 509 005e FFF7FEFF 		bl	OS_TCBInit
 510              	.LVL53:
 246:..\..\..\..\..\..\Software\uCOS-II\Source/os_task.c ****         if (err == OS_ERR_NONE) {
 511              		.loc 1 246 15 view .LVU162
 512 0062 051E     		subs	r5, r0, #0
 513              	.LVL54:
 247:..\..\..\..\..\..\Software\uCOS-II\Source/os_task.c ****             if (OSRunning == OS_TRUE) {      /* Find highest priority task if multitasking has star
 514              		.loc 1 247 9 is_stmt 1 view .LVU163
 247:..\..\..\..\..\..\Software\uCOS-II\Source/os_task.c ****             if (OSRunning == OS_TRUE) {      /* Find highest priority task if multitasking has star
 515              		.loc 1 247 12 is_stmt 0 view .LVU164
 516 0064 06D1     		bne	.L26
 248:..\..\..\..\..\..\Software\uCOS-II\Source/os_task.c ****                 OS_Sched();
 517              		.loc 1 248 13 is_stmt 1 view .LVU165
 248:..\..\..\..\..\..\Software\uCOS-II\Source/os_task.c ****                 OS_Sched();
 518              		.loc 1 248 27 is_stmt 0 view .LVU166
 519 0066 0B4B     		ldr	r3, .L31+8
 520 0068 1B78     		ldrb	r3, [r3]
 248:..\..\..\..\..\..\Software\uCOS-II\Source/os_task.c ****                 OS_Sched();
 521              		.loc 1 248 16 view .LVU167
 522 006a 012B     		cmp	r3, #1
 523 006c DED1     		bne	.L23
 249:..\..\..\..\..\..\Software\uCOS-II\Source/os_task.c ****             }
 524              		.loc 1 249 17 is_stmt 1 view .LVU168
 525 006e FFF7FEFF 		bl	OS_Sched
 526              	.LVL55:
 249:..\..\..\..\..\..\Software\uCOS-II\Source/os_task.c ****             }
 527              		.loc 1 249 17 is_stmt 0 view .LVU169
 528 0072 DBE7     		b	.L23
 529              	.LVL56:
 530              	.L26:
 252:..\..\..\..\..\..\Software\uCOS-II\Source/os_task.c ****             OSTCBPrioTbl[prio] = (OS_TCB *)0;/* Make this priority available to others             
 531              		.loc 1 252 13 is_stmt 1 view .LVU170
 252:..\..\..\..\..\..\Software\uCOS-II\Source/os_task.c ****             OSTCBPrioTbl[prio] = (OS_TCB *)0;/* Make this priority available to others             
 532              		.loc 1 252 13 view .LVU171
 533 0074 FFF7FEFF 		bl	OS_CPU_SR_Save
 534              	.LVL57:
 253:..\..\..\..\..\..\Software\uCOS-II\Source/os_task.c ****             OS_EXIT_CRITICAL();
 535              		.loc 1 253 13 view .LVU172
 253:..\..\..\..\..\..\Software\uCOS-II\Source/os_task.c ****             OS_EXIT_CRITICAL();
 536              		.loc 1 253 32 is_stmt 0 view .LVU173
 537 0078 A400     		lsls	r4, r4, #2
 538 007a 054B     		ldr	r3, .L31+4
 539 007c 0022     		movs	r2, #0
 540 007e E250     		str	r2, [r4, r3]
 254:..\..\..\..\..\..\Software\uCOS-II\Source/os_task.c ****         }
 541              		.loc 1 254 13 is_stmt 1 view .LVU174
 254:..\..\..\..\..\..\Software\uCOS-II\Source/os_task.c ****         }
 542              		.loc 1 254 13 view .LVU175
 543 0080 FFF7FEFF 		bl	OS_CPU_SR_Restore
 544              	.LVL58:
 256:..\..\..\..\..\..\Software\uCOS-II\Source/os_task.c ****     }
ARM GAS  C:\Users\EDULU~1.DES\AppData\Local\Temp\ccgrKYGn.s 			page 16


 545              		.loc 1 256 9 view .LVU176
 256:..\..\..\..\..\..\Software\uCOS-II\Source/os_task.c ****     }
 546              		.loc 1 256 16 is_stmt 0 view .LVU177
 547 0084 D2E7     		b	.L23
 548              	.LVL59:
 549              	.L28:
 233:..\..\..\..\..\..\Software\uCOS-II\Source/os_task.c ****     }
 550              		.loc 1 233 16 view .LVU178
 551 0086 2A25     		movs	r5, #42
 552 0088 D0E7     		b	.L23
 553              	.L32:
 554 008a C046     		.align	2
 555              	.L31:
 556 008c 00000000 		.word	OSIntNesting
 557 0090 00000000 		.word	OSTCBPrioTbl
 558 0094 00000000 		.word	OSRunning
 559              		.cfi_endproc
 560              	.LFE4:
 561              		.size	OSTaskCreate, .-OSTaskCreate
 562              		.section	.text.OSTaskResume,"ax",%progbits
 563              		.align	1
 564              		.global	OSTaskResume
 565              		.syntax unified
 566              		.code	16
 567              		.thumb_func
 568              		.fpu softvfp
 569              		.type	OSTaskResume, %function
 570              	OSTaskResume:
 571              	.LVL60:
 572              	.LFB6:
 261:..\..\..\..\..\..\Software\uCOS-II\Source/os_task.c **** #endif
 262:..\..\..\..\..\..\Software\uCOS-II\Source/os_task.c **** /*$PAGE*/
 263:..\..\..\..\..\..\Software\uCOS-II\Source/os_task.c **** /*
 264:..\..\..\..\..\..\Software\uCOS-II\Source/os_task.c **** ***************************************************************************************************
 265:..\..\..\..\..\..\Software\uCOS-II\Source/os_task.c **** *                                  CREATE A TASK (Extended Version)
 266:..\..\..\..\..\..\Software\uCOS-II\Source/os_task.c **** *
 267:..\..\..\..\..\..\Software\uCOS-II\Source/os_task.c **** * Description: This function is used to have uC/OS-II manage the execution of a task.  Tasks can ei
 268:..\..\..\..\..\..\Software\uCOS-II\Source/os_task.c **** *              be created prior to the start of multitasking or by a running task.  A task cannot b
 269:..\..\..\..\..\..\Software\uCOS-II\Source/os_task.c **** *              created by an ISR.  This function is similar to OSTaskCreate() except that it allows
 270:..\..\..\..\..\..\Software\uCOS-II\Source/os_task.c **** *              additional information about a task to be specified.
 271:..\..\..\..\..\..\Software\uCOS-II\Source/os_task.c **** *
 272:..\..\..\..\..\..\Software\uCOS-II\Source/os_task.c **** * Arguments  : task      is a pointer to the task's code
 273:..\..\..\..\..\..\Software\uCOS-II\Source/os_task.c **** *
 274:..\..\..\..\..\..\Software\uCOS-II\Source/os_task.c **** *              p_arg     is a pointer to an optional data area which can be used to pass parameters
 275:..\..\..\..\..\..\Software\uCOS-II\Source/os_task.c **** *                        the task when the task first executes.  Where the task is concerned it thi
 276:..\..\..\..\..\..\Software\uCOS-II\Source/os_task.c **** *                        it was invoked and passed the argument 'p_arg' as follows:
 277:..\..\..\..\..\..\Software\uCOS-II\Source/os_task.c **** *
 278:..\..\..\..\..\..\Software\uCOS-II\Source/os_task.c **** *                            void Task (void *p_arg)
 279:..\..\..\..\..\..\Software\uCOS-II\Source/os_task.c **** *                            {
 280:..\..\..\..\..\..\Software\uCOS-II\Source/os_task.c **** *                                for (;;) {
 281:..\..\..\..\..\..\Software\uCOS-II\Source/os_task.c **** *                                    Task code;
 282:..\..\..\..\..\..\Software\uCOS-II\Source/os_task.c **** *                                }
 283:..\..\..\..\..\..\Software\uCOS-II\Source/os_task.c **** *                            }
 284:..\..\..\..\..\..\Software\uCOS-II\Source/os_task.c **** *
 285:..\..\..\..\..\..\Software\uCOS-II\Source/os_task.c **** *              ptos      is a pointer to the task's top of stack.  If the configuration constant
 286:..\..\..\..\..\..\Software\uCOS-II\Source/os_task.c **** *                        OS_STK_GROWTH is set to 1, the stack is assumed to grow downward (i.e. fro
 287:..\..\..\..\..\..\Software\uCOS-II\Source/os_task.c **** *                        memory to low memory).  'ptos' will thus point to the highest (valid) memo
ARM GAS  C:\Users\EDULU~1.DES\AppData\Local\Temp\ccgrKYGn.s 			page 17


 288:..\..\..\..\..\..\Software\uCOS-II\Source/os_task.c **** *                        location of the stack.  If OS_STK_GROWTH is set to 0, 'ptos' will point to
 289:..\..\..\..\..\..\Software\uCOS-II\Source/os_task.c **** *                        lowest memory location of the stack and the stack will grow with increasin
 290:..\..\..\..\..\..\Software\uCOS-II\Source/os_task.c **** *                        memory locations.  'ptos' MUST point to a valid 'free' data item.
 291:..\..\..\..\..\..\Software\uCOS-II\Source/os_task.c **** *
 292:..\..\..\..\..\..\Software\uCOS-II\Source/os_task.c **** *              prio      is the task's priority.  A unique priority MUST be assigned to each task a
 293:..\..\..\..\..\..\Software\uCOS-II\Source/os_task.c **** *                        lower the number, the higher the priority.
 294:..\..\..\..\..\..\Software\uCOS-II\Source/os_task.c **** *
 295:..\..\..\..\..\..\Software\uCOS-II\Source/os_task.c **** *              id        is the task's ID (0..65535)
 296:..\..\..\..\..\..\Software\uCOS-II\Source/os_task.c **** *
 297:..\..\..\..\..\..\Software\uCOS-II\Source/os_task.c **** *              pbos      is a pointer to the task's bottom of stack.  If the configuration constant
 298:..\..\..\..\..\..\Software\uCOS-II\Source/os_task.c **** *                        OS_STK_GROWTH is set to 1, the stack is assumed to grow downward (i.e. fro
 299:..\..\..\..\..\..\Software\uCOS-II\Source/os_task.c **** *                        memory to low memory).  'pbos' will thus point to the LOWEST (valid) memor
 300:..\..\..\..\..\..\Software\uCOS-II\Source/os_task.c **** *                        location of the stack.  If OS_STK_GROWTH is set to 0, 'pbos' will point to
 301:..\..\..\..\..\..\Software\uCOS-II\Source/os_task.c **** *                        HIGHEST memory location of the stack and the stack will grow with increasi
 302:..\..\..\..\..\..\Software\uCOS-II\Source/os_task.c **** *                        memory locations.  'pbos' MUST point to a valid 'free' data item.
 303:..\..\..\..\..\..\Software\uCOS-II\Source/os_task.c **** *
 304:..\..\..\..\..\..\Software\uCOS-II\Source/os_task.c **** *              stk_size  is the size of the stack in number of elements.  If OS_STK is set to INT8U
 305:..\..\..\..\..\..\Software\uCOS-II\Source/os_task.c **** *                        'stk_size' corresponds to the number of bytes available.  If OS_STK is set
 306:..\..\..\..\..\..\Software\uCOS-II\Source/os_task.c **** *                        INT16U, 'stk_size' contains the number of 16-bit entries available.  Final
 307:..\..\..\..\..\..\Software\uCOS-II\Source/os_task.c **** *                        OS_STK is set to INT32U, 'stk_size' contains the number of 32-bit entries
 308:..\..\..\..\..\..\Software\uCOS-II\Source/os_task.c **** *                        available on the stack.
 309:..\..\..\..\..\..\Software\uCOS-II\Source/os_task.c **** *
 310:..\..\..\..\..\..\Software\uCOS-II\Source/os_task.c **** *              pext      is a pointer to a user supplied memory location which is used as a TCB ext
 311:..\..\..\..\..\..\Software\uCOS-II\Source/os_task.c **** *                        For example, this user memory can hold the contents of floating-point regi
 312:..\..\..\..\..\..\Software\uCOS-II\Source/os_task.c **** *                        during a context switch, the time each task takes to execute, the number o
 313:..\..\..\..\..\..\Software\uCOS-II\Source/os_task.c **** *                        the task has been switched-in, etc.
 314:..\..\..\..\..\..\Software\uCOS-II\Source/os_task.c **** *
 315:..\..\..\..\..\..\Software\uCOS-II\Source/os_task.c **** *              opt       contains additional information (or options) about the behavior of the tas
 316:..\..\..\..\..\..\Software\uCOS-II\Source/os_task.c **** *                        LOWER 8-bits are reserved by uC/OS-II while the upper 8 bits can be applic
 317:..\..\..\..\..\..\Software\uCOS-II\Source/os_task.c **** *                        specific.  See OS_TASK_OPT_??? in uCOS-II.H.  Current choices are:
 318:..\..\..\..\..\..\Software\uCOS-II\Source/os_task.c **** *
 319:..\..\..\..\..\..\Software\uCOS-II\Source/os_task.c **** *                        OS_TASK_OPT_STK_CHK      Stack checking to be allowed for the task
 320:..\..\..\..\..\..\Software\uCOS-II\Source/os_task.c **** *                        OS_TASK_OPT_STK_CLR      Clear the stack when the task is created
 321:..\..\..\..\..\..\Software\uCOS-II\Source/os_task.c **** *                        OS_TASK_OPT_SAVE_FP      If the CPU has floating-point registers, save the
 322:..\..\..\..\..\..\Software\uCOS-II\Source/os_task.c **** *                                                 during a context switch.
 323:..\..\..\..\..\..\Software\uCOS-II\Source/os_task.c **** *
 324:..\..\..\..\..\..\Software\uCOS-II\Source/os_task.c **** * Returns    : OS_ERR_NONE                      if the function was successful.
 325:..\..\..\..\..\..\Software\uCOS-II\Source/os_task.c **** *              OS_ERR_PRIO_EXIST                if the task priority already exist
 326:..\..\..\..\..\..\Software\uCOS-II\Source/os_task.c **** *                                               (each task MUST have a unique priority).
 327:..\..\..\..\..\..\Software\uCOS-II\Source/os_task.c **** *              OS_ERR_PRIO_INVALID              if the priority you specify is higher that the maxi
 328:..\..\..\..\..\..\Software\uCOS-II\Source/os_task.c **** *                                               allowed (i.e. > OS_LOWEST_PRIO)
 329:..\..\..\..\..\..\Software\uCOS-II\Source/os_task.c **** *              OS_ERR_TASK_CREATE_ISR           if you tried to create a task from an ISR.
 330:..\..\..\..\..\..\Software\uCOS-II\Source/os_task.c **** *              OS_ERR_ILLEGAL_CREATE_RUN_TIME   if you tried to create a task after safety critical
 331:..\..\..\..\..\..\Software\uCOS-II\Source/os_task.c **** *                                               operation started.
 332:..\..\..\..\..\..\Software\uCOS-II\Source/os_task.c **** ***************************************************************************************************
 333:..\..\..\..\..\..\Software\uCOS-II\Source/os_task.c **** */
 334:..\..\..\..\..\..\Software\uCOS-II\Source/os_task.c **** /*$PAGE*/
 335:..\..\..\..\..\..\Software\uCOS-II\Source/os_task.c **** #if OS_TASK_CREATE_EXT_EN > 0u
 336:..\..\..\..\..\..\Software\uCOS-II\Source/os_task.c **** INT8U  OSTaskCreateExt (void   (*task)(void *p_arg),
 337:..\..\..\..\..\..\Software\uCOS-II\Source/os_task.c ****                         void    *p_arg,
 338:..\..\..\..\..\..\Software\uCOS-II\Source/os_task.c ****                         OS_STK  *ptos,
 339:..\..\..\..\..\..\Software\uCOS-II\Source/os_task.c ****                         INT8U    prio,
 340:..\..\..\..\..\..\Software\uCOS-II\Source/os_task.c ****                         INT16U   id,
 341:..\..\..\..\..\..\Software\uCOS-II\Source/os_task.c ****                         OS_STK  *pbos,
 342:..\..\..\..\..\..\Software\uCOS-II\Source/os_task.c ****                         INT32U   stk_size,
 343:..\..\..\..\..\..\Software\uCOS-II\Source/os_task.c ****                         void    *pext,
 344:..\..\..\..\..\..\Software\uCOS-II\Source/os_task.c ****                         INT16U   opt)
ARM GAS  C:\Users\EDULU~1.DES\AppData\Local\Temp\ccgrKYGn.s 			page 18


 345:..\..\..\..\..\..\Software\uCOS-II\Source/os_task.c **** {
 346:..\..\..\..\..\..\Software\uCOS-II\Source/os_task.c ****     OS_STK     *psp;
 347:..\..\..\..\..\..\Software\uCOS-II\Source/os_task.c ****     INT8U       err;
 348:..\..\..\..\..\..\Software\uCOS-II\Source/os_task.c **** #if OS_CRITICAL_METHOD == 3u                 /* Allocate storage for CPU status register           
 349:..\..\..\..\..\..\Software\uCOS-II\Source/os_task.c ****     OS_CPU_SR   cpu_sr = 0u;
 350:..\..\..\..\..\..\Software\uCOS-II\Source/os_task.c **** #endif
 351:..\..\..\..\..\..\Software\uCOS-II\Source/os_task.c **** 
 352:..\..\..\..\..\..\Software\uCOS-II\Source/os_task.c **** 
 353:..\..\..\..\..\..\Software\uCOS-II\Source/os_task.c **** 
 354:..\..\..\..\..\..\Software\uCOS-II\Source/os_task.c **** #ifdef OS_SAFETY_CRITICAL_IEC61508
 355:..\..\..\..\..\..\Software\uCOS-II\Source/os_task.c ****     if (OSSafetyCriticalStartFlag == OS_TRUE) {
 356:..\..\..\..\..\..\Software\uCOS-II\Source/os_task.c ****         OS_SAFETY_CRITICAL_EXCEPTION();
 357:..\..\..\..\..\..\Software\uCOS-II\Source/os_task.c ****         return (OS_ERR_ILLEGAL_CREATE_RUN_TIME);
 358:..\..\..\..\..\..\Software\uCOS-II\Source/os_task.c ****     }
 359:..\..\..\..\..\..\Software\uCOS-II\Source/os_task.c **** #endif
 360:..\..\..\..\..\..\Software\uCOS-II\Source/os_task.c **** 
 361:..\..\..\..\..\..\Software\uCOS-II\Source/os_task.c **** #if OS_ARG_CHK_EN > 0u
 362:..\..\..\..\..\..\Software\uCOS-II\Source/os_task.c ****     if (prio > OS_LOWEST_PRIO) {             /* Make sure priority is within allowable range       
 363:..\..\..\..\..\..\Software\uCOS-II\Source/os_task.c ****         return (OS_ERR_PRIO_INVALID);
 364:..\..\..\..\..\..\Software\uCOS-II\Source/os_task.c ****     }
 365:..\..\..\..\..\..\Software\uCOS-II\Source/os_task.c **** #endif
 366:..\..\..\..\..\..\Software\uCOS-II\Source/os_task.c ****     OS_ENTER_CRITICAL();
 367:..\..\..\..\..\..\Software\uCOS-II\Source/os_task.c ****     if (OSIntNesting > 0u) {                 /* Make sure we don't create the task from within an I
 368:..\..\..\..\..\..\Software\uCOS-II\Source/os_task.c ****         OS_EXIT_CRITICAL();
 369:..\..\..\..\..\..\Software\uCOS-II\Source/os_task.c ****         return (OS_ERR_TASK_CREATE_ISR);
 370:..\..\..\..\..\..\Software\uCOS-II\Source/os_task.c ****     }
 371:..\..\..\..\..\..\Software\uCOS-II\Source/os_task.c ****     if (OSTCBPrioTbl[prio] == (OS_TCB *)0) { /* Make sure task doesn't already exist at this priori
 372:..\..\..\..\..\..\Software\uCOS-II\Source/os_task.c ****         OSTCBPrioTbl[prio] = OS_TCB_RESERVED;/* Reserve the priority to prevent others from doing .
 373:..\..\..\..\..\..\Software\uCOS-II\Source/os_task.c ****                                              /* ... the same thing until task is created.          
 374:..\..\..\..\..\..\Software\uCOS-II\Source/os_task.c ****         OS_EXIT_CRITICAL();
 375:..\..\..\..\..\..\Software\uCOS-II\Source/os_task.c **** 
 376:..\..\..\..\..\..\Software\uCOS-II\Source/os_task.c **** #if (OS_TASK_STAT_STK_CHK_EN > 0u)
 377:..\..\..\..\..\..\Software\uCOS-II\Source/os_task.c ****         OS_TaskStkClr(pbos, stk_size, opt);                    /* Clear the task stack (if needed) 
 378:..\..\..\..\..\..\Software\uCOS-II\Source/os_task.c **** #endif
 379:..\..\..\..\..\..\Software\uCOS-II\Source/os_task.c **** 
 380:..\..\..\..\..\..\Software\uCOS-II\Source/os_task.c ****         psp = OSTaskStkInit(task, p_arg, ptos, opt);           /* Initialize the task's stack      
 381:..\..\..\..\..\..\Software\uCOS-II\Source/os_task.c ****         err = OS_TCBInit(prio, psp, pbos, id, stk_size, pext, opt);
 382:..\..\..\..\..\..\Software\uCOS-II\Source/os_task.c ****         if (err == OS_ERR_NONE) {
 383:..\..\..\..\..\..\Software\uCOS-II\Source/os_task.c ****             if (OSRunning == OS_TRUE) {                        /* Find HPT if multitasking has star
 384:..\..\..\..\..\..\Software\uCOS-II\Source/os_task.c ****                 OS_Sched();
 385:..\..\..\..\..\..\Software\uCOS-II\Source/os_task.c ****             }
 386:..\..\..\..\..\..\Software\uCOS-II\Source/os_task.c ****         } else {
 387:..\..\..\..\..\..\Software\uCOS-II\Source/os_task.c ****             OS_ENTER_CRITICAL();
 388:..\..\..\..\..\..\Software\uCOS-II\Source/os_task.c ****             OSTCBPrioTbl[prio] = (OS_TCB *)0;                  /* Make this priority avail. to othe
 389:..\..\..\..\..\..\Software\uCOS-II\Source/os_task.c ****             OS_EXIT_CRITICAL();
 390:..\..\..\..\..\..\Software\uCOS-II\Source/os_task.c ****         }
 391:..\..\..\..\..\..\Software\uCOS-II\Source/os_task.c ****         return (err);
 392:..\..\..\..\..\..\Software\uCOS-II\Source/os_task.c ****     }
 393:..\..\..\..\..\..\Software\uCOS-II\Source/os_task.c ****     OS_EXIT_CRITICAL();
 394:..\..\..\..\..\..\Software\uCOS-II\Source/os_task.c ****     return (OS_ERR_PRIO_EXIST);
 395:..\..\..\..\..\..\Software\uCOS-II\Source/os_task.c **** }
 396:..\..\..\..\..\..\Software\uCOS-II\Source/os_task.c **** #endif
 397:..\..\..\..\..\..\Software\uCOS-II\Source/os_task.c **** /*$PAGE*/
 398:..\..\..\..\..\..\Software\uCOS-II\Source/os_task.c **** /*
 399:..\..\..\..\..\..\Software\uCOS-II\Source/os_task.c **** ***************************************************************************************************
 400:..\..\..\..\..\..\Software\uCOS-II\Source/os_task.c **** *                                            DELETE A TASK
 401:..\..\..\..\..\..\Software\uCOS-II\Source/os_task.c **** *
ARM GAS  C:\Users\EDULU~1.DES\AppData\Local\Temp\ccgrKYGn.s 			page 19


 402:..\..\..\..\..\..\Software\uCOS-II\Source/os_task.c **** * Description: This function allows you to delete a task.  The calling task can delete itself by
 403:..\..\..\..\..\..\Software\uCOS-II\Source/os_task.c **** *              its own priority number.  The deleted task is returned to the dormant state and can 
 404:..\..\..\..\..\..\Software\uCOS-II\Source/os_task.c **** *              re-activated by creating the deleted task again.
 405:..\..\..\..\..\..\Software\uCOS-II\Source/os_task.c **** *
 406:..\..\..\..\..\..\Software\uCOS-II\Source/os_task.c **** * Arguments  : prio    is the priority of the task to delete.  Note that you can explicitly delete
 407:..\..\..\..\..\..\Software\uCOS-II\Source/os_task.c **** *                      the current task without knowing its priority level by setting 'prio' to
 408:..\..\..\..\..\..\Software\uCOS-II\Source/os_task.c **** *                      OS_PRIO_SELF.
 409:..\..\..\..\..\..\Software\uCOS-II\Source/os_task.c **** *
 410:..\..\..\..\..\..\Software\uCOS-II\Source/os_task.c **** * Returns    : OS_ERR_NONE             if the call is successful
 411:..\..\..\..\..\..\Software\uCOS-II\Source/os_task.c **** *              OS_ERR_TASK_DEL_IDLE    if you attempted to delete uC/OS-II's idle task
 412:..\..\..\..\..\..\Software\uCOS-II\Source/os_task.c **** *              OS_ERR_PRIO_INVALID     if the priority you specify is higher that the maximum allow
 413:..\..\..\..\..\..\Software\uCOS-II\Source/os_task.c **** *                                      (i.e. >= OS_LOWEST_PRIO) or, you have not specified OS_PRIO_
 414:..\..\..\..\..\..\Software\uCOS-II\Source/os_task.c **** *              OS_ERR_TASK_DEL         if the task is assigned to a Mutex PIP.
 415:..\..\..\..\..\..\Software\uCOS-II\Source/os_task.c **** *              OS_ERR_TASK_NOT_EXIST   if the task you want to delete does not exist.
 416:..\..\..\..\..\..\Software\uCOS-II\Source/os_task.c **** *              OS_ERR_TASK_DEL_ISR     if you tried to delete a task from an ISR
 417:..\..\..\..\..\..\Software\uCOS-II\Source/os_task.c **** *
 418:..\..\..\..\..\..\Software\uCOS-II\Source/os_task.c **** * Notes      : 1) To reduce interrupt latency, OSTaskDel() 'disables' the task:
 419:..\..\..\..\..\..\Software\uCOS-II\Source/os_task.c **** *                    a) by making it not ready
 420:..\..\..\..\..\..\Software\uCOS-II\Source/os_task.c **** *                    b) by removing it from any wait lists
 421:..\..\..\..\..\..\Software\uCOS-II\Source/os_task.c **** *                    c) by preventing OSTimeTick() from making the task ready to run.
 422:..\..\..\..\..\..\Software\uCOS-II\Source/os_task.c **** *                 The task can then be 'unlinked' from the miscellaneous structures in uC/OS-II.
 423:..\..\..\..\..\..\Software\uCOS-II\Source/os_task.c **** *              2) The function OS_Dummy() is called after OS_EXIT_CRITICAL() because, on most proce
 424:..\..\..\..\..\..\Software\uCOS-II\Source/os_task.c **** *                 the next instruction following the enable interrupt instruction is ignored.
 425:..\..\..\..\..\..\Software\uCOS-II\Source/os_task.c **** *              3) An ISR cannot delete a task.
 426:..\..\..\..\..\..\Software\uCOS-II\Source/os_task.c **** *              4) The lock nesting counter is incremented because, for a brief instant, if the curr
 427:..\..\..\..\..\..\Software\uCOS-II\Source/os_task.c **** *                 task is being deleted, the current task would not be able to be rescheduled becau
 428:..\..\..\..\..\..\Software\uCOS-II\Source/os_task.c **** *                 is removed from the ready list.  Incrementing the nesting counter prevents anothe
 429:..\..\..\..\..\..\Software\uCOS-II\Source/os_task.c **** *                 from being schedule.  This means that an ISR would return to the current task whi
 430:..\..\..\..\..\..\Software\uCOS-II\Source/os_task.c **** *                 being deleted.  The rest of the deletion would thus be able to be completed.
 431:..\..\..\..\..\..\Software\uCOS-II\Source/os_task.c **** ***************************************************************************************************
 432:..\..\..\..\..\..\Software\uCOS-II\Source/os_task.c **** */
 433:..\..\..\..\..\..\Software\uCOS-II\Source/os_task.c **** 
 434:..\..\..\..\..\..\Software\uCOS-II\Source/os_task.c **** #if OS_TASK_DEL_EN > 0u
 435:..\..\..\..\..\..\Software\uCOS-II\Source/os_task.c **** INT8U  OSTaskDel (INT8U prio)
 436:..\..\..\..\..\..\Software\uCOS-II\Source/os_task.c **** {
 437:..\..\..\..\..\..\Software\uCOS-II\Source/os_task.c **** #if (OS_FLAG_EN > 0u) && (OS_MAX_FLAGS > 0u)
 438:..\..\..\..\..\..\Software\uCOS-II\Source/os_task.c ****     OS_FLAG_NODE *pnode;
 439:..\..\..\..\..\..\Software\uCOS-II\Source/os_task.c **** #endif
 440:..\..\..\..\..\..\Software\uCOS-II\Source/os_task.c ****     OS_TCB       *ptcb;
 441:..\..\..\..\..\..\Software\uCOS-II\Source/os_task.c **** #if OS_CRITICAL_METHOD == 3u                            /* Allocate storage for CPU status register
 442:..\..\..\..\..\..\Software\uCOS-II\Source/os_task.c ****     OS_CPU_SR     cpu_sr = 0u;
 443:..\..\..\..\..\..\Software\uCOS-II\Source/os_task.c **** #endif
 444:..\..\..\..\..\..\Software\uCOS-II\Source/os_task.c **** 
 445:..\..\..\..\..\..\Software\uCOS-II\Source/os_task.c **** 
 446:..\..\..\..\..\..\Software\uCOS-II\Source/os_task.c **** 
 447:..\..\..\..\..\..\Software\uCOS-II\Source/os_task.c ****     if (OSIntNesting > 0u) {                            /* See if trying to delete from ISR        
 448:..\..\..\..\..\..\Software\uCOS-II\Source/os_task.c ****         return (OS_ERR_TASK_DEL_ISR);
 449:..\..\..\..\..\..\Software\uCOS-II\Source/os_task.c ****     }
 450:..\..\..\..\..\..\Software\uCOS-II\Source/os_task.c ****     if (prio == OS_TASK_IDLE_PRIO) {                    /* Not allowed to delete idle task         
 451:..\..\..\..\..\..\Software\uCOS-II\Source/os_task.c ****         return (OS_ERR_TASK_DEL_IDLE);
 452:..\..\..\..\..\..\Software\uCOS-II\Source/os_task.c ****     }
 453:..\..\..\..\..\..\Software\uCOS-II\Source/os_task.c **** #if OS_ARG_CHK_EN > 0u
 454:..\..\..\..\..\..\Software\uCOS-II\Source/os_task.c ****     if (prio >= OS_LOWEST_PRIO) {                       /* Task priority valid ?                   
 455:..\..\..\..\..\..\Software\uCOS-II\Source/os_task.c ****         if (prio != OS_PRIO_SELF) {
 456:..\..\..\..\..\..\Software\uCOS-II\Source/os_task.c ****             return (OS_ERR_PRIO_INVALID);
 457:..\..\..\..\..\..\Software\uCOS-II\Source/os_task.c ****         }
 458:..\..\..\..\..\..\Software\uCOS-II\Source/os_task.c ****     }
ARM GAS  C:\Users\EDULU~1.DES\AppData\Local\Temp\ccgrKYGn.s 			page 20


 459:..\..\..\..\..\..\Software\uCOS-II\Source/os_task.c **** #endif
 460:..\..\..\..\..\..\Software\uCOS-II\Source/os_task.c **** 
 461:..\..\..\..\..\..\Software\uCOS-II\Source/os_task.c **** /*$PAGE*/
 462:..\..\..\..\..\..\Software\uCOS-II\Source/os_task.c ****     OS_ENTER_CRITICAL();
 463:..\..\..\..\..\..\Software\uCOS-II\Source/os_task.c ****     if (prio == OS_PRIO_SELF) {                         /* See if requesting to delete self        
 464:..\..\..\..\..\..\Software\uCOS-II\Source/os_task.c ****         prio = OSTCBCur->OSTCBPrio;                     /* Set priority to delete to current       
 465:..\..\..\..\..\..\Software\uCOS-II\Source/os_task.c ****     }
 466:..\..\..\..\..\..\Software\uCOS-II\Source/os_task.c ****     ptcb = OSTCBPrioTbl[prio];
 467:..\..\..\..\..\..\Software\uCOS-II\Source/os_task.c ****     if (ptcb == (OS_TCB *)0) {                          /* Task to delete must exist               
 468:..\..\..\..\..\..\Software\uCOS-II\Source/os_task.c ****         OS_EXIT_CRITICAL();
 469:..\..\..\..\..\..\Software\uCOS-II\Source/os_task.c ****         return (OS_ERR_TASK_NOT_EXIST);
 470:..\..\..\..\..\..\Software\uCOS-II\Source/os_task.c ****     }
 471:..\..\..\..\..\..\Software\uCOS-II\Source/os_task.c ****     if (ptcb == OS_TCB_RESERVED) {                      /* Must not be assigned to Mutex           
 472:..\..\..\..\..\..\Software\uCOS-II\Source/os_task.c ****         OS_EXIT_CRITICAL();
 473:..\..\..\..\..\..\Software\uCOS-II\Source/os_task.c ****         return (OS_ERR_TASK_DEL);
 474:..\..\..\..\..\..\Software\uCOS-II\Source/os_task.c ****     }
 475:..\..\..\..\..\..\Software\uCOS-II\Source/os_task.c **** 
 476:..\..\..\..\..\..\Software\uCOS-II\Source/os_task.c ****     OSRdyTbl[ptcb->OSTCBY] &= (OS_PRIO)~ptcb->OSTCBBitX;
 477:..\..\..\..\..\..\Software\uCOS-II\Source/os_task.c ****     if (OSRdyTbl[ptcb->OSTCBY] == 0u) {                 /* Make task not ready                     
 478:..\..\..\..\..\..\Software\uCOS-II\Source/os_task.c ****         OSRdyGrp           &= (OS_PRIO)~ptcb->OSTCBBitY;
 479:..\..\..\..\..\..\Software\uCOS-II\Source/os_task.c ****     }
 480:..\..\..\..\..\..\Software\uCOS-II\Source/os_task.c **** 
 481:..\..\..\..\..\..\Software\uCOS-II\Source/os_task.c **** #if (OS_EVENT_EN)
 482:..\..\..\..\..\..\Software\uCOS-II\Source/os_task.c ****     if (ptcb->OSTCBEventPtr != (OS_EVENT *)0) {
 483:..\..\..\..\..\..\Software\uCOS-II\Source/os_task.c ****         OS_EventTaskRemove(ptcb, ptcb->OSTCBEventPtr);  /* Remove this task from any event   wait l
 484:..\..\..\..\..\..\Software\uCOS-II\Source/os_task.c ****     }
 485:..\..\..\..\..\..\Software\uCOS-II\Source/os_task.c **** #if (OS_EVENT_MULTI_EN > 0u)
 486:..\..\..\..\..\..\Software\uCOS-II\Source/os_task.c ****     if (ptcb->OSTCBEventMultiPtr != (OS_EVENT **)0) {   /* Remove this task from any events' wait l
 487:..\..\..\..\..\..\Software\uCOS-II\Source/os_task.c ****         OS_EventTaskRemoveMulti(ptcb, ptcb->OSTCBEventMultiPtr);
 488:..\..\..\..\..\..\Software\uCOS-II\Source/os_task.c ****     }
 489:..\..\..\..\..\..\Software\uCOS-II\Source/os_task.c **** #endif
 490:..\..\..\..\..\..\Software\uCOS-II\Source/os_task.c **** #endif
 491:..\..\..\..\..\..\Software\uCOS-II\Source/os_task.c **** 
 492:..\..\..\..\..\..\Software\uCOS-II\Source/os_task.c **** #if (OS_FLAG_EN > 0u) && (OS_MAX_FLAGS > 0u)
 493:..\..\..\..\..\..\Software\uCOS-II\Source/os_task.c ****     pnode = ptcb->OSTCBFlagNode;
 494:..\..\..\..\..\..\Software\uCOS-II\Source/os_task.c ****     if (pnode != (OS_FLAG_NODE *)0) {                   /* If task is waiting on event flag        
 495:..\..\..\..\..\..\Software\uCOS-II\Source/os_task.c ****         OS_FlagUnlink(pnode);                           /* Remove from wait list                   
 496:..\..\..\..\..\..\Software\uCOS-II\Source/os_task.c ****     }
 497:..\..\..\..\..\..\Software\uCOS-II\Source/os_task.c **** #endif
 498:..\..\..\..\..\..\Software\uCOS-II\Source/os_task.c **** 
 499:..\..\..\..\..\..\Software\uCOS-II\Source/os_task.c ****     ptcb->OSTCBDly      = 0u;                           /* Prevent OSTimeTick() from updating      
 500:..\..\..\..\..\..\Software\uCOS-II\Source/os_task.c ****     ptcb->OSTCBStat     = OS_STAT_RDY;                  /* Prevent task from being resumed         
 501:..\..\..\..\..\..\Software\uCOS-II\Source/os_task.c ****     ptcb->OSTCBStatPend = OS_STAT_PEND_OK;
 502:..\..\..\..\..\..\Software\uCOS-II\Source/os_task.c ****     if (OSLockNesting < 255u) {                         /* Make sure we don't context switch       
 503:..\..\..\..\..\..\Software\uCOS-II\Source/os_task.c ****         OSLockNesting++;
 504:..\..\..\..\..\..\Software\uCOS-II\Source/os_task.c ****     }
 505:..\..\..\..\..\..\Software\uCOS-II\Source/os_task.c ****     OS_EXIT_CRITICAL();                                 /* Enabling INT. ignores next instruc.     
 506:..\..\..\..\..\..\Software\uCOS-II\Source/os_task.c ****     OS_Dummy();                                         /* ... Dummy ensures that INTs will be     
 507:..\..\..\..\..\..\Software\uCOS-II\Source/os_task.c ****     OS_ENTER_CRITICAL();                                /* ... disabled HERE!                      
 508:..\..\..\..\..\..\Software\uCOS-II\Source/os_task.c ****     if (OSLockNesting > 0u) {                           /* Remove context switch lock              
 509:..\..\..\..\..\..\Software\uCOS-II\Source/os_task.c ****         OSLockNesting--;
 510:..\..\..\..\..\..\Software\uCOS-II\Source/os_task.c ****     }
 511:..\..\..\..\..\..\Software\uCOS-II\Source/os_task.c ****     OSTaskDelHook(ptcb);                                /* Call user defined hook                  
 512:..\..\..\..\..\..\Software\uCOS-II\Source/os_task.c **** 
 513:..\..\..\..\..\..\Software\uCOS-II\Source/os_task.c **** #if OS_TASK_CREATE_EXT_EN > 0u
 514:..\..\..\..\..\..\Software\uCOS-II\Source/os_task.c **** #if defined(OS_TLS_TBL_SIZE) && (OS_TLS_TBL_SIZE > 0u)
 515:..\..\..\..\..\..\Software\uCOS-II\Source/os_task.c ****     OS_TLS_TaskDel(ptcb);                               /* Call TLS hook                           
ARM GAS  C:\Users\EDULU~1.DES\AppData\Local\Temp\ccgrKYGn.s 			page 21


 516:..\..\..\..\..\..\Software\uCOS-II\Source/os_task.c **** #endif
 517:..\..\..\..\..\..\Software\uCOS-II\Source/os_task.c **** #endif
 518:..\..\..\..\..\..\Software\uCOS-II\Source/os_task.c **** 
 519:..\..\..\..\..\..\Software\uCOS-II\Source/os_task.c ****     OSTaskCtr--;                                        /* One less task being managed             
 520:..\..\..\..\..\..\Software\uCOS-II\Source/os_task.c ****     OSTCBPrioTbl[prio] = (OS_TCB *)0;                   /* Clear old priority entry                
 521:..\..\..\..\..\..\Software\uCOS-II\Source/os_task.c ****     if (ptcb->OSTCBPrev == (OS_TCB *)0) {               /* Remove from TCB chain                   
 522:..\..\..\..\..\..\Software\uCOS-II\Source/os_task.c ****         ptcb->OSTCBNext->OSTCBPrev = (OS_TCB *)0;
 523:..\..\..\..\..\..\Software\uCOS-II\Source/os_task.c ****         OSTCBList                  = ptcb->OSTCBNext;
 524:..\..\..\..\..\..\Software\uCOS-II\Source/os_task.c ****     } else {
 525:..\..\..\..\..\..\Software\uCOS-II\Source/os_task.c ****         ptcb->OSTCBPrev->OSTCBNext = ptcb->OSTCBNext;
 526:..\..\..\..\..\..\Software\uCOS-II\Source/os_task.c ****         ptcb->OSTCBNext->OSTCBPrev = ptcb->OSTCBPrev;
 527:..\..\..\..\..\..\Software\uCOS-II\Source/os_task.c ****     }
 528:..\..\..\..\..\..\Software\uCOS-II\Source/os_task.c ****     ptcb->OSTCBNext     = OSTCBFreeList;                /* Return TCB to free TCB list             
 529:..\..\..\..\..\..\Software\uCOS-II\Source/os_task.c ****     OSTCBFreeList       = ptcb;
 530:..\..\..\..\..\..\Software\uCOS-II\Source/os_task.c **** #if OS_TASK_NAME_EN > 0u
 531:..\..\..\..\..\..\Software\uCOS-II\Source/os_task.c ****     ptcb->OSTCBTaskName = (INT8U *)(void *)"?";
 532:..\..\..\..\..\..\Software\uCOS-II\Source/os_task.c **** #endif
 533:..\..\..\..\..\..\Software\uCOS-II\Source/os_task.c ****     OS_EXIT_CRITICAL();
 534:..\..\..\..\..\..\Software\uCOS-II\Source/os_task.c ****     if (OSRunning == OS_TRUE) {
 535:..\..\..\..\..\..\Software\uCOS-II\Source/os_task.c ****         OS_Sched();                                     /* Find new highest priority task          
 536:..\..\..\..\..\..\Software\uCOS-II\Source/os_task.c ****     }
 537:..\..\..\..\..\..\Software\uCOS-II\Source/os_task.c ****     return (OS_ERR_NONE);
 538:..\..\..\..\..\..\Software\uCOS-II\Source/os_task.c **** }
 539:..\..\..\..\..\..\Software\uCOS-II\Source/os_task.c **** #endif
 540:..\..\..\..\..\..\Software\uCOS-II\Source/os_task.c **** /*$PAGE*/
 541:..\..\..\..\..\..\Software\uCOS-II\Source/os_task.c **** /*
 542:..\..\..\..\..\..\Software\uCOS-II\Source/os_task.c **** ***************************************************************************************************
 543:..\..\..\..\..\..\Software\uCOS-II\Source/os_task.c **** *                                  REQUEST THAT A TASK DELETE ITSELF
 544:..\..\..\..\..\..\Software\uCOS-II\Source/os_task.c **** *
 545:..\..\..\..\..\..\Software\uCOS-II\Source/os_task.c **** * Description: This function is used to:
 546:..\..\..\..\..\..\Software\uCOS-II\Source/os_task.c **** *                   a) notify a task to delete itself.
 547:..\..\..\..\..\..\Software\uCOS-II\Source/os_task.c **** *                   b) to see if a task requested that the current task delete itself.
 548:..\..\..\..\..\..\Software\uCOS-II\Source/os_task.c **** *              This function is a little tricky to understand.  Basically, you have a task that nee
 549:..\..\..\..\..\..\Software\uCOS-II\Source/os_task.c **** *              to be deleted however, this task has resources that it has allocated (memory buffers
 550:..\..\..\..\..\..\Software\uCOS-II\Source/os_task.c **** *              semaphores, mailboxes, queues etc.).  The task cannot be deleted otherwise these
 551:..\..\..\..\..\..\Software\uCOS-II\Source/os_task.c **** *              resources would not be freed.  The requesting task calls OSTaskDelReq() to indicate 
 552:..\..\..\..\..\..\Software\uCOS-II\Source/os_task.c **** *              the task needs to be deleted.  Deleting of the task is however, deferred to the task
 553:..\..\..\..\..\..\Software\uCOS-II\Source/os_task.c **** *              be deleted.  For example, suppose that task #10 needs to be deleted.  The requesting
 554:..\..\..\..\..\..\Software\uCOS-II\Source/os_task.c **** *              example, task #5, would call OSTaskDelReq(10).  When task #10 gets to execute, it ca
 555:..\..\..\..\..\..\Software\uCOS-II\Source/os_task.c **** *              this function by specifying OS_PRIO_SELF and monitors the returned value.  If the re
 556:..\..\..\..\..\..\Software\uCOS-II\Source/os_task.c **** *              value is OS_ERR_TASK_DEL_REQ, another task requested a task delete.  Task #10 would 
 557:..\..\..\..\..\..\Software\uCOS-II\Source/os_task.c **** *              this:
 558:..\..\..\..\..\..\Software\uCOS-II\Source/os_task.c **** *
 559:..\..\..\..\..\..\Software\uCOS-II\Source/os_task.c **** *                   void Task(void *p_arg)
 560:..\..\..\..\..\..\Software\uCOS-II\Source/os_task.c **** *                   {
 561:..\..\..\..\..\..\Software\uCOS-II\Source/os_task.c **** *                       .
 562:..\..\..\..\..\..\Software\uCOS-II\Source/os_task.c **** *                       .
 563:..\..\..\..\..\..\Software\uCOS-II\Source/os_task.c **** *                       while (1) {
 564:..\..\..\..\..\..\Software\uCOS-II\Source/os_task.c **** *                           OSTimeDly(1);
 565:..\..\..\..\..\..\Software\uCOS-II\Source/os_task.c **** *                           if (OSTaskDelReq(OS_PRIO_SELF) == OS_ERR_TASK_DEL_REQ) {
 566:..\..\..\..\..\..\Software\uCOS-II\Source/os_task.c **** *                               Release any owned resources;
 567:..\..\..\..\..\..\Software\uCOS-II\Source/os_task.c **** *                               De-allocate any dynamic memory;
 568:..\..\..\..\..\..\Software\uCOS-II\Source/os_task.c **** *                               OSTaskDel(OS_PRIO_SELF);
 569:..\..\..\..\..\..\Software\uCOS-II\Source/os_task.c **** *                           }
 570:..\..\..\..\..\..\Software\uCOS-II\Source/os_task.c **** *                       }
 571:..\..\..\..\..\..\Software\uCOS-II\Source/os_task.c **** *                   }
 572:..\..\..\..\..\..\Software\uCOS-II\Source/os_task.c **** *
ARM GAS  C:\Users\EDULU~1.DES\AppData\Local\Temp\ccgrKYGn.s 			page 22


 573:..\..\..\..\..\..\Software\uCOS-II\Source/os_task.c **** * Arguments  : prio    is the priority of the task to request the delete from
 574:..\..\..\..\..\..\Software\uCOS-II\Source/os_task.c **** *
 575:..\..\..\..\..\..\Software\uCOS-II\Source/os_task.c **** * Returns    : OS_ERR_NONE            if the task exist and the request has been registered
 576:..\..\..\..\..\..\Software\uCOS-II\Source/os_task.c **** *              OS_ERR_TASK_NOT_EXIST  if the task has been deleted.  This allows the caller to know
 577:..\..\..\..\..\..\Software\uCOS-II\Source/os_task.c **** *                                     the request has been executed.
 578:..\..\..\..\..\..\Software\uCOS-II\Source/os_task.c **** *              OS_ERR_TASK_DEL        if the task is assigned to a Mutex.
 579:..\..\..\..\..\..\Software\uCOS-II\Source/os_task.c **** *              OS_ERR_TASK_DEL_IDLE   if you requested to delete uC/OS-II's idle task
 580:..\..\..\..\..\..\Software\uCOS-II\Source/os_task.c **** *              OS_ERR_PRIO_INVALID    if the priority you specify is higher that the maximum allowe
 581:..\..\..\..\..\..\Software\uCOS-II\Source/os_task.c **** *                                     (i.e. >= OS_LOWEST_PRIO) or, you have not specified OS_PRIO_S
 582:..\..\..\..\..\..\Software\uCOS-II\Source/os_task.c **** *              OS_ERR_TASK_DEL_REQ    if a task (possibly another task) requested that the running 
 583:..\..\..\..\..\..\Software\uCOS-II\Source/os_task.c **** *                                     deleted.
 584:..\..\..\..\..\..\Software\uCOS-II\Source/os_task.c **** ***************************************************************************************************
 585:..\..\..\..\..\..\Software\uCOS-II\Source/os_task.c **** */
 586:..\..\..\..\..\..\Software\uCOS-II\Source/os_task.c **** /*$PAGE*/
 587:..\..\..\..\..\..\Software\uCOS-II\Source/os_task.c **** #if OS_TASK_DEL_EN > 0u
 588:..\..\..\..\..\..\Software\uCOS-II\Source/os_task.c **** INT8U  OSTaskDelReq (INT8U prio)
 589:..\..\..\..\..\..\Software\uCOS-II\Source/os_task.c **** {
 590:..\..\..\..\..\..\Software\uCOS-II\Source/os_task.c ****     INT8U      stat;
 591:..\..\..\..\..\..\Software\uCOS-II\Source/os_task.c ****     OS_TCB    *ptcb;
 592:..\..\..\..\..\..\Software\uCOS-II\Source/os_task.c **** #if OS_CRITICAL_METHOD == 3u                     /* Allocate storage for CPU status register       
 593:..\..\..\..\..\..\Software\uCOS-II\Source/os_task.c ****     OS_CPU_SR  cpu_sr = 0u;
 594:..\..\..\..\..\..\Software\uCOS-II\Source/os_task.c **** #endif
 595:..\..\..\..\..\..\Software\uCOS-II\Source/os_task.c **** 
 596:..\..\..\..\..\..\Software\uCOS-II\Source/os_task.c **** 
 597:..\..\..\..\..\..\Software\uCOS-II\Source/os_task.c **** 
 598:..\..\..\..\..\..\Software\uCOS-II\Source/os_task.c ****     if (prio == OS_TASK_IDLE_PRIO) {                            /* Not allowed to delete idle task 
 599:..\..\..\..\..\..\Software\uCOS-II\Source/os_task.c ****         return (OS_ERR_TASK_DEL_IDLE);
 600:..\..\..\..\..\..\Software\uCOS-II\Source/os_task.c ****     }
 601:..\..\..\..\..\..\Software\uCOS-II\Source/os_task.c **** #if OS_ARG_CHK_EN > 0u
 602:..\..\..\..\..\..\Software\uCOS-II\Source/os_task.c ****     if (prio >= OS_LOWEST_PRIO) {                               /* Task priority valid ?           
 603:..\..\..\..\..\..\Software\uCOS-II\Source/os_task.c ****         if (prio != OS_PRIO_SELF) {
 604:..\..\..\..\..\..\Software\uCOS-II\Source/os_task.c ****             return (OS_ERR_PRIO_INVALID);
 605:..\..\..\..\..\..\Software\uCOS-II\Source/os_task.c ****         }
 606:..\..\..\..\..\..\Software\uCOS-II\Source/os_task.c ****     }
 607:..\..\..\..\..\..\Software\uCOS-II\Source/os_task.c **** #endif
 608:..\..\..\..\..\..\Software\uCOS-II\Source/os_task.c ****     if (prio == OS_PRIO_SELF) {                                 /* See if a task is requesting to .
 609:..\..\..\..\..\..\Software\uCOS-II\Source/os_task.c ****         OS_ENTER_CRITICAL();                                    /* ... this task to delete itself  
 610:..\..\..\..\..\..\Software\uCOS-II\Source/os_task.c ****         stat = OSTCBCur->OSTCBDelReq;                           /* Return request status to caller 
 611:..\..\..\..\..\..\Software\uCOS-II\Source/os_task.c ****         OS_EXIT_CRITICAL();
 612:..\..\..\..\..\..\Software\uCOS-II\Source/os_task.c ****         return (stat);
 613:..\..\..\..\..\..\Software\uCOS-II\Source/os_task.c ****     }
 614:..\..\..\..\..\..\Software\uCOS-II\Source/os_task.c ****     OS_ENTER_CRITICAL();
 615:..\..\..\..\..\..\Software\uCOS-II\Source/os_task.c ****     ptcb = OSTCBPrioTbl[prio];
 616:..\..\..\..\..\..\Software\uCOS-II\Source/os_task.c ****     if (ptcb == (OS_TCB *)0) {                                  /* Task to delete must exist       
 617:..\..\..\..\..\..\Software\uCOS-II\Source/os_task.c ****         OS_EXIT_CRITICAL();
 618:..\..\..\..\..\..\Software\uCOS-II\Source/os_task.c ****         return (OS_ERR_TASK_NOT_EXIST);                         /* Task must already be deleted    
 619:..\..\..\..\..\..\Software\uCOS-II\Source/os_task.c ****     }
 620:..\..\..\..\..\..\Software\uCOS-II\Source/os_task.c ****     if (ptcb == OS_TCB_RESERVED) {                              /* Must NOT be assigned to a Mutex 
 621:..\..\..\..\..\..\Software\uCOS-II\Source/os_task.c ****         OS_EXIT_CRITICAL();
 622:..\..\..\..\..\..\Software\uCOS-II\Source/os_task.c ****         return (OS_ERR_TASK_DEL);
 623:..\..\..\..\..\..\Software\uCOS-II\Source/os_task.c ****     }
 624:..\..\..\..\..\..\Software\uCOS-II\Source/os_task.c ****     ptcb->OSTCBDelReq = OS_ERR_TASK_DEL_REQ;                    /* Set flag indicating task to be D
 625:..\..\..\..\..\..\Software\uCOS-II\Source/os_task.c ****     OS_EXIT_CRITICAL();
 626:..\..\..\..\..\..\Software\uCOS-II\Source/os_task.c ****     return (OS_ERR_NONE);
 627:..\..\..\..\..\..\Software\uCOS-II\Source/os_task.c **** }
 628:..\..\..\..\..\..\Software\uCOS-II\Source/os_task.c **** #endif
 629:..\..\..\..\..\..\Software\uCOS-II\Source/os_task.c **** /*$PAGE*/
ARM GAS  C:\Users\EDULU~1.DES\AppData\Local\Temp\ccgrKYGn.s 			page 23


 630:..\..\..\..\..\..\Software\uCOS-II\Source/os_task.c **** /*
 631:..\..\..\..\..\..\Software\uCOS-II\Source/os_task.c **** ***************************************************************************************************
 632:..\..\..\..\..\..\Software\uCOS-II\Source/os_task.c **** *                                       GET THE NAME OF A TASK
 633:..\..\..\..\..\..\Software\uCOS-II\Source/os_task.c **** *
 634:..\..\..\..\..\..\Software\uCOS-II\Source/os_task.c **** * Description: This function is called to obtain the name of a task.
 635:..\..\..\..\..\..\Software\uCOS-II\Source/os_task.c **** *
 636:..\..\..\..\..\..\Software\uCOS-II\Source/os_task.c **** * Arguments  : prio      is the priority of the task that you want to obtain the name from.
 637:..\..\..\..\..\..\Software\uCOS-II\Source/os_task.c **** *
 638:..\..\..\..\..\..\Software\uCOS-II\Source/os_task.c **** *              pname     is a pointer to a pointer to an ASCII string that will receive the name of
 639:..\..\..\..\..\..\Software\uCOS-II\Source/os_task.c **** *
 640:..\..\..\..\..\..\Software\uCOS-II\Source/os_task.c **** *              perr      is a pointer to an error code that can contain one of the following values
 641:..\..\..\..\..\..\Software\uCOS-II\Source/os_task.c **** *
 642:..\..\..\..\..\..\Software\uCOS-II\Source/os_task.c **** *                        OS_ERR_NONE                if the requested task is resumed
 643:..\..\..\..\..\..\Software\uCOS-II\Source/os_task.c **** *                        OS_ERR_TASK_NOT_EXIST      if the task has not been created or is assigned
 644:..\..\..\..\..\..\Software\uCOS-II\Source/os_task.c **** *                        OS_ERR_PRIO_INVALID        if you specified an invalid priority:
 645:..\..\..\..\..\..\Software\uCOS-II\Source/os_task.c **** *                                                   A higher value than the idle task or not OS_PRI
 646:..\..\..\..\..\..\Software\uCOS-II\Source/os_task.c **** *                        OS_ERR_PNAME_NULL          You passed a NULL pointer for 'pname'
 647:..\..\..\..\..\..\Software\uCOS-II\Source/os_task.c **** *                        OS_ERR_NAME_GET_ISR        You called this function from an ISR
 648:..\..\..\..\..\..\Software\uCOS-II\Source/os_task.c **** *
 649:..\..\..\..\..\..\Software\uCOS-II\Source/os_task.c **** *
 650:..\..\..\..\..\..\Software\uCOS-II\Source/os_task.c **** * Returns    : The length of the string or 0 if the task does not exist.
 651:..\..\..\..\..\..\Software\uCOS-II\Source/os_task.c **** ***************************************************************************************************
 652:..\..\..\..\..\..\Software\uCOS-II\Source/os_task.c **** */
 653:..\..\..\..\..\..\Software\uCOS-II\Source/os_task.c **** 
 654:..\..\..\..\..\..\Software\uCOS-II\Source/os_task.c **** #if OS_TASK_NAME_EN > 0u
 655:..\..\..\..\..\..\Software\uCOS-II\Source/os_task.c **** INT8U  OSTaskNameGet (INT8U    prio,
 656:..\..\..\..\..\..\Software\uCOS-II\Source/os_task.c ****                       INT8U  **pname,
 657:..\..\..\..\..\..\Software\uCOS-II\Source/os_task.c ****                       INT8U   *perr)
 658:..\..\..\..\..\..\Software\uCOS-II\Source/os_task.c **** {
 659:..\..\..\..\..\..\Software\uCOS-II\Source/os_task.c ****     OS_TCB    *ptcb;
 660:..\..\..\..\..\..\Software\uCOS-II\Source/os_task.c ****     INT8U      len;
 661:..\..\..\..\..\..\Software\uCOS-II\Source/os_task.c **** #if OS_CRITICAL_METHOD == 3u                             /* Allocate storage for CPU status registe
 662:..\..\..\..\..\..\Software\uCOS-II\Source/os_task.c ****     OS_CPU_SR  cpu_sr = 0u;
 663:..\..\..\..\..\..\Software\uCOS-II\Source/os_task.c **** #endif
 664:..\..\..\..\..\..\Software\uCOS-II\Source/os_task.c **** 
 665:..\..\..\..\..\..\Software\uCOS-II\Source/os_task.c **** 
 666:..\..\..\..\..\..\Software\uCOS-II\Source/os_task.c **** 
 667:..\..\..\..\..\..\Software\uCOS-II\Source/os_task.c **** #ifdef OS_SAFETY_CRITICAL
 668:..\..\..\..\..\..\Software\uCOS-II\Source/os_task.c ****     if (perr == (INT8U *)0) {
 669:..\..\..\..\..\..\Software\uCOS-II\Source/os_task.c ****         OS_SAFETY_CRITICAL_EXCEPTION();
 670:..\..\..\..\..\..\Software\uCOS-II\Source/os_task.c ****         return (0u);
 671:..\..\..\..\..\..\Software\uCOS-II\Source/os_task.c ****     }
 672:..\..\..\..\..\..\Software\uCOS-II\Source/os_task.c **** #endif
 673:..\..\..\..\..\..\Software\uCOS-II\Source/os_task.c **** 
 674:..\..\..\..\..\..\Software\uCOS-II\Source/os_task.c **** #if OS_ARG_CHK_EN > 0u
 675:..\..\..\..\..\..\Software\uCOS-II\Source/os_task.c ****     if (prio > OS_LOWEST_PRIO) {                         /* Task priority valid ?                  
 676:..\..\..\..\..\..\Software\uCOS-II\Source/os_task.c ****         if (prio != OS_PRIO_SELF) {
 677:..\..\..\..\..\..\Software\uCOS-II\Source/os_task.c ****             *perr = OS_ERR_PRIO_INVALID;                 /* No                                     
 678:..\..\..\..\..\..\Software\uCOS-II\Source/os_task.c ****             return (0u);
 679:..\..\..\..\..\..\Software\uCOS-II\Source/os_task.c ****         }
 680:..\..\..\..\..\..\Software\uCOS-II\Source/os_task.c ****     }
 681:..\..\..\..\..\..\Software\uCOS-II\Source/os_task.c ****     if (pname == (INT8U **)0) {                          /* Is 'pname' a NULL pointer?             
 682:..\..\..\..\..\..\Software\uCOS-II\Source/os_task.c ****         *perr = OS_ERR_PNAME_NULL;                       /* Yes                                    
 683:..\..\..\..\..\..\Software\uCOS-II\Source/os_task.c ****         return (0u);
 684:..\..\..\..\..\..\Software\uCOS-II\Source/os_task.c ****     }
 685:..\..\..\..\..\..\Software\uCOS-II\Source/os_task.c **** #endif
 686:..\..\..\..\..\..\Software\uCOS-II\Source/os_task.c ****     if (OSIntNesting > 0u) {                              /* See if trying to call from an ISR     
ARM GAS  C:\Users\EDULU~1.DES\AppData\Local\Temp\ccgrKYGn.s 			page 24


 687:..\..\..\..\..\..\Software\uCOS-II\Source/os_task.c ****         *perr = OS_ERR_NAME_GET_ISR;
 688:..\..\..\..\..\..\Software\uCOS-II\Source/os_task.c ****         return (0u);
 689:..\..\..\..\..\..\Software\uCOS-II\Source/os_task.c ****     }
 690:..\..\..\..\..\..\Software\uCOS-II\Source/os_task.c ****     OS_ENTER_CRITICAL();
 691:..\..\..\..\..\..\Software\uCOS-II\Source/os_task.c ****     if (prio == OS_PRIO_SELF) {                          /* See if caller desires it's own name    
 692:..\..\..\..\..\..\Software\uCOS-II\Source/os_task.c ****         prio = OSTCBCur->OSTCBPrio;
 693:..\..\..\..\..\..\Software\uCOS-II\Source/os_task.c ****     }
 694:..\..\..\..\..\..\Software\uCOS-II\Source/os_task.c ****     ptcb = OSTCBPrioTbl[prio];
 695:..\..\..\..\..\..\Software\uCOS-II\Source/os_task.c ****     if (ptcb == (OS_TCB *)0) {                           /* Does task exist?                       
 696:..\..\..\..\..\..\Software\uCOS-II\Source/os_task.c ****         OS_EXIT_CRITICAL();                              /* No                                     
 697:..\..\..\..\..\..\Software\uCOS-II\Source/os_task.c ****         *perr = OS_ERR_TASK_NOT_EXIST;
 698:..\..\..\..\..\..\Software\uCOS-II\Source/os_task.c ****         return (0u);
 699:..\..\..\..\..\..\Software\uCOS-II\Source/os_task.c ****     }
 700:..\..\..\..\..\..\Software\uCOS-II\Source/os_task.c ****     if (ptcb == OS_TCB_RESERVED) {                       /* Task assigned to a Mutex?              
 701:..\..\..\..\..\..\Software\uCOS-II\Source/os_task.c ****         OS_EXIT_CRITICAL();                              /* Yes                                    
 702:..\..\..\..\..\..\Software\uCOS-II\Source/os_task.c ****         *perr = OS_ERR_TASK_NOT_EXIST;
 703:..\..\..\..\..\..\Software\uCOS-II\Source/os_task.c ****         return (0u);
 704:..\..\..\..\..\..\Software\uCOS-II\Source/os_task.c ****     }
 705:..\..\..\..\..\..\Software\uCOS-II\Source/os_task.c ****     *pname = ptcb->OSTCBTaskName;
 706:..\..\..\..\..\..\Software\uCOS-II\Source/os_task.c ****     len    = OS_StrLen(*pname);
 707:..\..\..\..\..\..\Software\uCOS-II\Source/os_task.c ****     OS_EXIT_CRITICAL();
 708:..\..\..\..\..\..\Software\uCOS-II\Source/os_task.c ****     *perr  = OS_ERR_NONE;
 709:..\..\..\..\..\..\Software\uCOS-II\Source/os_task.c ****     return (len);
 710:..\..\..\..\..\..\Software\uCOS-II\Source/os_task.c **** }
 711:..\..\..\..\..\..\Software\uCOS-II\Source/os_task.c **** #endif
 712:..\..\..\..\..\..\Software\uCOS-II\Source/os_task.c **** 
 713:..\..\..\..\..\..\Software\uCOS-II\Source/os_task.c **** /*$PAGE*/
 714:..\..\..\..\..\..\Software\uCOS-II\Source/os_task.c **** /*
 715:..\..\..\..\..\..\Software\uCOS-II\Source/os_task.c **** ***************************************************************************************************
 716:..\..\..\..\..\..\Software\uCOS-II\Source/os_task.c **** *                                       ASSIGN A NAME TO A TASK
 717:..\..\..\..\..\..\Software\uCOS-II\Source/os_task.c **** *
 718:..\..\..\..\..\..\Software\uCOS-II\Source/os_task.c **** * Description: This function is used to set the name of a task.
 719:..\..\..\..\..\..\Software\uCOS-II\Source/os_task.c **** *
 720:..\..\..\..\..\..\Software\uCOS-II\Source/os_task.c **** * Arguments  : prio      is the priority of the task that you want the assign a name to.
 721:..\..\..\..\..\..\Software\uCOS-II\Source/os_task.c **** *
 722:..\..\..\..\..\..\Software\uCOS-II\Source/os_task.c **** *              pname     is a pointer to an ASCII string that contains the name of the task.
 723:..\..\..\..\..\..\Software\uCOS-II\Source/os_task.c **** *
 724:..\..\..\..\..\..\Software\uCOS-II\Source/os_task.c **** *              perr       is a pointer to an error code that can contain one of the following value
 725:..\..\..\..\..\..\Software\uCOS-II\Source/os_task.c **** *
 726:..\..\..\..\..\..\Software\uCOS-II\Source/os_task.c **** *                        OS_ERR_NONE                if the requested task is resumed
 727:..\..\..\..\..\..\Software\uCOS-II\Source/os_task.c **** *                        OS_ERR_TASK_NOT_EXIST      if the task has not been created or is assigned
 728:..\..\..\..\..\..\Software\uCOS-II\Source/os_task.c **** *                        OS_ERR_PNAME_NULL          You passed a NULL pointer for 'pname'
 729:..\..\..\..\..\..\Software\uCOS-II\Source/os_task.c **** *                        OS_ERR_PRIO_INVALID        if you specified an invalid priority:
 730:..\..\..\..\..\..\Software\uCOS-II\Source/os_task.c **** *                                                   A higher value than the idle task or not OS_PRI
 731:..\..\..\..\..\..\Software\uCOS-II\Source/os_task.c **** *                        OS_ERR_NAME_SET_ISR        if you called this function from an ISR
 732:..\..\..\..\..\..\Software\uCOS-II\Source/os_task.c **** *
 733:..\..\..\..\..\..\Software\uCOS-II\Source/os_task.c **** * Returns    : None
 734:..\..\..\..\..\..\Software\uCOS-II\Source/os_task.c **** ***************************************************************************************************
 735:..\..\..\..\..\..\Software\uCOS-II\Source/os_task.c **** */
 736:..\..\..\..\..\..\Software\uCOS-II\Source/os_task.c **** #if OS_TASK_NAME_EN > 0u
 737:..\..\..\..\..\..\Software\uCOS-II\Source/os_task.c **** void  OSTaskNameSet (INT8U   prio,
 738:..\..\..\..\..\..\Software\uCOS-II\Source/os_task.c ****                      INT8U  *pname,
 739:..\..\..\..\..\..\Software\uCOS-II\Source/os_task.c ****                      INT8U  *perr)
 740:..\..\..\..\..\..\Software\uCOS-II\Source/os_task.c **** {
 741:..\..\..\..\..\..\Software\uCOS-II\Source/os_task.c ****     OS_TCB    *ptcb;
 742:..\..\..\..\..\..\Software\uCOS-II\Source/os_task.c **** #if OS_CRITICAL_METHOD == 3u                         /* Allocate storage for CPU status register   
 743:..\..\..\..\..\..\Software\uCOS-II\Source/os_task.c ****     OS_CPU_SR  cpu_sr = 0u;
ARM GAS  C:\Users\EDULU~1.DES\AppData\Local\Temp\ccgrKYGn.s 			page 25


 744:..\..\..\..\..\..\Software\uCOS-II\Source/os_task.c **** #endif
 745:..\..\..\..\..\..\Software\uCOS-II\Source/os_task.c **** 
 746:..\..\..\..\..\..\Software\uCOS-II\Source/os_task.c **** 
 747:..\..\..\..\..\..\Software\uCOS-II\Source/os_task.c **** 
 748:..\..\..\..\..\..\Software\uCOS-II\Source/os_task.c **** #ifdef OS_SAFETY_CRITICAL
 749:..\..\..\..\..\..\Software\uCOS-II\Source/os_task.c ****     if (perr == (INT8U *)0) {
 750:..\..\..\..\..\..\Software\uCOS-II\Source/os_task.c ****         OS_SAFETY_CRITICAL_EXCEPTION();
 751:..\..\..\..\..\..\Software\uCOS-II\Source/os_task.c ****         return;
 752:..\..\..\..\..\..\Software\uCOS-II\Source/os_task.c ****     }
 753:..\..\..\..\..\..\Software\uCOS-II\Source/os_task.c **** #endif
 754:..\..\..\..\..\..\Software\uCOS-II\Source/os_task.c **** 
 755:..\..\..\..\..\..\Software\uCOS-II\Source/os_task.c **** #if OS_ARG_CHK_EN > 0u
 756:..\..\..\..\..\..\Software\uCOS-II\Source/os_task.c ****     if (prio > OS_LOWEST_PRIO) {                     /* Task priority valid ?                      
 757:..\..\..\..\..\..\Software\uCOS-II\Source/os_task.c ****         if (prio != OS_PRIO_SELF) {
 758:..\..\..\..\..\..\Software\uCOS-II\Source/os_task.c ****             *perr = OS_ERR_PRIO_INVALID;             /* No                                         
 759:..\..\..\..\..\..\Software\uCOS-II\Source/os_task.c ****             return;
 760:..\..\..\..\..\..\Software\uCOS-II\Source/os_task.c ****         }
 761:..\..\..\..\..\..\Software\uCOS-II\Source/os_task.c ****     }
 762:..\..\..\..\..\..\Software\uCOS-II\Source/os_task.c ****     if (pname == (INT8U *)0) {                       /* Is 'pname' a NULL pointer?                 
 763:..\..\..\..\..\..\Software\uCOS-II\Source/os_task.c ****         *perr = OS_ERR_PNAME_NULL;                   /* Yes                                        
 764:..\..\..\..\..\..\Software\uCOS-II\Source/os_task.c ****         return;
 765:..\..\..\..\..\..\Software\uCOS-II\Source/os_task.c ****     }
 766:..\..\..\..\..\..\Software\uCOS-II\Source/os_task.c **** #endif
 767:..\..\..\..\..\..\Software\uCOS-II\Source/os_task.c ****     if (OSIntNesting > 0u) {                         /* See if trying to call from an ISR          
 768:..\..\..\..\..\..\Software\uCOS-II\Source/os_task.c ****         *perr = OS_ERR_NAME_SET_ISR;
 769:..\..\..\..\..\..\Software\uCOS-II\Source/os_task.c ****         return;
 770:..\..\..\..\..\..\Software\uCOS-II\Source/os_task.c ****     }
 771:..\..\..\..\..\..\Software\uCOS-II\Source/os_task.c ****     OS_ENTER_CRITICAL();
 772:..\..\..\..\..\..\Software\uCOS-II\Source/os_task.c ****     if (prio == OS_PRIO_SELF) {                      /* See if caller desires to set it's own name 
 773:..\..\..\..\..\..\Software\uCOS-II\Source/os_task.c ****         prio = OSTCBCur->OSTCBPrio;
 774:..\..\..\..\..\..\Software\uCOS-II\Source/os_task.c ****     }
 775:..\..\..\..\..\..\Software\uCOS-II\Source/os_task.c ****     ptcb = OSTCBPrioTbl[prio];
 776:..\..\..\..\..\..\Software\uCOS-II\Source/os_task.c ****     if (ptcb == (OS_TCB *)0) {                       /* Does task exist?                           
 777:..\..\..\..\..\..\Software\uCOS-II\Source/os_task.c ****         OS_EXIT_CRITICAL();                          /* No                                         
 778:..\..\..\..\..\..\Software\uCOS-II\Source/os_task.c ****         *perr = OS_ERR_TASK_NOT_EXIST;
 779:..\..\..\..\..\..\Software\uCOS-II\Source/os_task.c ****         return;
 780:..\..\..\..\..\..\Software\uCOS-II\Source/os_task.c ****     }
 781:..\..\..\..\..\..\Software\uCOS-II\Source/os_task.c ****     if (ptcb == OS_TCB_RESERVED) {                   /* Task assigned to a Mutex?                  
 782:..\..\..\..\..\..\Software\uCOS-II\Source/os_task.c ****         OS_EXIT_CRITICAL();                          /* Yes                                        
 783:..\..\..\..\..\..\Software\uCOS-II\Source/os_task.c ****         *perr = OS_ERR_TASK_NOT_EXIST;
 784:..\..\..\..\..\..\Software\uCOS-II\Source/os_task.c ****         return;
 785:..\..\..\..\..\..\Software\uCOS-II\Source/os_task.c ****     }
 786:..\..\..\..\..\..\Software\uCOS-II\Source/os_task.c ****     ptcb->OSTCBTaskName = pname;
 787:..\..\..\..\..\..\Software\uCOS-II\Source/os_task.c ****     OS_EXIT_CRITICAL();
 788:..\..\..\..\..\..\Software\uCOS-II\Source/os_task.c ****     *perr               = OS_ERR_NONE;
 789:..\..\..\..\..\..\Software\uCOS-II\Source/os_task.c **** }
 790:..\..\..\..\..\..\Software\uCOS-II\Source/os_task.c **** #endif
 791:..\..\..\..\..\..\Software\uCOS-II\Source/os_task.c **** 
 792:..\..\..\..\..\..\Software\uCOS-II\Source/os_task.c **** /*$PAGE*/
 793:..\..\..\..\..\..\Software\uCOS-II\Source/os_task.c **** /*
 794:..\..\..\..\..\..\Software\uCOS-II\Source/os_task.c **** ***************************************************************************************************
 795:..\..\..\..\..\..\Software\uCOS-II\Source/os_task.c **** *                                       RESUME A SUSPENDED TASK
 796:..\..\..\..\..\..\Software\uCOS-II\Source/os_task.c **** *
 797:..\..\..\..\..\..\Software\uCOS-II\Source/os_task.c **** * Description: This function is called to resume a previously suspended task.  This is the only cal
 798:..\..\..\..\..\..\Software\uCOS-II\Source/os_task.c **** *              will remove an explicit task suspension.
 799:..\..\..\..\..\..\Software\uCOS-II\Source/os_task.c **** *
 800:..\..\..\..\..\..\Software\uCOS-II\Source/os_task.c **** * Arguments  : prio     is the priority of the task to resume.
ARM GAS  C:\Users\EDULU~1.DES\AppData\Local\Temp\ccgrKYGn.s 			page 26


 801:..\..\..\..\..\..\Software\uCOS-II\Source/os_task.c **** *
 802:..\..\..\..\..\..\Software\uCOS-II\Source/os_task.c **** * Returns    : OS_ERR_NONE                if the requested task is resumed
 803:..\..\..\..\..\..\Software\uCOS-II\Source/os_task.c **** *              OS_ERR_PRIO_INVALID        if the priority you specify is higher that the maximum al
 804:..\..\..\..\..\..\Software\uCOS-II\Source/os_task.c **** *                                         (i.e. >= OS_LOWEST_PRIO)
 805:..\..\..\..\..\..\Software\uCOS-II\Source/os_task.c **** *              OS_ERR_TASK_RESUME_PRIO    if the task to resume does not exist
 806:..\..\..\..\..\..\Software\uCOS-II\Source/os_task.c **** *              OS_ERR_TASK_NOT_EXIST      if the task is assigned to a Mutex PIP
 807:..\..\..\..\..\..\Software\uCOS-II\Source/os_task.c **** *              OS_ERR_TASK_NOT_SUSPENDED  if the task to resume has not been suspended
 808:..\..\..\..\..\..\Software\uCOS-II\Source/os_task.c **** ***************************************************************************************************
 809:..\..\..\..\..\..\Software\uCOS-II\Source/os_task.c **** */
 810:..\..\..\..\..\..\Software\uCOS-II\Source/os_task.c **** 
 811:..\..\..\..\..\..\Software\uCOS-II\Source/os_task.c **** #if OS_TASK_SUSPEND_EN > 0u
 812:..\..\..\..\..\..\Software\uCOS-II\Source/os_task.c **** INT8U  OSTaskResume (INT8U prio)
 813:..\..\..\..\..\..\Software\uCOS-II\Source/os_task.c **** {
 573              		.loc 1 813 1 is_stmt 1 view -0
 574              		.cfi_startproc
 575              		@ args = 0, pretend = 0, frame = 0
 576              		@ frame_needed = 0, uses_anonymous_args = 0
 577              		.loc 1 813 1 is_stmt 0 view .LVU180
 578 0000 10B5     		push	{r4, lr}
 579              		.cfi_def_cfa_offset 8
 580              		.cfi_offset 4, -8
 581              		.cfi_offset 14, -4
 582 0002 0400     		movs	r4, r0
 814:..\..\..\..\..\..\Software\uCOS-II\Source/os_task.c ****     OS_TCB    *ptcb;
 583              		.loc 1 814 5 is_stmt 1 view .LVU181
 815:..\..\..\..\..\..\Software\uCOS-II\Source/os_task.c **** #if OS_CRITICAL_METHOD == 3u                                  /* Storage for CPU status register   
 816:..\..\..\..\..\..\Software\uCOS-II\Source/os_task.c ****     OS_CPU_SR  cpu_sr = 0u;
 584              		.loc 1 816 5 view .LVU182
 585              	.LVL61:
 817:..\..\..\..\..\..\Software\uCOS-II\Source/os_task.c **** #endif
 818:..\..\..\..\..\..\Software\uCOS-II\Source/os_task.c **** 
 819:..\..\..\..\..\..\Software\uCOS-II\Source/os_task.c **** 
 820:..\..\..\..\..\..\Software\uCOS-II\Source/os_task.c **** 
 821:..\..\..\..\..\..\Software\uCOS-II\Source/os_task.c **** #if OS_ARG_CHK_EN > 0u
 822:..\..\..\..\..\..\Software\uCOS-II\Source/os_task.c ****     if (prio >= OS_LOWEST_PRIO) {                             /* Make sure task priority is valid  
 586              		.loc 1 822 5 view .LVU183
 587              		.loc 1 822 8 is_stmt 0 view .LVU184
 588 0004 1E28     		cmp	r0, #30
 589 0006 40D8     		bhi	.L41
 823:..\..\..\..\..\..\Software\uCOS-II\Source/os_task.c ****         return (OS_ERR_PRIO_INVALID);
 824:..\..\..\..\..\..\Software\uCOS-II\Source/os_task.c ****     }
 825:..\..\..\..\..\..\Software\uCOS-II\Source/os_task.c **** #endif
 826:..\..\..\..\..\..\Software\uCOS-II\Source/os_task.c ****     OS_ENTER_CRITICAL();
 590              		.loc 1 826 5 is_stmt 1 view .LVU185
 591              		.loc 1 826 5 view .LVU186
 592 0008 FFF7FEFF 		bl	OS_CPU_SR_Save
 593              	.LVL62:
 827:..\..\..\..\..\..\Software\uCOS-II\Source/os_task.c ****     ptcb = OSTCBPrioTbl[prio];
 594              		.loc 1 827 5 view .LVU187
 595              		.loc 1 827 10 is_stmt 0 view .LVU188
 596 000c A400     		lsls	r4, r4, #2
 597 000e 204B     		ldr	r3, .L44
 598 0010 E358     		ldr	r3, [r4, r3]
 599              	.LVL63:
 828:..\..\..\..\..\..\Software\uCOS-II\Source/os_task.c ****     if (ptcb == (OS_TCB *)0) {                                /* Task to suspend must exist        
 600              		.loc 1 828 5 is_stmt 1 view .LVU189
 601              		.loc 1 828 8 is_stmt 0 view .LVU190
ARM GAS  C:\Users\EDULU~1.DES\AppData\Local\Temp\ccgrKYGn.s 			page 27


 602 0012 002B     		cmp	r3, #0
 603 0014 26D0     		beq	.L42
 829:..\..\..\..\..\..\Software\uCOS-II\Source/os_task.c ****         OS_EXIT_CRITICAL();
 830:..\..\..\..\..\..\Software\uCOS-II\Source/os_task.c ****         return (OS_ERR_TASK_RESUME_PRIO);
 831:..\..\..\..\..\..\Software\uCOS-II\Source/os_task.c ****     }
 832:..\..\..\..\..\..\Software\uCOS-II\Source/os_task.c ****     if (ptcb == OS_TCB_RESERVED) {                            /* See if assigned to Mutex          
 604              		.loc 1 832 5 is_stmt 1 view .LVU191
 605              		.loc 1 832 8 is_stmt 0 view .LVU192
 606 0016 012B     		cmp	r3, #1
 607 0018 28D0     		beq	.L43
 833:..\..\..\..\..\..\Software\uCOS-II\Source/os_task.c ****         OS_EXIT_CRITICAL();
 834:..\..\..\..\..\..\Software\uCOS-II\Source/os_task.c ****         return (OS_ERR_TASK_NOT_EXIST);
 835:..\..\..\..\..\..\Software\uCOS-II\Source/os_task.c ****     }
 836:..\..\..\..\..\..\Software\uCOS-II\Source/os_task.c ****     if ((ptcb->OSTCBStat & OS_STAT_SUSPEND) != OS_STAT_RDY) { /* Task must be suspended            
 608              		.loc 1 836 5 is_stmt 1 view .LVU193
 609              		.loc 1 836 14 is_stmt 0 view .LVU194
 610 001a 2422     		movs	r2, #36
 611 001c 9A5C     		ldrb	r2, [r3, r2]
 612              		.loc 1 836 8 view .LVU195
 613 001e 1107     		lsls	r1, r2, #28
 614 0020 2FD5     		bpl	.L37
 837:..\..\..\..\..\..\Software\uCOS-II\Source/os_task.c ****         ptcb->OSTCBStat &= (INT8U)~(INT8U)OS_STAT_SUSPEND;    /* Remove suspension                 
 615              		.loc 1 837 9 is_stmt 1 view .LVU196
 616              		.loc 1 837 25 is_stmt 0 view .LVU197
 617 0022 0821     		movs	r1, #8
 618 0024 8A43     		bics	r2, r1
 619 0026 1C31     		adds	r1, r1, #28
 620 0028 5A54     		strb	r2, [r3, r1]
 838:..\..\..\..\..\..\Software\uCOS-II\Source/os_task.c ****         if ((ptcb->OSTCBStat & OS_STAT_PEND_ANY) == OS_STAT_RDY) { /* See if task is now ready     
 621              		.loc 1 838 9 is_stmt 1 view .LVU198
 622              		.loc 1 838 12 is_stmt 0 view .LVU199
 623 002a 1331     		adds	r1, r1, #19
 624 002c 1142     		tst	r1, r2
 625 002e 25D1     		bne	.L38
 839:..\..\..\..\..\..\Software\uCOS-II\Source/os_task.c ****             if (ptcb->OSTCBDly == 0u) {
 626              		.loc 1 839 13 is_stmt 1 view .LVU200
 627              		.loc 1 839 16 is_stmt 0 view .LVU201
 628 0030 1A6A     		ldr	r2, [r3, #32]
 629 0032 002A     		cmp	r2, #0
 630 0034 1ED1     		bne	.L39
 840:..\..\..\..\..\..\Software\uCOS-II\Source/os_task.c ****                 OSRdyGrp               |= ptcb->OSTCBBitY;    /* Yes, Make task ready to run       
 631              		.loc 1 840 17 is_stmt 1 view .LVU202
 632              		.loc 1 840 47 is_stmt 0 view .LVU203
 633 0036 2A32     		adds	r2, r2, #42
 634 0038 9A5C     		ldrb	r2, [r3, r2]
 635              		.loc 1 840 40 view .LVU204
 636 003a 1649     		ldr	r1, .L44+4
 637 003c 0C78     		ldrb	r4, [r1]
 638 003e 2243     		orrs	r2, r4
 639 0040 0A70     		strb	r2, [r1]
 841:..\..\..\..\..\..\Software\uCOS-II\Source/os_task.c ****                 OSRdyTbl[ptcb->OSTCBY] |= ptcb->OSTCBBitX;
 640              		.loc 1 841 17 is_stmt 1 view .LVU205
 641              		.loc 1 841 30 is_stmt 0 view .LVU206
 642 0042 2822     		movs	r2, #40
 643 0044 9A5C     		ldrb	r2, [r3, r2]
 644              		.loc 1 841 47 view .LVU207
 645 0046 2921     		movs	r1, #41
ARM GAS  C:\Users\EDULU~1.DES\AppData\Local\Temp\ccgrKYGn.s 			page 28


 646 0048 5B5C     		ldrb	r3, [r3, r1]
 647              	.LVL64:
 648              		.loc 1 841 40 view .LVU208
 649 004a 1349     		ldr	r1, .L44+8
 650 004c 8C5C     		ldrb	r4, [r1, r2]
 651 004e 2343     		orrs	r3, r4
 652 0050 8B54     		strb	r3, [r1, r2]
 842:..\..\..\..\..\..\Software\uCOS-II\Source/os_task.c ****                 OS_EXIT_CRITICAL();
 653              		.loc 1 842 17 is_stmt 1 view .LVU209
 654              		.loc 1 842 17 view .LVU210
 655 0052 FFF7FEFF 		bl	OS_CPU_SR_Restore
 656              	.LVL65:
 843:..\..\..\..\..\..\Software\uCOS-II\Source/os_task.c ****                 if (OSRunning == OS_TRUE) {
 657              		.loc 1 843 17 view .LVU211
 658              		.loc 1 843 31 is_stmt 0 view .LVU212
 659 0056 114B     		ldr	r3, .L44+12
 660 0058 1B78     		ldrb	r3, [r3]
 661              		.loc 1 843 20 view .LVU213
 662 005a 012B     		cmp	r3, #1
 663 005c 0CD1     		bne	.L40
 844:..\..\..\..\..\..\Software\uCOS-II\Source/os_task.c ****                     OS_Sched();                               /* Find new highest priority task    
 664              		.loc 1 844 21 is_stmt 1 view .LVU214
 665 005e FFF7FEFF 		bl	OS_Sched
 666              	.LVL66:
 667 0062 09E0     		b	.L40
 668              	.LVL67:
 669              	.L42:
 829:..\..\..\..\..\..\Software\uCOS-II\Source/os_task.c ****         return (OS_ERR_TASK_RESUME_PRIO);
 670              		.loc 1 829 9 view .LVU215
 829:..\..\..\..\..\..\Software\uCOS-II\Source/os_task.c ****         return (OS_ERR_TASK_RESUME_PRIO);
 671              		.loc 1 829 9 view .LVU216
 672 0064 FFF7FEFF 		bl	OS_CPU_SR_Restore
 673              	.LVL68:
 830:..\..\..\..\..\..\Software\uCOS-II\Source/os_task.c ****     }
 674              		.loc 1 830 9 view .LVU217
 830:..\..\..\..\..\..\Software\uCOS-II\Source/os_task.c ****     }
 675              		.loc 1 830 16 is_stmt 0 view .LVU218
 676 0068 4620     		movs	r0, #70
 677 006a 06E0     		b	.L34
 678              	.LVL69:
 679              	.L43:
 833:..\..\..\..\..\..\Software\uCOS-II\Source/os_task.c ****         return (OS_ERR_TASK_NOT_EXIST);
 680              		.loc 1 833 9 is_stmt 1 view .LVU219
 833:..\..\..\..\..\..\Software\uCOS-II\Source/os_task.c ****         return (OS_ERR_TASK_NOT_EXIST);
 681              		.loc 1 833 9 view .LVU220
 682 006c FFF7FEFF 		bl	OS_CPU_SR_Restore
 683              	.LVL70:
 834:..\..\..\..\..\..\Software\uCOS-II\Source/os_task.c ****     }
 684              		.loc 1 834 9 view .LVU221
 834:..\..\..\..\..\..\Software\uCOS-II\Source/os_task.c ****     }
 685              		.loc 1 834 16 is_stmt 0 view .LVU222
 686 0070 4320     		movs	r0, #67
 687 0072 02E0     		b	.L34
 688              	.LVL71:
 689              	.L39:
 845:..\..\..\..\..\..\Software\uCOS-II\Source/os_task.c ****                 }
 846:..\..\..\..\..\..\Software\uCOS-II\Source/os_task.c ****             } else {
ARM GAS  C:\Users\EDULU~1.DES\AppData\Local\Temp\ccgrKYGn.s 			page 29


 847:..\..\..\..\..\..\Software\uCOS-II\Source/os_task.c ****                 OS_EXIT_CRITICAL();
 690              		.loc 1 847 17 is_stmt 1 view .LVU223
 691              		.loc 1 847 17 view .LVU224
 692 0074 FFF7FEFF 		bl	OS_CPU_SR_Restore
 693              	.LVL72:
 694              	.L40:
 848:..\..\..\..\..\..\Software\uCOS-II\Source/os_task.c ****             }
 849:..\..\..\..\..\..\Software\uCOS-II\Source/os_task.c ****         } else {                                              /* Must be pending on event          
 850:..\..\..\..\..\..\Software\uCOS-II\Source/os_task.c ****             OS_EXIT_CRITICAL();
 851:..\..\..\..\..\..\Software\uCOS-II\Source/os_task.c ****         }
 852:..\..\..\..\..\..\Software\uCOS-II\Source/os_task.c ****         return (OS_ERR_NONE);
 695              		.loc 1 852 9 view .LVU225
 696              		.loc 1 852 16 is_stmt 0 view .LVU226
 697 0078 0020     		movs	r0, #0
 698              	.L34:
 853:..\..\..\..\..\..\Software\uCOS-II\Source/os_task.c ****     }
 854:..\..\..\..\..\..\Software\uCOS-II\Source/os_task.c ****     OS_EXIT_CRITICAL();
 855:..\..\..\..\..\..\Software\uCOS-II\Source/os_task.c ****     return (OS_ERR_TASK_NOT_SUSPENDED);
 856:..\..\..\..\..\..\Software\uCOS-II\Source/os_task.c **** }
 699              		.loc 1 856 1 view .LVU227
 700              		@ sp needed
 701 007a 10BD     		pop	{r4, pc}
 702              	.LVL73:
 703              	.L38:
 850:..\..\..\..\..\..\Software\uCOS-II\Source/os_task.c ****         }
 704              		.loc 1 850 13 is_stmt 1 view .LVU228
 850:..\..\..\..\..\..\Software\uCOS-II\Source/os_task.c ****         }
 705              		.loc 1 850 13 view .LVU229
 706 007c FFF7FEFF 		bl	OS_CPU_SR_Restore
 707              	.LVL74:
 850:..\..\..\..\..\..\Software\uCOS-II\Source/os_task.c ****         }
 708              		.loc 1 850 13 is_stmt 0 view .LVU230
 709 0080 FAE7     		b	.L40
 710              	.LVL75:
 711              	.L37:
 854:..\..\..\..\..\..\Software\uCOS-II\Source/os_task.c ****     return (OS_ERR_TASK_NOT_SUSPENDED);
 712              		.loc 1 854 5 is_stmt 1 view .LVU231
 854:..\..\..\..\..\..\Software\uCOS-II\Source/os_task.c ****     return (OS_ERR_TASK_NOT_SUSPENDED);
 713              		.loc 1 854 5 view .LVU232
 714 0082 FFF7FEFF 		bl	OS_CPU_SR_Restore
 715              	.LVL76:
 855:..\..\..\..\..\..\Software\uCOS-II\Source/os_task.c **** }
 716              		.loc 1 855 5 view .LVU233
 855:..\..\..\..\..\..\Software\uCOS-II\Source/os_task.c **** }
 717              		.loc 1 855 12 is_stmt 0 view .LVU234
 718 0086 4420     		movs	r0, #68
 719 0088 F7E7     		b	.L34
 720              	.LVL77:
 721              	.L41:
 823:..\..\..\..\..\..\Software\uCOS-II\Source/os_task.c ****     }
 722              		.loc 1 823 16 view .LVU235
 723 008a 2A20     		movs	r0, #42
 724              	.LVL78:
 823:..\..\..\..\..\..\Software\uCOS-II\Source/os_task.c ****     }
 725              		.loc 1 823 16 view .LVU236
 726 008c F5E7     		b	.L34
 727              	.L45:
ARM GAS  C:\Users\EDULU~1.DES\AppData\Local\Temp\ccgrKYGn.s 			page 30


 728 008e C046     		.align	2
 729              	.L44:
 730 0090 00000000 		.word	OSTCBPrioTbl
 731 0094 00000000 		.word	OSRdyGrp
 732 0098 00000000 		.word	OSRdyTbl
 733 009c 00000000 		.word	OSRunning
 734              		.cfi_endproc
 735              	.LFE6:
 736              		.size	OSTaskResume, .-OSTaskResume
 737              		.section	.text.OSTaskStkChk,"ax",%progbits
 738              		.align	1
 739              		.global	OSTaskStkChk
 740              		.syntax unified
 741              		.code	16
 742              		.thumb_func
 743              		.fpu softvfp
 744              		.type	OSTaskStkChk, %function
 745              	OSTaskStkChk:
 746              	.LVL79:
 747              	.LFB7:
 857:..\..\..\..\..\..\Software\uCOS-II\Source/os_task.c **** #endif
 858:..\..\..\..\..\..\Software\uCOS-II\Source/os_task.c **** /*$PAGE*/
 859:..\..\..\..\..\..\Software\uCOS-II\Source/os_task.c **** /*
 860:..\..\..\..\..\..\Software\uCOS-II\Source/os_task.c **** ***************************************************************************************************
 861:..\..\..\..\..\..\Software\uCOS-II\Source/os_task.c **** *                                           STACK CHECKING
 862:..\..\..\..\..\..\Software\uCOS-II\Source/os_task.c **** *
 863:..\..\..\..\..\..\Software\uCOS-II\Source/os_task.c **** * Description: This function is called to check the amount of free memory left on the specified tas
 864:..\..\..\..\..\..\Software\uCOS-II\Source/os_task.c **** *              stack.
 865:..\..\..\..\..\..\Software\uCOS-II\Source/os_task.c **** *
 866:..\..\..\..\..\..\Software\uCOS-II\Source/os_task.c **** * Arguments  : prio          is the task priority
 867:..\..\..\..\..\..\Software\uCOS-II\Source/os_task.c **** *
 868:..\..\..\..\..\..\Software\uCOS-II\Source/os_task.c **** *              p_stk_data    is a pointer to a data structure of type OS_STK_DATA.
 869:..\..\..\..\..\..\Software\uCOS-II\Source/os_task.c **** *
 870:..\..\..\..\..\..\Software\uCOS-II\Source/os_task.c **** * Returns    : OS_ERR_NONE            upon success
 871:..\..\..\..\..\..\Software\uCOS-II\Source/os_task.c **** *              OS_ERR_PRIO_INVALID    if the priority you specify is higher that the maximum allowe
 872:..\..\..\..\..\..\Software\uCOS-II\Source/os_task.c **** *                                     (i.e. > OS_LOWEST_PRIO) or, you have not specified OS_PRIO_SE
 873:..\..\..\..\..\..\Software\uCOS-II\Source/os_task.c **** *              OS_ERR_TASK_NOT_EXIST  if the desired task has not been created or is assigned to a 
 874:..\..\..\..\..\..\Software\uCOS-II\Source/os_task.c **** *              OS_ERR_TASK_OPT        if you did NOT specified OS_TASK_OPT_STK_CHK when the task wa
 875:..\..\..\..\..\..\Software\uCOS-II\Source/os_task.c **** *              OS_ERR_PDATA_NULL      if 'p_stk_data' is a NULL pointer
 876:..\..\..\..\..\..\Software\uCOS-II\Source/os_task.c **** ***************************************************************************************************
 877:..\..\..\..\..\..\Software\uCOS-II\Source/os_task.c **** */
 878:..\..\..\..\..\..\Software\uCOS-II\Source/os_task.c **** #if (OS_TASK_STAT_STK_CHK_EN > 0u) && (OS_TASK_CREATE_EXT_EN > 0u)
 879:..\..\..\..\..\..\Software\uCOS-II\Source/os_task.c **** INT8U  OSTaskStkChk (INT8U         prio,
 880:..\..\..\..\..\..\Software\uCOS-II\Source/os_task.c ****                      OS_STK_DATA  *p_stk_data)
 881:..\..\..\..\..\..\Software\uCOS-II\Source/os_task.c **** {
 748              		.loc 1 881 1 is_stmt 1 view -0
 749              		.cfi_startproc
 750              		@ args = 0, pretend = 0, frame = 0
 751              		@ frame_needed = 0, uses_anonymous_args = 0
 752              		.loc 1 881 1 is_stmt 0 view .LVU238
 753 0000 70B5     		push	{r4, r5, r6, lr}
 754              		.cfi_def_cfa_offset 16
 755              		.cfi_offset 4, -16
 756              		.cfi_offset 5, -12
 757              		.cfi_offset 6, -8
 758              		.cfi_offset 14, -4
 759 0002 0400     		movs	r4, r0
ARM GAS  C:\Users\EDULU~1.DES\AppData\Local\Temp\ccgrKYGn.s 			page 31


 760 0004 0D00     		movs	r5, r1
 882:..\..\..\..\..\..\Software\uCOS-II\Source/os_task.c ****     OS_TCB    *ptcb;
 761              		.loc 1 882 5 is_stmt 1 view .LVU239
 883:..\..\..\..\..\..\Software\uCOS-II\Source/os_task.c ****     OS_STK    *pchk;
 762              		.loc 1 883 5 view .LVU240
 884:..\..\..\..\..\..\Software\uCOS-II\Source/os_task.c ****     INT32U     nfree;
 763              		.loc 1 884 5 view .LVU241
 885:..\..\..\..\..\..\Software\uCOS-II\Source/os_task.c ****     INT32U     size;
 764              		.loc 1 885 5 view .LVU242
 886:..\..\..\..\..\..\Software\uCOS-II\Source/os_task.c **** #if OS_CRITICAL_METHOD == 3u                           /* Allocate storage for CPU status register 
 887:..\..\..\..\..\..\Software\uCOS-II\Source/os_task.c ****     OS_CPU_SR  cpu_sr = 0u;
 765              		.loc 1 887 5 view .LVU243
 766              	.LVL80:
 888:..\..\..\..\..\..\Software\uCOS-II\Source/os_task.c **** #endif
 889:..\..\..\..\..\..\Software\uCOS-II\Source/os_task.c **** 
 890:..\..\..\..\..\..\Software\uCOS-II\Source/os_task.c **** 
 891:..\..\..\..\..\..\Software\uCOS-II\Source/os_task.c **** 
 892:..\..\..\..\..\..\Software\uCOS-II\Source/os_task.c **** #if OS_ARG_CHK_EN > 0u
 893:..\..\..\..\..\..\Software\uCOS-II\Source/os_task.c ****     if (prio > OS_LOWEST_PRIO) {                       /* Make sure task priority is valid         
 767              		.loc 1 893 5 view .LVU244
 768              		.loc 1 893 8 is_stmt 0 view .LVU245
 769 0006 1F28     		cmp	r0, #31
 770 0008 01D9     		bls	.L47
 894:..\..\..\..\..\..\Software\uCOS-II\Source/os_task.c ****         if (prio != OS_PRIO_SELF) {
 771              		.loc 1 894 9 is_stmt 1 view .LVU246
 772              		.loc 1 894 12 is_stmt 0 view .LVU247
 773 000a FF28     		cmp	r0, #255
 774 000c 32D1     		bne	.L55
 775              	.L47:
 895:..\..\..\..\..\..\Software\uCOS-II\Source/os_task.c ****             return (OS_ERR_PRIO_INVALID);
 896:..\..\..\..\..\..\Software\uCOS-II\Source/os_task.c ****         }
 897:..\..\..\..\..\..\Software\uCOS-II\Source/os_task.c ****     }
 898:..\..\..\..\..\..\Software\uCOS-II\Source/os_task.c ****     if (p_stk_data == (OS_STK_DATA *)0) {              /* Validate 'p_stk_data'                    
 776              		.loc 1 898 5 is_stmt 1 view .LVU248
 777              		.loc 1 898 8 is_stmt 0 view .LVU249
 778 000e 002D     		cmp	r5, #0
 779 0010 32D0     		beq	.L56
 899:..\..\..\..\..\..\Software\uCOS-II\Source/os_task.c ****         return (OS_ERR_PDATA_NULL);
 900:..\..\..\..\..\..\Software\uCOS-II\Source/os_task.c ****     }
 901:..\..\..\..\..\..\Software\uCOS-II\Source/os_task.c **** #endif
 902:..\..\..\..\..\..\Software\uCOS-II\Source/os_task.c ****     p_stk_data->OSFree = 0u;                           /* Assume failure, set to 0 size            
 780              		.loc 1 902 5 is_stmt 1 view .LVU250
 781              		.loc 1 902 24 is_stmt 0 view .LVU251
 782 0012 0023     		movs	r3, #0
 783 0014 2B60     		str	r3, [r5]
 903:..\..\..\..\..\..\Software\uCOS-II\Source/os_task.c ****     p_stk_data->OSUsed = 0u;
 784              		.loc 1 903 5 is_stmt 1 view .LVU252
 785              		.loc 1 903 24 is_stmt 0 view .LVU253
 786 0016 6B60     		str	r3, [r5, #4]
 904:..\..\..\..\..\..\Software\uCOS-II\Source/os_task.c ****     OS_ENTER_CRITICAL();
 787              		.loc 1 904 5 is_stmt 1 view .LVU254
 788              		.loc 1 904 5 view .LVU255
 789 0018 FFF7FEFF 		bl	OS_CPU_SR_Save
 790              	.LVL81:
 905:..\..\..\..\..\..\Software\uCOS-II\Source/os_task.c ****     if (prio == OS_PRIO_SELF) {                        /* See if check for SELF                    
 791              		.loc 1 905 5 view .LVU256
 792              		.loc 1 905 8 is_stmt 0 view .LVU257
ARM GAS  C:\Users\EDULU~1.DES\AppData\Local\Temp\ccgrKYGn.s 			page 32


 793 001c FF2C     		cmp	r4, #255
 794 001e 13D0     		beq	.L57
 795              	.LVL82:
 796              	.L49:
 906:..\..\..\..\..\..\Software\uCOS-II\Source/os_task.c ****         prio = OSTCBCur->OSTCBPrio;
 907:..\..\..\..\..\..\Software\uCOS-II\Source/os_task.c ****     }
 908:..\..\..\..\..\..\Software\uCOS-II\Source/os_task.c ****     ptcb = OSTCBPrioTbl[prio];
 797              		.loc 1 908 5 is_stmt 1 view .LVU258
 798              		.loc 1 908 10 is_stmt 0 view .LVU259
 799 0020 A400     		lsls	r4, r4, #2
 800              	.LVL83:
 801              		.loc 1 908 10 view .LVU260
 802 0022 164B     		ldr	r3, .L62
 803 0024 E358     		ldr	r3, [r4, r3]
 804              	.LVL84:
 909:..\..\..\..\..\..\Software\uCOS-II\Source/os_task.c ****     if (ptcb == (OS_TCB *)0) {                         /* Make sure task exist                     
 805              		.loc 1 909 5 is_stmt 1 view .LVU261
 806              		.loc 1 909 8 is_stmt 0 view .LVU262
 807 0026 002B     		cmp	r3, #0
 808 0028 13D0     		beq	.L58
 910:..\..\..\..\..\..\Software\uCOS-II\Source/os_task.c ****         OS_EXIT_CRITICAL();
 911:..\..\..\..\..\..\Software\uCOS-II\Source/os_task.c ****         return (OS_ERR_TASK_NOT_EXIST);
 912:..\..\..\..\..\..\Software\uCOS-II\Source/os_task.c ****     }
 913:..\..\..\..\..\..\Software\uCOS-II\Source/os_task.c ****     if (ptcb == OS_TCB_RESERVED) {
 809              		.loc 1 913 5 is_stmt 1 view .LVU263
 810              		.loc 1 913 8 is_stmt 0 view .LVU264
 811 002a 012B     		cmp	r3, #1
 812 002c 15D0     		beq	.L59
 914:..\..\..\..\..\..\Software\uCOS-II\Source/os_task.c ****         OS_EXIT_CRITICAL();
 915:..\..\..\..\..\..\Software\uCOS-II\Source/os_task.c ****         return (OS_ERR_TASK_NOT_EXIST);
 916:..\..\..\..\..\..\Software\uCOS-II\Source/os_task.c ****     }
 917:..\..\..\..\..\..\Software\uCOS-II\Source/os_task.c ****     if ((ptcb->OSTCBOpt & OS_TASK_OPT_STK_CHK) == 0u) { /* Make sure stack checking option is set  
 813              		.loc 1 917 5 is_stmt 1 view .LVU265
 814              		.loc 1 917 14 is_stmt 0 view .LVU266
 815 002e 1A8A     		ldrh	r2, [r3, #16]
 816              		.loc 1 917 8 view .LVU267
 817 0030 D207     		lsls	r2, r2, #31
 818 0032 16D5     		bpl	.L60
 918:..\..\..\..\..\..\Software\uCOS-II\Source/os_task.c ****         OS_EXIT_CRITICAL();
 919:..\..\..\..\..\..\Software\uCOS-II\Source/os_task.c ****         return (OS_ERR_TASK_OPT);
 920:..\..\..\..\..\..\Software\uCOS-II\Source/os_task.c ****     }
 921:..\..\..\..\..\..\Software\uCOS-II\Source/os_task.c ****     nfree = 0u;
 819              		.loc 1 921 5 is_stmt 1 view .LVU268
 820              	.LVL85:
 922:..\..\..\..\..\..\Software\uCOS-II\Source/os_task.c ****     size  = ptcb->OSTCBStkSize;
 821              		.loc 1 922 5 view .LVU269
 822              		.loc 1 922 11 is_stmt 0 view .LVU270
 823 0034 DE68     		ldr	r6, [r3, #12]
 824              	.LVL86:
 923:..\..\..\..\..\..\Software\uCOS-II\Source/os_task.c ****     pchk  = ptcb->OSTCBStkBottom;
 825              		.loc 1 923 5 is_stmt 1 view .LVU271
 826              		.loc 1 923 11 is_stmt 0 view .LVU272
 827 0036 9C68     		ldr	r4, [r3, #8]
 828              	.LVL87:
 924:..\..\..\..\..\..\Software\uCOS-II\Source/os_task.c ****     OS_EXIT_CRITICAL();
 829              		.loc 1 924 5 is_stmt 1 view .LVU273
 830              		.loc 1 924 5 view .LVU274
ARM GAS  C:\Users\EDULU~1.DES\AppData\Local\Temp\ccgrKYGn.s 			page 33


 831 0038 FFF7FEFF 		bl	OS_CPU_SR_Restore
 832              	.LVL88:
 925:..\..\..\..\..\..\Software\uCOS-II\Source/os_task.c **** #if OS_STK_GROWTH == 1u
 926:..\..\..\..\..\..\Software\uCOS-II\Source/os_task.c ****     while (*pchk++ == (OS_STK)0) {                    /* Compute the number of zero entries on the 
 833              		.loc 1 926 5 view .LVU275
 921:..\..\..\..\..\..\Software\uCOS-II\Source/os_task.c ****     size  = ptcb->OSTCBStkSize;
 834              		.loc 1 921 11 is_stmt 0 view .LVU276
 835 003c 0022     		movs	r2, #0
 836              	.LVL89:
 837              	.L53:
 838              		.loc 1 926 12 view .LVU277
 839 003e 02CC     		ldmia	r4!, {r1}
 840              	.LVL90:
 841              		.loc 1 926 11 view .LVU278
 842 0040 0029     		cmp	r1, #0
 843 0042 12D1     		bne	.L61
 927:..\..\..\..\..\..\Software\uCOS-II\Source/os_task.c ****         nfree++;
 844              		.loc 1 927 9 is_stmt 1 view .LVU279
 845              		.loc 1 927 14 is_stmt 0 view .LVU280
 846 0044 0132     		adds	r2, r2, #1
 847              	.LVL91:
 848              		.loc 1 927 14 view .LVU281
 849 0046 FAE7     		b	.L53
 850              	.LVL92:
 851              	.L57:
 906:..\..\..\..\..\..\Software\uCOS-II\Source/os_task.c ****     }
 852              		.loc 1 906 9 is_stmt 1 view .LVU282
 906:..\..\..\..\..\..\Software\uCOS-II\Source/os_task.c ****     }
 853              		.loc 1 906 24 is_stmt 0 view .LVU283
 854 0048 0D4B     		ldr	r3, .L62+4
 855 004a 1A68     		ldr	r2, [r3]
 906:..\..\..\..\..\..\Software\uCOS-II\Source/os_task.c ****     }
 856              		.loc 1 906 14 view .LVU284
 857 004c 2623     		movs	r3, #38
 858 004e D45C     		ldrb	r4, [r2, r3]
 859              	.LVL93:
 906:..\..\..\..\..\..\Software\uCOS-II\Source/os_task.c ****     }
 860              		.loc 1 906 14 view .LVU285
 861 0050 E6E7     		b	.L49
 862              	.LVL94:
 863              	.L58:
 910:..\..\..\..\..\..\Software\uCOS-II\Source/os_task.c ****         return (OS_ERR_TASK_NOT_EXIST);
 864              		.loc 1 910 9 is_stmt 1 view .LVU286
 910:..\..\..\..\..\..\Software\uCOS-II\Source/os_task.c ****         return (OS_ERR_TASK_NOT_EXIST);
 865              		.loc 1 910 9 view .LVU287
 866 0052 FFF7FEFF 		bl	OS_CPU_SR_Restore
 867              	.LVL95:
 911:..\..\..\..\..\..\Software\uCOS-II\Source/os_task.c ****     }
 868              		.loc 1 911 9 view .LVU288
 911:..\..\..\..\..\..\Software\uCOS-II\Source/os_task.c ****     }
 869              		.loc 1 911 16 is_stmt 0 view .LVU289
 870 0056 4320     		movs	r0, #67
 871 0058 0BE0     		b	.L48
 872              	.LVL96:
 873              	.L59:
 914:..\..\..\..\..\..\Software\uCOS-II\Source/os_task.c ****         return (OS_ERR_TASK_NOT_EXIST);
 874              		.loc 1 914 9 is_stmt 1 view .LVU290
ARM GAS  C:\Users\EDULU~1.DES\AppData\Local\Temp\ccgrKYGn.s 			page 34


 914:..\..\..\..\..\..\Software\uCOS-II\Source/os_task.c ****         return (OS_ERR_TASK_NOT_EXIST);
 875              		.loc 1 914 9 view .LVU291
 876 005a FFF7FEFF 		bl	OS_CPU_SR_Restore
 877              	.LVL97:
 915:..\..\..\..\..\..\Software\uCOS-II\Source/os_task.c ****     }
 878              		.loc 1 915 9 view .LVU292
 915:..\..\..\..\..\..\Software\uCOS-II\Source/os_task.c ****     }
 879              		.loc 1 915 16 is_stmt 0 view .LVU293
 880 005e 4320     		movs	r0, #67
 881 0060 07E0     		b	.L48
 882              	.LVL98:
 883              	.L60:
 918:..\..\..\..\..\..\Software\uCOS-II\Source/os_task.c ****         return (OS_ERR_TASK_OPT);
 884              		.loc 1 918 9 is_stmt 1 view .LVU294
 918:..\..\..\..\..\..\Software\uCOS-II\Source/os_task.c ****         return (OS_ERR_TASK_OPT);
 885              		.loc 1 918 9 view .LVU295
 886 0062 FFF7FEFF 		bl	OS_CPU_SR_Restore
 887              	.LVL99:
 919:..\..\..\..\..\..\Software\uCOS-II\Source/os_task.c ****     }
 888              		.loc 1 919 9 view .LVU296
 919:..\..\..\..\..\..\Software\uCOS-II\Source/os_task.c ****     }
 889              		.loc 1 919 16 is_stmt 0 view .LVU297
 890 0066 4520     		movs	r0, #69
 891 0068 03E0     		b	.L48
 892              	.LVL100:
 893              	.L61:
 928:..\..\..\..\..\..\Software\uCOS-II\Source/os_task.c ****     }
 929:..\..\..\..\..\..\Software\uCOS-II\Source/os_task.c **** #else
 930:..\..\..\..\..\..\Software\uCOS-II\Source/os_task.c ****     while (*pchk-- == (OS_STK)0) {
 931:..\..\..\..\..\..\Software\uCOS-II\Source/os_task.c ****         nfree++;
 932:..\..\..\..\..\..\Software\uCOS-II\Source/os_task.c ****     }
 933:..\..\..\..\..\..\Software\uCOS-II\Source/os_task.c **** #endif
 934:..\..\..\..\..\..\Software\uCOS-II\Source/os_task.c ****     p_stk_data->OSFree = nfree;                       /* Store   number of free entries on the stk 
 894              		.loc 1 934 5 is_stmt 1 view .LVU298
 895              		.loc 1 934 24 is_stmt 0 view .LVU299
 896 006a 2A60     		str	r2, [r5]
 935:..\..\..\..\..\..\Software\uCOS-II\Source/os_task.c ****     p_stk_data->OSUsed = size - nfree;                /* Compute number of entries used on the stk 
 897              		.loc 1 935 5 is_stmt 1 view .LVU300
 898              		.loc 1 935 31 is_stmt 0 view .LVU301
 899 006c B21A     		subs	r2, r6, r2
 900              	.LVL101:
 901              		.loc 1 935 24 view .LVU302
 902 006e 6A60     		str	r2, [r5, #4]
 936:..\..\..\..\..\..\Software\uCOS-II\Source/os_task.c ****     return (OS_ERR_NONE);
 903              		.loc 1 936 5 is_stmt 1 view .LVU303
 904              		.loc 1 936 12 is_stmt 0 view .LVU304
 905 0070 0020     		movs	r0, #0
 906              	.LVL102:
 907              	.L48:
 937:..\..\..\..\..\..\Software\uCOS-II\Source/os_task.c **** }
 908              		.loc 1 937 1 view .LVU305
 909              		@ sp needed
 910              	.LVL103:
 911              		.loc 1 937 1 view .LVU306
 912 0072 70BD     		pop	{r4, r5, r6, pc}
 913              	.LVL104:
 914              	.L55:
ARM GAS  C:\Users\EDULU~1.DES\AppData\Local\Temp\ccgrKYGn.s 			page 35


 895:..\..\..\..\..\..\Software\uCOS-II\Source/os_task.c ****         }
 915              		.loc 1 895 20 view .LVU307
 916 0074 2A20     		movs	r0, #42
 917              	.LVL105:
 895:..\..\..\..\..\..\Software\uCOS-II\Source/os_task.c ****         }
 918              		.loc 1 895 20 view .LVU308
 919 0076 FCE7     		b	.L48
 920              	.LVL106:
 921              	.L56:
 899:..\..\..\..\..\..\Software\uCOS-II\Source/os_task.c ****     }
 922              		.loc 1 899 16 view .LVU309
 923 0078 0920     		movs	r0, #9
 924              	.LVL107:
 899:..\..\..\..\..\..\Software\uCOS-II\Source/os_task.c ****     }
 925              		.loc 1 899 16 view .LVU310
 926 007a FAE7     		b	.L48
 927              	.L63:
 928              		.align	2
 929              	.L62:
 930 007c 00000000 		.word	OSTCBPrioTbl
 931 0080 00000000 		.word	OSTCBCur
 932              		.cfi_endproc
 933              	.LFE7:
 934              		.size	OSTaskStkChk, .-OSTaskStkChk
 935              		.section	.text.OSTaskSuspend,"ax",%progbits
 936              		.align	1
 937              		.global	OSTaskSuspend
 938              		.syntax unified
 939              		.code	16
 940              		.thumb_func
 941              		.fpu softvfp
 942              		.type	OSTaskSuspend, %function
 943              	OSTaskSuspend:
 944              	.LVL108:
 945              	.LFB8:
 938:..\..\..\..\..\..\Software\uCOS-II\Source/os_task.c **** #endif
 939:..\..\..\..\..\..\Software\uCOS-II\Source/os_task.c **** /*$PAGE*/
 940:..\..\..\..\..\..\Software\uCOS-II\Source/os_task.c **** /*
 941:..\..\..\..\..\..\Software\uCOS-II\Source/os_task.c **** ***************************************************************************************************
 942:..\..\..\..\..\..\Software\uCOS-II\Source/os_task.c **** *                                           SUSPEND A TASK
 943:..\..\..\..\..\..\Software\uCOS-II\Source/os_task.c **** *
 944:..\..\..\..\..\..\Software\uCOS-II\Source/os_task.c **** * Description: This function is called to suspend a task.  The task can be the calling task if the
 945:..\..\..\..\..\..\Software\uCOS-II\Source/os_task.c **** *              priority passed to OSTaskSuspend() is the priority of the calling task or OS_PRIO_SE
 946:..\..\..\..\..\..\Software\uCOS-II\Source/os_task.c **** *
 947:..\..\..\..\..\..\Software\uCOS-II\Source/os_task.c **** * Arguments  : prio     is the priority of the task to suspend.  If you specify OS_PRIO_SELF, the
 948:..\..\..\..\..\..\Software\uCOS-II\Source/os_task.c **** *                       calling task will suspend itself and rescheduling will occur.
 949:..\..\..\..\..\..\Software\uCOS-II\Source/os_task.c **** *
 950:..\..\..\..\..\..\Software\uCOS-II\Source/os_task.c **** * Returns    : OS_ERR_NONE               if the requested task is suspended
 951:..\..\..\..\..\..\Software\uCOS-II\Source/os_task.c **** *              OS_ERR_TASK_SUSPEND_IDLE  if you attempted to suspend the idle task which is not all
 952:..\..\..\..\..\..\Software\uCOS-II\Source/os_task.c **** *              OS_ERR_PRIO_INVALID       if the priority you specify is higher that the maximum all
 953:..\..\..\..\..\..\Software\uCOS-II\Source/os_task.c **** *                                        (i.e. >= OS_LOWEST_PRIO) or, you have not specified OS_PRI
 954:..\..\..\..\..\..\Software\uCOS-II\Source/os_task.c **** *              OS_ERR_TASK_SUSPEND_PRIO  if the task to suspend does not exist
 955:..\..\..\..\..\..\Software\uCOS-II\Source/os_task.c **** *              OS_ERR_TASK_NOT_EXITS     if the task is assigned to a Mutex PIP
 956:..\..\..\..\..\..\Software\uCOS-II\Source/os_task.c **** *
 957:..\..\..\..\..\..\Software\uCOS-II\Source/os_task.c **** * Note       : You should use this function with great care.  If you suspend a task that is waiting
 958:..\..\..\..\..\..\Software\uCOS-II\Source/os_task.c **** *              an event (i.e. a message, a semaphore, a queue ...) you will prevent this task from
 959:..\..\..\..\..\..\Software\uCOS-II\Source/os_task.c **** *              running when the event arrives.
ARM GAS  C:\Users\EDULU~1.DES\AppData\Local\Temp\ccgrKYGn.s 			page 36


 960:..\..\..\..\..\..\Software\uCOS-II\Source/os_task.c **** ***************************************************************************************************
 961:..\..\..\..\..\..\Software\uCOS-II\Source/os_task.c **** */
 962:..\..\..\..\..\..\Software\uCOS-II\Source/os_task.c **** 
 963:..\..\..\..\..\..\Software\uCOS-II\Source/os_task.c **** #if OS_TASK_SUSPEND_EN > 0u
 964:..\..\..\..\..\..\Software\uCOS-II\Source/os_task.c **** INT8U  OSTaskSuspend (INT8U prio)
 965:..\..\..\..\..\..\Software\uCOS-II\Source/os_task.c **** {
 946              		.loc 1 965 1 is_stmt 1 view -0
 947              		.cfi_startproc
 948              		@ args = 0, pretend = 0, frame = 0
 949              		@ frame_needed = 0, uses_anonymous_args = 0
 950              		.loc 1 965 1 is_stmt 0 view .LVU312
 951 0000 70B5     		push	{r4, r5, r6, lr}
 952              		.cfi_def_cfa_offset 16
 953              		.cfi_offset 4, -16
 954              		.cfi_offset 5, -12
 955              		.cfi_offset 6, -8
 956              		.cfi_offset 14, -4
 957 0002 0400     		movs	r4, r0
 966:..\..\..\..\..\..\Software\uCOS-II\Source/os_task.c ****     BOOLEAN    self;
 958              		.loc 1 966 5 is_stmt 1 view .LVU313
 967:..\..\..\..\..\..\Software\uCOS-II\Source/os_task.c ****     OS_TCB    *ptcb;
 959              		.loc 1 967 5 view .LVU314
 968:..\..\..\..\..\..\Software\uCOS-II\Source/os_task.c ****     INT8U      y;
 960              		.loc 1 968 5 view .LVU315
 969:..\..\..\..\..\..\Software\uCOS-II\Source/os_task.c **** #if OS_CRITICAL_METHOD == 3u                     /* Allocate storage for CPU status register       
 970:..\..\..\..\..\..\Software\uCOS-II\Source/os_task.c ****     OS_CPU_SR  cpu_sr = 0u;
 961              		.loc 1 970 5 view .LVU316
 962              	.LVL109:
 971:..\..\..\..\..\..\Software\uCOS-II\Source/os_task.c **** #endif
 972:..\..\..\..\..\..\Software\uCOS-II\Source/os_task.c **** 
 973:..\..\..\..\..\..\Software\uCOS-II\Source/os_task.c **** 
 974:..\..\..\..\..\..\Software\uCOS-II\Source/os_task.c **** 
 975:..\..\..\..\..\..\Software\uCOS-II\Source/os_task.c **** #if OS_ARG_CHK_EN > 0u
 976:..\..\..\..\..\..\Software\uCOS-II\Source/os_task.c ****     if (prio == OS_TASK_IDLE_PRIO) {                            /* Not allowed to suspend idle task
 963              		.loc 1 976 5 view .LVU317
 964              		.loc 1 976 8 is_stmt 0 view .LVU318
 965 0004 1F28     		cmp	r0, #31
 966 0006 43D0     		beq	.L72
 977:..\..\..\..\..\..\Software\uCOS-II\Source/os_task.c ****         return (OS_ERR_TASK_SUSPEND_IDLE);
 978:..\..\..\..\..\..\Software\uCOS-II\Source/os_task.c ****     }
 979:..\..\..\..\..\..\Software\uCOS-II\Source/os_task.c ****     if (prio >= OS_LOWEST_PRIO) {                               /* Task priority valid ?           
 967              		.loc 1 979 5 is_stmt 1 view .LVU319
 968              		.loc 1 979 8 is_stmt 0 view .LVU320
 969 0008 1E28     		cmp	r0, #30
 970 000a 01D9     		bls	.L66
 980:..\..\..\..\..\..\Software\uCOS-II\Source/os_task.c ****         if (prio != OS_PRIO_SELF) {
 971              		.loc 1 980 9 is_stmt 1 view .LVU321
 972              		.loc 1 980 12 is_stmt 0 view .LVU322
 973 000c FF28     		cmp	r0, #255
 974 000e 41D1     		bne	.L73
 975              	.L66:
 981:..\..\..\..\..\..\Software\uCOS-II\Source/os_task.c ****             return (OS_ERR_PRIO_INVALID);
 982:..\..\..\..\..\..\Software\uCOS-II\Source/os_task.c ****         }
 983:..\..\..\..\..\..\Software\uCOS-II\Source/os_task.c ****     }
 984:..\..\..\..\..\..\Software\uCOS-II\Source/os_task.c **** #endif
 985:..\..\..\..\..\..\Software\uCOS-II\Source/os_task.c ****     OS_ENTER_CRITICAL();
 976              		.loc 1 985 5 is_stmt 1 view .LVU323
ARM GAS  C:\Users\EDULU~1.DES\AppData\Local\Temp\ccgrKYGn.s 			page 37


 977              		.loc 1 985 5 view .LVU324
 978 0010 FFF7FEFF 		bl	OS_CPU_SR_Save
 979              	.LVL110:
 986:..\..\..\..\..\..\Software\uCOS-II\Source/os_task.c ****     if (prio == OS_PRIO_SELF) {                                 /* See if suspend SELF             
 980              		.loc 1 986 5 view .LVU325
 981              		.loc 1 986 8 is_stmt 0 view .LVU326
 982 0014 FF2C     		cmp	r4, #255
 983 0016 27D0     		beq	.L76
 987:..\..\..\..\..\..\Software\uCOS-II\Source/os_task.c ****         prio = OSTCBCur->OSTCBPrio;
 988:..\..\..\..\..\..\Software\uCOS-II\Source/os_task.c ****         self = OS_TRUE;
 989:..\..\..\..\..\..\Software\uCOS-II\Source/os_task.c ****     } else if (prio == OSTCBCur->OSTCBPrio) {                   /* See if suspending self          
 984              		.loc 1 989 12 is_stmt 1 view .LVU327
 985              		.loc 1 989 32 is_stmt 0 view .LVU328
 986 0018 1F4B     		ldr	r3, .L81
 987 001a 1A68     		ldr	r2, [r3]
 988 001c 2623     		movs	r3, #38
 989 001e D35C     		ldrb	r3, [r2, r3]
 990              		.loc 1 989 15 view .LVU329
 991 0020 A342     		cmp	r3, r4
 992 0022 27D0     		beq	.L77
 990:..\..\..\..\..\..\Software\uCOS-II\Source/os_task.c ****         self = OS_TRUE;
 991:..\..\..\..\..\..\Software\uCOS-II\Source/os_task.c ****     } else {
 992:..\..\..\..\..\..\Software\uCOS-II\Source/os_task.c ****         self = OS_FALSE;                                        /* No suspending another task      
 993              		.loc 1 992 14 view .LVU330
 994 0024 0025     		movs	r5, #0
 995              	.LVL111:
 996              	.L68:
 993:..\..\..\..\..\..\Software\uCOS-II\Source/os_task.c ****     }
 994:..\..\..\..\..\..\Software\uCOS-II\Source/os_task.c ****     ptcb = OSTCBPrioTbl[prio];
 997              		.loc 1 994 5 is_stmt 1 view .LVU331
 998              		.loc 1 994 10 is_stmt 0 view .LVU332
 999 0026 A400     		lsls	r4, r4, #2
 1000              	.LVL112:
 1001              		.loc 1 994 10 view .LVU333
 1002 0028 1C4B     		ldr	r3, .L81+4
 1003 002a E358     		ldr	r3, [r4, r3]
 1004              	.LVL113:
 995:..\..\..\..\..\..\Software\uCOS-II\Source/os_task.c ****     if (ptcb == (OS_TCB *)0) {                                  /* Task to suspend must exist      
 1005              		.loc 1 995 5 is_stmt 1 view .LVU334
 1006              		.loc 1 995 8 is_stmt 0 view .LVU335
 1007 002c 002B     		cmp	r3, #0
 1008 002e 23D0     		beq	.L78
 996:..\..\..\..\..\..\Software\uCOS-II\Source/os_task.c ****         OS_EXIT_CRITICAL();
 997:..\..\..\..\..\..\Software\uCOS-II\Source/os_task.c ****         return (OS_ERR_TASK_SUSPEND_PRIO);
 998:..\..\..\..\..\..\Software\uCOS-II\Source/os_task.c ****     }
 999:..\..\..\..\..\..\Software\uCOS-II\Source/os_task.c ****     if (ptcb == OS_TCB_RESERVED) {                              /* See if assigned to Mutex        
 1009              		.loc 1 999 5 is_stmt 1 view .LVU336
 1010              		.loc 1 999 8 is_stmt 0 view .LVU337
 1011 0030 012B     		cmp	r3, #1
 1012 0032 25D0     		beq	.L79
1000:..\..\..\..\..\..\Software\uCOS-II\Source/os_task.c ****         OS_EXIT_CRITICAL();
1001:..\..\..\..\..\..\Software\uCOS-II\Source/os_task.c ****         return (OS_ERR_TASK_NOT_EXIST);
1002:..\..\..\..\..\..\Software\uCOS-II\Source/os_task.c ****     }
1003:..\..\..\..\..\..\Software\uCOS-II\Source/os_task.c ****     y            = ptcb->OSTCBY;
 1013              		.loc 1 1003 5 is_stmt 1 view .LVU338
 1014              		.loc 1 1003 18 is_stmt 0 view .LVU339
 1015 0034 2822     		movs	r2, #40
ARM GAS  C:\Users\EDULU~1.DES\AppData\Local\Temp\ccgrKYGn.s 			page 38


 1016 0036 995C     		ldrb	r1, [r3, r2]
 1017              	.LVL114:
1004:..\..\..\..\..\..\Software\uCOS-II\Source/os_task.c ****     OSRdyTbl[y] &= (OS_PRIO)~ptcb->OSTCBBitX;                   /* Make task not ready             
 1018              		.loc 1 1004 5 is_stmt 1 view .LVU340
 1019              		.loc 1 1004 34 is_stmt 0 view .LVU341
 1020 0038 0132     		adds	r2, r2, #1
 1021 003a 9E5C     		ldrb	r6, [r3, r2]
 1022              		.loc 1 1004 17 view .LVU342
 1023 003c 184C     		ldr	r4, .L81+8
 1024 003e 625C     		ldrb	r2, [r4, r1]
 1025 0040 B243     		bics	r2, r6
 1026 0042 6254     		strb	r2, [r4, r1]
1005:..\..\..\..\..\..\Software\uCOS-II\Source/os_task.c ****     if (OSRdyTbl[y] == 0u) {
 1027              		.loc 1 1005 5 is_stmt 1 view .LVU343
 1028              		.loc 1 1005 8 is_stmt 0 view .LVU344
 1029 0044 05D1     		bne	.L71
1006:..\..\..\..\..\..\Software\uCOS-II\Source/os_task.c ****         OSRdyGrp &= (OS_PRIO)~ptcb->OSTCBBitY;
 1030              		.loc 1 1006 9 is_stmt 1 view .LVU345
 1031              		.loc 1 1006 35 is_stmt 0 view .LVU346
 1032 0046 2A32     		adds	r2, r2, #42
 1033 0048 9C5C     		ldrb	r4, [r3, r2]
 1034              		.loc 1 1006 18 view .LVU347
 1035 004a 1649     		ldr	r1, .L81+12
 1036              	.LVL115:
 1037              		.loc 1 1006 18 view .LVU348
 1038 004c 0A78     		ldrb	r2, [r1]
 1039 004e A243     		bics	r2, r4
 1040 0050 0A70     		strb	r2, [r1]
 1041              	.L71:
1007:..\..\..\..\..\..\Software\uCOS-II\Source/os_task.c ****     }
1008:..\..\..\..\..\..\Software\uCOS-II\Source/os_task.c ****     ptcb->OSTCBStat |= OS_STAT_SUSPEND;                         /* Status of task is 'SUSPENDED'   
 1042              		.loc 1 1008 5 is_stmt 1 view .LVU349
 1043              		.loc 1 1008 21 is_stmt 0 view .LVU350
 1044 0052 2421     		movs	r1, #36
 1045 0054 5A5C     		ldrb	r2, [r3, r1]
 1046 0056 0824     		movs	r4, #8
 1047 0058 2243     		orrs	r2, r4
 1048 005a 5A54     		strb	r2, [r3, r1]
1009:..\..\..\..\..\..\Software\uCOS-II\Source/os_task.c ****     OS_EXIT_CRITICAL();
 1049              		.loc 1 1009 5 is_stmt 1 view .LVU351
 1050              		.loc 1 1009 5 view .LVU352
 1051 005c FFF7FEFF 		bl	OS_CPU_SR_Restore
 1052              	.LVL116:
1010:..\..\..\..\..\..\Software\uCOS-II\Source/os_task.c ****     if (self == OS_TRUE) {                                      /* Context switch only if SELF     
 1053              		.loc 1 1010 5 view .LVU353
 1054              		.loc 1 1010 8 is_stmt 0 view .LVU354
 1055 0060 012D     		cmp	r5, #1
 1056 0062 11D0     		beq	.L80
1011:..\..\..\..\..\..\Software\uCOS-II\Source/os_task.c ****         OS_Sched();                                             /* Find new highest priority task  
1012:..\..\..\..\..\..\Software\uCOS-II\Source/os_task.c ****     }
1013:..\..\..\..\..\..\Software\uCOS-II\Source/os_task.c ****     return (OS_ERR_NONE);
 1057              		.loc 1 1013 12 view .LVU355
 1058 0064 0020     		movs	r0, #0
 1059              	.LVL117:
 1060              	.L65:
1014:..\..\..\..\..\..\Software\uCOS-II\Source/os_task.c **** }
 1061              		.loc 1 1014 1 view .LVU356
ARM GAS  C:\Users\EDULU~1.DES\AppData\Local\Temp\ccgrKYGn.s 			page 39


 1062              		@ sp needed
 1063 0066 70BD     		pop	{r4, r5, r6, pc}
 1064              	.LVL118:
 1065              	.L76:
 987:..\..\..\..\..\..\Software\uCOS-II\Source/os_task.c ****         self = OS_TRUE;
 1066              		.loc 1 987 9 is_stmt 1 view .LVU357
 987:..\..\..\..\..\..\Software\uCOS-II\Source/os_task.c ****         self = OS_TRUE;
 1067              		.loc 1 987 24 is_stmt 0 view .LVU358
 1068 0068 0B4B     		ldr	r3, .L81
 1069 006a 1A68     		ldr	r2, [r3]
 987:..\..\..\..\..\..\Software\uCOS-II\Source/os_task.c ****         self = OS_TRUE;
 1070              		.loc 1 987 14 view .LVU359
 1071 006c 2623     		movs	r3, #38
 1072 006e D45C     		ldrb	r4, [r2, r3]
 1073              	.LVL119:
 988:..\..\..\..\..\..\Software\uCOS-II\Source/os_task.c ****     } else if (prio == OSTCBCur->OSTCBPrio) {                   /* See if suspending self          
 1074              		.loc 1 988 9 is_stmt 1 view .LVU360
 988:..\..\..\..\..\..\Software\uCOS-II\Source/os_task.c ****     } else if (prio == OSTCBCur->OSTCBPrio) {                   /* See if suspending self          
 1075              		.loc 1 988 14 is_stmt 0 view .LVU361
 1076 0070 0125     		movs	r5, #1
 1077 0072 D8E7     		b	.L68
 1078              	.LVL120:
 1079              	.L77:
 990:..\..\..\..\..\..\Software\uCOS-II\Source/os_task.c ****     } else {
 1080              		.loc 1 990 14 view .LVU362
 1081 0074 0125     		movs	r5, #1
 1082 0076 D6E7     		b	.L68
 1083              	.LVL121:
 1084              	.L78:
 996:..\..\..\..\..\..\Software\uCOS-II\Source/os_task.c ****         return (OS_ERR_TASK_SUSPEND_PRIO);
 1085              		.loc 1 996 9 is_stmt 1 view .LVU363
 996:..\..\..\..\..\..\Software\uCOS-II\Source/os_task.c ****         return (OS_ERR_TASK_SUSPEND_PRIO);
 1086              		.loc 1 996 9 view .LVU364
 1087 0078 FFF7FEFF 		bl	OS_CPU_SR_Restore
 1088              	.LVL122:
 997:..\..\..\..\..\..\Software\uCOS-II\Source/os_task.c ****     }
 1089              		.loc 1 997 9 view .LVU365
 997:..\..\..\..\..\..\Software\uCOS-II\Source/os_task.c ****     }
 1090              		.loc 1 997 16 is_stmt 0 view .LVU366
 1091 007c 4820     		movs	r0, #72
 1092 007e F2E7     		b	.L65
 1093              	.LVL123:
 1094              	.L79:
1000:..\..\..\..\..\..\Software\uCOS-II\Source/os_task.c ****         return (OS_ERR_TASK_NOT_EXIST);
 1095              		.loc 1 1000 9 is_stmt 1 view .LVU367
1000:..\..\..\..\..\..\Software\uCOS-II\Source/os_task.c ****         return (OS_ERR_TASK_NOT_EXIST);
 1096              		.loc 1 1000 9 view .LVU368
 1097 0080 FFF7FEFF 		bl	OS_CPU_SR_Restore
 1098              	.LVL124:
1001:..\..\..\..\..\..\Software\uCOS-II\Source/os_task.c ****     }
 1099              		.loc 1 1001 9 view .LVU369
1001:..\..\..\..\..\..\Software\uCOS-II\Source/os_task.c ****     }
 1100              		.loc 1 1001 16 is_stmt 0 view .LVU370
 1101 0084 4320     		movs	r0, #67
 1102 0086 EEE7     		b	.L65
 1103              	.L80:
1011:..\..\..\..\..\..\Software\uCOS-II\Source/os_task.c ****     }
ARM GAS  C:\Users\EDULU~1.DES\AppData\Local\Temp\ccgrKYGn.s 			page 40


 1104              		.loc 1 1011 9 is_stmt 1 view .LVU371
 1105 0088 FFF7FEFF 		bl	OS_Sched
 1106              	.LVL125:
1013:..\..\..\..\..\..\Software\uCOS-II\Source/os_task.c **** }
 1107              		.loc 1 1013 12 is_stmt 0 view .LVU372
 1108 008c 0020     		movs	r0, #0
 1109 008e EAE7     		b	.L65
 1110              	.LVL126:
 1111              	.L72:
 977:..\..\..\..\..\..\Software\uCOS-II\Source/os_task.c ****     }
 1112              		.loc 1 977 16 view .LVU373
 1113 0090 4720     		movs	r0, #71
 1114              	.LVL127:
 977:..\..\..\..\..\..\Software\uCOS-II\Source/os_task.c ****     }
 1115              		.loc 1 977 16 view .LVU374
 1116 0092 E8E7     		b	.L65
 1117              	.LVL128:
 1118              	.L73:
 981:..\..\..\..\..\..\Software\uCOS-II\Source/os_task.c ****         }
 1119              		.loc 1 981 20 view .LVU375
 1120 0094 2A20     		movs	r0, #42
 1121              	.LVL129:
 981:..\..\..\..\..\..\Software\uCOS-II\Source/os_task.c ****         }
 1122              		.loc 1 981 20 view .LVU376
 1123 0096 E6E7     		b	.L65
 1124              	.L82:
 1125              		.align	2
 1126              	.L81:
 1127 0098 00000000 		.word	OSTCBCur
 1128 009c 00000000 		.word	OSTCBPrioTbl
 1129 00a0 00000000 		.word	OSRdyTbl
 1130 00a4 00000000 		.word	OSRdyGrp
 1131              		.cfi_endproc
 1132              	.LFE8:
 1133              		.size	OSTaskSuspend, .-OSTaskSuspend
 1134              		.section	.text.OSTaskRegGet,"ax",%progbits
 1135              		.align	1
 1136              		.global	OSTaskRegGet
 1137              		.syntax unified
 1138              		.code	16
 1139              		.thumb_func
 1140              		.fpu softvfp
 1141              		.type	OSTaskRegGet, %function
 1142              	OSTaskRegGet:
 1143              	.LVL130:
 1144              	.LFB9:
1015:..\..\..\..\..\..\Software\uCOS-II\Source/os_task.c **** #endif
1016:..\..\..\..\..\..\Software\uCOS-II\Source/os_task.c **** /*$PAGE*/
1017:..\..\..\..\..\..\Software\uCOS-II\Source/os_task.c **** /*
1018:..\..\..\..\..\..\Software\uCOS-II\Source/os_task.c **** ***************************************************************************************************
1019:..\..\..\..\..\..\Software\uCOS-II\Source/os_task.c **** *                                            QUERY A TASK
1020:..\..\..\..\..\..\Software\uCOS-II\Source/os_task.c **** *
1021:..\..\..\..\..\..\Software\uCOS-II\Source/os_task.c **** * Description: This function is called to obtain a copy of the desired task's TCB.
1022:..\..\..\..\..\..\Software\uCOS-II\Source/os_task.c **** *
1023:..\..\..\..\..\..\Software\uCOS-II\Source/os_task.c **** * Arguments  : prio         is the priority of the task to obtain information from.
1024:..\..\..\..\..\..\Software\uCOS-II\Source/os_task.c **** *
1025:..\..\..\..\..\..\Software\uCOS-II\Source/os_task.c **** *              p_task_data  is a pointer to where the desired task's OS_TCB will be stored.
ARM GAS  C:\Users\EDULU~1.DES\AppData\Local\Temp\ccgrKYGn.s 			page 41


1026:..\..\..\..\..\..\Software\uCOS-II\Source/os_task.c **** *
1027:..\..\..\..\..\..\Software\uCOS-II\Source/os_task.c **** * Returns    : OS_ERR_NONE            if the requested task is suspended
1028:..\..\..\..\..\..\Software\uCOS-II\Source/os_task.c **** *              OS_ERR_PRIO_INVALID    if the priority you specify is higher that the maximum allowe
1029:..\..\..\..\..\..\Software\uCOS-II\Source/os_task.c **** *                                     (i.e. > OS_LOWEST_PRIO) or, you have not specified OS_PRIO_SE
1030:..\..\..\..\..\..\Software\uCOS-II\Source/os_task.c **** *              OS_ERR_PRIO            if the desired task has not been created
1031:..\..\..\..\..\..\Software\uCOS-II\Source/os_task.c **** *              OS_ERR_TASK_NOT_EXIST  if the task is assigned to a Mutex PIP
1032:..\..\..\..\..\..\Software\uCOS-II\Source/os_task.c **** *              OS_ERR_PDATA_NULL      if 'p_task_data' is a NULL pointer
1033:..\..\..\..\..\..\Software\uCOS-II\Source/os_task.c **** ***************************************************************************************************
1034:..\..\..\..\..\..\Software\uCOS-II\Source/os_task.c **** */
1035:..\..\..\..\..\..\Software\uCOS-II\Source/os_task.c **** 
1036:..\..\..\..\..\..\Software\uCOS-II\Source/os_task.c **** #if OS_TASK_QUERY_EN > 0u
1037:..\..\..\..\..\..\Software\uCOS-II\Source/os_task.c **** INT8U  OSTaskQuery (INT8U    prio,
1038:..\..\..\..\..\..\Software\uCOS-II\Source/os_task.c ****                     OS_TCB  *p_task_data)
1039:..\..\..\..\..\..\Software\uCOS-II\Source/os_task.c **** {
1040:..\..\..\..\..\..\Software\uCOS-II\Source/os_task.c ****     OS_TCB    *ptcb;
1041:..\..\..\..\..\..\Software\uCOS-II\Source/os_task.c **** #if OS_CRITICAL_METHOD == 3u                     /* Allocate storage for CPU status register       
1042:..\..\..\..\..\..\Software\uCOS-II\Source/os_task.c ****     OS_CPU_SR  cpu_sr = 0u;
1043:..\..\..\..\..\..\Software\uCOS-II\Source/os_task.c **** #endif
1044:..\..\..\..\..\..\Software\uCOS-II\Source/os_task.c **** 
1045:..\..\..\..\..\..\Software\uCOS-II\Source/os_task.c **** 
1046:..\..\..\..\..\..\Software\uCOS-II\Source/os_task.c **** 
1047:..\..\..\..\..\..\Software\uCOS-II\Source/os_task.c **** #if OS_ARG_CHK_EN > 0u
1048:..\..\..\..\..\..\Software\uCOS-II\Source/os_task.c ****     if (prio > OS_LOWEST_PRIO) {                 /* Task priority valid ?                          
1049:..\..\..\..\..\..\Software\uCOS-II\Source/os_task.c ****         if (prio != OS_PRIO_SELF) {
1050:..\..\..\..\..\..\Software\uCOS-II\Source/os_task.c ****             return (OS_ERR_PRIO_INVALID);
1051:..\..\..\..\..\..\Software\uCOS-II\Source/os_task.c ****         }
1052:..\..\..\..\..\..\Software\uCOS-II\Source/os_task.c ****     }
1053:..\..\..\..\..\..\Software\uCOS-II\Source/os_task.c ****     if (p_task_data == (OS_TCB *)0) {            /* Validate 'p_task_data'                         
1054:..\..\..\..\..\..\Software\uCOS-II\Source/os_task.c ****         return (OS_ERR_PDATA_NULL);
1055:..\..\..\..\..\..\Software\uCOS-II\Source/os_task.c ****     }
1056:..\..\..\..\..\..\Software\uCOS-II\Source/os_task.c **** #endif
1057:..\..\..\..\..\..\Software\uCOS-II\Source/os_task.c ****     OS_ENTER_CRITICAL();
1058:..\..\..\..\..\..\Software\uCOS-II\Source/os_task.c ****     if (prio == OS_PRIO_SELF) {                  /* See if suspend SELF                            
1059:..\..\..\..\..\..\Software\uCOS-II\Source/os_task.c ****         prio = OSTCBCur->OSTCBPrio;
1060:..\..\..\..\..\..\Software\uCOS-II\Source/os_task.c ****     }
1061:..\..\..\..\..\..\Software\uCOS-II\Source/os_task.c ****     ptcb = OSTCBPrioTbl[prio];
1062:..\..\..\..\..\..\Software\uCOS-II\Source/os_task.c ****     if (ptcb == (OS_TCB *)0) {                   /* Task to query must exist                       
1063:..\..\..\..\..\..\Software\uCOS-II\Source/os_task.c ****         OS_EXIT_CRITICAL();
1064:..\..\..\..\..\..\Software\uCOS-II\Source/os_task.c ****         return (OS_ERR_PRIO);
1065:..\..\..\..\..\..\Software\uCOS-II\Source/os_task.c ****     }
1066:..\..\..\..\..\..\Software\uCOS-II\Source/os_task.c ****     if (ptcb == OS_TCB_RESERVED) {               /* Task to query must not be assigned to a Mutex  
1067:..\..\..\..\..\..\Software\uCOS-II\Source/os_task.c ****         OS_EXIT_CRITICAL();
1068:..\..\..\..\..\..\Software\uCOS-II\Source/os_task.c ****         return (OS_ERR_TASK_NOT_EXIST);
1069:..\..\..\..\..\..\Software\uCOS-II\Source/os_task.c ****     }
1070:..\..\..\..\..\..\Software\uCOS-II\Source/os_task.c ****                                                  /* Copy TCB into user storage area                
1071:..\..\..\..\..\..\Software\uCOS-II\Source/os_task.c ****     OS_MemCopy((INT8U *)p_task_data, (INT8U *)ptcb, sizeof(OS_TCB));
1072:..\..\..\..\..\..\Software\uCOS-II\Source/os_task.c ****     OS_EXIT_CRITICAL();
1073:..\..\..\..\..\..\Software\uCOS-II\Source/os_task.c ****     return (OS_ERR_NONE);
1074:..\..\..\..\..\..\Software\uCOS-II\Source/os_task.c **** }
1075:..\..\..\..\..\..\Software\uCOS-II\Source/os_task.c **** #endif
1076:..\..\..\..\..\..\Software\uCOS-II\Source/os_task.c **** /*$PAGE*/
1077:..\..\..\..\..\..\Software\uCOS-II\Source/os_task.c **** /*
1078:..\..\..\..\..\..\Software\uCOS-II\Source/os_task.c **** ***************************************************************************************************
1079:..\..\..\..\..\..\Software\uCOS-II\Source/os_task.c **** *                              GET THE CURRENT VALUE OF A TASK REGISTER
1080:..\..\..\..\..\..\Software\uCOS-II\Source/os_task.c **** *
1081:..\..\..\..\..\..\Software\uCOS-II\Source/os_task.c **** * Description: This function is called to obtain the current value of a task register.  Task regist
1082:..\..\..\..\..\..\Software\uCOS-II\Source/os_task.c **** *              are application specific and can be used to store task specific values such as 'erro
ARM GAS  C:\Users\EDULU~1.DES\AppData\Local\Temp\ccgrKYGn.s 			page 42


1083:..\..\..\..\..\..\Software\uCOS-II\Source/os_task.c **** *              numbers' (i.e. errno), statistics, etc.  Each task register can hold a 32-bit value.
1084:..\..\..\..\..\..\Software\uCOS-II\Source/os_task.c **** *
1085:..\..\..\..\..\..\Software\uCOS-II\Source/os_task.c **** * Arguments  : prio      is the priority of the task you want to get the task register from.  If yo
1086:..\..\..\..\..\..\Software\uCOS-II\Source/os_task.c **** *                        specify OS_PRIO_SELF then the task register of the current task will be ob
1087:..\..\..\..\..\..\Software\uCOS-II\Source/os_task.c **** *
1088:..\..\..\..\..\..\Software\uCOS-II\Source/os_task.c **** *              id        is the 'id' of the desired task register.  Note that the 'id' must be less
1089:..\..\..\..\..\..\Software\uCOS-II\Source/os_task.c **** *                        than OS_TASK_REG_TBL_SIZE
1090:..\..\..\..\..\..\Software\uCOS-II\Source/os_task.c **** *
1091:..\..\..\..\..\..\Software\uCOS-II\Source/os_task.c **** *              perr      is a pointer to a variable that will hold an error code related to this ca
1092:..\..\..\..\..\..\Software\uCOS-II\Source/os_task.c **** *
1093:..\..\..\..\..\..\Software\uCOS-II\Source/os_task.c **** *                        OS_ERR_NONE            if the call was successful
1094:..\..\..\..\..\..\Software\uCOS-II\Source/os_task.c **** *                        OS_ERR_PRIO_INVALID    if you specified an invalid priority
1095:..\..\..\..\..\..\Software\uCOS-II\Source/os_task.c **** *                        OS_ERR_ID_INVALID      if the 'id' is not between 0 and OS_TASK_REG_TBL_SI
1096:..\..\..\..\..\..\Software\uCOS-II\Source/os_task.c **** *
1097:..\..\..\..\..\..\Software\uCOS-II\Source/os_task.c **** * Returns    : The current value of the task's register or 0 if an error is detected.
1098:..\..\..\..\..\..\Software\uCOS-II\Source/os_task.c **** *
1099:..\..\..\..\..\..\Software\uCOS-II\Source/os_task.c **** * Note(s)    : The maximum number of task variables is 254
1100:..\..\..\..\..\..\Software\uCOS-II\Source/os_task.c **** ***************************************************************************************************
1101:..\..\..\..\..\..\Software\uCOS-II\Source/os_task.c **** */
1102:..\..\..\..\..\..\Software\uCOS-II\Source/os_task.c **** 
1103:..\..\..\..\..\..\Software\uCOS-II\Source/os_task.c **** #if OS_TASK_REG_TBL_SIZE > 0u
1104:..\..\..\..\..\..\Software\uCOS-II\Source/os_task.c **** INT32U  OSTaskRegGet (INT8U   prio,
1105:..\..\..\..\..\..\Software\uCOS-II\Source/os_task.c ****                       INT8U   id,
1106:..\..\..\..\..\..\Software\uCOS-II\Source/os_task.c ****                       INT8U  *perr)
1107:..\..\..\..\..\..\Software\uCOS-II\Source/os_task.c **** {
 1145              		.loc 1 1107 1 is_stmt 1 view -0
 1146              		.cfi_startproc
 1147              		@ args = 0, pretend = 0, frame = 0
 1148              		@ frame_needed = 0, uses_anonymous_args = 0
 1149              		.loc 1 1107 1 is_stmt 0 view .LVU378
 1150 0000 70B5     		push	{r4, r5, r6, lr}
 1151              		.cfi_def_cfa_offset 16
 1152              		.cfi_offset 4, -16
 1153              		.cfi_offset 5, -12
 1154              		.cfi_offset 6, -8
 1155              		.cfi_offset 14, -4
 1156 0002 0400     		movs	r4, r0
 1157 0004 0D00     		movs	r5, r1
 1158 0006 1600     		movs	r6, r2
1108:..\..\..\..\..\..\Software\uCOS-II\Source/os_task.c **** #if OS_CRITICAL_METHOD == 3u                     /* Allocate storage for CPU status register       
1109:..\..\..\..\..\..\Software\uCOS-II\Source/os_task.c ****     OS_CPU_SR  cpu_sr = 0u;
 1159              		.loc 1 1109 5 is_stmt 1 view .LVU379
 1160              	.LVL131:
1110:..\..\..\..\..\..\Software\uCOS-II\Source/os_task.c **** #endif
1111:..\..\..\..\..\..\Software\uCOS-II\Source/os_task.c ****     INT32U     value;
 1161              		.loc 1 1111 5 view .LVU380
1112:..\..\..\..\..\..\Software\uCOS-II\Source/os_task.c ****     OS_TCB    *ptcb;
 1162              		.loc 1 1112 5 view .LVU381
1113:..\..\..\..\..\..\Software\uCOS-II\Source/os_task.c **** 
1114:..\..\..\..\..\..\Software\uCOS-II\Source/os_task.c **** 
1115:..\..\..\..\..\..\Software\uCOS-II\Source/os_task.c **** 
1116:..\..\..\..\..\..\Software\uCOS-II\Source/os_task.c **** #ifdef OS_SAFETY_CRITICAL
1117:..\..\..\..\..\..\Software\uCOS-II\Source/os_task.c ****     if (perr == (INT8U *)0) {
1118:..\..\..\..\..\..\Software\uCOS-II\Source/os_task.c ****         OS_SAFETY_CRITICAL_EXCEPTION();
1119:..\..\..\..\..\..\Software\uCOS-II\Source/os_task.c ****         return (0u);
1120:..\..\..\..\..\..\Software\uCOS-II\Source/os_task.c ****     }
1121:..\..\..\..\..\..\Software\uCOS-II\Source/os_task.c **** #endif
ARM GAS  C:\Users\EDULU~1.DES\AppData\Local\Temp\ccgrKYGn.s 			page 43


1122:..\..\..\..\..\..\Software\uCOS-II\Source/os_task.c **** 
1123:..\..\..\..\..\..\Software\uCOS-II\Source/os_task.c **** #if OS_ARG_CHK_EN > 0u
1124:..\..\..\..\..\..\Software\uCOS-II\Source/os_task.c ****     if (prio >= OS_LOWEST_PRIO) {
 1163              		.loc 1 1124 5 view .LVU382
 1164              		.loc 1 1124 8 is_stmt 0 view .LVU383
 1165 0008 1E28     		cmp	r0, #30
 1166 000a 05D9     		bls	.L84
1125:..\..\..\..\..\..\Software\uCOS-II\Source/os_task.c ****         if (prio != OS_PRIO_SELF) {
 1167              		.loc 1 1125 9 is_stmt 1 view .LVU384
 1168              		.loc 1 1125 12 is_stmt 0 view .LVU385
 1169 000c FF28     		cmp	r0, #255
 1170 000e 03D0     		beq	.L84
1126:..\..\..\..\..\..\Software\uCOS-II\Source/os_task.c ****             *perr = OS_ERR_PRIO_INVALID;
 1171              		.loc 1 1126 13 is_stmt 1 view .LVU386
 1172              		.loc 1 1126 19 is_stmt 0 view .LVU387
 1173 0010 2A23     		movs	r3, #42
 1174 0012 1370     		strb	r3, [r2]
1127:..\..\..\..\..\..\Software\uCOS-II\Source/os_task.c ****             return (0u);
 1175              		.loc 1 1127 13 is_stmt 1 view .LVU388
 1176              		.loc 1 1127 20 is_stmt 0 view .LVU389
 1177 0014 0024     		movs	r4, #0
 1178 0016 04E0     		b	.L83
 1179              	.L84:
1128:..\..\..\..\..\..\Software\uCOS-II\Source/os_task.c ****         }
1129:..\..\..\..\..\..\Software\uCOS-II\Source/os_task.c ****     }
1130:..\..\..\..\..\..\Software\uCOS-II\Source/os_task.c ****     if (id >= OS_TASK_REG_TBL_SIZE) {
 1180              		.loc 1 1130 5 is_stmt 1 view .LVU390
 1181              		.loc 1 1130 8 is_stmt 0 view .LVU391
 1182 0018 002D     		cmp	r5, #0
 1183 001a 04D0     		beq	.L86
1131:..\..\..\..\..\..\Software\uCOS-II\Source/os_task.c ****         *perr = OS_ERR_ID_INVALID;
 1184              		.loc 1 1131 9 is_stmt 1 view .LVU392
 1185              		.loc 1 1131 15 is_stmt 0 view .LVU393
 1186 001c 0823     		movs	r3, #8
 1187 001e 3370     		strb	r3, [r6]
1132:..\..\..\..\..\..\Software\uCOS-II\Source/os_task.c ****         return (0u);
 1188              		.loc 1 1132 9 is_stmt 1 view .LVU394
 1189              		.loc 1 1132 16 is_stmt 0 view .LVU395
 1190 0020 0024     		movs	r4, #0
 1191              	.LVL132:
 1192              	.L83:
1133:..\..\..\..\..\..\Software\uCOS-II\Source/os_task.c ****     }
1134:..\..\..\..\..\..\Software\uCOS-II\Source/os_task.c **** #endif
1135:..\..\..\..\..\..\Software\uCOS-II\Source/os_task.c ****     OS_ENTER_CRITICAL();
1136:..\..\..\..\..\..\Software\uCOS-II\Source/os_task.c ****     if (prio == OS_PRIO_SELF) {                  /* See if need to get register from current task  
1137:..\..\..\..\..\..\Software\uCOS-II\Source/os_task.c ****         ptcb = OSTCBCur;
1138:..\..\..\..\..\..\Software\uCOS-II\Source/os_task.c ****     } else {
1139:..\..\..\..\..\..\Software\uCOS-II\Source/os_task.c ****         ptcb = OSTCBPrioTbl[prio];
1140:..\..\..\..\..\..\Software\uCOS-II\Source/os_task.c ****     }
1141:..\..\..\..\..\..\Software\uCOS-II\Source/os_task.c ****     value = ptcb->OSTCBRegTbl[id];
1142:..\..\..\..\..\..\Software\uCOS-II\Source/os_task.c ****     OS_EXIT_CRITICAL();
1143:..\..\..\..\..\..\Software\uCOS-II\Source/os_task.c ****     *perr = OS_ERR_NONE;
1144:..\..\..\..\..\..\Software\uCOS-II\Source/os_task.c ****     return (value);
1145:..\..\..\..\..\..\Software\uCOS-II\Source/os_task.c **** }
 1193              		.loc 1 1145 1 view .LVU396
 1194 0022 2000     		movs	r0, r4
 1195              		@ sp needed
ARM GAS  C:\Users\EDULU~1.DES\AppData\Local\Temp\ccgrKYGn.s 			page 44


 1196              	.LVL133:
 1197              		.loc 1 1145 1 view .LVU397
 1198 0024 70BD     		pop	{r4, r5, r6, pc}
 1199              	.LVL134:
 1200              	.L86:
1135:..\..\..\..\..\..\Software\uCOS-II\Source/os_task.c ****     if (prio == OS_PRIO_SELF) {                  /* See if need to get register from current task  
 1201              		.loc 1 1135 5 is_stmt 1 view .LVU398
1135:..\..\..\..\..\..\Software\uCOS-II\Source/os_task.c ****     if (prio == OS_PRIO_SELF) {                  /* See if need to get register from current task  
 1202              		.loc 1 1135 5 view .LVU399
 1203 0026 FFF7FEFF 		bl	OS_CPU_SR_Save
 1204              	.LVL135:
1136:..\..\..\..\..\..\Software\uCOS-II\Source/os_task.c ****         ptcb = OSTCBCur;
 1205              		.loc 1 1136 5 view .LVU400
1136:..\..\..\..\..\..\Software\uCOS-II\Source/os_task.c ****         ptcb = OSTCBCur;
 1206              		.loc 1 1136 8 is_stmt 0 view .LVU401
 1207 002a FF2C     		cmp	r4, #255
 1208 002c 0BD0     		beq	.L89
1139:..\..\..\..\..\..\Software\uCOS-II\Source/os_task.c ****     }
 1209              		.loc 1 1139 9 is_stmt 1 view .LVU402
1139:..\..\..\..\..\..\Software\uCOS-II\Source/os_task.c ****     }
 1210              		.loc 1 1139 14 is_stmt 0 view .LVU403
 1211 002e A400     		lsls	r4, r4, #2
 1212 0030 064B     		ldr	r3, .L90
 1213 0032 E358     		ldr	r3, [r4, r3]
 1214              	.LVL136:
 1215              	.L88:
1141:..\..\..\..\..\..\Software\uCOS-II\Source/os_task.c ****     OS_EXIT_CRITICAL();
 1216              		.loc 1 1141 5 is_stmt 1 view .LVU404
1141:..\..\..\..\..\..\Software\uCOS-II\Source/os_task.c ****     OS_EXIT_CRITICAL();
 1217              		.loc 1 1141 11 is_stmt 0 view .LVU405
 1218 0034 0A35     		adds	r5, r5, #10
 1219 0036 AD00     		lsls	r5, r5, #2
 1220 0038 5D19     		adds	r5, r3, r5
 1221 003a 6C68     		ldr	r4, [r5, #4]
 1222              	.LVL137:
1142:..\..\..\..\..\..\Software\uCOS-II\Source/os_task.c ****     *perr = OS_ERR_NONE;
 1223              		.loc 1 1142 5 is_stmt 1 view .LVU406
1142:..\..\..\..\..\..\Software\uCOS-II\Source/os_task.c ****     *perr = OS_ERR_NONE;
 1224              		.loc 1 1142 5 view .LVU407
 1225 003c FFF7FEFF 		bl	OS_CPU_SR_Restore
 1226              	.LVL138:
1143:..\..\..\..\..\..\Software\uCOS-II\Source/os_task.c ****     return (value);
 1227              		.loc 1 1143 5 view .LVU408
1143:..\..\..\..\..\..\Software\uCOS-II\Source/os_task.c ****     return (value);
 1228              		.loc 1 1143 11 is_stmt 0 view .LVU409
 1229 0040 0023     		movs	r3, #0
 1230 0042 3370     		strb	r3, [r6]
1144:..\..\..\..\..\..\Software\uCOS-II\Source/os_task.c **** }
 1231              		.loc 1 1144 5 is_stmt 1 view .LVU410
1144:..\..\..\..\..\..\Software\uCOS-II\Source/os_task.c **** }
 1232              		.loc 1 1144 12 is_stmt 0 view .LVU411
 1233 0044 EDE7     		b	.L83
 1234              	.LVL139:
 1235              	.L89:
1137:..\..\..\..\..\..\Software\uCOS-II\Source/os_task.c ****     } else {
 1236              		.loc 1 1137 9 is_stmt 1 view .LVU412
1137:..\..\..\..\..\..\Software\uCOS-II\Source/os_task.c ****     } else {
ARM GAS  C:\Users\EDULU~1.DES\AppData\Local\Temp\ccgrKYGn.s 			page 45


 1237              		.loc 1 1137 14 is_stmt 0 view .LVU413
 1238 0046 024B     		ldr	r3, .L90+4
 1239 0048 1B68     		ldr	r3, [r3]
 1240              	.LVL140:
1137:..\..\..\..\..\..\Software\uCOS-II\Source/os_task.c ****     } else {
 1241              		.loc 1 1137 14 view .LVU414
 1242 004a F3E7     		b	.L88
 1243              	.L91:
 1244              		.align	2
 1245              	.L90:
 1246 004c 00000000 		.word	OSTCBPrioTbl
 1247 0050 00000000 		.word	OSTCBCur
 1248              		.cfi_endproc
 1249              	.LFE9:
 1250              		.size	OSTaskRegGet, .-OSTaskRegGet
 1251              		.section	.text.OSTaskRegGetID,"ax",%progbits
 1252              		.align	1
 1253              		.global	OSTaskRegGetID
 1254              		.syntax unified
 1255              		.code	16
 1256              		.thumb_func
 1257              		.fpu softvfp
 1258              		.type	OSTaskRegGetID, %function
 1259              	OSTaskRegGetID:
 1260              	.LVL141:
 1261              	.LFB10:
1146:..\..\..\..\..\..\Software\uCOS-II\Source/os_task.c **** #endif
1147:..\..\..\..\..\..\Software\uCOS-II\Source/os_task.c **** 
1148:..\..\..\..\..\..\Software\uCOS-II\Source/os_task.c **** /*$PAGE*/
1149:..\..\..\..\..\..\Software\uCOS-II\Source/os_task.c **** /*
1150:..\..\..\..\..\..\Software\uCOS-II\Source/os_task.c **** ***************************************************************************************************
1151:..\..\..\..\..\..\Software\uCOS-II\Source/os_task.c **** *                                    ALLOCATE THE NEXT AVAILABLE TASK REGISTER ID
1152:..\..\..\..\..\..\Software\uCOS-II\Source/os_task.c **** *
1153:..\..\..\..\..\..\Software\uCOS-II\Source/os_task.c **** * Description: This function is called to obtain a task register ID.  This function thus allows tas
1154:..\..\..\..\..\..\Software\uCOS-II\Source/os_task.c **** *              allocated dynamically instead of statically.
1155:..\..\..\..\..\..\Software\uCOS-II\Source/os_task.c **** *
1156:..\..\..\..\..\..\Software\uCOS-II\Source/os_task.c **** * Arguments  : p_err       is a pointer to a variable that will hold an error code related to this 
1157:..\..\..\..\..\..\Software\uCOS-II\Source/os_task.c **** *
1158:..\..\..\..\..\..\Software\uCOS-II\Source/os_task.c **** *                            OS_ERR_NONE               if the call was successful
1159:..\..\..\..\..\..\Software\uCOS-II\Source/os_task.c **** *                            OS_ERR_NO_MORE_ID_AVAIL   if you are attempting to assign more task re
1160:..\..\..\..\..\..\Software\uCOS-II\Source/os_task.c **** *                                                           have available through OS_TASK_REG_TBL_
1161:..\..\..\..\..\..\Software\uCOS-II\Source/os_task.c **** *
1162:..\..\..\..\..\..\Software\uCOS-II\Source/os_task.c **** * Returns    : The next available task register 'id' or OS_TASK_REG_TBL_SIZE if an error is detecte
1163:..\..\..\..\..\..\Software\uCOS-II\Source/os_task.c **** ***************************************************************************************************
1164:..\..\..\..\..\..\Software\uCOS-II\Source/os_task.c **** */
1165:..\..\..\..\..\..\Software\uCOS-II\Source/os_task.c **** 
1166:..\..\..\..\..\..\Software\uCOS-II\Source/os_task.c **** #if OS_TASK_REG_TBL_SIZE > 0u
1167:..\..\..\..\..\..\Software\uCOS-II\Source/os_task.c **** INT8U  OSTaskRegGetID (INT8U  *perr)
1168:..\..\..\..\..\..\Software\uCOS-II\Source/os_task.c **** {
 1262              		.loc 1 1168 1 is_stmt 1 view -0
 1263              		.cfi_startproc
 1264              		@ args = 0, pretend = 0, frame = 0
 1265              		@ frame_needed = 0, uses_anonymous_args = 0
 1266              		.loc 1 1168 1 is_stmt 0 view .LVU416
 1267 0000 70B5     		push	{r4, r5, r6, lr}
 1268              		.cfi_def_cfa_offset 16
 1269              		.cfi_offset 4, -16
ARM GAS  C:\Users\EDULU~1.DES\AppData\Local\Temp\ccgrKYGn.s 			page 46


 1270              		.cfi_offset 5, -12
 1271              		.cfi_offset 6, -8
 1272              		.cfi_offset 14, -4
 1273 0002 0500     		movs	r5, r0
1169:..\..\..\..\..\..\Software\uCOS-II\Source/os_task.c **** #if OS_CRITICAL_METHOD == 3u                                    /* Allocate storage for CPU status 
1170:..\..\..\..\..\..\Software\uCOS-II\Source/os_task.c ****     OS_CPU_SR  cpu_sr = 0u;
 1274              		.loc 1 1170 5 is_stmt 1 view .LVU417
 1275              	.LVL142:
1171:..\..\..\..\..\..\Software\uCOS-II\Source/os_task.c **** #endif
1172:..\..\..\..\..\..\Software\uCOS-II\Source/os_task.c ****     INT8U      id;
 1276              		.loc 1 1172 5 view .LVU418
1173:..\..\..\..\..\..\Software\uCOS-II\Source/os_task.c **** 
1174:..\..\..\..\..\..\Software\uCOS-II\Source/os_task.c **** 
1175:..\..\..\..\..\..\Software\uCOS-II\Source/os_task.c **** #ifdef OS_SAFETY_CRITICAL
1176:..\..\..\..\..\..\Software\uCOS-II\Source/os_task.c ****     if (perr == (INT8U *)0) {
1177:..\..\..\..\..\..\Software\uCOS-II\Source/os_task.c ****         OS_SAFETY_CRITICAL_EXCEPTION();
1178:..\..\..\..\..\..\Software\uCOS-II\Source/os_task.c ****         return ((INT8U)OS_TASK_REG_TBL_SIZE);
1179:..\..\..\..\..\..\Software\uCOS-II\Source/os_task.c ****     }
1180:..\..\..\..\..\..\Software\uCOS-II\Source/os_task.c **** #endif
1181:..\..\..\..\..\..\Software\uCOS-II\Source/os_task.c **** 
1182:..\..\..\..\..\..\Software\uCOS-II\Source/os_task.c ****     OS_ENTER_CRITICAL();
 1277              		.loc 1 1182 5 view .LVU419
 1278              		.loc 1 1182 5 view .LVU420
 1279 0004 FFF7FEFF 		bl	OS_CPU_SR_Save
 1280              	.LVL143:
1183:..\..\..\..\..\..\Software\uCOS-II\Source/os_task.c ****     if (OSTaskRegNextAvailID >= OS_TASK_REG_TBL_SIZE) {         /* See if we exceeded the number of
 1281              		.loc 1 1183 5 view .LVU421
 1282              		.loc 1 1183 30 is_stmt 0 view .LVU422
 1283 0008 094B     		ldr	r3, .L96
 1284 000a 1C78     		ldrb	r4, [r3]
 1285              		.loc 1 1183 8 view .LVU423
 1286 000c 002C     		cmp	r4, #0
 1287 000e 08D1     		bne	.L95
1184:..\..\..\..\..\..\Software\uCOS-II\Source/os_task.c ****        *perr = OS_ERR_NO_MORE_ID_AVAIL;                         /* Yes, cannot allocate more task r
1185:..\..\..\..\..\..\Software\uCOS-II\Source/os_task.c ****         OS_EXIT_CRITICAL();
1186:..\..\..\..\..\..\Software\uCOS-II\Source/os_task.c ****         return ((INT8U)OS_TASK_REG_TBL_SIZE);
1187:..\..\..\..\..\..\Software\uCOS-II\Source/os_task.c ****     }
1188:..\..\..\..\..\..\Software\uCOS-II\Source/os_task.c ****      
1189:..\..\..\..\..\..\Software\uCOS-II\Source/os_task.c ****     id   = OSTaskRegNextAvailID;                                /* Assign the next available ID    
 1288              		.loc 1 1189 5 is_stmt 1 view .LVU424
 1289              	.LVL144:
1190:..\..\..\..\..\..\Software\uCOS-II\Source/os_task.c ****     OSTaskRegNextAvailID++;                                     /* Increment available ID for next 
 1290              		.loc 1 1190 5 view .LVU425
 1291              		.loc 1 1190 25 is_stmt 0 view .LVU426
 1292 0010 631C     		adds	r3, r4, #1
 1293 0012 074A     		ldr	r2, .L96
 1294 0014 1370     		strb	r3, [r2]
1191:..\..\..\..\..\..\Software\uCOS-II\Source/os_task.c ****     OS_EXIT_CRITICAL();
 1295              		.loc 1 1191 5 is_stmt 1 view .LVU427
 1296              		.loc 1 1191 5 view .LVU428
 1297 0016 FFF7FEFF 		bl	OS_CPU_SR_Restore
 1298              	.LVL145:
1192:..\..\..\..\..\..\Software\uCOS-II\Source/os_task.c ****    *perr = OS_ERR_NONE;
 1299              		.loc 1 1192 4 view .LVU429
 1300              		.loc 1 1192 10 is_stmt 0 view .LVU430
 1301 001a 0023     		movs	r3, #0
 1302 001c 2B70     		strb	r3, [r5]
ARM GAS  C:\Users\EDULU~1.DES\AppData\Local\Temp\ccgrKYGn.s 			page 47


1193:..\..\..\..\..\..\Software\uCOS-II\Source/os_task.c ****     return (id);
 1303              		.loc 1 1193 5 is_stmt 1 view .LVU431
 1304              	.LVL146:
 1305              	.L94:
1194:..\..\..\..\..\..\Software\uCOS-II\Source/os_task.c **** }
 1306              		.loc 1 1194 1 is_stmt 0 view .LVU432
 1307 001e 2000     		movs	r0, r4
 1308              		@ sp needed
 1309              	.LVL147:
 1310              		.loc 1 1194 1 view .LVU433
 1311 0020 70BD     		pop	{r4, r5, r6, pc}
 1312              	.LVL148:
 1313              	.L95:
1184:..\..\..\..\..\..\Software\uCOS-II\Source/os_task.c ****         OS_EXIT_CRITICAL();
 1314              		.loc 1 1184 8 is_stmt 1 view .LVU434
1184:..\..\..\..\..\..\Software\uCOS-II\Source/os_task.c ****         OS_EXIT_CRITICAL();
 1315              		.loc 1 1184 14 is_stmt 0 view .LVU435
 1316 0022 9623     		movs	r3, #150
 1317 0024 2B70     		strb	r3, [r5]
1185:..\..\..\..\..\..\Software\uCOS-II\Source/os_task.c ****         return ((INT8U)OS_TASK_REG_TBL_SIZE);
 1318              		.loc 1 1185 9 is_stmt 1 view .LVU436
1185:..\..\..\..\..\..\Software\uCOS-II\Source/os_task.c ****         return ((INT8U)OS_TASK_REG_TBL_SIZE);
 1319              		.loc 1 1185 9 view .LVU437
 1320 0026 FFF7FEFF 		bl	OS_CPU_SR_Restore
 1321              	.LVL149:
1186:..\..\..\..\..\..\Software\uCOS-II\Source/os_task.c ****     }
 1322              		.loc 1 1186 9 view .LVU438
1186:..\..\..\..\..\..\Software\uCOS-II\Source/os_task.c ****     }
 1323              		.loc 1 1186 16 is_stmt 0 view .LVU439
 1324 002a 0124     		movs	r4, #1
 1325 002c F7E7     		b	.L94
 1326              	.L97:
 1327 002e C046     		.align	2
 1328              	.L96:
 1329 0030 00000000 		.word	OSTaskRegNextAvailID
 1330              		.cfi_endproc
 1331              	.LFE10:
 1332              		.size	OSTaskRegGetID, .-OSTaskRegGetID
 1333              		.section	.text.OSTaskRegSet,"ax",%progbits
 1334              		.align	1
 1335              		.global	OSTaskRegSet
 1336              		.syntax unified
 1337              		.code	16
 1338              		.thumb_func
 1339              		.fpu softvfp
 1340              		.type	OSTaskRegSet, %function
 1341              	OSTaskRegSet:
 1342              	.LVL150:
 1343              	.LFB11:
1195:..\..\..\..\..\..\Software\uCOS-II\Source/os_task.c **** #endif
1196:..\..\..\..\..\..\Software\uCOS-II\Source/os_task.c **** 
1197:..\..\..\..\..\..\Software\uCOS-II\Source/os_task.c **** /*$PAGE*/
1198:..\..\..\..\..\..\Software\uCOS-II\Source/os_task.c **** /*
1199:..\..\..\..\..\..\Software\uCOS-II\Source/os_task.c **** ***************************************************************************************************
1200:..\..\..\..\..\..\Software\uCOS-II\Source/os_task.c **** *                              SET THE CURRENT VALUE OF A TASK VARIABLE
1201:..\..\..\..\..\..\Software\uCOS-II\Source/os_task.c **** *
1202:..\..\..\..\..\..\Software\uCOS-II\Source/os_task.c **** * Description: This function is called to change the current value of a task register.  Task regist
ARM GAS  C:\Users\EDULU~1.DES\AppData\Local\Temp\ccgrKYGn.s 			page 48


1203:..\..\..\..\..\..\Software\uCOS-II\Source/os_task.c **** *              are application specific and can be used to store task specific values such as 'erro
1204:..\..\..\..\..\..\Software\uCOS-II\Source/os_task.c **** *              numbers' (i.e. errno), statistics, etc.  Each task register can hold a 32-bit value.
1205:..\..\..\..\..\..\Software\uCOS-II\Source/os_task.c **** *
1206:..\..\..\..\..\..\Software\uCOS-II\Source/os_task.c **** * Arguments  : prio      is the priority of the task you want to set the task register for.  If you
1207:..\..\..\..\..\..\Software\uCOS-II\Source/os_task.c **** *                        specify OS_PRIO_SELF then the task register of the current task will be ob
1208:..\..\..\..\..\..\Software\uCOS-II\Source/os_task.c **** *
1209:..\..\..\..\..\..\Software\uCOS-II\Source/os_task.c **** *              id        is the 'id' of the desired task register.  Note that the 'id' must be less
1210:..\..\..\..\..\..\Software\uCOS-II\Source/os_task.c **** *                        than OS_TASK_REG_TBL_SIZE
1211:..\..\..\..\..\..\Software\uCOS-II\Source/os_task.c **** *
1212:..\..\..\..\..\..\Software\uCOS-II\Source/os_task.c **** *              value     is the desired value for the task register.
1213:..\..\..\..\..\..\Software\uCOS-II\Source/os_task.c **** *
1214:..\..\..\..\..\..\Software\uCOS-II\Source/os_task.c **** *              perr      is a pointer to a variable that will hold an error code related to this ca
1215:..\..\..\..\..\..\Software\uCOS-II\Source/os_task.c **** *
1216:..\..\..\..\..\..\Software\uCOS-II\Source/os_task.c **** *                        OS_ERR_NONE            if the call was successful
1217:..\..\..\..\..\..\Software\uCOS-II\Source/os_task.c **** *                        OS_ERR_PRIO_INVALID    if you specified an invalid priority
1218:..\..\..\..\..\..\Software\uCOS-II\Source/os_task.c **** *                        OS_ERR_ID_INVALID      if the 'id' is not between 0 and OS_TASK_REG_TBL_SI
1219:..\..\..\..\..\..\Software\uCOS-II\Source/os_task.c **** *
1220:..\..\..\..\..\..\Software\uCOS-II\Source/os_task.c **** * Returns    : The current value of the task's variable or 0 if an error is detected.
1221:..\..\..\..\..\..\Software\uCOS-II\Source/os_task.c **** *
1222:..\..\..\..\..\..\Software\uCOS-II\Source/os_task.c **** * Note(s)    : The maximum number of task variables is 254
1223:..\..\..\..\..\..\Software\uCOS-II\Source/os_task.c **** ***************************************************************************************************
1224:..\..\..\..\..\..\Software\uCOS-II\Source/os_task.c **** */
1225:..\..\..\..\..\..\Software\uCOS-II\Source/os_task.c **** 
1226:..\..\..\..\..\..\Software\uCOS-II\Source/os_task.c **** #if OS_TASK_REG_TBL_SIZE > 0u
1227:..\..\..\..\..\..\Software\uCOS-II\Source/os_task.c **** void  OSTaskRegSet (INT8U    prio,
1228:..\..\..\..\..\..\Software\uCOS-II\Source/os_task.c ****                     INT8U    id,
1229:..\..\..\..\..\..\Software\uCOS-II\Source/os_task.c ****                     INT32U   value,
1230:..\..\..\..\..\..\Software\uCOS-II\Source/os_task.c ****                     INT8U   *perr)
1231:..\..\..\..\..\..\Software\uCOS-II\Source/os_task.c **** {
 1344              		.loc 1 1231 1 is_stmt 1 view -0
 1345              		.cfi_startproc
 1346              		@ args = 0, pretend = 0, frame = 0
 1347              		@ frame_needed = 0, uses_anonymous_args = 0
 1348              		.loc 1 1231 1 is_stmt 0 view .LVU441
 1349 0000 F8B5     		push	{r3, r4, r5, r6, r7, lr}
 1350              		.cfi_def_cfa_offset 24
 1351              		.cfi_offset 3, -24
 1352              		.cfi_offset 4, -20
 1353              		.cfi_offset 5, -16
 1354              		.cfi_offset 6, -12
 1355              		.cfi_offset 7, -8
 1356              		.cfi_offset 14, -4
 1357 0002 0400     		movs	r4, r0
 1358 0004 0D00     		movs	r5, r1
 1359 0006 1600     		movs	r6, r2
 1360 0008 1F00     		movs	r7, r3
1232:..\..\..\..\..\..\Software\uCOS-II\Source/os_task.c **** #if OS_CRITICAL_METHOD == 3u                     /* Allocate storage for CPU status register       
1233:..\..\..\..\..\..\Software\uCOS-II\Source/os_task.c ****     OS_CPU_SR  cpu_sr = 0u;
 1361              		.loc 1 1233 5 is_stmt 1 view .LVU442
 1362              	.LVL151:
1234:..\..\..\..\..\..\Software\uCOS-II\Source/os_task.c **** #endif
1235:..\..\..\..\..\..\Software\uCOS-II\Source/os_task.c ****     OS_TCB    *ptcb;
 1363              		.loc 1 1235 5 view .LVU443
1236:..\..\..\..\..\..\Software\uCOS-II\Source/os_task.c **** 
1237:..\..\..\..\..\..\Software\uCOS-II\Source/os_task.c **** 
1238:..\..\..\..\..\..\Software\uCOS-II\Source/os_task.c **** #ifdef OS_SAFETY_CRITICAL
1239:..\..\..\..\..\..\Software\uCOS-II\Source/os_task.c ****     if (perr == (INT8U *)0) {
ARM GAS  C:\Users\EDULU~1.DES\AppData\Local\Temp\ccgrKYGn.s 			page 49


1240:..\..\..\..\..\..\Software\uCOS-II\Source/os_task.c ****         OS_SAFETY_CRITICAL_EXCEPTION();
1241:..\..\..\..\..\..\Software\uCOS-II\Source/os_task.c ****         return;
1242:..\..\..\..\..\..\Software\uCOS-II\Source/os_task.c ****     }
1243:..\..\..\..\..\..\Software\uCOS-II\Source/os_task.c **** #endif
1244:..\..\..\..\..\..\Software\uCOS-II\Source/os_task.c **** 
1245:..\..\..\..\..\..\Software\uCOS-II\Source/os_task.c **** #if OS_ARG_CHK_EN > 0u
1246:..\..\..\..\..\..\Software\uCOS-II\Source/os_task.c ****     if (prio >= OS_LOWEST_PRIO) {
 1364              		.loc 1 1246 5 view .LVU444
 1365              		.loc 1 1246 8 is_stmt 0 view .LVU445
 1366 000a 1E28     		cmp	r0, #30
 1367 000c 04D9     		bls	.L99
1247:..\..\..\..\..\..\Software\uCOS-II\Source/os_task.c ****         if (prio != OS_PRIO_SELF) {
 1368              		.loc 1 1247 9 is_stmt 1 view .LVU446
 1369              		.loc 1 1247 12 is_stmt 0 view .LVU447
 1370 000e FF28     		cmp	r0, #255
 1371 0010 02D0     		beq	.L99
1248:..\..\..\..\..\..\Software\uCOS-II\Source/os_task.c ****             *perr = OS_ERR_PRIO_INVALID;
 1372              		.loc 1 1248 13 is_stmt 1 view .LVU448
 1373              		.loc 1 1248 19 is_stmt 0 view .LVU449
 1374 0012 2A23     		movs	r3, #42
 1375              	.LVL152:
 1376              		.loc 1 1248 19 view .LVU450
 1377 0014 3B70     		strb	r3, [r7]
1249:..\..\..\..\..\..\Software\uCOS-II\Source/os_task.c ****             return;
 1378              		.loc 1 1249 13 is_stmt 1 view .LVU451
 1379 0016 03E0     		b	.L98
 1380              	.LVL153:
 1381              	.L99:
1250:..\..\..\..\..\..\Software\uCOS-II\Source/os_task.c ****         }
1251:..\..\..\..\..\..\Software\uCOS-II\Source/os_task.c ****     }
1252:..\..\..\..\..\..\Software\uCOS-II\Source/os_task.c ****     if (id >= OS_TASK_REG_TBL_SIZE) {
 1382              		.loc 1 1252 5 view .LVU452
 1383              		.loc 1 1252 8 is_stmt 0 view .LVU453
 1384 0018 002D     		cmp	r5, #0
 1385 001a 02D0     		beq	.L101
1253:..\..\..\..\..\..\Software\uCOS-II\Source/os_task.c ****         *perr = OS_ERR_ID_INVALID;
 1386              		.loc 1 1253 9 is_stmt 1 view .LVU454
 1387              		.loc 1 1253 15 is_stmt 0 view .LVU455
 1388 001c 0823     		movs	r3, #8
 1389              	.LVL154:
 1390              		.loc 1 1253 15 view .LVU456
 1391 001e 3B70     		strb	r3, [r7]
1254:..\..\..\..\..\..\Software\uCOS-II\Source/os_task.c ****         return;
 1392              		.loc 1 1254 9 is_stmt 1 view .LVU457
 1393              	.LVL155:
 1394              	.L98:
1255:..\..\..\..\..\..\Software\uCOS-II\Source/os_task.c ****     }
1256:..\..\..\..\..\..\Software\uCOS-II\Source/os_task.c **** #endif
1257:..\..\..\..\..\..\Software\uCOS-II\Source/os_task.c ****     OS_ENTER_CRITICAL();
1258:..\..\..\..\..\..\Software\uCOS-II\Source/os_task.c ****     if (prio == OS_PRIO_SELF) {                  /* See if need to get register from current task  
1259:..\..\..\..\..\..\Software\uCOS-II\Source/os_task.c ****         ptcb = OSTCBCur;
1260:..\..\..\..\..\..\Software\uCOS-II\Source/os_task.c ****     } else {
1261:..\..\..\..\..\..\Software\uCOS-II\Source/os_task.c ****         ptcb = OSTCBPrioTbl[prio];
1262:..\..\..\..\..\..\Software\uCOS-II\Source/os_task.c ****     }
1263:..\..\..\..\..\..\Software\uCOS-II\Source/os_task.c ****     ptcb->OSTCBRegTbl[id] = value;
1264:..\..\..\..\..\..\Software\uCOS-II\Source/os_task.c ****     OS_EXIT_CRITICAL();
1265:..\..\..\..\..\..\Software\uCOS-II\Source/os_task.c ****     *perr                 = OS_ERR_NONE;
ARM GAS  C:\Users\EDULU~1.DES\AppData\Local\Temp\ccgrKYGn.s 			page 50


1266:..\..\..\..\..\..\Software\uCOS-II\Source/os_task.c **** }
 1395              		.loc 1 1266 1 is_stmt 0 view .LVU458
 1396              		@ sp needed
 1397              	.LVL156:
 1398              	.LVL157:
 1399              		.loc 1 1266 1 view .LVU459
 1400 0020 F8BD     		pop	{r3, r4, r5, r6, r7, pc}
 1401              	.LVL158:
 1402              	.L101:
1257:..\..\..\..\..\..\Software\uCOS-II\Source/os_task.c ****     if (prio == OS_PRIO_SELF) {                  /* See if need to get register from current task  
 1403              		.loc 1 1257 5 is_stmt 1 view .LVU460
1257:..\..\..\..\..\..\Software\uCOS-II\Source/os_task.c ****     if (prio == OS_PRIO_SELF) {                  /* See if need to get register from current task  
 1404              		.loc 1 1257 5 view .LVU461
 1405 0022 FFF7FEFF 		bl	OS_CPU_SR_Save
 1406              	.LVL159:
1258:..\..\..\..\..\..\Software\uCOS-II\Source/os_task.c ****         ptcb = OSTCBCur;
 1407              		.loc 1 1258 5 view .LVU462
1258:..\..\..\..\..\..\Software\uCOS-II\Source/os_task.c ****         ptcb = OSTCBCur;
 1408              		.loc 1 1258 8 is_stmt 0 view .LVU463
 1409 0026 FF2C     		cmp	r4, #255
 1410 0028 0BD0     		beq	.L104
1261:..\..\..\..\..\..\Software\uCOS-II\Source/os_task.c ****     }
 1411              		.loc 1 1261 9 is_stmt 1 view .LVU464
1261:..\..\..\..\..\..\Software\uCOS-II\Source/os_task.c ****     }
 1412              		.loc 1 1261 14 is_stmt 0 view .LVU465
 1413 002a A400     		lsls	r4, r4, #2
 1414 002c 064B     		ldr	r3, .L105
 1415 002e E358     		ldr	r3, [r4, r3]
 1416              	.LVL160:
 1417              	.L103:
1263:..\..\..\..\..\..\Software\uCOS-II\Source/os_task.c ****     OS_EXIT_CRITICAL();
 1418              		.loc 1 1263 5 is_stmt 1 view .LVU466
1263:..\..\..\..\..\..\Software\uCOS-II\Source/os_task.c ****     OS_EXIT_CRITICAL();
 1419              		.loc 1 1263 27 is_stmt 0 view .LVU467
 1420 0030 0A35     		adds	r5, r5, #10
 1421 0032 AD00     		lsls	r5, r5, #2
 1422 0034 5D19     		adds	r5, r3, r5
 1423 0036 6E60     		str	r6, [r5, #4]
1264:..\..\..\..\..\..\Software\uCOS-II\Source/os_task.c ****     *perr                 = OS_ERR_NONE;
 1424              		.loc 1 1264 5 is_stmt 1 view .LVU468
1264:..\..\..\..\..\..\Software\uCOS-II\Source/os_task.c ****     *perr                 = OS_ERR_NONE;
 1425              		.loc 1 1264 5 view .LVU469
 1426 0038 FFF7FEFF 		bl	OS_CPU_SR_Restore
 1427              	.LVL161:
1265:..\..\..\..\..\..\Software\uCOS-II\Source/os_task.c **** }
 1428              		.loc 1 1265 5 view .LVU470
1265:..\..\..\..\..\..\Software\uCOS-II\Source/os_task.c **** }
 1429              		.loc 1 1265 27 is_stmt 0 view .LVU471
 1430 003c 0023     		movs	r3, #0
 1431 003e 3B70     		strb	r3, [r7]
 1432 0040 EEE7     		b	.L98
 1433              	.LVL162:
 1434              	.L104:
1259:..\..\..\..\..\..\Software\uCOS-II\Source/os_task.c ****     } else {
 1435              		.loc 1 1259 9 is_stmt 1 view .LVU472
1259:..\..\..\..\..\..\Software\uCOS-II\Source/os_task.c ****     } else {
 1436              		.loc 1 1259 14 is_stmt 0 view .LVU473
ARM GAS  C:\Users\EDULU~1.DES\AppData\Local\Temp\ccgrKYGn.s 			page 51


 1437 0042 024B     		ldr	r3, .L105+4
 1438 0044 1B68     		ldr	r3, [r3]
 1439              	.LVL163:
1259:..\..\..\..\..\..\Software\uCOS-II\Source/os_task.c ****     } else {
 1440              		.loc 1 1259 14 view .LVU474
 1441 0046 F3E7     		b	.L103
 1442              	.L106:
 1443              		.align	2
 1444              	.L105:
 1445 0048 00000000 		.word	OSTCBPrioTbl
 1446 004c 00000000 		.word	OSTCBCur
 1447              		.cfi_endproc
 1448              	.LFE11:
 1449              		.size	OSTaskRegSet, .-OSTaskRegSet
 1450              		.section	.text.OS_TaskReturn,"ax",%progbits
 1451              		.align	1
 1452              		.global	OS_TaskReturn
 1453              		.syntax unified
 1454              		.code	16
 1455              		.thumb_func
 1456              		.fpu softvfp
 1457              		.type	OS_TaskReturn, %function
 1458              	OS_TaskReturn:
 1459              	.LFB12:
1267:..\..\..\..\..\..\Software\uCOS-II\Source/os_task.c **** #endif
1268:..\..\..\..\..\..\Software\uCOS-II\Source/os_task.c **** 
1269:..\..\..\..\..\..\Software\uCOS-II\Source/os_task.c **** /*$PAGE*/
1270:..\..\..\..\..\..\Software\uCOS-II\Source/os_task.c **** /*
1271:..\..\..\..\..\..\Software\uCOS-II\Source/os_task.c **** ***************************************************************************************************
1272:..\..\..\..\..\..\Software\uCOS-II\Source/os_task.c **** *                                    CATCH ACCIDENTAL TASK RETURN
1273:..\..\..\..\..\..\Software\uCOS-II\Source/os_task.c **** *
1274:..\..\..\..\..\..\Software\uCOS-II\Source/os_task.c **** * Description: This function is called if a task accidentally returns without deleting itself.  In 
1275:..\..\..\..\..\..\Software\uCOS-II\Source/os_task.c **** *              words, a task should either be an infinite loop or delete itself if it's done.
1276:..\..\..\..\..\..\Software\uCOS-II\Source/os_task.c **** *
1277:..\..\..\..\..\..\Software\uCOS-II\Source/os_task.c **** * Arguments  : none
1278:..\..\..\..\..\..\Software\uCOS-II\Source/os_task.c **** *
1279:..\..\..\..\..\..\Software\uCOS-II\Source/os_task.c **** * Returns    : none
1280:..\..\..\..\..\..\Software\uCOS-II\Source/os_task.c **** *
1281:..\..\..\..\..\..\Software\uCOS-II\Source/os_task.c **** * Note(s)    : This function is INTERNAL to uC/OS-II and your application should not call it.
1282:..\..\..\..\..\..\Software\uCOS-II\Source/os_task.c **** ***************************************************************************************************
1283:..\..\..\..\..\..\Software\uCOS-II\Source/os_task.c **** */
1284:..\..\..\..\..\..\Software\uCOS-II\Source/os_task.c **** 
1285:..\..\..\..\..\..\Software\uCOS-II\Source/os_task.c **** void  OS_TaskReturn (void)
1286:..\..\..\..\..\..\Software\uCOS-II\Source/os_task.c **** {
 1460              		.loc 1 1286 1 is_stmt 1 view -0
 1461              		.cfi_startproc
 1462              		@ Volatile: function does not return.
 1463              		@ args = 0, pretend = 0, frame = 0
 1464              		@ frame_needed = 0, uses_anonymous_args = 0
 1465 0000 10B5     		push	{r4, lr}
 1466              		.cfi_def_cfa_offset 8
 1467              		.cfi_offset 4, -8
 1468              		.cfi_offset 14, -4
1287:..\..\..\..\..\..\Software\uCOS-II\Source/os_task.c ****     OSTaskReturnHook(OSTCBCur);                   /* Call hook to let user decide on what to do    
 1469              		.loc 1 1287 5 view .LVU476
 1470 0002 044B     		ldr	r3, .L109
 1471 0004 1868     		ldr	r0, [r3]
ARM GAS  C:\Users\EDULU~1.DES\AppData\Local\Temp\ccgrKYGn.s 			page 52


 1472 0006 FFF7FEFF 		bl	OSTaskReturnHook
 1473              	.LVL164:
 1474              	.L108:
1288:..\..\..\..\..\..\Software\uCOS-II\Source/os_task.c **** 
1289:..\..\..\..\..\..\Software\uCOS-II\Source/os_task.c **** #if OS_TASK_DEL_EN > 0u
1290:..\..\..\..\..\..\Software\uCOS-II\Source/os_task.c ****     (void)OSTaskDel(OS_PRIO_SELF);                /* Delete task if it accidentally returns!       
1291:..\..\..\..\..\..\Software\uCOS-II\Source/os_task.c **** #else
1292:..\..\..\..\..\..\Software\uCOS-II\Source/os_task.c ****     for (;;) {
 1475              		.loc 1 1292 5 discriminator 1 view .LVU477
1293:..\..\..\..\..\..\Software\uCOS-II\Source/os_task.c ****         OSTimeDly(OS_TICKS_PER_SEC);
 1476              		.loc 1 1293 9 discriminator 1 view .LVU478
 1477 000a FA20     		movs	r0, #250
 1478 000c 8000     		lsls	r0, r0, #2
 1479 000e FFF7FEFF 		bl	OSTimeDly
 1480              	.LVL165:
 1481 0012 FAE7     		b	.L108
 1482              	.L110:
 1483              		.align	2
 1484              	.L109:
 1485 0014 00000000 		.word	OSTCBCur
 1486              		.cfi_endproc
 1487              	.LFE12:
 1488              		.size	OS_TaskReturn, .-OS_TaskReturn
 1489              		.section	.text.OS_TaskStkClr,"ax",%progbits
 1490              		.align	1
 1491              		.global	OS_TaskStkClr
 1492              		.syntax unified
 1493              		.code	16
 1494              		.thumb_func
 1495              		.fpu softvfp
 1496              		.type	OS_TaskStkClr, %function
 1497              	OS_TaskStkClr:
 1498              	.LVL166:
 1499              	.LFB13:
1294:..\..\..\..\..\..\Software\uCOS-II\Source/os_task.c ****     }
1295:..\..\..\..\..\..\Software\uCOS-II\Source/os_task.c **** #endif
1296:..\..\..\..\..\..\Software\uCOS-II\Source/os_task.c **** }
1297:..\..\..\..\..\..\Software\uCOS-II\Source/os_task.c **** 
1298:..\..\..\..\..\..\Software\uCOS-II\Source/os_task.c **** /*$PAGE*/
1299:..\..\..\..\..\..\Software\uCOS-II\Source/os_task.c **** /*
1300:..\..\..\..\..\..\Software\uCOS-II\Source/os_task.c **** ***************************************************************************************************
1301:..\..\..\..\..\..\Software\uCOS-II\Source/os_task.c **** *                                          CLEAR TASK STACK
1302:..\..\..\..\..\..\Software\uCOS-II\Source/os_task.c **** *
1303:..\..\..\..\..\..\Software\uCOS-II\Source/os_task.c **** * Description: This function is used to clear the stack of a task (i.e. write all zeros)
1304:..\..\..\..\..\..\Software\uCOS-II\Source/os_task.c **** *
1305:..\..\..\..\..\..\Software\uCOS-II\Source/os_task.c **** * Arguments  : pbos     is a pointer to the task's bottom of stack.  If the configuration constant
1306:..\..\..\..\..\..\Software\uCOS-II\Source/os_task.c **** *                       OS_STK_GROWTH is set to 1, the stack is assumed to grow downward (i.e. from
1307:..\..\..\..\..\..\Software\uCOS-II\Source/os_task.c **** *                       memory to low memory).  'pbos' will thus point to the lowest (valid) memory
1308:..\..\..\..\..\..\Software\uCOS-II\Source/os_task.c **** *                       location of the stack.  If OS_STK_GROWTH is set to 0, 'pbos' will point to 
1309:..\..\..\..\..\..\Software\uCOS-II\Source/os_task.c **** *                       highest memory location of the stack and the stack will grow with increasin
1310:..\..\..\..\..\..\Software\uCOS-II\Source/os_task.c **** *                       memory locations.  'pbos' MUST point to a valid 'free' data item.
1311:..\..\..\..\..\..\Software\uCOS-II\Source/os_task.c **** *
1312:..\..\..\..\..\..\Software\uCOS-II\Source/os_task.c **** *              size     is the number of 'stack elements' to clear.
1313:..\..\..\..\..\..\Software\uCOS-II\Source/os_task.c **** *
1314:..\..\..\..\..\..\Software\uCOS-II\Source/os_task.c **** *              opt      contains additional information (or options) about the behavior of the task
1315:..\..\..\..\..\..\Software\uCOS-II\Source/os_task.c **** *                       LOWER 8-bits are reserved by uC/OS-II while the upper 8 bits can be applica
1316:..\..\..\..\..\..\Software\uCOS-II\Source/os_task.c **** *                       specific.  See OS_TASK_OPT_??? in uCOS-II.H.
ARM GAS  C:\Users\EDULU~1.DES\AppData\Local\Temp\ccgrKYGn.s 			page 53


1317:..\..\..\..\..\..\Software\uCOS-II\Source/os_task.c **** *
1318:..\..\..\..\..\..\Software\uCOS-II\Source/os_task.c **** * Returns    : none
1319:..\..\..\..\..\..\Software\uCOS-II\Source/os_task.c **** ***************************************************************************************************
1320:..\..\..\..\..\..\Software\uCOS-II\Source/os_task.c **** */
1321:..\..\..\..\..\..\Software\uCOS-II\Source/os_task.c **** #if (OS_TASK_STAT_STK_CHK_EN > 0u) && (OS_TASK_CREATE_EXT_EN > 0u)
1322:..\..\..\..\..\..\Software\uCOS-II\Source/os_task.c **** void  OS_TaskStkClr (OS_STK  *pbos,
1323:..\..\..\..\..\..\Software\uCOS-II\Source/os_task.c ****                      INT32U   size,
1324:..\..\..\..\..\..\Software\uCOS-II\Source/os_task.c ****                      INT16U   opt)
1325:..\..\..\..\..\..\Software\uCOS-II\Source/os_task.c **** {
 1500              		.loc 1 1325 1 view -0
 1501              		.cfi_startproc
 1502              		@ args = 0, pretend = 0, frame = 0
 1503              		@ frame_needed = 0, uses_anonymous_args = 0
 1504              		@ link register save eliminated.
1326:..\..\..\..\..\..\Software\uCOS-II\Source/os_task.c ****     if ((opt & OS_TASK_OPT_STK_CHK) != 0x0000u) {      /* See if stack checking has been enabled   
 1505              		.loc 1 1326 5 view .LVU480
 1506              		.loc 1 1326 8 is_stmt 0 view .LVU481
 1507 0000 D307     		lsls	r3, r2, #31
 1508 0002 01D5     		bpl	.L111
1327:..\..\..\..\..\..\Software\uCOS-II\Source/os_task.c ****         if ((opt & OS_TASK_OPT_STK_CLR) != 0x0000u) {  /* See if stack needs to be cleared         
 1509              		.loc 1 1327 9 is_stmt 1 view .LVU482
 1510              		.loc 1 1327 12 is_stmt 0 view .LVU483
 1511 0004 9307     		lsls	r3, r2, #30
 1512 0006 00D4     		bmi	.L113
 1513              	.LVL167:
 1514              	.L111:
1328:..\..\..\..\..\..\Software\uCOS-II\Source/os_task.c **** #if OS_STK_GROWTH == 1u
1329:..\..\..\..\..\..\Software\uCOS-II\Source/os_task.c ****             while (size > 0u) {                        /* Stack grows from HIGH to LOW memory      
1330:..\..\..\..\..\..\Software\uCOS-II\Source/os_task.c ****                 size--;
1331:..\..\..\..\..\..\Software\uCOS-II\Source/os_task.c ****                 *pbos++ = (OS_STK)0;                   /* Clear from bottom of stack and up!       
1332:..\..\..\..\..\..\Software\uCOS-II\Source/os_task.c ****             }
1333:..\..\..\..\..\..\Software\uCOS-II\Source/os_task.c **** #else
1334:..\..\..\..\..\..\Software\uCOS-II\Source/os_task.c ****             while (size > 0u) {                        /* Stack grows from LOW to HIGH memory      
1335:..\..\..\..\..\..\Software\uCOS-II\Source/os_task.c ****                 size--;
1336:..\..\..\..\..\..\Software\uCOS-II\Source/os_task.c ****                 *pbos-- = (OS_STK)0;                   /* Clear from bottom of stack and down      
1337:..\..\..\..\..\..\Software\uCOS-II\Source/os_task.c ****             }
1338:..\..\..\..\..\..\Software\uCOS-II\Source/os_task.c **** #endif
1339:..\..\..\..\..\..\Software\uCOS-II\Source/os_task.c ****         }
1340:..\..\..\..\..\..\Software\uCOS-II\Source/os_task.c ****     }
1341:..\..\..\..\..\..\Software\uCOS-II\Source/os_task.c **** }
 1515              		.loc 1 1341 1 view .LVU484
 1516              		@ sp needed
 1517 0008 7047     		bx	lr
 1518              	.L113:
1329:..\..\..\..\..\..\Software\uCOS-II\Source/os_task.c ****                 size--;
 1519              		.loc 1 1329 19 view .LVU485
 1520 000a 0029     		cmp	r1, #0
 1521 000c FCD0     		beq	.L111
1330:..\..\..\..\..\..\Software\uCOS-II\Source/os_task.c ****                 *pbos++ = (OS_STK)0;                   /* Clear from bottom of stack and up!       
 1522              		.loc 1 1330 17 is_stmt 1 view .LVU486
1330:..\..\..\..\..\..\Software\uCOS-II\Source/os_task.c ****                 *pbos++ = (OS_STK)0;                   /* Clear from bottom of stack and up!       
 1523              		.loc 1 1330 21 is_stmt 0 view .LVU487
 1524 000e 0139     		subs	r1, r1, #1
 1525              	.LVL168:
1331:..\..\..\..\..\..\Software\uCOS-II\Source/os_task.c ****             }
 1526              		.loc 1 1331 17 is_stmt 1 view .LVU488
1331:..\..\..\..\..\..\Software\uCOS-II\Source/os_task.c ****             }
ARM GAS  C:\Users\EDULU~1.DES\AppData\Local\Temp\ccgrKYGn.s 			page 54


 1527              		.loc 1 1331 25 is_stmt 0 view .LVU489
 1528 0010 0023     		movs	r3, #0
 1529 0012 08C0     		stmia	r0!, {r3}
 1530              	.LVL169:
1331:..\..\..\..\..\..\Software\uCOS-II\Source/os_task.c ****             }
 1531              		.loc 1 1331 25 view .LVU490
 1532 0014 F9E7     		b	.L113
 1533              		.cfi_endproc
 1534              	.LFE13:
 1535              		.size	OS_TaskStkClr, .-OS_TaskStkClr
 1536              		.section	.text.OSTaskCreateExt,"ax",%progbits
 1537              		.align	1
 1538              		.global	OSTaskCreateExt
 1539              		.syntax unified
 1540              		.code	16
 1541              		.thumb_func
 1542              		.fpu softvfp
 1543              		.type	OSTaskCreateExt, %function
 1544              	OSTaskCreateExt:
 1545              	.LVL170:
 1546              	.LFB5:
 345:..\..\..\..\..\..\Software\uCOS-II\Source/os_task.c ****     OS_STK     *psp;
 1547              		.loc 1 345 1 is_stmt 1 view -0
 1548              		.cfi_startproc
 1549              		@ args = 20, pretend = 0, frame = 8
 1550              		@ frame_needed = 0, uses_anonymous_args = 0
 345:..\..\..\..\..\..\Software\uCOS-II\Source/os_task.c ****     OS_STK     *psp;
 1551              		.loc 1 345 1 is_stmt 0 view .LVU492
 1552 0000 F0B5     		push	{r4, r5, r6, r7, lr}
 1553              		.cfi_def_cfa_offset 20
 1554              		.cfi_offset 4, -20
 1555              		.cfi_offset 5, -16
 1556              		.cfi_offset 6, -12
 1557              		.cfi_offset 7, -8
 1558              		.cfi_offset 14, -4
 1559 0002 87B0     		sub	sp, sp, #28
 1560              		.cfi_def_cfa_offset 48
 1561 0004 0490     		str	r0, [sp, #16]
 1562 0006 0591     		str	r1, [sp, #20]
 1563 0008 1700     		movs	r7, r2
 1564 000a 1C00     		movs	r4, r3
 1565 000c 0CAB     		add	r3, sp, #48
 1566              	.LVL171:
 345:..\..\..\..\..\..\Software\uCOS-II\Source/os_task.c ****     OS_STK     *psp;
 1567              		.loc 1 345 1 view .LVU493
 1568 000e 1D88     		ldrh	r5, [r3]
 1569 0010 10AB     		add	r3, sp, #64
 1570              	.LVL172:
 345:..\..\..\..\..\..\Software\uCOS-II\Source/os_task.c ****     OS_STK     *psp;
 1571              		.loc 1 345 1 view .LVU494
 1572 0012 1E88     		ldrh	r6, [r3]
 346:..\..\..\..\..\..\Software\uCOS-II\Source/os_task.c ****     INT8U       err;
 1573              		.loc 1 346 5 is_stmt 1 view .LVU495
 347:..\..\..\..\..\..\Software\uCOS-II\Source/os_task.c **** #if OS_CRITICAL_METHOD == 3u                 /* Allocate storage for CPU status register           
 1574              		.loc 1 347 5 view .LVU496
 349:..\..\..\..\..\..\Software\uCOS-II\Source/os_task.c **** #endif
 1575              		.loc 1 349 5 view .LVU497
ARM GAS  C:\Users\EDULU~1.DES\AppData\Local\Temp\ccgrKYGn.s 			page 55


 1576              	.LVL173:
 362:..\..\..\..\..\..\Software\uCOS-II\Source/os_task.c ****         return (OS_ERR_PRIO_INVALID);
 1577              		.loc 1 362 5 view .LVU498
 362:..\..\..\..\..\..\Software\uCOS-II\Source/os_task.c ****         return (OS_ERR_PRIO_INVALID);
 1578              		.loc 1 362 8 is_stmt 0 view .LVU499
 1579 0014 1F2C     		cmp	r4, #31
 1580 0016 41D8     		bhi	.L121
 366:..\..\..\..\..\..\Software\uCOS-II\Source/os_task.c ****     if (OSIntNesting > 0u) {                 /* Make sure we don't create the task from within an I
 1581              		.loc 1 366 5 is_stmt 1 view .LVU500
 366:..\..\..\..\..\..\Software\uCOS-II\Source/os_task.c ****     if (OSIntNesting > 0u) {                 /* Make sure we don't create the task from within an I
 1582              		.loc 1 366 5 view .LVU501
 1583 0018 FFF7FEFF 		bl	OS_CPU_SR_Save
 1584              	.LVL174:
 367:..\..\..\..\..\..\Software\uCOS-II\Source/os_task.c ****         OS_EXIT_CRITICAL();
 1585              		.loc 1 367 5 view .LVU502
 367:..\..\..\..\..\..\Software\uCOS-II\Source/os_task.c ****         OS_EXIT_CRITICAL();
 1586              		.loc 1 367 22 is_stmt 0 view .LVU503
 1587 001c 204B     		ldr	r3, .L124
 1588 001e 1B78     		ldrb	r3, [r3]
 367:..\..\..\..\..\..\Software\uCOS-II\Source/os_task.c ****         OS_EXIT_CRITICAL();
 1589              		.loc 1 367 8 view .LVU504
 1590 0020 002B     		cmp	r3, #0
 1591 0022 0AD1     		bne	.L122
 371:..\..\..\..\..\..\Software\uCOS-II\Source/os_task.c ****         OSTCBPrioTbl[prio] = OS_TCB_RESERVED;/* Reserve the priority to prevent others from doing .
 1592              		.loc 1 371 5 is_stmt 1 view .LVU505
 371:..\..\..\..\..\..\Software\uCOS-II\Source/os_task.c ****         OSTCBPrioTbl[prio] = OS_TCB_RESERVED;/* Reserve the priority to prevent others from doing .
 1593              		.loc 1 371 21 is_stmt 0 view .LVU506
 1594 0024 A300     		lsls	r3, r4, #2
 1595 0026 1F4A     		ldr	r2, .L124+4
 1596 0028 9B58     		ldr	r3, [r3, r2]
 371:..\..\..\..\..\..\Software\uCOS-II\Source/os_task.c ****         OSTCBPrioTbl[prio] = OS_TCB_RESERVED;/* Reserve the priority to prevent others from doing .
 1597              		.loc 1 371 8 view .LVU507
 1598 002a 002B     		cmp	r3, #0
 1599 002c 09D0     		beq	.L123
 393:..\..\..\..\..\..\Software\uCOS-II\Source/os_task.c ****     return (OS_ERR_PRIO_EXIST);
 1600              		.loc 1 393 5 is_stmt 1 view .LVU508
 393:..\..\..\..\..\..\Software\uCOS-II\Source/os_task.c ****     return (OS_ERR_PRIO_EXIST);
 1601              		.loc 1 393 5 view .LVU509
 1602 002e FFF7FEFF 		bl	OS_CPU_SR_Restore
 1603              	.LVL175:
 394:..\..\..\..\..\..\Software\uCOS-II\Source/os_task.c **** }
 1604              		.loc 1 394 5 view .LVU510
 394:..\..\..\..\..\..\Software\uCOS-II\Source/os_task.c **** }
 1605              		.loc 1 394 12 is_stmt 0 view .LVU511
 1606 0032 2825     		movs	r5, #40
 1607              	.L116:
 395:..\..\..\..\..\..\Software\uCOS-II\Source/os_task.c **** #endif
 1608              		.loc 1 395 1 view .LVU512
 1609 0034 2800     		movs	r0, r5
 1610 0036 07B0     		add	sp, sp, #28
 1611              		@ sp needed
 1612              	.LVL176:
 395:..\..\..\..\..\..\Software\uCOS-II\Source/os_task.c **** #endif
 1613              		.loc 1 395 1 view .LVU513
 1614 0038 F0BD     		pop	{r4, r5, r6, r7, pc}
 1615              	.LVL177:
 1616              	.L122:
ARM GAS  C:\Users\EDULU~1.DES\AppData\Local\Temp\ccgrKYGn.s 			page 56


 368:..\..\..\..\..\..\Software\uCOS-II\Source/os_task.c ****         return (OS_ERR_TASK_CREATE_ISR);
 1617              		.loc 1 368 9 is_stmt 1 view .LVU514
 368:..\..\..\..\..\..\Software\uCOS-II\Source/os_task.c ****         return (OS_ERR_TASK_CREATE_ISR);
 1618              		.loc 1 368 9 view .LVU515
 1619 003a FFF7FEFF 		bl	OS_CPU_SR_Restore
 1620              	.LVL178:
 369:..\..\..\..\..\..\Software\uCOS-II\Source/os_task.c ****     }
 1621              		.loc 1 369 9 view .LVU516
 369:..\..\..\..\..\..\Software\uCOS-II\Source/os_task.c ****     }
 1622              		.loc 1 369 16 is_stmt 0 view .LVU517
 1623 003e 3C25     		movs	r5, #60
 1624 0040 F8E7     		b	.L116
 1625              	.LVL179:
 1626              	.L123:
 372:..\..\..\..\..\..\Software\uCOS-II\Source/os_task.c ****                                              /* ... the same thing until task is created.          
 1627              		.loc 1 372 9 is_stmt 1 view .LVU518
 372:..\..\..\..\..\..\Software\uCOS-II\Source/os_task.c ****                                              /* ... the same thing until task is created.          
 1628              		.loc 1 372 28 is_stmt 0 view .LVU519
 1629 0042 A300     		lsls	r3, r4, #2
 1630 0044 0121     		movs	r1, #1
 1631 0046 9950     		str	r1, [r3, r2]
 374:..\..\..\..\..\..\Software\uCOS-II\Source/os_task.c **** 
 1632              		.loc 1 374 9 is_stmt 1 view .LVU520
 374:..\..\..\..\..\..\Software\uCOS-II\Source/os_task.c **** 
 1633              		.loc 1 374 9 view .LVU521
 1634 0048 FFF7FEFF 		bl	OS_CPU_SR_Restore
 1635              	.LVL180:
 377:..\..\..\..\..\..\Software\uCOS-II\Source/os_task.c **** #endif
 1636              		.loc 1 377 9 view .LVU522
 1637 004c 3200     		movs	r2, r6
 1638 004e 0E99     		ldr	r1, [sp, #56]
 1639 0050 0D98     		ldr	r0, [sp, #52]
 1640 0052 FFF7FEFF 		bl	OS_TaskStkClr
 1641              	.LVL181:
 380:..\..\..\..\..\..\Software\uCOS-II\Source/os_task.c ****         err = OS_TCBInit(prio, psp, pbos, id, stk_size, pext, opt);
 1642              		.loc 1 380 9 view .LVU523
 380:..\..\..\..\..\..\Software\uCOS-II\Source/os_task.c ****         err = OS_TCBInit(prio, psp, pbos, id, stk_size, pext, opt);
 1643              		.loc 1 380 15 is_stmt 0 view .LVU524
 1644 0056 3300     		movs	r3, r6
 1645 0058 3A00     		movs	r2, r7
 1646 005a 0599     		ldr	r1, [sp, #20]
 1647 005c 0498     		ldr	r0, [sp, #16]
 1648 005e FFF7FEFF 		bl	OSTaskStkInit
 1649              	.LVL182:
 1650 0062 0100     		movs	r1, r0
 1651              	.LVL183:
 381:..\..\..\..\..\..\Software\uCOS-II\Source/os_task.c ****         if (err == OS_ERR_NONE) {
 1652              		.loc 1 381 9 is_stmt 1 view .LVU525
 381:..\..\..\..\..\..\Software\uCOS-II\Source/os_task.c ****         if (err == OS_ERR_NONE) {
 1653              		.loc 1 381 15 is_stmt 0 view .LVU526
 1654 0064 0296     		str	r6, [sp, #8]
 1655 0066 0F9B     		ldr	r3, [sp, #60]
 1656 0068 0193     		str	r3, [sp, #4]
 1657 006a 0E9B     		ldr	r3, [sp, #56]
 1658 006c 0093     		str	r3, [sp]
 1659 006e 2B00     		movs	r3, r5
 1660 0070 0D9A     		ldr	r2, [sp, #52]
ARM GAS  C:\Users\EDULU~1.DES\AppData\Local\Temp\ccgrKYGn.s 			page 57


 1661 0072 2000     		movs	r0, r4
 1662              	.LVL184:
 381:..\..\..\..\..\..\Software\uCOS-II\Source/os_task.c ****         if (err == OS_ERR_NONE) {
 1663              		.loc 1 381 15 view .LVU527
 1664 0074 FFF7FEFF 		bl	OS_TCBInit
 1665              	.LVL185:
 381:..\..\..\..\..\..\Software\uCOS-II\Source/os_task.c ****         if (err == OS_ERR_NONE) {
 1666              		.loc 1 381 15 view .LVU528
 1667 0078 051E     		subs	r5, r0, #0
 1668              	.LVL186:
 382:..\..\..\..\..\..\Software\uCOS-II\Source/os_task.c ****             if (OSRunning == OS_TRUE) {                        /* Find HPT if multitasking has star
 1669              		.loc 1 382 9 is_stmt 1 view .LVU529
 382:..\..\..\..\..\..\Software\uCOS-II\Source/os_task.c ****             if (OSRunning == OS_TRUE) {                        /* Find HPT if multitasking has star
 1670              		.loc 1 382 12 is_stmt 0 view .LVU530
 1671 007a 06D1     		bne	.L119
 383:..\..\..\..\..\..\Software\uCOS-II\Source/os_task.c ****                 OS_Sched();
 1672              		.loc 1 383 13 is_stmt 1 view .LVU531
 383:..\..\..\..\..\..\Software\uCOS-II\Source/os_task.c ****                 OS_Sched();
 1673              		.loc 1 383 27 is_stmt 0 view .LVU532
 1674 007c 0A4B     		ldr	r3, .L124+8
 1675 007e 1B78     		ldrb	r3, [r3]
 383:..\..\..\..\..\..\Software\uCOS-II\Source/os_task.c ****                 OS_Sched();
 1676              		.loc 1 383 16 view .LVU533
 1677 0080 012B     		cmp	r3, #1
 1678 0082 D7D1     		bne	.L116
 384:..\..\..\..\..\..\Software\uCOS-II\Source/os_task.c ****             }
 1679              		.loc 1 384 17 is_stmt 1 view .LVU534
 1680 0084 FFF7FEFF 		bl	OS_Sched
 1681              	.LVL187:
 384:..\..\..\..\..\..\Software\uCOS-II\Source/os_task.c ****             }
 1682              		.loc 1 384 17 is_stmt 0 view .LVU535
 1683 0088 D4E7     		b	.L116
 1684              	.LVL188:
 1685              	.L119:
 387:..\..\..\..\..\..\Software\uCOS-II\Source/os_task.c ****             OSTCBPrioTbl[prio] = (OS_TCB *)0;                  /* Make this priority avail. to othe
 1686              		.loc 1 387 13 is_stmt 1 view .LVU536
 387:..\..\..\..\..\..\Software\uCOS-II\Source/os_task.c ****             OSTCBPrioTbl[prio] = (OS_TCB *)0;                  /* Make this priority avail. to othe
 1687              		.loc 1 387 13 view .LVU537
 1688 008a FFF7FEFF 		bl	OS_CPU_SR_Save
 1689              	.LVL189:
 388:..\..\..\..\..\..\Software\uCOS-II\Source/os_task.c ****             OS_EXIT_CRITICAL();
 1690              		.loc 1 388 13 view .LVU538
 388:..\..\..\..\..\..\Software\uCOS-II\Source/os_task.c ****             OS_EXIT_CRITICAL();
 1691              		.loc 1 388 32 is_stmt 0 view .LVU539
 1692 008e A400     		lsls	r4, r4, #2
 1693 0090 044B     		ldr	r3, .L124+4
 1694 0092 0022     		movs	r2, #0
 1695 0094 E250     		str	r2, [r4, r3]
 389:..\..\..\..\..\..\Software\uCOS-II\Source/os_task.c ****         }
 1696              		.loc 1 389 13 is_stmt 1 view .LVU540
 389:..\..\..\..\..\..\Software\uCOS-II\Source/os_task.c ****         }
 1697              		.loc 1 389 13 view .LVU541
 1698 0096 FFF7FEFF 		bl	OS_CPU_SR_Restore
 1699              	.LVL190:
 391:..\..\..\..\..\..\Software\uCOS-II\Source/os_task.c ****     }
 1700              		.loc 1 391 9 view .LVU542
 391:..\..\..\..\..\..\Software\uCOS-II\Source/os_task.c ****     }
ARM GAS  C:\Users\EDULU~1.DES\AppData\Local\Temp\ccgrKYGn.s 			page 58


 1701              		.loc 1 391 16 is_stmt 0 view .LVU543
 1702 009a CBE7     		b	.L116
 1703              	.LVL191:
 1704              	.L121:
 363:..\..\..\..\..\..\Software\uCOS-II\Source/os_task.c ****     }
 1705              		.loc 1 363 16 view .LVU544
 1706 009c 2A25     		movs	r5, #42
 1707 009e C9E7     		b	.L116
 1708              	.L125:
 1709              		.align	2
 1710              	.L124:
 1711 00a0 00000000 		.word	OSIntNesting
 1712 00a4 00000000 		.word	OSTCBPrioTbl
 1713 00a8 00000000 		.word	OSRunning
 1714              		.cfi_endproc
 1715              	.LFE5:
 1716              		.size	OSTaskCreateExt, .-OSTaskCreateExt
 1717              		.text
 1718              	.Letext0:
 1719              		.file 2 "c:\\program files (x86)\\gnu tools arm embedded\\8 2018-q4-major\\arm-none-eabi\\include\
 1720              		.file 3 "c:\\program files (x86)\\gnu tools arm embedded\\8 2018-q4-major\\arm-none-eabi\\include\
 1721              		.file 4 "c:\\program files (x86)\\gnu tools arm embedded\\8 2018-q4-major\\lib\\gcc\\arm-none-eabi
 1722              		.file 5 "c:\\program files (x86)\\gnu tools arm embedded\\8 2018-q4-major\\arm-none-eabi\\include\
 1723              		.file 6 "..\\..\\..\\..\\..\\..\\Software\\uCOS-II\\Ports\\ARM-Cortex-M0\\Generic\\GNU/os_cpu.h"
 1724              		.file 7 "..\\..\\..\\..\\..\\..\\Software\\uCOS-II\\Source/ucos_ii.h"
 1725              		.section	.debug_info,"",%progbits
 1726              	.Ldebug_info0:
 1727 0000 64180000 		.4byte	0x1864
 1728 0004 0400     		.2byte	0x4
 1729 0006 00000000 		.4byte	.Ldebug_abbrev0
 1730 000a 04       		.byte	0x4
 1731 000b 01       		.uleb128 0x1
 1732 000c 7F010000 		.4byte	.LASF261
 1733 0010 0C       		.byte	0xc
 1734 0011 7B0A0000 		.4byte	.LASF262
 1735 0015 80080000 		.4byte	.LASF263
 1736 0019 00000000 		.4byte	.Ldebug_ranges0+0
 1737 001d 00000000 		.4byte	0
 1738 0021 00000000 		.4byte	.Ldebug_line0
 1739 0025 02       		.uleb128 0x2
 1740 0026 01       		.byte	0x1
 1741 0027 06       		.byte	0x6
 1742 0028 1C0A0000 		.4byte	.LASF0
 1743 002c 02       		.uleb128 0x2
 1744 002d 01       		.byte	0x1
 1745 002e 08       		.byte	0x8
 1746 002f 0B090000 		.4byte	.LASF1
 1747 0033 02       		.uleb128 0x2
 1748 0034 02       		.byte	0x2
 1749 0035 05       		.byte	0x5
 1750 0036 F0060000 		.4byte	.LASF2
 1751 003a 02       		.uleb128 0x2
 1752 003b 02       		.byte	0x2
 1753 003c 07       		.byte	0x7
 1754 003d 3D0A0000 		.4byte	.LASF3
 1755 0041 02       		.uleb128 0x2
 1756 0042 04       		.byte	0x4
ARM GAS  C:\Users\EDULU~1.DES\AppData\Local\Temp\ccgrKYGn.s 			page 59


 1757 0043 05       		.byte	0x5
 1758 0044 14070000 		.4byte	.LASF4
 1759 0048 02       		.uleb128 0x2
 1760 0049 04       		.byte	0x4
 1761 004a 07       		.byte	0x7
 1762 004b 4A080000 		.4byte	.LASF5
 1763 004f 02       		.uleb128 0x2
 1764 0050 08       		.byte	0x8
 1765 0051 05       		.byte	0x5
 1766 0052 96050000 		.4byte	.LASF6
 1767 0056 02       		.uleb128 0x2
 1768 0057 08       		.byte	0x8
 1769 0058 07       		.byte	0x7
 1770 0059 21030000 		.4byte	.LASF7
 1771 005d 03       		.uleb128 0x3
 1772 005e 04       		.byte	0x4
 1773 005f 05       		.byte	0x5
 1774 0060 696E7400 		.ascii	"int\000"
 1775 0064 02       		.uleb128 0x2
 1776 0065 04       		.byte	0x4
 1777 0066 07       		.byte	0x7
 1778 0067 9B000000 		.4byte	.LASF8
 1779 006b 02       		.uleb128 0x2
 1780 006c 08       		.byte	0x8
 1781 006d 04       		.byte	0x4
 1782 006e 76060000 		.4byte	.LASF9
 1783 0072 04       		.uleb128 0x4
 1784 0073 04       		.byte	0x4
 1785 0074 05       		.uleb128 0x5
 1786 0075 92060000 		.4byte	.LASF10
 1787 0079 02       		.byte	0x2
 1788 007a 22       		.byte	0x22
 1789 007b 19       		.byte	0x19
 1790 007c 80000000 		.4byte	0x80
 1791 0080 06       		.uleb128 0x6
 1792 0081 04       		.byte	0x4
 1793 0082 86000000 		.4byte	0x86
 1794 0086 07       		.uleb128 0x7
 1795 0087 EE080000 		.4byte	.LASF117
 1796 008b 05       		.uleb128 0x5
 1797 008c BD0A0000 		.4byte	.LASF11
 1798 0090 03       		.byte	0x3
 1799 0091 2C       		.byte	0x2c
 1800 0092 0E       		.byte	0xe
 1801 0093 41000000 		.4byte	0x41
 1802 0097 05       		.uleb128 0x5
 1803 0098 77010000 		.4byte	.LASF12
 1804 009c 03       		.byte	0x3
 1805 009d 72       		.byte	0x72
 1806 009e 0E       		.byte	0xe
 1807 009f 41000000 		.4byte	0x41
 1808 00a3 08       		.uleb128 0x8
 1809 00a4 6D080000 		.4byte	.LASF13
 1810 00a8 04       		.byte	0x4
 1811 00a9 6501     		.2byte	0x165
 1812 00ab 17       		.byte	0x17
 1813 00ac 64000000 		.4byte	0x64
ARM GAS  C:\Users\EDULU~1.DES\AppData\Local\Temp\ccgrKYGn.s 			page 60


 1814 00b0 09       		.uleb128 0x9
 1815 00b1 04       		.byte	0x4
 1816 00b2 03       		.byte	0x3
 1817 00b3 A6       		.byte	0xa6
 1818 00b4 03       		.byte	0x3
 1819 00b5 D2000000 		.4byte	0xd2
 1820 00b9 0A       		.uleb128 0xa
 1821 00ba 36050000 		.4byte	.LASF14
 1822 00be 03       		.byte	0x3
 1823 00bf A8       		.byte	0xa8
 1824 00c0 0C       		.byte	0xc
 1825 00c1 A3000000 		.4byte	0xa3
 1826 00c5 0A       		.uleb128 0xa
 1827 00c6 89070000 		.4byte	.LASF15
 1828 00ca 03       		.byte	0x3
 1829 00cb A9       		.byte	0xa9
 1830 00cc 13       		.byte	0x13
 1831 00cd D2000000 		.4byte	0xd2
 1832 00d1 00       		.byte	0
 1833 00d2 0B       		.uleb128 0xb
 1834 00d3 2C000000 		.4byte	0x2c
 1835 00d7 E2000000 		.4byte	0xe2
 1836 00db 0C       		.uleb128 0xc
 1837 00dc 64000000 		.4byte	0x64
 1838 00e0 03       		.byte	0x3
 1839 00e1 00       		.byte	0
 1840 00e2 0D       		.uleb128 0xd
 1841 00e3 08       		.byte	0x8
 1842 00e4 03       		.byte	0x3
 1843 00e5 A3       		.byte	0xa3
 1844 00e6 09       		.byte	0x9
 1845 00e7 06010000 		.4byte	0x106
 1846 00eb 0E       		.uleb128 0xe
 1847 00ec A1020000 		.4byte	.LASF16
 1848 00f0 03       		.byte	0x3
 1849 00f1 A5       		.byte	0xa5
 1850 00f2 07       		.byte	0x7
 1851 00f3 5D000000 		.4byte	0x5d
 1852 00f7 00       		.byte	0
 1853 00f8 0E       		.uleb128 0xe
 1854 00f9 8E040000 		.4byte	.LASF17
 1855 00fd 03       		.byte	0x3
 1856 00fe AA       		.byte	0xaa
 1857 00ff 05       		.byte	0x5
 1858 0100 B0000000 		.4byte	0xb0
 1859 0104 04       		.byte	0x4
 1860 0105 00       		.byte	0
 1861 0106 05       		.uleb128 0x5
 1862 0107 03060000 		.4byte	.LASF18
 1863 010b 03       		.byte	0x3
 1864 010c AB       		.byte	0xab
 1865 010d 03       		.byte	0x3
 1866 010e E2000000 		.4byte	0xe2
 1867 0112 05       		.uleb128 0x5
 1868 0113 28050000 		.4byte	.LASF19
 1869 0117 03       		.byte	0x3
 1870 0118 AF       		.byte	0xaf
ARM GAS  C:\Users\EDULU~1.DES\AppData\Local\Temp\ccgrKYGn.s 			page 61


 1871 0119 1B       		.byte	0x1b
 1872 011a 74000000 		.4byte	0x74
 1873 011e 05       		.uleb128 0x5
 1874 011f BA050000 		.4byte	.LASF20
 1875 0123 05       		.byte	0x5
 1876 0124 16       		.byte	0x16
 1877 0125 19       		.byte	0x19
 1878 0126 48000000 		.4byte	0x48
 1879 012a 0F       		.uleb128 0xf
 1880 012b 40020000 		.4byte	.LASF25
 1881 012f 18       		.byte	0x18
 1882 0130 05       		.byte	0x5
 1883 0131 2F       		.byte	0x2f
 1884 0132 08       		.byte	0x8
 1885 0133 84010000 		.4byte	0x184
 1886 0137 0E       		.uleb128 0xe
 1887 0138 31040000 		.4byte	.LASF21
 1888 013c 05       		.byte	0x5
 1889 013d 31       		.byte	0x31
 1890 013e 13       		.byte	0x13
 1891 013f 84010000 		.4byte	0x184
 1892 0143 00       		.byte	0
 1893 0144 10       		.uleb128 0x10
 1894 0145 5F6B00   		.ascii	"_k\000"
 1895 0148 05       		.byte	0x5
 1896 0149 32       		.byte	0x32
 1897 014a 07       		.byte	0x7
 1898 014b 5D000000 		.4byte	0x5d
 1899 014f 04       		.byte	0x4
 1900 0150 0E       		.uleb128 0xe
 1901 0151 09080000 		.4byte	.LASF22
 1902 0155 05       		.byte	0x5
 1903 0156 32       		.byte	0x32
 1904 0157 0B       		.byte	0xb
 1905 0158 5D000000 		.4byte	0x5d
 1906 015c 08       		.byte	0x8
 1907 015d 0E       		.uleb128 0xe
 1908 015e 5E070000 		.4byte	.LASF23
 1909 0162 05       		.byte	0x5
 1910 0163 32       		.byte	0x32
 1911 0164 14       		.byte	0x14
 1912 0165 5D000000 		.4byte	0x5d
 1913 0169 0C       		.byte	0xc
 1914 016a 0E       		.uleb128 0xe
 1915 016b 4D030000 		.4byte	.LASF24
 1916 016f 05       		.byte	0x5
 1917 0170 32       		.byte	0x32
 1918 0171 1B       		.byte	0x1b
 1919 0172 5D000000 		.4byte	0x5d
 1920 0176 10       		.byte	0x10
 1921 0177 10       		.uleb128 0x10
 1922 0178 5F7800   		.ascii	"_x\000"
 1923 017b 05       		.byte	0x5
 1924 017c 33       		.byte	0x33
 1925 017d 0B       		.byte	0xb
 1926 017e 8A010000 		.4byte	0x18a
 1927 0182 14       		.byte	0x14
ARM GAS  C:\Users\EDULU~1.DES\AppData\Local\Temp\ccgrKYGn.s 			page 62


 1928 0183 00       		.byte	0
 1929 0184 06       		.uleb128 0x6
 1930 0185 04       		.byte	0x4
 1931 0186 2A010000 		.4byte	0x12a
 1932 018a 0B       		.uleb128 0xb
 1933 018b 1E010000 		.4byte	0x11e
 1934 018f 9A010000 		.4byte	0x19a
 1935 0193 0C       		.uleb128 0xc
 1936 0194 64000000 		.4byte	0x64
 1937 0198 00       		.byte	0
 1938 0199 00       		.byte	0
 1939 019a 0F       		.uleb128 0xf
 1940 019b 2D080000 		.4byte	.LASF26
 1941 019f 24       		.byte	0x24
 1942 01a0 05       		.byte	0x5
 1943 01a1 37       		.byte	0x37
 1944 01a2 08       		.byte	0x8
 1945 01a3 1D020000 		.4byte	0x21d
 1946 01a7 0E       		.uleb128 0xe
 1947 01a8 14040000 		.4byte	.LASF27
 1948 01ac 05       		.byte	0x5
 1949 01ad 39       		.byte	0x39
 1950 01ae 09       		.byte	0x9
 1951 01af 5D000000 		.4byte	0x5d
 1952 01b3 00       		.byte	0
 1953 01b4 0E       		.uleb128 0xe
 1954 01b5 C4020000 		.4byte	.LASF28
 1955 01b9 05       		.byte	0x5
 1956 01ba 3A       		.byte	0x3a
 1957 01bb 09       		.byte	0x9
 1958 01bc 5D000000 		.4byte	0x5d
 1959 01c0 04       		.byte	0x4
 1960 01c1 0E       		.uleb128 0xe
 1961 01c2 7C020000 		.4byte	.LASF29
 1962 01c6 05       		.byte	0x5
 1963 01c7 3B       		.byte	0x3b
 1964 01c8 09       		.byte	0x9
 1965 01c9 5D000000 		.4byte	0x5d
 1966 01cd 08       		.byte	0x8
 1967 01ce 0E       		.uleb128 0xe
 1968 01cf D1040000 		.4byte	.LASF30
 1969 01d3 05       		.byte	0x5
 1970 01d4 3C       		.byte	0x3c
 1971 01d5 09       		.byte	0x9
 1972 01d6 5D000000 		.4byte	0x5d
 1973 01da 0C       		.byte	0xc
 1974 01db 0E       		.uleb128 0xe
 1975 01dc 6D060000 		.4byte	.LASF31
 1976 01e0 05       		.byte	0x5
 1977 01e1 3D       		.byte	0x3d
 1978 01e2 09       		.byte	0x9
 1979 01e3 5D000000 		.4byte	0x5d
 1980 01e7 10       		.byte	0x10
 1981 01e8 0E       		.uleb128 0xe
 1982 01e9 A8070000 		.4byte	.LASF32
 1983 01ed 05       		.byte	0x5
 1984 01ee 3E       		.byte	0x3e
ARM GAS  C:\Users\EDULU~1.DES\AppData\Local\Temp\ccgrKYGn.s 			page 63


 1985 01ef 09       		.byte	0x9
 1986 01f0 5D000000 		.4byte	0x5d
 1987 01f4 14       		.byte	0x14
 1988 01f5 0E       		.uleb128 0xe
 1989 01f6 48020000 		.4byte	.LASF33
 1990 01fa 05       		.byte	0x5
 1991 01fb 3F       		.byte	0x3f
 1992 01fc 09       		.byte	0x9
 1993 01fd 5D000000 		.4byte	0x5d
 1994 0201 18       		.byte	0x18
 1995 0202 0E       		.uleb128 0xe
 1996 0203 1D040000 		.4byte	.LASF34
 1997 0207 05       		.byte	0x5
 1998 0208 40       		.byte	0x40
 1999 0209 09       		.byte	0x9
 2000 020a 5D000000 		.4byte	0x5d
 2001 020e 1C       		.byte	0x1c
 2002 020f 0E       		.uleb128 0xe
 2003 0210 29060000 		.4byte	.LASF35
 2004 0214 05       		.byte	0x5
 2005 0215 41       		.byte	0x41
 2006 0216 09       		.byte	0x9
 2007 0217 5D000000 		.4byte	0x5d
 2008 021b 20       		.byte	0x20
 2009 021c 00       		.byte	0
 2010 021d 11       		.uleb128 0x11
 2011 021e 3F000000 		.4byte	.LASF36
 2012 0222 0801     		.2byte	0x108
 2013 0224 05       		.byte	0x5
 2014 0225 4A       		.byte	0x4a
 2015 0226 08       		.byte	0x8
 2016 0227 62020000 		.4byte	0x262
 2017 022b 0E       		.uleb128 0xe
 2018 022c 140A0000 		.4byte	.LASF37
 2019 0230 05       		.byte	0x5
 2020 0231 4B       		.byte	0x4b
 2021 0232 0A       		.byte	0xa
 2022 0233 62020000 		.4byte	0x262
 2023 0237 00       		.byte	0
 2024 0238 0E       		.uleb128 0xe
 2025 0239 74080000 		.4byte	.LASF38
 2026 023d 05       		.byte	0x5
 2027 023e 4C       		.byte	0x4c
 2028 023f 09       		.byte	0x9
 2029 0240 62020000 		.4byte	0x262
 2030 0244 80       		.byte	0x80
 2031 0245 12       		.uleb128 0x12
 2032 0246 650A0000 		.4byte	.LASF39
 2033 024a 05       		.byte	0x5
 2034 024b 4E       		.byte	0x4e
 2035 024c 0A       		.byte	0xa
 2036 024d 1E010000 		.4byte	0x11e
 2037 0251 0001     		.2byte	0x100
 2038 0253 12       		.uleb128 0x12
 2039 0254 0A0B0000 		.4byte	.LASF40
 2040 0258 05       		.byte	0x5
 2041 0259 51       		.byte	0x51
ARM GAS  C:\Users\EDULU~1.DES\AppData\Local\Temp\ccgrKYGn.s 			page 64


 2042 025a 0A       		.byte	0xa
 2043 025b 1E010000 		.4byte	0x11e
 2044 025f 0401     		.2byte	0x104
 2045 0261 00       		.byte	0
 2046 0262 0B       		.uleb128 0xb
 2047 0263 72000000 		.4byte	0x72
 2048 0267 72020000 		.4byte	0x272
 2049 026b 0C       		.uleb128 0xc
 2050 026c 64000000 		.4byte	0x64
 2051 0270 1F       		.byte	0x1f
 2052 0271 00       		.byte	0
 2053 0272 11       		.uleb128 0x11
 2054 0273 B1060000 		.4byte	.LASF41
 2055 0277 9001     		.2byte	0x190
 2056 0279 05       		.byte	0x5
 2057 027a 5D       		.byte	0x5d
 2058 027b 08       		.byte	0x8
 2059 027c B5020000 		.4byte	0x2b5
 2060 0280 0E       		.uleb128 0xe
 2061 0281 31040000 		.4byte	.LASF21
 2062 0285 05       		.byte	0x5
 2063 0286 5E       		.byte	0x5e
 2064 0287 12       		.byte	0x12
 2065 0288 B5020000 		.4byte	0x2b5
 2066 028c 00       		.byte	0
 2067 028d 0E       		.uleb128 0xe
 2068 028e 2C040000 		.4byte	.LASF42
 2069 0292 05       		.byte	0x5
 2070 0293 5F       		.byte	0x5f
 2071 0294 06       		.byte	0x6
 2072 0295 5D000000 		.4byte	0x5d
 2073 0299 04       		.byte	0x4
 2074 029a 0E       		.uleb128 0xe
 2075 029b 25020000 		.4byte	.LASF43
 2076 029f 05       		.byte	0x5
 2077 02a0 61       		.byte	0x61
 2078 02a1 09       		.byte	0x9
 2079 02a2 BB020000 		.4byte	0x2bb
 2080 02a6 08       		.byte	0x8
 2081 02a7 0E       		.uleb128 0xe
 2082 02a8 3F000000 		.4byte	.LASF36
 2083 02ac 05       		.byte	0x5
 2084 02ad 62       		.byte	0x62
 2085 02ae 1E       		.byte	0x1e
 2086 02af 1D020000 		.4byte	0x21d
 2087 02b3 88       		.byte	0x88
 2088 02b4 00       		.byte	0
 2089 02b5 06       		.uleb128 0x6
 2090 02b6 04       		.byte	0x4
 2091 02b7 72020000 		.4byte	0x272
 2092 02bb 0B       		.uleb128 0xb
 2093 02bc CB020000 		.4byte	0x2cb
 2094 02c0 CB020000 		.4byte	0x2cb
 2095 02c4 0C       		.uleb128 0xc
 2096 02c5 64000000 		.4byte	0x64
 2097 02c9 1F       		.byte	0x1f
 2098 02ca 00       		.byte	0
ARM GAS  C:\Users\EDULU~1.DES\AppData\Local\Temp\ccgrKYGn.s 			page 65


 2099 02cb 06       		.uleb128 0x6
 2100 02cc 04       		.byte	0x4
 2101 02cd D1020000 		.4byte	0x2d1
 2102 02d1 13       		.uleb128 0x13
 2103 02d2 0F       		.uleb128 0xf
 2104 02d3 B4090000 		.4byte	.LASF44
 2105 02d7 08       		.byte	0x8
 2106 02d8 05       		.byte	0x5
 2107 02d9 75       		.byte	0x75
 2108 02da 08       		.byte	0x8
 2109 02db FA020000 		.4byte	0x2fa
 2110 02df 0E       		.uleb128 0xe
 2111 02e0 A4050000 		.4byte	.LASF45
 2112 02e4 05       		.byte	0x5
 2113 02e5 76       		.byte	0x76
 2114 02e6 11       		.byte	0x11
 2115 02e7 FA020000 		.4byte	0x2fa
 2116 02eb 00       		.byte	0
 2117 02ec 0E       		.uleb128 0xe
 2118 02ed 6E0A0000 		.4byte	.LASF46
 2119 02f1 05       		.byte	0x5
 2120 02f2 77       		.byte	0x77
 2121 02f3 06       		.byte	0x6
 2122 02f4 5D000000 		.4byte	0x5d
 2123 02f8 04       		.byte	0x4
 2124 02f9 00       		.byte	0
 2125 02fa 06       		.uleb128 0x6
 2126 02fb 04       		.byte	0x4
 2127 02fc 2C000000 		.4byte	0x2c
 2128 0300 0F       		.uleb128 0xf
 2129 0301 45030000 		.4byte	.LASF47
 2130 0305 68       		.byte	0x68
 2131 0306 05       		.byte	0x5
 2132 0307 B5       		.byte	0xb5
 2133 0308 08       		.byte	0x8
 2134 0309 43040000 		.4byte	0x443
 2135 030d 10       		.uleb128 0x10
 2136 030e 5F7000   		.ascii	"_p\000"
 2137 0311 05       		.byte	0x5
 2138 0312 B6       		.byte	0xb6
 2139 0313 12       		.byte	0x12
 2140 0314 FA020000 		.4byte	0x2fa
 2141 0318 00       		.byte	0
 2142 0319 10       		.uleb128 0x10
 2143 031a 5F7200   		.ascii	"_r\000"
 2144 031d 05       		.byte	0x5
 2145 031e B7       		.byte	0xb7
 2146 031f 07       		.byte	0x7
 2147 0320 5D000000 		.4byte	0x5d
 2148 0324 04       		.byte	0x4
 2149 0325 10       		.uleb128 0x10
 2150 0326 5F7700   		.ascii	"_w\000"
 2151 0329 05       		.byte	0x5
 2152 032a B8       		.byte	0xb8
 2153 032b 07       		.byte	0x7
 2154 032c 5D000000 		.4byte	0x5d
 2155 0330 08       		.byte	0x8
ARM GAS  C:\Users\EDULU~1.DES\AppData\Local\Temp\ccgrKYGn.s 			page 66


 2156 0331 0E       		.uleb128 0xe
 2157 0332 D6000000 		.4byte	.LASF48
 2158 0336 05       		.byte	0x5
 2159 0337 B9       		.byte	0xb9
 2160 0338 09       		.byte	0x9
 2161 0339 33000000 		.4byte	0x33
 2162 033d 0C       		.byte	0xc
 2163 033e 0E       		.uleb128 0xe
 2164 033f E6050000 		.4byte	.LASF49
 2165 0343 05       		.byte	0x5
 2166 0344 BA       		.byte	0xba
 2167 0345 09       		.byte	0x9
 2168 0346 33000000 		.4byte	0x33
 2169 034a 0E       		.byte	0xe
 2170 034b 10       		.uleb128 0x10
 2171 034c 5F626600 		.ascii	"_bf\000"
 2172 0350 05       		.byte	0x5
 2173 0351 BB       		.byte	0xbb
 2174 0352 11       		.byte	0x11
 2175 0353 D2020000 		.4byte	0x2d2
 2176 0357 10       		.byte	0x10
 2177 0358 0E       		.uleb128 0xe
 2178 0359 CD000000 		.4byte	.LASF50
 2179 035d 05       		.byte	0x5
 2180 035e BC       		.byte	0xbc
 2181 035f 07       		.byte	0x7
 2182 0360 5D000000 		.4byte	0x5d
 2183 0364 18       		.byte	0x18
 2184 0365 0E       		.uleb128 0xe
 2185 0366 2A020000 		.4byte	.LASF51
 2186 036a 05       		.byte	0x5
 2187 036b C3       		.byte	0xc3
 2188 036c 0A       		.byte	0xa
 2189 036d 72000000 		.4byte	0x72
 2190 0371 1C       		.byte	0x1c
 2191 0372 0E       		.uleb128 0xe
 2192 0373 41010000 		.4byte	.LASF52
 2193 0377 05       		.byte	0x5
 2194 0378 C5       		.byte	0xc5
 2195 0379 1D       		.byte	0x1d
 2196 037a C7050000 		.4byte	0x5c7
 2197 037e 20       		.byte	0x20
 2198 037f 0E       		.uleb128 0xe
 2199 0380 AA060000 		.4byte	.LASF53
 2200 0384 05       		.byte	0x5
 2201 0385 C7       		.byte	0xc7
 2202 0386 1D       		.byte	0x1d
 2203 0387 F1050000 		.4byte	0x5f1
 2204 038b 24       		.byte	0x24
 2205 038c 0E       		.uleb128 0xe
 2206 038d 440B0000 		.4byte	.LASF54
 2207 0391 05       		.byte	0x5
 2208 0392 CA       		.byte	0xca
 2209 0393 0D       		.byte	0xd
 2210 0394 15060000 		.4byte	0x615
 2211 0398 28       		.byte	0x28
 2212 0399 0E       		.uleb128 0xe
ARM GAS  C:\Users\EDULU~1.DES\AppData\Local\Temp\ccgrKYGn.s 			page 67


 2213 039a 58050000 		.4byte	.LASF55
 2214 039e 05       		.byte	0x5
 2215 039f CB       		.byte	0xcb
 2216 03a0 09       		.byte	0x9
 2217 03a1 2F060000 		.4byte	0x62f
 2218 03a5 2C       		.byte	0x2c
 2219 03a6 10       		.uleb128 0x10
 2220 03a7 5F756200 		.ascii	"_ub\000"
 2221 03ab 05       		.byte	0x5
 2222 03ac CE       		.byte	0xce
 2223 03ad 11       		.byte	0x11
 2224 03ae D2020000 		.4byte	0x2d2
 2225 03b2 30       		.byte	0x30
 2226 03b3 10       		.uleb128 0x10
 2227 03b4 5F757000 		.ascii	"_up\000"
 2228 03b8 05       		.byte	0x5
 2229 03b9 CF       		.byte	0xcf
 2230 03ba 12       		.byte	0x12
 2231 03bb FA020000 		.4byte	0x2fa
 2232 03bf 38       		.byte	0x38
 2233 03c0 10       		.uleb128 0x10
 2234 03c1 5F757200 		.ascii	"_ur\000"
 2235 03c5 05       		.byte	0x5
 2236 03c6 D0       		.byte	0xd0
 2237 03c7 07       		.byte	0x7
 2238 03c8 5D000000 		.4byte	0x5d
 2239 03cc 3C       		.byte	0x3c
 2240 03cd 0E       		.uleb128 0xe
 2241 03ce 680B0000 		.4byte	.LASF56
 2242 03d2 05       		.byte	0x5
 2243 03d3 D3       		.byte	0xd3
 2244 03d4 11       		.byte	0x11
 2245 03d5 35060000 		.4byte	0x635
 2246 03d9 40       		.byte	0x40
 2247 03da 0E       		.uleb128 0xe
 2248 03db C40A0000 		.4byte	.LASF57
 2249 03df 05       		.byte	0x5
 2250 03e0 D4       		.byte	0xd4
 2251 03e1 11       		.byte	0x11
 2252 03e2 45060000 		.4byte	0x645
 2253 03e6 43       		.byte	0x43
 2254 03e7 10       		.uleb128 0x10
 2255 03e8 5F6C6200 		.ascii	"_lb\000"
 2256 03ec 05       		.byte	0x5
 2257 03ed D7       		.byte	0xd7
 2258 03ee 11       		.byte	0x11
 2259 03ef D2020000 		.4byte	0x2d2
 2260 03f3 44       		.byte	0x44
 2261 03f4 0E       		.uleb128 0xe
 2262 03f5 24080000 		.4byte	.LASF58
 2263 03f9 05       		.byte	0x5
 2264 03fa DA       		.byte	0xda
 2265 03fb 07       		.byte	0x7
 2266 03fc 5D000000 		.4byte	0x5d
 2267 0400 4C       		.byte	0x4c
 2268 0401 0E       		.uleb128 0xe
 2269 0402 99030000 		.4byte	.LASF59
ARM GAS  C:\Users\EDULU~1.DES\AppData\Local\Temp\ccgrKYGn.s 			page 68


 2270 0406 05       		.byte	0x5
 2271 0407 DB       		.byte	0xdb
 2272 0408 0A       		.byte	0xa
 2273 0409 8B000000 		.4byte	0x8b
 2274 040d 50       		.byte	0x50
 2275 040e 0E       		.uleb128 0xe
 2276 040f 75070000 		.4byte	.LASF60
 2277 0413 05       		.byte	0x5
 2278 0414 DE       		.byte	0xde
 2279 0415 12       		.byte	0x12
 2280 0416 61040000 		.4byte	0x461
 2281 041a 54       		.byte	0x54
 2282 041b 0E       		.uleb128 0xe
 2283 041c 3F080000 		.4byte	.LASF61
 2284 0420 05       		.byte	0x5
 2285 0421 E2       		.byte	0xe2
 2286 0422 0C       		.byte	0xc
 2287 0423 12010000 		.4byte	0x112
 2288 0427 58       		.byte	0x58
 2289 0428 0E       		.uleb128 0xe
 2290 0429 2D010000 		.4byte	.LASF62
 2291 042d 05       		.byte	0x5
 2292 042e E4       		.byte	0xe4
 2293 042f 0E       		.byte	0xe
 2294 0430 06010000 		.4byte	0x106
 2295 0434 5C       		.byte	0x5c
 2296 0435 0E       		.uleb128 0xe
 2297 0436 020B0000 		.4byte	.LASF63
 2298 043a 05       		.byte	0x5
 2299 043b E5       		.byte	0xe5
 2300 043c 09       		.byte	0x9
 2301 043d 5D000000 		.4byte	0x5d
 2302 0441 64       		.byte	0x64
 2303 0442 00       		.byte	0
 2304 0443 14       		.uleb128 0x14
 2305 0444 5D000000 		.4byte	0x5d
 2306 0448 61040000 		.4byte	0x461
 2307 044c 15       		.uleb128 0x15
 2308 044d 61040000 		.4byte	0x461
 2309 0451 15       		.uleb128 0x15
 2310 0452 72000000 		.4byte	0x72
 2311 0456 15       		.uleb128 0x15
 2312 0457 B5050000 		.4byte	0x5b5
 2313 045b 15       		.uleb128 0x15
 2314 045c 5D000000 		.4byte	0x5d
 2315 0460 00       		.byte	0
 2316 0461 06       		.uleb128 0x6
 2317 0462 04       		.byte	0x4
 2318 0463 6C040000 		.4byte	0x46c
 2319 0467 16       		.uleb128 0x16
 2320 0468 61040000 		.4byte	0x461
 2321 046c 17       		.uleb128 0x17
 2322 046d 360A0000 		.4byte	.LASF64
 2323 0471 2804     		.2byte	0x428
 2324 0473 05       		.byte	0x5
 2325 0474 6002     		.2byte	0x260
 2326 0476 08       		.byte	0x8
ARM GAS  C:\Users\EDULU~1.DES\AppData\Local\Temp\ccgrKYGn.s 			page 69


 2327 0477 B5050000 		.4byte	0x5b5
 2328 047b 18       		.uleb128 0x18
 2329 047c E8000000 		.4byte	.LASF65
 2330 0480 05       		.byte	0x5
 2331 0481 6202     		.2byte	0x262
 2332 0483 07       		.byte	0x7
 2333 0484 5D000000 		.4byte	0x5d
 2334 0488 00       		.byte	0
 2335 0489 18       		.uleb128 0x18
 2336 048a 80050000 		.4byte	.LASF66
 2337 048e 05       		.byte	0x5
 2338 048f 6702     		.2byte	0x267
 2339 0491 0B       		.byte	0xb
 2340 0492 A1060000 		.4byte	0x6a1
 2341 0496 04       		.byte	0x4
 2342 0497 18       		.uleb128 0x18
 2343 0498 6F010000 		.4byte	.LASF67
 2344 049c 05       		.byte	0x5
 2345 049d 6702     		.2byte	0x267
 2346 049f 14       		.byte	0x14
 2347 04a0 A1060000 		.4byte	0x6a1
 2348 04a4 08       		.byte	0x8
 2349 04a5 18       		.uleb128 0x18
 2350 04a6 570B0000 		.4byte	.LASF68
 2351 04aa 05       		.byte	0x5
 2352 04ab 6702     		.2byte	0x267
 2353 04ad 1E       		.byte	0x1e
 2354 04ae A1060000 		.4byte	0x6a1
 2355 04b2 0C       		.byte	0xc
 2356 04b3 18       		.uleb128 0x18
 2357 04b4 27040000 		.4byte	.LASF69
 2358 04b8 05       		.byte	0x5
 2359 04b9 6902     		.2byte	0x269
 2360 04bb 08       		.byte	0x8
 2361 04bc 5D000000 		.4byte	0x5d
 2362 04c0 10       		.byte	0x10
 2363 04c1 18       		.uleb128 0x18
 2364 04c2 DD030000 		.4byte	.LASF70
 2365 04c6 05       		.byte	0x5
 2366 04c7 6A02     		.2byte	0x26a
 2367 04c9 08       		.byte	0x8
 2368 04ca A1080000 		.4byte	0x8a1
 2369 04ce 14       		.byte	0x14
 2370 04cf 18       		.uleb128 0x18
 2371 04d0 DE0A0000 		.4byte	.LASF71
 2372 04d4 05       		.byte	0x5
 2373 04d5 6D02     		.2byte	0x26d
 2374 04d7 07       		.byte	0x7
 2375 04d8 5D000000 		.4byte	0x5d
 2376 04dc 30       		.byte	0x30
 2377 04dd 18       		.uleb128 0x18
 2378 04de 0C0A0000 		.4byte	.LASF72
 2379 04e2 05       		.byte	0x5
 2380 04e3 6E02     		.2byte	0x26e
 2381 04e5 16       		.byte	0x16
 2382 04e6 B6080000 		.4byte	0x8b6
 2383 04ea 34       		.byte	0x34
ARM GAS  C:\Users\EDULU~1.DES\AppData\Local\Temp\ccgrKYGn.s 			page 70


 2384 04eb 18       		.uleb128 0x18
 2385 04ec 6B050000 		.4byte	.LASF73
 2386 04f0 05       		.byte	0x5
 2387 04f1 7002     		.2byte	0x270
 2388 04f3 07       		.byte	0x7
 2389 04f4 5D000000 		.4byte	0x5d
 2390 04f8 38       		.byte	0x38
 2391 04f9 18       		.uleb128 0x18
 2392 04fa F9050000 		.4byte	.LASF74
 2393 04fe 05       		.byte	0x5
 2394 04ff 7202     		.2byte	0x272
 2395 0501 0A       		.byte	0xa
 2396 0502 C7080000 		.4byte	0x8c7
 2397 0506 3C       		.byte	0x3c
 2398 0507 18       		.uleb128 0x18
 2399 0508 6B020000 		.4byte	.LASF75
 2400 050c 05       		.byte	0x5
 2401 050d 7502     		.2byte	0x275
 2402 050f 13       		.byte	0x13
 2403 0510 84010000 		.4byte	0x184
 2404 0514 40       		.byte	0x40
 2405 0515 18       		.uleb128 0x18
 2406 0516 17030000 		.4byte	.LASF76
 2407 051a 05       		.byte	0x5
 2408 051b 7602     		.2byte	0x276
 2409 051d 07       		.byte	0x7
 2410 051e 5D000000 		.4byte	0x5d
 2411 0522 44       		.byte	0x44
 2412 0523 18       		.uleb128 0x18
 2413 0524 96040000 		.4byte	.LASF77
 2414 0528 05       		.byte	0x5
 2415 0529 7702     		.2byte	0x277
 2416 052b 13       		.byte	0x13
 2417 052c 84010000 		.4byte	0x184
 2418 0530 48       		.byte	0x48
 2419 0531 18       		.uleb128 0x18
 2420 0532 AA050000 		.4byte	.LASF78
 2421 0536 05       		.byte	0x5
 2422 0537 7802     		.2byte	0x278
 2423 0539 14       		.byte	0x14
 2424 053a CD080000 		.4byte	0x8cd
 2425 053e 4C       		.byte	0x4c
 2426 053f 18       		.uleb128 0x18
 2427 0540 01080000 		.4byte	.LASF79
 2428 0544 05       		.byte	0x5
 2429 0545 7B02     		.2byte	0x27b
 2430 0547 07       		.byte	0x7
 2431 0548 5D000000 		.4byte	0x5d
 2432 054c 50       		.byte	0x50
 2433 054d 18       		.uleb128 0x18
 2434 054e 03090000 		.4byte	.LASF80
 2435 0552 05       		.byte	0x5
 2436 0553 7C02     		.2byte	0x27c
 2437 0555 09       		.byte	0x9
 2438 0556 B5050000 		.4byte	0x5b5
 2439 055a 54       		.byte	0x54
 2440 055b 18       		.uleb128 0x18
ARM GAS  C:\Users\EDULU~1.DES\AppData\Local\Temp\ccgrKYGn.s 			page 71


 2441 055c F5070000 		.4byte	.LASF81
 2442 0560 05       		.byte	0x5
 2443 0561 9F02     		.2byte	0x29f
 2444 0563 07       		.byte	0x7
 2445 0564 7C080000 		.4byte	0x87c
 2446 0568 58       		.byte	0x58
 2447 0569 19       		.uleb128 0x19
 2448 056a B1060000 		.4byte	.LASF41
 2449 056e 05       		.byte	0x5
 2450 056f A302     		.2byte	0x2a3
 2451 0571 13       		.byte	0x13
 2452 0572 B5020000 		.4byte	0x2b5
 2453 0576 4801     		.2byte	0x148
 2454 0578 19       		.uleb128 0x19
 2455 0579 F4040000 		.4byte	.LASF82
 2456 057d 05       		.byte	0x5
 2457 057e A402     		.2byte	0x2a4
 2458 0580 12       		.byte	0x12
 2459 0581 72020000 		.4byte	0x272
 2460 0585 4C01     		.2byte	0x14c
 2461 0587 19       		.uleb128 0x19
 2462 0588 DB040000 		.4byte	.LASF83
 2463 058c 05       		.byte	0x5
 2464 058d A802     		.2byte	0x2a8
 2465 058f 0C       		.byte	0xc
 2466 0590 DE080000 		.4byte	0x8de
 2467 0594 DC02     		.2byte	0x2dc
 2468 0596 19       		.uleb128 0x19
 2469 0597 E9090000 		.4byte	.LASF84
 2470 059b 05       		.byte	0x5
 2471 059c AD02     		.2byte	0x2ad
 2472 059e 10       		.byte	0x10
 2473 059f 62060000 		.4byte	0x662
 2474 05a3 E002     		.2byte	0x2e0
 2475 05a5 19       		.uleb128 0x19
 2476 05a6 59070000 		.4byte	.LASF85
 2477 05aa 05       		.byte	0x5
 2478 05ab AF02     		.2byte	0x2af
 2479 05ad 0A       		.byte	0xa
 2480 05ae EA080000 		.4byte	0x8ea
 2481 05b2 EC02     		.2byte	0x2ec
 2482 05b4 00       		.byte	0
 2483 05b5 06       		.uleb128 0x6
 2484 05b6 04       		.byte	0x4
 2485 05b7 BB050000 		.4byte	0x5bb
 2486 05bb 02       		.uleb128 0x2
 2487 05bc 01       		.byte	0x1
 2488 05bd 08       		.byte	0x8
 2489 05be CC040000 		.4byte	.LASF86
 2490 05c2 16       		.uleb128 0x16
 2491 05c3 BB050000 		.4byte	0x5bb
 2492 05c7 06       		.uleb128 0x6
 2493 05c8 04       		.byte	0x4
 2494 05c9 43040000 		.4byte	0x443
 2495 05cd 14       		.uleb128 0x14
 2496 05ce 5D000000 		.4byte	0x5d
 2497 05d2 EB050000 		.4byte	0x5eb
ARM GAS  C:\Users\EDULU~1.DES\AppData\Local\Temp\ccgrKYGn.s 			page 72


 2498 05d6 15       		.uleb128 0x15
 2499 05d7 61040000 		.4byte	0x461
 2500 05db 15       		.uleb128 0x15
 2501 05dc 72000000 		.4byte	0x72
 2502 05e0 15       		.uleb128 0x15
 2503 05e1 EB050000 		.4byte	0x5eb
 2504 05e5 15       		.uleb128 0x15
 2505 05e6 5D000000 		.4byte	0x5d
 2506 05ea 00       		.byte	0
 2507 05eb 06       		.uleb128 0x6
 2508 05ec 04       		.byte	0x4
 2509 05ed C2050000 		.4byte	0x5c2
 2510 05f1 06       		.uleb128 0x6
 2511 05f2 04       		.byte	0x4
 2512 05f3 CD050000 		.4byte	0x5cd
 2513 05f7 14       		.uleb128 0x14
 2514 05f8 97000000 		.4byte	0x97
 2515 05fc 15060000 		.4byte	0x615
 2516 0600 15       		.uleb128 0x15
 2517 0601 61040000 		.4byte	0x461
 2518 0605 15       		.uleb128 0x15
 2519 0606 72000000 		.4byte	0x72
 2520 060a 15       		.uleb128 0x15
 2521 060b 97000000 		.4byte	0x97
 2522 060f 15       		.uleb128 0x15
 2523 0610 5D000000 		.4byte	0x5d
 2524 0614 00       		.byte	0
 2525 0615 06       		.uleb128 0x6
 2526 0616 04       		.byte	0x4
 2527 0617 F7050000 		.4byte	0x5f7
 2528 061b 14       		.uleb128 0x14
 2529 061c 5D000000 		.4byte	0x5d
 2530 0620 2F060000 		.4byte	0x62f
 2531 0624 15       		.uleb128 0x15
 2532 0625 61040000 		.4byte	0x461
 2533 0629 15       		.uleb128 0x15
 2534 062a 72000000 		.4byte	0x72
 2535 062e 00       		.byte	0
 2536 062f 06       		.uleb128 0x6
 2537 0630 04       		.byte	0x4
 2538 0631 1B060000 		.4byte	0x61b
 2539 0635 0B       		.uleb128 0xb
 2540 0636 2C000000 		.4byte	0x2c
 2541 063a 45060000 		.4byte	0x645
 2542 063e 0C       		.uleb128 0xc
 2543 063f 64000000 		.4byte	0x64
 2544 0643 02       		.byte	0x2
 2545 0644 00       		.byte	0
 2546 0645 0B       		.uleb128 0xb
 2547 0646 2C000000 		.4byte	0x2c
 2548 064a 55060000 		.4byte	0x655
 2549 064e 0C       		.uleb128 0xc
 2550 064f 64000000 		.4byte	0x64
 2551 0653 00       		.byte	0
 2552 0654 00       		.byte	0
 2553 0655 08       		.uleb128 0x8
 2554 0656 92030000 		.4byte	.LASF87
ARM GAS  C:\Users\EDULU~1.DES\AppData\Local\Temp\ccgrKYGn.s 			page 73


 2555 065a 05       		.byte	0x5
 2556 065b 1F01     		.2byte	0x11f
 2557 065d 1A       		.byte	0x1a
 2558 065e 00030000 		.4byte	0x300
 2559 0662 1A       		.uleb128 0x1a
 2560 0663 D2090000 		.4byte	.LASF88
 2561 0667 0C       		.byte	0xc
 2562 0668 05       		.byte	0x5
 2563 0669 2301     		.2byte	0x123
 2564 066b 08       		.byte	0x8
 2565 066c 9B060000 		.4byte	0x69b
 2566 0670 18       		.uleb128 0x18
 2567 0671 31040000 		.4byte	.LASF21
 2568 0675 05       		.byte	0x5
 2569 0676 2501     		.2byte	0x125
 2570 0678 11       		.byte	0x11
 2571 0679 9B060000 		.4byte	0x69b
 2572 067d 00       		.byte	0
 2573 067e 18       		.uleb128 0x18
 2574 067f 66080000 		.4byte	.LASF89
 2575 0683 05       		.byte	0x5
 2576 0684 2601     		.2byte	0x126
 2577 0686 07       		.byte	0x7
 2578 0687 5D000000 		.4byte	0x5d
 2579 068b 04       		.byte	0x4
 2580 068c 18       		.uleb128 0x18
 2581 068d 3C050000 		.4byte	.LASF90
 2582 0691 05       		.byte	0x5
 2583 0692 2701     		.2byte	0x127
 2584 0694 0B       		.byte	0xb
 2585 0695 A1060000 		.4byte	0x6a1
 2586 0699 08       		.byte	0x8
 2587 069a 00       		.byte	0
 2588 069b 06       		.uleb128 0x6
 2589 069c 04       		.byte	0x4
 2590 069d 62060000 		.4byte	0x662
 2591 06a1 06       		.uleb128 0x6
 2592 06a2 04       		.byte	0x4
 2593 06a3 55060000 		.4byte	0x655
 2594 06a7 1A       		.uleb128 0x1a
 2595 06a8 ED020000 		.4byte	.LASF91
 2596 06ac 0E       		.byte	0xe
 2597 06ad 05       		.byte	0x5
 2598 06ae 3F01     		.2byte	0x13f
 2599 06b0 08       		.byte	0x8
 2600 06b1 E0060000 		.4byte	0x6e0
 2601 06b5 18       		.uleb128 0x18
 2602 06b6 280B0000 		.4byte	.LASF92
 2603 06ba 05       		.byte	0x5
 2604 06bb 4001     		.2byte	0x140
 2605 06bd 12       		.byte	0x12
 2606 06be E0060000 		.4byte	0x6e0
 2607 06c2 00       		.byte	0
 2608 06c3 18       		.uleb128 0x18
 2609 06c4 B4050000 		.4byte	.LASF93
 2610 06c8 05       		.byte	0x5
 2611 06c9 4101     		.2byte	0x141
ARM GAS  C:\Users\EDULU~1.DES\AppData\Local\Temp\ccgrKYGn.s 			page 74


 2612 06cb 12       		.byte	0x12
 2613 06cc E0060000 		.4byte	0x6e0
 2614 06d0 06       		.byte	0x6
 2615 06d1 18       		.uleb128 0x18
 2616 06d2 77090000 		.4byte	.LASF94
 2617 06d6 05       		.byte	0x5
 2618 06d7 4201     		.2byte	0x142
 2619 06d9 12       		.byte	0x12
 2620 06da 3A000000 		.4byte	0x3a
 2621 06de 0C       		.byte	0xc
 2622 06df 00       		.byte	0
 2623 06e0 0B       		.uleb128 0xb
 2624 06e1 3A000000 		.4byte	0x3a
 2625 06e5 F0060000 		.4byte	0x6f0
 2626 06e9 0C       		.uleb128 0xc
 2627 06ea 64000000 		.4byte	0x64
 2628 06ee 02       		.byte	0x2
 2629 06ef 00       		.byte	0
 2630 06f0 1B       		.uleb128 0x1b
 2631 06f1 D0       		.byte	0xd0
 2632 06f2 05       		.byte	0x5
 2633 06f3 8002     		.2byte	0x280
 2634 06f5 07       		.byte	0x7
 2635 06f6 05080000 		.4byte	0x805
 2636 06fa 18       		.uleb128 0x18
 2637 06fb CA0A0000 		.4byte	.LASF95
 2638 06ff 05       		.byte	0x5
 2639 0700 8202     		.2byte	0x282
 2640 0702 18       		.byte	0x18
 2641 0703 64000000 		.4byte	0x64
 2642 0707 00       		.byte	0
 2643 0708 18       		.uleb128 0x18
 2644 0709 F1090000 		.4byte	.LASF96
 2645 070d 05       		.byte	0x5
 2646 070e 8302     		.2byte	0x283
 2647 0710 12       		.byte	0x12
 2648 0711 B5050000 		.4byte	0x5b5
 2649 0715 04       		.byte	0x4
 2650 0716 18       		.uleb128 0x18
 2651 0717 38030000 		.4byte	.LASF97
 2652 071b 05       		.byte	0x5
 2653 071c 8402     		.2byte	0x284
 2654 071e 10       		.byte	0x10
 2655 071f 05080000 		.4byte	0x805
 2656 0723 08       		.byte	0x8
 2657 0724 18       		.uleb128 0x18
 2658 0725 CA070000 		.4byte	.LASF98
 2659 0729 05       		.byte	0x5
 2660 072a 8502     		.2byte	0x285
 2661 072c 17       		.byte	0x17
 2662 072d 9A010000 		.4byte	0x19a
 2663 0731 24       		.byte	0x24
 2664 0732 18       		.uleb128 0x18
 2665 0733 87050000 		.4byte	.LASF99
 2666 0737 05       		.byte	0x5
 2667 0738 8602     		.2byte	0x286
 2668 073a 0F       		.byte	0xf
ARM GAS  C:\Users\EDULU~1.DES\AppData\Local\Temp\ccgrKYGn.s 			page 75


 2669 073b 5D000000 		.4byte	0x5d
 2670 073f 48       		.byte	0x48
 2671 0740 18       		.uleb128 0x18
 2672 0741 2E0B0000 		.4byte	.LASF100
 2673 0745 05       		.byte	0x5
 2674 0746 8702     		.2byte	0x287
 2675 0748 2C       		.byte	0x2c
 2676 0749 56000000 		.4byte	0x56
 2677 074d 50       		.byte	0x50
 2678 074e 18       		.uleb128 0x18
 2679 074f 7B000000 		.4byte	.LASF101
 2680 0753 05       		.byte	0x5
 2681 0754 8802     		.2byte	0x288
 2682 0756 1A       		.byte	0x1a
 2683 0757 A7060000 		.4byte	0x6a7
 2684 075b 58       		.byte	0x58
 2685 075c 18       		.uleb128 0x18
 2686 075d BF040000 		.4byte	.LASF102
 2687 0761 05       		.byte	0x5
 2688 0762 8902     		.2byte	0x289
 2689 0764 16       		.byte	0x16
 2690 0765 06010000 		.4byte	0x106
 2691 0769 68       		.byte	0x68
 2692 076a 18       		.uleb128 0x18
 2693 076b FE090000 		.4byte	.LASF103
 2694 076f 05       		.byte	0x5
 2695 0770 8A02     		.2byte	0x28a
 2696 0772 16       		.byte	0x16
 2697 0773 06010000 		.4byte	0x106
 2698 0777 70       		.byte	0x70
 2699 0778 18       		.uleb128 0x18
 2700 0779 5E000000 		.4byte	.LASF104
 2701 077d 05       		.byte	0x5
 2702 077e 8B02     		.2byte	0x28b
 2703 0780 16       		.byte	0x16
 2704 0781 06010000 		.4byte	0x106
 2705 0785 78       		.byte	0x78
 2706 0786 18       		.uleb128 0x18
 2707 0787 11080000 		.4byte	.LASF105
 2708 078b 05       		.byte	0x5
 2709 078c 8C02     		.2byte	0x28c
 2710 078e 10       		.byte	0x10
 2711 078f 15080000 		.4byte	0x815
 2712 0793 80       		.byte	0x80
 2713 0794 18       		.uleb128 0x18
 2714 0795 8F000000 		.4byte	.LASF106
 2715 0799 05       		.byte	0x5
 2716 079a 8D02     		.2byte	0x28d
 2717 079c 10       		.byte	0x10
 2718 079d 25080000 		.4byte	0x825
 2719 07a1 88       		.byte	0x88
 2720 07a2 18       		.uleb128 0x18
 2721 07a3 49090000 		.4byte	.LASF107
 2722 07a7 05       		.byte	0x5
 2723 07a8 8E02     		.2byte	0x28e
 2724 07aa 0F       		.byte	0xf
 2725 07ab 5D000000 		.4byte	0x5d
ARM GAS  C:\Users\EDULU~1.DES\AppData\Local\Temp\ccgrKYGn.s 			page 76


 2726 07af A0       		.byte	0xa0
 2727 07b0 18       		.uleb128 0x18
 2728 07b1 54010000 		.4byte	.LASF108
 2729 07b5 05       		.byte	0x5
 2730 07b6 8F02     		.2byte	0x28f
 2731 07b8 16       		.byte	0x16
 2732 07b9 06010000 		.4byte	0x106
 2733 07bd A4       		.byte	0xa4
 2734 07be 18       		.uleb128 0x18
 2735 07bf E5040000 		.4byte	.LASF109
 2736 07c3 05       		.byte	0x5
 2737 07c4 9002     		.2byte	0x290
 2738 07c6 16       		.byte	0x16
 2739 07c7 06010000 		.4byte	0x106
 2740 07cb AC       		.byte	0xac
 2741 07cc 18       		.uleb128 0x18
 2742 07cd 56040000 		.4byte	.LASF110
 2743 07d1 05       		.byte	0x5
 2744 07d2 9102     		.2byte	0x291
 2745 07d4 16       		.byte	0x16
 2746 07d5 06010000 		.4byte	0x106
 2747 07d9 B4       		.byte	0xb4
 2748 07da 18       		.uleb128 0x18
 2749 07db CD050000 		.4byte	.LASF111
 2750 07df 05       		.byte	0x5
 2751 07e0 9202     		.2byte	0x292
 2752 07e2 16       		.byte	0x16
 2753 07e3 06010000 		.4byte	0x106
 2754 07e7 BC       		.byte	0xbc
 2755 07e8 18       		.uleb128 0x18
 2756 07e9 AE040000 		.4byte	.LASF112
 2757 07ed 05       		.byte	0x5
 2758 07ee 9302     		.2byte	0x293
 2759 07f0 16       		.byte	0x16
 2760 07f1 06010000 		.4byte	0x106
 2761 07f5 C4       		.byte	0xc4
 2762 07f6 18       		.uleb128 0x18
 2763 07f7 3B060000 		.4byte	.LASF113
 2764 07fb 05       		.byte	0x5
 2765 07fc 9402     		.2byte	0x294
 2766 07fe 08       		.byte	0x8
 2767 07ff 5D000000 		.4byte	0x5d
 2768 0803 CC       		.byte	0xcc
 2769 0804 00       		.byte	0
 2770 0805 0B       		.uleb128 0xb
 2771 0806 BB050000 		.4byte	0x5bb
 2772 080a 15080000 		.4byte	0x815
 2773 080e 0C       		.uleb128 0xc
 2774 080f 64000000 		.4byte	0x64
 2775 0813 19       		.byte	0x19
 2776 0814 00       		.byte	0
 2777 0815 0B       		.uleb128 0xb
 2778 0816 BB050000 		.4byte	0x5bb
 2779 081a 25080000 		.4byte	0x825
 2780 081e 0C       		.uleb128 0xc
 2781 081f 64000000 		.4byte	0x64
 2782 0823 07       		.byte	0x7
ARM GAS  C:\Users\EDULU~1.DES\AppData\Local\Temp\ccgrKYGn.s 			page 77


 2783 0824 00       		.byte	0
 2784 0825 0B       		.uleb128 0xb
 2785 0826 BB050000 		.4byte	0x5bb
 2786 082a 35080000 		.4byte	0x835
 2787 082e 0C       		.uleb128 0xc
 2788 082f 64000000 		.4byte	0x64
 2789 0833 17       		.byte	0x17
 2790 0834 00       		.byte	0
 2791 0835 1B       		.uleb128 0x1b
 2792 0836 F0       		.byte	0xf0
 2793 0837 05       		.byte	0x5
 2794 0838 9902     		.2byte	0x299
 2795 083a 07       		.byte	0x7
 2796 083b 5C080000 		.4byte	0x85c
 2797 083f 18       		.uleb128 0x18
 2798 0840 E1020000 		.4byte	.LASF114
 2799 0844 05       		.byte	0x5
 2800 0845 9C02     		.2byte	0x29c
 2801 0847 1B       		.byte	0x1b
 2802 0848 5C080000 		.4byte	0x85c
 2803 084c 00       		.byte	0
 2804 084d 18       		.uleb128 0x18
 2805 084e 5F0B0000 		.4byte	.LASF115
 2806 0852 05       		.byte	0x5
 2807 0853 9D02     		.2byte	0x29d
 2808 0855 18       		.byte	0x18
 2809 0856 6C080000 		.4byte	0x86c
 2810 085a 78       		.byte	0x78
 2811 085b 00       		.byte	0
 2812 085c 0B       		.uleb128 0xb
 2813 085d FA020000 		.4byte	0x2fa
 2814 0861 6C080000 		.4byte	0x86c
 2815 0865 0C       		.uleb128 0xc
 2816 0866 64000000 		.4byte	0x64
 2817 086a 1D       		.byte	0x1d
 2818 086b 00       		.byte	0
 2819 086c 0B       		.uleb128 0xb
 2820 086d 64000000 		.4byte	0x64
 2821 0871 7C080000 		.4byte	0x87c
 2822 0875 0C       		.uleb128 0xc
 2823 0876 64000000 		.4byte	0x64
 2824 087a 1D       		.byte	0x1d
 2825 087b 00       		.byte	0
 2826 087c 1C       		.uleb128 0x1c
 2827 087d F0       		.byte	0xf0
 2828 087e 05       		.byte	0x5
 2829 087f 7E02     		.2byte	0x27e
 2830 0881 03       		.byte	0x3
 2831 0882 A1080000 		.4byte	0x8a1
 2832 0886 1D       		.uleb128 0x1d
 2833 0887 360A0000 		.4byte	.LASF64
 2834 088b 05       		.byte	0x5
 2835 088c 9502     		.2byte	0x295
 2836 088e 0B       		.byte	0xb
 2837 088f F0060000 		.4byte	0x6f0
 2838 0893 1D       		.uleb128 0x1d
 2839 0894 D9070000 		.4byte	.LASF116
ARM GAS  C:\Users\EDULU~1.DES\AppData\Local\Temp\ccgrKYGn.s 			page 78


 2840 0898 05       		.byte	0x5
 2841 0899 9E02     		.2byte	0x29e
 2842 089b 0B       		.byte	0xb
 2843 089c 35080000 		.4byte	0x835
 2844 08a0 00       		.byte	0
 2845 08a1 0B       		.uleb128 0xb
 2846 08a2 BB050000 		.4byte	0x5bb
 2847 08a6 B1080000 		.4byte	0x8b1
 2848 08aa 0C       		.uleb128 0xc
 2849 08ab 64000000 		.4byte	0x64
 2850 08af 18       		.byte	0x18
 2851 08b0 00       		.byte	0
 2852 08b1 07       		.uleb128 0x7
 2853 08b2 390B0000 		.4byte	.LASF118
 2854 08b6 06       		.uleb128 0x6
 2855 08b7 04       		.byte	0x4
 2856 08b8 B1080000 		.4byte	0x8b1
 2857 08bc 1E       		.uleb128 0x1e
 2858 08bd C7080000 		.4byte	0x8c7
 2859 08c1 15       		.uleb128 0x15
 2860 08c2 61040000 		.4byte	0x461
 2861 08c6 00       		.byte	0
 2862 08c7 06       		.uleb128 0x6
 2863 08c8 04       		.byte	0x4
 2864 08c9 BC080000 		.4byte	0x8bc
 2865 08cd 06       		.uleb128 0x6
 2866 08ce 04       		.byte	0x4
 2867 08cf 84010000 		.4byte	0x184
 2868 08d3 1E       		.uleb128 0x1e
 2869 08d4 DE080000 		.4byte	0x8de
 2870 08d8 15       		.uleb128 0x15
 2871 08d9 5D000000 		.4byte	0x5d
 2872 08dd 00       		.byte	0
 2873 08de 06       		.uleb128 0x6
 2874 08df 04       		.byte	0x4
 2875 08e0 E4080000 		.4byte	0x8e4
 2876 08e4 06       		.uleb128 0x6
 2877 08e5 04       		.byte	0x4
 2878 08e6 D3080000 		.4byte	0x8d3
 2879 08ea 0B       		.uleb128 0xb
 2880 08eb 55060000 		.4byte	0x655
 2881 08ef FA080000 		.4byte	0x8fa
 2882 08f3 0C       		.uleb128 0xc
 2883 08f4 64000000 		.4byte	0x64
 2884 08f8 02       		.byte	0x2
 2885 08f9 00       		.byte	0
 2886 08fa 1F       		.uleb128 0x1f
 2887 08fb CD020000 		.4byte	.LASF119
 2888 08ff 05       		.byte	0x5
 2889 0900 2E03     		.2byte	0x32e
 2890 0902 17       		.byte	0x17
 2891 0903 61040000 		.4byte	0x461
 2892 0907 1F       		.uleb128 0x1f
 2893 0908 90070000 		.4byte	.LASF120
 2894 090c 05       		.byte	0x5
 2895 090d 2F03     		.2byte	0x32f
 2896 090f 1D       		.byte	0x1d
ARM GAS  C:\Users\EDULU~1.DES\AppData\Local\Temp\ccgrKYGn.s 			page 79


 2897 0910 67040000 		.4byte	0x467
 2898 0914 05       		.uleb128 0x5
 2899 0915 25010000 		.4byte	.LASF121
 2900 0919 06       		.byte	0x6
 2901 091a 72       		.byte	0x72
 2902 091b 18       		.byte	0x18
 2903 091c 2C000000 		.4byte	0x2c
 2904 0920 05       		.uleb128 0x5
 2905 0921 49060000 		.4byte	.LASF122
 2906 0925 06       		.byte	0x6
 2907 0926 73       		.byte	0x73
 2908 0927 18       		.byte	0x18
 2909 0928 2C000000 		.4byte	0x2c
 2910 092c 16       		.uleb128 0x16
 2911 092d 20090000 		.4byte	0x920
 2912 0931 05       		.uleb128 0x5
 2913 0932 20000000 		.4byte	.LASF123
 2914 0936 06       		.byte	0x6
 2915 0937 75       		.byte	0x75
 2916 0938 18       		.byte	0x18
 2917 0939 3A000000 		.4byte	0x3a
 2918 093d 05       		.uleb128 0x5
 2919 093e 4D000000 		.4byte	.LASF124
 2920 0942 06       		.byte	0x6
 2921 0943 77       		.byte	0x77
 2922 0944 18       		.byte	0x18
 2923 0945 64000000 		.4byte	0x64
 2924 0949 20       		.uleb128 0x20
 2925 094a 3D090000 		.4byte	0x93d
 2926 094e 02       		.uleb128 0x2
 2927 094f 04       		.byte	0x4
 2928 0950 04       		.byte	0x4
 2929 0951 B1020000 		.4byte	.LASF125
 2930 0955 02       		.uleb128 0x2
 2931 0956 08       		.byte	0x8
 2932 0957 04       		.byte	0x4
 2933 0958 740A0000 		.4byte	.LASF126
 2934 095c 05       		.uleb128 0x5
 2935 095d 1D070000 		.4byte	.LASF127
 2936 0961 06       		.byte	0x6
 2937 0962 7C       		.byte	0x7c
 2938 0963 18       		.byte	0x18
 2939 0964 64000000 		.4byte	0x64
 2940 0968 05       		.uleb128 0x5
 2941 0969 5C080000 		.4byte	.LASF128
 2942 096d 06       		.byte	0x6
 2943 096e 7D       		.byte	0x7d
 2944 096f 18       		.byte	0x18
 2945 0970 64000000 		.4byte	0x64
 2946 0974 0B       		.uleb128 0xb
 2947 0975 5C090000 		.4byte	0x95c
 2948 0979 84090000 		.4byte	0x984
 2949 097d 0C       		.uleb128 0xc
 2950 097e 64000000 		.4byte	0x64
 2951 0982 7F       		.byte	0x7f
 2952 0983 00       		.byte	0
 2953 0984 21       		.uleb128 0x21
ARM GAS  C:\Users\EDULU~1.DES\AppData\Local\Temp\ccgrKYGn.s 			page 80


 2954 0985 37040000 		.4byte	.LASF129
 2955 0989 06       		.byte	0x6
 2956 098a AF       		.byte	0xaf
 2957 098b 16       		.byte	0x16
 2958 098c 74090000 		.4byte	0x974
 2959 0990 21       		.uleb128 0x21
 2960 0991 86020000 		.4byte	.LASF130
 2961 0995 06       		.byte	0x6
 2962 0996 B0       		.byte	0xb0
 2963 0997 16       		.byte	0x16
 2964 0998 9C090000 		.4byte	0x99c
 2965 099c 06       		.uleb128 0x6
 2966 099d 04       		.byte	0x4
 2967 099e 5C090000 		.4byte	0x95c
 2968 09a2 08       		.uleb128 0x8
 2969 09a3 A9020000 		.4byte	.LASF131
 2970 09a7 07       		.byte	0x7
 2971 09a8 7201     		.2byte	0x172
 2972 09aa 13       		.byte	0x13
 2973 09ab 20090000 		.4byte	0x920
 2974 09af 1A       		.uleb128 0x1a
 2975 09b0 A1060000 		.4byte	.LASF132
 2976 09b4 10       		.byte	0x10
 2977 09b5 07       		.byte	0x7
 2978 09b6 7801     		.2byte	0x178
 2979 09b8 10       		.byte	0x10
 2980 09b9 040A0000 		.4byte	0xa04
 2981 09bd 18       		.uleb128 0x18
 2982 09be 500A0000 		.4byte	.LASF133
 2983 09c2 07       		.byte	0x7
 2984 09c3 7901     		.2byte	0x179
 2985 09c5 0E       		.byte	0xe
 2986 09c6 20090000 		.4byte	0x920
 2987 09ca 00       		.byte	0
 2988 09cb 18       		.uleb128 0x18
 2989 09cc 28090000 		.4byte	.LASF134
 2990 09d0 07       		.byte	0x7
 2991 09d1 7A01     		.2byte	0x17a
 2992 09d3 0E       		.byte	0xe
 2993 09d4 72000000 		.4byte	0x72
 2994 09d8 04       		.byte	0x4
 2995 09d9 18       		.uleb128 0x18
 2996 09da AE030000 		.4byte	.LASF135
 2997 09de 07       		.byte	0x7
 2998 09df 7B01     		.2byte	0x17b
 2999 09e1 0E       		.byte	0xe
 3000 09e2 31090000 		.4byte	0x931
 3001 09e6 08       		.byte	0x8
 3002 09e7 18       		.uleb128 0x18
 3003 09e8 36010000 		.4byte	.LASF136
 3004 09ec 07       		.byte	0x7
 3005 09ed 7C01     		.2byte	0x17c
 3006 09ef 0E       		.byte	0xe
 3007 09f0 A2090000 		.4byte	0x9a2
 3008 09f4 0A       		.byte	0xa
 3009 09f5 18       		.uleb128 0x18
 3010 09f6 F5020000 		.4byte	.LASF137
ARM GAS  C:\Users\EDULU~1.DES\AppData\Local\Temp\ccgrKYGn.s 			page 81


 3011 09fa 07       		.byte	0x7
 3012 09fb 7D01     		.2byte	0x17d
 3013 09fd 0E       		.byte	0xe
 3014 09fe 040A0000 		.4byte	0xa04
 3015 0a02 0B       		.byte	0xb
 3016 0a03 00       		.byte	0
 3017 0a04 0B       		.uleb128 0xb
 3018 0a05 A2090000 		.4byte	0x9a2
 3019 0a09 140A0000 		.4byte	0xa14
 3020 0a0d 0C       		.uleb128 0xc
 3021 0a0e 64000000 		.4byte	0x64
 3022 0a12 03       		.byte	0x3
 3023 0a13 00       		.byte	0
 3024 0a14 08       		.uleb128 0x8
 3025 0a15 B4000000 		.4byte	.LASF138
 3026 0a19 07       		.byte	0x7
 3027 0a1a 8201     		.2byte	0x182
 3028 0a1c 03       		.byte	0x3
 3029 0a1d AF090000 		.4byte	0x9af
 3030 0a21 1A       		.uleb128 0x1a
 3031 0a22 08010000 		.4byte	.LASF139
 3032 0a26 08       		.byte	0x8
 3033 0a27 07       		.byte	0x7
 3034 0a28 2102     		.2byte	0x221
 3035 0a2a 10       		.byte	0x10
 3036 0a2b 4C0A0000 		.4byte	0xa4c
 3037 0a2f 18       		.uleb128 0x18
 3038 0a30 14010000 		.4byte	.LASF140
 3039 0a34 07       		.byte	0x7
 3040 0a35 2202     		.2byte	0x222
 3041 0a37 0D       		.byte	0xd
 3042 0a38 3D090000 		.4byte	0x93d
 3043 0a3c 00       		.byte	0
 3044 0a3d 18       		.uleb128 0x18
 3045 0a3e FA070000 		.4byte	.LASF141
 3046 0a42 07       		.byte	0x7
 3047 0a43 2302     		.2byte	0x223
 3048 0a45 0D       		.byte	0xd
 3049 0a46 3D090000 		.4byte	0x93d
 3050 0a4a 04       		.byte	0x4
 3051 0a4b 00       		.byte	0
 3052 0a4c 08       		.uleb128 0x8
 3053 0a4d 14000000 		.4byte	.LASF142
 3054 0a51 07       		.byte	0x7
 3055 0a52 2402     		.2byte	0x224
 3056 0a54 03       		.byte	0x3
 3057 0a55 210A0000 		.4byte	0xa21
 3058 0a59 1A       		.uleb128 0x1a
 3059 0a5a 00000000 		.4byte	.LASF143
 3060 0a5e 30       		.byte	0x30
 3061 0a5f 07       		.byte	0x7
 3062 0a60 2E02     		.2byte	0x22e
 3063 0a62 10       		.byte	0x10
 3064 0a63 640B0000 		.4byte	0xb64
 3065 0a67 18       		.uleb128 0x18
 3066 0a68 A8000000 		.4byte	.LASF144
 3067 0a6c 07       		.byte	0x7
ARM GAS  C:\Users\EDULU~1.DES\AppData\Local\Temp\ccgrKYGn.s 			page 82


 3068 0a6d 2F02     		.2byte	0x22f
 3069 0a6f 16       		.byte	0x16
 3070 0a70 9C090000 		.4byte	0x99c
 3071 0a74 00       		.byte	0
 3072 0a75 18       		.uleb128 0x18
 3073 0a76 5F050000 		.4byte	.LASF145
 3074 0a7a 07       		.byte	0x7
 3075 0a7b 3202     		.2byte	0x232
 3076 0a7d 16       		.byte	0x16
 3077 0a7e 72000000 		.4byte	0x72
 3078 0a82 04       		.byte	0x4
 3079 0a83 18       		.uleb128 0x18
 3080 0a84 C8060000 		.4byte	.LASF146
 3081 0a88 07       		.byte	0x7
 3082 0a89 3302     		.2byte	0x233
 3083 0a8b 16       		.byte	0x16
 3084 0a8c 9C090000 		.4byte	0x99c
 3085 0a90 08       		.byte	0x8
 3086 0a91 18       		.uleb128 0x18
 3087 0a92 EC050000 		.4byte	.LASF147
 3088 0a96 07       		.byte	0x7
 3089 0a97 3402     		.2byte	0x234
 3090 0a99 16       		.byte	0x16
 3091 0a9a 3D090000 		.4byte	0x93d
 3092 0a9e 0C       		.byte	0xc
 3093 0a9f 18       		.uleb128 0x18
 3094 0aa0 AB090000 		.4byte	.LASF148
 3095 0aa4 07       		.byte	0x7
 3096 0aa5 3502     		.2byte	0x235
 3097 0aa7 16       		.byte	0x16
 3098 0aa8 31090000 		.4byte	0x931
 3099 0aac 10       		.byte	0x10
 3100 0aad 18       		.uleb128 0x18
 3101 0aae D9020000 		.4byte	.LASF149
 3102 0ab2 07       		.byte	0x7
 3103 0ab3 3602     		.2byte	0x236
 3104 0ab5 16       		.byte	0x16
 3105 0ab6 31090000 		.4byte	0x931
 3106 0aba 12       		.byte	0x12
 3107 0abb 18       		.uleb128 0x18
 3108 0abc 7F040000 		.4byte	.LASF150
 3109 0ac0 07       		.byte	0x7
 3110 0ac1 3902     		.2byte	0x239
 3111 0ac3 16       		.byte	0x16
 3112 0ac4 640B0000 		.4byte	0xb64
 3113 0ac8 14       		.byte	0x14
 3114 0ac9 18       		.uleb128 0x18
 3115 0aca 1E050000 		.4byte	.LASF151
 3116 0ace 07       		.byte	0x7
 3117 0acf 3A02     		.2byte	0x23a
 3118 0ad1 16       		.byte	0x16
 3119 0ad2 640B0000 		.4byte	0xb64
 3120 0ad6 18       		.byte	0x18
 3121 0ad7 18       		.uleb128 0x18
 3122 0ad8 280A0000 		.4byte	.LASF152
 3123 0adc 07       		.byte	0x7
 3124 0add 4302     		.2byte	0x243
ARM GAS  C:\Users\EDULU~1.DES\AppData\Local\Temp\ccgrKYGn.s 			page 83


 3125 0adf 16       		.byte	0x16
 3126 0ae0 6A0B0000 		.4byte	0xb6a
 3127 0ae4 1C       		.byte	0x1c
 3128 0ae5 18       		.uleb128 0x18
 3129 0ae6 20060000 		.4byte	.LASF153
 3130 0aea 07       		.byte	0x7
 3131 0aeb 5502     		.2byte	0x255
 3132 0aed 16       		.byte	0x16
 3133 0aee 3D090000 		.4byte	0x93d
 3134 0af2 20       		.byte	0x20
 3135 0af3 18       		.uleb128 0x18
 3136 0af4 4F070000 		.4byte	.LASF154
 3137 0af8 07       		.byte	0x7
 3138 0af9 5602     		.2byte	0x256
 3139 0afb 16       		.byte	0x16
 3140 0afc 20090000 		.4byte	0x920
 3141 0b00 24       		.byte	0x24
 3142 0b01 18       		.uleb128 0x18
 3143 0b02 10050000 		.4byte	.LASF155
 3144 0b06 07       		.byte	0x7
 3145 0b07 5702     		.2byte	0x257
 3146 0b09 16       		.byte	0x16
 3147 0b0a 20090000 		.4byte	0x920
 3148 0b0e 25       		.byte	0x25
 3149 0b0f 18       		.uleb128 0x18
 3150 0b10 38070000 		.4byte	.LASF156
 3151 0b14 07       		.byte	0x7
 3152 0b15 5802     		.2byte	0x258
 3153 0b17 16       		.byte	0x16
 3154 0b18 20090000 		.4byte	0x920
 3155 0b1c 26       		.byte	0x26
 3156 0b1d 18       		.uleb128 0x18
 3157 0b1e F5080000 		.4byte	.LASF157
 3158 0b22 07       		.byte	0x7
 3159 0b23 5A02     		.2byte	0x25a
 3160 0b25 16       		.byte	0x16
 3161 0b26 20090000 		.4byte	0x920
 3162 0b2a 27       		.byte	0x27
 3163 0b2b 18       		.uleb128 0x18
 3164 0b2c FC080000 		.4byte	.LASF158
 3165 0b30 07       		.byte	0x7
 3166 0b31 5B02     		.2byte	0x25b
 3167 0b33 16       		.byte	0x16
 3168 0b34 20090000 		.4byte	0x920
 3169 0b38 28       		.byte	0x28
 3170 0b39 18       		.uleb128 0x18
 3171 0b3a E1070000 		.4byte	.LASF159
 3172 0b3e 07       		.byte	0x7
 3173 0b3f 5C02     		.2byte	0x25c
 3174 0b41 16       		.byte	0x16
 3175 0b42 A2090000 		.4byte	0x9a2
 3176 0b46 29       		.byte	0x29
 3177 0b47 18       		.uleb128 0x18
 3178 0b48 EB070000 		.4byte	.LASF160
 3179 0b4c 07       		.byte	0x7
 3180 0b4d 5D02     		.2byte	0x25d
 3181 0b4f 16       		.byte	0x16
ARM GAS  C:\Users\EDULU~1.DES\AppData\Local\Temp\ccgrKYGn.s 			page 84


 3182 0b50 A2090000 		.4byte	0x9a2
 3183 0b54 2A       		.byte	0x2a
 3184 0b55 18       		.uleb128 0x18
 3185 0b56 95090000 		.4byte	.LASF161
 3186 0b5a 07       		.byte	0x7
 3187 0b5b 7002     		.2byte	0x270
 3188 0b5d 16       		.byte	0x16
 3189 0b5e 700B0000 		.4byte	0xb70
 3190 0b62 2C       		.byte	0x2c
 3191 0b63 00       		.byte	0
 3192 0b64 06       		.uleb128 0x6
 3193 0b65 04       		.byte	0x4
 3194 0b66 590A0000 		.4byte	0xa59
 3195 0b6a 06       		.uleb128 0x6
 3196 0b6b 04       		.byte	0x4
 3197 0b6c 140A0000 		.4byte	0xa14
 3198 0b70 0B       		.uleb128 0xb
 3199 0b71 3D090000 		.4byte	0x93d
 3200 0b75 800B0000 		.4byte	0xb80
 3201 0b79 0C       		.uleb128 0xc
 3202 0b7a 64000000 		.4byte	0x64
 3203 0b7e 00       		.byte	0
 3204 0b7f 00       		.byte	0
 3205 0b80 08       		.uleb128 0x8
 3206 0b81 D70A0000 		.4byte	.LASF162
 3207 0b85 07       		.byte	0x7
 3208 0b86 7202     		.2byte	0x272
 3209 0b88 03       		.byte	0x3
 3210 0b89 590A0000 		.4byte	0xa59
 3211 0b8d 08       		.uleb128 0x8
 3212 0b8e BD000000 		.4byte	.LASF163
 3213 0b92 07       		.byte	0x7
 3214 0b93 7C02     		.2byte	0x27c
 3215 0b95 11       		.byte	0x11
 3216 0b96 9A0B0000 		.4byte	0xb9a
 3217 0b9a 06       		.uleb128 0x6
 3218 0b9b 04       		.byte	0x4
 3219 0b9c A00B0000 		.4byte	0xba0
 3220 0ba0 1E       		.uleb128 0x1e
 3221 0ba1 B00B0000 		.4byte	0xbb0
 3222 0ba5 15       		.uleb128 0x15
 3223 0ba6 72000000 		.4byte	0x72
 3224 0baa 15       		.uleb128 0x15
 3225 0bab 72000000 		.4byte	0x72
 3226 0baf 00       		.byte	0
 3227 0bb0 1A       		.uleb128 0x1a
 3228 0bb1 FA060000 		.4byte	.LASF164
 3229 0bb5 28       		.byte	0x28
 3230 0bb6 07       		.byte	0x7
 3231 0bb7 8002     		.2byte	0x280
 3232 0bb9 12       		.byte	0x12
 3233 0bba 590C0000 		.4byte	0xc59
 3234 0bbe 18       		.uleb128 0x18
 3235 0bbf 19090000 		.4byte	.LASF165
 3236 0bc3 07       		.byte	0x7
 3237 0bc4 8102     		.2byte	0x281
 3238 0bc6 16       		.byte	0x16
ARM GAS  C:\Users\EDULU~1.DES\AppData\Local\Temp\ccgrKYGn.s 			page 85


 3239 0bc7 20090000 		.4byte	0x920
 3240 0bcb 00       		.byte	0
 3241 0bcc 18       		.uleb128 0x18
 3242 0bcd 48040000 		.4byte	.LASF166
 3243 0bd1 07       		.byte	0x7
 3244 0bd2 8202     		.2byte	0x282
 3245 0bd4 16       		.byte	0x16
 3246 0bd5 8D0B0000 		.4byte	0xb8d
 3247 0bd9 04       		.byte	0x4
 3248 0bda 18       		.uleb128 0x18
 3249 0bdb B2070000 		.4byte	.LASF167
 3250 0bdf 07       		.byte	0x7
 3251 0be0 8302     		.2byte	0x283
 3252 0be2 16       		.byte	0x16
 3253 0be3 72000000 		.4byte	0x72
 3254 0be7 08       		.byte	0x8
 3255 0be8 18       		.uleb128 0x18
 3256 0be9 1B010000 		.4byte	.LASF168
 3257 0bed 07       		.byte	0x7
 3258 0bee 8402     		.2byte	0x284
 3259 0bf0 16       		.byte	0x16
 3260 0bf1 72000000 		.4byte	0x72
 3261 0bf5 0C       		.byte	0xc
 3262 0bf6 18       		.uleb128 0x18
 3263 0bf7 54000000 		.4byte	.LASF169
 3264 0bfb 07       		.byte	0x7
 3265 0bfc 8502     		.2byte	0x285
 3266 0bfe 16       		.byte	0x16
 3267 0bff 72000000 		.4byte	0x72
 3268 0c03 10       		.byte	0x10
 3269 0c04 18       		.uleb128 0x18
 3270 0c05 7C090000 		.4byte	.LASF170
 3271 0c09 07       		.byte	0x7
 3272 0c0a 8602     		.2byte	0x286
 3273 0c0c 16       		.byte	0x16
 3274 0c0d 3D090000 		.4byte	0x93d
 3275 0c11 14       		.byte	0x14
 3276 0c12 18       		.uleb128 0x18
 3277 0c13 D4030000 		.4byte	.LASF171
 3278 0c17 07       		.byte	0x7
 3279 0c18 8702     		.2byte	0x287
 3280 0c1a 16       		.byte	0x16
 3281 0c1b 3D090000 		.4byte	0x93d
 3282 0c1f 18       		.byte	0x18
 3283 0c20 18       		.uleb128 0x18
 3284 0c21 EF000000 		.4byte	.LASF172
 3285 0c25 07       		.byte	0x7
 3286 0c26 8802     		.2byte	0x288
 3287 0c28 16       		.byte	0x16
 3288 0c29 3D090000 		.4byte	0x93d
 3289 0c2d 1C       		.byte	0x1c
 3290 0c2e 18       		.uleb128 0x18
 3291 0c2f A1090000 		.4byte	.LASF173
 3292 0c33 07       		.byte	0x7
 3293 0c34 8A02     		.2byte	0x28a
 3294 0c36 16       		.byte	0x16
 3295 0c37 590C0000 		.4byte	0xc59
ARM GAS  C:\Users\EDULU~1.DES\AppData\Local\Temp\ccgrKYGn.s 			page 86


 3296 0c3b 20       		.byte	0x20
 3297 0c3c 18       		.uleb128 0x18
 3298 0c3d 64070000 		.4byte	.LASF174
 3299 0c41 07       		.byte	0x7
 3300 0c42 8C02     		.2byte	0x28c
 3301 0c44 16       		.byte	0x16
 3302 0c45 20090000 		.4byte	0x920
 3303 0c49 24       		.byte	0x24
 3304 0c4a 18       		.uleb128 0x18
 3305 0c4b E8030000 		.4byte	.LASF175
 3306 0c4f 07       		.byte	0x7
 3307 0c50 8D02     		.2byte	0x28d
 3308 0c52 16       		.byte	0x16
 3309 0c53 20090000 		.4byte	0x920
 3310 0c57 25       		.byte	0x25
 3311 0c58 00       		.byte	0
 3312 0c59 06       		.uleb128 0x6
 3313 0c5a 04       		.byte	0x4
 3314 0c5b 20090000 		.4byte	0x920
 3315 0c5f 08       		.uleb128 0x8
 3316 0c60 9A060000 		.4byte	.LASF176
 3317 0c64 07       		.byte	0x7
 3318 0c65 9102     		.2byte	0x291
 3319 0c67 03       		.byte	0x3
 3320 0c68 B00B0000 		.4byte	0xbb0
 3321 0c6c 1A       		.uleb128 0x1a
 3322 0c6d 4A0B0000 		.4byte	.LASF177
 3323 0c71 08       		.byte	0x8
 3324 0c72 07       		.byte	0x7
 3325 0c73 9502     		.2byte	0x295
 3326 0c75 12       		.byte	0x12
 3327 0c76 970C0000 		.4byte	0xc97
 3328 0c7a 18       		.uleb128 0x18
 3329 0c7b 52020000 		.4byte	.LASF178
 3330 0c7f 07       		.byte	0x7
 3331 0c80 9602     		.2byte	0x296
 3332 0c82 16       		.byte	0x16
 3333 0c83 970C0000 		.4byte	0xc97
 3334 0c87 00       		.byte	0
 3335 0c88 18       		.uleb128 0x18
 3336 0c89 3C090000 		.4byte	.LASF179
 3337 0c8d 07       		.byte	0x7
 3338 0c8e 9702     		.2byte	0x297
 3339 0c90 16       		.byte	0x16
 3340 0c91 31090000 		.4byte	0x931
 3341 0c95 04       		.byte	0x4
 3342 0c96 00       		.byte	0
 3343 0c97 06       		.uleb128 0x6
 3344 0c98 04       		.byte	0x4
 3345 0c99 5F0C0000 		.4byte	0xc5f
 3346 0c9d 08       		.uleb128 0x8
 3347 0c9e 0E060000 		.4byte	.LASF180
 3348 0ca2 07       		.byte	0x7
 3349 0ca3 9802     		.2byte	0x298
 3350 0ca5 03       		.byte	0x3
 3351 0ca6 6C0C0000 		.4byte	0xc6c
 3352 0caa 1F       		.uleb128 0x1f
ARM GAS  C:\Users\EDULU~1.DES\AppData\Local\Temp\ccgrKYGn.s 			page 87


 3353 0cab DD000000 		.4byte	.LASF181
 3354 0caf 07       		.byte	0x7
 3355 0cb0 B002     		.2byte	0x2b0
 3356 0cb2 1B       		.byte	0x1b
 3357 0cb3 3D090000 		.4byte	0x93d
 3358 0cb7 1F       		.uleb128 0x1f
 3359 0cb8 00030000 		.4byte	.LASF182
 3360 0cbc 07       		.byte	0x7
 3361 0cbd B302     		.2byte	0x2b3
 3362 0cbf 1B       		.byte	0x1b
 3363 0cc0 6A0B0000 		.4byte	0xb6a
 3364 0cc4 0B       		.uleb128 0xb
 3365 0cc5 140A0000 		.4byte	0xa14
 3366 0cc9 D40C0000 		.4byte	0xcd4
 3367 0ccd 0C       		.uleb128 0xc
 3368 0cce 64000000 		.4byte	0x64
 3369 0cd2 04       		.byte	0x4
 3370 0cd3 00       		.byte	0
 3371 0cd4 1F       		.uleb128 0x1f
 3372 0cd5 F5020000 		.4byte	.LASF137
 3373 0cd9 07       		.byte	0x7
 3374 0cda B402     		.2byte	0x2b4
 3375 0cdc 1B       		.byte	0x1b
 3376 0cdd C40C0000 		.4byte	0xcc4
 3377 0ce1 1F       		.uleb128 0x1f
 3378 0ce2 C9030000 		.4byte	.LASF183
 3379 0ce6 07       		.byte	0x7
 3380 0ce7 BD02     		.2byte	0x2bd
 3381 0ce9 1B       		.byte	0x1b
 3382 0cea 20090000 		.4byte	0x920
 3383 0cee 1F       		.uleb128 0x1f
 3384 0cef 6E0B0000 		.4byte	.LASF184
 3385 0cf3 07       		.byte	0x7
 3386 0cf4 BE02     		.2byte	0x2be
 3387 0cf6 1B       		.byte	0x1b
 3388 0cf7 3D090000 		.4byte	0x93d
 3389 0cfb 1F       		.uleb128 0x1f
 3390 0cfc A1030000 		.4byte	.LASF185
 3391 0d00 07       		.byte	0x7
 3392 0d01 BF02     		.2byte	0x2bf
 3393 0d03 1B       		.byte	0x1b
 3394 0d04 3D090000 		.4byte	0x93d
 3395 0d08 1F       		.uleb128 0x1f
 3396 0d09 01070000 		.4byte	.LASF186
 3397 0d0d 07       		.byte	0x7
 3398 0d0e C002     		.2byte	0x2c0
 3399 0d10 1B       		.byte	0x1b
 3400 0d11 14090000 		.4byte	0x914
 3401 0d15 0B       		.uleb128 0xb
 3402 0d16 5C090000 		.4byte	0x95c
 3403 0d1a 250D0000 		.4byte	0xd25
 3404 0d1e 0C       		.uleb128 0xc
 3405 0d1f 64000000 		.4byte	0x64
 3406 0d23 1F       		.byte	0x1f
 3407 0d24 00       		.byte	0
 3408 0d25 1F       		.uleb128 0x1f
 3409 0d26 32020000 		.4byte	.LASF187
ARM GAS  C:\Users\EDULU~1.DES\AppData\Local\Temp\ccgrKYGn.s 			page 88


 3410 0d2a 07       		.byte	0x7
 3411 0d2b C102     		.2byte	0x2c1
 3412 0d2d 1B       		.byte	0x1b
 3413 0d2e 150D0000 		.4byte	0xd15
 3414 0d32 1F       		.uleb128 0x1f
 3415 0d33 62010000 		.4byte	.LASF188
 3416 0d37 07       		.byte	0x7
 3417 0d38 C402     		.2byte	0x2c4
 3418 0d3a 1B       		.byte	0x1b
 3419 0d3b 20090000 		.4byte	0x920
 3420 0d3f 1F       		.uleb128 0x1f
 3421 0d40 9B040000 		.4byte	.LASF189
 3422 0d44 07       		.byte	0x7
 3423 0d45 C602     		.2byte	0x2c6
 3424 0d47 1B       		.byte	0x1b
 3425 0d48 20090000 		.4byte	0x920
 3426 0d4c 1F       		.uleb128 0x1f
 3427 0d4d FD040000 		.4byte	.LASF190
 3428 0d51 07       		.byte	0x7
 3429 0d52 C802     		.2byte	0x2c8
 3430 0d54 1B       		.byte	0x1b
 3431 0d55 20090000 		.4byte	0x920
 3432 0d59 1F       		.uleb128 0x1f
 3433 0d5a 5D020000 		.4byte	.LASF191
 3434 0d5e 07       		.byte	0x7
 3435 0d5f C902     		.2byte	0x2c9
 3436 0d61 1B       		.byte	0x1b
 3437 0d62 20090000 		.4byte	0x920
 3438 0d66 1F       		.uleb128 0x1f
 3439 0d67 1B080000 		.4byte	.LASF192
 3440 0d6b 07       		.byte	0x7
 3441 0d6c CB02     		.2byte	0x2cb
 3442 0d6e 1B       		.byte	0x1b
 3443 0d6f A2090000 		.4byte	0x9a2
 3444 0d73 1F       		.uleb128 0x1f
 3445 0d74 BB090000 		.4byte	.LASF193
 3446 0d78 07       		.byte	0x7
 3447 0d79 CC02     		.2byte	0x2cc
 3448 0d7b 1B       		.byte	0x1b
 3449 0d7c 040A0000 		.4byte	0xa04
 3450 0d80 1F       		.uleb128 0x1f
 3451 0d81 DC050000 		.4byte	.LASF194
 3452 0d85 07       		.byte	0x7
 3453 0d86 CE02     		.2byte	0x2ce
 3454 0d88 1B       		.byte	0x1b
 3455 0d89 14090000 		.4byte	0x914
 3456 0d8d 1F       		.uleb128 0x1f
 3457 0d8e 75040000 		.4byte	.LASF195
 3458 0d92 07       		.byte	0x7
 3459 0d93 D002     		.2byte	0x2d0
 3460 0d95 1B       		.byte	0x1b
 3461 0d96 20090000 		.4byte	0x920
 3462 0d9a 1F       		.uleb128 0x1f
 3463 0d9b 71000000 		.4byte	.LASF196
 3464 0d9f 07       		.byte	0x7
 3465 0da0 D202     		.2byte	0x2d2
 3466 0da2 1B       		.byte	0x1b
ARM GAS  C:\Users\EDULU~1.DES\AppData\Local\Temp\ccgrKYGn.s 			page 89


 3467 0da3 49090000 		.4byte	0x949
 3468 0da7 1F       		.uleb128 0x1f
 3469 0da8 67040000 		.4byte	.LASF197
 3470 0dac 07       		.byte	0x7
 3471 0dad D802     		.2byte	0x2d8
 3472 0daf 1B       		.byte	0x1b
 3473 0db0 150D0000 		.4byte	0xd15
 3474 0db4 1F       		.uleb128 0x1f
 3475 0db5 07050000 		.4byte	.LASF198
 3476 0db9 07       		.byte	0x7
 3477 0dba DB02     		.2byte	0x2db
 3478 0dbc 1B       		.byte	0x1b
 3479 0dbd C10D0000 		.4byte	0xdc1
 3480 0dc1 06       		.uleb128 0x6
 3481 0dc2 04       		.byte	0x4
 3482 0dc3 800B0000 		.4byte	0xb80
 3483 0dc7 1F       		.uleb128 0x1f
 3484 0dc8 AF0A0000 		.4byte	.LASF199
 3485 0dcc 07       		.byte	0x7
 3486 0dcd DC02     		.2byte	0x2dc
 3487 0dcf 1B       		.byte	0x1b
 3488 0dd0 C10D0000 		.4byte	0xdc1
 3489 0dd4 1F       		.uleb128 0x1f
 3490 0dd5 42070000 		.4byte	.LASF200
 3491 0dd9 07       		.byte	0x7
 3492 0dda DD02     		.2byte	0x2dd
 3493 0ddc 1B       		.byte	0x1b
 3494 0ddd C10D0000 		.4byte	0xdc1
 3495 0de1 1F       		.uleb128 0x1f
 3496 0de2 76050000 		.4byte	.LASF201
 3497 0de6 07       		.byte	0x7
 3498 0de7 DE02     		.2byte	0x2de
 3499 0de9 1B       		.byte	0x1b
 3500 0dea C10D0000 		.4byte	0xdc1
 3501 0dee 0B       		.uleb128 0xb
 3502 0def C10D0000 		.4byte	0xdc1
 3503 0df3 FE0D0000 		.4byte	0xdfe
 3504 0df7 0C       		.uleb128 0xc
 3505 0df8 64000000 		.4byte	0x64
 3506 0dfc 1F       		.byte	0x1f
 3507 0dfd 00       		.byte	0
 3508 0dfe 1F       		.uleb128 0x1f
 3509 0dff FB000000 		.4byte	.LASF202
 3510 0e03 07       		.byte	0x7
 3511 0e04 DF02     		.2byte	0x2df
 3512 0e06 1B       		.byte	0x1b
 3513 0e07 EE0D0000 		.4byte	0xdee
 3514 0e0b 0B       		.uleb128 0xb
 3515 0e0c 800B0000 		.4byte	0xb80
 3516 0e10 1B0E0000 		.4byte	0xe1b
 3517 0e14 0C       		.uleb128 0xc
 3518 0e15 64000000 		.4byte	0x64
 3519 0e19 05       		.byte	0x5
 3520 0e1a 00       		.byte	0
 3521 0e1b 1F       		.uleb128 0x1f
 3522 0e1c 5C0A0000 		.4byte	.LASF203
 3523 0e20 07       		.byte	0x7
ARM GAS  C:\Users\EDULU~1.DES\AppData\Local\Temp\ccgrKYGn.s 			page 90


 3524 0e21 E002     		.2byte	0x2e0
 3525 0e23 1B       		.byte	0x1b
 3526 0e24 0B0E0000 		.4byte	0xe0b
 3527 0e28 1F       		.uleb128 0x1f
 3528 0e29 82060000 		.4byte	.LASF204
 3529 0e2d 07       		.byte	0x7
 3530 0e2e E302     		.2byte	0x2e3
 3531 0e30 1B       		.byte	0x1b
 3532 0e31 20090000 		.4byte	0x920
 3533 0e35 1F       		.uleb128 0x1f
 3534 0e36 56090000 		.4byte	.LASF205
 3535 0e3a 07       		.byte	0x7
 3536 0e3b F102     		.2byte	0x2f1
 3537 0e3d 1B       		.byte	0x1b
 3538 0e3e 20090000 		.4byte	0x920
 3539 0e42 1F       		.uleb128 0x1f
 3540 0e43 C3070000 		.4byte	.LASF206
 3541 0e47 07       		.byte	0x7
 3542 0e48 F502     		.2byte	0x2f5
 3543 0e4a 1B       		.byte	0x1b
 3544 0e4b 49090000 		.4byte	0x949
 3545 0e4f 1F       		.uleb128 0x1f
 3546 0e50 63030000 		.4byte	.LASF207
 3547 0e54 07       		.byte	0x7
 3548 0e55 F902     		.2byte	0x2f9
 3549 0e57 1B       		.byte	0x1b
 3550 0e58 31090000 		.4byte	0x931
 3551 0e5c 1F       		.uleb128 0x1f
 3552 0e5d F3030000 		.4byte	.LASF208
 3553 0e61 07       		.byte	0x7
 3554 0e62 FA02     		.2byte	0x2fa
 3555 0e64 1B       		.byte	0x1b
 3556 0e65 31090000 		.4byte	0x931
 3557 0e69 1F       		.uleb128 0x1f
 3558 0e6a B9030000 		.4byte	.LASF209
 3559 0e6e 07       		.byte	0x7
 3560 0e6f FB02     		.2byte	0x2fb
 3561 0e71 1B       		.byte	0x1b
 3562 0e72 3D090000 		.4byte	0x93d
 3563 0e76 1F       		.uleb128 0x1f
 3564 0e77 4F050000 		.4byte	.LASF210
 3565 0e7b 07       		.byte	0x7
 3566 0e7c FD02     		.2byte	0x2fd
 3567 0e7e 1B       		.byte	0x1b
 3568 0e7f 6A0B0000 		.4byte	0xb6a
 3569 0e83 1F       		.uleb128 0x1f
 3570 0e84 30000000 		.4byte	.LASF211
 3571 0e88 07       		.byte	0x7
 3572 0e89 FE02     		.2byte	0x2fe
 3573 0e8b 1B       		.byte	0x1b
 3574 0e8c 6A0B0000 		.4byte	0xb6a
 3575 0e90 0B       		.uleb128 0xb
 3576 0e91 5F0C0000 		.4byte	0xc5f
 3577 0e95 A00E0000 		.4byte	0xea0
 3578 0e99 0C       		.uleb128 0xc
 3579 0e9a 64000000 		.4byte	0x64
 3580 0e9e 0F       		.byte	0xf
ARM GAS  C:\Users\EDULU~1.DES\AppData\Local\Temp\ccgrKYGn.s 			page 91


 3581 0e9f 00       		.byte	0
 3582 0ea0 1F       		.uleb128 0x1f
 3583 0ea1 120B0000 		.4byte	.LASF212
 3584 0ea5 07       		.byte	0x7
 3585 0ea6 0003     		.2byte	0x300
 3586 0ea8 1B       		.byte	0x1b
 3587 0ea9 900E0000 		.4byte	0xe90
 3588 0ead 1F       		.uleb128 0x1f
 3589 0eae 24070000 		.4byte	.LASF213
 3590 0eb2 07       		.byte	0x7
 3591 0eb3 0103     		.2byte	0x301
 3592 0eb5 1B       		.byte	0x1b
 3593 0eb6 970C0000 		.4byte	0xc97
 3594 0eba 1F       		.uleb128 0x1f
 3595 0ebb 1B0B0000 		.4byte	.LASF214
 3596 0ebf 07       		.byte	0x7
 3597 0ec0 0203     		.2byte	0x302
 3598 0ec2 1B       		.byte	0x1b
 3599 0ec3 150D0000 		.4byte	0xd15
 3600 0ec7 0B       		.uleb128 0xb
 3601 0ec8 9D0C0000 		.4byte	0xc9d
 3602 0ecc D70E0000 		.4byte	0xed7
 3603 0ed0 0C       		.uleb128 0xc
 3604 0ed1 64000000 		.4byte	0x64
 3605 0ed5 06       		.byte	0x6
 3606 0ed6 00       		.byte	0
 3607 0ed7 1F       		.uleb128 0x1f
 3608 0ed8 06040000 		.4byte	.LASF215
 3609 0edc 07       		.byte	0x7
 3610 0edd 0403     		.2byte	0x304
 3611 0edf 1B       		.byte	0x1b
 3612 0ee0 C70E0000 		.4byte	0xec7
 3613 0ee4 0B       		.uleb128 0xb
 3614 0ee5 2C090000 		.4byte	0x92c
 3615 0ee9 F40E0000 		.4byte	0xef4
 3616 0eed 0C       		.uleb128 0xc
 3617 0eee 64000000 		.4byte	0x64
 3618 0ef2 FF       		.byte	0xff
 3619 0ef3 00       		.byte	0
 3620 0ef4 16       		.uleb128 0x16
 3621 0ef5 E40E0000 		.4byte	0xee4
 3622 0ef9 1F       		.uleb128 0x1f
 3623 0efa 6D030000 		.4byte	.LASF216
 3624 0efe 07       		.byte	0x7
 3625 0eff 0703     		.2byte	0x307
 3626 0f01 1B       		.byte	0x1b
 3627 0f02 F40E0000 		.4byte	0xef4
 3628 0f06 22       		.uleb128 0x22
 3629 0f07 4F060000 		.4byte	.LASF219
 3630 0f0b 01       		.byte	0x1
 3631 0f0c 2A05     		.2byte	0x52a
 3632 0f0e 07       		.byte	0x7
 3633 0f0f 00000000 		.4byte	.LFB13
 3634 0f13 16000000 		.4byte	.LFE13-.LFB13
 3635 0f17 01       		.uleb128 0x1
 3636 0f18 9C       		.byte	0x9c
 3637 0f19 570F0000 		.4byte	0xf57
ARM GAS  C:\Users\EDULU~1.DES\AppData\Local\Temp\ccgrKYGn.s 			page 92


 3638 0f1d 23       		.uleb128 0x23
 3639 0f1e 31050000 		.4byte	.LASF217
 3640 0f22 01       		.byte	0x1
 3641 0f23 2A05     		.2byte	0x52a
 3642 0f25 1F       		.byte	0x1f
 3643 0f26 9C090000 		.4byte	0x99c
 3644 0f2a 06000000 		.4byte	.LLST49
 3645 0f2e 00000000 		.4byte	.LVUS49
 3646 0f32 23       		.uleb128 0x23
 3647 0f33 1B060000 		.4byte	.LASF218
 3648 0f37 01       		.byte	0x1
 3649 0f38 2B05     		.2byte	0x52b
 3650 0f3a 1F       		.byte	0x1f
 3651 0f3b 3D090000 		.4byte	0x93d
 3652 0f3f 35000000 		.4byte	.LLST50
 3653 0f43 31000000 		.4byte	.LVUS50
 3654 0f47 24       		.uleb128 0x24
 3655 0f48 6F707400 		.ascii	"opt\000"
 3656 0f4c 01       		.byte	0x1
 3657 0f4d 2C05     		.2byte	0x52c
 3658 0f4f 1F       		.byte	0x1f
 3659 0f50 31090000 		.4byte	0x931
 3660 0f54 01       		.uleb128 0x1
 3661 0f55 52       		.byte	0x52
 3662 0f56 00       		.byte	0
 3663 0f57 22       		.uleb128 0x22
 3664 0f58 7B070000 		.4byte	.LASF220
 3665 0f5c 01       		.byte	0x1
 3666 0f5d 0505     		.2byte	0x505
 3667 0f5f 07       		.byte	0x7
 3668 0f60 00000000 		.4byte	.LFB12
 3669 0f64 18000000 		.4byte	.LFE12-.LFB12
 3670 0f68 01       		.uleb128 0x1
 3671 0f69 9C       		.byte	0x9c
 3672 0f6a 890F0000 		.4byte	0xf89
 3673 0f6e 25       		.uleb128 0x25
 3674 0f6f 0A000000 		.4byte	.LVL164
 3675 0f73 0E180000 		.4byte	0x180e
 3676 0f77 26       		.uleb128 0x26
 3677 0f78 12000000 		.4byte	.LVL165
 3678 0f7c 1B180000 		.4byte	0x181b
 3679 0f80 27       		.uleb128 0x27
 3680 0f81 01       		.uleb128 0x1
 3681 0f82 50       		.byte	0x50
 3682 0f83 03       		.uleb128 0x3
 3683 0f84 0A       		.byte	0xa
 3684 0f85 E803     		.2byte	0x3e8
 3685 0f87 00       		.byte	0
 3686 0f88 00       		.byte	0
 3687 0f89 22       		.uleb128 0x22
 3688 0f8a B7020000 		.4byte	.LASF221
 3689 0f8e 01       		.byte	0x1
 3690 0f8f CB04     		.2byte	0x4cb
 3691 0f91 07       		.byte	0x7
 3692 0f92 00000000 		.4byte	.LFB11
 3693 0f96 50000000 		.4byte	.LFE11-.LFB11
 3694 0f9a 01       		.uleb128 0x1
ARM GAS  C:\Users\EDULU~1.DES\AppData\Local\Temp\ccgrKYGn.s 			page 93


 3695 0f9b 9C       		.byte	0x9c
 3696 0f9c 30100000 		.4byte	0x1030
 3697 0fa0 23       		.uleb128 0x23
 3698 0fa1 A9040000 		.4byte	.LASF222
 3699 0fa5 01       		.byte	0x1
 3700 0fa6 CB04     		.2byte	0x4cb
 3701 0fa8 1E       		.byte	0x1e
 3702 0fa9 20090000 		.4byte	0x920
 3703 0fad 5B000000 		.4byte	.LLST43
 3704 0fb1 53000000 		.4byte	.LVUS43
 3705 0fb5 28       		.uleb128 0x28
 3706 0fb6 696400   		.ascii	"id\000"
 3707 0fb9 01       		.byte	0x1
 3708 0fba CC04     		.2byte	0x4cc
 3709 0fbc 1E       		.byte	0x1e
 3710 0fbd 20090000 		.4byte	0x920
 3711 0fc1 9D000000 		.4byte	.LLST44
 3712 0fc5 95000000 		.4byte	.LVUS44
 3713 0fc9 23       		.uleb128 0x23
 3714 0fca C3030000 		.4byte	.LASF223
 3715 0fce 01       		.byte	0x1
 3716 0fcf CD04     		.2byte	0x4cd
 3717 0fd1 1E       		.byte	0x1e
 3718 0fd2 3D090000 		.4byte	0x93d
 3719 0fd6 E1000000 		.4byte	.LLST45
 3720 0fda D7000000 		.4byte	.LVUS45
 3721 0fde 23       		.uleb128 0x23
 3722 0fdf 23090000 		.4byte	.LASF224
 3723 0fe3 01       		.byte	0x1
 3724 0fe4 CE04     		.2byte	0x4ce
 3725 0fe6 1E       		.byte	0x1e
 3726 0fe7 590C0000 		.4byte	0xc59
 3727 0feb 31010000 		.4byte	.LLST46
 3728 0fef 23010000 		.4byte	.LVUS46
 3729 0ff3 29       		.uleb128 0x29
 3730 0ff4 10030000 		.4byte	.LASF225
 3731 0ff8 01       		.byte	0x1
 3732 0ff9 D104     		.2byte	0x4d1
 3733 0ffb 10       		.byte	0x10
 3734 0ffc 68090000 		.4byte	0x968
 3735 1000 91010000 		.4byte	.LLST47
 3736 1004 89010000 		.4byte	.LVUS47
 3737 1008 29       		.uleb128 0x29
 3738 1009 45080000 		.4byte	.LASF226
 3739 100d 01       		.byte	0x1
 3740 100e D304     		.2byte	0x4d3
 3741 1010 10       		.byte	0x10
 3742 1011 C10D0000 		.4byte	0xdc1
 3743 1015 CB010000 		.4byte	.LLST48
 3744 1019 C7010000 		.4byte	.LVUS48
 3745 101d 25       		.uleb128 0x25
 3746 101e 26000000 		.4byte	.LVL159
 3747 1022 28180000 		.4byte	0x1828
 3748 1026 25       		.uleb128 0x25
 3749 1027 3C000000 		.4byte	.LVL161
 3750 102b 34180000 		.4byte	0x1834
 3751 102f 00       		.byte	0
ARM GAS  C:\Users\EDULU~1.DES\AppData\Local\Temp\ccgrKYGn.s 			page 94


 3752 1030 2A       		.uleb128 0x2a
 3753 1031 80000000 		.4byte	.LASF227
 3754 1035 01       		.byte	0x1
 3755 1036 8F04     		.2byte	0x48f
 3756 1038 08       		.byte	0x8
 3757 1039 20090000 		.4byte	0x920
 3758 103d 00000000 		.4byte	.LFB10
 3759 1041 34000000 		.4byte	.LFE10-.LFB10
 3760 1045 01       		.uleb128 0x1
 3761 1046 9C       		.byte	0x9c
 3762 1047 A5100000 		.4byte	0x10a5
 3763 104b 23       		.uleb128 0x23
 3764 104c 23090000 		.4byte	.LASF224
 3765 1050 01       		.byte	0x1
 3766 1051 8F04     		.2byte	0x48f
 3767 1053 20       		.byte	0x20
 3768 1054 590C0000 		.4byte	0xc59
 3769 1058 F1010000 		.4byte	.LLST40
 3770 105c E9010000 		.4byte	.LVUS40
 3771 1060 29       		.uleb128 0x29
 3772 1061 10030000 		.4byte	.LASF225
 3773 1065 01       		.byte	0x1
 3774 1066 9204     		.2byte	0x492
 3775 1068 10       		.byte	0x10
 3776 1069 68090000 		.4byte	0x968
 3777 106d 2E020000 		.4byte	.LLST41
 3778 1071 28020000 		.4byte	.LVUS41
 3779 1075 2B       		.uleb128 0x2b
 3780 1076 696400   		.ascii	"id\000"
 3781 1079 01       		.byte	0x1
 3782 107a 9404     		.2byte	0x494
 3783 107c 10       		.byte	0x10
 3784 107d 20090000 		.4byte	0x920
 3785 1081 5A020000 		.4byte	.LLST42
 3786 1085 58020000 		.4byte	.LVUS42
 3787 1089 25       		.uleb128 0x25
 3788 108a 08000000 		.4byte	.LVL143
 3789 108e 28180000 		.4byte	0x1828
 3790 1092 25       		.uleb128 0x25
 3791 1093 1A000000 		.4byte	.LVL145
 3792 1097 34180000 		.4byte	0x1834
 3793 109b 25       		.uleb128 0x25
 3794 109c 2A000000 		.4byte	.LVL149
 3795 10a0 34180000 		.4byte	0x1834
 3796 10a4 00       		.byte	0
 3797 10a5 2A       		.uleb128 0x2a
 3798 10a6 42050000 		.4byte	.LASF228
 3799 10aa 01       		.byte	0x1
 3800 10ab 5004     		.2byte	0x450
 3801 10ad 09       		.byte	0x9
 3802 10ae 3D090000 		.4byte	0x93d
 3803 10b2 00000000 		.4byte	.LFB9
 3804 10b6 54000000 		.4byte	.LFE9-.LFB9
 3805 10ba 01       		.uleb128 0x1
 3806 10bb 9C       		.byte	0x9c
 3807 10bc 50110000 		.4byte	0x1150
 3808 10c0 23       		.uleb128 0x23
ARM GAS  C:\Users\EDULU~1.DES\AppData\Local\Temp\ccgrKYGn.s 			page 95


 3809 10c1 A9040000 		.4byte	.LASF222
 3810 10c5 01       		.byte	0x1
 3811 10c6 5004     		.2byte	0x450
 3812 10c8 1F       		.byte	0x1f
 3813 10c9 20090000 		.4byte	0x920
 3814 10cd 75020000 		.4byte	.LLST34
 3815 10d1 6D020000 		.4byte	.LVUS34
 3816 10d5 28       		.uleb128 0x28
 3817 10d6 696400   		.ascii	"id\000"
 3818 10d9 01       		.byte	0x1
 3819 10da 5104     		.2byte	0x451
 3820 10dc 1F       		.byte	0x1f
 3821 10dd 20090000 		.4byte	0x920
 3822 10e1 B7020000 		.4byte	.LLST35
 3823 10e5 AF020000 		.4byte	.LVUS35
 3824 10e9 23       		.uleb128 0x23
 3825 10ea 23090000 		.4byte	.LASF224
 3826 10ee 01       		.byte	0x1
 3827 10ef 5204     		.2byte	0x452
 3828 10f1 1F       		.byte	0x1f
 3829 10f2 590C0000 		.4byte	0xc59
 3830 10f6 FB020000 		.4byte	.LLST36
 3831 10fa F1020000 		.4byte	.LVUS36
 3832 10fe 29       		.uleb128 0x29
 3833 10ff 10030000 		.4byte	.LASF225
 3834 1103 01       		.byte	0x1
 3835 1104 5504     		.2byte	0x455
 3836 1106 10       		.byte	0x10
 3837 1107 68090000 		.4byte	0x968
 3838 110b 45030000 		.4byte	.LLST37
 3839 110f 3D030000 		.4byte	.LVUS37
 3840 1113 29       		.uleb128 0x29
 3841 1114 C3030000 		.4byte	.LASF223
 3842 1118 01       		.byte	0x1
 3843 1119 5704     		.2byte	0x457
 3844 111b 10       		.byte	0x10
 3845 111c 3D090000 		.4byte	0x93d
 3846 1120 7D030000 		.4byte	.LLST38
 3847 1124 7B030000 		.4byte	.LVUS38
 3848 1128 29       		.uleb128 0x29
 3849 1129 45080000 		.4byte	.LASF226
 3850 112d 01       		.byte	0x1
 3851 112e 5804     		.2byte	0x458
 3852 1130 10       		.byte	0x10
 3853 1131 C10D0000 		.4byte	0xdc1
 3854 1135 94030000 		.4byte	.LLST39
 3855 1139 90030000 		.4byte	.LVUS39
 3856 113d 25       		.uleb128 0x25
 3857 113e 2A000000 		.4byte	.LVL135
 3858 1142 28180000 		.4byte	0x1828
 3859 1146 25       		.uleb128 0x25
 3860 1147 40000000 		.4byte	.LVL138
 3861 114b 34180000 		.4byte	0x1834
 3862 114f 00       		.byte	0
 3863 1150 2A       		.uleb128 0x2a
 3864 1151 87090000 		.4byte	.LASF229
 3865 1155 01       		.byte	0x1
ARM GAS  C:\Users\EDULU~1.DES\AppData\Local\Temp\ccgrKYGn.s 			page 96


 3866 1156 C403     		.2byte	0x3c4
 3867 1158 08       		.byte	0x8
 3868 1159 20090000 		.4byte	0x920
 3869 115d 00000000 		.4byte	.LFB8
 3870 1161 A8000000 		.4byte	.LFE8-.LFB8
 3871 1165 01       		.uleb128 0x1
 3872 1166 9C       		.byte	0x9c
 3873 1167 00120000 		.4byte	0x1200
 3874 116b 23       		.uleb128 0x23
 3875 116c A9040000 		.4byte	.LASF222
 3876 1170 01       		.byte	0x1
 3877 1171 C403     		.2byte	0x3c4
 3878 1173 1D       		.byte	0x1d
 3879 1174 20090000 		.4byte	0x920
 3880 1178 C6030000 		.4byte	.LLST29
 3881 117c B2030000 		.4byte	.LVUS29
 3882 1180 29       		.uleb128 0x29
 3883 1181 6C000000 		.4byte	.LASF230
 3884 1185 01       		.byte	0x1
 3885 1186 C603     		.2byte	0x3c6
 3886 1188 10       		.byte	0x10
 3887 1189 14090000 		.4byte	0x914
 3888 118d 51040000 		.4byte	.LLST30
 3889 1191 4B040000 		.4byte	.LVUS30
 3890 1195 29       		.uleb128 0x29
 3891 1196 45080000 		.4byte	.LASF226
 3892 119a 01       		.byte	0x1
 3893 119b C703     		.2byte	0x3c7
 3894 119d 10       		.byte	0x10
 3895 119e C10D0000 		.4byte	0xdc1
 3896 11a2 81040000 		.4byte	.LLST31
 3897 11a6 7B040000 		.4byte	.LVUS31
 3898 11aa 2B       		.uleb128 0x2b
 3899 11ab 7900     		.ascii	"y\000"
 3900 11ad 01       		.byte	0x1
 3901 11ae C803     		.2byte	0x3c8
 3902 11b0 10       		.byte	0x10
 3903 11b1 20090000 		.4byte	0x920
 3904 11b5 AC040000 		.4byte	.LLST32
 3905 11b9 AA040000 		.4byte	.LVUS32
 3906 11bd 29       		.uleb128 0x29
 3907 11be 10030000 		.4byte	.LASF225
 3908 11c2 01       		.byte	0x1
 3909 11c3 CA03     		.2byte	0x3ca
 3910 11c5 10       		.byte	0x10
 3911 11c6 68090000 		.4byte	0x968
 3912 11ca C9040000 		.4byte	.LLST33
 3913 11ce BF040000 		.4byte	.LVUS33
 3914 11d2 25       		.uleb128 0x25
 3915 11d3 14000000 		.4byte	.LVL110
 3916 11d7 28180000 		.4byte	0x1828
 3917 11db 25       		.uleb128 0x25
 3918 11dc 60000000 		.4byte	.LVL116
 3919 11e0 34180000 		.4byte	0x1834
 3920 11e4 25       		.uleb128 0x25
 3921 11e5 7C000000 		.4byte	.LVL122
 3922 11e9 34180000 		.4byte	0x1834
ARM GAS  C:\Users\EDULU~1.DES\AppData\Local\Temp\ccgrKYGn.s 			page 97


 3923 11ed 25       		.uleb128 0x25
 3924 11ee 84000000 		.4byte	.LVL124
 3925 11f2 34180000 		.4byte	0x1834
 3926 11f6 25       		.uleb128 0x25
 3927 11f7 8C000000 		.4byte	.LVL125
 3928 11fb 40180000 		.4byte	0x1840
 3929 11ff 00       		.byte	0
 3930 1200 2A       		.uleb128 0x2a
 3931 1201 32080000 		.4byte	.LASF231
 3932 1205 01       		.byte	0x1
 3933 1206 6F03     		.2byte	0x36f
 3934 1208 08       		.byte	0x8
 3935 1209 20090000 		.4byte	0x920
 3936 120d 00000000 		.4byte	.LFB7
 3937 1211 84000000 		.4byte	.LFE7-.LFB7
 3938 1215 01       		.uleb128 0x1
 3939 1216 9C       		.byte	0x9c
 3940 1217 DC120000 		.4byte	0x12dc
 3941 121b 23       		.uleb128 0x23
 3942 121c A9040000 		.4byte	.LASF222
 3943 1220 01       		.byte	0x1
 3944 1221 6F03     		.2byte	0x36f
 3945 1223 24       		.byte	0x24
 3946 1224 20090000 		.4byte	0x920
 3947 1228 1C050000 		.4byte	.LLST22
 3948 122c 0A050000 		.4byte	.LVUS22
 3949 1230 23       		.uleb128 0x23
 3950 1231 C2050000 		.4byte	.LASF232
 3951 1235 01       		.byte	0x1
 3952 1236 7003     		.2byte	0x370
 3953 1238 24       		.byte	0x24
 3954 1239 DC120000 		.4byte	0x12dc
 3955 123d 9B050000 		.4byte	.LLST23
 3956 1241 93050000 		.4byte	.LVUS23
 3957 1245 29       		.uleb128 0x29
 3958 1246 45080000 		.4byte	.LASF226
 3959 124a 01       		.byte	0x1
 3960 124b 7203     		.2byte	0x372
 3961 124d 10       		.byte	0x10
 3962 124e C10D0000 		.4byte	0xdc1
 3963 1252 DA050000 		.4byte	.LLST24
 3964 1256 D2050000 		.4byte	.LVUS24
 3965 125a 29       		.uleb128 0x29
 3966 125b 89040000 		.4byte	.LASF233
 3967 125f 01       		.byte	0x1
 3968 1260 7303     		.2byte	0x373
 3969 1262 10       		.byte	0x10
 3970 1263 9C090000 		.4byte	0x99c
 3971 1267 14060000 		.4byte	.LLST25
 3972 126b 0E060000 		.4byte	.LVUS25
 3973 126f 29       		.uleb128 0x29
 3974 1270 6B090000 		.4byte	.LASF234
 3975 1274 01       		.byte	0x1
 3976 1275 7403     		.2byte	0x374
 3977 1277 10       		.byte	0x10
 3978 1278 3D090000 		.4byte	0x93d
 3979 127c 49060000 		.4byte	.LLST26
ARM GAS  C:\Users\EDULU~1.DES\AppData\Local\Temp\ccgrKYGn.s 			page 98


 3980 1280 41060000 		.4byte	.LVUS26
 3981 1284 29       		.uleb128 0x29
 3982 1285 1B060000 		.4byte	.LASF218
 3983 1289 01       		.byte	0x1
 3984 128a 7503     		.2byte	0x375
 3985 128c 10       		.byte	0x10
 3986 128d 3D090000 		.4byte	0x93d
 3987 1291 83060000 		.4byte	.LLST27
 3988 1295 7F060000 		.4byte	.LVUS27
 3989 1299 29       		.uleb128 0x29
 3990 129a 10030000 		.4byte	.LASF225
 3991 129e 01       		.byte	0x1
 3992 129f 7703     		.2byte	0x377
 3993 12a1 10       		.byte	0x10
 3994 12a2 68090000 		.4byte	0x968
 3995 12a6 AD060000 		.4byte	.LLST28
 3996 12aa A1060000 		.4byte	.LVUS28
 3997 12ae 25       		.uleb128 0x25
 3998 12af 1C000000 		.4byte	.LVL81
 3999 12b3 28180000 		.4byte	0x1828
 4000 12b7 25       		.uleb128 0x25
 4001 12b8 3C000000 		.4byte	.LVL88
 4002 12bc 34180000 		.4byte	0x1834
 4003 12c0 25       		.uleb128 0x25
 4004 12c1 56000000 		.4byte	.LVL95
 4005 12c5 34180000 		.4byte	0x1834
 4006 12c9 25       		.uleb128 0x25
 4007 12ca 5E000000 		.4byte	.LVL97
 4008 12ce 34180000 		.4byte	0x1834
 4009 12d2 25       		.uleb128 0x25
 4010 12d3 66000000 		.4byte	.LVL99
 4011 12d7 34180000 		.4byte	0x1834
 4012 12db 00       		.byte	0
 4013 12dc 06       		.uleb128 0x6
 4014 12dd 04       		.byte	0x4
 4015 12de 4C0A0000 		.4byte	0xa4c
 4016 12e2 2A       		.uleb128 0x2a
 4017 12e3 47010000 		.4byte	.LASF235
 4018 12e7 01       		.byte	0x1
 4019 12e8 2C03     		.2byte	0x32c
 4020 12ea 08       		.byte	0x8
 4021 12eb 20090000 		.4byte	0x920
 4022 12ef 00000000 		.4byte	.LFB6
 4023 12f3 A0000000 		.4byte	.LFE6-.LFB6
 4024 12f7 01       		.uleb128 0x1
 4025 12f8 9C       		.byte	0x9c
 4026 12f9 85130000 		.4byte	0x1385
 4027 12fd 23       		.uleb128 0x23
 4028 12fe A9040000 		.4byte	.LASF222
 4029 1302 01       		.byte	0x1
 4030 1303 2C03     		.2byte	0x32c
 4031 1305 1C       		.byte	0x1c
 4032 1306 20090000 		.4byte	0x920
 4033 130a 01070000 		.4byte	.LLST19
 4034 130e F9060000 		.4byte	.LVUS19
 4035 1312 29       		.uleb128 0x29
 4036 1313 45080000 		.4byte	.LASF226
ARM GAS  C:\Users\EDULU~1.DES\AppData\Local\Temp\ccgrKYGn.s 			page 99


 4037 1317 01       		.byte	0x1
 4038 1318 2E03     		.2byte	0x32e
 4039 131a 10       		.byte	0x10
 4040 131b C10D0000 		.4byte	0xdc1
 4041 131f 47070000 		.4byte	.LLST20
 4042 1323 3B070000 		.4byte	.LVUS20
 4043 1327 29       		.uleb128 0x29
 4044 1328 10030000 		.4byte	.LASF225
 4045 132c 01       		.byte	0x1
 4046 132d 3003     		.2byte	0x330
 4047 132f 10       		.byte	0x10
 4048 1330 68090000 		.4byte	0x968
 4049 1334 A1070000 		.4byte	.LLST21
 4050 1338 91070000 		.4byte	.LVUS21
 4051 133c 25       		.uleb128 0x25
 4052 133d 0C000000 		.4byte	.LVL62
 4053 1341 28180000 		.4byte	0x1828
 4054 1345 25       		.uleb128 0x25
 4055 1346 56000000 		.4byte	.LVL65
 4056 134a 34180000 		.4byte	0x1834
 4057 134e 25       		.uleb128 0x25
 4058 134f 62000000 		.4byte	.LVL66
 4059 1353 40180000 		.4byte	0x1840
 4060 1357 25       		.uleb128 0x25
 4061 1358 68000000 		.4byte	.LVL68
 4062 135c 34180000 		.4byte	0x1834
 4063 1360 25       		.uleb128 0x25
 4064 1361 70000000 		.4byte	.LVL70
 4065 1365 34180000 		.4byte	0x1834
 4066 1369 25       		.uleb128 0x25
 4067 136a 78000000 		.4byte	.LVL72
 4068 136e 34180000 		.4byte	0x1834
 4069 1372 25       		.uleb128 0x25
 4070 1373 80000000 		.4byte	.LVL74
 4071 1377 34180000 		.4byte	0x1834
 4072 137b 25       		.uleb128 0x25
 4073 137c 86000000 		.4byte	.LVL76
 4074 1380 34180000 		.4byte	0x1834
 4075 1384 00       		.byte	0
 4076 1385 2A       		.uleb128 0x2a
 4077 1386 5D060000 		.4byte	.LASF236
 4078 138a 01       		.byte	0x1
 4079 138b 5001     		.2byte	0x150
 4080 138d 08       		.byte	0x8
 4081 138e 20090000 		.4byte	0x920
 4082 1392 00000000 		.4byte	.LFB5
 4083 1396 AC000000 		.4byte	.LFE5-.LFB5
 4084 139a 01       		.uleb128 0x1
 4085 139b 9C       		.byte	0x9c
 4086 139c 5D150000 		.4byte	0x155d
 4087 13a0 23       		.uleb128 0x23
 4088 13a1 A3070000 		.4byte	.LASF237
 4089 13a5 01       		.byte	0x1
 4090 13a6 5001     		.2byte	0x150
 4091 13a8 22       		.byte	0x22
 4092 13a9 68150000 		.4byte	0x1568
 4093 13ad 09080000 		.4byte	.LLST51
ARM GAS  C:\Users\EDULU~1.DES\AppData\Local\Temp\ccgrKYGn.s 			page 100


 4094 13b1 03080000 		.4byte	.LVUS51
 4095 13b5 23       		.uleb128 0x23
 4096 13b6 C2060000 		.4byte	.LASF238
 4097 13ba 01       		.byte	0x1
 4098 13bb 5101     		.2byte	0x151
 4099 13bd 22       		.byte	0x22
 4100 13be 72000000 		.4byte	0x72
 4101 13c2 39080000 		.4byte	.LLST52
 4102 13c6 33080000 		.4byte	.LVUS52
 4103 13ca 23       		.uleb128 0x23
 4104 13cb 44060000 		.4byte	.LASF239
 4105 13cf 01       		.byte	0x1
 4106 13d0 5201     		.2byte	0x152
 4107 13d2 22       		.byte	0x22
 4108 13d3 9C090000 		.4byte	0x99c
 4109 13d7 6D080000 		.4byte	.LLST53
 4110 13db 63080000 		.4byte	.LVUS53
 4111 13df 23       		.uleb128 0x23
 4112 13e0 A9040000 		.4byte	.LASF222
 4113 13e4 01       		.byte	0x1
 4114 13e5 5301     		.2byte	0x153
 4115 13e7 22       		.byte	0x22
 4116 13e8 20090000 		.4byte	0x920
 4117 13ec B3080000 		.4byte	.LLST54
 4118 13f0 AF080000 		.4byte	.LVUS54
 4119 13f4 28       		.uleb128 0x28
 4120 13f5 696400   		.ascii	"id\000"
 4121 13f8 01       		.byte	0x1
 4122 13f9 5401     		.2byte	0x154
 4123 13fb 22       		.byte	0x22
 4124 13fc 31090000 		.4byte	0x931
 4125 1400 DA080000 		.4byte	.LLST55
 4126 1404 D4080000 		.4byte	.LVUS55
 4127 1408 23       		.uleb128 0x23
 4128 1409 31050000 		.4byte	.LASF217
 4129 140d 01       		.byte	0x1
 4130 140e 5501     		.2byte	0x155
 4131 1410 22       		.byte	0x22
 4132 1411 9C090000 		.4byte	0x99c
 4133 1415 0C090000 		.4byte	.LLST56
 4134 1419 06090000 		.4byte	.LVUS56
 4135 141d 23       		.uleb128 0x23
 4136 141e B9060000 		.4byte	.LASF240
 4137 1422 01       		.byte	0x1
 4138 1423 5601     		.2byte	0x156
 4139 1425 22       		.byte	0x22
 4140 1426 3D090000 		.4byte	0x93d
 4141 142a 3E090000 		.4byte	.LLST57
 4142 142e 38090000 		.4byte	.LVUS57
 4143 1432 23       		.uleb128 0x23
 4144 1433 E8020000 		.4byte	.LASF241
 4145 1437 01       		.byte	0x1
 4146 1438 5701     		.2byte	0x157
 4147 143a 22       		.byte	0x22
 4148 143b 72000000 		.4byte	0x72
 4149 143f 70090000 		.4byte	.LLST58
 4150 1443 6A090000 		.4byte	.LVUS58
ARM GAS  C:\Users\EDULU~1.DES\AppData\Local\Temp\ccgrKYGn.s 			page 101


 4151 1447 28       		.uleb128 0x28
 4152 1448 6F707400 		.ascii	"opt\000"
 4153 144c 01       		.byte	0x1
 4154 144d 5801     		.2byte	0x158
 4155 144f 22       		.byte	0x22
 4156 1450 31090000 		.4byte	0x931
 4157 1454 A6090000 		.4byte	.LLST59
 4158 1458 9C090000 		.4byte	.LVUS59
 4159 145c 2B       		.uleb128 0x2b
 4160 145d 70737000 		.ascii	"psp\000"
 4161 1461 01       		.byte	0x1
 4162 1462 5A01     		.2byte	0x15a
 4163 1464 11       		.byte	0x11
 4164 1465 9C090000 		.4byte	0x99c
 4165 1469 EE090000 		.4byte	.LLST60
 4166 146d EA090000 		.4byte	.LVUS60
 4167 1471 2B       		.uleb128 0x2b
 4168 1472 65727200 		.ascii	"err\000"
 4169 1476 01       		.byte	0x1
 4170 1477 5B01     		.2byte	0x15b
 4171 1479 11       		.byte	0x11
 4172 147a 20090000 		.4byte	0x920
 4173 147e 140A0000 		.4byte	.LLST61
 4174 1482 0C0A0000 		.4byte	.LVUS61
 4175 1486 29       		.uleb128 0x29
 4176 1487 10030000 		.4byte	.LASF225
 4177 148b 01       		.byte	0x1
 4178 148c 5D01     		.2byte	0x15d
 4179 148e 11       		.byte	0x11
 4180 148f 68090000 		.4byte	0x968
 4181 1493 540A0000 		.4byte	.LLST62
 4182 1497 480A0000 		.4byte	.LVUS62
 4183 149b 25       		.uleb128 0x25
 4184 149c 1C000000 		.4byte	.LVL174
 4185 14a0 28180000 		.4byte	0x1828
 4186 14a4 25       		.uleb128 0x25
 4187 14a5 32000000 		.4byte	.LVL175
 4188 14a9 34180000 		.4byte	0x1834
 4189 14ad 25       		.uleb128 0x25
 4190 14ae 3E000000 		.4byte	.LVL178
 4191 14b2 34180000 		.4byte	0x1834
 4192 14b6 25       		.uleb128 0x25
 4193 14b7 4C000000 		.4byte	.LVL180
 4194 14bb 34180000 		.4byte	0x1834
 4195 14bf 2C       		.uleb128 0x2c
 4196 14c0 56000000 		.4byte	.LVL181
 4197 14c4 060F0000 		.4byte	0xf06
 4198 14c8 E1140000 		.4byte	0x14e1
 4199 14cc 27       		.uleb128 0x27
 4200 14cd 01       		.uleb128 0x1
 4201 14ce 50       		.byte	0x50
 4202 14cf 03       		.uleb128 0x3
 4203 14d0 91       		.byte	0x91
 4204 14d1 04       		.sleb128 4
 4205 14d2 06       		.byte	0x6
 4206 14d3 27       		.uleb128 0x27
 4207 14d4 01       		.uleb128 0x1
ARM GAS  C:\Users\EDULU~1.DES\AppData\Local\Temp\ccgrKYGn.s 			page 102


 4208 14d5 51       		.byte	0x51
 4209 14d6 03       		.uleb128 0x3
 4210 14d7 91       		.byte	0x91
 4211 14d8 08       		.sleb128 8
 4212 14d9 06       		.byte	0x6
 4213 14da 27       		.uleb128 0x27
 4214 14db 01       		.uleb128 0x1
 4215 14dc 52       		.byte	0x52
 4216 14dd 02       		.uleb128 0x2
 4217 14de 76       		.byte	0x76
 4218 14df 00       		.sleb128 0
 4219 14e0 00       		.byte	0
 4220 14e1 2C       		.uleb128 0x2c
 4221 14e2 62000000 		.4byte	.LVL182
 4222 14e6 4D180000 		.4byte	0x184d
 4223 14ea 09150000 		.4byte	0x1509
 4224 14ee 27       		.uleb128 0x27
 4225 14ef 01       		.uleb128 0x1
 4226 14f0 50       		.byte	0x50
 4227 14f1 03       		.uleb128 0x3
 4228 14f2 91       		.byte	0x91
 4229 14f3 60       		.sleb128 -32
 4230 14f4 06       		.byte	0x6
 4231 14f5 27       		.uleb128 0x27
 4232 14f6 01       		.uleb128 0x1
 4233 14f7 51       		.byte	0x51
 4234 14f8 03       		.uleb128 0x3
 4235 14f9 91       		.byte	0x91
 4236 14fa 64       		.sleb128 -28
 4237 14fb 06       		.byte	0x6
 4238 14fc 27       		.uleb128 0x27
 4239 14fd 01       		.uleb128 0x1
 4240 14fe 52       		.byte	0x52
 4241 14ff 02       		.uleb128 0x2
 4242 1500 77       		.byte	0x77
 4243 1501 00       		.sleb128 0
 4244 1502 27       		.uleb128 0x27
 4245 1503 01       		.uleb128 0x1
 4246 1504 53       		.byte	0x53
 4247 1505 02       		.uleb128 0x2
 4248 1506 76       		.byte	0x76
 4249 1507 00       		.sleb128 0
 4250 1508 00       		.byte	0
 4251 1509 2C       		.uleb128 0x2c
 4252 150a 78000000 		.4byte	.LVL185
 4253 150e 5A180000 		.4byte	0x185a
 4254 1512 41150000 		.4byte	0x1541
 4255 1516 27       		.uleb128 0x27
 4256 1517 01       		.uleb128 0x1
 4257 1518 50       		.byte	0x50
 4258 1519 02       		.uleb128 0x2
 4259 151a 74       		.byte	0x74
 4260 151b 00       		.sleb128 0
 4261 151c 27       		.uleb128 0x27
 4262 151d 01       		.uleb128 0x1
 4263 151e 52       		.byte	0x52
 4264 151f 03       		.uleb128 0x3
ARM GAS  C:\Users\EDULU~1.DES\AppData\Local\Temp\ccgrKYGn.s 			page 103


 4265 1520 91       		.byte	0x91
 4266 1521 04       		.sleb128 4
 4267 1522 06       		.byte	0x6
 4268 1523 27       		.uleb128 0x27
 4269 1524 01       		.uleb128 0x1
 4270 1525 53       		.byte	0x53
 4271 1526 02       		.uleb128 0x2
 4272 1527 75       		.byte	0x75
 4273 1528 00       		.sleb128 0
 4274 1529 27       		.uleb128 0x27
 4275 152a 02       		.uleb128 0x2
 4276 152b 7D       		.byte	0x7d
 4277 152c 00       		.sleb128 0
 4278 152d 03       		.uleb128 0x3
 4279 152e 91       		.byte	0x91
 4280 152f 08       		.sleb128 8
 4281 1530 06       		.byte	0x6
 4282 1531 27       		.uleb128 0x27
 4283 1532 02       		.uleb128 0x2
 4284 1533 7D       		.byte	0x7d
 4285 1534 04       		.sleb128 4
 4286 1535 03       		.uleb128 0x3
 4287 1536 91       		.byte	0x91
 4288 1537 0C       		.sleb128 12
 4289 1538 06       		.byte	0x6
 4290 1539 27       		.uleb128 0x27
 4291 153a 02       		.uleb128 0x2
 4292 153b 7D       		.byte	0x7d
 4293 153c 08       		.sleb128 8
 4294 153d 02       		.uleb128 0x2
 4295 153e 76       		.byte	0x76
 4296 153f 00       		.sleb128 0
 4297 1540 00       		.byte	0
 4298 1541 25       		.uleb128 0x25
 4299 1542 88000000 		.4byte	.LVL187
 4300 1546 40180000 		.4byte	0x1840
 4301 154a 25       		.uleb128 0x25
 4302 154b 8E000000 		.4byte	.LVL189
 4303 154f 28180000 		.4byte	0x1828
 4304 1553 25       		.uleb128 0x25
 4305 1554 9A000000 		.4byte	.LVL190
 4306 1558 34180000 		.4byte	0x1834
 4307 155c 00       		.byte	0
 4308 155d 1E       		.uleb128 0x1e
 4309 155e 68150000 		.4byte	0x1568
 4310 1562 15       		.uleb128 0x15
 4311 1563 72000000 		.4byte	0x72
 4312 1567 00       		.byte	0
 4313 1568 06       		.uleb128 0x6
 4314 1569 04       		.byte	0x4
 4315 156a 5D150000 		.4byte	0x155d
 4316 156e 2D       		.uleb128 0x2d
 4317 156f 07000000 		.4byte	.LASF242
 4318 1573 01       		.byte	0x1
 4319 1574 D3       		.byte	0xd3
 4320 1575 08       		.byte	0x8
 4321 1576 20090000 		.4byte	0x920
ARM GAS  C:\Users\EDULU~1.DES\AppData\Local\Temp\ccgrKYGn.s 			page 104


 4322 157a 00000000 		.4byte	.LFB4
 4323 157e 98000000 		.4byte	.LFE4-.LFB4
 4324 1582 01       		.uleb128 0x1
 4325 1583 9C       		.byte	0x9c
 4326 1584 A9160000 		.4byte	0x16a9
 4327 1588 2E       		.uleb128 0x2e
 4328 1589 A3070000 		.4byte	.LASF237
 4329 158d 01       		.byte	0x1
 4330 158e D3       		.byte	0xd3
 4331 158f 1F       		.byte	0x1f
 4332 1590 68150000 		.4byte	0x1568
 4333 1594 B00A0000 		.4byte	.LLST12
 4334 1598 A00A0000 		.4byte	.LVUS12
 4335 159c 2E       		.uleb128 0x2e
 4336 159d C2060000 		.4byte	.LASF238
 4337 15a1 01       		.byte	0x1
 4338 15a2 D4       		.byte	0xd4
 4339 15a3 1F       		.byte	0x1f
 4340 15a4 72000000 		.4byte	0x72
 4341 15a8 230B0000 		.4byte	.LLST13
 4342 15ac 190B0000 		.4byte	.LVUS13
 4343 15b0 2E       		.uleb128 0x2e
 4344 15b1 44060000 		.4byte	.LASF239
 4345 15b5 01       		.byte	0x1
 4346 15b6 D5       		.byte	0xd5
 4347 15b7 1F       		.byte	0x1f
 4348 15b8 9C090000 		.4byte	0x99c
 4349 15bc 6F0B0000 		.4byte	.LLST14
 4350 15c0 650B0000 		.4byte	.LVUS14
 4351 15c4 2E       		.uleb128 0x2e
 4352 15c5 A9040000 		.4byte	.LASF222
 4353 15c9 01       		.byte	0x1
 4354 15ca D6       		.byte	0xd6
 4355 15cb 1F       		.byte	0x1f
 4356 15cc 20090000 		.4byte	0x920
 4357 15d0 B70B0000 		.4byte	.LLST15
 4358 15d4 B10B0000 		.4byte	.LVUS15
 4359 15d8 2F       		.uleb128 0x2f
 4360 15d9 70737000 		.ascii	"psp\000"
 4361 15dd 01       		.byte	0x1
 4362 15de D8       		.byte	0xd8
 4363 15df 11       		.byte	0x11
 4364 15e0 9C090000 		.4byte	0x99c
 4365 15e4 E70B0000 		.4byte	.LLST16
 4366 15e8 E30B0000 		.4byte	.LVUS16
 4367 15ec 2F       		.uleb128 0x2f
 4368 15ed 65727200 		.ascii	"err\000"
 4369 15f1 01       		.byte	0x1
 4370 15f2 D9       		.byte	0xd9
 4371 15f3 11       		.byte	0x11
 4372 15f4 20090000 		.4byte	0x920
 4373 15f8 0D0C0000 		.4byte	.LLST17
 4374 15fc 050C0000 		.4byte	.LVUS17
 4375 1600 30       		.uleb128 0x30
 4376 1601 10030000 		.4byte	.LASF225
 4377 1605 01       		.byte	0x1
 4378 1606 DB       		.byte	0xdb
ARM GAS  C:\Users\EDULU~1.DES\AppData\Local\Temp\ccgrKYGn.s 			page 105


 4379 1607 11       		.byte	0x11
 4380 1608 68090000 		.4byte	0x968
 4381 160c 4D0C0000 		.4byte	.LLST18
 4382 1610 410C0000 		.4byte	.LVUS18
 4383 1614 25       		.uleb128 0x25
 4384 1615 14000000 		.4byte	.LVL40
 4385 1619 28180000 		.4byte	0x1828
 4386 161d 25       		.uleb128 0x25
 4387 161e 2A000000 		.4byte	.LVL41
 4388 1622 34180000 		.4byte	0x1834
 4389 1626 25       		.uleb128 0x25
 4390 1627 36000000 		.4byte	.LVL46
 4391 162b 34180000 		.4byte	0x1834
 4392 162f 25       		.uleb128 0x25
 4393 1630 44000000 		.4byte	.LVL49
 4394 1634 34180000 		.4byte	0x1834
 4395 1638 2C       		.uleb128 0x2c
 4396 1639 50000000 		.4byte	.LVL50
 4397 163d 4D180000 		.4byte	0x184d
 4398 1641 5D160000 		.4byte	0x165d
 4399 1645 27       		.uleb128 0x27
 4400 1646 01       		.uleb128 0x1
 4401 1647 50       		.byte	0x50
 4402 1648 02       		.uleb128 0x2
 4403 1649 75       		.byte	0x75
 4404 164a 00       		.sleb128 0
 4405 164b 27       		.uleb128 0x27
 4406 164c 01       		.uleb128 0x1
 4407 164d 51       		.byte	0x51
 4408 164e 02       		.uleb128 0x2
 4409 164f 76       		.byte	0x76
 4410 1650 00       		.sleb128 0
 4411 1651 27       		.uleb128 0x27
 4412 1652 01       		.uleb128 0x1
 4413 1653 52       		.byte	0x52
 4414 1654 02       		.uleb128 0x2
 4415 1655 77       		.byte	0x77
 4416 1656 00       		.sleb128 0
 4417 1657 27       		.uleb128 0x27
 4418 1658 01       		.uleb128 0x1
 4419 1659 53       		.byte	0x53
 4420 165a 01       		.uleb128 0x1
 4421 165b 30       		.byte	0x30
 4422 165c 00       		.byte	0
 4423 165d 2C       		.uleb128 0x2c
 4424 165e 62000000 		.4byte	.LVL53
 4425 1662 5A180000 		.4byte	0x185a
 4426 1666 8D160000 		.4byte	0x168d
 4427 166a 27       		.uleb128 0x27
 4428 166b 01       		.uleb128 0x1
 4429 166c 50       		.byte	0x50
 4430 166d 02       		.uleb128 0x2
 4431 166e 74       		.byte	0x74
 4432 166f 00       		.sleb128 0
 4433 1670 27       		.uleb128 0x27
 4434 1671 01       		.uleb128 0x1
 4435 1672 52       		.byte	0x52
ARM GAS  C:\Users\EDULU~1.DES\AppData\Local\Temp\ccgrKYGn.s 			page 106


 4436 1673 01       		.uleb128 0x1
 4437 1674 30       		.byte	0x30
 4438 1675 27       		.uleb128 0x27
 4439 1676 01       		.uleb128 0x1
 4440 1677 53       		.byte	0x53
 4441 1678 01       		.uleb128 0x1
 4442 1679 30       		.byte	0x30
 4443 167a 27       		.uleb128 0x27
 4444 167b 02       		.uleb128 0x2
 4445 167c 7D       		.byte	0x7d
 4446 167d 00       		.sleb128 0
 4447 167e 01       		.uleb128 0x1
 4448 167f 30       		.byte	0x30
 4449 1680 27       		.uleb128 0x27
 4450 1681 02       		.uleb128 0x2
 4451 1682 7D       		.byte	0x7d
 4452 1683 04       		.sleb128 4
 4453 1684 01       		.uleb128 0x1
 4454 1685 30       		.byte	0x30
 4455 1686 27       		.uleb128 0x27
 4456 1687 02       		.uleb128 0x2
 4457 1688 7D       		.byte	0x7d
 4458 1689 08       		.sleb128 8
 4459 168a 01       		.uleb128 0x1
 4460 168b 30       		.byte	0x30
 4461 168c 00       		.byte	0
 4462 168d 25       		.uleb128 0x25
 4463 168e 72000000 		.4byte	.LVL55
 4464 1692 40180000 		.4byte	0x1840
 4465 1696 25       		.uleb128 0x25
 4466 1697 78000000 		.4byte	.LVL57
 4467 169b 28180000 		.4byte	0x1828
 4468 169f 25       		.uleb128 0x25
 4469 16a0 84000000 		.4byte	.LVL58
 4470 16a4 34180000 		.4byte	0x1834
 4471 16a8 00       		.byte	0
 4472 16a9 2D       		.uleb128 0x2d
 4473 16aa D8090000 		.4byte	.LASF243
 4474 16ae 01       		.byte	0x1
 4475 16af 35       		.byte	0x35
 4476 16b0 08       		.byte	0x8
 4477 16b1 20090000 		.4byte	0x920
 4478 16b5 00000000 		.4byte	.LFB3
 4479 16b9 5C010000 		.4byte	.LFE3-.LFB3
 4480 16bd 01       		.uleb128 0x1
 4481 16be 9C       		.byte	0x9c
 4482 16bf 0E180000 		.4byte	0x180e
 4483 16c3 2E       		.uleb128 0x2e
 4484 16c4 6D070000 		.4byte	.LASF244
 4485 16c8 01       		.byte	0x1
 4486 16c9 35       		.byte	0x35
 4487 16ca 21       		.byte	0x21
 4488 16cb 20090000 		.4byte	0x920
 4489 16cf A90C0000 		.4byte	.LLST0
 4490 16d3 990C0000 		.4byte	.LVUS0
 4491 16d7 2E       		.uleb128 0x2e
 4492 16d8 8A030000 		.4byte	.LASF245
ARM GAS  C:\Users\EDULU~1.DES\AppData\Local\Temp\ccgrKYGn.s 			page 107


 4493 16dc 01       		.byte	0x1
 4494 16dd 36       		.byte	0x36
 4495 16de 21       		.byte	0x21
 4496 16df 20090000 		.4byte	0x920
 4497 16e3 1A0D0000 		.4byte	.LLST1
 4498 16e7 120D0000 		.4byte	.LVUS1
 4499 16eb 30       		.uleb128 0x30
 4500 16ec 34060000 		.4byte	.LASF246
 4501 16f0 01       		.byte	0x1
 4502 16f1 39       		.byte	0x39
 4503 16f2 10       		.byte	0x10
 4504 16f3 6A0B0000 		.4byte	0xb6a
 4505 16f7 560D0000 		.4byte	.LLST2
 4506 16fb 540D0000 		.4byte	.LVUS2
 4507 16ff 30       		.uleb128 0x30
 4508 1700 45080000 		.4byte	.LASF226
 4509 1704 01       		.byte	0x1
 4510 1705 3E       		.byte	0x3e
 4511 1706 10       		.byte	0x10
 4512 1707 C10D0000 		.4byte	0xdc1
 4513 170b 6F0D0000 		.4byte	.LLST3
 4514 170f 690D0000 		.4byte	.LVUS3
 4515 1713 30       		.uleb128 0x30
 4516 1714 71090000 		.4byte	.LASF247
 4517 1718 01       		.byte	0x1
 4518 1719 3F       		.byte	0x3f
 4519 171a 10       		.byte	0x10
 4520 171b 20090000 		.4byte	0x920
 4521 171f A40D0000 		.4byte	.LLST4
 4522 1723 980D0000 		.4byte	.LVUS4
 4523 1727 30       		.uleb128 0x30
 4524 1728 9B020000 		.4byte	.LASF248
 4525 172c 01       		.byte	0x1
 4526 172d 40       		.byte	0x40
 4527 172e 10       		.byte	0x10
 4528 172f 20090000 		.4byte	0x920
 4529 1733 100E0000 		.4byte	.LLST5
 4530 1737 080E0000 		.4byte	.LVUS5
 4531 173b 30       		.uleb128 0x30
 4532 173c 32070000 		.4byte	.LASF249
 4533 1740 01       		.byte	0x1
 4534 1741 41       		.byte	0x41
 4535 1742 10       		.byte	0x10
 4536 1743 20090000 		.4byte	0x920
 4537 1747 4E0E0000 		.4byte	.LLST6
 4538 174b 4C0E0000 		.4byte	.LVUS6
 4539 174f 30       		.uleb128 0x30
 4540 1750 33090000 		.4byte	.LASF250
 4541 1754 01       		.byte	0x1
 4542 1755 42       		.byte	0x42
 4543 1756 10       		.byte	0x10
 4544 1757 A2090000 		.4byte	0x9a2
 4545 175b 650E0000 		.4byte	.LLST7
 4546 175f 610E0000 		.4byte	.LVUS7
 4547 1763 30       		.uleb128 0x30
 4548 1764 73020000 		.4byte	.LASF251
 4549 1768 01       		.byte	0x1
ARM GAS  C:\Users\EDULU~1.DES\AppData\Local\Temp\ccgrKYGn.s 			page 108


 4550 1769 43       		.byte	0x43
 4551 176a 10       		.byte	0x10
 4552 176b A2090000 		.4byte	0x9a2
 4553 176f 890E0000 		.4byte	.LLST8
 4554 1773 830E0000 		.4byte	.LVUS8
 4555 1777 30       		.uleb128 0x30
 4556 1778 0B070000 		.4byte	.LASF252
 4557 177c 01       		.byte	0x1
 4558 177d 44       		.byte	0x44
 4559 177e 10       		.byte	0x10
 4560 177f A2090000 		.4byte	0x9a2
 4561 1783 C20E0000 		.4byte	.LLST9
 4562 1787 BE0E0000 		.4byte	.LVUS9
 4563 178b 30       		.uleb128 0x30
 4564 178c 27000000 		.4byte	.LASF253
 4565 1790 01       		.byte	0x1
 4566 1791 45       		.byte	0x45
 4567 1792 10       		.byte	0x10
 4568 1793 A2090000 		.4byte	0x9a2
 4569 1797 E40E0000 		.4byte	.LLST10
 4570 179b E00E0000 		.4byte	.LVUS10
 4571 179f 30       		.uleb128 0x30
 4572 17a0 10030000 		.4byte	.LASF225
 4573 17a4 01       		.byte	0x1
 4574 17a5 47       		.byte	0x47
 4575 17a6 10       		.byte	0x10
 4576 17a7 68090000 		.4byte	0x968
 4577 17ab 160F0000 		.4byte	.LLST11
 4578 17af 020F0000 		.4byte	.LVUS11
 4579 17b3 25       		.uleb128 0x25
 4580 17b4 26000000 		.4byte	.LVL2
 4581 17b8 28180000 		.4byte	0x1828
 4582 17bc 2C       		.uleb128 0x2c
 4583 17bd FA000000 		.4byte	.LVL21
 4584 17c1 34180000 		.4byte	0x1834
 4585 17c5 D1170000 		.4byte	0x17d1
 4586 17c9 27       		.uleb128 0x27
 4587 17ca 01       		.uleb128 0x1
 4588 17cb 50       		.byte	0x50
 4589 17cc 03       		.uleb128 0x3
 4590 17cd 91       		.byte	0x91
 4591 17ce 54       		.sleb128 -44
 4592 17cf 06       		.byte	0x6
 4593 17d0 00       		.byte	0
 4594 17d1 25       		.uleb128 0x25
 4595 17d2 0A010000 		.4byte	.LVL23
 4596 17d6 34180000 		.4byte	0x1834
 4597 17da 2C       		.uleb128 0x2c
 4598 17db 1E010000 		.4byte	.LVL28
 4599 17df 34180000 		.4byte	0x1834
 4600 17e3 EF170000 		.4byte	0x17ef
 4601 17e7 27       		.uleb128 0x27
 4602 17e8 01       		.uleb128 0x1
 4603 17e9 50       		.byte	0x50
 4604 17ea 03       		.uleb128 0x3
 4605 17eb 91       		.byte	0x91
 4606 17ec 54       		.sleb128 -44
ARM GAS  C:\Users\EDULU~1.DES\AppData\Local\Temp\ccgrKYGn.s 			page 109


 4607 17ed 06       		.byte	0x6
 4608 17ee 00       		.byte	0
 4609 17ef 2C       		.uleb128 0x2c
 4610 17f0 28010000 		.4byte	.LVL31
 4611 17f4 34180000 		.4byte	0x1834
 4612 17f8 04180000 		.4byte	0x1804
 4613 17fc 27       		.uleb128 0x27
 4614 17fd 01       		.uleb128 0x1
 4615 17fe 50       		.byte	0x50
 4616 17ff 03       		.uleb128 0x3
 4617 1800 91       		.byte	0x91
 4618 1801 54       		.sleb128 -44
 4619 1802 06       		.byte	0x6
 4620 1803 00       		.byte	0
 4621 1804 25       		.uleb128 0x25
 4622 1805 30010000 		.4byte	.LVL33
 4623 1809 40180000 		.4byte	0x1840
 4624 180d 00       		.byte	0
 4625 180e 31       		.uleb128 0x31
 4626 180f 52030000 		.4byte	.LASF254
 4627 1813 52030000 		.4byte	.LASF254
 4628 1817 07       		.byte	0x7
 4629 1818 7705     		.2byte	0x577
 4630 181a 0F       		.byte	0xf
 4631 181b 31       		.uleb128 0x31
 4632 181c D7060000 		.4byte	.LASF255
 4633 1820 D7060000 		.4byte	.LASF255
 4634 1824 07       		.byte	0x7
 4635 1825 B404     		.2byte	0x4b4
 4636 1827 0F       		.byte	0xf
 4637 1828 32       		.uleb128 0x32
 4638 1829 E1060000 		.4byte	.LASF256
 4639 182d E1060000 		.4byte	.LASF256
 4640 1831 06       		.byte	0x6
 4641 1832 BC       		.byte	0xbc
 4642 1833 0C       		.byte	0xc
 4643 1834 32       		.uleb128 0x32
 4644 1835 78030000 		.4byte	.LASF257
 4645 1839 78030000 		.4byte	.LASF257
 4646 183d 06       		.byte	0x6
 4647 183e BD       		.byte	0xbd
 4648 183f 0C       		.byte	0xc
 4649 1840 31       		.uleb128 0x31
 4650 1841 FD030000 		.4byte	.LASF258
 4651 1845 FD030000 		.4byte	.LASF258
 4652 1849 07       		.byte	0x7
 4653 184a 3F05     		.2byte	0x53f
 4654 184c 0F       		.byte	0xf
 4655 184d 31       		.uleb128 0x31
 4656 184e C4090000 		.4byte	.LASF259
 4657 1852 C4090000 		.4byte	.LASF259
 4658 1856 07       		.byte	0x7
 4659 1857 7A05     		.2byte	0x57a
 4660 1859 0F       		.byte	0xf
 4661 185a 31       		.uleb128 0x31
 4662 185b F70A0000 		.4byte	.LASF260
 4663 185f F70A0000 		.4byte	.LASF260
ARM GAS  C:\Users\EDULU~1.DES\AppData\Local\Temp\ccgrKYGn.s 			page 110


 4664 1863 07       		.byte	0x7
 4665 1864 5705     		.2byte	0x557
 4666 1866 0F       		.byte	0xf
 4667 1867 00       		.byte	0
 4668              		.section	.debug_abbrev,"",%progbits
 4669              	.Ldebug_abbrev0:
 4670 0000 01       		.uleb128 0x1
 4671 0001 11       		.uleb128 0x11
 4672 0002 01       		.byte	0x1
 4673 0003 25       		.uleb128 0x25
 4674 0004 0E       		.uleb128 0xe
 4675 0005 13       		.uleb128 0x13
 4676 0006 0B       		.uleb128 0xb
 4677 0007 03       		.uleb128 0x3
 4678 0008 0E       		.uleb128 0xe
 4679 0009 1B       		.uleb128 0x1b
 4680 000a 0E       		.uleb128 0xe
 4681 000b 55       		.uleb128 0x55
 4682 000c 17       		.uleb128 0x17
 4683 000d 11       		.uleb128 0x11
 4684 000e 01       		.uleb128 0x1
 4685 000f 10       		.uleb128 0x10
 4686 0010 17       		.uleb128 0x17
 4687 0011 00       		.byte	0
 4688 0012 00       		.byte	0
 4689 0013 02       		.uleb128 0x2
 4690 0014 24       		.uleb128 0x24
 4691 0015 00       		.byte	0
 4692 0016 0B       		.uleb128 0xb
 4693 0017 0B       		.uleb128 0xb
 4694 0018 3E       		.uleb128 0x3e
 4695 0019 0B       		.uleb128 0xb
 4696 001a 03       		.uleb128 0x3
 4697 001b 0E       		.uleb128 0xe
 4698 001c 00       		.byte	0
 4699 001d 00       		.byte	0
 4700 001e 03       		.uleb128 0x3
 4701 001f 24       		.uleb128 0x24
 4702 0020 00       		.byte	0
 4703 0021 0B       		.uleb128 0xb
 4704 0022 0B       		.uleb128 0xb
 4705 0023 3E       		.uleb128 0x3e
 4706 0024 0B       		.uleb128 0xb
 4707 0025 03       		.uleb128 0x3
 4708 0026 08       		.uleb128 0x8
 4709 0027 00       		.byte	0
 4710 0028 00       		.byte	0
 4711 0029 04       		.uleb128 0x4
 4712 002a 0F       		.uleb128 0xf
 4713 002b 00       		.byte	0
 4714 002c 0B       		.uleb128 0xb
 4715 002d 0B       		.uleb128 0xb
 4716 002e 00       		.byte	0
 4717 002f 00       		.byte	0
 4718 0030 05       		.uleb128 0x5
 4719 0031 16       		.uleb128 0x16
 4720 0032 00       		.byte	0
ARM GAS  C:\Users\EDULU~1.DES\AppData\Local\Temp\ccgrKYGn.s 			page 111


 4721 0033 03       		.uleb128 0x3
 4722 0034 0E       		.uleb128 0xe
 4723 0035 3A       		.uleb128 0x3a
 4724 0036 0B       		.uleb128 0xb
 4725 0037 3B       		.uleb128 0x3b
 4726 0038 0B       		.uleb128 0xb
 4727 0039 39       		.uleb128 0x39
 4728 003a 0B       		.uleb128 0xb
 4729 003b 49       		.uleb128 0x49
 4730 003c 13       		.uleb128 0x13
 4731 003d 00       		.byte	0
 4732 003e 00       		.byte	0
 4733 003f 06       		.uleb128 0x6
 4734 0040 0F       		.uleb128 0xf
 4735 0041 00       		.byte	0
 4736 0042 0B       		.uleb128 0xb
 4737 0043 0B       		.uleb128 0xb
 4738 0044 49       		.uleb128 0x49
 4739 0045 13       		.uleb128 0x13
 4740 0046 00       		.byte	0
 4741 0047 00       		.byte	0
 4742 0048 07       		.uleb128 0x7
 4743 0049 13       		.uleb128 0x13
 4744 004a 00       		.byte	0
 4745 004b 03       		.uleb128 0x3
 4746 004c 0E       		.uleb128 0xe
 4747 004d 3C       		.uleb128 0x3c
 4748 004e 19       		.uleb128 0x19
 4749 004f 00       		.byte	0
 4750 0050 00       		.byte	0
 4751 0051 08       		.uleb128 0x8
 4752 0052 16       		.uleb128 0x16
 4753 0053 00       		.byte	0
 4754 0054 03       		.uleb128 0x3
 4755 0055 0E       		.uleb128 0xe
 4756 0056 3A       		.uleb128 0x3a
 4757 0057 0B       		.uleb128 0xb
 4758 0058 3B       		.uleb128 0x3b
 4759 0059 05       		.uleb128 0x5
 4760 005a 39       		.uleb128 0x39
 4761 005b 0B       		.uleb128 0xb
 4762 005c 49       		.uleb128 0x49
 4763 005d 13       		.uleb128 0x13
 4764 005e 00       		.byte	0
 4765 005f 00       		.byte	0
 4766 0060 09       		.uleb128 0x9
 4767 0061 17       		.uleb128 0x17
 4768 0062 01       		.byte	0x1
 4769 0063 0B       		.uleb128 0xb
 4770 0064 0B       		.uleb128 0xb
 4771 0065 3A       		.uleb128 0x3a
 4772 0066 0B       		.uleb128 0xb
 4773 0067 3B       		.uleb128 0x3b
 4774 0068 0B       		.uleb128 0xb
 4775 0069 39       		.uleb128 0x39
 4776 006a 0B       		.uleb128 0xb
 4777 006b 01       		.uleb128 0x1
ARM GAS  C:\Users\EDULU~1.DES\AppData\Local\Temp\ccgrKYGn.s 			page 112


 4778 006c 13       		.uleb128 0x13
 4779 006d 00       		.byte	0
 4780 006e 00       		.byte	0
 4781 006f 0A       		.uleb128 0xa
 4782 0070 0D       		.uleb128 0xd
 4783 0071 00       		.byte	0
 4784 0072 03       		.uleb128 0x3
 4785 0073 0E       		.uleb128 0xe
 4786 0074 3A       		.uleb128 0x3a
 4787 0075 0B       		.uleb128 0xb
 4788 0076 3B       		.uleb128 0x3b
 4789 0077 0B       		.uleb128 0xb
 4790 0078 39       		.uleb128 0x39
 4791 0079 0B       		.uleb128 0xb
 4792 007a 49       		.uleb128 0x49
 4793 007b 13       		.uleb128 0x13
 4794 007c 00       		.byte	0
 4795 007d 00       		.byte	0
 4796 007e 0B       		.uleb128 0xb
 4797 007f 01       		.uleb128 0x1
 4798 0080 01       		.byte	0x1
 4799 0081 49       		.uleb128 0x49
 4800 0082 13       		.uleb128 0x13
 4801 0083 01       		.uleb128 0x1
 4802 0084 13       		.uleb128 0x13
 4803 0085 00       		.byte	0
 4804 0086 00       		.byte	0
 4805 0087 0C       		.uleb128 0xc
 4806 0088 21       		.uleb128 0x21
 4807 0089 00       		.byte	0
 4808 008a 49       		.uleb128 0x49
 4809 008b 13       		.uleb128 0x13
 4810 008c 2F       		.uleb128 0x2f
 4811 008d 0B       		.uleb128 0xb
 4812 008e 00       		.byte	0
 4813 008f 00       		.byte	0
 4814 0090 0D       		.uleb128 0xd
 4815 0091 13       		.uleb128 0x13
 4816 0092 01       		.byte	0x1
 4817 0093 0B       		.uleb128 0xb
 4818 0094 0B       		.uleb128 0xb
 4819 0095 3A       		.uleb128 0x3a
 4820 0096 0B       		.uleb128 0xb
 4821 0097 3B       		.uleb128 0x3b
 4822 0098 0B       		.uleb128 0xb
 4823 0099 39       		.uleb128 0x39
 4824 009a 0B       		.uleb128 0xb
 4825 009b 01       		.uleb128 0x1
 4826 009c 13       		.uleb128 0x13
 4827 009d 00       		.byte	0
 4828 009e 00       		.byte	0
 4829 009f 0E       		.uleb128 0xe
 4830 00a0 0D       		.uleb128 0xd
 4831 00a1 00       		.byte	0
 4832 00a2 03       		.uleb128 0x3
 4833 00a3 0E       		.uleb128 0xe
 4834 00a4 3A       		.uleb128 0x3a
ARM GAS  C:\Users\EDULU~1.DES\AppData\Local\Temp\ccgrKYGn.s 			page 113


 4835 00a5 0B       		.uleb128 0xb
 4836 00a6 3B       		.uleb128 0x3b
 4837 00a7 0B       		.uleb128 0xb
 4838 00a8 39       		.uleb128 0x39
 4839 00a9 0B       		.uleb128 0xb
 4840 00aa 49       		.uleb128 0x49
 4841 00ab 13       		.uleb128 0x13
 4842 00ac 38       		.uleb128 0x38
 4843 00ad 0B       		.uleb128 0xb
 4844 00ae 00       		.byte	0
 4845 00af 00       		.byte	0
 4846 00b0 0F       		.uleb128 0xf
 4847 00b1 13       		.uleb128 0x13
 4848 00b2 01       		.byte	0x1
 4849 00b3 03       		.uleb128 0x3
 4850 00b4 0E       		.uleb128 0xe
 4851 00b5 0B       		.uleb128 0xb
 4852 00b6 0B       		.uleb128 0xb
 4853 00b7 3A       		.uleb128 0x3a
 4854 00b8 0B       		.uleb128 0xb
 4855 00b9 3B       		.uleb128 0x3b
 4856 00ba 0B       		.uleb128 0xb
 4857 00bb 39       		.uleb128 0x39
 4858 00bc 0B       		.uleb128 0xb
 4859 00bd 01       		.uleb128 0x1
 4860 00be 13       		.uleb128 0x13
 4861 00bf 00       		.byte	0
 4862 00c0 00       		.byte	0
 4863 00c1 10       		.uleb128 0x10
 4864 00c2 0D       		.uleb128 0xd
 4865 00c3 00       		.byte	0
 4866 00c4 03       		.uleb128 0x3
 4867 00c5 08       		.uleb128 0x8
 4868 00c6 3A       		.uleb128 0x3a
 4869 00c7 0B       		.uleb128 0xb
 4870 00c8 3B       		.uleb128 0x3b
 4871 00c9 0B       		.uleb128 0xb
 4872 00ca 39       		.uleb128 0x39
 4873 00cb 0B       		.uleb128 0xb
 4874 00cc 49       		.uleb128 0x49
 4875 00cd 13       		.uleb128 0x13
 4876 00ce 38       		.uleb128 0x38
 4877 00cf 0B       		.uleb128 0xb
 4878 00d0 00       		.byte	0
 4879 00d1 00       		.byte	0
 4880 00d2 11       		.uleb128 0x11
 4881 00d3 13       		.uleb128 0x13
 4882 00d4 01       		.byte	0x1
 4883 00d5 03       		.uleb128 0x3
 4884 00d6 0E       		.uleb128 0xe
 4885 00d7 0B       		.uleb128 0xb
 4886 00d8 05       		.uleb128 0x5
 4887 00d9 3A       		.uleb128 0x3a
 4888 00da 0B       		.uleb128 0xb
 4889 00db 3B       		.uleb128 0x3b
 4890 00dc 0B       		.uleb128 0xb
 4891 00dd 39       		.uleb128 0x39
ARM GAS  C:\Users\EDULU~1.DES\AppData\Local\Temp\ccgrKYGn.s 			page 114


 4892 00de 0B       		.uleb128 0xb
 4893 00df 01       		.uleb128 0x1
 4894 00e0 13       		.uleb128 0x13
 4895 00e1 00       		.byte	0
 4896 00e2 00       		.byte	0
 4897 00e3 12       		.uleb128 0x12
 4898 00e4 0D       		.uleb128 0xd
 4899 00e5 00       		.byte	0
 4900 00e6 03       		.uleb128 0x3
 4901 00e7 0E       		.uleb128 0xe
 4902 00e8 3A       		.uleb128 0x3a
 4903 00e9 0B       		.uleb128 0xb
 4904 00ea 3B       		.uleb128 0x3b
 4905 00eb 0B       		.uleb128 0xb
 4906 00ec 39       		.uleb128 0x39
 4907 00ed 0B       		.uleb128 0xb
 4908 00ee 49       		.uleb128 0x49
 4909 00ef 13       		.uleb128 0x13
 4910 00f0 38       		.uleb128 0x38
 4911 00f1 05       		.uleb128 0x5
 4912 00f2 00       		.byte	0
 4913 00f3 00       		.byte	0
 4914 00f4 13       		.uleb128 0x13
 4915 00f5 15       		.uleb128 0x15
 4916 00f6 00       		.byte	0
 4917 00f7 27       		.uleb128 0x27
 4918 00f8 19       		.uleb128 0x19
 4919 00f9 00       		.byte	0
 4920 00fa 00       		.byte	0
 4921 00fb 14       		.uleb128 0x14
 4922 00fc 15       		.uleb128 0x15
 4923 00fd 01       		.byte	0x1
 4924 00fe 27       		.uleb128 0x27
 4925 00ff 19       		.uleb128 0x19
 4926 0100 49       		.uleb128 0x49
 4927 0101 13       		.uleb128 0x13
 4928 0102 01       		.uleb128 0x1
 4929 0103 13       		.uleb128 0x13
 4930 0104 00       		.byte	0
 4931 0105 00       		.byte	0
 4932 0106 15       		.uleb128 0x15
 4933 0107 05       		.uleb128 0x5
 4934 0108 00       		.byte	0
 4935 0109 49       		.uleb128 0x49
 4936 010a 13       		.uleb128 0x13
 4937 010b 00       		.byte	0
 4938 010c 00       		.byte	0
 4939 010d 16       		.uleb128 0x16
 4940 010e 26       		.uleb128 0x26
 4941 010f 00       		.byte	0
 4942 0110 49       		.uleb128 0x49
 4943 0111 13       		.uleb128 0x13
 4944 0112 00       		.byte	0
 4945 0113 00       		.byte	0
 4946 0114 17       		.uleb128 0x17
 4947 0115 13       		.uleb128 0x13
 4948 0116 01       		.byte	0x1
ARM GAS  C:\Users\EDULU~1.DES\AppData\Local\Temp\ccgrKYGn.s 			page 115


 4949 0117 03       		.uleb128 0x3
 4950 0118 0E       		.uleb128 0xe
 4951 0119 0B       		.uleb128 0xb
 4952 011a 05       		.uleb128 0x5
 4953 011b 3A       		.uleb128 0x3a
 4954 011c 0B       		.uleb128 0xb
 4955 011d 3B       		.uleb128 0x3b
 4956 011e 05       		.uleb128 0x5
 4957 011f 39       		.uleb128 0x39
 4958 0120 0B       		.uleb128 0xb
 4959 0121 01       		.uleb128 0x1
 4960 0122 13       		.uleb128 0x13
 4961 0123 00       		.byte	0
 4962 0124 00       		.byte	0
 4963 0125 18       		.uleb128 0x18
 4964 0126 0D       		.uleb128 0xd
 4965 0127 00       		.byte	0
 4966 0128 03       		.uleb128 0x3
 4967 0129 0E       		.uleb128 0xe
 4968 012a 3A       		.uleb128 0x3a
 4969 012b 0B       		.uleb128 0xb
 4970 012c 3B       		.uleb128 0x3b
 4971 012d 05       		.uleb128 0x5
 4972 012e 39       		.uleb128 0x39
 4973 012f 0B       		.uleb128 0xb
 4974 0130 49       		.uleb128 0x49
 4975 0131 13       		.uleb128 0x13
 4976 0132 38       		.uleb128 0x38
 4977 0133 0B       		.uleb128 0xb
 4978 0134 00       		.byte	0
 4979 0135 00       		.byte	0
 4980 0136 19       		.uleb128 0x19
 4981 0137 0D       		.uleb128 0xd
 4982 0138 00       		.byte	0
 4983 0139 03       		.uleb128 0x3
 4984 013a 0E       		.uleb128 0xe
 4985 013b 3A       		.uleb128 0x3a
 4986 013c 0B       		.uleb128 0xb
 4987 013d 3B       		.uleb128 0x3b
 4988 013e 05       		.uleb128 0x5
 4989 013f 39       		.uleb128 0x39
 4990 0140 0B       		.uleb128 0xb
 4991 0141 49       		.uleb128 0x49
 4992 0142 13       		.uleb128 0x13
 4993 0143 38       		.uleb128 0x38
 4994 0144 05       		.uleb128 0x5
 4995 0145 00       		.byte	0
 4996 0146 00       		.byte	0
 4997 0147 1A       		.uleb128 0x1a
 4998 0148 13       		.uleb128 0x13
 4999 0149 01       		.byte	0x1
 5000 014a 03       		.uleb128 0x3
 5001 014b 0E       		.uleb128 0xe
 5002 014c 0B       		.uleb128 0xb
 5003 014d 0B       		.uleb128 0xb
 5004 014e 3A       		.uleb128 0x3a
 5005 014f 0B       		.uleb128 0xb
ARM GAS  C:\Users\EDULU~1.DES\AppData\Local\Temp\ccgrKYGn.s 			page 116


 5006 0150 3B       		.uleb128 0x3b
 5007 0151 05       		.uleb128 0x5
 5008 0152 39       		.uleb128 0x39
 5009 0153 0B       		.uleb128 0xb
 5010 0154 01       		.uleb128 0x1
 5011 0155 13       		.uleb128 0x13
 5012 0156 00       		.byte	0
 5013 0157 00       		.byte	0
 5014 0158 1B       		.uleb128 0x1b
 5015 0159 13       		.uleb128 0x13
 5016 015a 01       		.byte	0x1
 5017 015b 0B       		.uleb128 0xb
 5018 015c 0B       		.uleb128 0xb
 5019 015d 3A       		.uleb128 0x3a
 5020 015e 0B       		.uleb128 0xb
 5021 015f 3B       		.uleb128 0x3b
 5022 0160 05       		.uleb128 0x5
 5023 0161 39       		.uleb128 0x39
 5024 0162 0B       		.uleb128 0xb
 5025 0163 01       		.uleb128 0x1
 5026 0164 13       		.uleb128 0x13
 5027 0165 00       		.byte	0
 5028 0166 00       		.byte	0
 5029 0167 1C       		.uleb128 0x1c
 5030 0168 17       		.uleb128 0x17
 5031 0169 01       		.byte	0x1
 5032 016a 0B       		.uleb128 0xb
 5033 016b 0B       		.uleb128 0xb
 5034 016c 3A       		.uleb128 0x3a
 5035 016d 0B       		.uleb128 0xb
 5036 016e 3B       		.uleb128 0x3b
 5037 016f 05       		.uleb128 0x5
 5038 0170 39       		.uleb128 0x39
 5039 0171 0B       		.uleb128 0xb
 5040 0172 01       		.uleb128 0x1
 5041 0173 13       		.uleb128 0x13
 5042 0174 00       		.byte	0
 5043 0175 00       		.byte	0
 5044 0176 1D       		.uleb128 0x1d
 5045 0177 0D       		.uleb128 0xd
 5046 0178 00       		.byte	0
 5047 0179 03       		.uleb128 0x3
 5048 017a 0E       		.uleb128 0xe
 5049 017b 3A       		.uleb128 0x3a
 5050 017c 0B       		.uleb128 0xb
 5051 017d 3B       		.uleb128 0x3b
 5052 017e 05       		.uleb128 0x5
 5053 017f 39       		.uleb128 0x39
 5054 0180 0B       		.uleb128 0xb
 5055 0181 49       		.uleb128 0x49
 5056 0182 13       		.uleb128 0x13
 5057 0183 00       		.byte	0
 5058 0184 00       		.byte	0
 5059 0185 1E       		.uleb128 0x1e
 5060 0186 15       		.uleb128 0x15
 5061 0187 01       		.byte	0x1
 5062 0188 27       		.uleb128 0x27
ARM GAS  C:\Users\EDULU~1.DES\AppData\Local\Temp\ccgrKYGn.s 			page 117


 5063 0189 19       		.uleb128 0x19
 5064 018a 01       		.uleb128 0x1
 5065 018b 13       		.uleb128 0x13
 5066 018c 00       		.byte	0
 5067 018d 00       		.byte	0
 5068 018e 1F       		.uleb128 0x1f
 5069 018f 34       		.uleb128 0x34
 5070 0190 00       		.byte	0
 5071 0191 03       		.uleb128 0x3
 5072 0192 0E       		.uleb128 0xe
 5073 0193 3A       		.uleb128 0x3a
 5074 0194 0B       		.uleb128 0xb
 5075 0195 3B       		.uleb128 0x3b
 5076 0196 05       		.uleb128 0x5
 5077 0197 39       		.uleb128 0x39
 5078 0198 0B       		.uleb128 0xb
 5079 0199 49       		.uleb128 0x49
 5080 019a 13       		.uleb128 0x13
 5081 019b 3F       		.uleb128 0x3f
 5082 019c 19       		.uleb128 0x19
 5083 019d 3C       		.uleb128 0x3c
 5084 019e 19       		.uleb128 0x19
 5085 019f 00       		.byte	0
 5086 01a0 00       		.byte	0
 5087 01a1 20       		.uleb128 0x20
 5088 01a2 35       		.uleb128 0x35
 5089 01a3 00       		.byte	0
 5090 01a4 49       		.uleb128 0x49
 5091 01a5 13       		.uleb128 0x13
 5092 01a6 00       		.byte	0
 5093 01a7 00       		.byte	0
 5094 01a8 21       		.uleb128 0x21
 5095 01a9 34       		.uleb128 0x34
 5096 01aa 00       		.byte	0
 5097 01ab 03       		.uleb128 0x3
 5098 01ac 0E       		.uleb128 0xe
 5099 01ad 3A       		.uleb128 0x3a
 5100 01ae 0B       		.uleb128 0xb
 5101 01af 3B       		.uleb128 0x3b
 5102 01b0 0B       		.uleb128 0xb
 5103 01b1 39       		.uleb128 0x39
 5104 01b2 0B       		.uleb128 0xb
 5105 01b3 49       		.uleb128 0x49
 5106 01b4 13       		.uleb128 0x13
 5107 01b5 3F       		.uleb128 0x3f
 5108 01b6 19       		.uleb128 0x19
 5109 01b7 3C       		.uleb128 0x3c
 5110 01b8 19       		.uleb128 0x19
 5111 01b9 00       		.byte	0
 5112 01ba 00       		.byte	0
 5113 01bb 22       		.uleb128 0x22
 5114 01bc 2E       		.uleb128 0x2e
 5115 01bd 01       		.byte	0x1
 5116 01be 3F       		.uleb128 0x3f
 5117 01bf 19       		.uleb128 0x19
 5118 01c0 03       		.uleb128 0x3
 5119 01c1 0E       		.uleb128 0xe
ARM GAS  C:\Users\EDULU~1.DES\AppData\Local\Temp\ccgrKYGn.s 			page 118


 5120 01c2 3A       		.uleb128 0x3a
 5121 01c3 0B       		.uleb128 0xb
 5122 01c4 3B       		.uleb128 0x3b
 5123 01c5 05       		.uleb128 0x5
 5124 01c6 39       		.uleb128 0x39
 5125 01c7 0B       		.uleb128 0xb
 5126 01c8 27       		.uleb128 0x27
 5127 01c9 19       		.uleb128 0x19
 5128 01ca 11       		.uleb128 0x11
 5129 01cb 01       		.uleb128 0x1
 5130 01cc 12       		.uleb128 0x12
 5131 01cd 06       		.uleb128 0x6
 5132 01ce 40       		.uleb128 0x40
 5133 01cf 18       		.uleb128 0x18
 5134 01d0 9742     		.uleb128 0x2117
 5135 01d2 19       		.uleb128 0x19
 5136 01d3 01       		.uleb128 0x1
 5137 01d4 13       		.uleb128 0x13
 5138 01d5 00       		.byte	0
 5139 01d6 00       		.byte	0
 5140 01d7 23       		.uleb128 0x23
 5141 01d8 05       		.uleb128 0x5
 5142 01d9 00       		.byte	0
 5143 01da 03       		.uleb128 0x3
 5144 01db 0E       		.uleb128 0xe
 5145 01dc 3A       		.uleb128 0x3a
 5146 01dd 0B       		.uleb128 0xb
 5147 01de 3B       		.uleb128 0x3b
 5148 01df 05       		.uleb128 0x5
 5149 01e0 39       		.uleb128 0x39
 5150 01e1 0B       		.uleb128 0xb
 5151 01e2 49       		.uleb128 0x49
 5152 01e3 13       		.uleb128 0x13
 5153 01e4 02       		.uleb128 0x2
 5154 01e5 17       		.uleb128 0x17
 5155 01e6 B742     		.uleb128 0x2137
 5156 01e8 17       		.uleb128 0x17
 5157 01e9 00       		.byte	0
 5158 01ea 00       		.byte	0
 5159 01eb 24       		.uleb128 0x24
 5160 01ec 05       		.uleb128 0x5
 5161 01ed 00       		.byte	0
 5162 01ee 03       		.uleb128 0x3
 5163 01ef 08       		.uleb128 0x8
 5164 01f0 3A       		.uleb128 0x3a
 5165 01f1 0B       		.uleb128 0xb
 5166 01f2 3B       		.uleb128 0x3b
 5167 01f3 05       		.uleb128 0x5
 5168 01f4 39       		.uleb128 0x39
 5169 01f5 0B       		.uleb128 0xb
 5170 01f6 49       		.uleb128 0x49
 5171 01f7 13       		.uleb128 0x13
 5172 01f8 02       		.uleb128 0x2
 5173 01f9 18       		.uleb128 0x18
 5174 01fa 00       		.byte	0
 5175 01fb 00       		.byte	0
 5176 01fc 25       		.uleb128 0x25
ARM GAS  C:\Users\EDULU~1.DES\AppData\Local\Temp\ccgrKYGn.s 			page 119


 5177 01fd 898201   		.uleb128 0x4109
 5178 0200 00       		.byte	0
 5179 0201 11       		.uleb128 0x11
 5180 0202 01       		.uleb128 0x1
 5181 0203 31       		.uleb128 0x31
 5182 0204 13       		.uleb128 0x13
 5183 0205 00       		.byte	0
 5184 0206 00       		.byte	0
 5185 0207 26       		.uleb128 0x26
 5186 0208 898201   		.uleb128 0x4109
 5187 020b 01       		.byte	0x1
 5188 020c 11       		.uleb128 0x11
 5189 020d 01       		.uleb128 0x1
 5190 020e 31       		.uleb128 0x31
 5191 020f 13       		.uleb128 0x13
 5192 0210 00       		.byte	0
 5193 0211 00       		.byte	0
 5194 0212 27       		.uleb128 0x27
 5195 0213 8A8201   		.uleb128 0x410a
 5196 0216 00       		.byte	0
 5197 0217 02       		.uleb128 0x2
 5198 0218 18       		.uleb128 0x18
 5199 0219 9142     		.uleb128 0x2111
 5200 021b 18       		.uleb128 0x18
 5201 021c 00       		.byte	0
 5202 021d 00       		.byte	0
 5203 021e 28       		.uleb128 0x28
 5204 021f 05       		.uleb128 0x5
 5205 0220 00       		.byte	0
 5206 0221 03       		.uleb128 0x3
 5207 0222 08       		.uleb128 0x8
 5208 0223 3A       		.uleb128 0x3a
 5209 0224 0B       		.uleb128 0xb
 5210 0225 3B       		.uleb128 0x3b
 5211 0226 05       		.uleb128 0x5
 5212 0227 39       		.uleb128 0x39
 5213 0228 0B       		.uleb128 0xb
 5214 0229 49       		.uleb128 0x49
 5215 022a 13       		.uleb128 0x13
 5216 022b 02       		.uleb128 0x2
 5217 022c 17       		.uleb128 0x17
 5218 022d B742     		.uleb128 0x2137
 5219 022f 17       		.uleb128 0x17
 5220 0230 00       		.byte	0
 5221 0231 00       		.byte	0
 5222 0232 29       		.uleb128 0x29
 5223 0233 34       		.uleb128 0x34
 5224 0234 00       		.byte	0
 5225 0235 03       		.uleb128 0x3
 5226 0236 0E       		.uleb128 0xe
 5227 0237 3A       		.uleb128 0x3a
 5228 0238 0B       		.uleb128 0xb
 5229 0239 3B       		.uleb128 0x3b
 5230 023a 05       		.uleb128 0x5
 5231 023b 39       		.uleb128 0x39
 5232 023c 0B       		.uleb128 0xb
 5233 023d 49       		.uleb128 0x49
ARM GAS  C:\Users\EDULU~1.DES\AppData\Local\Temp\ccgrKYGn.s 			page 120


 5234 023e 13       		.uleb128 0x13
 5235 023f 02       		.uleb128 0x2
 5236 0240 17       		.uleb128 0x17
 5237 0241 B742     		.uleb128 0x2137
 5238 0243 17       		.uleb128 0x17
 5239 0244 00       		.byte	0
 5240 0245 00       		.byte	0
 5241 0246 2A       		.uleb128 0x2a
 5242 0247 2E       		.uleb128 0x2e
 5243 0248 01       		.byte	0x1
 5244 0249 3F       		.uleb128 0x3f
 5245 024a 19       		.uleb128 0x19
 5246 024b 03       		.uleb128 0x3
 5247 024c 0E       		.uleb128 0xe
 5248 024d 3A       		.uleb128 0x3a
 5249 024e 0B       		.uleb128 0xb
 5250 024f 3B       		.uleb128 0x3b
 5251 0250 05       		.uleb128 0x5
 5252 0251 39       		.uleb128 0x39
 5253 0252 0B       		.uleb128 0xb
 5254 0253 27       		.uleb128 0x27
 5255 0254 19       		.uleb128 0x19
 5256 0255 49       		.uleb128 0x49
 5257 0256 13       		.uleb128 0x13
 5258 0257 11       		.uleb128 0x11
 5259 0258 01       		.uleb128 0x1
 5260 0259 12       		.uleb128 0x12
 5261 025a 06       		.uleb128 0x6
 5262 025b 40       		.uleb128 0x40
 5263 025c 18       		.uleb128 0x18
 5264 025d 9742     		.uleb128 0x2117
 5265 025f 19       		.uleb128 0x19
 5266 0260 01       		.uleb128 0x1
 5267 0261 13       		.uleb128 0x13
 5268 0262 00       		.byte	0
 5269 0263 00       		.byte	0
 5270 0264 2B       		.uleb128 0x2b
 5271 0265 34       		.uleb128 0x34
 5272 0266 00       		.byte	0
 5273 0267 03       		.uleb128 0x3
 5274 0268 08       		.uleb128 0x8
 5275 0269 3A       		.uleb128 0x3a
 5276 026a 0B       		.uleb128 0xb
 5277 026b 3B       		.uleb128 0x3b
 5278 026c 05       		.uleb128 0x5
 5279 026d 39       		.uleb128 0x39
 5280 026e 0B       		.uleb128 0xb
 5281 026f 49       		.uleb128 0x49
 5282 0270 13       		.uleb128 0x13
 5283 0271 02       		.uleb128 0x2
 5284 0272 17       		.uleb128 0x17
 5285 0273 B742     		.uleb128 0x2137
 5286 0275 17       		.uleb128 0x17
 5287 0276 00       		.byte	0
 5288 0277 00       		.byte	0
 5289 0278 2C       		.uleb128 0x2c
 5290 0279 898201   		.uleb128 0x4109
ARM GAS  C:\Users\EDULU~1.DES\AppData\Local\Temp\ccgrKYGn.s 			page 121


 5291 027c 01       		.byte	0x1
 5292 027d 11       		.uleb128 0x11
 5293 027e 01       		.uleb128 0x1
 5294 027f 31       		.uleb128 0x31
 5295 0280 13       		.uleb128 0x13
 5296 0281 01       		.uleb128 0x1
 5297 0282 13       		.uleb128 0x13
 5298 0283 00       		.byte	0
 5299 0284 00       		.byte	0
 5300 0285 2D       		.uleb128 0x2d
 5301 0286 2E       		.uleb128 0x2e
 5302 0287 01       		.byte	0x1
 5303 0288 3F       		.uleb128 0x3f
 5304 0289 19       		.uleb128 0x19
 5305 028a 03       		.uleb128 0x3
 5306 028b 0E       		.uleb128 0xe
 5307 028c 3A       		.uleb128 0x3a
 5308 028d 0B       		.uleb128 0xb
 5309 028e 3B       		.uleb128 0x3b
 5310 028f 0B       		.uleb128 0xb
 5311 0290 39       		.uleb128 0x39
 5312 0291 0B       		.uleb128 0xb
 5313 0292 27       		.uleb128 0x27
 5314 0293 19       		.uleb128 0x19
 5315 0294 49       		.uleb128 0x49
 5316 0295 13       		.uleb128 0x13
 5317 0296 11       		.uleb128 0x11
 5318 0297 01       		.uleb128 0x1
 5319 0298 12       		.uleb128 0x12
 5320 0299 06       		.uleb128 0x6
 5321 029a 40       		.uleb128 0x40
 5322 029b 18       		.uleb128 0x18
 5323 029c 9742     		.uleb128 0x2117
 5324 029e 19       		.uleb128 0x19
 5325 029f 01       		.uleb128 0x1
 5326 02a0 13       		.uleb128 0x13
 5327 02a1 00       		.byte	0
 5328 02a2 00       		.byte	0
 5329 02a3 2E       		.uleb128 0x2e
 5330 02a4 05       		.uleb128 0x5
 5331 02a5 00       		.byte	0
 5332 02a6 03       		.uleb128 0x3
 5333 02a7 0E       		.uleb128 0xe
 5334 02a8 3A       		.uleb128 0x3a
 5335 02a9 0B       		.uleb128 0xb
 5336 02aa 3B       		.uleb128 0x3b
 5337 02ab 0B       		.uleb128 0xb
 5338 02ac 39       		.uleb128 0x39
 5339 02ad 0B       		.uleb128 0xb
 5340 02ae 49       		.uleb128 0x49
 5341 02af 13       		.uleb128 0x13
 5342 02b0 02       		.uleb128 0x2
 5343 02b1 17       		.uleb128 0x17
 5344 02b2 B742     		.uleb128 0x2137
 5345 02b4 17       		.uleb128 0x17
 5346 02b5 00       		.byte	0
 5347 02b6 00       		.byte	0
ARM GAS  C:\Users\EDULU~1.DES\AppData\Local\Temp\ccgrKYGn.s 			page 122


 5348 02b7 2F       		.uleb128 0x2f
 5349 02b8 34       		.uleb128 0x34
 5350 02b9 00       		.byte	0
 5351 02ba 03       		.uleb128 0x3
 5352 02bb 08       		.uleb128 0x8
 5353 02bc 3A       		.uleb128 0x3a
 5354 02bd 0B       		.uleb128 0xb
 5355 02be 3B       		.uleb128 0x3b
 5356 02bf 0B       		.uleb128 0xb
 5357 02c0 39       		.uleb128 0x39
 5358 02c1 0B       		.uleb128 0xb
 5359 02c2 49       		.uleb128 0x49
 5360 02c3 13       		.uleb128 0x13
 5361 02c4 02       		.uleb128 0x2
 5362 02c5 17       		.uleb128 0x17
 5363 02c6 B742     		.uleb128 0x2137
 5364 02c8 17       		.uleb128 0x17
 5365 02c9 00       		.byte	0
 5366 02ca 00       		.byte	0
 5367 02cb 30       		.uleb128 0x30
 5368 02cc 34       		.uleb128 0x34
 5369 02cd 00       		.byte	0
 5370 02ce 03       		.uleb128 0x3
 5371 02cf 0E       		.uleb128 0xe
 5372 02d0 3A       		.uleb128 0x3a
 5373 02d1 0B       		.uleb128 0xb
 5374 02d2 3B       		.uleb128 0x3b
 5375 02d3 0B       		.uleb128 0xb
 5376 02d4 39       		.uleb128 0x39
 5377 02d5 0B       		.uleb128 0xb
 5378 02d6 49       		.uleb128 0x49
 5379 02d7 13       		.uleb128 0x13
 5380 02d8 02       		.uleb128 0x2
 5381 02d9 17       		.uleb128 0x17
 5382 02da B742     		.uleb128 0x2137
 5383 02dc 17       		.uleb128 0x17
 5384 02dd 00       		.byte	0
 5385 02de 00       		.byte	0
 5386 02df 31       		.uleb128 0x31
 5387 02e0 2E       		.uleb128 0x2e
 5388 02e1 00       		.byte	0
 5389 02e2 3F       		.uleb128 0x3f
 5390 02e3 19       		.uleb128 0x19
 5391 02e4 3C       		.uleb128 0x3c
 5392 02e5 19       		.uleb128 0x19
 5393 02e6 6E       		.uleb128 0x6e
 5394 02e7 0E       		.uleb128 0xe
 5395 02e8 03       		.uleb128 0x3
 5396 02e9 0E       		.uleb128 0xe
 5397 02ea 3A       		.uleb128 0x3a
 5398 02eb 0B       		.uleb128 0xb
 5399 02ec 3B       		.uleb128 0x3b
 5400 02ed 05       		.uleb128 0x5
 5401 02ee 39       		.uleb128 0x39
 5402 02ef 0B       		.uleb128 0xb
 5403 02f0 00       		.byte	0
 5404 02f1 00       		.byte	0
ARM GAS  C:\Users\EDULU~1.DES\AppData\Local\Temp\ccgrKYGn.s 			page 123


 5405 02f2 32       		.uleb128 0x32
 5406 02f3 2E       		.uleb128 0x2e
 5407 02f4 00       		.byte	0
 5408 02f5 3F       		.uleb128 0x3f
 5409 02f6 19       		.uleb128 0x19
 5410 02f7 3C       		.uleb128 0x3c
 5411 02f8 19       		.uleb128 0x19
 5412 02f9 6E       		.uleb128 0x6e
 5413 02fa 0E       		.uleb128 0xe
 5414 02fb 03       		.uleb128 0x3
 5415 02fc 0E       		.uleb128 0xe
 5416 02fd 3A       		.uleb128 0x3a
 5417 02fe 0B       		.uleb128 0xb
 5418 02ff 3B       		.uleb128 0x3b
 5419 0300 0B       		.uleb128 0xb
 5420 0301 39       		.uleb128 0x39
 5421 0302 0B       		.uleb128 0xb
 5422 0303 00       		.byte	0
 5423 0304 00       		.byte	0
 5424 0305 00       		.byte	0
 5425              		.section	.debug_loc,"",%progbits
 5426              	.Ldebug_loc0:
 5427              	.LVUS49:
 5428 0000 00       		.uleb128 0
 5429 0001 00       		.uleb128 .LVU484
 5430 0002 01       		.uleb128 .LVU489
 5431 0003 00       		.uleb128 .LVU490
 5432 0004 00       		.uleb128 .LVU490
 5433 0005 00       		.uleb128 0
 5434              	.LLST49:
 5435 0006 00000000 		.4byte	.LVL166
 5436 000a 08000000 		.4byte	.LVL167
 5437 000e 0100     		.2byte	0x1
 5438 0010 50       		.byte	0x50
 5439 0011 10000000 		.4byte	.LVL168
 5440 0015 14000000 		.4byte	.LVL169
 5441 0019 0100     		.2byte	0x1
 5442 001b 50       		.byte	0x50
 5443 001c 14000000 		.4byte	.LVL169
 5444 0020 16000000 		.4byte	.LFE13
 5445 0024 0300     		.2byte	0x3
 5446 0026 70       		.byte	0x70
 5447 0027 7C       		.sleb128 -4
 5448 0028 9F       		.byte	0x9f
 5449 0029 00000000 		.4byte	0
 5450 002d 00000000 		.4byte	0
 5451              	.LVUS50:
 5452 0031 00       		.uleb128 0
 5453 0032 00       		.uleb128 .LVU488
 5454 0033 00       		.uleb128 .LVU488
 5455 0034 00       		.uleb128 0
 5456              	.LLST50:
 5457 0035 00000000 		.4byte	.LVL166
 5458 0039 10000000 		.4byte	.LVL168
 5459 003d 0100     		.2byte	0x1
 5460 003f 51       		.byte	0x51
 5461 0040 10000000 		.4byte	.LVL168
ARM GAS  C:\Users\EDULU~1.DES\AppData\Local\Temp\ccgrKYGn.s 			page 124


 5462 0044 16000000 		.4byte	.LFE13
 5463 0048 0100     		.2byte	0x1
 5464 004a 51       		.byte	0x51
 5465 004b 00000000 		.4byte	0
 5466 004f 00000000 		.4byte	0
 5467              	.LVUS43:
 5468 0053 00       		.uleb128 0
 5469 0054 01       		.uleb128 .LVU458
 5470 0055 01       		.uleb128 .LVU458
 5471 0056 00       		.uleb128 .LVU460
 5472 0057 00       		.uleb128 .LVU460
 5473 0058 00       		.uleb128 .LVU462
 5474 0059 00       		.uleb128 .LVU462
 5475 005a 00       		.uleb128 0
 5476              	.LLST43:
 5477 005b 00000000 		.4byte	.LVL150
 5478 005f 20000000 		.4byte	.LVL155
 5479 0063 0100     		.2byte	0x1
 5480 0065 50       		.byte	0x50
 5481 0066 20000000 		.4byte	.LVL155
 5482 006a 22000000 		.4byte	.LVL158
 5483 006e 0400     		.2byte	0x4
 5484 0070 F3       		.byte	0xf3
 5485 0071 01       		.uleb128 0x1
 5486 0072 50       		.byte	0x50
 5487 0073 9F       		.byte	0x9f
 5488 0074 22000000 		.4byte	.LVL158
 5489 0078 25000000 		.4byte	.LVL159-1
 5490 007c 0100     		.2byte	0x1
 5491 007e 50       		.byte	0x50
 5492 007f 25000000 		.4byte	.LVL159-1
 5493 0083 50000000 		.4byte	.LFE11
 5494 0087 0400     		.2byte	0x4
 5495 0089 F3       		.byte	0xf3
 5496 008a 01       		.uleb128 0x1
 5497 008b 50       		.byte	0x50
 5498 008c 9F       		.byte	0x9f
 5499 008d 00000000 		.4byte	0
 5500 0091 00000000 		.4byte	0
 5501              	.LVUS44:
 5502 0095 00       		.uleb128 0
 5503 0096 01       		.uleb128 .LVU458
 5504 0097 01       		.uleb128 .LVU458
 5505 0098 00       		.uleb128 .LVU460
 5506 0099 00       		.uleb128 .LVU460
 5507 009a 00       		.uleb128 .LVU462
 5508 009b 00       		.uleb128 .LVU462
 5509 009c 00       		.uleb128 0
 5510              	.LLST44:
 5511 009d 00000000 		.4byte	.LVL150
 5512 00a1 20000000 		.4byte	.LVL155
 5513 00a5 0100     		.2byte	0x1
 5514 00a7 51       		.byte	0x51
 5515 00a8 20000000 		.4byte	.LVL155
 5516 00ac 22000000 		.4byte	.LVL158
 5517 00b0 0400     		.2byte	0x4
 5518 00b2 F3       		.byte	0xf3
ARM GAS  C:\Users\EDULU~1.DES\AppData\Local\Temp\ccgrKYGn.s 			page 125


 5519 00b3 01       		.uleb128 0x1
 5520 00b4 51       		.byte	0x51
 5521 00b5 9F       		.byte	0x9f
 5522 00b6 22000000 		.4byte	.LVL158
 5523 00ba 25000000 		.4byte	.LVL159-1
 5524 00be 0100     		.2byte	0x1
 5525 00c0 51       		.byte	0x51
 5526 00c1 25000000 		.4byte	.LVL159-1
 5527 00c5 50000000 		.4byte	.LFE11
 5528 00c9 0400     		.2byte	0x4
 5529 00cb F3       		.byte	0xf3
 5530 00cc 01       		.uleb128 0x1
 5531 00cd 51       		.byte	0x51
 5532 00ce 9F       		.byte	0x9f
 5533 00cf 00000000 		.4byte	0
 5534 00d3 00000000 		.4byte	0
 5535              	.LVUS45:
 5536 00d7 00       		.uleb128 0
 5537 00d8 01       		.uleb128 .LVU458
 5538 00d9 01       		.uleb128 .LVU458
 5539 00da 02       		.uleb128 .LVU459
 5540 00db 02       		.uleb128 .LVU459
 5541 00dc 00       		.uleb128 .LVU460
 5542 00dd 00       		.uleb128 .LVU460
 5543 00de 00       		.uleb128 .LVU462
 5544 00df 00       		.uleb128 .LVU462
 5545 00e0 00       		.uleb128 0
 5546              	.LLST45:
 5547 00e1 00000000 		.4byte	.LVL150
 5548 00e5 20000000 		.4byte	.LVL155
 5549 00e9 0100     		.2byte	0x1
 5550 00eb 52       		.byte	0x52
 5551 00ec 20000000 		.4byte	.LVL155
 5552 00f0 20000000 		.4byte	.LVL156
 5553 00f4 0100     		.2byte	0x1
 5554 00f6 56       		.byte	0x56
 5555 00f7 20000000 		.4byte	.LVL156
 5556 00fb 22000000 		.4byte	.LVL158
 5557 00ff 0400     		.2byte	0x4
 5558 0101 F3       		.byte	0xf3
 5559 0102 01       		.uleb128 0x1
 5560 0103 52       		.byte	0x52
 5561 0104 9F       		.byte	0x9f
 5562 0105 22000000 		.4byte	.LVL158
 5563 0109 25000000 		.4byte	.LVL159-1
 5564 010d 0100     		.2byte	0x1
 5565 010f 52       		.byte	0x52
 5566 0110 25000000 		.4byte	.LVL159-1
 5567 0114 50000000 		.4byte	.LFE11
 5568 0118 0100     		.2byte	0x1
 5569 011a 56       		.byte	0x56
 5570 011b 00000000 		.4byte	0
 5571 011f 00000000 		.4byte	0
 5572              	.LVUS46:
 5573 0123 00       		.uleb128 0
 5574 0124 00       		.uleb128 .LVU450
 5575 0125 00       		.uleb128 .LVU450
ARM GAS  C:\Users\EDULU~1.DES\AppData\Local\Temp\ccgrKYGn.s 			page 126


 5576 0126 00       		.uleb128 .LVU452
 5577 0127 00       		.uleb128 .LVU452
 5578 0128 00       		.uleb128 .LVU456
 5579 0129 00       		.uleb128 .LVU456
 5580 012a 02       		.uleb128 .LVU459
 5581 012b 02       		.uleb128 .LVU459
 5582 012c 00       		.uleb128 .LVU460
 5583 012d 00       		.uleb128 .LVU460
 5584 012e 00       		.uleb128 .LVU462
 5585 012f 00       		.uleb128 .LVU462
 5586 0130 00       		.uleb128 0
 5587              	.LLST46:
 5588 0131 00000000 		.4byte	.LVL150
 5589 0135 14000000 		.4byte	.LVL152
 5590 0139 0100     		.2byte	0x1
 5591 013b 53       		.byte	0x53
 5592 013c 14000000 		.4byte	.LVL152
 5593 0140 18000000 		.4byte	.LVL153
 5594 0144 0100     		.2byte	0x1
 5595 0146 57       		.byte	0x57
 5596 0147 18000000 		.4byte	.LVL153
 5597 014b 1E000000 		.4byte	.LVL154
 5598 014f 0100     		.2byte	0x1
 5599 0151 53       		.byte	0x53
 5600 0152 1E000000 		.4byte	.LVL154
 5601 0156 20000000 		.4byte	.LVL157
 5602 015a 0100     		.2byte	0x1
 5603 015c 57       		.byte	0x57
 5604 015d 20000000 		.4byte	.LVL157
 5605 0161 22000000 		.4byte	.LVL158
 5606 0165 0400     		.2byte	0x4
 5607 0167 F3       		.byte	0xf3
 5608 0168 01       		.uleb128 0x1
 5609 0169 53       		.byte	0x53
 5610 016a 9F       		.byte	0x9f
 5611 016b 22000000 		.4byte	.LVL158
 5612 016f 25000000 		.4byte	.LVL159-1
 5613 0173 0100     		.2byte	0x1
 5614 0175 53       		.byte	0x53
 5615 0176 25000000 		.4byte	.LVL159-1
 5616 017a 50000000 		.4byte	.LFE11
 5617 017e 0100     		.2byte	0x1
 5618 0180 57       		.byte	0x57
 5619 0181 00000000 		.4byte	0
 5620 0185 00000000 		.4byte	0
 5621              	.LVUS47:
 5622 0189 01       		.uleb128 .LVU443
 5623 018a 01       		.uleb128 .LVU458
 5624 018b 00       		.uleb128 .LVU460
 5625 018c 00       		.uleb128 .LVU462
 5626 018d 00       		.uleb128 .LVU462
 5627 018e 00       		.uleb128 .LVU470
 5628 018f 00       		.uleb128 .LVU472
 5629 0190 00       		.uleb128 0
 5630              	.LLST47:
 5631 0191 0A000000 		.4byte	.LVL151
 5632 0195 20000000 		.4byte	.LVL155
ARM GAS  C:\Users\EDULU~1.DES\AppData\Local\Temp\ccgrKYGn.s 			page 127


 5633 0199 0200     		.2byte	0x2
 5634 019b 30       		.byte	0x30
 5635 019c 9F       		.byte	0x9f
 5636 019d 22000000 		.4byte	.LVL158
 5637 01a1 26000000 		.4byte	.LVL159
 5638 01a5 0200     		.2byte	0x2
 5639 01a7 30       		.byte	0x30
 5640 01a8 9F       		.byte	0x9f
 5641 01a9 26000000 		.4byte	.LVL159
 5642 01ad 3B000000 		.4byte	.LVL161-1
 5643 01b1 0100     		.2byte	0x1
 5644 01b3 50       		.byte	0x50
 5645 01b4 42000000 		.4byte	.LVL162
 5646 01b8 50000000 		.4byte	.LFE11
 5647 01bc 0100     		.2byte	0x1
 5648 01be 50       		.byte	0x50
 5649 01bf 00000000 		.4byte	0
 5650 01c3 00000000 		.4byte	0
 5651              	.LVUS48:
 5652 01c7 00       		.uleb128 .LVU466
 5653 01c8 00       		.uleb128 .LVU470
 5654 01c9 00       		.uleb128 .LVU474
 5655 01ca 00       		.uleb128 0
 5656              	.LLST48:
 5657 01cb 30000000 		.4byte	.LVL160
 5658 01cf 3B000000 		.4byte	.LVL161-1
 5659 01d3 0100     		.2byte	0x1
 5660 01d5 53       		.byte	0x53
 5661 01d6 46000000 		.4byte	.LVL163
 5662 01da 50000000 		.4byte	.LFE11
 5663 01de 0100     		.2byte	0x1
 5664 01e0 53       		.byte	0x53
 5665 01e1 00000000 		.4byte	0
 5666 01e5 00000000 		.4byte	0
 5667              	.LVUS40:
 5668 01e9 00       		.uleb128 0
 5669 01ea 00       		.uleb128 .LVU421
 5670 01eb 00       		.uleb128 .LVU421
 5671 01ec 00       		.uleb128 .LVU433
 5672 01ed 00       		.uleb128 .LVU433
 5673 01ee 00       		.uleb128 .LVU434
 5674 01ef 00       		.uleb128 .LVU434
 5675 01f0 00       		.uleb128 0
 5676              	.LLST40:
 5677 01f1 00000000 		.4byte	.LVL141
 5678 01f5 07000000 		.4byte	.LVL143-1
 5679 01f9 0100     		.2byte	0x1
 5680 01fb 50       		.byte	0x50
 5681 01fc 07000000 		.4byte	.LVL143-1
 5682 0200 20000000 		.4byte	.LVL147
 5683 0204 0100     		.2byte	0x1
 5684 0206 55       		.byte	0x55
 5685 0207 20000000 		.4byte	.LVL147
 5686 020b 22000000 		.4byte	.LVL148
 5687 020f 0400     		.2byte	0x4
 5688 0211 F3       		.byte	0xf3
 5689 0212 01       		.uleb128 0x1
ARM GAS  C:\Users\EDULU~1.DES\AppData\Local\Temp\ccgrKYGn.s 			page 128


 5690 0213 50       		.byte	0x50
 5691 0214 9F       		.byte	0x9f
 5692 0215 22000000 		.4byte	.LVL148
 5693 0219 34000000 		.4byte	.LFE10
 5694 021d 0100     		.2byte	0x1
 5695 021f 55       		.byte	0x55
 5696 0220 00000000 		.4byte	0
 5697 0224 00000000 		.4byte	0
 5698              	.LVUS41:
 5699 0228 01       		.uleb128 .LVU418
 5700 0229 00       		.uleb128 .LVU421
 5701 022a 00       		.uleb128 .LVU421
 5702 022b 00       		.uleb128 .LVU429
 5703 022c 00       		.uleb128 .LVU434
 5704 022d 00       		.uleb128 .LVU438
 5705              	.LLST41:
 5706 022e 04000000 		.4byte	.LVL142
 5707 0232 08000000 		.4byte	.LVL143
 5708 0236 0200     		.2byte	0x2
 5709 0238 30       		.byte	0x30
 5710 0239 9F       		.byte	0x9f
 5711 023a 08000000 		.4byte	.LVL143
 5712 023e 19000000 		.4byte	.LVL145-1
 5713 0242 0100     		.2byte	0x1
 5714 0244 50       		.byte	0x50
 5715 0245 22000000 		.4byte	.LVL148
 5716 0249 29000000 		.4byte	.LVL149-1
 5717 024d 0100     		.2byte	0x1
 5718 024f 50       		.byte	0x50
 5719 0250 00000000 		.4byte	0
 5720 0254 00000000 		.4byte	0
 5721              	.LVUS42:
 5722 0258 01       		.uleb128 .LVU425
 5723 0259 01       		.uleb128 .LVU432
 5724              	.LLST42:
 5725 025a 10000000 		.4byte	.LVL144
 5726 025e 1E000000 		.4byte	.LVL146
 5727 0262 0100     		.2byte	0x1
 5728 0264 54       		.byte	0x54
 5729 0265 00000000 		.4byte	0
 5730 0269 00000000 		.4byte	0
 5731              	.LVUS34:
 5732 026d 00       		.uleb128 0
 5733 026e 00       		.uleb128 .LVU396
 5734 026f 00       		.uleb128 .LVU396
 5735 0270 00       		.uleb128 .LVU398
 5736 0271 00       		.uleb128 .LVU398
 5737 0272 00       		.uleb128 .LVU400
 5738 0273 00       		.uleb128 .LVU400
 5739 0274 00       		.uleb128 0
 5740              	.LLST34:
 5741 0275 00000000 		.4byte	.LVL130
 5742 0279 22000000 		.4byte	.LVL132
 5743 027d 0100     		.2byte	0x1
 5744 027f 50       		.byte	0x50
 5745 0280 22000000 		.4byte	.LVL132
 5746 0284 26000000 		.4byte	.LVL134
ARM GAS  C:\Users\EDULU~1.DES\AppData\Local\Temp\ccgrKYGn.s 			page 129


 5747 0288 0400     		.2byte	0x4
 5748 028a F3       		.byte	0xf3
 5749 028b 01       		.uleb128 0x1
 5750 028c 50       		.byte	0x50
 5751 028d 9F       		.byte	0x9f
 5752 028e 26000000 		.4byte	.LVL134
 5753 0292 29000000 		.4byte	.LVL135-1
 5754 0296 0100     		.2byte	0x1
 5755 0298 50       		.byte	0x50
 5756 0299 29000000 		.4byte	.LVL135-1
 5757 029d 54000000 		.4byte	.LFE9
 5758 02a1 0400     		.2byte	0x4
 5759 02a3 F3       		.byte	0xf3
 5760 02a4 01       		.uleb128 0x1
 5761 02a5 50       		.byte	0x50
 5762 02a6 9F       		.byte	0x9f
 5763 02a7 00000000 		.4byte	0
 5764 02ab 00000000 		.4byte	0
 5765              	.LVUS35:
 5766 02af 00       		.uleb128 0
 5767 02b0 00       		.uleb128 .LVU396
 5768 02b1 00       		.uleb128 .LVU396
 5769 02b2 00       		.uleb128 .LVU398
 5770 02b3 00       		.uleb128 .LVU398
 5771 02b4 00       		.uleb128 .LVU400
 5772 02b5 00       		.uleb128 .LVU400
 5773 02b6 00       		.uleb128 0
 5774              	.LLST35:
 5775 02b7 00000000 		.4byte	.LVL130
 5776 02bb 22000000 		.4byte	.LVL132
 5777 02bf 0100     		.2byte	0x1
 5778 02c1 51       		.byte	0x51
 5779 02c2 22000000 		.4byte	.LVL132
 5780 02c6 26000000 		.4byte	.LVL134
 5781 02ca 0400     		.2byte	0x4
 5782 02cc F3       		.byte	0xf3
 5783 02cd 01       		.uleb128 0x1
 5784 02ce 51       		.byte	0x51
 5785 02cf 9F       		.byte	0x9f
 5786 02d0 26000000 		.4byte	.LVL134
 5787 02d4 29000000 		.4byte	.LVL135-1
 5788 02d8 0100     		.2byte	0x1
 5789 02da 51       		.byte	0x51
 5790 02db 29000000 		.4byte	.LVL135-1
 5791 02df 54000000 		.4byte	.LFE9
 5792 02e3 0400     		.2byte	0x4
 5793 02e5 F3       		.byte	0xf3
 5794 02e6 01       		.uleb128 0x1
 5795 02e7 51       		.byte	0x51
 5796 02e8 9F       		.byte	0x9f
 5797 02e9 00000000 		.4byte	0
 5798 02ed 00000000 		.4byte	0
 5799              	.LVUS36:
 5800 02f1 00       		.uleb128 0
 5801 02f2 00       		.uleb128 .LVU396
 5802 02f3 00       		.uleb128 .LVU396
 5803 02f4 00       		.uleb128 .LVU397
ARM GAS  C:\Users\EDULU~1.DES\AppData\Local\Temp\ccgrKYGn.s 			page 130


 5804 02f5 00       		.uleb128 .LVU397
 5805 02f6 00       		.uleb128 .LVU398
 5806 02f7 00       		.uleb128 .LVU398
 5807 02f8 00       		.uleb128 .LVU400
 5808 02f9 00       		.uleb128 .LVU400
 5809 02fa 00       		.uleb128 0
 5810              	.LLST36:
 5811 02fb 00000000 		.4byte	.LVL130
 5812 02ff 22000000 		.4byte	.LVL132
 5813 0303 0100     		.2byte	0x1
 5814 0305 52       		.byte	0x52
 5815 0306 22000000 		.4byte	.LVL132
 5816 030a 24000000 		.4byte	.LVL133
 5817 030e 0100     		.2byte	0x1
 5818 0310 56       		.byte	0x56
 5819 0311 24000000 		.4byte	.LVL133
 5820 0315 26000000 		.4byte	.LVL134
 5821 0319 0400     		.2byte	0x4
 5822 031b F3       		.byte	0xf3
 5823 031c 01       		.uleb128 0x1
 5824 031d 52       		.byte	0x52
 5825 031e 9F       		.byte	0x9f
 5826 031f 26000000 		.4byte	.LVL134
 5827 0323 29000000 		.4byte	.LVL135-1
 5828 0327 0100     		.2byte	0x1
 5829 0329 52       		.byte	0x52
 5830 032a 29000000 		.4byte	.LVL135-1
 5831 032e 54000000 		.4byte	.LFE9
 5832 0332 0100     		.2byte	0x1
 5833 0334 56       		.byte	0x56
 5834 0335 00000000 		.4byte	0
 5835 0339 00000000 		.4byte	0
 5836              	.LVUS37:
 5837 033d 01       		.uleb128 .LVU380
 5838 033e 00       		.uleb128 .LVU396
 5839 033f 00       		.uleb128 .LVU398
 5840 0340 00       		.uleb128 .LVU400
 5841 0341 00       		.uleb128 .LVU400
 5842 0342 00       		.uleb128 .LVU408
 5843 0343 00       		.uleb128 .LVU412
 5844 0344 00       		.uleb128 0
 5845              	.LLST37:
 5846 0345 08000000 		.4byte	.LVL131
 5847 0349 22000000 		.4byte	.LVL132
 5848 034d 0200     		.2byte	0x2
 5849 034f 30       		.byte	0x30
 5850 0350 9F       		.byte	0x9f
 5851 0351 26000000 		.4byte	.LVL134
 5852 0355 2A000000 		.4byte	.LVL135
 5853 0359 0200     		.2byte	0x2
 5854 035b 30       		.byte	0x30
 5855 035c 9F       		.byte	0x9f
 5856 035d 2A000000 		.4byte	.LVL135
 5857 0361 3F000000 		.4byte	.LVL138-1
 5858 0365 0100     		.2byte	0x1
 5859 0367 50       		.byte	0x50
 5860 0368 46000000 		.4byte	.LVL139
ARM GAS  C:\Users\EDULU~1.DES\AppData\Local\Temp\ccgrKYGn.s 			page 131


 5861 036c 54000000 		.4byte	.LFE9
 5862 0370 0100     		.2byte	0x1
 5863 0372 50       		.byte	0x50
 5864 0373 00000000 		.4byte	0
 5865 0377 00000000 		.4byte	0
 5866              	.LVUS38:
 5867 037b 00       		.uleb128 .LVU406
 5868 037c 00       		.uleb128 .LVU412
 5869              	.LLST38:
 5870 037d 3C000000 		.4byte	.LVL137
 5871 0381 46000000 		.4byte	.LVL139
 5872 0385 0100     		.2byte	0x1
 5873 0387 54       		.byte	0x54
 5874 0388 00000000 		.4byte	0
 5875 038c 00000000 		.4byte	0
 5876              	.LVUS39:
 5877 0390 00       		.uleb128 .LVU404
 5878 0391 00       		.uleb128 .LVU408
 5879 0392 00       		.uleb128 .LVU414
 5880 0393 00       		.uleb128 0
 5881              	.LLST39:
 5882 0394 34000000 		.4byte	.LVL136
 5883 0398 3F000000 		.4byte	.LVL138-1
 5884 039c 0100     		.2byte	0x1
 5885 039e 53       		.byte	0x53
 5886 039f 4A000000 		.4byte	.LVL140
 5887 03a3 54000000 		.4byte	.LFE9
 5888 03a7 0100     		.2byte	0x1
 5889 03a9 53       		.byte	0x53
 5890 03aa 00000000 		.4byte	0
 5891 03ae 00000000 		.4byte	0
 5892              	.LVUS29:
 5893 03b2 00       		.uleb128 0
 5894 03b3 00       		.uleb128 .LVU325
 5895 03b4 00       		.uleb128 .LVU325
 5896 03b5 00       		.uleb128 .LVU331
 5897 03b6 00       		.uleb128 .LVU331
 5898 03b7 00       		.uleb128 .LVU333
 5899 03b8 00       		.uleb128 .LVU357
 5900 03b9 00       		.uleb128 .LVU360
 5901 03ba 00       		.uleb128 .LVU360
 5902 03bb 00       		.uleb128 .LVU362
 5903 03bc 00       		.uleb128 .LVU362
 5904 03bd 00       		.uleb128 .LVU363
 5905 03be 00       		.uleb128 .LVU373
 5906 03bf 00       		.uleb128 .LVU374
 5907 03c0 00       		.uleb128 .LVU374
 5908 03c1 00       		.uleb128 .LVU375
 5909 03c2 00       		.uleb128 .LVU375
 5910 03c3 00       		.uleb128 .LVU376
 5911 03c4 00       		.uleb128 .LVU376
 5912 03c5 00       		.uleb128 0
 5913              	.LLST29:
 5914 03c6 00000000 		.4byte	.LVL108
 5915 03ca 13000000 		.4byte	.LVL110-1
 5916 03ce 0100     		.2byte	0x1
 5917 03d0 50       		.byte	0x50
ARM GAS  C:\Users\EDULU~1.DES\AppData\Local\Temp\ccgrKYGn.s 			page 132


 5918 03d1 13000000 		.4byte	.LVL110-1
 5919 03d5 26000000 		.4byte	.LVL111
 5920 03d9 0400     		.2byte	0x4
 5921 03db F3       		.byte	0xf3
 5922 03dc 01       		.uleb128 0x1
 5923 03dd 50       		.byte	0x50
 5924 03de 9F       		.byte	0x9f
 5925 03df 26000000 		.4byte	.LVL111
 5926 03e3 28000000 		.4byte	.LVL112
 5927 03e7 0100     		.2byte	0x1
 5928 03e9 54       		.byte	0x54
 5929 03ea 68000000 		.4byte	.LVL118
 5930 03ee 70000000 		.4byte	.LVL119
 5931 03f2 0400     		.2byte	0x4
 5932 03f4 F3       		.byte	0xf3
 5933 03f5 01       		.uleb128 0x1
 5934 03f6 50       		.byte	0x50
 5935 03f7 9F       		.byte	0x9f
 5936 03f8 70000000 		.4byte	.LVL119
 5937 03fc 74000000 		.4byte	.LVL120
 5938 0400 0100     		.2byte	0x1
 5939 0402 54       		.byte	0x54
 5940 0403 74000000 		.4byte	.LVL120
 5941 0407 78000000 		.4byte	.LVL121
 5942 040b 0400     		.2byte	0x4
 5943 040d F3       		.byte	0xf3
 5944 040e 01       		.uleb128 0x1
 5945 040f 50       		.byte	0x50
 5946 0410 9F       		.byte	0x9f
 5947 0411 90000000 		.4byte	.LVL126
 5948 0415 92000000 		.4byte	.LVL127
 5949 0419 0100     		.2byte	0x1
 5950 041b 50       		.byte	0x50
 5951 041c 92000000 		.4byte	.LVL127
 5952 0420 94000000 		.4byte	.LVL128
 5953 0424 0400     		.2byte	0x4
 5954 0426 F3       		.byte	0xf3
 5955 0427 01       		.uleb128 0x1
 5956 0428 50       		.byte	0x50
 5957 0429 9F       		.byte	0x9f
 5958 042a 94000000 		.4byte	.LVL128
 5959 042e 96000000 		.4byte	.LVL129
 5960 0432 0100     		.2byte	0x1
 5961 0434 50       		.byte	0x50
 5962 0435 96000000 		.4byte	.LVL129
 5963 0439 A8000000 		.4byte	.LFE8
 5964 043d 0400     		.2byte	0x4
 5965 043f F3       		.byte	0xf3
 5966 0440 01       		.uleb128 0x1
 5967 0441 50       		.byte	0x50
 5968 0442 9F       		.byte	0x9f
 5969 0443 00000000 		.4byte	0
 5970 0447 00000000 		.4byte	0
 5971              	.LVUS30:
 5972 044b 00       		.uleb128 .LVU331
 5973 044c 00       		.uleb128 .LVU356
 5974 044d 01       		.uleb128 .LVU361
ARM GAS  C:\Users\EDULU~1.DES\AppData\Local\Temp\ccgrKYGn.s 			page 133


 5975 044e 00       		.uleb128 .LVU362
 5976 044f 00       		.uleb128 .LVU363
 5977 0450 00       		.uleb128 .LVU373
 5978              	.LLST30:
 5979 0451 26000000 		.4byte	.LVL111
 5980 0455 66000000 		.4byte	.LVL117
 5981 0459 0100     		.2byte	0x1
 5982 045b 55       		.byte	0x55
 5983 045c 70000000 		.4byte	.LVL119
 5984 0460 74000000 		.4byte	.LVL120
 5985 0464 0200     		.2byte	0x2
 5986 0466 31       		.byte	0x31
 5987 0467 9F       		.byte	0x9f
 5988 0468 78000000 		.4byte	.LVL121
 5989 046c 90000000 		.4byte	.LVL126
 5990 0470 0100     		.2byte	0x1
 5991 0472 55       		.byte	0x55
 5992 0473 00000000 		.4byte	0
 5993 0477 00000000 		.4byte	0
 5994              	.LVUS31:
 5995 047b 00       		.uleb128 .LVU334
 5996 047c 00       		.uleb128 .LVU353
 5997 047d 00       		.uleb128 .LVU363
 5998 047e 00       		.uleb128 .LVU365
 5999 047f 00       		.uleb128 .LVU367
 6000 0480 00       		.uleb128 .LVU369
 6001              	.LLST31:
 6002 0481 2C000000 		.4byte	.LVL113
 6003 0485 5F000000 		.4byte	.LVL116-1
 6004 0489 0100     		.2byte	0x1
 6005 048b 53       		.byte	0x53
 6006 048c 78000000 		.4byte	.LVL121
 6007 0490 7B000000 		.4byte	.LVL122-1
 6008 0494 0100     		.2byte	0x1
 6009 0496 53       		.byte	0x53
 6010 0497 80000000 		.4byte	.LVL123
 6011 049b 83000000 		.4byte	.LVL124-1
 6012 049f 0100     		.2byte	0x1
 6013 04a1 53       		.byte	0x53
 6014 04a2 00000000 		.4byte	0
 6015 04a6 00000000 		.4byte	0
 6016              	.LVUS32:
 6017 04aa 00       		.uleb128 .LVU340
 6018 04ab 00       		.uleb128 .LVU348
 6019              	.LLST32:
 6020 04ac 38000000 		.4byte	.LVL114
 6021 04b0 4C000000 		.4byte	.LVL115
 6022 04b4 0100     		.2byte	0x1
 6023 04b6 51       		.byte	0x51
 6024 04b7 00000000 		.4byte	0
 6025 04bb 00000000 		.4byte	0
 6026              	.LVUS33:
 6027 04bf 04       		.uleb128 .LVU317
 6028 04c0 00       		.uleb128 .LVU325
 6029 04c1 00       		.uleb128 .LVU325
 6030 04c2 00       		.uleb128 .LVU353
 6031 04c3 00       		.uleb128 .LVU357
ARM GAS  C:\Users\EDULU~1.DES\AppData\Local\Temp\ccgrKYGn.s 			page 134


 6032 04c4 00       		.uleb128 .LVU365
 6033 04c5 00       		.uleb128 .LVU367
 6034 04c6 00       		.uleb128 .LVU369
 6035 04c7 00       		.uleb128 .LVU373
 6036 04c8 00       		.uleb128 0
 6037              	.LLST33:
 6038 04c9 04000000 		.4byte	.LVL109
 6039 04cd 14000000 		.4byte	.LVL110
 6040 04d1 0200     		.2byte	0x2
 6041 04d3 30       		.byte	0x30
 6042 04d4 9F       		.byte	0x9f
 6043 04d5 14000000 		.4byte	.LVL110
 6044 04d9 5F000000 		.4byte	.LVL116-1
 6045 04dd 0100     		.2byte	0x1
 6046 04df 50       		.byte	0x50
 6047 04e0 68000000 		.4byte	.LVL118
 6048 04e4 7B000000 		.4byte	.LVL122-1
 6049 04e8 0100     		.2byte	0x1
 6050 04ea 50       		.byte	0x50
 6051 04eb 80000000 		.4byte	.LVL123
 6052 04ef 83000000 		.4byte	.LVL124-1
 6053 04f3 0100     		.2byte	0x1
 6054 04f5 50       		.byte	0x50
 6055 04f6 90000000 		.4byte	.LVL126
 6056 04fa A8000000 		.4byte	.LFE8
 6057 04fe 0200     		.2byte	0x2
 6058 0500 30       		.byte	0x30
 6059 0501 9F       		.byte	0x9f
 6060 0502 00000000 		.4byte	0
 6061 0506 00000000 		.4byte	0
 6062              	.LVUS22:
 6063 050a 00       		.uleb128 0
 6064 050b 00       		.uleb128 .LVU256
 6065 050c 00       		.uleb128 .LVU256
 6066 050d 00       		.uleb128 .LVU258
 6067 050e 00       		.uleb128 .LVU258
 6068 050f 00       		.uleb128 .LVU260
 6069 0510 00       		.uleb128 .LVU282
 6070 0511 00       		.uleb128 .LVU285
 6071 0512 00       		.uleb128 .LVU285
 6072 0513 00       		.uleb128 .LVU286
 6073 0514 00       		.uleb128 .LVU307
 6074 0515 00       		.uleb128 .LVU308
 6075 0516 00       		.uleb128 .LVU308
 6076 0517 00       		.uleb128 .LVU309
 6077 0518 00       		.uleb128 .LVU309
 6078 0519 00       		.uleb128 .LVU310
 6079 051a 00       		.uleb128 .LVU310
 6080 051b 00       		.uleb128 0
 6081              	.LLST22:
 6082 051c 00000000 		.4byte	.LVL79
 6083 0520 1B000000 		.4byte	.LVL81-1
 6084 0524 0100     		.2byte	0x1
 6085 0526 50       		.byte	0x50
 6086 0527 1B000000 		.4byte	.LVL81-1
 6087 052b 20000000 		.4byte	.LVL82
 6088 052f 0400     		.2byte	0x4
ARM GAS  C:\Users\EDULU~1.DES\AppData\Local\Temp\ccgrKYGn.s 			page 135


 6089 0531 F3       		.byte	0xf3
 6090 0532 01       		.uleb128 0x1
 6091 0533 50       		.byte	0x50
 6092 0534 9F       		.byte	0x9f
 6093 0535 20000000 		.4byte	.LVL82
 6094 0539 22000000 		.4byte	.LVL83
 6095 053d 0100     		.2byte	0x1
 6096 053f 54       		.byte	0x54
 6097 0540 48000000 		.4byte	.LVL92
 6098 0544 50000000 		.4byte	.LVL93
 6099 0548 0400     		.2byte	0x4
 6100 054a F3       		.byte	0xf3
 6101 054b 01       		.uleb128 0x1
 6102 054c 50       		.byte	0x50
 6103 054d 9F       		.byte	0x9f
 6104 054e 50000000 		.4byte	.LVL93
 6105 0552 52000000 		.4byte	.LVL94
 6106 0556 0100     		.2byte	0x1
 6107 0558 54       		.byte	0x54
 6108 0559 74000000 		.4byte	.LVL104
 6109 055d 76000000 		.4byte	.LVL105
 6110 0561 0100     		.2byte	0x1
 6111 0563 50       		.byte	0x50
 6112 0564 76000000 		.4byte	.LVL105
 6113 0568 78000000 		.4byte	.LVL106
 6114 056c 0400     		.2byte	0x4
 6115 056e F3       		.byte	0xf3
 6116 056f 01       		.uleb128 0x1
 6117 0570 50       		.byte	0x50
 6118 0571 9F       		.byte	0x9f
 6119 0572 78000000 		.4byte	.LVL106
 6120 0576 7A000000 		.4byte	.LVL107
 6121 057a 0100     		.2byte	0x1
 6122 057c 50       		.byte	0x50
 6123 057d 7A000000 		.4byte	.LVL107
 6124 0581 84000000 		.4byte	.LFE7
 6125 0585 0400     		.2byte	0x4
 6126 0587 F3       		.byte	0xf3
 6127 0588 01       		.uleb128 0x1
 6128 0589 50       		.byte	0x50
 6129 058a 9F       		.byte	0x9f
 6130 058b 00000000 		.4byte	0
 6131 058f 00000000 		.4byte	0
 6132              	.LVUS23:
 6133 0593 00       		.uleb128 0
 6134 0594 00       		.uleb128 .LVU256
 6135 0595 00       		.uleb128 .LVU256
 6136 0596 01       		.uleb128 .LVU306
 6137 0597 01       		.uleb128 .LVU306
 6138 0598 00       		.uleb128 .LVU307
 6139 0599 00       		.uleb128 .LVU307
 6140 059a 00       		.uleb128 0
 6141              	.LLST23:
 6142 059b 00000000 		.4byte	.LVL79
 6143 059f 1B000000 		.4byte	.LVL81-1
 6144 05a3 0100     		.2byte	0x1
 6145 05a5 51       		.byte	0x51
ARM GAS  C:\Users\EDULU~1.DES\AppData\Local\Temp\ccgrKYGn.s 			page 136


 6146 05a6 1B000000 		.4byte	.LVL81-1
 6147 05aa 72000000 		.4byte	.LVL103
 6148 05ae 0100     		.2byte	0x1
 6149 05b0 55       		.byte	0x55
 6150 05b1 72000000 		.4byte	.LVL103
 6151 05b5 74000000 		.4byte	.LVL104
 6152 05b9 0400     		.2byte	0x4
 6153 05bb F3       		.byte	0xf3
 6154 05bc 01       		.uleb128 0x1
 6155 05bd 51       		.byte	0x51
 6156 05be 9F       		.byte	0x9f
 6157 05bf 74000000 		.4byte	.LVL104
 6158 05c3 84000000 		.4byte	.LFE7
 6159 05c7 0100     		.2byte	0x1
 6160 05c9 51       		.byte	0x51
 6161 05ca 00000000 		.4byte	0
 6162 05ce 00000000 		.4byte	0
 6163              	.LVUS24:
 6164 05d2 00       		.uleb128 .LVU261
 6165 05d3 00       		.uleb128 .LVU275
 6166 05d4 00       		.uleb128 .LVU286
 6167 05d5 00       		.uleb128 .LVU288
 6168 05d6 00       		.uleb128 .LVU290
 6169 05d7 00       		.uleb128 .LVU292
 6170 05d8 00       		.uleb128 .LVU294
 6171 05d9 00       		.uleb128 .LVU296
 6172              	.LLST24:
 6173 05da 26000000 		.4byte	.LVL84
 6174 05de 3B000000 		.4byte	.LVL88-1
 6175 05e2 0100     		.2byte	0x1
 6176 05e4 53       		.byte	0x53
 6177 05e5 52000000 		.4byte	.LVL94
 6178 05e9 55000000 		.4byte	.LVL95-1
 6179 05ed 0100     		.2byte	0x1
 6180 05ef 53       		.byte	0x53
 6181 05f0 5A000000 		.4byte	.LVL96
 6182 05f4 5D000000 		.4byte	.LVL97-1
 6183 05f8 0100     		.2byte	0x1
 6184 05fa 53       		.byte	0x53
 6185 05fb 62000000 		.4byte	.LVL98
 6186 05ff 65000000 		.4byte	.LVL99-1
 6187 0603 0100     		.2byte	0x1
 6188 0605 53       		.byte	0x53
 6189 0606 00000000 		.4byte	0
 6190 060a 00000000 		.4byte	0
 6191              	.LVUS25:
 6192 060e 00       		.uleb128 .LVU273
 6193 060f 00       		.uleb128 .LVU278
 6194 0610 00       		.uleb128 .LVU278
 6195 0611 00       		.uleb128 .LVU282
 6196 0612 00       		.uleb128 .LVU298
 6197 0613 00       		.uleb128 .LVU305
 6198              	.LLST25:
 6199 0614 38000000 		.4byte	.LVL87
 6200 0618 40000000 		.4byte	.LVL90
 6201 061c 0100     		.2byte	0x1
 6202 061e 54       		.byte	0x54
ARM GAS  C:\Users\EDULU~1.DES\AppData\Local\Temp\ccgrKYGn.s 			page 137


 6203 061f 40000000 		.4byte	.LVL90
 6204 0623 48000000 		.4byte	.LVL92
 6205 0627 0300     		.2byte	0x3
 6206 0629 74       		.byte	0x74
 6207 062a 7C       		.sleb128 -4
 6208 062b 9F       		.byte	0x9f
 6209 062c 6A000000 		.4byte	.LVL100
 6210 0630 72000000 		.4byte	.LVL102
 6211 0634 0300     		.2byte	0x3
 6212 0636 74       		.byte	0x74
 6213 0637 7C       		.sleb128 -4
 6214 0638 9F       		.byte	0x9f
 6215 0639 00000000 		.4byte	0
 6216 063d 00000000 		.4byte	0
 6217              	.LVUS26:
 6218 0641 01       		.uleb128 .LVU269
 6219 0642 00       		.uleb128 .LVU277
 6220 0643 00       		.uleb128 .LVU277
 6221 0644 00       		.uleb128 .LVU282
 6222 0645 00       		.uleb128 .LVU298
 6223 0646 00       		.uleb128 .LVU302
 6224 0647 00       		.uleb128 .LVU302
 6225 0648 00       		.uleb128 .LVU305
 6226              	.LLST26:
 6227 0649 34000000 		.4byte	.LVL85
 6228 064d 3E000000 		.4byte	.LVL89
 6229 0651 0200     		.2byte	0x2
 6230 0653 30       		.byte	0x30
 6231 0654 9F       		.byte	0x9f
 6232 0655 3E000000 		.4byte	.LVL89
 6233 0659 48000000 		.4byte	.LVL92
 6234 065d 0100     		.2byte	0x1
 6235 065f 52       		.byte	0x52
 6236 0660 6A000000 		.4byte	.LVL100
 6237 0664 6E000000 		.4byte	.LVL101
 6238 0668 0100     		.2byte	0x1
 6239 066a 52       		.byte	0x52
 6240 066b 6E000000 		.4byte	.LVL101
 6241 066f 72000000 		.4byte	.LVL102
 6242 0673 0200     		.2byte	0x2
 6243 0675 75       		.byte	0x75
 6244 0676 00       		.sleb128 0
 6245 0677 00000000 		.4byte	0
 6246 067b 00000000 		.4byte	0
 6247              	.LVUS27:
 6248 067f 00       		.uleb128 .LVU271
 6249 0680 00       		.uleb128 .LVU282
 6250 0681 00       		.uleb128 .LVU298
 6251 0682 00       		.uleb128 .LVU305
 6252              	.LLST27:
 6253 0683 36000000 		.4byte	.LVL86
 6254 0687 48000000 		.4byte	.LVL92
 6255 068b 0100     		.2byte	0x1
 6256 068d 56       		.byte	0x56
 6257 068e 6A000000 		.4byte	.LVL100
 6258 0692 72000000 		.4byte	.LVL102
 6259 0696 0100     		.2byte	0x1
ARM GAS  C:\Users\EDULU~1.DES\AppData\Local\Temp\ccgrKYGn.s 			page 138


 6260 0698 56       		.byte	0x56
 6261 0699 00000000 		.4byte	0
 6262 069d 00000000 		.4byte	0
 6263              	.LVUS28:
 6264 06a1 05       		.uleb128 .LVU244
 6265 06a2 00       		.uleb128 .LVU256
 6266 06a3 00       		.uleb128 .LVU256
 6267 06a4 00       		.uleb128 .LVU275
 6268 06a5 00       		.uleb128 .LVU282
 6269 06a6 00       		.uleb128 .LVU288
 6270 06a7 00       		.uleb128 .LVU290
 6271 06a8 00       		.uleb128 .LVU292
 6272 06a9 00       		.uleb128 .LVU294
 6273 06aa 00       		.uleb128 .LVU296
 6274 06ab 00       		.uleb128 .LVU307
 6275 06ac 00       		.uleb128 0
 6276              	.LLST28:
 6277 06ad 06000000 		.4byte	.LVL80
 6278 06b1 1C000000 		.4byte	.LVL81
 6279 06b5 0200     		.2byte	0x2
 6280 06b7 30       		.byte	0x30
 6281 06b8 9F       		.byte	0x9f
 6282 06b9 1C000000 		.4byte	.LVL81
 6283 06bd 3B000000 		.4byte	.LVL88-1
 6284 06c1 0100     		.2byte	0x1
 6285 06c3 50       		.byte	0x50
 6286 06c4 48000000 		.4byte	.LVL92
 6287 06c8 55000000 		.4byte	.LVL95-1
 6288 06cc 0100     		.2byte	0x1
 6289 06ce 50       		.byte	0x50
 6290 06cf 5A000000 		.4byte	.LVL96
 6291 06d3 5D000000 		.4byte	.LVL97-1
 6292 06d7 0100     		.2byte	0x1
 6293 06d9 50       		.byte	0x50
 6294 06da 62000000 		.4byte	.LVL98
 6295 06de 65000000 		.4byte	.LVL99-1
 6296 06e2 0100     		.2byte	0x1
 6297 06e4 50       		.byte	0x50
 6298 06e5 74000000 		.4byte	.LVL104
 6299 06e9 84000000 		.4byte	.LFE7
 6300 06ed 0200     		.2byte	0x2
 6301 06ef 30       		.byte	0x30
 6302 06f0 9F       		.byte	0x9f
 6303 06f1 00000000 		.4byte	0
 6304 06f5 00000000 		.4byte	0
 6305              	.LVUS19:
 6306 06f9 00       		.uleb128 0
 6307 06fa 00       		.uleb128 .LVU187
 6308 06fb 00       		.uleb128 .LVU187
 6309 06fc 00       		.uleb128 .LVU235
 6310 06fd 00       		.uleb128 .LVU235
 6311 06fe 00       		.uleb128 .LVU236
 6312 06ff 00       		.uleb128 .LVU236
 6313 0700 00       		.uleb128 0
 6314              	.LLST19:
 6315 0701 00000000 		.4byte	.LVL60
 6316 0705 0B000000 		.4byte	.LVL62-1
ARM GAS  C:\Users\EDULU~1.DES\AppData\Local\Temp\ccgrKYGn.s 			page 139


 6317 0709 0100     		.2byte	0x1
 6318 070b 50       		.byte	0x50
 6319 070c 0B000000 		.4byte	.LVL62-1
 6320 0710 8A000000 		.4byte	.LVL77
 6321 0714 0400     		.2byte	0x4
 6322 0716 F3       		.byte	0xf3
 6323 0717 01       		.uleb128 0x1
 6324 0718 50       		.byte	0x50
 6325 0719 9F       		.byte	0x9f
 6326 071a 8A000000 		.4byte	.LVL77
 6327 071e 8C000000 		.4byte	.LVL78
 6328 0722 0100     		.2byte	0x1
 6329 0724 50       		.byte	0x50
 6330 0725 8C000000 		.4byte	.LVL78
 6331 0729 A0000000 		.4byte	.LFE6
 6332 072d 0400     		.2byte	0x4
 6333 072f F3       		.byte	0xf3
 6334 0730 01       		.uleb128 0x1
 6335 0731 50       		.byte	0x50
 6336 0732 9F       		.byte	0x9f
 6337 0733 00000000 		.4byte	0
 6338 0737 00000000 		.4byte	0
 6339              	.LVUS20:
 6340 073b 00       		.uleb128 .LVU189
 6341 073c 00       		.uleb128 .LVU208
 6342 073d 00       		.uleb128 .LVU215
 6343 073e 00       		.uleb128 .LVU217
 6344 073f 00       		.uleb128 .LVU219
 6345 0740 00       		.uleb128 .LVU221
 6346 0741 00       		.uleb128 .LVU223
 6347 0742 00       		.uleb128 .LVU225
 6348 0743 00       		.uleb128 .LVU228
 6349 0744 00       		.uleb128 .LVU230
 6350 0745 00       		.uleb128 .LVU231
 6351 0746 00       		.uleb128 .LVU233
 6352              	.LLST20:
 6353 0747 12000000 		.4byte	.LVL63
 6354 074b 4A000000 		.4byte	.LVL64
 6355 074f 0100     		.2byte	0x1
 6356 0751 53       		.byte	0x53
 6357 0752 64000000 		.4byte	.LVL67
 6358 0756 67000000 		.4byte	.LVL68-1
 6359 075a 0100     		.2byte	0x1
 6360 075c 53       		.byte	0x53
 6361 075d 6C000000 		.4byte	.LVL69
 6362 0761 6F000000 		.4byte	.LVL70-1
 6363 0765 0100     		.2byte	0x1
 6364 0767 53       		.byte	0x53
 6365 0768 74000000 		.4byte	.LVL71
 6366 076c 77000000 		.4byte	.LVL72-1
 6367 0770 0100     		.2byte	0x1
 6368 0772 53       		.byte	0x53
 6369 0773 7C000000 		.4byte	.LVL73
 6370 0777 7F000000 		.4byte	.LVL74-1
 6371 077b 0100     		.2byte	0x1
 6372 077d 53       		.byte	0x53
 6373 077e 82000000 		.4byte	.LVL75
ARM GAS  C:\Users\EDULU~1.DES\AppData\Local\Temp\ccgrKYGn.s 			page 140


 6374 0782 85000000 		.4byte	.LVL76-1
 6375 0786 0100     		.2byte	0x1
 6376 0788 53       		.byte	0x53
 6377 0789 00000000 		.4byte	0
 6378 078d 00000000 		.4byte	0
 6379              	.LVUS21:
 6380 0791 02       		.uleb128 .LVU183
 6381 0792 00       		.uleb128 .LVU187
 6382 0793 00       		.uleb128 .LVU187
 6383 0794 00       		.uleb128 .LVU211
 6384 0795 00       		.uleb128 .LVU215
 6385 0796 00       		.uleb128 .LVU217
 6386 0797 00       		.uleb128 .LVU219
 6387 0798 00       		.uleb128 .LVU221
 6388 0799 00       		.uleb128 .LVU223
 6389 079a 00       		.uleb128 .LVU225
 6390 079b 00       		.uleb128 .LVU228
 6391 079c 00       		.uleb128 .LVU230
 6392 079d 00       		.uleb128 .LVU231
 6393 079e 00       		.uleb128 .LVU233
 6394 079f 00       		.uleb128 .LVU235
 6395 07a0 00       		.uleb128 0
 6396              	.LLST21:
 6397 07a1 04000000 		.4byte	.LVL61
 6398 07a5 0C000000 		.4byte	.LVL62
 6399 07a9 0200     		.2byte	0x2
 6400 07ab 30       		.byte	0x30
 6401 07ac 9F       		.byte	0x9f
 6402 07ad 0C000000 		.4byte	.LVL62
 6403 07b1 55000000 		.4byte	.LVL65-1
 6404 07b5 0100     		.2byte	0x1
 6405 07b7 50       		.byte	0x50
 6406 07b8 64000000 		.4byte	.LVL67
 6407 07bc 67000000 		.4byte	.LVL68-1
 6408 07c0 0100     		.2byte	0x1
 6409 07c2 50       		.byte	0x50
 6410 07c3 6C000000 		.4byte	.LVL69
 6411 07c7 6F000000 		.4byte	.LVL70-1
 6412 07cb 0100     		.2byte	0x1
 6413 07cd 50       		.byte	0x50
 6414 07ce 74000000 		.4byte	.LVL71
 6415 07d2 77000000 		.4byte	.LVL72-1
 6416 07d6 0100     		.2byte	0x1
 6417 07d8 50       		.byte	0x50
 6418 07d9 7C000000 		.4byte	.LVL73
 6419 07dd 7F000000 		.4byte	.LVL74-1
 6420 07e1 0100     		.2byte	0x1
 6421 07e3 50       		.byte	0x50
 6422 07e4 82000000 		.4byte	.LVL75
 6423 07e8 85000000 		.4byte	.LVL76-1
 6424 07ec 0100     		.2byte	0x1
 6425 07ee 50       		.byte	0x50
 6426 07ef 8A000000 		.4byte	.LVL77
 6427 07f3 A0000000 		.4byte	.LFE6
 6428 07f7 0200     		.2byte	0x2
 6429 07f9 30       		.byte	0x30
 6430 07fa 9F       		.byte	0x9f
ARM GAS  C:\Users\EDULU~1.DES\AppData\Local\Temp\ccgrKYGn.s 			page 141


 6431 07fb 00000000 		.4byte	0
 6432 07ff 00000000 		.4byte	0
 6433              	.LVUS51:
 6434 0803 00       		.uleb128 0
 6435 0804 00       		.uleb128 .LVU502
 6436 0805 00       		.uleb128 .LVU502
 6437 0806 00       		.uleb128 .LVU544
 6438 0807 00       		.uleb128 .LVU544
 6439 0808 00       		.uleb128 0
 6440              	.LLST51:
 6441 0809 00000000 		.4byte	.LVL170
 6442 080d 1B000000 		.4byte	.LVL174-1
 6443 0811 0100     		.2byte	0x1
 6444 0813 50       		.byte	0x50
 6445 0814 1B000000 		.4byte	.LVL174-1
 6446 0818 9C000000 		.4byte	.LVL191
 6447 081c 0200     		.2byte	0x2
 6448 081e 91       		.byte	0x91
 6449 081f 60       		.sleb128 -32
 6450 0820 9C000000 		.4byte	.LVL191
 6451 0824 AC000000 		.4byte	.LFE5
 6452 0828 0100     		.2byte	0x1
 6453 082a 50       		.byte	0x50
 6454 082b 00000000 		.4byte	0
 6455 082f 00000000 		.4byte	0
 6456              	.LVUS52:
 6457 0833 00       		.uleb128 0
 6458 0834 00       		.uleb128 .LVU502
 6459 0835 00       		.uleb128 .LVU502
 6460 0836 00       		.uleb128 .LVU544
 6461 0837 00       		.uleb128 .LVU544
 6462 0838 00       		.uleb128 0
 6463              	.LLST52:
 6464 0839 00000000 		.4byte	.LVL170
 6465 083d 1B000000 		.4byte	.LVL174-1
 6466 0841 0100     		.2byte	0x1
 6467 0843 51       		.byte	0x51
 6468 0844 1B000000 		.4byte	.LVL174-1
 6469 0848 9C000000 		.4byte	.LVL191
 6470 084c 0200     		.2byte	0x2
 6471 084e 91       		.byte	0x91
 6472 084f 64       		.sleb128 -28
 6473 0850 9C000000 		.4byte	.LVL191
 6474 0854 AC000000 		.4byte	.LFE5
 6475 0858 0100     		.2byte	0x1
 6476 085a 51       		.byte	0x51
 6477 085b 00000000 		.4byte	0
 6478 085f 00000000 		.4byte	0
 6479              	.LVUS53:
 6480 0863 00       		.uleb128 0
 6481 0864 00       		.uleb128 .LVU502
 6482 0865 00       		.uleb128 .LVU502
 6483 0866 00       		.uleb128 .LVU513
 6484 0867 00       		.uleb128 .LVU513
 6485 0868 00       		.uleb128 .LVU514
 6486 0869 00       		.uleb128 .LVU514
 6487 086a 00       		.uleb128 .LVU544
ARM GAS  C:\Users\EDULU~1.DES\AppData\Local\Temp\ccgrKYGn.s 			page 142


 6488 086b 00       		.uleb128 .LVU544
 6489 086c 00       		.uleb128 0
 6490              	.LLST53:
 6491 086d 00000000 		.4byte	.LVL170
 6492 0871 1B000000 		.4byte	.LVL174-1
 6493 0875 0100     		.2byte	0x1
 6494 0877 52       		.byte	0x52
 6495 0878 1B000000 		.4byte	.LVL174-1
 6496 087c 38000000 		.4byte	.LVL176
 6497 0880 0100     		.2byte	0x1
 6498 0882 57       		.byte	0x57
 6499 0883 38000000 		.4byte	.LVL176
 6500 0887 3A000000 		.4byte	.LVL177
 6501 088b 0400     		.2byte	0x4
 6502 088d F3       		.byte	0xf3
 6503 088e 01       		.uleb128 0x1
 6504 088f 52       		.byte	0x52
 6505 0890 9F       		.byte	0x9f
 6506 0891 3A000000 		.4byte	.LVL177
 6507 0895 9C000000 		.4byte	.LVL191
 6508 0899 0100     		.2byte	0x1
 6509 089b 57       		.byte	0x57
 6510 089c 9C000000 		.4byte	.LVL191
 6511 08a0 AC000000 		.4byte	.LFE5
 6512 08a4 0100     		.2byte	0x1
 6513 08a6 52       		.byte	0x52
 6514 08a7 00000000 		.4byte	0
 6515 08ab 00000000 		.4byte	0
 6516              	.LVUS54:
 6517 08af 00       		.uleb128 0
 6518 08b0 00       		.uleb128 .LVU493
 6519 08b1 00       		.uleb128 .LVU493
 6520 08b2 00       		.uleb128 0
 6521              	.LLST54:
 6522 08b3 00000000 		.4byte	.LVL170
 6523 08b7 0E000000 		.4byte	.LVL171
 6524 08bb 0100     		.2byte	0x1
 6525 08bd 53       		.byte	0x53
 6526 08be 0E000000 		.4byte	.LVL171
 6527 08c2 AC000000 		.4byte	.LFE5
 6528 08c6 0400     		.2byte	0x4
 6529 08c8 F3       		.byte	0xf3
 6530 08c9 01       		.uleb128 0x1
 6531 08ca 53       		.byte	0x53
 6532 08cb 9F       		.byte	0x9f
 6533 08cc 00000000 		.4byte	0
 6534 08d0 00000000 		.4byte	0
 6535              	.LVUS55:
 6536 08d4 00       		.uleb128 0
 6537 08d5 00       		.uleb128 .LVU493
 6538 08d6 00       		.uleb128 .LVU493
 6539 08d7 00       		.uleb128 .LVU494
 6540 08d8 00       		.uleb128 .LVU494
 6541 08d9 00       		.uleb128 0
 6542              	.LLST55:
 6543 08da 00000000 		.4byte	.LVL170
 6544 08de 0E000000 		.4byte	.LVL171
ARM GAS  C:\Users\EDULU~1.DES\AppData\Local\Temp\ccgrKYGn.s 			page 143


 6545 08e2 0200     		.2byte	0x2
 6546 08e4 91       		.byte	0x91
 6547 08e5 00       		.sleb128 0
 6548 08e6 0E000000 		.4byte	.LVL171
 6549 08ea 12000000 		.4byte	.LVL172
 6550 08ee 0200     		.2byte	0x2
 6551 08f0 73       		.byte	0x73
 6552 08f1 00       		.sleb128 0
 6553 08f2 12000000 		.4byte	.LVL172
 6554 08f6 AC000000 		.4byte	.LFE5
 6555 08fa 0200     		.2byte	0x2
 6556 08fc 91       		.byte	0x91
 6557 08fd 00       		.sleb128 0
 6558 08fe 00000000 		.4byte	0
 6559 0902 00000000 		.4byte	0
 6560              	.LVUS56:
 6561 0906 00       		.uleb128 0
 6562 0907 00       		.uleb128 .LVU493
 6563 0908 00       		.uleb128 .LVU493
 6564 0909 00       		.uleb128 .LVU494
 6565 090a 00       		.uleb128 .LVU494
 6566 090b 00       		.uleb128 0
 6567              	.LLST56:
 6568 090c 00000000 		.4byte	.LVL170
 6569 0910 0E000000 		.4byte	.LVL171
 6570 0914 0200     		.2byte	0x2
 6571 0916 91       		.byte	0x91
 6572 0917 04       		.sleb128 4
 6573 0918 0E000000 		.4byte	.LVL171
 6574 091c 12000000 		.4byte	.LVL172
 6575 0920 0200     		.2byte	0x2
 6576 0922 73       		.byte	0x73
 6577 0923 04       		.sleb128 4
 6578 0924 12000000 		.4byte	.LVL172
 6579 0928 AC000000 		.4byte	.LFE5
 6580 092c 0200     		.2byte	0x2
 6581 092e 91       		.byte	0x91
 6582 092f 04       		.sleb128 4
 6583 0930 00000000 		.4byte	0
 6584 0934 00000000 		.4byte	0
 6585              	.LVUS57:
 6586 0938 00       		.uleb128 0
 6587 0939 00       		.uleb128 .LVU493
 6588 093a 00       		.uleb128 .LVU493
 6589 093b 00       		.uleb128 .LVU494
 6590 093c 00       		.uleb128 .LVU494
 6591 093d 00       		.uleb128 0
 6592              	.LLST57:
 6593 093e 00000000 		.4byte	.LVL170
 6594 0942 0E000000 		.4byte	.LVL171
 6595 0946 0200     		.2byte	0x2
 6596 0948 91       		.byte	0x91
 6597 0949 08       		.sleb128 8
 6598 094a 0E000000 		.4byte	.LVL171
 6599 094e 12000000 		.4byte	.LVL172
 6600 0952 0200     		.2byte	0x2
 6601 0954 73       		.byte	0x73
ARM GAS  C:\Users\EDULU~1.DES\AppData\Local\Temp\ccgrKYGn.s 			page 144


 6602 0955 08       		.sleb128 8
 6603 0956 12000000 		.4byte	.LVL172
 6604 095a AC000000 		.4byte	.LFE5
 6605 095e 0200     		.2byte	0x2
 6606 0960 91       		.byte	0x91
 6607 0961 08       		.sleb128 8
 6608 0962 00000000 		.4byte	0
 6609 0966 00000000 		.4byte	0
 6610              	.LVUS58:
 6611 096a 00       		.uleb128 0
 6612 096b 00       		.uleb128 .LVU493
 6613 096c 00       		.uleb128 .LVU493
 6614 096d 00       		.uleb128 .LVU494
 6615 096e 00       		.uleb128 .LVU494
 6616 096f 00       		.uleb128 0
 6617              	.LLST58:
 6618 0970 00000000 		.4byte	.LVL170
 6619 0974 0E000000 		.4byte	.LVL171
 6620 0978 0200     		.2byte	0x2
 6621 097a 91       		.byte	0x91
 6622 097b 0C       		.sleb128 12
 6623 097c 0E000000 		.4byte	.LVL171
 6624 0980 12000000 		.4byte	.LVL172
 6625 0984 0200     		.2byte	0x2
 6626 0986 73       		.byte	0x73
 6627 0987 0C       		.sleb128 12
 6628 0988 12000000 		.4byte	.LVL172
 6629 098c AC000000 		.4byte	.LFE5
 6630 0990 0200     		.2byte	0x2
 6631 0992 91       		.byte	0x91
 6632 0993 0C       		.sleb128 12
 6633 0994 00000000 		.4byte	0
 6634 0998 00000000 		.4byte	0
 6635              	.LVUS59:
 6636 099c 00       		.uleb128 0
 6637 099d 00       		.uleb128 .LVU493
 6638 099e 00       		.uleb128 .LVU493
 6639 099f 00       		.uleb128 .LVU494
 6640 09a0 00       		.uleb128 .LVU494
 6641 09a1 00       		.uleb128 .LVU502
 6642 09a2 00       		.uleb128 .LVU502
 6643 09a3 00       		.uleb128 .LVU544
 6644 09a4 00       		.uleb128 .LVU544
 6645 09a5 00       		.uleb128 0
 6646              	.LLST59:
 6647 09a6 00000000 		.4byte	.LVL170
 6648 09aa 0E000000 		.4byte	.LVL171
 6649 09ae 0200     		.2byte	0x2
 6650 09b0 91       		.byte	0x91
 6651 09b1 10       		.sleb128 16
 6652 09b2 0E000000 		.4byte	.LVL171
 6653 09b6 12000000 		.4byte	.LVL172
 6654 09ba 0200     		.2byte	0x2
 6655 09bc 73       		.byte	0x73
 6656 09bd 10       		.sleb128 16
 6657 09be 12000000 		.4byte	.LVL172
 6658 09c2 1B000000 		.4byte	.LVL174-1
ARM GAS  C:\Users\EDULU~1.DES\AppData\Local\Temp\ccgrKYGn.s 			page 145


 6659 09c6 0200     		.2byte	0x2
 6660 09c8 73       		.byte	0x73
 6661 09c9 00       		.sleb128 0
 6662 09ca 1B000000 		.4byte	.LVL174-1
 6663 09ce 9C000000 		.4byte	.LVL191
 6664 09d2 0200     		.2byte	0x2
 6665 09d4 91       		.byte	0x91
 6666 09d5 10       		.sleb128 16
 6667 09d6 9C000000 		.4byte	.LVL191
 6668 09da AC000000 		.4byte	.LFE5
 6669 09de 0200     		.2byte	0x2
 6670 09e0 73       		.byte	0x73
 6671 09e1 00       		.sleb128 0
 6672 09e2 00000000 		.4byte	0
 6673 09e6 00000000 		.4byte	0
 6674              	.LVUS60:
 6675 09ea 00       		.uleb128 .LVU525
 6676 09eb 00       		.uleb128 .LVU527
 6677 09ec 00       		.uleb128 .LVU527
 6678 09ed 00       		.uleb128 .LVU528
 6679              	.LLST60:
 6680 09ee 64000000 		.4byte	.LVL183
 6681 09f2 74000000 		.4byte	.LVL184
 6682 09f6 0100     		.2byte	0x1
 6683 09f8 50       		.byte	0x50
 6684 09f9 74000000 		.4byte	.LVL184
 6685 09fd 77000000 		.4byte	.LVL185-1
 6686 0a01 0100     		.2byte	0x1
 6687 0a03 51       		.byte	0x51
 6688 0a04 00000000 		.4byte	0
 6689 0a08 00000000 		.4byte	0
 6690              	.LVUS61:
 6691 0a0c 00       		.uleb128 .LVU529
 6692 0a0d 00       		.uleb128 .LVU535
 6693 0a0e 00       		.uleb128 .LVU535
 6694 0a0f 00       		.uleb128 .LVU536
 6695 0a10 00       		.uleb128 .LVU536
 6696 0a11 00       		.uleb128 .LVU538
 6697 0a12 00       		.uleb128 .LVU538
 6698 0a13 00       		.uleb128 .LVU544
 6699              	.LLST61:
 6700 0a14 7A000000 		.4byte	.LVL186
 6701 0a18 87000000 		.4byte	.LVL187-1
 6702 0a1c 0100     		.2byte	0x1
 6703 0a1e 50       		.byte	0x50
 6704 0a1f 87000000 		.4byte	.LVL187-1
 6705 0a23 8A000000 		.4byte	.LVL188
 6706 0a27 0100     		.2byte	0x1
 6707 0a29 55       		.byte	0x55
 6708 0a2a 8A000000 		.4byte	.LVL188
 6709 0a2e 8D000000 		.4byte	.LVL189-1
 6710 0a32 0100     		.2byte	0x1
 6711 0a34 50       		.byte	0x50
 6712 0a35 8D000000 		.4byte	.LVL189-1
 6713 0a39 9C000000 		.4byte	.LVL191
 6714 0a3d 0100     		.2byte	0x1
 6715 0a3f 55       		.byte	0x55
ARM GAS  C:\Users\EDULU~1.DES\AppData\Local\Temp\ccgrKYGn.s 			page 146


 6716 0a40 00000000 		.4byte	0
 6717 0a44 00000000 		.4byte	0
 6718              	.LVUS62:
 6719 0a48 03       		.uleb128 .LVU498
 6720 0a49 00       		.uleb128 .LVU502
 6721 0a4a 00       		.uleb128 .LVU502
 6722 0a4b 00       		.uleb128 .LVU510
 6723 0a4c 00       		.uleb128 .LVU514
 6724 0a4d 00       		.uleb128 .LVU516
 6725 0a4e 00       		.uleb128 .LVU518
 6726 0a4f 00       		.uleb128 .LVU522
 6727 0a50 00       		.uleb128 .LVU538
 6728 0a51 00       		.uleb128 .LVU542
 6729 0a52 00       		.uleb128 .LVU544
 6730 0a53 00       		.uleb128 0
 6731              	.LLST62:
 6732 0a54 14000000 		.4byte	.LVL173
 6733 0a58 1C000000 		.4byte	.LVL174
 6734 0a5c 0200     		.2byte	0x2
 6735 0a5e 30       		.byte	0x30
 6736 0a5f 9F       		.byte	0x9f
 6737 0a60 1C000000 		.4byte	.LVL174
 6738 0a64 31000000 		.4byte	.LVL175-1
 6739 0a68 0100     		.2byte	0x1
 6740 0a6a 50       		.byte	0x50
 6741 0a6b 3A000000 		.4byte	.LVL177
 6742 0a6f 3D000000 		.4byte	.LVL178-1
 6743 0a73 0100     		.2byte	0x1
 6744 0a75 50       		.byte	0x50
 6745 0a76 42000000 		.4byte	.LVL179
 6746 0a7a 4B000000 		.4byte	.LVL180-1
 6747 0a7e 0100     		.2byte	0x1
 6748 0a80 50       		.byte	0x50
 6749 0a81 8E000000 		.4byte	.LVL189
 6750 0a85 99000000 		.4byte	.LVL190-1
 6751 0a89 0100     		.2byte	0x1
 6752 0a8b 50       		.byte	0x50
 6753 0a8c 9C000000 		.4byte	.LVL191
 6754 0a90 AC000000 		.4byte	.LFE5
 6755 0a94 0200     		.2byte	0x2
 6756 0a96 30       		.byte	0x30
 6757 0a97 9F       		.byte	0x9f
 6758 0a98 00000000 		.4byte	0
 6759 0a9c 00000000 		.4byte	0
 6760              	.LVUS12:
 6761 0aa0 00       		.uleb128 0
 6762 0aa1 00       		.uleb128 .LVU136
 6763 0aa2 00       		.uleb128 .LVU136
 6764 0aa3 00       		.uleb128 .LVU146
 6765 0aa4 00       		.uleb128 .LVU146
 6766 0aa5 00       		.uleb128 .LVU148
 6767 0aa6 00       		.uleb128 .LVU148
 6768 0aa7 00       		.uleb128 .LVU152
 6769 0aa8 00       		.uleb128 .LVU152
 6770 0aa9 00       		.uleb128 .LVU153
 6771 0aaa 00       		.uleb128 .LVU153
 6772 0aab 00       		.uleb128 .LVU163
ARM GAS  C:\Users\EDULU~1.DES\AppData\Local\Temp\ccgrKYGn.s 			page 147


 6773 0aac 00       		.uleb128 .LVU163
 6774 0aad 00       		.uleb128 .LVU178
 6775 0aae 00       		.uleb128 .LVU178
 6776 0aaf 00       		.uleb128 0
 6777              	.LLST12:
 6778 0ab0 00000000 		.4byte	.LVL38
 6779 0ab4 13000000 		.4byte	.LVL40-1
 6780 0ab8 0100     		.2byte	0x1
 6781 0aba 50       		.byte	0x50
 6782 0abb 13000000 		.4byte	.LVL40-1
 6783 0abf 2C000000 		.4byte	.LVL42
 6784 0ac3 0100     		.2byte	0x1
 6785 0ac5 55       		.byte	0x55
 6786 0ac6 2C000000 		.4byte	.LVL42
 6787 0aca 32000000 		.4byte	.LVL45
 6788 0ace 0400     		.2byte	0x4
 6789 0ad0 F3       		.byte	0xf3
 6790 0ad1 01       		.uleb128 0x1
 6791 0ad2 50       		.byte	0x50
 6792 0ad3 9F       		.byte	0x9f
 6793 0ad4 32000000 		.4byte	.LVL45
 6794 0ad8 38000000 		.4byte	.LVL47
 6795 0adc 0100     		.2byte	0x1
 6796 0ade 55       		.byte	0x55
 6797 0adf 38000000 		.4byte	.LVL47
 6798 0ae3 3A000000 		.4byte	.LVL48
 6799 0ae7 0400     		.2byte	0x4
 6800 0ae9 F3       		.byte	0xf3
 6801 0aea 01       		.uleb128 0x1
 6802 0aeb 50       		.byte	0x50
 6803 0aec 9F       		.byte	0x9f
 6804 0aed 3A000000 		.4byte	.LVL48
 6805 0af1 64000000 		.4byte	.LVL54
 6806 0af5 0100     		.2byte	0x1
 6807 0af7 55       		.byte	0x55
 6808 0af8 64000000 		.4byte	.LVL54
 6809 0afc 86000000 		.4byte	.LVL59
 6810 0b00 0400     		.2byte	0x4
 6811 0b02 F3       		.byte	0xf3
 6812 0b03 01       		.uleb128 0x1
 6813 0b04 50       		.byte	0x50
 6814 0b05 9F       		.byte	0x9f
 6815 0b06 86000000 		.4byte	.LVL59
 6816 0b0a 98000000 		.4byte	.LFE4
 6817 0b0e 0100     		.2byte	0x1
 6818 0b10 50       		.byte	0x50
 6819 0b11 00000000 		.4byte	0
 6820 0b15 00000000 		.4byte	0
 6821              	.LVUS13:
 6822 0b19 00       		.uleb128 0
 6823 0b1a 00       		.uleb128 .LVU136
 6824 0b1b 00       		.uleb128 .LVU136
 6825 0b1c 00       		.uleb128 .LVU147
 6826 0b1d 00       		.uleb128 .LVU147
 6827 0b1e 00       		.uleb128 .LVU148
 6828 0b1f 00       		.uleb128 .LVU148
 6829 0b20 00       		.uleb128 .LVU178
ARM GAS  C:\Users\EDULU~1.DES\AppData\Local\Temp\ccgrKYGn.s 			page 148


 6830 0b21 00       		.uleb128 .LVU178
 6831 0b22 00       		.uleb128 0
 6832              	.LLST13:
 6833 0b23 00000000 		.4byte	.LVL38
 6834 0b27 13000000 		.4byte	.LVL40-1
 6835 0b2b 0100     		.2byte	0x1
 6836 0b2d 51       		.byte	0x51
 6837 0b2e 13000000 		.4byte	.LVL40-1
 6838 0b32 30000000 		.4byte	.LVL43
 6839 0b36 0100     		.2byte	0x1
 6840 0b38 56       		.byte	0x56
 6841 0b39 30000000 		.4byte	.LVL43
 6842 0b3d 32000000 		.4byte	.LVL45
 6843 0b41 0400     		.2byte	0x4
 6844 0b43 F3       		.byte	0xf3
 6845 0b44 01       		.uleb128 0x1
 6846 0b45 51       		.byte	0x51
 6847 0b46 9F       		.byte	0x9f
 6848 0b47 32000000 		.4byte	.LVL45
 6849 0b4b 86000000 		.4byte	.LVL59
 6850 0b4f 0100     		.2byte	0x1
 6851 0b51 56       		.byte	0x56
 6852 0b52 86000000 		.4byte	.LVL59
 6853 0b56 98000000 		.4byte	.LFE4
 6854 0b5a 0100     		.2byte	0x1
 6855 0b5c 51       		.byte	0x51
 6856 0b5d 00000000 		.4byte	0
 6857 0b61 00000000 		.4byte	0
 6858              	.LVUS14:
 6859 0b65 00       		.uleb128 0
 6860 0b66 00       		.uleb128 .LVU136
 6861 0b67 00       		.uleb128 .LVU136
 6862 0b68 00       		.uleb128 .LVU147
 6863 0b69 00       		.uleb128 .LVU147
 6864 0b6a 00       		.uleb128 .LVU148
 6865 0b6b 00       		.uleb128 .LVU148
 6866 0b6c 00       		.uleb128 .LVU178
 6867 0b6d 00       		.uleb128 .LVU178
 6868 0b6e 00       		.uleb128 0
 6869              	.LLST14:
 6870 0b6f 00000000 		.4byte	.LVL38
 6871 0b73 13000000 		.4byte	.LVL40-1
 6872 0b77 0100     		.2byte	0x1
 6873 0b79 52       		.byte	0x52
 6874 0b7a 13000000 		.4byte	.LVL40-1
 6875 0b7e 30000000 		.4byte	.LVL44
 6876 0b82 0100     		.2byte	0x1
 6877 0b84 57       		.byte	0x57
 6878 0b85 30000000 		.4byte	.LVL44
 6879 0b89 32000000 		.4byte	.LVL45
 6880 0b8d 0400     		.2byte	0x4
 6881 0b8f F3       		.byte	0xf3
 6882 0b90 01       		.uleb128 0x1
 6883 0b91 52       		.byte	0x52
 6884 0b92 9F       		.byte	0x9f
 6885 0b93 32000000 		.4byte	.LVL45
 6886 0b97 86000000 		.4byte	.LVL59
ARM GAS  C:\Users\EDULU~1.DES\AppData\Local\Temp\ccgrKYGn.s 			page 149


 6887 0b9b 0100     		.2byte	0x1
 6888 0b9d 57       		.byte	0x57
 6889 0b9e 86000000 		.4byte	.LVL59
 6890 0ba2 98000000 		.4byte	.LFE4
 6891 0ba6 0100     		.2byte	0x1
 6892 0ba8 52       		.byte	0x52
 6893 0ba9 00000000 		.4byte	0
 6894 0bad 00000000 		.4byte	0
 6895              	.LVUS15:
 6896 0bb1 00       		.uleb128 0
 6897 0bb2 00       		.uleb128 .LVU136
 6898 0bb3 00       		.uleb128 .LVU136
 6899 0bb4 00       		.uleb128 .LVU178
 6900 0bb5 00       		.uleb128 .LVU178
 6901 0bb6 00       		.uleb128 0
 6902              	.LLST15:
 6903 0bb7 00000000 		.4byte	.LVL38
 6904 0bbb 13000000 		.4byte	.LVL40-1
 6905 0bbf 0100     		.2byte	0x1
 6906 0bc1 53       		.byte	0x53
 6907 0bc2 13000000 		.4byte	.LVL40-1
 6908 0bc6 86000000 		.4byte	.LVL59
 6909 0bca 0400     		.2byte	0x4
 6910 0bcc F3       		.byte	0xf3
 6911 0bcd 01       		.uleb128 0x1
 6912 0bce 53       		.byte	0x53
 6913 0bcf 9F       		.byte	0x9f
 6914 0bd0 86000000 		.4byte	.LVL59
 6915 0bd4 98000000 		.4byte	.LFE4
 6916 0bd8 0100     		.2byte	0x1
 6917 0bda 53       		.byte	0x53
 6918 0bdb 00000000 		.4byte	0
 6919 0bdf 00000000 		.4byte	0
 6920              	.LVUS16:
 6921 0be3 00       		.uleb128 .LVU159
 6922 0be4 00       		.uleb128 .LVU161
 6923 0be5 00       		.uleb128 .LVU161
 6924 0be6 00       		.uleb128 .LVU162
 6925              	.LLST16:
 6926 0be7 52000000 		.4byte	.LVL51
 6927 0beb 5E000000 		.4byte	.LVL52
 6928 0bef 0100     		.2byte	0x1
 6929 0bf1 50       		.byte	0x50
 6930 0bf2 5E000000 		.4byte	.LVL52
 6931 0bf6 61000000 		.4byte	.LVL53-1
 6932 0bfa 0100     		.2byte	0x1
 6933 0bfc 51       		.byte	0x51
 6934 0bfd 00000000 		.4byte	0
 6935 0c01 00000000 		.4byte	0
 6936              	.LVUS17:
 6937 0c05 00       		.uleb128 .LVU163
 6938 0c06 00       		.uleb128 .LVU169
 6939 0c07 00       		.uleb128 .LVU169
 6940 0c08 00       		.uleb128 .LVU170
 6941 0c09 00       		.uleb128 .LVU170
 6942 0c0a 00       		.uleb128 .LVU172
 6943 0c0b 00       		.uleb128 .LVU172
ARM GAS  C:\Users\EDULU~1.DES\AppData\Local\Temp\ccgrKYGn.s 			page 150


 6944 0c0c 00       		.uleb128 .LVU178
 6945              	.LLST17:
 6946 0c0d 64000000 		.4byte	.LVL54
 6947 0c11 71000000 		.4byte	.LVL55-1
 6948 0c15 0100     		.2byte	0x1
 6949 0c17 50       		.byte	0x50
 6950 0c18 71000000 		.4byte	.LVL55-1
 6951 0c1c 74000000 		.4byte	.LVL56
 6952 0c20 0100     		.2byte	0x1
 6953 0c22 55       		.byte	0x55
 6954 0c23 74000000 		.4byte	.LVL56
 6955 0c27 77000000 		.4byte	.LVL57-1
 6956 0c2b 0100     		.2byte	0x1
 6957 0c2d 50       		.byte	0x50
 6958 0c2e 77000000 		.4byte	.LVL57-1
 6959 0c32 86000000 		.4byte	.LVL59
 6960 0c36 0100     		.2byte	0x1
 6961 0c38 55       		.byte	0x55
 6962 0c39 00000000 		.4byte	0
 6963 0c3d 00000000 		.4byte	0
 6964              	.LVUS18:
 6965 0c41 03       		.uleb128 .LVU132
 6966 0c42 00       		.uleb128 .LVU136
 6967 0c43 00       		.uleb128 .LVU136
 6968 0c44 00       		.uleb128 .LVU144
 6969 0c45 00       		.uleb128 .LVU148
 6970 0c46 00       		.uleb128 .LVU150
 6971 0c47 00       		.uleb128 .LVU153
 6972 0c48 00       		.uleb128 .LVU157
 6973 0c49 00       		.uleb128 .LVU172
 6974 0c4a 00       		.uleb128 .LVU176
 6975 0c4b 00       		.uleb128 .LVU178
 6976 0c4c 00       		.uleb128 0
 6977              	.LLST18:
 6978 0c4d 0C000000 		.4byte	.LVL39
 6979 0c51 14000000 		.4byte	.LVL40
 6980 0c55 0200     		.2byte	0x2
 6981 0c57 30       		.byte	0x30
 6982 0c58 9F       		.byte	0x9f
 6983 0c59 14000000 		.4byte	.LVL40
 6984 0c5d 29000000 		.4byte	.LVL41-1
 6985 0c61 0100     		.2byte	0x1
 6986 0c63 50       		.byte	0x50
 6987 0c64 32000000 		.4byte	.LVL45
 6988 0c68 35000000 		.4byte	.LVL46-1
 6989 0c6c 0100     		.2byte	0x1
 6990 0c6e 50       		.byte	0x50
 6991 0c6f 3A000000 		.4byte	.LVL48
 6992 0c73 43000000 		.4byte	.LVL49-1
 6993 0c77 0100     		.2byte	0x1
 6994 0c79 50       		.byte	0x50
 6995 0c7a 78000000 		.4byte	.LVL57
 6996 0c7e 83000000 		.4byte	.LVL58-1
 6997 0c82 0100     		.2byte	0x1
 6998 0c84 50       		.byte	0x50
 6999 0c85 86000000 		.4byte	.LVL59
 7000 0c89 98000000 		.4byte	.LFE4
ARM GAS  C:\Users\EDULU~1.DES\AppData\Local\Temp\ccgrKYGn.s 			page 151


 7001 0c8d 0200     		.2byte	0x2
 7002 0c8f 30       		.byte	0x30
 7003 0c90 9F       		.byte	0x9f
 7004 0c91 00000000 		.4byte	0
 7005 0c95 00000000 		.4byte	0
 7006              	.LVUS0:
 7007 0c99 00       		.uleb128 0
 7008 0c9a 00       		.uleb128 .LVU20
 7009 0c9b 00       		.uleb128 .LVU20
 7010 0c9c 00       		.uleb128 .LVU26
 7011 0c9d 00       		.uleb128 .LVU26
 7012 0c9e 00       		.uleb128 .LVU29
 7013 0c9f 00       		.uleb128 .LVU103
 7014 0ca0 00       		.uleb128 .LVU110
 7015 0ca1 00       		.uleb128 .LVU110
 7016 0ca2 00       		.uleb128 .LVU111
 7017 0ca3 00       		.uleb128 .LVU123
 7018 0ca4 00       		.uleb128 .LVU124
 7019 0ca5 00       		.uleb128 .LVU124
 7020 0ca6 00       		.uleb128 .LVU125
 7021 0ca7 00       		.uleb128 .LVU125
 7022 0ca8 00       		.uleb128 .LVU126
 7023              	.LLST0:
 7024 0ca9 00000000 		.4byte	.LVL0
 7025 0cad 25000000 		.4byte	.LVL2-1
 7026 0cb1 0100     		.2byte	0x1
 7027 0cb3 50       		.byte	0x50
 7028 0cb4 25000000 		.4byte	.LVL2-1
 7029 0cb8 36000000 		.4byte	.LVL4
 7030 0cbc 0400     		.2byte	0x4
 7031 0cbe F3       		.byte	0xf3
 7032 0cbf 01       		.uleb128 0x1
 7033 0cc0 50       		.byte	0x50
 7034 0cc1 9F       		.byte	0x9f
 7035 0cc2 36000000 		.4byte	.LVL4
 7036 0cc6 3A000000 		.4byte	.LVL5
 7037 0cca 0100     		.2byte	0x1
 7038 0ccc 54       		.byte	0x54
 7039 0ccd 06010000 		.4byte	.LVL22
 7040 0cd1 16010000 		.4byte	.LVL25
 7041 0cd5 0400     		.2byte	0x4
 7042 0cd7 F3       		.byte	0xf3
 7043 0cd8 01       		.uleb128 0x1
 7044 0cd9 50       		.byte	0x50
 7045 0cda 9F       		.byte	0x9f
 7046 0cdb 16010000 		.4byte	.LVL25
 7047 0cdf 18010000 		.4byte	.LVL26
 7048 0ce3 0100     		.2byte	0x1
 7049 0ce5 54       		.byte	0x54
 7050 0ce6 34010000 		.4byte	.LVL34
 7051 0cea 36010000 		.4byte	.LVL35
 7052 0cee 0100     		.2byte	0x1
 7053 0cf0 50       		.byte	0x50
 7054 0cf1 36010000 		.4byte	.LVL35
 7055 0cf5 38010000 		.4byte	.LVL36
 7056 0cf9 0400     		.2byte	0x4
 7057 0cfb F3       		.byte	0xf3
ARM GAS  C:\Users\EDULU~1.DES\AppData\Local\Temp\ccgrKYGn.s 			page 152


 7058 0cfc 01       		.uleb128 0x1
 7059 0cfd 50       		.byte	0x50
 7060 0cfe 9F       		.byte	0x9f
 7061 0cff 38010000 		.4byte	.LVL36
 7062 0d03 3A010000 		.4byte	.LVL37
 7063 0d07 0100     		.2byte	0x1
 7064 0d09 50       		.byte	0x50
 7065 0d0a 00000000 		.4byte	0
 7066 0d0e 00000000 		.4byte	0
 7067              	.LVUS1:
 7068 0d12 00       		.uleb128 0
 7069 0d13 00       		.uleb128 .LVU20
 7070 0d14 00       		.uleb128 .LVU20
 7071 0d15 00       		.uleb128 .LVU123
 7072 0d16 00       		.uleb128 .LVU123
 7073 0d17 00       		.uleb128 .LVU126
 7074 0d18 00       		.uleb128 .LVU126
 7075 0d19 00       		.uleb128 0
 7076              	.LLST1:
 7077 0d1a 00000000 		.4byte	.LVL0
 7078 0d1e 25000000 		.4byte	.LVL2-1
 7079 0d22 0100     		.2byte	0x1
 7080 0d24 51       		.byte	0x51
 7081 0d25 25000000 		.4byte	.LVL2-1
 7082 0d29 34010000 		.4byte	.LVL34
 7083 0d2d 0400     		.2byte	0x4
 7084 0d2f F3       		.byte	0xf3
 7085 0d30 01       		.uleb128 0x1
 7086 0d31 51       		.byte	0x51
 7087 0d32 9F       		.byte	0x9f
 7088 0d33 34010000 		.4byte	.LVL34
 7089 0d37 3A010000 		.4byte	.LVL37
 7090 0d3b 0100     		.2byte	0x1
 7091 0d3d 51       		.byte	0x51
 7092 0d3e 3A010000 		.4byte	.LVL37
 7093 0d42 5C010000 		.4byte	.LFE3
 7094 0d46 0400     		.2byte	0x4
 7095 0d48 F3       		.byte	0xf3
 7096 0d49 01       		.uleb128 0x1
 7097 0d4a 51       		.byte	0x51
 7098 0d4b 9F       		.byte	0x9f
 7099 0d4c 00000000 		.4byte	0
 7100 0d50 00000000 		.4byte	0
 7101              	.LVUS2:
 7102 0d54 00       		.uleb128 .LVU70
 7103 0d55 00       		.uleb128 .LVU83
 7104              	.LLST2:
 7105 0d56 B0000000 		.4byte	.LVL15
 7106 0d5a D8000000 		.4byte	.LVL17
 7107 0d5e 0100     		.2byte	0x1
 7108 0d60 51       		.byte	0x51
 7109 0d61 00000000 		.4byte	0
 7110 0d65 00000000 		.4byte	0
 7111              	.LVUS3:
 7112 0d69 00       		.uleb128 .LVU30
 7113 0d6a 00       		.uleb128 .LVU99
 7114 0d6b 00       		.uleb128 .LVU111
ARM GAS  C:\Users\EDULU~1.DES\AppData\Local\Temp\ccgrKYGn.s 			page 153


 7115 0d6c 00       		.uleb128 .LVU114
 7116 0d6d 00       		.uleb128 .LVU116
 7117 0d6e 00       		.uleb128 .LVU119
 7118              	.LLST3:
 7119 0d6f 3E000000 		.4byte	.LVL6
 7120 0d73 F9000000 		.4byte	.LVL21-1
 7121 0d77 0100     		.2byte	0x1
 7122 0d79 53       		.byte	0x53
 7123 0d7a 18010000 		.4byte	.LVL26
 7124 0d7e 1D010000 		.4byte	.LVL28-1
 7125 0d82 0100     		.2byte	0x1
 7126 0d84 53       		.byte	0x53
 7127 0d85 22010000 		.4byte	.LVL29
 7128 0d89 27010000 		.4byte	.LVL31-1
 7129 0d8d 0100     		.2byte	0x1
 7130 0d8f 53       		.byte	0x53
 7131 0d90 00000000 		.4byte	0
 7132 0d94 00000000 		.4byte	0
 7133              	.LVUS4:
 7134 0d98 00       		.uleb128 .LVU36
 7135 0d99 00       		.uleb128 .LVU90
 7136 0d9a 00       		.uleb128 .LVU90
 7137 0d9b 00       		.uleb128 .LVU93
 7138 0d9c 00       		.uleb128 .LVU93
 7139 0d9d 00       		.uleb128 .LVU96
 7140 0d9e 00       		.uleb128 .LVU96
 7141 0d9f 00       		.uleb128 .LVU99
 7142 0da0 00       		.uleb128 .LVU99
 7143 0da1 00       		.uleb128 .LVU103
 7144 0da2 00       		.uleb128 .LVU121
 7145 0da3 00       		.uleb128 .LVU123
 7146              	.LLST4:
 7147 0da4 48000000 		.4byte	.LVL7
 7148 0da8 EA000000 		.4byte	.LVL18
 7149 0dac 0100     		.2byte	0x1
 7150 0dae 50       		.byte	0x50
 7151 0daf EA000000 		.4byte	.LVL18
 7152 0db3 EE000000 		.4byte	.LVL19
 7153 0db7 0700     		.2byte	0x7
 7154 0db9 73       		.byte	0x73
 7155 0dba 00       		.sleb128 0
 7156 0dbb 71       		.byte	0x71
 7157 0dbc 00       		.sleb128 0
 7158 0dbd 22       		.byte	0x22
 7159 0dbe 23       		.byte	0x23
 7160 0dbf 01       		.uleb128 0x1
 7161 0dc0 EE000000 		.4byte	.LVL19
 7162 0dc4 F2000000 		.4byte	.LVL20
 7163 0dc8 0700     		.2byte	0x7
 7164 0dca 73       		.byte	0x73
 7165 0dcb 00       		.sleb128 0
 7166 0dcc 71       		.byte	0x71
 7167 0dcd 00       		.sleb128 0
 7168 0dce 22       		.byte	0x22
 7169 0dcf 32       		.byte	0x32
 7170 0dd0 1C       		.byte	0x1c
 7171 0dd1 F2000000 		.4byte	.LVL20
ARM GAS  C:\Users\EDULU~1.DES\AppData\Local\Temp\ccgrKYGn.s 			page 154


 7172 0dd5 F9000000 		.4byte	.LVL21-1
 7173 0dd9 0700     		.2byte	0x7
 7174 0ddb 73       		.byte	0x73
 7175 0ddc 00       		.sleb128 0
 7176 0ddd 71       		.byte	0x71
 7177 0dde 00       		.sleb128 0
 7178 0ddf 22       		.byte	0x22
 7179 0de0 31       		.byte	0x31
 7180 0de1 1C       		.byte	0x1c
 7181 0de2 F9000000 		.4byte	.LVL21-1
 7182 0de6 06010000 		.4byte	.LVL22
 7183 0dea 0500     		.2byte	0x5
 7184 0dec 75       		.byte	0x75
 7185 0ded 00       		.sleb128 0
 7186 0dee 33       		.byte	0x33
 7187 0def 25       		.byte	0x25
 7188 0df0 9F       		.byte	0x9f
 7189 0df1 2C010000 		.4byte	.LVL32
 7190 0df5 34010000 		.4byte	.LVL34
 7191 0df9 0500     		.2byte	0x5
 7192 0dfb 75       		.byte	0x75
 7193 0dfc 00       		.sleb128 0
 7194 0dfd 33       		.byte	0x33
 7195 0dfe 25       		.byte	0x25
 7196 0dff 9F       		.byte	0x9f
 7197 0e00 00000000 		.4byte	0
 7198 0e04 00000000 		.4byte	0
 7199              	.LVUS5:
 7200 0e08 00       		.uleb128 .LVU38
 7201 0e09 00       		.uleb128 .LVU46
 7202 0e0a 00       		.uleb128 .LVU46
 7203 0e0b 00       		.uleb128 .LVU99
 7204 0e0c 00       		.uleb128 .LVU99
 7205 0e0d 00       		.uleb128 .LVU103
 7206 0e0e 00       		.uleb128 .LVU121
 7207 0e0f 00       		.uleb128 .LVU123
 7208              	.LLST5:
 7209 0e10 4E000000 		.4byte	.LVL8
 7210 0e14 60000000 		.4byte	.LVL11
 7211 0e18 0100     		.2byte	0x1
 7212 0e1a 57       		.byte	0x57
 7213 0e1b 60000000 		.4byte	.LVL11
 7214 0e1f F9000000 		.4byte	.LVL21-1
 7215 0e23 0100     		.2byte	0x1
 7216 0e25 5C       		.byte	0x5c
 7217 0e26 F9000000 		.4byte	.LVL21-1
 7218 0e2a 06010000 		.4byte	.LVL22
 7219 0e2e 0500     		.2byte	0x5
 7220 0e30 75       		.byte	0x75
 7221 0e31 00       		.sleb128 0
 7222 0e32 37       		.byte	0x37
 7223 0e33 1A       		.byte	0x1a
 7224 0e34 9F       		.byte	0x9f
 7225 0e35 2C010000 		.4byte	.LVL32
 7226 0e39 34010000 		.4byte	.LVL34
 7227 0e3d 0500     		.2byte	0x5
 7228 0e3f 75       		.byte	0x75
ARM GAS  C:\Users\EDULU~1.DES\AppData\Local\Temp\ccgrKYGn.s 			page 155


 7229 0e40 00       		.sleb128 0
 7230 0e41 37       		.byte	0x37
 7231 0e42 1A       		.byte	0x1a
 7232 0e43 9F       		.byte	0x9f
 7233 0e44 00000000 		.4byte	0
 7234 0e48 00000000 		.4byte	0
 7235              	.LVUS6:
 7236 0e4c 00       		.uleb128 .LVU51
 7237 0e4d 00       		.uleb128 .LVU74
 7238              	.LLST6:
 7239 0e4e 6A000000 		.4byte	.LVL12
 7240 0e52 BA000000 		.4byte	.LVL16
 7241 0e56 0100     		.2byte	0x1
 7242 0e58 54       		.byte	0x54
 7243 0e59 00000000 		.4byte	0
 7244 0e5d 00000000 		.4byte	0
 7245              	.LVUS7:
 7246 0e61 00       		.uleb128 .LVU41
 7247 0e62 00       		.uleb128 .LVU103
 7248 0e63 00       		.uleb128 .LVU121
 7249 0e64 00       		.uleb128 .LVU123
 7250              	.LLST7:
 7251 0e65 56000000 		.4byte	.LVL9
 7252 0e69 06010000 		.4byte	.LVL22
 7253 0e6d 0100     		.2byte	0x1
 7254 0e6f 56       		.byte	0x56
 7255 0e70 2C010000 		.4byte	.LVL32
 7256 0e74 34010000 		.4byte	.LVL34
 7257 0e78 0100     		.2byte	0x1
 7258 0e7a 56       		.byte	0x56
 7259 0e7b 00000000 		.4byte	0
 7260 0e7f 00000000 		.4byte	0
 7261              	.LVUS8:
 7262 0e83 00       		.uleb128 .LVU44
 7263 0e84 00       		.uleb128 .LVU99
 7264 0e85 00       		.uleb128 .LVU99
 7265 0e86 00       		.uleb128 .LVU103
 7266 0e87 00       		.uleb128 .LVU121
 7267 0e88 00       		.uleb128 .LVU123
 7268              	.LLST8:
 7269 0e89 5A000000 		.4byte	.LVL10
 7270 0e8d F9000000 		.4byte	.LVL21-1
 7271 0e91 0100     		.2byte	0x1
 7272 0e93 52       		.byte	0x52
 7273 0e94 F9000000 		.4byte	.LVL21-1
 7274 0e98 06010000 		.4byte	.LVL22
 7275 0e9c 0700     		.2byte	0x7
 7276 0e9e 31       		.byte	0x31
 7277 0e9f 75       		.byte	0x75
 7278 0ea0 00       		.sleb128 0
 7279 0ea1 37       		.byte	0x37
 7280 0ea2 1A       		.byte	0x1a
 7281 0ea3 24       		.byte	0x24
 7282 0ea4 9F       		.byte	0x9f
 7283 0ea5 2C010000 		.4byte	.LVL32
 7284 0ea9 34010000 		.4byte	.LVL34
 7285 0ead 0700     		.2byte	0x7
ARM GAS  C:\Users\EDULU~1.DES\AppData\Local\Temp\ccgrKYGn.s 			page 156


 7286 0eaf 31       		.byte	0x31
 7287 0eb0 75       		.byte	0x75
 7288 0eb1 00       		.sleb128 0
 7289 0eb2 37       		.byte	0x37
 7290 0eb3 1A       		.byte	0x1a
 7291 0eb4 24       		.byte	0x24
 7292 0eb5 9F       		.byte	0x9f
 7293 0eb6 00000000 		.4byte	0
 7294 0eba 00000000 		.4byte	0
 7295              	.LVUS9:
 7296 0ebe 00       		.uleb128 .LVU53
 7297 0ebf 00       		.uleb128 .LVU103
 7298 0ec0 00       		.uleb128 .LVU121
 7299 0ec1 00       		.uleb128 .LVU123
 7300              	.LLST9:
 7301 0ec2 70000000 		.4byte	.LVL13
 7302 0ec6 06010000 		.4byte	.LVL22
 7303 0eca 0100     		.2byte	0x1
 7304 0ecc 59       		.byte	0x59
 7305 0ecd 2C010000 		.4byte	.LVL32
 7306 0ed1 34010000 		.4byte	.LVL34
 7307 0ed5 0100     		.2byte	0x1
 7308 0ed7 59       		.byte	0x59
 7309 0ed8 00000000 		.4byte	0
 7310 0edc 00000000 		.4byte	0
 7311              	.LVUS10:
 7312 0ee0 00       		.uleb128 .LVU55
 7313 0ee1 00       		.uleb128 .LVU103
 7314 0ee2 00       		.uleb128 .LVU121
 7315 0ee3 00       		.uleb128 .LVU123
 7316              	.LLST10:
 7317 0ee4 76000000 		.4byte	.LVL14
 7318 0ee8 06010000 		.4byte	.LVL22
 7319 0eec 0100     		.2byte	0x1
 7320 0eee 58       		.byte	0x58
 7321 0eef 2C010000 		.4byte	.LVL32
 7322 0ef3 34010000 		.4byte	.LVL34
 7323 0ef7 0100     		.2byte	0x1
 7324 0ef9 58       		.byte	0x58
 7325 0efa 00000000 		.4byte	0
 7326 0efe 00000000 		.4byte	0
 7327              	.LVUS11:
 7328 0f02 0A       		.uleb128 .LVU12
 7329 0f03 00       		.uleb128 .LVU21
 7330 0f04 00       		.uleb128 .LVU21
 7331 0f05 00       		.uleb128 .LVU36
 7332 0f06 00       		.uleb128 .LVU36
 7333 0f07 00       		.uleb128 .LVU103
 7334 0f08 00       		.uleb128 .LVU103
 7335 0f09 00       		.uleb128 .LVU105
 7336 0f0a 00       		.uleb128 .LVU105
 7337 0f0b 00       		.uleb128 .LVU107
 7338 0f0c 00       		.uleb128 .LVU107
 7339 0f0d 00       		.uleb128 .LVU113
 7340 0f0e 00       		.uleb128 .LVU113
 7341 0f0f 00       		.uleb128 .LVU116
 7342 0f10 00       		.uleb128 .LVU116
ARM GAS  C:\Users\EDULU~1.DES\AppData\Local\Temp\ccgrKYGn.s 			page 157


 7343 0f11 00       		.uleb128 .LVU118
 7344 0f12 00       		.uleb128 .LVU118
 7345 0f13 00       		.uleb128 .LVU123
 7346 0f14 00       		.uleb128 .LVU123
 7347 0f15 00       		.uleb128 .LVU126
 7348              	.LLST11:
 7349 0f16 12000000 		.4byte	.LVL1
 7350 0f1a 28000000 		.4byte	.LVL3
 7351 0f1e 0200     		.2byte	0x2
 7352 0f20 30       		.byte	0x30
 7353 0f21 9F       		.byte	0x9f
 7354 0f22 28000000 		.4byte	.LVL3
 7355 0f26 48000000 		.4byte	.LVL7
 7356 0f2a 0100     		.2byte	0x1
 7357 0f2c 50       		.byte	0x50
 7358 0f2d 48000000 		.4byte	.LVL7
 7359 0f31 06010000 		.4byte	.LVL22
 7360 0f35 0200     		.2byte	0x2
 7361 0f37 91       		.byte	0x91
 7362 0f38 54       		.sleb128 -44
 7363 0f39 06010000 		.4byte	.LVL22
 7364 0f3d 09010000 		.4byte	.LVL23-1
 7365 0f41 0100     		.2byte	0x1
 7366 0f43 50       		.byte	0x50
 7367 0f44 09010000 		.4byte	.LVL23-1
 7368 0f48 0E010000 		.4byte	.LVL24
 7369 0f4c 0200     		.2byte	0x2
 7370 0f4e 91       		.byte	0x91
 7371 0f4f 54       		.sleb128 -44
 7372 0f50 0E010000 		.4byte	.LVL24
 7373 0f54 1A010000 		.4byte	.LVL27
 7374 0f58 0100     		.2byte	0x1
 7375 0f5a 50       		.byte	0x50
 7376 0f5b 1A010000 		.4byte	.LVL27
 7377 0f5f 22010000 		.4byte	.LVL29
 7378 0f63 0200     		.2byte	0x2
 7379 0f65 91       		.byte	0x91
 7380 0f66 54       		.sleb128 -44
 7381 0f67 22010000 		.4byte	.LVL29
 7382 0f6b 24010000 		.4byte	.LVL30
 7383 0f6f 0100     		.2byte	0x1
 7384 0f71 50       		.byte	0x50
 7385 0f72 24010000 		.4byte	.LVL30
 7386 0f76 34010000 		.4byte	.LVL34
 7387 0f7a 0200     		.2byte	0x2
 7388 0f7c 91       		.byte	0x91
 7389 0f7d 54       		.sleb128 -44
 7390 0f7e 34010000 		.4byte	.LVL34
 7391 0f82 3A010000 		.4byte	.LVL37
 7392 0f86 0200     		.2byte	0x2
 7393 0f88 30       		.byte	0x30
 7394 0f89 9F       		.byte	0x9f
 7395 0f8a 00000000 		.4byte	0
 7396 0f8e 00000000 		.4byte	0
 7397              		.section	.debug_aranges,"",%progbits
 7398 0000 6C000000 		.4byte	0x6c
 7399 0004 0200     		.2byte	0x2
ARM GAS  C:\Users\EDULU~1.DES\AppData\Local\Temp\ccgrKYGn.s 			page 158


 7400 0006 00000000 		.4byte	.Ldebug_info0
 7401 000a 04       		.byte	0x4
 7402 000b 00       		.byte	0
 7403 000c 0000     		.2byte	0
 7404 000e 0000     		.2byte	0
 7405 0010 00000000 		.4byte	.LFB3
 7406 0014 5C010000 		.4byte	.LFE3-.LFB3
 7407 0018 00000000 		.4byte	.LFB4
 7408 001c 98000000 		.4byte	.LFE4-.LFB4
 7409 0020 00000000 		.4byte	.LFB6
 7410 0024 A0000000 		.4byte	.LFE6-.LFB6
 7411 0028 00000000 		.4byte	.LFB7
 7412 002c 84000000 		.4byte	.LFE7-.LFB7
 7413 0030 00000000 		.4byte	.LFB8
 7414 0034 A8000000 		.4byte	.LFE8-.LFB8
 7415 0038 00000000 		.4byte	.LFB9
 7416 003c 54000000 		.4byte	.LFE9-.LFB9
 7417 0040 00000000 		.4byte	.LFB10
 7418 0044 34000000 		.4byte	.LFE10-.LFB10
 7419 0048 00000000 		.4byte	.LFB11
 7420 004c 50000000 		.4byte	.LFE11-.LFB11
 7421 0050 00000000 		.4byte	.LFB12
 7422 0054 18000000 		.4byte	.LFE12-.LFB12
 7423 0058 00000000 		.4byte	.LFB13
 7424 005c 16000000 		.4byte	.LFE13-.LFB13
 7425 0060 00000000 		.4byte	.LFB5
 7426 0064 AC000000 		.4byte	.LFE5-.LFB5
 7427 0068 00000000 		.4byte	0
 7428 006c 00000000 		.4byte	0
 7429              		.section	.debug_ranges,"",%progbits
 7430              	.Ldebug_ranges0:
 7431 0000 00000000 		.4byte	.LFB3
 7432 0004 5C010000 		.4byte	.LFE3
 7433 0008 00000000 		.4byte	.LFB4
 7434 000c 98000000 		.4byte	.LFE4
 7435 0010 00000000 		.4byte	.LFB6
 7436 0014 A0000000 		.4byte	.LFE6
 7437 0018 00000000 		.4byte	.LFB7
 7438 001c 84000000 		.4byte	.LFE7
 7439 0020 00000000 		.4byte	.LFB8
 7440 0024 A8000000 		.4byte	.LFE8
 7441 0028 00000000 		.4byte	.LFB9
 7442 002c 54000000 		.4byte	.LFE9
 7443 0030 00000000 		.4byte	.LFB10
 7444 0034 34000000 		.4byte	.LFE10
 7445 0038 00000000 		.4byte	.LFB11
 7446 003c 50000000 		.4byte	.LFE11
 7447 0040 00000000 		.4byte	.LFB12
 7448 0044 18000000 		.4byte	.LFE12
 7449 0048 00000000 		.4byte	.LFB13
 7450 004c 16000000 		.4byte	.LFE13
 7451 0050 00000000 		.4byte	.LFB5
 7452 0054 AC000000 		.4byte	.LFE5
 7453 0058 00000000 		.4byte	0
 7454 005c 00000000 		.4byte	0
 7455              		.section	.debug_line,"",%progbits
 7456              	.Ldebug_line0:
ARM GAS  C:\Users\EDULU~1.DES\AppData\Local\Temp\ccgrKYGn.s 			page 159


 7457 0000 E2080000 		.section	.debug_str,"MS",%progbits,1
 7457      03008D01 
 7457      00000201 
 7457      FB0E0D00 
 7457      01010101 
 7458              	.LASF143:
 7459 0000 6F735F74 		.ascii	"os_tcb\000"
 7459      636200
 7460              	.LASF242:
 7461 0007 4F535461 		.ascii	"OSTaskCreate\000"
 7461      736B4372 
 7461      65617465 
 7461      00
 7462              	.LASF142:
 7463 0014 4F535F53 		.ascii	"OS_STK_DATA\000"
 7463      544B5F44 
 7463      41544100 
 7464              	.LASF123:
 7465 0020 494E5431 		.ascii	"INT16U\000"
 7465      365500
 7466              	.LASF253:
 7467 0027 62697478 		.ascii	"bitx_old\000"
 7467      5F6F6C64 
 7467      00
 7468              	.LASF211:
 7469 0030 4F53546D 		.ascii	"OSTmrSemSignal\000"
 7469      7253656D 
 7469      5369676E 
 7469      616C00
 7470              	.LASF36:
 7471 003f 5F6F6E5F 		.ascii	"_on_exit_args\000"
 7471      65786974 
 7471      5F617267 
 7471      7300
 7472              	.LASF124:
 7473 004d 494E5433 		.ascii	"INT32U\000"
 7473      325500
 7474              	.LASF169:
 7475 0054 4F53546D 		.ascii	"OSTmrPrev\000"
 7475      72507265 
 7475      7600
 7476              	.LASF104:
 7477 005e 5F776374 		.ascii	"_wctomb_state\000"
 7477      6F6D625F 
 7477      73746174 
 7477      6500
 7478              	.LASF230:
 7479 006c 73656C66 		.ascii	"self\000"
 7479      00
 7480              	.LASF196:
 7481 0071 4F534964 		.ascii	"OSIdleCtr\000"
 7481      6C654374 
 7481      7200
 7482              	.LASF101:
 7483 007b 5F723438 		.ascii	"_r48\000"
 7483      00
 7484              	.LASF227:
ARM GAS  C:\Users\EDULU~1.DES\AppData\Local\Temp\ccgrKYGn.s 			page 160


 7485 0080 4F535461 		.ascii	"OSTaskRegGetID\000"
 7485      736B5265 
 7485      67476574 
 7485      494400
 7486              	.LASF106:
 7487 008f 5F736967 		.ascii	"_signal_buf\000"
 7487      6E616C5F 
 7487      62756600 
 7488              	.LASF8:
 7489 009b 756E7369 		.ascii	"unsigned int\000"
 7489      676E6564 
 7489      20696E74 
 7489      00
 7490              	.LASF144:
 7491 00a8 4F535443 		.ascii	"OSTCBStkPtr\000"
 7491      4253746B 
 7491      50747200 
 7492              	.LASF138:
 7493 00b4 4F535F45 		.ascii	"OS_EVENT\000"
 7493      56454E54 
 7493      00
 7494              	.LASF163:
 7495 00bd 4F535F54 		.ascii	"OS_TMR_CALLBACK\000"
 7495      4D525F43 
 7495      414C4C42 
 7495      41434B00 
 7496              	.LASF50:
 7497 00cd 5F6C6266 		.ascii	"_lbfsize\000"
 7497      73697A65 
 7497      00
 7498              	.LASF48:
 7499 00d6 5F666C61 		.ascii	"_flags\000"
 7499      677300
 7500              	.LASF181:
 7501 00dd 4F534374 		.ascii	"OSCtxSwCtr\000"
 7501      78537743 
 7501      747200
 7502              	.LASF65:
 7503 00e8 5F657272 		.ascii	"_errno\000"
 7503      6E6F00
 7504              	.LASF172:
 7505 00ef 4F53546D 		.ascii	"OSTmrPeriod\000"
 7505      72506572 
 7505      696F6400 
 7506              	.LASF202:
 7507 00fb 4F535443 		.ascii	"OSTCBPrioTbl\000"
 7507      42507269 
 7507      6F54626C 
 7507      00
 7508              	.LASF139:
 7509 0108 6F735F73 		.ascii	"os_stk_data\000"
 7509      746B5F64 
 7509      61746100 
 7510              	.LASF140:
 7511 0114 4F534672 		.ascii	"OSFree\000"
 7511      656500
 7512              	.LASF168:
ARM GAS  C:\Users\EDULU~1.DES\AppData\Local\Temp\ccgrKYGn.s 			page 161


 7513 011b 4F53546D 		.ascii	"OSTmrNext\000"
 7513      724E6578 
 7513      7400
 7514              	.LASF121:
 7515 0125 424F4F4C 		.ascii	"BOOLEAN\000"
 7515      45414E00 
 7516              	.LASF62:
 7517 012d 5F6D6273 		.ascii	"_mbstate\000"
 7517      74617465 
 7517      00
 7518              	.LASF136:
 7519 0136 4F534576 		.ascii	"OSEventGrp\000"
 7519      656E7447 
 7519      727000
 7520              	.LASF52:
 7521 0141 5F726561 		.ascii	"_read\000"
 7521      6400
 7522              	.LASF235:
 7523 0147 4F535461 		.ascii	"OSTaskResume\000"
 7523      736B5265 
 7523      73756D65 
 7523      00
 7524              	.LASF108:
 7525 0154 5F6D6272 		.ascii	"_mbrlen_state\000"
 7525      6C656E5F 
 7525      73746174 
 7525      6500
 7526              	.LASF188:
 7527 0162 4F53496E 		.ascii	"OSIntNesting\000"
 7527      744E6573 
 7527      74696E67 
 7527      00
 7528              	.LASF67:
 7529 016f 5F737464 		.ascii	"_stdout\000"
 7529      6F757400 
 7530              	.LASF12:
 7531 0177 5F66706F 		.ascii	"_fpos_t\000"
 7531      735F7400 
 7532              	.LASF261:
 7533 017f 474E5520 		.ascii	"GNU C17 8.2.1 20181213 (release) [gcc-8-branch revi"
 7533      43313720 
 7533      382E322E 
 7533      31203230 
 7533      31383132 
 7534 01b2 73696F6E 		.ascii	"sion 267074] -mcpu=cortex-m0 -mthumb -mfloat-abi=so"
 7534      20323637 
 7534      3037345D 
 7534      202D6D63 
 7534      70753D63 
 7535 01e5 6674202D 		.ascii	"ft -march=armv6s-m -g -Og -ffunction-sections -ffat"
 7535      6D617263 
 7535      683D6172 
 7535      6D763673 
 7535      2D6D202D 
 7536 0218 2D6C746F 		.ascii	"-lto-objects\000"
 7536      2D6F626A 
 7536      65637473 
ARM GAS  C:\Users\EDULU~1.DES\AppData\Local\Temp\ccgrKYGn.s 			page 162


 7536      00
 7537              	.LASF43:
 7538 0225 5F666E73 		.ascii	"_fns\000"
 7538      00
 7539              	.LASF51:
 7540 022a 5F636F6F 		.ascii	"_cookie\000"
 7540      6B696500 
 7541              	.LASF187:
 7542 0232 4F535461 		.ascii	"OSTaskStatStk\000"
 7542      736B5374 
 7542      61745374 
 7542      6B00
 7543              	.LASF25:
 7544 0240 5F426967 		.ascii	"_Bigint\000"
 7544      696E7400 
 7545              	.LASF33:
 7546 0248 5F5F746D 		.ascii	"__tm_wday\000"
 7546      5F776461 
 7546      7900
 7547              	.LASF178:
 7548 0252 4F53546D 		.ascii	"OSTmrFirst\000"
 7548      72466972 
 7548      737400
 7549              	.LASF191:
 7550 025d 4F535072 		.ascii	"OSPrioHighRdy\000"
 7550      696F4869 
 7550      67685264 
 7550      7900
 7551              	.LASF75:
 7552 026b 5F726573 		.ascii	"_result\000"
 7552      756C7400 
 7553              	.LASF251:
 7554 0273 62697478 		.ascii	"bitx_new\000"
 7554      5F6E6577 
 7554      00
 7555              	.LASF29:
 7556 027c 5F5F746D 		.ascii	"__tm_hour\000"
 7556      5F686F75 
 7556      7200
 7557              	.LASF130:
 7558 0286 4F535F43 		.ascii	"OS_CPU_ExceptStkBase\000"
 7558      50555F45 
 7558      78636570 
 7558      7453746B 
 7558      42617365 
 7559              	.LASF248:
 7560 029b 785F6E65 		.ascii	"x_new\000"
 7560      7700
 7561              	.LASF16:
 7562 02a1 5F5F636F 		.ascii	"__count\000"
 7562      756E7400 
 7563              	.LASF131:
 7564 02a9 4F535F50 		.ascii	"OS_PRIO\000"
 7564      52494F00 
 7565              	.LASF125:
 7566 02b1 666C6F61 		.ascii	"float\000"
 7566      7400
ARM GAS  C:\Users\EDULU~1.DES\AppData\Local\Temp\ccgrKYGn.s 			page 163


 7567              	.LASF221:
 7568 02b7 4F535461 		.ascii	"OSTaskRegSet\000"
 7568      736B5265 
 7568      67536574 
 7568      00
 7569              	.LASF28:
 7570 02c4 5F5F746D 		.ascii	"__tm_min\000"
 7570      5F6D696E 
 7570      00
 7571              	.LASF119:
 7572 02cd 5F696D70 		.ascii	"_impure_ptr\000"
 7572      7572655F 
 7572      70747200 
 7573              	.LASF149:
 7574 02d9 4F535443 		.ascii	"OSTCBId\000"
 7574      42496400 
 7575              	.LASF114:
 7576 02e1 5F6E6578 		.ascii	"_nextf\000"
 7576      746600
 7577              	.LASF241:
 7578 02e8 70657874 		.ascii	"pext\000"
 7578      00
 7579              	.LASF91:
 7580 02ed 5F72616E 		.ascii	"_rand48\000"
 7580      64343800 
 7581              	.LASF137:
 7582 02f5 4F534576 		.ascii	"OSEventTbl\000"
 7582      656E7454 
 7582      626C00
 7583              	.LASF182:
 7584 0300 4F534576 		.ascii	"OSEventFreeList\000"
 7584      656E7446 
 7584      7265654C 
 7584      69737400 
 7585              	.LASF225:
 7586 0310 6370755F 		.ascii	"cpu_sr\000"
 7586      737200
 7587              	.LASF76:
 7588 0317 5F726573 		.ascii	"_result_k\000"
 7588      756C745F 
 7588      6B00
 7589              	.LASF7:
 7590 0321 6C6F6E67 		.ascii	"long long unsigned int\000"
 7590      206C6F6E 
 7590      6720756E 
 7590      7369676E 
 7590      65642069 
 7591              	.LASF97:
 7592 0338 5F617363 		.ascii	"_asctime_buf\000"
 7592      74696D65 
 7592      5F627566 
 7592      00
 7593              	.LASF47:
 7594 0345 5F5F7346 		.ascii	"__sFILE\000"
 7594      494C4500 
 7595              	.LASF24:
 7596 034d 5F776473 		.ascii	"_wds\000"
ARM GAS  C:\Users\EDULU~1.DES\AppData\Local\Temp\ccgrKYGn.s 			page 164


 7596      00
 7597              	.LASF254:
 7598 0352 4F535461 		.ascii	"OSTaskReturnHook\000"
 7598      736B5265 
 7598      7475726E 
 7598      486F6F6B 
 7598      00
 7599              	.LASF207:
 7600 0363 4F53546D 		.ascii	"OSTmrFree\000"
 7600      72467265 
 7600      6500
 7601              	.LASF216:
 7602 036d 4F53556E 		.ascii	"OSUnMapTbl\000"
 7602      4D617054 
 7602      626C00
 7603              	.LASF257:
 7604 0378 4F535F43 		.ascii	"OS_CPU_SR_Restore\000"
 7604      50555F53 
 7604      525F5265 
 7604      73746F72 
 7604      6500
 7605              	.LASF245:
 7606 038a 6E657770 		.ascii	"newprio\000"
 7606      72696F00 
 7607              	.LASF87:
 7608 0392 5F5F4649 		.ascii	"__FILE\000"
 7608      4C4500
 7609              	.LASF59:
 7610 0399 5F6F6666 		.ascii	"_offset\000"
 7610      73657400 
 7611              	.LASF185:
 7612 03a1 4F534964 		.ascii	"OSIdleCtrRun\000"
 7612      6C654374 
 7612      7252756E 
 7612      00
 7613              	.LASF135:
 7614 03ae 4F534576 		.ascii	"OSEventCnt\000"
 7614      656E7443 
 7614      6E7400
 7615              	.LASF209:
 7616 03b9 4F53546D 		.ascii	"OSTmrTime\000"
 7616      7254696D 
 7616      6500
 7617              	.LASF223:
 7618 03c3 76616C75 		.ascii	"value\000"
 7618      6500
 7619              	.LASF183:
 7620 03c9 4F534350 		.ascii	"OSCPUUsage\000"
 7620      55557361 
 7620      676500
 7621              	.LASF171:
 7622 03d4 4F53546D 		.ascii	"OSTmrDly\000"
 7622      72446C79 
 7622      00
 7623              	.LASF70:
 7624 03dd 5F656D65 		.ascii	"_emergency\000"
 7624      7267656E 
ARM GAS  C:\Users\EDULU~1.DES\AppData\Local\Temp\ccgrKYGn.s 			page 165


 7624      637900
 7625              	.LASF175:
 7626 03e8 4F53546D 		.ascii	"OSTmrState\000"
 7626      72537461 
 7626      746500
 7627              	.LASF208:
 7628 03f3 4F53546D 		.ascii	"OSTmrUsed\000"
 7628      72557365 
 7628      6400
 7629              	.LASF258:
 7630 03fd 4F535F53 		.ascii	"OS_Sched\000"
 7630      63686564 
 7630      00
 7631              	.LASF215:
 7632 0406 4F53546D 		.ascii	"OSTmrWheelTbl\000"
 7632      72576865 
 7632      656C5462 
 7632      6C00
 7633              	.LASF27:
 7634 0414 5F5F746D 		.ascii	"__tm_sec\000"
 7634      5F736563 
 7634      00
 7635              	.LASF34:
 7636 041d 5F5F746D 		.ascii	"__tm_yday\000"
 7636      5F796461 
 7636      7900
 7637              	.LASF69:
 7638 0427 5F696E63 		.ascii	"_inc\000"
 7638      00
 7639              	.LASF42:
 7640 042c 5F696E64 		.ascii	"_ind\000"
 7640      00
 7641              	.LASF21:
 7642 0431 5F6E6578 		.ascii	"_next\000"
 7642      7400
 7643              	.LASF129:
 7644 0437 4F535F43 		.ascii	"OS_CPU_ExceptStk\000"
 7644      50555F45 
 7644      78636570 
 7644      7453746B 
 7644      00
 7645              	.LASF166:
 7646 0448 4F53546D 		.ascii	"OSTmrCallback\000"
 7646      7243616C 
 7646      6C626163 
 7646      6B00
 7647              	.LASF110:
 7648 0456 5F6D6273 		.ascii	"_mbsrtowcs_state\000"
 7648      72746F77 
 7648      63735F73 
 7648      74617465 
 7648      00
 7649              	.LASF197:
 7650 0467 4F535461 		.ascii	"OSTaskIdleStk\000"
 7650      736B4964 
 7650      6C655374 
 7650      6B00
ARM GAS  C:\Users\EDULU~1.DES\AppData\Local\Temp\ccgrKYGn.s 			page 166


 7651              	.LASF195:
 7652 0475 4F535461 		.ascii	"OSTaskCtr\000"
 7652      736B4374 
 7652      7200
 7653              	.LASF150:
 7654 047f 4F535443 		.ascii	"OSTCBNext\000"
 7654      424E6578 
 7654      7400
 7655              	.LASF233:
 7656 0489 7063686B 		.ascii	"pchk\000"
 7656      00
 7657              	.LASF17:
 7658 048e 5F5F7661 		.ascii	"__value\000"
 7658      6C756500 
 7659              	.LASF77:
 7660 0496 5F703573 		.ascii	"_p5s\000"
 7660      00
 7661              	.LASF189:
 7662 049b 4F534C6F 		.ascii	"OSLockNesting\000"
 7662      636B4E65 
 7662      7374696E 
 7662      6700
 7663              	.LASF222:
 7664 04a9 7072696F 		.ascii	"prio\000"
 7664      00
 7665              	.LASF112:
 7666 04ae 5F776373 		.ascii	"_wcsrtombs_state\000"
 7666      72746F6D 
 7666      62735F73 
 7666      74617465 
 7666      00
 7667              	.LASF102:
 7668 04bf 5F6D626C 		.ascii	"_mblen_state\000"
 7668      656E5F73 
 7668      74617465 
 7668      00
 7669              	.LASF86:
 7670 04cc 63686172 		.ascii	"char\000"
 7670      00
 7671              	.LASF30:
 7672 04d1 5F5F746D 		.ascii	"__tm_mday\000"
 7672      5F6D6461 
 7672      7900
 7673              	.LASF83:
 7674 04db 5F736967 		.ascii	"_sig_func\000"
 7674      5F66756E 
 7674      6300
 7675              	.LASF109:
 7676 04e5 5F6D6272 		.ascii	"_mbrtowc_state\000"
 7676      746F7763 
 7676      5F737461 
 7676      746500
 7677              	.LASF82:
 7678 04f4 5F617465 		.ascii	"_atexit0\000"
 7678      78697430 
 7678      00
 7679              	.LASF190:
ARM GAS  C:\Users\EDULU~1.DES\AppData\Local\Temp\ccgrKYGn.s 			page 167


 7680 04fd 4F535072 		.ascii	"OSPrioCur\000"
 7680      696F4375 
 7680      7200
 7681              	.LASF198:
 7682 0507 4F535443 		.ascii	"OSTCBCur\000"
 7682      42437572 
 7682      00
 7683              	.LASF155:
 7684 0510 4F535443 		.ascii	"OSTCBStatPend\000"
 7684      42537461 
 7684      7450656E 
 7684      6400
 7685              	.LASF151:
 7686 051e 4F535443 		.ascii	"OSTCBPrev\000"
 7686      42507265 
 7686      7600
 7687              	.LASF19:
 7688 0528 5F666C6F 		.ascii	"_flock_t\000"
 7688      636B5F74 
 7688      00
 7689              	.LASF217:
 7690 0531 70626F73 		.ascii	"pbos\000"
 7690      00
 7691              	.LASF14:
 7692 0536 5F5F7763 		.ascii	"__wch\000"
 7692      6800
 7693              	.LASF90:
 7694 053c 5F696F62 		.ascii	"_iobs\000"
 7694      7300
 7695              	.LASF228:
 7696 0542 4F535461 		.ascii	"OSTaskRegGet\000"
 7696      736B5265 
 7696      67476574 
 7696      00
 7697              	.LASF210:
 7698 054f 4F53546D 		.ascii	"OSTmrSem\000"
 7698      7253656D 
 7698      00
 7699              	.LASF55:
 7700 0558 5F636C6F 		.ascii	"_close\000"
 7700      736500
 7701              	.LASF145:
 7702 055f 4F535443 		.ascii	"OSTCBExtPtr\000"
 7702      42457874 
 7702      50747200 
 7703              	.LASF73:
 7704 056b 5F5F7364 		.ascii	"__sdidinit\000"
 7704      6964696E 
 7704      697400
 7705              	.LASF201:
 7706 0576 4F535443 		.ascii	"OSTCBList\000"
 7706      424C6973 
 7706      7400
 7707              	.LASF66:
 7708 0580 5F737464 		.ascii	"_stdin\000"
 7708      696E00
 7709              	.LASF99:
ARM GAS  C:\Users\EDULU~1.DES\AppData\Local\Temp\ccgrKYGn.s 			page 168


 7710 0587 5F67616D 		.ascii	"_gamma_signgam\000"
 7710      6D615F73 
 7710      69676E67 
 7710      616D00
 7711              	.LASF6:
 7712 0596 6C6F6E67 		.ascii	"long long int\000"
 7712      206C6F6E 
 7712      6720696E 
 7712      7400
 7713              	.LASF45:
 7714 05a4 5F626173 		.ascii	"_base\000"
 7714      6500
 7715              	.LASF78:
 7716 05aa 5F667265 		.ascii	"_freelist\000"
 7716      656C6973 
 7716      7400
 7717              	.LASF93:
 7718 05b4 5F6D756C 		.ascii	"_mult\000"
 7718      7400
 7719              	.LASF20:
 7720 05ba 5F5F554C 		.ascii	"__ULong\000"
 7720      6F6E6700 
 7721              	.LASF232:
 7722 05c2 705F7374 		.ascii	"p_stk_data\000"
 7722      6B5F6461 
 7722      746100
 7723              	.LASF111:
 7724 05cd 5F776372 		.ascii	"_wcrtomb_state\000"
 7724      746F6D62 
 7724      5F737461 
 7724      746500
 7725              	.LASF194:
 7726 05dc 4F535275 		.ascii	"OSRunning\000"
 7726      6E6E696E 
 7726      6700
 7727              	.LASF49:
 7728 05e6 5F66696C 		.ascii	"_file\000"
 7728      6500
 7729              	.LASF147:
 7730 05ec 4F535443 		.ascii	"OSTCBStkSize\000"
 7730      4253746B 
 7730      53697A65 
 7730      00
 7731              	.LASF74:
 7732 05f9 5F5F636C 		.ascii	"__cleanup\000"
 7732      65616E75 
 7732      7000
 7733              	.LASF18:
 7734 0603 5F6D6273 		.ascii	"_mbstate_t\000"
 7734      74617465 
 7734      5F7400
 7735              	.LASF180:
 7736 060e 4F535F54 		.ascii	"OS_TMR_WHEEL\000"
 7736      4D525F57 
 7736      4845454C 
 7736      00
 7737              	.LASF218:
ARM GAS  C:\Users\EDULU~1.DES\AppData\Local\Temp\ccgrKYGn.s 			page 169


 7738 061b 73697A65 		.ascii	"size\000"
 7738      00
 7739              	.LASF153:
 7740 0620 4F535443 		.ascii	"OSTCBDly\000"
 7740      42446C79 
 7740      00
 7741              	.LASF35:
 7742 0629 5F5F746D 		.ascii	"__tm_isdst\000"
 7742      5F697364 
 7742      737400
 7743              	.LASF246:
 7744 0634 70657665 		.ascii	"pevent\000"
 7744      6E7400
 7745              	.LASF113:
 7746 063b 5F685F65 		.ascii	"_h_errno\000"
 7746      72726E6F 
 7746      00
 7747              	.LASF239:
 7748 0644 70746F73 		.ascii	"ptos\000"
 7748      00
 7749              	.LASF122:
 7750 0649 494E5438 		.ascii	"INT8U\000"
 7750      5500
 7751              	.LASF219:
 7752 064f 4F535F54 		.ascii	"OS_TaskStkClr\000"
 7752      61736B53 
 7752      746B436C 
 7752      7200
 7753              	.LASF236:
 7754 065d 4F535461 		.ascii	"OSTaskCreateExt\000"
 7754      736B4372 
 7754      65617465 
 7754      45787400 
 7755              	.LASF31:
 7756 066d 5F5F746D 		.ascii	"__tm_mon\000"
 7756      5F6D6F6E 
 7756      00
 7757              	.LASF9:
 7758 0676 6C6F6E67 		.ascii	"long double\000"
 7758      20646F75 
 7758      626C6500 
 7759              	.LASF204:
 7760 0682 4F535469 		.ascii	"OSTickStepState\000"
 7760      636B5374 
 7760      65705374 
 7760      61746500 
 7761              	.LASF10:
 7762 0692 5F4C4F43 		.ascii	"_LOCK_T\000"
 7762      4B5F5400 
 7763              	.LASF176:
 7764 069a 4F535F54 		.ascii	"OS_TMR\000"
 7764      4D5200
 7765              	.LASF132:
 7766 06a1 6F735F65 		.ascii	"os_event\000"
 7766      76656E74 
 7766      00
 7767              	.LASF53:
ARM GAS  C:\Users\EDULU~1.DES\AppData\Local\Temp\ccgrKYGn.s 			page 170


 7768 06aa 5F777269 		.ascii	"_write\000"
 7768      746500
 7769              	.LASF41:
 7770 06b1 5F617465 		.ascii	"_atexit\000"
 7770      78697400 
 7771              	.LASF240:
 7772 06b9 73746B5F 		.ascii	"stk_size\000"
 7772      73697A65 
 7772      00
 7773              	.LASF238:
 7774 06c2 705F6172 		.ascii	"p_arg\000"
 7774      6700
 7775              	.LASF146:
 7776 06c8 4F535443 		.ascii	"OSTCBStkBottom\000"
 7776      4253746B 
 7776      426F7474 
 7776      6F6D00
 7777              	.LASF255:
 7778 06d7 4F535469 		.ascii	"OSTimeDly\000"
 7778      6D65446C 
 7778      7900
 7779              	.LASF256:
 7780 06e1 4F535F43 		.ascii	"OS_CPU_SR_Save\000"
 7780      50555F53 
 7780      525F5361 
 7780      766500
 7781              	.LASF2:
 7782 06f0 73686F72 		.ascii	"short int\000"
 7782      7420696E 
 7782      7400
 7783              	.LASF164:
 7784 06fa 6F735F74 		.ascii	"os_tmr\000"
 7784      6D7200
 7785              	.LASF186:
 7786 0701 4F535374 		.ascii	"OSStatRdy\000"
 7786      61745264 
 7786      7900
 7787              	.LASF252:
 7788 070b 62697479 		.ascii	"bity_old\000"
 7788      5F6F6C64 
 7788      00
 7789              	.LASF4:
 7790 0714 6C6F6E67 		.ascii	"long int\000"
 7790      20696E74 
 7790      00
 7791              	.LASF127:
 7792 071d 4F535F53 		.ascii	"OS_STK\000"
 7792      544B00
 7793              	.LASF213:
 7794 0724 4F53546D 		.ascii	"OSTmrFreeList\000"
 7794      72467265 
 7794      654C6973 
 7794      7400
 7795              	.LASF249:
 7796 0732 795F6F6C 		.ascii	"y_old\000"
 7796      6400
 7797              	.LASF156:
ARM GAS  C:\Users\EDULU~1.DES\AppData\Local\Temp\ccgrKYGn.s 			page 171


 7798 0738 4F535443 		.ascii	"OSTCBPrio\000"
 7798      42507269 
 7798      6F00
 7799              	.LASF200:
 7800 0742 4F535443 		.ascii	"OSTCBHighRdy\000"
 7800      42486967 
 7800      68526479 
 7800      00
 7801              	.LASF154:
 7802 074f 4F535443 		.ascii	"OSTCBStat\000"
 7802      42537461 
 7802      7400
 7803              	.LASF85:
 7804 0759 5F5F7366 		.ascii	"__sf\000"
 7804      00
 7805              	.LASF23:
 7806 075e 5F736967 		.ascii	"_sign\000"
 7806      6E00
 7807              	.LASF174:
 7808 0764 4F53546D 		.ascii	"OSTmrOpt\000"
 7808      724F7074 
 7808      00
 7809              	.LASF244:
 7810 076d 6F6C6470 		.ascii	"oldprio\000"
 7810      72696F00 
 7811              	.LASF60:
 7812 0775 5F646174 		.ascii	"_data\000"
 7812      6100
 7813              	.LASF220:
 7814 077b 4F535F54 		.ascii	"OS_TaskReturn\000"
 7814      61736B52 
 7814      65747572 
 7814      6E00
 7815              	.LASF15:
 7816 0789 5F5F7763 		.ascii	"__wchb\000"
 7816      686200
 7817              	.LASF120:
 7818 0790 5F676C6F 		.ascii	"_global_impure_ptr\000"
 7818      62616C5F 
 7818      696D7075 
 7818      72655F70 
 7818      747200
 7819              	.LASF237:
 7820 07a3 7461736B 		.ascii	"task\000"
 7820      00
 7821              	.LASF32:
 7822 07a8 5F5F746D 		.ascii	"__tm_year\000"
 7822      5F796561 
 7822      7200
 7823              	.LASF167:
 7824 07b2 4F53546D 		.ascii	"OSTmrCallbackArg\000"
 7824      7243616C 
 7824      6C626163 
 7824      6B417267 
 7824      00
 7825              	.LASF206:
 7826 07c3 4F535469 		.ascii	"OSTime\000"
ARM GAS  C:\Users\EDULU~1.DES\AppData\Local\Temp\ccgrKYGn.s 			page 172


 7826      6D6500
 7827              	.LASF98:
 7828 07ca 5F6C6F63 		.ascii	"_localtime_buf\000"
 7828      616C7469 
 7828      6D655F62 
 7828      756600
 7829              	.LASF116:
 7830 07d9 5F756E75 		.ascii	"_unused\000"
 7830      73656400 
 7831              	.LASF159:
 7832 07e1 4F535443 		.ascii	"OSTCBBitX\000"
 7832      42426974 
 7832      5800
 7833              	.LASF160:
 7834 07eb 4F535443 		.ascii	"OSTCBBitY\000"
 7834      42426974 
 7834      5900
 7835              	.LASF81:
 7836 07f5 5F6E6577 		.ascii	"_new\000"
 7836      00
 7837              	.LASF141:
 7838 07fa 4F535573 		.ascii	"OSUsed\000"
 7838      656400
 7839              	.LASF79:
 7840 0801 5F637674 		.ascii	"_cvtlen\000"
 7840      6C656E00 
 7841              	.LASF22:
 7842 0809 5F6D6178 		.ascii	"_maxwds\000"
 7842      77647300 
 7843              	.LASF105:
 7844 0811 5F6C3634 		.ascii	"_l64a_buf\000"
 7844      615F6275 
 7844      6600
 7845              	.LASF192:
 7846 081b 4F535264 		.ascii	"OSRdyGrp\000"
 7846      79477270 
 7846      00
 7847              	.LASF58:
 7848 0824 5F626C6B 		.ascii	"_blksize\000"
 7848      73697A65 
 7848      00
 7849              	.LASF26:
 7850 082d 5F5F746D 		.ascii	"__tm\000"
 7850      00
 7851              	.LASF231:
 7852 0832 4F535461 		.ascii	"OSTaskStkChk\000"
 7852      736B5374 
 7852      6B43686B 
 7852      00
 7853              	.LASF61:
 7854 083f 5F6C6F63 		.ascii	"_lock\000"
 7854      6B00
 7855              	.LASF226:
 7856 0845 70746362 		.ascii	"ptcb\000"
 7856      00
 7857              	.LASF5:
 7858 084a 6C6F6E67 		.ascii	"long unsigned int\000"
ARM GAS  C:\Users\EDULU~1.DES\AppData\Local\Temp\ccgrKYGn.s 			page 173


 7858      20756E73 
 7858      69676E65 
 7858      6420696E 
 7858      7400
 7859              	.LASF128:
 7860 085c 4F535F43 		.ascii	"OS_CPU_SR\000"
 7860      50555F53 
 7860      5200
 7861              	.LASF89:
 7862 0866 5F6E696F 		.ascii	"_niobs\000"
 7862      627300
 7863              	.LASF13:
 7864 086d 77696E74 		.ascii	"wint_t\000"
 7864      5F7400
 7865              	.LASF38:
 7866 0874 5F64736F 		.ascii	"_dso_handle\000"
 7866      5F68616E 
 7866      646C6500 
 7867              	.LASF263:
 7868 0880 433A5C55 		.ascii	"C:\\Users\\edulu.DESKTOP-961TG4K\\Documents\\PSoC C"
 7868      73657273 
 7868      5C656475 
 7868      6C752E44 
 7868      45534B54 
 7869 08af 72656174 		.ascii	"reator\\Micrium\\Examples\\Cypress\\CY8CKIT-044\\OS"
 7869      6F725C4D 
 7869      69637269 
 7869      756D5C45 
 7869      78616D70 
 7870 08dd 325C5053 		.ascii	"2\\PSoC\\OS2.cydsn\000"
 7870      6F435C4F 
 7870      53322E63 
 7870      7964736E 
 7870      00
 7871              	.LASF117:
 7872 08ee 5F5F6C6F 		.ascii	"__lock\000"
 7872      636B00
 7873              	.LASF157:
 7874 08f5 4F535443 		.ascii	"OSTCBX\000"
 7874      425800
 7875              	.LASF158:
 7876 08fc 4F535443 		.ascii	"OSTCBY\000"
 7876      425900
 7877              	.LASF80:
 7878 0903 5F637674 		.ascii	"_cvtbuf\000"
 7878      62756600 
 7879              	.LASF1:
 7880 090b 756E7369 		.ascii	"unsigned char\000"
 7880      676E6564 
 7880      20636861 
 7880      7200
 7881              	.LASF165:
 7882 0919 4F53546D 		.ascii	"OSTmrType\000"
 7882      72547970 
 7882      6500
 7883              	.LASF224:
 7884 0923 70657272 		.ascii	"perr\000"
ARM GAS  C:\Users\EDULU~1.DES\AppData\Local\Temp\ccgrKYGn.s 			page 174


 7884      00
 7885              	.LASF134:
 7886 0928 4F534576 		.ascii	"OSEventPtr\000"
 7886      656E7450 
 7886      747200
 7887              	.LASF250:
 7888 0933 62697479 		.ascii	"bity_new\000"
 7888      5F6E6577 
 7888      00
 7889              	.LASF179:
 7890 093c 4F53546D 		.ascii	"OSTmrEntries\000"
 7890      72456E74 
 7890      72696573 
 7890      00
 7891              	.LASF107:
 7892 0949 5F676574 		.ascii	"_getdate_err\000"
 7892      64617465 
 7892      5F657272 
 7892      00
 7893              	.LASF205:
 7894 0956 4F535461 		.ascii	"OSTaskRegNextAvailID\000"
 7894      736B5265 
 7894      674E6578 
 7894      74417661 
 7894      696C4944 
 7895              	.LASF234:
 7896 096b 6E667265 		.ascii	"nfree\000"
 7896      6500
 7897              	.LASF247:
 7898 0971 795F6E65 		.ascii	"y_new\000"
 7898      7700
 7899              	.LASF94:
 7900 0977 5F616464 		.ascii	"_add\000"
 7900      00
 7901              	.LASF170:
 7902 097c 4F53546D 		.ascii	"OSTmrMatch\000"
 7902      724D6174 
 7902      636800
 7903              	.LASF229:
 7904 0987 4F535461 		.ascii	"OSTaskSuspend\000"
 7904      736B5375 
 7904      7370656E 
 7904      6400
 7905              	.LASF161:
 7906 0995 4F535443 		.ascii	"OSTCBRegTbl\000"
 7906      42526567 
 7906      54626C00 
 7907              	.LASF173:
 7908 09a1 4F53546D 		.ascii	"OSTmrName\000"
 7908      724E616D 
 7908      6500
 7909              	.LASF148:
 7910 09ab 4F535443 		.ascii	"OSTCBOpt\000"
 7910      424F7074 
 7910      00
 7911              	.LASF44:
 7912 09b4 5F5F7362 		.ascii	"__sbuf\000"
ARM GAS  C:\Users\EDULU~1.DES\AppData\Local\Temp\ccgrKYGn.s 			page 175


 7912      756600
 7913              	.LASF193:
 7914 09bb 4F535264 		.ascii	"OSRdyTbl\000"
 7914      7954626C 
 7914      00
 7915              	.LASF259:
 7916 09c4 4F535461 		.ascii	"OSTaskStkInit\000"
 7916      736B5374 
 7916      6B496E69 
 7916      7400
 7917              	.LASF88:
 7918 09d2 5F676C75 		.ascii	"_glue\000"
 7918      6500
 7919              	.LASF243:
 7920 09d8 4F535461 		.ascii	"OSTaskChangePrio\000"
 7920      736B4368 
 7920      616E6765 
 7920      5072696F 
 7920      00
 7921              	.LASF84:
 7922 09e9 5F5F7367 		.ascii	"__sglue\000"
 7922      6C756500 
 7923              	.LASF96:
 7924 09f1 5F737472 		.ascii	"_strtok_last\000"
 7924      746F6B5F 
 7924      6C617374 
 7924      00
 7925              	.LASF103:
 7926 09fe 5F6D6274 		.ascii	"_mbtowc_state\000"
 7926      6F77635F 
 7926      73746174 
 7926      6500
 7927              	.LASF72:
 7928 0a0c 5F6C6F63 		.ascii	"_locale\000"
 7928      616C6500 
 7929              	.LASF37:
 7930 0a14 5F666E61 		.ascii	"_fnargs\000"
 7930      72677300 
 7931              	.LASF0:
 7932 0a1c 7369676E 		.ascii	"signed char\000"
 7932      65642063 
 7932      68617200 
 7933              	.LASF152:
 7934 0a28 4F535443 		.ascii	"OSTCBEventPtr\000"
 7934      42457665 
 7934      6E745074 
 7934      7200
 7935              	.LASF64:
 7936 0a36 5F726565 		.ascii	"_reent\000"
 7936      6E7400
 7937              	.LASF3:
 7938 0a3d 73686F72 		.ascii	"short unsigned int\000"
 7938      7420756E 
 7938      7369676E 
 7938      65642069 
 7938      6E7400
 7939              	.LASF133:
ARM GAS  C:\Users\EDULU~1.DES\AppData\Local\Temp\ccgrKYGn.s 			page 176


 7940 0a50 4F534576 		.ascii	"OSEventType\000"
 7940      656E7454 
 7940      79706500 
 7941              	.LASF203:
 7942 0a5c 4F535443 		.ascii	"OSTCBTbl\000"
 7942      4254626C 
 7942      00
 7943              	.LASF39:
 7944 0a65 5F666E74 		.ascii	"_fntypes\000"
 7944      79706573 
 7944      00
 7945              	.LASF46:
 7946 0a6e 5F73697A 		.ascii	"_size\000"
 7946      6500
 7947              	.LASF126:
 7948 0a74 646F7562 		.ascii	"double\000"
 7948      6C6500
 7949              	.LASF262:
 7950 0a7b 2E2E5C2E 		.ascii	"..\\..\\..\\..\\..\\..\\Software\\uCOS-II\\Source\\"
 7950      2E5C2E2E 
 7950      5C2E2E5C 
 7950      2E2E5C2E 
 7950      2E5C536F 
 7951 0aa5 6F735F74 		.ascii	"os_task.c\000"
 7951      61736B2E 
 7951      6300
 7952              	.LASF199:
 7953 0aaf 4F535443 		.ascii	"OSTCBFreeList\000"
 7953      42467265 
 7953      654C6973 
 7953      7400
 7954              	.LASF11:
 7955 0abd 5F6F6666 		.ascii	"_off_t\000"
 7955      5F7400
 7956              	.LASF57:
 7957 0ac4 5F6E6275 		.ascii	"_nbuf\000"
 7957      6600
 7958              	.LASF95:
 7959 0aca 5F756E75 		.ascii	"_unused_rand\000"
 7959      7365645F 
 7959      72616E64 
 7959      00
 7960              	.LASF162:
 7961 0ad7 4F535F54 		.ascii	"OS_TCB\000"
 7961      434200
 7962              	.LASF71:
 7963 0ade 5F756E73 		.ascii	"_unspecified_locale_info\000"
 7963      70656369 
 7963      66696564 
 7963      5F6C6F63 
 7963      616C655F 
 7964              	.LASF260:
 7965 0af7 4F535F54 		.ascii	"OS_TCBInit\000"
 7965      4342496E 
 7965      697400
 7966              	.LASF63:
 7967 0b02 5F666C61 		.ascii	"_flags2\000"
ARM GAS  C:\Users\EDULU~1.DES\AppData\Local\Temp\ccgrKYGn.s 			page 177


 7967      67733200 
 7968              	.LASF40:
 7969 0b0a 5F69735F 		.ascii	"_is_cxa\000"
 7969      63786100 
 7970              	.LASF212:
 7971 0b12 4F53546D 		.ascii	"OSTmrTbl\000"
 7971      7254626C 
 7971      00
 7972              	.LASF214:
 7973 0b1b 4F53546D 		.ascii	"OSTmrTaskStk\000"
 7973      72546173 
 7973      6B53746B 
 7973      00
 7974              	.LASF92:
 7975 0b28 5F736565 		.ascii	"_seed\000"
 7975      6400
 7976              	.LASF100:
 7977 0b2e 5F72616E 		.ascii	"_rand_next\000"
 7977      645F6E65 
 7977      787400
 7978              	.LASF118:
 7979 0b39 5F5F6C6F 		.ascii	"__locale_t\000"
 7979      63616C65 
 7979      5F7400
 7980              	.LASF54:
 7981 0b44 5F736565 		.ascii	"_seek\000"
 7981      6B00
 7982              	.LASF177:
 7983 0b4a 6F735F74 		.ascii	"os_tmr_wheel\000"
 7983      6D725F77 
 7983      6865656C 
 7983      00
 7984              	.LASF68:
 7985 0b57 5F737464 		.ascii	"_stderr\000"
 7985      65727200 
 7986              	.LASF115:
 7987 0b5f 5F6E6D61 		.ascii	"_nmalloc\000"
 7987      6C6C6F63 
 7987      00
 7988              	.LASF56:
 7989 0b68 5F756275 		.ascii	"_ubuf\000"
 7989      6600
 7990              	.LASF184:
 7991 0b6e 4F534964 		.ascii	"OSIdleCtrMax\000"
 7991      6C654374 
 7991      724D6178 
 7991      00
 7992              		.ident	"GCC: (GNU Tools for Arm Embedded Processors 8-2018-q4-major) 8.2.1 20181213 (release) [gcc
