ARM GAS  C:\Users\EDULU~1.DES\AppData\Local\Temp\ccgGDU6w.s 			page 1


   1              		.cpu cortex-m0
   2              		.eabi_attribute 20, 1
   3              		.eabi_attribute 21, 1
   4              		.eabi_attribute 23, 3
   5              		.eabi_attribute 24, 1
   6              		.eabi_attribute 25, 1
   7              		.eabi_attribute 26, 1
   8              		.eabi_attribute 30, 1
   9              		.eabi_attribute 34, 0
  10              		.eabi_attribute 18, 4
  11              		.file	"Temp_Sensor_EOC_ISR.c"
  12              		.text
  13              	.Ltext0:
  14              		.cfi_sections	.debug_frame
  15              		.section	.text.Temp_Sensor_EOC_ISR_Interrupt,"ax",%progbits
  16              		.align	1
  17              		.global	Temp_Sensor_EOC_ISR_Interrupt
  18              		.arch armv6s-m
  19              		.syntax unified
  20              		.code	16
  21              		.thumb_func
  22              		.fpu softvfp
  23              		.type	Temp_Sensor_EOC_ISR_Interrupt, %function
  24              	Temp_Sensor_EOC_ISR_Interrupt:
  25              	.LFB3:
  26              		.file 1 "Generated_Source\\PSoC4\\Temp_Sensor_EOC_ISR.c"
   1:Generated_Source\PSoC4/Temp_Sensor_EOC_ISR.c **** /*******************************************************************************
   2:Generated_Source\PSoC4/Temp_Sensor_EOC_ISR.c **** * File Name: Temp_Sensor_EOC_ISR.c  
   3:Generated_Source\PSoC4/Temp_Sensor_EOC_ISR.c **** * Version 1.70
   4:Generated_Source\PSoC4/Temp_Sensor_EOC_ISR.c **** *
   5:Generated_Source\PSoC4/Temp_Sensor_EOC_ISR.c **** *  Description:
   6:Generated_Source\PSoC4/Temp_Sensor_EOC_ISR.c **** *   API for controlling the state of an interrupt.
   7:Generated_Source\PSoC4/Temp_Sensor_EOC_ISR.c **** *
   8:Generated_Source\PSoC4/Temp_Sensor_EOC_ISR.c **** *
   9:Generated_Source\PSoC4/Temp_Sensor_EOC_ISR.c **** *  Note:
  10:Generated_Source\PSoC4/Temp_Sensor_EOC_ISR.c **** *
  11:Generated_Source\PSoC4/Temp_Sensor_EOC_ISR.c **** ********************************************************************************
  12:Generated_Source\PSoC4/Temp_Sensor_EOC_ISR.c **** * Copyright 2008-2015, Cypress Semiconductor Corporation.  All rights reserved.
  13:Generated_Source\PSoC4/Temp_Sensor_EOC_ISR.c **** * You may use this file only in accordance with the license, terms, conditions, 
  14:Generated_Source\PSoC4/Temp_Sensor_EOC_ISR.c **** * disclaimers, and limitations in the end user license agreement accompanying 
  15:Generated_Source\PSoC4/Temp_Sensor_EOC_ISR.c **** * the software package with which this file was provided.
  16:Generated_Source\PSoC4/Temp_Sensor_EOC_ISR.c **** *******************************************************************************/
  17:Generated_Source\PSoC4/Temp_Sensor_EOC_ISR.c **** 
  18:Generated_Source\PSoC4/Temp_Sensor_EOC_ISR.c **** 
  19:Generated_Source\PSoC4/Temp_Sensor_EOC_ISR.c **** #include <cydevice_trm.h>
  20:Generated_Source\PSoC4/Temp_Sensor_EOC_ISR.c **** #include <CyLib.h>
  21:Generated_Source\PSoC4/Temp_Sensor_EOC_ISR.c **** #include <Temp_Sensor_EOC_ISR.h>
  22:Generated_Source\PSoC4/Temp_Sensor_EOC_ISR.c **** 
  23:Generated_Source\PSoC4/Temp_Sensor_EOC_ISR.c **** 
  24:Generated_Source\PSoC4/Temp_Sensor_EOC_ISR.c **** #if !defined(Temp_Sensor_EOC_ISR__REMOVED) /* Check for removal by optimization */
  25:Generated_Source\PSoC4/Temp_Sensor_EOC_ISR.c **** 
  26:Generated_Source\PSoC4/Temp_Sensor_EOC_ISR.c **** /*******************************************************************************
  27:Generated_Source\PSoC4/Temp_Sensor_EOC_ISR.c **** *  Place your includes, defines and code here 
  28:Generated_Source\PSoC4/Temp_Sensor_EOC_ISR.c **** ********************************************************************************/
  29:Generated_Source\PSoC4/Temp_Sensor_EOC_ISR.c **** /* `#START Temp_Sensor_EOC_ISR_intc` */
  30:Generated_Source\PSoC4/Temp_Sensor_EOC_ISR.c **** 
  31:Generated_Source\PSoC4/Temp_Sensor_EOC_ISR.c **** /* `#END` */
ARM GAS  C:\Users\EDULU~1.DES\AppData\Local\Temp\ccgGDU6w.s 			page 2


  32:Generated_Source\PSoC4/Temp_Sensor_EOC_ISR.c **** 
  33:Generated_Source\PSoC4/Temp_Sensor_EOC_ISR.c **** extern cyisraddress CyRamVectors[CYINT_IRQ_BASE + CY_NUM_INTERRUPTS];
  34:Generated_Source\PSoC4/Temp_Sensor_EOC_ISR.c **** 
  35:Generated_Source\PSoC4/Temp_Sensor_EOC_ISR.c **** /* Declared in startup, used to set unused interrupts to. */
  36:Generated_Source\PSoC4/Temp_Sensor_EOC_ISR.c **** CY_ISR_PROTO(IntDefaultHandler);
  37:Generated_Source\PSoC4/Temp_Sensor_EOC_ISR.c **** 
  38:Generated_Source\PSoC4/Temp_Sensor_EOC_ISR.c **** 
  39:Generated_Source\PSoC4/Temp_Sensor_EOC_ISR.c **** /*******************************************************************************
  40:Generated_Source\PSoC4/Temp_Sensor_EOC_ISR.c **** * Function Name: Temp_Sensor_EOC_ISR_Start
  41:Generated_Source\PSoC4/Temp_Sensor_EOC_ISR.c **** ********************************************************************************
  42:Generated_Source\PSoC4/Temp_Sensor_EOC_ISR.c **** *
  43:Generated_Source\PSoC4/Temp_Sensor_EOC_ISR.c **** * Summary:
  44:Generated_Source\PSoC4/Temp_Sensor_EOC_ISR.c **** *  Set up the interrupt and enable it. This function disables the interrupt, 
  45:Generated_Source\PSoC4/Temp_Sensor_EOC_ISR.c **** *  sets the default interrupt vector, sets the priority from the value in the
  46:Generated_Source\PSoC4/Temp_Sensor_EOC_ISR.c **** *  Design Wide Resources Interrupt Editor, then enables the interrupt to the 
  47:Generated_Source\PSoC4/Temp_Sensor_EOC_ISR.c **** *  interrupt controller.
  48:Generated_Source\PSoC4/Temp_Sensor_EOC_ISR.c **** *
  49:Generated_Source\PSoC4/Temp_Sensor_EOC_ISR.c **** * Parameters:  
  50:Generated_Source\PSoC4/Temp_Sensor_EOC_ISR.c **** *   None
  51:Generated_Source\PSoC4/Temp_Sensor_EOC_ISR.c **** *
  52:Generated_Source\PSoC4/Temp_Sensor_EOC_ISR.c **** * Return:
  53:Generated_Source\PSoC4/Temp_Sensor_EOC_ISR.c **** *   None
  54:Generated_Source\PSoC4/Temp_Sensor_EOC_ISR.c **** *
  55:Generated_Source\PSoC4/Temp_Sensor_EOC_ISR.c **** *******************************************************************************/
  56:Generated_Source\PSoC4/Temp_Sensor_EOC_ISR.c **** void Temp_Sensor_EOC_ISR_Start(void)
  57:Generated_Source\PSoC4/Temp_Sensor_EOC_ISR.c **** {
  58:Generated_Source\PSoC4/Temp_Sensor_EOC_ISR.c ****     /* For all we know the interrupt is active. */
  59:Generated_Source\PSoC4/Temp_Sensor_EOC_ISR.c ****     Temp_Sensor_EOC_ISR_Disable();
  60:Generated_Source\PSoC4/Temp_Sensor_EOC_ISR.c **** 
  61:Generated_Source\PSoC4/Temp_Sensor_EOC_ISR.c ****     /* Set the ISR to point to the Temp_Sensor_EOC_ISR Interrupt. */
  62:Generated_Source\PSoC4/Temp_Sensor_EOC_ISR.c ****     Temp_Sensor_EOC_ISR_SetVector(&Temp_Sensor_EOC_ISR_Interrupt);
  63:Generated_Source\PSoC4/Temp_Sensor_EOC_ISR.c **** 
  64:Generated_Source\PSoC4/Temp_Sensor_EOC_ISR.c ****     /* Set the priority. */
  65:Generated_Source\PSoC4/Temp_Sensor_EOC_ISR.c ****     Temp_Sensor_EOC_ISR_SetPriority((uint8)Temp_Sensor_EOC_ISR_INTC_PRIOR_NUMBER);
  66:Generated_Source\PSoC4/Temp_Sensor_EOC_ISR.c **** 
  67:Generated_Source\PSoC4/Temp_Sensor_EOC_ISR.c ****     /* Enable it. */
  68:Generated_Source\PSoC4/Temp_Sensor_EOC_ISR.c ****     Temp_Sensor_EOC_ISR_Enable();
  69:Generated_Source\PSoC4/Temp_Sensor_EOC_ISR.c **** }
  70:Generated_Source\PSoC4/Temp_Sensor_EOC_ISR.c **** 
  71:Generated_Source\PSoC4/Temp_Sensor_EOC_ISR.c **** 
  72:Generated_Source\PSoC4/Temp_Sensor_EOC_ISR.c **** /*******************************************************************************
  73:Generated_Source\PSoC4/Temp_Sensor_EOC_ISR.c **** * Function Name: Temp_Sensor_EOC_ISR_StartEx
  74:Generated_Source\PSoC4/Temp_Sensor_EOC_ISR.c **** ********************************************************************************
  75:Generated_Source\PSoC4/Temp_Sensor_EOC_ISR.c **** *
  76:Generated_Source\PSoC4/Temp_Sensor_EOC_ISR.c **** * Summary:
  77:Generated_Source\PSoC4/Temp_Sensor_EOC_ISR.c **** *  Sets up the interrupt and enables it. This function disables the interrupt,
  78:Generated_Source\PSoC4/Temp_Sensor_EOC_ISR.c **** *  sets the interrupt vector based on the address passed in, sets the priority 
  79:Generated_Source\PSoC4/Temp_Sensor_EOC_ISR.c **** *  from the value in the Design Wide Resources Interrupt Editor, then enables 
  80:Generated_Source\PSoC4/Temp_Sensor_EOC_ISR.c **** *  the interrupt to the interrupt controller.
  81:Generated_Source\PSoC4/Temp_Sensor_EOC_ISR.c **** *  
  82:Generated_Source\PSoC4/Temp_Sensor_EOC_ISR.c **** *  When defining ISR functions, the CY_ISR and CY_ISR_PROTO macros should be 
  83:Generated_Source\PSoC4/Temp_Sensor_EOC_ISR.c **** *  used to provide consistent definition across compilers:
  84:Generated_Source\PSoC4/Temp_Sensor_EOC_ISR.c **** *  
  85:Generated_Source\PSoC4/Temp_Sensor_EOC_ISR.c **** *  Function definition example:
  86:Generated_Source\PSoC4/Temp_Sensor_EOC_ISR.c **** *   CY_ISR(MyISR)
  87:Generated_Source\PSoC4/Temp_Sensor_EOC_ISR.c **** *   {
  88:Generated_Source\PSoC4/Temp_Sensor_EOC_ISR.c **** *   }
ARM GAS  C:\Users\EDULU~1.DES\AppData\Local\Temp\ccgGDU6w.s 			page 3


  89:Generated_Source\PSoC4/Temp_Sensor_EOC_ISR.c **** *   Function prototype example:
  90:Generated_Source\PSoC4/Temp_Sensor_EOC_ISR.c **** *   CY_ISR_PROTO(MyISR);
  91:Generated_Source\PSoC4/Temp_Sensor_EOC_ISR.c **** *
  92:Generated_Source\PSoC4/Temp_Sensor_EOC_ISR.c **** * Parameters:  
  93:Generated_Source\PSoC4/Temp_Sensor_EOC_ISR.c **** *   address: Address of the ISR to set in the interrupt vector table.
  94:Generated_Source\PSoC4/Temp_Sensor_EOC_ISR.c **** *
  95:Generated_Source\PSoC4/Temp_Sensor_EOC_ISR.c **** * Return:
  96:Generated_Source\PSoC4/Temp_Sensor_EOC_ISR.c **** *   None
  97:Generated_Source\PSoC4/Temp_Sensor_EOC_ISR.c **** *
  98:Generated_Source\PSoC4/Temp_Sensor_EOC_ISR.c **** *******************************************************************************/
  99:Generated_Source\PSoC4/Temp_Sensor_EOC_ISR.c **** void Temp_Sensor_EOC_ISR_StartEx(cyisraddress address)
 100:Generated_Source\PSoC4/Temp_Sensor_EOC_ISR.c **** {
 101:Generated_Source\PSoC4/Temp_Sensor_EOC_ISR.c ****     /* For all we know the interrupt is active. */
 102:Generated_Source\PSoC4/Temp_Sensor_EOC_ISR.c ****     Temp_Sensor_EOC_ISR_Disable();
 103:Generated_Source\PSoC4/Temp_Sensor_EOC_ISR.c **** 
 104:Generated_Source\PSoC4/Temp_Sensor_EOC_ISR.c ****     /* Set the ISR to point to the Temp_Sensor_EOC_ISR Interrupt. */
 105:Generated_Source\PSoC4/Temp_Sensor_EOC_ISR.c ****     Temp_Sensor_EOC_ISR_SetVector(address);
 106:Generated_Source\PSoC4/Temp_Sensor_EOC_ISR.c **** 
 107:Generated_Source\PSoC4/Temp_Sensor_EOC_ISR.c ****     /* Set the priority. */
 108:Generated_Source\PSoC4/Temp_Sensor_EOC_ISR.c ****     Temp_Sensor_EOC_ISR_SetPriority((uint8)Temp_Sensor_EOC_ISR_INTC_PRIOR_NUMBER);
 109:Generated_Source\PSoC4/Temp_Sensor_EOC_ISR.c **** 
 110:Generated_Source\PSoC4/Temp_Sensor_EOC_ISR.c ****     /* Enable it. */
 111:Generated_Source\PSoC4/Temp_Sensor_EOC_ISR.c ****     Temp_Sensor_EOC_ISR_Enable();
 112:Generated_Source\PSoC4/Temp_Sensor_EOC_ISR.c **** }
 113:Generated_Source\PSoC4/Temp_Sensor_EOC_ISR.c **** 
 114:Generated_Source\PSoC4/Temp_Sensor_EOC_ISR.c **** 
 115:Generated_Source\PSoC4/Temp_Sensor_EOC_ISR.c **** /*******************************************************************************
 116:Generated_Source\PSoC4/Temp_Sensor_EOC_ISR.c **** * Function Name: Temp_Sensor_EOC_ISR_Stop
 117:Generated_Source\PSoC4/Temp_Sensor_EOC_ISR.c **** ********************************************************************************
 118:Generated_Source\PSoC4/Temp_Sensor_EOC_ISR.c **** *
 119:Generated_Source\PSoC4/Temp_Sensor_EOC_ISR.c **** * Summary:
 120:Generated_Source\PSoC4/Temp_Sensor_EOC_ISR.c **** *   Disables and removes the interrupt.
 121:Generated_Source\PSoC4/Temp_Sensor_EOC_ISR.c **** *
 122:Generated_Source\PSoC4/Temp_Sensor_EOC_ISR.c **** * Parameters:  
 123:Generated_Source\PSoC4/Temp_Sensor_EOC_ISR.c **** *   None
 124:Generated_Source\PSoC4/Temp_Sensor_EOC_ISR.c **** *
 125:Generated_Source\PSoC4/Temp_Sensor_EOC_ISR.c **** * Return:
 126:Generated_Source\PSoC4/Temp_Sensor_EOC_ISR.c **** *   None
 127:Generated_Source\PSoC4/Temp_Sensor_EOC_ISR.c **** *
 128:Generated_Source\PSoC4/Temp_Sensor_EOC_ISR.c **** *******************************************************************************/
 129:Generated_Source\PSoC4/Temp_Sensor_EOC_ISR.c **** void Temp_Sensor_EOC_ISR_Stop(void)
 130:Generated_Source\PSoC4/Temp_Sensor_EOC_ISR.c **** {
 131:Generated_Source\PSoC4/Temp_Sensor_EOC_ISR.c ****     /* Disable this interrupt. */
 132:Generated_Source\PSoC4/Temp_Sensor_EOC_ISR.c ****     Temp_Sensor_EOC_ISR_Disable();
 133:Generated_Source\PSoC4/Temp_Sensor_EOC_ISR.c **** 
 134:Generated_Source\PSoC4/Temp_Sensor_EOC_ISR.c ****     /* Set the ISR to point to the passive one. */
 135:Generated_Source\PSoC4/Temp_Sensor_EOC_ISR.c ****     Temp_Sensor_EOC_ISR_SetVector(&IntDefaultHandler);
 136:Generated_Source\PSoC4/Temp_Sensor_EOC_ISR.c **** }
 137:Generated_Source\PSoC4/Temp_Sensor_EOC_ISR.c **** 
 138:Generated_Source\PSoC4/Temp_Sensor_EOC_ISR.c **** 
 139:Generated_Source\PSoC4/Temp_Sensor_EOC_ISR.c **** /*******************************************************************************
 140:Generated_Source\PSoC4/Temp_Sensor_EOC_ISR.c **** * Function Name: Temp_Sensor_EOC_ISR_Interrupt
 141:Generated_Source\PSoC4/Temp_Sensor_EOC_ISR.c **** ********************************************************************************
 142:Generated_Source\PSoC4/Temp_Sensor_EOC_ISR.c **** *
 143:Generated_Source\PSoC4/Temp_Sensor_EOC_ISR.c **** * Summary:
 144:Generated_Source\PSoC4/Temp_Sensor_EOC_ISR.c **** *   The default Interrupt Service Routine for Temp_Sensor_EOC_ISR.
 145:Generated_Source\PSoC4/Temp_Sensor_EOC_ISR.c **** *
ARM GAS  C:\Users\EDULU~1.DES\AppData\Local\Temp\ccgGDU6w.s 			page 4


 146:Generated_Source\PSoC4/Temp_Sensor_EOC_ISR.c **** *   Add custom code between the START and END comments to keep the next version
 147:Generated_Source\PSoC4/Temp_Sensor_EOC_ISR.c **** *   of this file from over-writing your code.
 148:Generated_Source\PSoC4/Temp_Sensor_EOC_ISR.c **** *
 149:Generated_Source\PSoC4/Temp_Sensor_EOC_ISR.c **** *   Note You may use either the default ISR by using this API, or you may define
 150:Generated_Source\PSoC4/Temp_Sensor_EOC_ISR.c **** *   your own separate ISR through ISR_StartEx().
 151:Generated_Source\PSoC4/Temp_Sensor_EOC_ISR.c **** *
 152:Generated_Source\PSoC4/Temp_Sensor_EOC_ISR.c **** * Parameters:  
 153:Generated_Source\PSoC4/Temp_Sensor_EOC_ISR.c **** *   None
 154:Generated_Source\PSoC4/Temp_Sensor_EOC_ISR.c **** *
 155:Generated_Source\PSoC4/Temp_Sensor_EOC_ISR.c **** * Return:
 156:Generated_Source\PSoC4/Temp_Sensor_EOC_ISR.c **** *   None
 157:Generated_Source\PSoC4/Temp_Sensor_EOC_ISR.c **** *
 158:Generated_Source\PSoC4/Temp_Sensor_EOC_ISR.c **** *******************************************************************************/
 159:Generated_Source\PSoC4/Temp_Sensor_EOC_ISR.c **** CY_ISR(Temp_Sensor_EOC_ISR_Interrupt)
 160:Generated_Source\PSoC4/Temp_Sensor_EOC_ISR.c **** {
  27              		.loc 1 160 1 view -0
  28              		.cfi_startproc
  29              		@ args = 0, pretend = 0, frame = 0
  30              		@ frame_needed = 0, uses_anonymous_args = 0
  31              		@ link register save eliminated.
 161:Generated_Source\PSoC4/Temp_Sensor_EOC_ISR.c ****     #ifdef Temp_Sensor_EOC_ISR_INTERRUPT_INTERRUPT_CALLBACK
 162:Generated_Source\PSoC4/Temp_Sensor_EOC_ISR.c ****         Temp_Sensor_EOC_ISR_Interrupt_InterruptCallback();
 163:Generated_Source\PSoC4/Temp_Sensor_EOC_ISR.c ****     #endif /* Temp_Sensor_EOC_ISR_INTERRUPT_INTERRUPT_CALLBACK */ 
 164:Generated_Source\PSoC4/Temp_Sensor_EOC_ISR.c **** 
 165:Generated_Source\PSoC4/Temp_Sensor_EOC_ISR.c ****     /*  Place your Interrupt code here. */
 166:Generated_Source\PSoC4/Temp_Sensor_EOC_ISR.c ****     /* `#START Temp_Sensor_EOC_ISR_Interrupt` */
 167:Generated_Source\PSoC4/Temp_Sensor_EOC_ISR.c **** 
 168:Generated_Source\PSoC4/Temp_Sensor_EOC_ISR.c ****     /* `#END` */
 169:Generated_Source\PSoC4/Temp_Sensor_EOC_ISR.c **** }
  32              		.loc 1 169 1 view .LVU1
  33              		@ sp needed
  34 0000 7047     		bx	lr
  35              		.cfi_endproc
  36              	.LFE3:
  37              		.size	Temp_Sensor_EOC_ISR_Interrupt, .-Temp_Sensor_EOC_ISR_Interrupt
  38              		.section	.text.Temp_Sensor_EOC_ISR_SetVector,"ax",%progbits
  39              		.align	1
  40              		.global	Temp_Sensor_EOC_ISR_SetVector
  41              		.syntax unified
  42              		.code	16
  43              		.thumb_func
  44              		.fpu softvfp
  45              		.type	Temp_Sensor_EOC_ISR_SetVector, %function
  46              	Temp_Sensor_EOC_ISR_SetVector:
  47              	.LVL0:
  48              	.LFB4:
 170:Generated_Source\PSoC4/Temp_Sensor_EOC_ISR.c **** 
 171:Generated_Source\PSoC4/Temp_Sensor_EOC_ISR.c **** 
 172:Generated_Source\PSoC4/Temp_Sensor_EOC_ISR.c **** /*******************************************************************************
 173:Generated_Source\PSoC4/Temp_Sensor_EOC_ISR.c **** * Function Name: Temp_Sensor_EOC_ISR_SetVector
 174:Generated_Source\PSoC4/Temp_Sensor_EOC_ISR.c **** ********************************************************************************
 175:Generated_Source\PSoC4/Temp_Sensor_EOC_ISR.c **** *
 176:Generated_Source\PSoC4/Temp_Sensor_EOC_ISR.c **** * Summary:
 177:Generated_Source\PSoC4/Temp_Sensor_EOC_ISR.c **** *   Change the ISR vector for the Interrupt. Note calling Temp_Sensor_EOC_ISR_Start
 178:Generated_Source\PSoC4/Temp_Sensor_EOC_ISR.c **** *   will override any effect this method would have had. To set the vector 
 179:Generated_Source\PSoC4/Temp_Sensor_EOC_ISR.c **** *   before the component has been started use Temp_Sensor_EOC_ISR_StartEx instead.
 180:Generated_Source\PSoC4/Temp_Sensor_EOC_ISR.c **** * 
ARM GAS  C:\Users\EDULU~1.DES\AppData\Local\Temp\ccgGDU6w.s 			page 5


 181:Generated_Source\PSoC4/Temp_Sensor_EOC_ISR.c **** *   When defining ISR functions, the CY_ISR and CY_ISR_PROTO macros should be 
 182:Generated_Source\PSoC4/Temp_Sensor_EOC_ISR.c **** *   used to provide consistent definition across compilers:
 183:Generated_Source\PSoC4/Temp_Sensor_EOC_ISR.c **** *
 184:Generated_Source\PSoC4/Temp_Sensor_EOC_ISR.c **** *   Function definition example:
 185:Generated_Source\PSoC4/Temp_Sensor_EOC_ISR.c **** *   CY_ISR(MyISR)
 186:Generated_Source\PSoC4/Temp_Sensor_EOC_ISR.c **** *   {
 187:Generated_Source\PSoC4/Temp_Sensor_EOC_ISR.c **** *   }
 188:Generated_Source\PSoC4/Temp_Sensor_EOC_ISR.c **** *
 189:Generated_Source\PSoC4/Temp_Sensor_EOC_ISR.c **** *   Function prototype example:
 190:Generated_Source\PSoC4/Temp_Sensor_EOC_ISR.c **** *     CY_ISR_PROTO(MyISR);
 191:Generated_Source\PSoC4/Temp_Sensor_EOC_ISR.c **** *
 192:Generated_Source\PSoC4/Temp_Sensor_EOC_ISR.c **** * Parameters:
 193:Generated_Source\PSoC4/Temp_Sensor_EOC_ISR.c **** *   address: Address of the ISR to set in the interrupt vector table.
 194:Generated_Source\PSoC4/Temp_Sensor_EOC_ISR.c **** *
 195:Generated_Source\PSoC4/Temp_Sensor_EOC_ISR.c **** * Return:
 196:Generated_Source\PSoC4/Temp_Sensor_EOC_ISR.c **** *   None
 197:Generated_Source\PSoC4/Temp_Sensor_EOC_ISR.c **** *
 198:Generated_Source\PSoC4/Temp_Sensor_EOC_ISR.c **** *******************************************************************************/
 199:Generated_Source\PSoC4/Temp_Sensor_EOC_ISR.c **** void Temp_Sensor_EOC_ISR_SetVector(cyisraddress address)
 200:Generated_Source\PSoC4/Temp_Sensor_EOC_ISR.c **** {
  49              		.loc 1 200 1 view -0
  50              		.cfi_startproc
  51              		@ args = 0, pretend = 0, frame = 0
  52              		@ frame_needed = 0, uses_anonymous_args = 0
  53              		@ link register save eliminated.
 201:Generated_Source\PSoC4/Temp_Sensor_EOC_ISR.c ****     CyRamVectors[CYINT_IRQ_BASE + Temp_Sensor_EOC_ISR__INTC_NUMBER] = address;
  54              		.loc 1 201 5 view .LVU3
  55              		.loc 1 201 69 is_stmt 0 view .LVU4
  56 0000 014B     		ldr	r3, .L3
  57 0002 1864     		str	r0, [r3, #64]
 202:Generated_Source\PSoC4/Temp_Sensor_EOC_ISR.c **** }
  58              		.loc 1 202 1 view .LVU5
  59              		@ sp needed
  60 0004 7047     		bx	lr
  61              	.L4:
  62 0006 C046     		.align	2
  63              	.L3:
  64 0008 00000000 		.word	CyRamVectors
  65              		.cfi_endproc
  66              	.LFE4:
  67              		.size	Temp_Sensor_EOC_ISR_SetVector, .-Temp_Sensor_EOC_ISR_SetVector
  68              		.section	.text.Temp_Sensor_EOC_ISR_GetVector,"ax",%progbits
  69              		.align	1
  70              		.global	Temp_Sensor_EOC_ISR_GetVector
  71              		.syntax unified
  72              		.code	16
  73              		.thumb_func
  74              		.fpu softvfp
  75              		.type	Temp_Sensor_EOC_ISR_GetVector, %function
  76              	Temp_Sensor_EOC_ISR_GetVector:
  77              	.LFB5:
 203:Generated_Source\PSoC4/Temp_Sensor_EOC_ISR.c **** 
 204:Generated_Source\PSoC4/Temp_Sensor_EOC_ISR.c **** 
 205:Generated_Source\PSoC4/Temp_Sensor_EOC_ISR.c **** /*******************************************************************************
 206:Generated_Source\PSoC4/Temp_Sensor_EOC_ISR.c **** * Function Name: Temp_Sensor_EOC_ISR_GetVector
 207:Generated_Source\PSoC4/Temp_Sensor_EOC_ISR.c **** ********************************************************************************
 208:Generated_Source\PSoC4/Temp_Sensor_EOC_ISR.c **** *
ARM GAS  C:\Users\EDULU~1.DES\AppData\Local\Temp\ccgGDU6w.s 			page 6


 209:Generated_Source\PSoC4/Temp_Sensor_EOC_ISR.c **** * Summary:
 210:Generated_Source\PSoC4/Temp_Sensor_EOC_ISR.c **** *   Gets the "address" of the current ISR vector for the Interrupt.
 211:Generated_Source\PSoC4/Temp_Sensor_EOC_ISR.c **** *
 212:Generated_Source\PSoC4/Temp_Sensor_EOC_ISR.c **** * Parameters:
 213:Generated_Source\PSoC4/Temp_Sensor_EOC_ISR.c **** *   None
 214:Generated_Source\PSoC4/Temp_Sensor_EOC_ISR.c **** *
 215:Generated_Source\PSoC4/Temp_Sensor_EOC_ISR.c **** * Return:
 216:Generated_Source\PSoC4/Temp_Sensor_EOC_ISR.c **** *   Address of the ISR in the interrupt vector table.
 217:Generated_Source\PSoC4/Temp_Sensor_EOC_ISR.c **** *
 218:Generated_Source\PSoC4/Temp_Sensor_EOC_ISR.c **** *******************************************************************************/
 219:Generated_Source\PSoC4/Temp_Sensor_EOC_ISR.c **** cyisraddress Temp_Sensor_EOC_ISR_GetVector(void)
 220:Generated_Source\PSoC4/Temp_Sensor_EOC_ISR.c **** {
  78              		.loc 1 220 1 is_stmt 1 view -0
  79              		.cfi_startproc
  80              		@ args = 0, pretend = 0, frame = 0
  81              		@ frame_needed = 0, uses_anonymous_args = 0
  82              		@ link register save eliminated.
 221:Generated_Source\PSoC4/Temp_Sensor_EOC_ISR.c ****     return CyRamVectors[CYINT_IRQ_BASE + Temp_Sensor_EOC_ISR__INTC_NUMBER];
  83              		.loc 1 221 5 view .LVU7
  84              		.loc 1 221 24 is_stmt 0 view .LVU8
  85 0000 014B     		ldr	r3, .L6
  86 0002 186C     		ldr	r0, [r3, #64]
 222:Generated_Source\PSoC4/Temp_Sensor_EOC_ISR.c **** }
  87              		.loc 1 222 1 view .LVU9
  88              		@ sp needed
  89 0004 7047     		bx	lr
  90              	.L7:
  91 0006 C046     		.align	2
  92              	.L6:
  93 0008 00000000 		.word	CyRamVectors
  94              		.cfi_endproc
  95              	.LFE5:
  96              		.size	Temp_Sensor_EOC_ISR_GetVector, .-Temp_Sensor_EOC_ISR_GetVector
  97              		.section	.text.Temp_Sensor_EOC_ISR_SetPriority,"ax",%progbits
  98              		.align	1
  99              		.global	Temp_Sensor_EOC_ISR_SetPriority
 100              		.syntax unified
 101              		.code	16
 102              		.thumb_func
 103              		.fpu softvfp
 104              		.type	Temp_Sensor_EOC_ISR_SetPriority, %function
 105              	Temp_Sensor_EOC_ISR_SetPriority:
 106              	.LVL1:
 107              	.LFB6:
 223:Generated_Source\PSoC4/Temp_Sensor_EOC_ISR.c **** 
 224:Generated_Source\PSoC4/Temp_Sensor_EOC_ISR.c **** 
 225:Generated_Source\PSoC4/Temp_Sensor_EOC_ISR.c **** /*******************************************************************************
 226:Generated_Source\PSoC4/Temp_Sensor_EOC_ISR.c **** * Function Name: Temp_Sensor_EOC_ISR_SetPriority
 227:Generated_Source\PSoC4/Temp_Sensor_EOC_ISR.c **** ********************************************************************************
 228:Generated_Source\PSoC4/Temp_Sensor_EOC_ISR.c **** *
 229:Generated_Source\PSoC4/Temp_Sensor_EOC_ISR.c **** * Summary:
 230:Generated_Source\PSoC4/Temp_Sensor_EOC_ISR.c **** *   Sets the Priority of the Interrupt. 
 231:Generated_Source\PSoC4/Temp_Sensor_EOC_ISR.c **** *
 232:Generated_Source\PSoC4/Temp_Sensor_EOC_ISR.c **** *   Note calling Temp_Sensor_EOC_ISR_Start or Temp_Sensor_EOC_ISR_StartEx will 
 233:Generated_Source\PSoC4/Temp_Sensor_EOC_ISR.c **** *   override any effect this API would have had. This API should only be called
 234:Generated_Source\PSoC4/Temp_Sensor_EOC_ISR.c **** *   after Temp_Sensor_EOC_ISR_Start or Temp_Sensor_EOC_ISR_StartEx has been called. 
 235:Generated_Source\PSoC4/Temp_Sensor_EOC_ISR.c **** *   To set the initial priority for the component, use the Design-Wide Resources
ARM GAS  C:\Users\EDULU~1.DES\AppData\Local\Temp\ccgGDU6w.s 			page 7


 236:Generated_Source\PSoC4/Temp_Sensor_EOC_ISR.c **** *   Interrupt Editor.
 237:Generated_Source\PSoC4/Temp_Sensor_EOC_ISR.c **** *
 238:Generated_Source\PSoC4/Temp_Sensor_EOC_ISR.c **** *   Note This API has no effect on Non-maskable interrupt NMI).
 239:Generated_Source\PSoC4/Temp_Sensor_EOC_ISR.c **** *
 240:Generated_Source\PSoC4/Temp_Sensor_EOC_ISR.c **** * Parameters:
 241:Generated_Source\PSoC4/Temp_Sensor_EOC_ISR.c **** *   priority: Priority of the interrupt, 0 being the highest priority
 242:Generated_Source\PSoC4/Temp_Sensor_EOC_ISR.c **** *             PSoC 3 and PSoC 5LP: Priority is from 0 to 7.
 243:Generated_Source\PSoC4/Temp_Sensor_EOC_ISR.c **** *             PSoC 4: Priority is from 0 to 3.
 244:Generated_Source\PSoC4/Temp_Sensor_EOC_ISR.c **** *
 245:Generated_Source\PSoC4/Temp_Sensor_EOC_ISR.c **** * Return:
 246:Generated_Source\PSoC4/Temp_Sensor_EOC_ISR.c **** *   None
 247:Generated_Source\PSoC4/Temp_Sensor_EOC_ISR.c **** *
 248:Generated_Source\PSoC4/Temp_Sensor_EOC_ISR.c **** *******************************************************************************/
 249:Generated_Source\PSoC4/Temp_Sensor_EOC_ISR.c **** void Temp_Sensor_EOC_ISR_SetPriority(uint8 priority)
 250:Generated_Source\PSoC4/Temp_Sensor_EOC_ISR.c **** {
 108              		.loc 1 250 1 is_stmt 1 view -0
 109              		.cfi_startproc
 110              		@ args = 0, pretend = 0, frame = 0
 111              		@ frame_needed = 0, uses_anonymous_args = 0
 112              		.loc 1 250 1 is_stmt 0 view .LVU11
 113 0000 10B5     		push	{r4, lr}
 114              		.cfi_def_cfa_offset 8
 115              		.cfi_offset 4, -8
 116              		.cfi_offset 14, -4
 117 0002 0400     		movs	r4, r0
 251:Generated_Source\PSoC4/Temp_Sensor_EOC_ISR.c **** 	uint8 interruptState;
 118              		.loc 1 251 2 is_stmt 1 view .LVU12
 252:Generated_Source\PSoC4/Temp_Sensor_EOC_ISR.c ****     uint32 priorityOffset = ((Temp_Sensor_EOC_ISR__INTC_NUMBER % 4u) * 8u) + 6u;
 119              		.loc 1 252 5 view .LVU13
 120              	.LVL2:
 253:Generated_Source\PSoC4/Temp_Sensor_EOC_ISR.c ****     
 254:Generated_Source\PSoC4/Temp_Sensor_EOC_ISR.c **** 	interruptState = CyEnterCriticalSection();
 121              		.loc 1 254 2 view .LVU14
 122              		.loc 1 254 19 is_stmt 0 view .LVU15
 123 0004 FFF7FEFF 		bl	CyEnterCriticalSection
 124              	.LVL3:
 255:Generated_Source\PSoC4/Temp_Sensor_EOC_ISR.c ****     *Temp_Sensor_EOC_ISR_INTC_PRIOR = (*Temp_Sensor_EOC_ISR_INTC_PRIOR & (uint32)(~Temp_Sensor_EOC_
 125              		.loc 1 255 5 is_stmt 1 view .LVU16
 126              		.loc 1 255 40 is_stmt 0 view .LVU17
 127 0008 044A     		ldr	r2, .L9
 128 000a 1368     		ldr	r3, [r2]
 129              		.loc 1 255 72 view .LVU18
 130 000c C021     		movs	r1, #192
 131 000e 8B43     		bics	r3, r1
 256:Generated_Source\PSoC4/Temp_Sensor_EOC_ISR.c ****                                     ((uint32)priority << priorityOffset);
 132              		.loc 1 256 55 view .LVU19
 133 0010 A401     		lsls	r4, r4, #6
 255:Generated_Source\PSoC4/Temp_Sensor_EOC_ISR.c ****     *Temp_Sensor_EOC_ISR_INTC_PRIOR = (*Temp_Sensor_EOC_ISR_INTC_PRIOR & (uint32)(~Temp_Sensor_EOC_
 134              		.loc 1 255 123 view .LVU20
 135 0012 2343     		orrs	r3, r4
 255:Generated_Source\PSoC4/Temp_Sensor_EOC_ISR.c ****     *Temp_Sensor_EOC_ISR_INTC_PRIOR = (*Temp_Sensor_EOC_ISR_INTC_PRIOR & (uint32)(~Temp_Sensor_EOC_
 136              		.loc 1 255 37 view .LVU21
 137 0014 1360     		str	r3, [r2]
 257:Generated_Source\PSoC4/Temp_Sensor_EOC_ISR.c **** 	CyExitCriticalSection(interruptState);
 138              		.loc 1 257 2 is_stmt 1 view .LVU22
 139 0016 FFF7FEFF 		bl	CyExitCriticalSection
 140              	.LVL4:
ARM GAS  C:\Users\EDULU~1.DES\AppData\Local\Temp\ccgGDU6w.s 			page 8


 258:Generated_Source\PSoC4/Temp_Sensor_EOC_ISR.c **** }
 141              		.loc 1 258 1 is_stmt 0 view .LVU23
 142              		@ sp needed
 143 001a 10BD     		pop	{r4, pc}
 144              	.L10:
 145              		.align	2
 146              	.L9:
 147 001c 00E400E0 		.word	-536812544
 148              		.cfi_endproc
 149              	.LFE6:
 150              		.size	Temp_Sensor_EOC_ISR_SetPriority, .-Temp_Sensor_EOC_ISR_SetPriority
 151              		.section	.text.Temp_Sensor_EOC_ISR_GetPriority,"ax",%progbits
 152              		.align	1
 153              		.global	Temp_Sensor_EOC_ISR_GetPriority
 154              		.syntax unified
 155              		.code	16
 156              		.thumb_func
 157              		.fpu softvfp
 158              		.type	Temp_Sensor_EOC_ISR_GetPriority, %function
 159              	Temp_Sensor_EOC_ISR_GetPriority:
 160              	.LFB7:
 259:Generated_Source\PSoC4/Temp_Sensor_EOC_ISR.c **** 
 260:Generated_Source\PSoC4/Temp_Sensor_EOC_ISR.c **** 
 261:Generated_Source\PSoC4/Temp_Sensor_EOC_ISR.c **** /*******************************************************************************
 262:Generated_Source\PSoC4/Temp_Sensor_EOC_ISR.c **** * Function Name: Temp_Sensor_EOC_ISR_GetPriority
 263:Generated_Source\PSoC4/Temp_Sensor_EOC_ISR.c **** ********************************************************************************
 264:Generated_Source\PSoC4/Temp_Sensor_EOC_ISR.c **** *
 265:Generated_Source\PSoC4/Temp_Sensor_EOC_ISR.c **** * Summary:
 266:Generated_Source\PSoC4/Temp_Sensor_EOC_ISR.c **** *   Gets the Priority of the Interrupt.
 267:Generated_Source\PSoC4/Temp_Sensor_EOC_ISR.c **** *
 268:Generated_Source\PSoC4/Temp_Sensor_EOC_ISR.c **** * Parameters:
 269:Generated_Source\PSoC4/Temp_Sensor_EOC_ISR.c **** *   None
 270:Generated_Source\PSoC4/Temp_Sensor_EOC_ISR.c **** *
 271:Generated_Source\PSoC4/Temp_Sensor_EOC_ISR.c **** * Return:
 272:Generated_Source\PSoC4/Temp_Sensor_EOC_ISR.c **** *   Priority of the interrupt, 0 being the highest priority
 273:Generated_Source\PSoC4/Temp_Sensor_EOC_ISR.c **** *    PSoC 3 and PSoC 5LP: Priority is from 0 to 7.
 274:Generated_Source\PSoC4/Temp_Sensor_EOC_ISR.c **** *    PSoC 4: Priority is from 0 to 3.
 275:Generated_Source\PSoC4/Temp_Sensor_EOC_ISR.c **** *
 276:Generated_Source\PSoC4/Temp_Sensor_EOC_ISR.c **** *******************************************************************************/
 277:Generated_Source\PSoC4/Temp_Sensor_EOC_ISR.c **** uint8 Temp_Sensor_EOC_ISR_GetPriority(void)
 278:Generated_Source\PSoC4/Temp_Sensor_EOC_ISR.c **** {
 161              		.loc 1 278 1 is_stmt 1 view -0
 162              		.cfi_startproc
 163              		@ args = 0, pretend = 0, frame = 0
 164              		@ frame_needed = 0, uses_anonymous_args = 0
 165              		@ link register save eliminated.
 279:Generated_Source\PSoC4/Temp_Sensor_EOC_ISR.c ****     uint32 priority;
 166              		.loc 1 279 5 view .LVU25
 280:Generated_Source\PSoC4/Temp_Sensor_EOC_ISR.c **** 	uint32 priorityOffset = ((Temp_Sensor_EOC_ISR__INTC_NUMBER % 4u) * 8u) + 6u;
 167              		.loc 1 280 2 view .LVU26
 168              	.LVL5:
 281:Generated_Source\PSoC4/Temp_Sensor_EOC_ISR.c **** 
 282:Generated_Source\PSoC4/Temp_Sensor_EOC_ISR.c ****     priority = (*Temp_Sensor_EOC_ISR_INTC_PRIOR & Temp_Sensor_EOC_ISR__INTC_PRIOR_MASK) >> priority
 169              		.loc 1 282 5 view .LVU27
 170              		.loc 1 282 17 is_stmt 0 view .LVU28
 171 0000 024B     		ldr	r3, .L12
 172 0002 1B68     		ldr	r3, [r3]
ARM GAS  C:\Users\EDULU~1.DES\AppData\Local\Temp\ccgGDU6w.s 			page 9


 173              		.loc 1 282 14 view .LVU29
 174 0004 9B09     		lsrs	r3, r3, #6
 175              	.LVL6:
 283:Generated_Source\PSoC4/Temp_Sensor_EOC_ISR.c **** 
 284:Generated_Source\PSoC4/Temp_Sensor_EOC_ISR.c ****     return (uint8)priority;
 176              		.loc 1 284 5 is_stmt 1 view .LVU30
 177              		.loc 1 284 12 is_stmt 0 view .LVU31
 178 0006 0320     		movs	r0, #3
 179 0008 1840     		ands	r0, r3
 180              	.LVL7:
 285:Generated_Source\PSoC4/Temp_Sensor_EOC_ISR.c **** }
 181              		.loc 1 285 1 view .LVU32
 182              		@ sp needed
 183 000a 7047     		bx	lr
 184              	.L13:
 185              		.align	2
 186              	.L12:
 187 000c 00E400E0 		.word	-536812544
 188              		.cfi_endproc
 189              	.LFE7:
 190              		.size	Temp_Sensor_EOC_ISR_GetPriority, .-Temp_Sensor_EOC_ISR_GetPriority
 191              		.section	.text.Temp_Sensor_EOC_ISR_Enable,"ax",%progbits
 192              		.align	1
 193              		.global	Temp_Sensor_EOC_ISR_Enable
 194              		.syntax unified
 195              		.code	16
 196              		.thumb_func
 197              		.fpu softvfp
 198              		.type	Temp_Sensor_EOC_ISR_Enable, %function
 199              	Temp_Sensor_EOC_ISR_Enable:
 200              	.LFB8:
 286:Generated_Source\PSoC4/Temp_Sensor_EOC_ISR.c **** 
 287:Generated_Source\PSoC4/Temp_Sensor_EOC_ISR.c **** 
 288:Generated_Source\PSoC4/Temp_Sensor_EOC_ISR.c **** /*******************************************************************************
 289:Generated_Source\PSoC4/Temp_Sensor_EOC_ISR.c **** * Function Name: Temp_Sensor_EOC_ISR_Enable
 290:Generated_Source\PSoC4/Temp_Sensor_EOC_ISR.c **** ********************************************************************************
 291:Generated_Source\PSoC4/Temp_Sensor_EOC_ISR.c **** *
 292:Generated_Source\PSoC4/Temp_Sensor_EOC_ISR.c **** * Summary:
 293:Generated_Source\PSoC4/Temp_Sensor_EOC_ISR.c **** *   Enables the interrupt to the interrupt controller. Do not call this function
 294:Generated_Source\PSoC4/Temp_Sensor_EOC_ISR.c **** *   unless ISR_Start() has been called or the functionality of the ISR_Start() 
 295:Generated_Source\PSoC4/Temp_Sensor_EOC_ISR.c **** *   function, which sets the vector and the priority, has been called.
 296:Generated_Source\PSoC4/Temp_Sensor_EOC_ISR.c **** *
 297:Generated_Source\PSoC4/Temp_Sensor_EOC_ISR.c **** * Parameters:
 298:Generated_Source\PSoC4/Temp_Sensor_EOC_ISR.c **** *   None
 299:Generated_Source\PSoC4/Temp_Sensor_EOC_ISR.c **** *
 300:Generated_Source\PSoC4/Temp_Sensor_EOC_ISR.c **** * Return:
 301:Generated_Source\PSoC4/Temp_Sensor_EOC_ISR.c **** *   None
 302:Generated_Source\PSoC4/Temp_Sensor_EOC_ISR.c **** *
 303:Generated_Source\PSoC4/Temp_Sensor_EOC_ISR.c **** *******************************************************************************/
 304:Generated_Source\PSoC4/Temp_Sensor_EOC_ISR.c **** void Temp_Sensor_EOC_ISR_Enable(void)
 305:Generated_Source\PSoC4/Temp_Sensor_EOC_ISR.c **** {
 201              		.loc 1 305 1 is_stmt 1 view -0
 202              		.cfi_startproc
 203              		@ args = 0, pretend = 0, frame = 0
 204              		@ frame_needed = 0, uses_anonymous_args = 0
 205              		@ link register save eliminated.
 306:Generated_Source\PSoC4/Temp_Sensor_EOC_ISR.c ****     /* Enable the general interrupt. */
ARM GAS  C:\Users\EDULU~1.DES\AppData\Local\Temp\ccgGDU6w.s 			page 10


 307:Generated_Source\PSoC4/Temp_Sensor_EOC_ISR.c ****     *Temp_Sensor_EOC_ISR_INTC_SET_EN = Temp_Sensor_EOC_ISR__INTC_MASK;
 206              		.loc 1 307 5 view .LVU34
 207              		.loc 1 307 38 is_stmt 0 view .LVU35
 208 0000 014B     		ldr	r3, .L15
 209 0002 0122     		movs	r2, #1
 210 0004 1A60     		str	r2, [r3]
 308:Generated_Source\PSoC4/Temp_Sensor_EOC_ISR.c **** }
 211              		.loc 1 308 1 view .LVU36
 212              		@ sp needed
 213 0006 7047     		bx	lr
 214              	.L16:
 215              		.align	2
 216              	.L15:
 217 0008 00E100E0 		.word	-536813312
 218              		.cfi_endproc
 219              	.LFE8:
 220              		.size	Temp_Sensor_EOC_ISR_Enable, .-Temp_Sensor_EOC_ISR_Enable
 221              		.section	.text.Temp_Sensor_EOC_ISR_GetState,"ax",%progbits
 222              		.align	1
 223              		.global	Temp_Sensor_EOC_ISR_GetState
 224              		.syntax unified
 225              		.code	16
 226              		.thumb_func
 227              		.fpu softvfp
 228              		.type	Temp_Sensor_EOC_ISR_GetState, %function
 229              	Temp_Sensor_EOC_ISR_GetState:
 230              	.LFB9:
 309:Generated_Source\PSoC4/Temp_Sensor_EOC_ISR.c **** 
 310:Generated_Source\PSoC4/Temp_Sensor_EOC_ISR.c **** 
 311:Generated_Source\PSoC4/Temp_Sensor_EOC_ISR.c **** /*******************************************************************************
 312:Generated_Source\PSoC4/Temp_Sensor_EOC_ISR.c **** * Function Name: Temp_Sensor_EOC_ISR_GetState
 313:Generated_Source\PSoC4/Temp_Sensor_EOC_ISR.c **** ********************************************************************************
 314:Generated_Source\PSoC4/Temp_Sensor_EOC_ISR.c **** *
 315:Generated_Source\PSoC4/Temp_Sensor_EOC_ISR.c **** * Summary:
 316:Generated_Source\PSoC4/Temp_Sensor_EOC_ISR.c **** *   Gets the state (enabled, disabled) of the Interrupt.
 317:Generated_Source\PSoC4/Temp_Sensor_EOC_ISR.c **** *
 318:Generated_Source\PSoC4/Temp_Sensor_EOC_ISR.c **** * Parameters:
 319:Generated_Source\PSoC4/Temp_Sensor_EOC_ISR.c **** *   None
 320:Generated_Source\PSoC4/Temp_Sensor_EOC_ISR.c **** *
 321:Generated_Source\PSoC4/Temp_Sensor_EOC_ISR.c **** * Return:
 322:Generated_Source\PSoC4/Temp_Sensor_EOC_ISR.c **** *   1 if enabled, 0 if disabled.
 323:Generated_Source\PSoC4/Temp_Sensor_EOC_ISR.c **** *
 324:Generated_Source\PSoC4/Temp_Sensor_EOC_ISR.c **** *******************************************************************************/
 325:Generated_Source\PSoC4/Temp_Sensor_EOC_ISR.c **** uint8 Temp_Sensor_EOC_ISR_GetState(void)
 326:Generated_Source\PSoC4/Temp_Sensor_EOC_ISR.c **** {
 231              		.loc 1 326 1 is_stmt 1 view -0
 232              		.cfi_startproc
 233              		@ args = 0, pretend = 0, frame = 0
 234              		@ frame_needed = 0, uses_anonymous_args = 0
 235              		@ link register save eliminated.
 327:Generated_Source\PSoC4/Temp_Sensor_EOC_ISR.c ****     /* Get the state of the general interrupt. */
 328:Generated_Source\PSoC4/Temp_Sensor_EOC_ISR.c ****     return ((*Temp_Sensor_EOC_ISR_INTC_SET_EN & (uint32)Temp_Sensor_EOC_ISR__INTC_MASK) != 0u) ? 1u
 236              		.loc 1 328 5 view .LVU38
 237              		.loc 1 328 14 is_stmt 0 view .LVU39
 238 0000 024B     		ldr	r3, .L18
 239 0002 1B68     		ldr	r3, [r3]
 240              		.loc 1 328 100 view .LVU40
ARM GAS  C:\Users\EDULU~1.DES\AppData\Local\Temp\ccgGDU6w.s 			page 11


 241 0004 0120     		movs	r0, #1
 242 0006 1840     		ands	r0, r3
 329:Generated_Source\PSoC4/Temp_Sensor_EOC_ISR.c **** }
 243              		.loc 1 329 1 view .LVU41
 244              		@ sp needed
 245 0008 7047     		bx	lr
 246              	.L19:
 247 000a C046     		.align	2
 248              	.L18:
 249 000c 00E100E0 		.word	-536813312
 250              		.cfi_endproc
 251              	.LFE9:
 252              		.size	Temp_Sensor_EOC_ISR_GetState, .-Temp_Sensor_EOC_ISR_GetState
 253              		.section	.text.Temp_Sensor_EOC_ISR_Disable,"ax",%progbits
 254              		.align	1
 255              		.global	Temp_Sensor_EOC_ISR_Disable
 256              		.syntax unified
 257              		.code	16
 258              		.thumb_func
 259              		.fpu softvfp
 260              		.type	Temp_Sensor_EOC_ISR_Disable, %function
 261              	Temp_Sensor_EOC_ISR_Disable:
 262              	.LFB10:
 330:Generated_Source\PSoC4/Temp_Sensor_EOC_ISR.c **** 
 331:Generated_Source\PSoC4/Temp_Sensor_EOC_ISR.c **** 
 332:Generated_Source\PSoC4/Temp_Sensor_EOC_ISR.c **** /*******************************************************************************
 333:Generated_Source\PSoC4/Temp_Sensor_EOC_ISR.c **** * Function Name: Temp_Sensor_EOC_ISR_Disable
 334:Generated_Source\PSoC4/Temp_Sensor_EOC_ISR.c **** ********************************************************************************
 335:Generated_Source\PSoC4/Temp_Sensor_EOC_ISR.c **** *
 336:Generated_Source\PSoC4/Temp_Sensor_EOC_ISR.c **** * Summary:
 337:Generated_Source\PSoC4/Temp_Sensor_EOC_ISR.c **** *   Disables the Interrupt in the interrupt controller.
 338:Generated_Source\PSoC4/Temp_Sensor_EOC_ISR.c **** *
 339:Generated_Source\PSoC4/Temp_Sensor_EOC_ISR.c **** * Parameters:
 340:Generated_Source\PSoC4/Temp_Sensor_EOC_ISR.c **** *   None
 341:Generated_Source\PSoC4/Temp_Sensor_EOC_ISR.c **** *
 342:Generated_Source\PSoC4/Temp_Sensor_EOC_ISR.c **** * Return:
 343:Generated_Source\PSoC4/Temp_Sensor_EOC_ISR.c **** *   None
 344:Generated_Source\PSoC4/Temp_Sensor_EOC_ISR.c **** *
 345:Generated_Source\PSoC4/Temp_Sensor_EOC_ISR.c **** *******************************************************************************/
 346:Generated_Source\PSoC4/Temp_Sensor_EOC_ISR.c **** void Temp_Sensor_EOC_ISR_Disable(void)
 347:Generated_Source\PSoC4/Temp_Sensor_EOC_ISR.c **** {
 263              		.loc 1 347 1 is_stmt 1 view -0
 264              		.cfi_startproc
 265              		@ args = 0, pretend = 0, frame = 0
 266              		@ frame_needed = 0, uses_anonymous_args = 0
 267              		@ link register save eliminated.
 348:Generated_Source\PSoC4/Temp_Sensor_EOC_ISR.c ****     /* Disable the general interrupt. */
 349:Generated_Source\PSoC4/Temp_Sensor_EOC_ISR.c ****     *Temp_Sensor_EOC_ISR_INTC_CLR_EN = Temp_Sensor_EOC_ISR__INTC_MASK;
 268              		.loc 1 349 5 view .LVU43
 269              		.loc 1 349 38 is_stmt 0 view .LVU44
 270 0000 014B     		ldr	r3, .L21
 271 0002 0122     		movs	r2, #1
 272 0004 1A60     		str	r2, [r3]
 350:Generated_Source\PSoC4/Temp_Sensor_EOC_ISR.c **** }
 273              		.loc 1 350 1 view .LVU45
 274              		@ sp needed
 275 0006 7047     		bx	lr
ARM GAS  C:\Users\EDULU~1.DES\AppData\Local\Temp\ccgGDU6w.s 			page 12


 276              	.L22:
 277              		.align	2
 278              	.L21:
 279 0008 80E100E0 		.word	-536813184
 280              		.cfi_endproc
 281              	.LFE10:
 282              		.size	Temp_Sensor_EOC_ISR_Disable, .-Temp_Sensor_EOC_ISR_Disable
 283              		.section	.text.Temp_Sensor_EOC_ISR_Start,"ax",%progbits
 284              		.align	1
 285              		.global	Temp_Sensor_EOC_ISR_Start
 286              		.syntax unified
 287              		.code	16
 288              		.thumb_func
 289              		.fpu softvfp
 290              		.type	Temp_Sensor_EOC_ISR_Start, %function
 291              	Temp_Sensor_EOC_ISR_Start:
 292              	.LFB0:
  57:Generated_Source\PSoC4/Temp_Sensor_EOC_ISR.c ****     /* For all we know the interrupt is active. */
 293              		.loc 1 57 1 is_stmt 1 view -0
 294              		.cfi_startproc
 295              		@ args = 0, pretend = 0, frame = 0
 296              		@ frame_needed = 0, uses_anonymous_args = 0
 297 0000 10B5     		push	{r4, lr}
 298              		.cfi_def_cfa_offset 8
 299              		.cfi_offset 4, -8
 300              		.cfi_offset 14, -4
  59:Generated_Source\PSoC4/Temp_Sensor_EOC_ISR.c **** 
 301              		.loc 1 59 5 view .LVU47
 302 0002 FFF7FEFF 		bl	Temp_Sensor_EOC_ISR_Disable
 303              	.LVL8:
  62:Generated_Source\PSoC4/Temp_Sensor_EOC_ISR.c **** 
 304              		.loc 1 62 5 view .LVU48
 305 0006 0448     		ldr	r0, .L24
 306 0008 FFF7FEFF 		bl	Temp_Sensor_EOC_ISR_SetVector
 307              	.LVL9:
  65:Generated_Source\PSoC4/Temp_Sensor_EOC_ISR.c **** 
 308              		.loc 1 65 5 view .LVU49
 309 000c 0320     		movs	r0, #3
 310 000e FFF7FEFF 		bl	Temp_Sensor_EOC_ISR_SetPriority
 311              	.LVL10:
  68:Generated_Source\PSoC4/Temp_Sensor_EOC_ISR.c **** }
 312              		.loc 1 68 5 view .LVU50
 313 0012 FFF7FEFF 		bl	Temp_Sensor_EOC_ISR_Enable
 314              	.LVL11:
  69:Generated_Source\PSoC4/Temp_Sensor_EOC_ISR.c **** 
 315              		.loc 1 69 1 is_stmt 0 view .LVU51
 316              		@ sp needed
 317 0016 10BD     		pop	{r4, pc}
 318              	.L25:
 319              		.align	2
 320              	.L24:
 321 0018 00000000 		.word	Temp_Sensor_EOC_ISR_Interrupt
 322              		.cfi_endproc
 323              	.LFE0:
 324              		.size	Temp_Sensor_EOC_ISR_Start, .-Temp_Sensor_EOC_ISR_Start
 325              		.section	.text.Temp_Sensor_EOC_ISR_StartEx,"ax",%progbits
 326              		.align	1
ARM GAS  C:\Users\EDULU~1.DES\AppData\Local\Temp\ccgGDU6w.s 			page 13


 327              		.global	Temp_Sensor_EOC_ISR_StartEx
 328              		.syntax unified
 329              		.code	16
 330              		.thumb_func
 331              		.fpu softvfp
 332              		.type	Temp_Sensor_EOC_ISR_StartEx, %function
 333              	Temp_Sensor_EOC_ISR_StartEx:
 334              	.LVL12:
 335              	.LFB1:
 100:Generated_Source\PSoC4/Temp_Sensor_EOC_ISR.c ****     /* For all we know the interrupt is active. */
 336              		.loc 1 100 1 is_stmt 1 view -0
 337              		.cfi_startproc
 338              		@ args = 0, pretend = 0, frame = 0
 339              		@ frame_needed = 0, uses_anonymous_args = 0
 100:Generated_Source\PSoC4/Temp_Sensor_EOC_ISR.c ****     /* For all we know the interrupt is active. */
 340              		.loc 1 100 1 is_stmt 0 view .LVU53
 341 0000 10B5     		push	{r4, lr}
 342              		.cfi_def_cfa_offset 8
 343              		.cfi_offset 4, -8
 344              		.cfi_offset 14, -4
 345 0002 0400     		movs	r4, r0
 102:Generated_Source\PSoC4/Temp_Sensor_EOC_ISR.c **** 
 346              		.loc 1 102 5 is_stmt 1 view .LVU54
 347 0004 FFF7FEFF 		bl	Temp_Sensor_EOC_ISR_Disable
 348              	.LVL13:
 105:Generated_Source\PSoC4/Temp_Sensor_EOC_ISR.c **** 
 349              		.loc 1 105 5 view .LVU55
 350 0008 2000     		movs	r0, r4
 351 000a FFF7FEFF 		bl	Temp_Sensor_EOC_ISR_SetVector
 352              	.LVL14:
 108:Generated_Source\PSoC4/Temp_Sensor_EOC_ISR.c **** 
 353              		.loc 1 108 5 view .LVU56
 354 000e 0320     		movs	r0, #3
 355 0010 FFF7FEFF 		bl	Temp_Sensor_EOC_ISR_SetPriority
 356              	.LVL15:
 111:Generated_Source\PSoC4/Temp_Sensor_EOC_ISR.c **** }
 357              		.loc 1 111 5 view .LVU57
 358 0014 FFF7FEFF 		bl	Temp_Sensor_EOC_ISR_Enable
 359              	.LVL16:
 112:Generated_Source\PSoC4/Temp_Sensor_EOC_ISR.c **** 
 360              		.loc 1 112 1 is_stmt 0 view .LVU58
 361              		@ sp needed
 362              	.LVL17:
 112:Generated_Source\PSoC4/Temp_Sensor_EOC_ISR.c **** 
 363              		.loc 1 112 1 view .LVU59
 364 0018 10BD     		pop	{r4, pc}
 365              		.cfi_endproc
 366              	.LFE1:
 367              		.size	Temp_Sensor_EOC_ISR_StartEx, .-Temp_Sensor_EOC_ISR_StartEx
 368              		.section	.text.Temp_Sensor_EOC_ISR_Stop,"ax",%progbits
 369              		.align	1
 370              		.global	Temp_Sensor_EOC_ISR_Stop
 371              		.syntax unified
 372              		.code	16
 373              		.thumb_func
 374              		.fpu softvfp
 375              		.type	Temp_Sensor_EOC_ISR_Stop, %function
ARM GAS  C:\Users\EDULU~1.DES\AppData\Local\Temp\ccgGDU6w.s 			page 14


 376              	Temp_Sensor_EOC_ISR_Stop:
 377              	.LFB2:
 130:Generated_Source\PSoC4/Temp_Sensor_EOC_ISR.c ****     /* Disable this interrupt. */
 378              		.loc 1 130 1 is_stmt 1 view -0
 379              		.cfi_startproc
 380              		@ args = 0, pretend = 0, frame = 0
 381              		@ frame_needed = 0, uses_anonymous_args = 0
 382 0000 10B5     		push	{r4, lr}
 383              		.cfi_def_cfa_offset 8
 384              		.cfi_offset 4, -8
 385              		.cfi_offset 14, -4
 132:Generated_Source\PSoC4/Temp_Sensor_EOC_ISR.c **** 
 386              		.loc 1 132 5 view .LVU61
 387 0002 FFF7FEFF 		bl	Temp_Sensor_EOC_ISR_Disable
 388              	.LVL18:
 135:Generated_Source\PSoC4/Temp_Sensor_EOC_ISR.c **** }
 389              		.loc 1 135 5 view .LVU62
 390 0006 0248     		ldr	r0, .L28
 391 0008 FFF7FEFF 		bl	Temp_Sensor_EOC_ISR_SetVector
 392              	.LVL19:
 136:Generated_Source\PSoC4/Temp_Sensor_EOC_ISR.c **** 
 393              		.loc 1 136 1 is_stmt 0 view .LVU63
 394              		@ sp needed
 395 000c 10BD     		pop	{r4, pc}
 396              	.L29:
 397 000e C046     		.align	2
 398              	.L28:
 399 0010 00000000 		.word	IntDefaultHandler
 400              		.cfi_endproc
 401              	.LFE2:
 402              		.size	Temp_Sensor_EOC_ISR_Stop, .-Temp_Sensor_EOC_ISR_Stop
 403              		.section	.text.Temp_Sensor_EOC_ISR_SetPending,"ax",%progbits
 404              		.align	1
 405              		.global	Temp_Sensor_EOC_ISR_SetPending
 406              		.syntax unified
 407              		.code	16
 408              		.thumb_func
 409              		.fpu softvfp
 410              		.type	Temp_Sensor_EOC_ISR_SetPending, %function
 411              	Temp_Sensor_EOC_ISR_SetPending:
 412              	.LFB11:
 351:Generated_Source\PSoC4/Temp_Sensor_EOC_ISR.c **** 
 352:Generated_Source\PSoC4/Temp_Sensor_EOC_ISR.c **** 
 353:Generated_Source\PSoC4/Temp_Sensor_EOC_ISR.c **** /*******************************************************************************
 354:Generated_Source\PSoC4/Temp_Sensor_EOC_ISR.c **** * Function Name: Temp_Sensor_EOC_ISR_SetPending
 355:Generated_Source\PSoC4/Temp_Sensor_EOC_ISR.c **** ********************************************************************************
 356:Generated_Source\PSoC4/Temp_Sensor_EOC_ISR.c **** *
 357:Generated_Source\PSoC4/Temp_Sensor_EOC_ISR.c **** * Summary:
 358:Generated_Source\PSoC4/Temp_Sensor_EOC_ISR.c **** *   Causes the Interrupt to enter the pending state, a software method of
 359:Generated_Source\PSoC4/Temp_Sensor_EOC_ISR.c **** *   generating the interrupt.
 360:Generated_Source\PSoC4/Temp_Sensor_EOC_ISR.c **** *
 361:Generated_Source\PSoC4/Temp_Sensor_EOC_ISR.c **** * Parameters:
 362:Generated_Source\PSoC4/Temp_Sensor_EOC_ISR.c **** *   None
 363:Generated_Source\PSoC4/Temp_Sensor_EOC_ISR.c **** *
 364:Generated_Source\PSoC4/Temp_Sensor_EOC_ISR.c **** * Return:
 365:Generated_Source\PSoC4/Temp_Sensor_EOC_ISR.c **** *   None
 366:Generated_Source\PSoC4/Temp_Sensor_EOC_ISR.c **** *
ARM GAS  C:\Users\EDULU~1.DES\AppData\Local\Temp\ccgGDU6w.s 			page 15


 367:Generated_Source\PSoC4/Temp_Sensor_EOC_ISR.c **** * Side Effects:
 368:Generated_Source\PSoC4/Temp_Sensor_EOC_ISR.c **** *   If interrupts are enabled and the interrupt is set up properly, the ISR is
 369:Generated_Source\PSoC4/Temp_Sensor_EOC_ISR.c **** *   entered (depending on the priority of this interrupt and other pending 
 370:Generated_Source\PSoC4/Temp_Sensor_EOC_ISR.c **** *   interrupts).
 371:Generated_Source\PSoC4/Temp_Sensor_EOC_ISR.c **** *
 372:Generated_Source\PSoC4/Temp_Sensor_EOC_ISR.c **** *******************************************************************************/
 373:Generated_Source\PSoC4/Temp_Sensor_EOC_ISR.c **** void Temp_Sensor_EOC_ISR_SetPending(void)
 374:Generated_Source\PSoC4/Temp_Sensor_EOC_ISR.c **** {
 413              		.loc 1 374 1 is_stmt 1 view -0
 414              		.cfi_startproc
 415              		@ args = 0, pretend = 0, frame = 0
 416              		@ frame_needed = 0, uses_anonymous_args = 0
 417              		@ link register save eliminated.
 375:Generated_Source\PSoC4/Temp_Sensor_EOC_ISR.c ****     *Temp_Sensor_EOC_ISR_INTC_SET_PD = Temp_Sensor_EOC_ISR__INTC_MASK;
 418              		.loc 1 375 5 view .LVU65
 419              		.loc 1 375 38 is_stmt 0 view .LVU66
 420 0000 014B     		ldr	r3, .L31
 421 0002 0122     		movs	r2, #1
 422 0004 1A60     		str	r2, [r3]
 376:Generated_Source\PSoC4/Temp_Sensor_EOC_ISR.c **** }
 423              		.loc 1 376 1 view .LVU67
 424              		@ sp needed
 425 0006 7047     		bx	lr
 426              	.L32:
 427              		.align	2
 428              	.L31:
 429 0008 00E200E0 		.word	-536813056
 430              		.cfi_endproc
 431              	.LFE11:
 432              		.size	Temp_Sensor_EOC_ISR_SetPending, .-Temp_Sensor_EOC_ISR_SetPending
 433              		.section	.text.Temp_Sensor_EOC_ISR_ClearPending,"ax",%progbits
 434              		.align	1
 435              		.global	Temp_Sensor_EOC_ISR_ClearPending
 436              		.syntax unified
 437              		.code	16
 438              		.thumb_func
 439              		.fpu softvfp
 440              		.type	Temp_Sensor_EOC_ISR_ClearPending, %function
 441              	Temp_Sensor_EOC_ISR_ClearPending:
 442              	.LFB12:
 377:Generated_Source\PSoC4/Temp_Sensor_EOC_ISR.c **** 
 378:Generated_Source\PSoC4/Temp_Sensor_EOC_ISR.c **** 
 379:Generated_Source\PSoC4/Temp_Sensor_EOC_ISR.c **** /*******************************************************************************
 380:Generated_Source\PSoC4/Temp_Sensor_EOC_ISR.c **** * Function Name: Temp_Sensor_EOC_ISR_ClearPending
 381:Generated_Source\PSoC4/Temp_Sensor_EOC_ISR.c **** ********************************************************************************
 382:Generated_Source\PSoC4/Temp_Sensor_EOC_ISR.c **** *
 383:Generated_Source\PSoC4/Temp_Sensor_EOC_ISR.c **** * Summary:
 384:Generated_Source\PSoC4/Temp_Sensor_EOC_ISR.c **** *   Clears a pending interrupt in the interrupt controller.
 385:Generated_Source\PSoC4/Temp_Sensor_EOC_ISR.c **** *
 386:Generated_Source\PSoC4/Temp_Sensor_EOC_ISR.c **** *   Note Some interrupt sources are clear-on-read and require the block 
 387:Generated_Source\PSoC4/Temp_Sensor_EOC_ISR.c **** *   interrupt/status register to be read/cleared with the appropriate block API 
 388:Generated_Source\PSoC4/Temp_Sensor_EOC_ISR.c **** *   (GPIO, UART, and so on). Otherwise the ISR will continue to remain in 
 389:Generated_Source\PSoC4/Temp_Sensor_EOC_ISR.c **** *   pending state even though the interrupt itself is cleared using this API.
 390:Generated_Source\PSoC4/Temp_Sensor_EOC_ISR.c **** *
 391:Generated_Source\PSoC4/Temp_Sensor_EOC_ISR.c **** * Parameters:
 392:Generated_Source\PSoC4/Temp_Sensor_EOC_ISR.c **** *   None
 393:Generated_Source\PSoC4/Temp_Sensor_EOC_ISR.c **** *
ARM GAS  C:\Users\EDULU~1.DES\AppData\Local\Temp\ccgGDU6w.s 			page 16


 394:Generated_Source\PSoC4/Temp_Sensor_EOC_ISR.c **** * Return:
 395:Generated_Source\PSoC4/Temp_Sensor_EOC_ISR.c **** *   None
 396:Generated_Source\PSoC4/Temp_Sensor_EOC_ISR.c **** *
 397:Generated_Source\PSoC4/Temp_Sensor_EOC_ISR.c **** *******************************************************************************/
 398:Generated_Source\PSoC4/Temp_Sensor_EOC_ISR.c **** void Temp_Sensor_EOC_ISR_ClearPending(void)
 399:Generated_Source\PSoC4/Temp_Sensor_EOC_ISR.c **** {
 443              		.loc 1 399 1 is_stmt 1 view -0
 444              		.cfi_startproc
 445              		@ args = 0, pretend = 0, frame = 0
 446              		@ frame_needed = 0, uses_anonymous_args = 0
 447              		@ link register save eliminated.
 400:Generated_Source\PSoC4/Temp_Sensor_EOC_ISR.c ****     *Temp_Sensor_EOC_ISR_INTC_CLR_PD = Temp_Sensor_EOC_ISR__INTC_MASK;
 448              		.loc 1 400 5 view .LVU69
 449              		.loc 1 400 38 is_stmt 0 view .LVU70
 450 0000 014B     		ldr	r3, .L34
 451 0002 0122     		movs	r2, #1
 452 0004 1A60     		str	r2, [r3]
 401:Generated_Source\PSoC4/Temp_Sensor_EOC_ISR.c **** }
 453              		.loc 1 401 1 view .LVU71
 454              		@ sp needed
 455 0006 7047     		bx	lr
 456              	.L35:
 457              		.align	2
 458              	.L34:
 459 0008 80E200E0 		.word	-536812928
 460              		.cfi_endproc
 461              	.LFE12:
 462              		.size	Temp_Sensor_EOC_ISR_ClearPending, .-Temp_Sensor_EOC_ISR_ClearPending
 463              		.text
 464              	.Letext0:
 465              		.file 2 "Generated_Source\\PSoC4/cytypes.h"
 466              		.file 3 "c:\\program files (x86)\\gnu tools arm embedded\\8 2018-q4-major\\arm-none-eabi\\include\
 467              		.file 4 "c:\\program files (x86)\\gnu tools arm embedded\\8 2018-q4-major\\arm-none-eabi\\include\
 468              		.file 5 "c:\\program files (x86)\\gnu tools arm embedded\\8 2018-q4-major\\lib\\gcc\\arm-none-eabi
 469              		.file 6 "c:\\program files (x86)\\gnu tools arm embedded\\8 2018-q4-major\\arm-none-eabi\\include\
 470              		.file 7 "c:\\program files (x86)\\gnu tools arm embedded\\8 2018-q4-major\\arm-none-eabi\\include\
 471              		.file 8 "Generated_Source\\PSoC4/CyLib.h"