ARM GAS  C:\Users\alex\AppData\Local\Temp\ccpvubq1.s 			page 1


   1              		.syntax unified
   2              		.cpu cortex-m3
   3              		.fpu softvfp
   4              		.eabi_attribute 20, 1
   5              		.eabi_attribute 21, 1
   6              		.eabi_attribute 23, 3
   7              		.eabi_attribute 24, 1
   8              		.eabi_attribute 25, 1
   9              		.eabi_attribute 26, 1
  10              		.eabi_attribute 30, 6
  11              		.eabi_attribute 34, 1
  12              		.eabi_attribute 18, 4
  13              		.thumb
  14              		.syntax unified
  15              		.file	"app.c"
  16              		.text
  17              	.Ltext0:
  18              		.cfi_sections	.debug_frame
  19              		.bss
  20              		.align	2
  21              	App_TaskStartTCB:
  22 0000 00000000 		.space	192
  22      00000000 
  22      00000000 
  22      00000000 
  22      00000000 
  23              		.align	2
  24              	App_TaskStartStk:
  25 00c0 00000000 		.space	512
  25      00000000 
  25      00000000 
  25      00000000 
  25      00000000 
  26              		.align	2
  27              	App_TaskUserIF_TCB:
  28 02c0 00000000 		.space	192
  28      00000000 
  28      00000000 
  28      00000000 
  28      00000000 
  29              		.align	2
  30              	App_TaskUserIFStk:
  31 0380 00000000 		.space	1024
  31      00000000 
  31      00000000 
  31      00000000 
  31      00000000 
  32              		.align	2
  33              	App_Task_Ihm_TCB:
  34 0780 00000000 		.space	192
  34      00000000 
  34      00000000 
  34      00000000 
  34      00000000 
  35              		.align	2
  36              	App_Task_Ihm_Stk:
  37 0840 00000000 		.space	256
ARM GAS  C:\Users\alex\AppData\Local\Temp\ccpvubq1.s 			page 2


  37      00000000 
  37      00000000 
  37      00000000 
  37      00000000 
  38              		.align	2
  39              	App_Task_Emerg_TCB:
  40 0940 00000000 		.space	192
  40      00000000 
  40      00000000 
  40      00000000 
  40      00000000 
  41              		.align	2
  42              	App_Task_Emerg_Stk:
  43 0a00 00000000 		.space	256
  43      00000000 
  43      00000000 
  43      00000000 
  43      00000000 
  44              		.align	2
  45              	App_Task_Sen_Mec_TCB:
  46 0b00 00000000 		.space	192
  46      00000000 
  46      00000000 
  46      00000000 
  46      00000000 
  47              		.align	2
  48              	App_Task_Sen_Mec_Stk:
  49 0bc0 00000000 		.space	256
  49      00000000 
  49      00000000 
  49      00000000 
  49      00000000 
  50              		.align	2
  51              	App_Task_Sen_Temp_TCB:
  52 0cc0 00000000 		.space	192
  52      00000000 
  52      00000000 
  52      00000000 
  52      00000000 
  53              		.align	2
  54              	App_Task_Sen_Temp_Stk:
  55 0d80 00000000 		.space	256
  55      00000000 
  55      00000000 
  55      00000000 
  55      00000000 
  56              		.align	2
  57              	App_Task_Display_TCB:
  58 0e80 00000000 		.space	192
  58      00000000 
  58      00000000 
  58      00000000 
  58      00000000 
  59              		.align	2
  60              	App_Task_Display_Stk:
  61 0f40 00000000 		.space	256
  61      00000000 
ARM GAS  C:\Users\alex\AppData\Local\Temp\ccpvubq1.s 			page 3


  61      00000000 
  61      00000000 
  61      00000000 
  62              		.align	2
  63              	App_Task_SV01_TCB:
  64 1040 00000000 		.space	192
  64      00000000 
  64      00000000 
  64      00000000 
  64      00000000 
  65              		.align	2
  66              	App_Task_SVO1_Stk:
  67 1100 00000000 		.space	1024
  67      00000000 
  67      00000000 
  67      00000000 
  67      00000000 
  68              		.align	2
  69              	App_Task_SP01_TCB:
  70 1500 00000000 		.space	192
  70      00000000 
  70      00000000 
  70      00000000 
  70      00000000 
  71              		.align	2
  72              	App_Task_SPO1_Stk:
  73 15c0 00000000 		.space	1024
  73      00000000 
  73      00000000 
  73      00000000 
  73      00000000 
  74              		.align	2
  75              	App_Task_SV02_TCB:
  76 19c0 00000000 		.space	192
  76      00000000 
  76      00000000 
  76      00000000 
  76      00000000 
  77              		.align	2
  78              	App_Task_SVO2_Stk:
  79 1a80 00000000 		.space	1024
  79      00000000 
  79      00000000 
  79      00000000 
  79      00000000 
  80              		.align	2
  81              	App_Task_SP02_TCB:
  82 1e80 00000000 		.space	192
  82      00000000 
  82      00000000 
  82      00000000 
  82      00000000 
  83              		.align	2
  84              	App_Task_SPO2_Stk:
  85 1f40 00000000 		.space	1024
  85      00000000 
  85      00000000 
ARM GAS  C:\Users\alex\AppData\Local\Temp\ccpvubq1.s 			page 4


  85      00000000 
  85      00000000 
  86              		.global	bp01Msg
  87              		.type	bp01Msg, %object
  88              		.size	bp01Msg, 1
  89              	bp01Msg:
  90 2340 00       		.space	1
  91              		.global	bp02Msg
  92              		.type	bp02Msg, %object
  93              		.size	bp02Msg, 1
  94              	bp02Msg:
  95 2341 00       		.space	1
  96              		.comm	err_ISR,2,2
  97              		.global	t_qtde1
  98              		.align	1
  99              		.type	t_qtde1, %object
 100              		.size	t_qtde1, 2
 101              	t_qtde1:
 102 2342 0000     		.space	2
 103              		.global	t_qtde2
 104              		.align	1
 105              		.type	t_qtde2, %object
 106              		.size	t_qtde2, 2
 107              	t_qtde2:
 108 2344 0000     		.space	2
 109              		.global	t_qtde3
 110              		.data
 111              		.align	1
 112              		.type	t_qtde3, %object
 113              		.size	t_qtde3, 2
 114              	t_qtde3:
 115 0000 3200     		.short	50
 116              		.global	t_qtde4
 117              		.align	1
 118              		.type	t_qtde4, %object
 119              		.size	t_qtde4, 2
 120              	t_qtde4:
 121 0002 3200     		.short	50
 122              		.section	.text.Pin_BP01_Handler,"ax",%progbits
 123              		.align	2
 124              		.global	Pin_BP01_Handler
 125              		.thumb
 126              		.thumb_func
 127              		.type	Pin_BP01_Handler, %function
 128              	Pin_BP01_Handler:
 129              	.LFB64:
 130              		.file 1 "..\\app.c"
   1:..\app.c      **** /*
   2:..\app.c      **** ***************************************************************************************************
   3:..\app.c      **** *                                              EXAMPLE CODE
   4:..\app.c      **** *
   5:..\app.c      **** *                             (c) Copyright 2012; Micrium, Inc.; Weston, FL
   6:..\app.c      **** *
   7:..\app.c      **** *               All rights reserved.  Protected by international copyright laws.
   8:..\app.c      **** *               Knowledge of the source code may NOT be used to develop a similar product.
   9:..\app.c      **** *               Please help us continue to provide the Embedded community with the finest
  10:..\app.c      **** *               software available.  Your honesty is greatly appreciated.
ARM GAS  C:\Users\alex\AppData\Local\Temp\ccpvubq1.s 			page 5


  11:..\app.c      **** ***************************************************************************************************
  12:..\app.c      **** */
  13:..\app.c      **** 
  14:..\app.c      **** /*
  15:..\app.c      **** ***************************************************************************************************
  16:..\app.c      **** *
  17:..\app.c      **** *                                           EXAMPLE CODE
  18:..\app.c      **** *
  19:..\app.c      **** *                                           CYPRESS PSoC5
  20:..\app.c      **** *                                              with the
  21:..\app.c      **** *                                     CY8CKIT-050 Development Kit
  22:..\app.c      **** *
  23:..\app.c      **** * Filename      : app.c
  24:..\app.c      **** * Version       : V1.00
  25:..\app.c      **** * Programmer(s) : DC
  26:..\app.c      ****                   
  27:..\app.c      **** ***************************************************************************************************
  28:..\app.c      **** */
  29:..\app.c      **** 
  30:..\app.c      **** /*
  31:..\app.c      **** ***************************************************************************************************
  32:..\app.c      **** *                                             INCLUDE FILES
  33:..\app.c      **** ***************************************************************************************************
  34:..\app.c      **** */
  35:..\app.c      **** 
  36:..\app.c      **** #include <includes.h>
  37:..\app.c      **** #include <project.h>                /* incluindo api do psoc */
  38:..\app.c      **** 
  39:..\app.c      **** 
  40:..\app.c      **** /*
  41:..\app.c      **** ***************************************************************************************************
  42:..\app.c      **** *                                             LOCAL DEFINES
  43:..\app.c      **** ***************************************************************************************************
  44:..\app.c      **** */
  45:..\app.c      **** 
  46:..\app.c      **** #define  APP_USER_IF_SIGN_ON                        0u
  47:..\app.c      **** #define  APP_USER_IF_VER_TICK_RATE                  1u
  48:..\app.c      **** #define  APP_USER_IF_CPU                            2u
  49:..\app.c      **** #define  APP_USER_IF_CTXSW                          3u
  50:..\app.c      **** #define  APP_USER_IF_STATE_MAX                      4u
  51:..\app.c      **** 
  52:..\app.c      ****  #define TIVM  0                                     /* intervalo de t. inicial VM  no s. tran. */
  53:..\app.c      ****  #define TFVM 50                                     /* intervalo de t. final   VM no s. tran.  */
  54:..\app.c      ****  #define TIVE 50                                     /* intervalo de t. inicial VE no s. tran.  */
  55:..\app.c      ****  #define TFVE 95                                     /* intervalo de t. final   VE no s. tran.  */
  56:..\app.c      ****  #define TCVE (TIVE + 30)                            /* intervalo de t. para ctrl do VE no s. tran.
  57:..\app.c      ****  #define TIAM 95                                     /* intervalo de t. inicial AM no s. tran. */
  58:..\app.c      ****  #define TFAM 100                                    /* intervalo de t. final   AM no s. tran. */
  59:..\app.c      ****  #define TASJ (TFVM - (TFAM - TIAM))                 /* ajuste de tempo entre semaforos */
  60:..\app.c      **** 
  61:..\app.c      **** #define SEM1 1
  62:..\app.c      **** #define SEM2 2
  63:..\app.c      **** 
  64:..\app.c      **** #define TBASE 1000
  65:..\app.c      **** 
  66:..\app.c      **** /*
  67:..\app.c      **** ***************************************************************************************************
ARM GAS  C:\Users\alex\AppData\Local\Temp\ccpvubq1.s 			page 6


  68:..\app.c      **** *                                            LOCAL VARIABLES
  69:..\app.c      **** ***************************************************************************************************
  70:..\app.c      **** */
  71:..\app.c      **** 
  72:..\app.c      **** static  OS_TCB      App_TaskStartTCB;
  73:..\app.c      **** static  CPU_STK     App_TaskStartStk[APP_CFG_TASK_START_STK_SIZE];
  74:..\app.c      **** 
  75:..\app.c      **** static  OS_TCB      App_TaskUserIF_TCB;
  76:..\app.c      **** static  CPU_STK     App_TaskUserIFStk[APP_CFG_TASK_USER_IF_STK_SIZE];
  77:..\app.c      **** 
  78:..\app.c      ****                                                                         // criando as estruras do T
  79:..\app.c      **** static  OS_TCB      App_Task_Ihm_TCB;
  80:..\app.c      **** static  CPU_STK     App_Task_Ihm_Stk[APP_CFG_TASK_IHM_STK_SIZE];
  81:..\app.c      **** 
  82:..\app.c      ****                                                                         // criando as estruras do T
  83:..\app.c      **** static  OS_TCB      App_Task_Emerg_TCB;
  84:..\app.c      **** static  CPU_STK     App_Task_Emerg_Stk[APP_CFG_TASK_EMERG_STK_SIZE];
  85:..\app.c      **** 
  86:..\app.c      ****                                                                         // criando as estruras do T
  87:..\app.c      **** static  OS_TCB      App_Task_Sen_Mec_TCB;
  88:..\app.c      **** static  CPU_STK     App_Task_Sen_Mec_Stk[APP_CFG_TASK_SEN_MEC_STK_SIZE];
  89:..\app.c      **** 
  90:..\app.c      ****                                                                         // criando as estruras do T
  91:..\app.c      **** static  OS_TCB      App_Task_Sen_Temp_TCB;
  92:..\app.c      **** static  CPU_STK     App_Task_Sen_Temp_Stk[APP_CFG_TASK_SEN_TEMP_STK_SIZE];
  93:..\app.c      **** 
  94:..\app.c      ****                                                                         // criando as estruras do T
  95:..\app.c      **** static  OS_TCB      App_Task_Display_TCB;
  96:..\app.c      **** static  CPU_STK     App_Task_Display_Stk[APP_CFG_TASK_DISPLAY_STK_SIZE];
  97:..\app.c      **** 
  98:..\app.c      **** ///////////////////////////////
  99:..\app.c      ****                                                                         // criando as estruras do T
 100:..\app.c      **** static  OS_TCB      App_Task_SV01_TCB;
 101:..\app.c      **** static  CPU_STK     App_Task_SVO1_Stk[APP_CFG_TASK_SV01_STK_SIZE];
 102:..\app.c      ****                                                                         // criando as estruras do T
 103:..\app.c      **** static  OS_TCB      App_Task_SP01_TCB;
 104:..\app.c      **** static  CPU_STK     App_Task_SPO1_Stk[APP_CFG_TASK_SP01_STK_SIZE];
 105:..\app.c      **** 
 106:..\app.c      ****                                                                         // criando as estruras do T
 107:..\app.c      **** static  OS_TCB      App_Task_SV02_TCB;
 108:..\app.c      **** static  CPU_STK     App_Task_SVO2_Stk[APP_CFG_TASK_SV02_STK_SIZE];
 109:..\app.c      ****                                                                         // criando as estruras do T
 110:..\app.c      **** static  OS_TCB      App_Task_SP02_TCB;
 111:..\app.c      **** static  CPU_STK     App_Task_SPO2_Stk[APP_CFG_TASK_SP02_STK_SIZE];
 112:..\app.c      **** 
 113:..\app.c      ****         CPU_INT08U  bp01Msg = 0;                                        /* mensagem a ser enviada p
 114:..\app.c      ****         CPU_INT08U  bp02Msg = 0;                                        /* mensagem a ser enviada p
 115:..\app.c      ****         OS_ERR      err_ISR;                                            /* erros no envio de mensag
 116:..\app.c      ****         //OS_ERR      err_ISR_BP02 = 0;                                 /* erros no envio de mensag
 117:..\app.c      **** CPU_INT16U      t_qtde1 = TIVM,                                         /* base para periodo de tem
 118:..\app.c      ****                 t_qtde2 = TIVM,                                         /* base para periodo de tem
 119:..\app.c      ****                 t_qtde3 = TIVE,                                         /* base para periodo de tem
 120:..\app.c      ****                 t_qtde4 = TIVE;                                         /* base para periodo de tem
 121:..\app.c      **** 
 122:..\app.c      **** /*
 123:..\app.c      **** ***************************************************************************************************
 124:..\app.c      **** *                                         FUNCTION PROTOTYPES
ARM GAS  C:\Users\alex\AppData\Local\Temp\ccpvubq1.s 			page 7


 125:..\app.c      **** ***************************************************************************************************
 126:..\app.c      **** */
 127:..\app.c      **** 
 128:..\app.c      **** static  void  App_TaskStart  (void *p_arg);
 129:..\app.c      **** 
 130:..\app.c      **** static  void  App_TaskUserIF (void *p_arg);
 131:..\app.c      **** 
 132:..\app.c      **** static  void  App_TaskCreate (void);
 133:..\app.c      **** static  void  App_ObjCreate  (void);
 134:..\app.c      **** 
 135:..\app.c      **** static  void  App_Task_Ihm      (void *p_arg);             /* prototipo da funcao que define a task
 136:..\app.c      **** static  void  App_Task_Emerg    (void *p_arg);             /* prototipo da funcao que define a task
 137:..\app.c      **** static  void  App_Task_Sen_Mec  (void *p_arg);             /* prototipo da funcao que define a task
 138:..\app.c      **** static  void  App_Task_Sen_Temp (void *p_arg);             /* prototipo da funcao que define a task
 139:..\app.c      **** static  void  App_Task_Display  (void *p_arg);             /* prototipo da funcao que define a task
 140:..\app.c      **** 
 141:..\app.c      **** 
 142:..\app.c      **** static  void  App_Task_SV01 (void *p_arg);             /* prototipo da funcao que define a task de 
 143:..\app.c      **** static  void  App_Task_SP01 (void *p_arg);             /* prototipo da funcao que define a task de 
 144:..\app.c      **** 
 145:..\app.c      **** static  void  App_Task_SV02 (void *p_arg);             /* prototipo da funcao que define a task de 
 146:..\app.c      **** static  void  App_Task_SP02 (void *p_arg);             /* prototipo da funcao que define a task de 
 147:..\app.c      ****                                                        /* protipo grupo de sem. 01 e 02*/
 148:..\app.c      ****         void  go_to_E1(CPU_INT08U sem);
 149:..\app.c      ****         void  go_to_E2(CPU_INT08U sem);
 150:..\app.c      ****         void  go_to_E3(CPU_INT08U sem);
 151:..\app.c      ****         
 152:..\app.c      **** 
 153:..\app.c      ****         
 154:..\app.c      **** /*
 155:..\app.c      **** ***************************************************************************************************
 156:..\app.c      **** *                                         ISR HANDLERS
 157:..\app.c      **** ***************************************************************************************************
 158:..\app.c      **** */
 159:..\app.c      **** 
 160:..\app.c      **** CY_ISR(Pin_BP01_Handler){                           /* implementando rotina de interrupção  - int
 131              		.loc 1 160 0
 132              		.cfi_startproc
 133              		@ args = 0, pretend = 0, frame = 0
 134              		@ frame_needed = 1, uses_anonymous_args = 0
 135 0000 80B5     		push	{r7, lr}
 136              		.cfi_def_cfa_offset 8
 137              		.cfi_offset 7, -8
 138              		.cfi_offset 14, -4
 139 0002 00AF     		add	r7, sp, #0
 140              		.cfi_def_cfa_register 7
 161:..\app.c      ****     
 162:..\app.c      ****     
 163:..\app.c      ****     //CyGlobalIntDisable;                           /* Disable global interrupts. */
 164:..\app.c      ****                                                     /* tratando debounce do botão */
 165:..\app.c      ****     //CyDelay(100);
 166:..\app.c      ****     
 167:..\app.c      ****     OSTimeDly(100,OS_ERR_TIME_DLY_ISR, NULL);
 141              		.loc 1 167 0
 142 0004 0022     		movs	r2, #0
 143 0006 47F27521 		movw	r1, #29301
 144 000a 6420     		movs	r0, #100
ARM GAS  C:\Users\alex\AppData\Local\Temp\ccpvubq1.s 			page 8


 145 000c FFF7FEFF 		bl	OSTimeDly
 168:..\app.c      ****     
 169:..\app.c      ****     
 170:..\app.c      ****     //OSTimeDlyHMSM(0, 0, 0, 100, 
 171:..\app.c      ****     //                  OS_OPT_TIME_HMSM_STRICT, 
 172:..\app.c      ****     //                  &err_ISR);
 173:..\app.c      ****     
 174:..\app.c      ****                                                     /* enviando mensagem para task - post*/
 175:..\app.c      ****     //OSTaskQPost(&App_Task_SP01_TCB,                 /* task que vai receber a mensagem do botao *
 176:..\app.c      ****     //            (void *)&bp01Msg,                   /* endereco da var. com a mensagem a ser envi
 177:..\app.c      ****     //            sizeof(bp01Msg),                    /* eviando tamanho da mensagem */
 178:..\app.c      ****     //            OS_OPT_POST_FIFO,                   /* post compatibilizado para gerencia em FIFO
 179:..\app.c      ****     //            &err_ISR_BP01);                     /* variavel que recebera os erros da operacao
 180:..\app.c      ****                                                     /* lembrar periodo 0s - 80s - sem. t. verde: 30
 181:..\app.c      **** 
 182:..\app.c      ****     bp01Msg = 1;                                    /* reseta mensagem */
 146              		.loc 1 182 0
 147 0010 034B     		ldr	r3, .L2
 148 0012 0122     		movs	r2, #1
 149 0014 1A70     		strb	r2, [r3]
 183:..\app.c      ****     
 184:..\app.c      ****     Pin_BP01_ClearInterrupt();                       /* limpando flag de interrupção do botão */
 150              		.loc 1 184 0
 151 0016 FFF7FEFF 		bl	Pin_BP01_ClearInterrupt
 185:..\app.c      ****     
 186:..\app.c      ****     //CyGlobalIntEnable;                             /* Enable global interrupts. */
 187:..\app.c      **** }
 152              		.loc 1 187 0
 153 001a 00BF     		nop
 154 001c 80BD     		pop	{r7, pc}
 155              	.L3:
 156 001e 00BF     		.align	2
 157              	.L2:
 158 0020 00000000 		.word	bp01Msg
 159              		.cfi_endproc
 160              	.LFE64:
 161              		.size	Pin_BP01_Handler, .-Pin_BP01_Handler
 162              		.section	.text.Pin_BP02_Handler,"ax",%progbits
 163              		.align	2
 164              		.global	Pin_BP02_Handler
 165              		.thumb
 166              		.thumb_func
 167              		.type	Pin_BP02_Handler, %function
 168              	Pin_BP02_Handler:
 169              	.LFB65:
 188:..\app.c      **** 
 189:..\app.c      **** CY_ISR(Pin_BP02_Handler){                           /* implementando rotina de interrupção  - int
 170              		.loc 1 189 0
 171              		.cfi_startproc
 172              		@ args = 0, pretend = 0, frame = 0
 173              		@ frame_needed = 1, uses_anonymous_args = 0
 174 0000 80B5     		push	{r7, lr}
 175              		.cfi_def_cfa_offset 8
 176              		.cfi_offset 7, -8
 177              		.cfi_offset 14, -4
 178 0002 00AF     		add	r7, sp, #0
 179              		.cfi_def_cfa_register 7
ARM GAS  C:\Users\alex\AppData\Local\Temp\ccpvubq1.s 			page 9


 190:..\app.c      **** 
 191:..\app.c      ****     //CyGlobalIntDisable;                           /* Disable global interrupts. */
 192:..\app.c      ****     
 193:..\app.c      ****                                                     /* tratando debounce do botão */
 194:..\app.c      ****     //CyDelay(100);
 195:..\app.c      ****     
 196:..\app.c      ****     OSTimeDly(100,OS_ERR_TIME_DLY_ISR, NULL);
 180              		.loc 1 196 0
 181 0004 0022     		movs	r2, #0
 182 0006 47F27521 		movw	r1, #29301
 183 000a 6420     		movs	r0, #100
 184 000c FFF7FEFF 		bl	OSTimeDly
 197:..\app.c      ****     
 198:..\app.c      ****     //OSTimeDlyHMSM(0, 0, 0, 100, 
 199:..\app.c      ****     //                  OS_OPT_TIME_HMSM_STRICT, 
 200:..\app.c      ****     //                  &err_ISR);
 201:..\app.c      ****     
 202:..\app.c      ****     
 203:..\app.c      ****                                                     /* enviando mensagem para task - post*/
 204:..\app.c      ****     //OSTaskQPost(&App_Task_SP02_TCB,                 /* task que vai receber a mensagem do botao *
 205:..\app.c      ****     //            (void *)&bp02Msg,                   /* endereco da var. com a mensagem a ser envi
 206:..\app.c      ****     //            sizeof(bp02Msg),                    /* eviando tamanho da mensagem */
 207:..\app.c      ****     //            OS_OPT_POST_FIFO,                   /* post compatibilizado para gerencia em FIFO
 208:..\app.c      ****     //            &err_ISR_BP02);                     /* variavel que recebera os erros da operacao
 209:..\app.c      ****                                                     /* lembrar periodo 0s - 80s - sem. t. verde: 30
 210:..\app.c      **** 
 211:..\app.c      ****     bp02Msg = 1;                                    /* reseta mensagem */
 185              		.loc 1 211 0
 186 0010 034B     		ldr	r3, .L5
 187 0012 0122     		movs	r2, #1
 188 0014 1A70     		strb	r2, [r3]
 212:..\app.c      ****     
 213:..\app.c      ****     Pin_BP02_ClearInterrupt();                       /* limpando flag de interrupção do botão */
 189              		.loc 1 213 0
 190 0016 FFF7FEFF 		bl	Pin_BP02_ClearInterrupt
 214:..\app.c      ****     
 215:..\app.c      ****     
 216:..\app.c      ****     //CyGlobalIntEnable;                             /* Enable global interrupts. */
 217:..\app.c      **** }
 191              		.loc 1 217 0
 192 001a 00BF     		nop
 193 001c 80BD     		pop	{r7, pc}
 194              	.L6:
 195 001e 00BF     		.align	2
 196              	.L5:
 197 0020 00000000 		.word	bp02Msg
 198              		.cfi_endproc
 199              	.LFE65:
 200              		.size	Pin_BP02_Handler, .-Pin_BP02_Handler
 201              		.section	.rodata
 202              		.align	2
 203              	.LC0:
 204 0000 53746172 		.ascii	"Start\000"
 204      7400
 205              		.section	.text.main,"ax",%progbits
 206              		.align	2
 207              		.global	main
ARM GAS  C:\Users\alex\AppData\Local\Temp\ccpvubq1.s 			page 10


 208              		.thumb
 209              		.thumb_func
 210              		.type	main, %function
 211              	main:
 212              	.LFB66:
 218:..\app.c      **** 
 219:..\app.c      **** /*
 220:..\app.c      **** ***************************************************************************************************
 221:..\app.c      **** *                                                main()
 222:..\app.c      **** *
 223:..\app.c      **** * Description : This is the standard entry point for C code.  It is assumed that your code will cal
 224:..\app.c      **** *               main() once you have performed all necessary initialization.
 225:..\app.c      **** *
 226:..\app.c      **** * Argument(s) : none
 227:..\app.c      **** *
 228:..\app.c      **** * Return(s)   : none
 229:..\app.c      **** *
 230:..\app.c      **** * Caller(s)   : Startup Code.
 231:..\app.c      **** *
 232:..\app.c      **** * Note(s)     : none.
 233:..\app.c      **** ***************************************************************************************************
 234:..\app.c      **** */
 235:..\app.c      **** 
 236:..\app.c      **** int  main (void)
 237:..\app.c      **** {
 213              		.loc 1 237 0
 214              		.cfi_startproc
 215              		@ args = 0, pretend = 0, frame = 8
 216              		@ frame_needed = 1, uses_anonymous_args = 0
 217 0000 80B5     		push	{r7, lr}
 218              		.cfi_def_cfa_offset 8
 219              		.cfi_offset 7, -8
 220              		.cfi_offset 14, -4
 221 0002 8CB0     		sub	sp, sp, #48
 222              		.cfi_def_cfa_offset 56
 223 0004 0AAF     		add	r7, sp, #40
 224              		.cfi_def_cfa 7, 16
 238:..\app.c      ****     
 239:..\app.c      ****     
 240:..\app.c      ****     //Pin_BP01_int_StartEx(Pin_BP01_Handler);                     /* habilita ISR do pino*/
 241:..\app.c      ****     //Pin_BP02_int_StartEx(Pin_BP02_Handler);                     /* habilita ISR do pino*/
 242:..\app.c      ****     
 243:..\app.c      ****     
 244:..\app.c      ****     OS_ERR  os_err;
 245:..\app.c      **** 
 246:..\app.c      **** 
 247:..\app.c      ****     BSP_PreInit();                                              /* Perform BSP pre-initialization. 
 225              		.loc 1 247 0
 226 0006 FFF7FEFF 		bl	BSP_PreInit
 248:..\app.c      **** 
 249:..\app.c      ****     CPU_Init();                                                 /* Initialize the uC/CPU services  
 227              		.loc 1 249 0
 228 000a FFF7FEFF 		bl	CPU_Init
 250:..\app.c      **** 
 251:..\app.c      ****     OSInit(&os_err);                                            /* Init uC/OS-III.                 
 229              		.loc 1 251 0
 230 000e BB1D     		adds	r3, r7, #6
ARM GAS  C:\Users\alex\AppData\Local\Temp\ccpvubq1.s 			page 11


 231 0010 1846     		mov	r0, r3
 232 0012 FFF7FEFF 		bl	OSInit
 252:..\app.c      **** 
 253:..\app.c      ****     OSTaskCreate((OS_TCB      *)&App_TaskStartTCB,              /* Create the start task           
 233              		.loc 1 253 0
 234 0016 BB1D     		adds	r3, r7, #6
 235 0018 0893     		str	r3, [sp, #32]
 236 001a 0323     		movs	r3, #3
 237 001c 0793     		str	r3, [sp, #28]
 238 001e 0023     		movs	r3, #0
 239 0020 0693     		str	r3, [sp, #24]
 240 0022 0023     		movs	r3, #0
 241 0024 0593     		str	r3, [sp, #20]
 242 0026 0023     		movs	r3, #0
 243 0028 0493     		str	r3, [sp, #16]
 244 002a 8023     		movs	r3, #128
 245 002c 0393     		str	r3, [sp, #12]
 246 002e 0C23     		movs	r3, #12
 247 0030 0293     		str	r3, [sp, #8]
 248 0032 094B     		ldr	r3, .L9
 249 0034 0193     		str	r3, [sp, #4]
 250 0036 0223     		movs	r3, #2
 251 0038 0093     		str	r3, [sp]
 252 003a 0023     		movs	r3, #0
 253 003c 074A     		ldr	r2, .L9+4
 254 003e 0849     		ldr	r1, .L9+8
 255 0040 0848     		ldr	r0, .L9+12
 256 0042 FFF7FEFF 		bl	OSTaskCreate
 254:..\app.c      ****                  (CPU_CHAR    *)"Start",
 255:..\app.c      ****                  (OS_TASK_PTR  )App_TaskStart, 
 256:..\app.c      ****                  (void        *)0,
 257:..\app.c      ****                  (OS_PRIO      )APP_CFG_TASK_START_PRIO,
 258:..\app.c      ****                  (CPU_STK     *)&App_TaskStartStk[0],
 259:..\app.c      ****                  (CPU_STK_SIZE )APP_CFG_TASK_START_STK_SIZE_LIMIT,
 260:..\app.c      ****                  (CPU_STK_SIZE )APP_CFG_TASK_START_STK_SIZE,
 261:..\app.c      ****                  (OS_MSG_QTY   )0u,
 262:..\app.c      ****                  (OS_TICK      )0u,
 263:..\app.c      ****                  (void        *)0,
 264:..\app.c      ****                  (OS_OPT       )(OS_OPT_TASK_STK_CHK | OS_OPT_TASK_STK_CLR),
 265:..\app.c      ****                  (OS_ERR      *)&os_err);
 266:..\app.c      **** 
 267:..\app.c      ****     OSStart(&os_err);                                            /* Start multitasking (i.e. give c
 257              		.loc 1 267 0
 258 0046 BB1D     		adds	r3, r7, #6
 259 0048 1846     		mov	r0, r3
 260 004a FFF7FEFF 		bl	OSStart
 261 004e 0023     		movs	r3, #0
 268:..\app.c      ****     
 269:..\app.c      ****     
 270:..\app.c      ****     
 271:..\app.c      **** }
 262              		.loc 1 271 0
 263 0050 1846     		mov	r0, r3
 264 0052 0837     		adds	r7, r7, #8
 265              		.cfi_def_cfa_offset 8
 266 0054 BD46     		mov	sp, r7
 267              		.cfi_def_cfa_register 13
ARM GAS  C:\Users\alex\AppData\Local\Temp\ccpvubq1.s 			page 12


 268              		@ sp needed
 269 0056 80BD     		pop	{r7, pc}
 270              	.L10:
 271              		.align	2
 272              	.L9:
 273 0058 C0000000 		.word	App_TaskStartStk
 274 005c 00000000 		.word	App_TaskStart
 275 0060 00000000 		.word	.LC0
 276 0064 00000000 		.word	App_TaskStartTCB
 277              		.cfi_endproc
 278              	.LFE66:
 279              		.size	main, .-main
 280              		.section	.text.App_TaskStart,"ax",%progbits
 281              		.align	2
 282              		.thumb
 283              		.thumb_func
 284              		.type	App_TaskStart, %function
 285              	App_TaskStart:
 286              	.LFB67:
 272:..\app.c      **** 
 273:..\app.c      **** 
 274:..\app.c      **** /*
 275:..\app.c      **** ***************************************************************************************************
 276:..\app.c      **** *                                          App_TaskStart()
 277:..\app.c      **** *
 278:..\app.c      **** * Description : This is an example of a startup task.  As mentioned in the book's text, you MUST
 279:..\app.c      **** *               initialize the ticker only once multitasking has started.
 280:..\app.c      **** *
 281:..\app.c      **** * Argument(s) : p_arg   is the argument passed to 'App_TaskStart()' by 'OSTaskCreate()'.
 282:..\app.c      **** *
 283:..\app.c      **** * Return(s)   : none
 284:..\app.c      **** *
 285:..\app.c      **** * Note(s)     : 1) The first line of code is used to prevent a compiler warning because 'p_arg' is 
 286:..\app.c      **** *                  used.  The compiler should not generate any code for this statement.
 287:..\app.c      **** ***************************************************************************************************
 288:..\app.c      **** */
 289:..\app.c      **** 
 290:..\app.c      **** static  void  App_TaskStart (void *p_arg)
 291:..\app.c      **** {
 287              		.loc 1 291 0
 288              		.cfi_startproc
 289              		@ args = 0, pretend = 0, frame = 16
 290              		@ frame_needed = 1, uses_anonymous_args = 0
 291 0000 80B5     		push	{r7, lr}
 292              		.cfi_def_cfa_offset 8
 293              		.cfi_offset 7, -8
 294              		.cfi_offset 14, -4
 295 0002 86B0     		sub	sp, sp, #24
 296              		.cfi_def_cfa_offset 32
 297 0004 02AF     		add	r7, sp, #8
 298              		.cfi_def_cfa 7, 24
 299 0006 7860     		str	r0, [r7, #4]
 292:..\app.c      ****     OS_ERR       err;
 293:..\app.c      ****         
 294:..\app.c      **** 
 295:..\app.c      ****    (void)p_arg;
 296:..\app.c      ****    
ARM GAS  C:\Users\alex\AppData\Local\Temp\ccpvubq1.s 			page 13


 297:..\app.c      **** 
 298:..\app.c      ****     BSP_PostInit();                                               /* Perform BSP post-initializatio
 300              		.loc 1 298 0
 301 0008 FFF7FEFF 		bl	BSP_PostInit
 299:..\app.c      ****     
 300:..\app.c      ****     BSP_CPU_TickInit();                                           /* Perfrom Tick Initialization   
 302              		.loc 1 300 0
 303 000c FFF7FEFF 		bl	BSP_CPU_TickInit
 301:..\app.c      **** 
 302:..\app.c      **** #if (OS_CFG_STAT_TASK_EN > 0u)
 303:..\app.c      ****     OSStatTaskCPUUsageInit(&err);
 304              		.loc 1 303 0
 305 0010 07F10E03 		add	r3, r7, #14
 306 0014 1846     		mov	r0, r3
 307 0016 FFF7FEFF 		bl	OSStatTaskCPUUsageInit
 304:..\app.c      **** #endif    
 305:..\app.c      **** 
 306:..\app.c      **** #ifdef CPU_CFG_INT_DIS_MEAS_EN
 307:..\app.c      ****     CPU_IntDisMeasMaxCurReset();
 308:..\app.c      **** #endif      
 309:..\app.c      **** 
 310:..\app.c      ****     App_TaskCreate();                                             /* Create application tasks.     
 308              		.loc 1 310 0
 309 001a FFF7FEFF 		bl	App_TaskCreate
 311:..\app.c      **** 
 312:..\app.c      ****     App_ObjCreate();                                              /* Create kernel objects         
 310              		.loc 1 312 0
 311 001e FFF7FEFF 		bl	App_ObjCreate
 313:..\app.c      ****     
 314:..\app.c      **** #if (APP_CFG_PROBE_COM_EN == DEF_ENABLED)
 315:..\app.c      ****     App_ProbeInit();                                              /* Enabling uC/Probe             
 312              		.loc 1 315 0
 313 0022 FFF7FEFF 		bl	App_ProbeInit
 316:..\app.c      **** #endif
 317:..\app.c      ****     
 318:..\app.c      ****     BSP_LED_Off(1);
 314              		.loc 1 318 0
 315 0026 0120     		movs	r0, #1
 316 0028 FFF7FEFF 		bl	BSP_LED_Off
 317              	.L12:
 319:..\app.c      **** 
 320:..\app.c      ****     while (DEF_TRUE) {                                            /* Task body, always written as a
 321:..\app.c      ****         BSP_LED_Toggle(1);
 318              		.loc 1 321 0 discriminator 1
 319 002c 0120     		movs	r0, #1
 320 002e FFF7FEFF 		bl	BSP_LED_Toggle
 322:..\app.c      ****         OSTimeDlyHMSM(0, 0, 0, 100, 
 321              		.loc 1 322 0 discriminator 1
 322 0032 07F10E03 		add	r3, r7, #14
 323 0036 0193     		str	r3, [sp, #4]
 324 0038 0023     		movs	r3, #0
 325 003a 0093     		str	r3, [sp]
 326 003c 6423     		movs	r3, #100
 327 003e 0022     		movs	r2, #0
 328 0040 0021     		movs	r1, #0
 329 0042 0020     		movs	r0, #0
 330 0044 FFF7FEFF 		bl	OSTimeDlyHMSM
ARM GAS  C:\Users\alex\AppData\Local\Temp\ccpvubq1.s 			page 14


 323:..\app.c      ****                       OS_OPT_TIME_HMSM_STRICT, 
 324:..\app.c      ****                       &err);
 325:..\app.c      ****     }
 331              		.loc 1 325 0 discriminator 1
 332 0048 F0E7     		b	.L12
 333              		.cfi_endproc
 334              	.LFE67:
 335              		.size	App_TaskStart, .-App_TaskStart
 336 004a 00BF     		.section	.rodata
 337 0006 0000     		.align	2
 338              	.LC1:
 339 0008 49484D5F 		.ascii	"IHM_Task\000"
 339      5461736B 
 339      00
 340 0011 000000   		.align	2
 341              	.LC2:
 342 0014 456D6572 		.ascii	"Emerg_Task\000"
 342      675F5461 
 342      736B00
 343 001f 00       		.align	2
 344              	.LC3:
 345 0020 53656E5F 		.ascii	"Sen_Mec_Task\000"
 345      4D65635F 
 345      5461736B 
 345      00
 346 002d 000000   		.align	2
 347              	.LC4:
 348 0030 53656E5F 		.ascii	"Sen_Temp_Task\000"
 348      54656D70 
 348      5F546173 
 348      6B00
 349 003e 0000     		.align	2
 350              	.LC5:
 351 0040 44697370 		.ascii	"Display_Task\000"
 351      6C61795F 
 351      5461736B 
 351      00
 352 004d 000000   		.align	2
 353              	.LC6:
 354 0050 53563031 		.ascii	"SV01_Task\000"
 354      5F546173 
 354      6B00
 355 005a 0000     		.align	2
 356              	.LC7:
 357 005c 53503031 		.ascii	"SP01_Task\000"
 357      5F546173 
 357      6B00
 358 0066 0000     		.align	2
 359              	.LC8:
 360 0068 53563032 		.ascii	"SV02_Task\000"
 360      5F546173 
 360      6B00
 361 0072 0000     		.align	2
 362              	.LC9:
 363 0074 53503032 		.ascii	"SP02_Task\000"
 363      5F546173 
 363      6B00
ARM GAS  C:\Users\alex\AppData\Local\Temp\ccpvubq1.s 			page 15


 364              		.section	.text.App_TaskCreate,"ax",%progbits
 365              		.align	2
 366              		.thumb
 367              		.thumb_func
 368              		.type	App_TaskCreate, %function
 369              	App_TaskCreate:
 370              	.LFB68:
 326:..\app.c      **** }
 327:..\app.c      **** 
 328:..\app.c      **** 
 329:..\app.c      **** /*
 330:..\app.c      **** ***************************************************************************************************
 331:..\app.c      **** *                                          App_TaskCreate()
 332:..\app.c      **** *
 333:..\app.c      **** * Description : Create application tasks.
 334:..\app.c      **** *
 335:..\app.c      **** * Argument(s) : none
 336:..\app.c      **** *
 337:..\app.c      **** * Return(s)   : none
 338:..\app.c      **** *
 339:..\app.c      **** * Caller(s)   : AppTaskStart()
 340:..\app.c      **** *
 341:..\app.c      **** * Note(s)     : none.
 342:..\app.c      **** ***************************************************************************************************
 343:..\app.c      **** */
 344:..\app.c      **** 
 345:..\app.c      **** static  void  App_TaskCreate (void)
 346:..\app.c      **** {
 371              		.loc 1 346 0
 372              		.cfi_startproc
 373              		@ args = 0, pretend = 0, frame = 8
 374              		@ frame_needed = 1, uses_anonymous_args = 0
 375 0000 80B5     		push	{r7, lr}
 376              		.cfi_def_cfa_offset 8
 377              		.cfi_offset 7, -8
 378              		.cfi_offset 14, -4
 379 0002 8CB0     		sub	sp, sp, #48
 380              		.cfi_def_cfa_offset 56
 381 0004 0AAF     		add	r7, sp, #40
 382              		.cfi_def_cfa 7, 16
 347:..\app.c      **** 
 348:..\app.c      ****     OS_ERR  os_err;
 349:..\app.c      **** 
 350:..\app.c      ****    
 351:..\app.c      ****     OSTaskCreate((OS_TCB      *)&App_TaskUserIF_TCB,
 383              		.loc 1 351 0
 384 0006 BB1D     		adds	r3, r7, #6
 385 0008 0893     		str	r3, [sp, #32]
 386 000a 0323     		movs	r3, #3
 387 000c 0793     		str	r3, [sp, #28]
 388 000e 0023     		movs	r3, #0
 389 0010 0693     		str	r3, [sp, #24]
 390 0012 0023     		movs	r3, #0
 391 0014 0593     		str	r3, [sp, #20]
 392 0016 0023     		movs	r3, #0
 393 0018 0493     		str	r3, [sp, #16]
 394 001a 4FF48073 		mov	r3, #256
ARM GAS  C:\Users\alex\AppData\Local\Temp\ccpvubq1.s 			page 16


 395 001e 0393     		str	r3, [sp, #12]
 396 0020 1923     		movs	r3, #25
 397 0022 0293     		str	r3, [sp, #8]
 398 0024 744B     		ldr	r3, .L14
 399 0026 0193     		str	r3, [sp, #4]
 400 0028 0323     		movs	r3, #3
 401 002a 0093     		str	r3, [sp]
 402 002c 0023     		movs	r3, #0
 403 002e 734A     		ldr	r2, .L14+4
 404 0030 7349     		ldr	r1, .L14+8
 405 0032 7448     		ldr	r0, .L14+12
 406 0034 FFF7FEFF 		bl	OSTaskCreate
 352:..\app.c      ****                  (CPU_CHAR    *)"Start",
 353:..\app.c      ****                  (OS_TASK_PTR  )App_TaskUserIF, 
 354:..\app.c      ****                  (void        *)0,
 355:..\app.c      ****                  (OS_PRIO      )APP_CFG_TASK_USER_IF_PRIO,
 356:..\app.c      ****                  (CPU_STK     *)&App_TaskUserIFStk[0],
 357:..\app.c      ****                  (CPU_STK_SIZE )APP_CFG_TASK_USER_IF_STK_SIZE_LIMIT,
 358:..\app.c      ****                  (CPU_STK_SIZE )APP_CFG_TASK_USER_IF_STK_SIZE,
 359:..\app.c      ****                  (OS_MSG_QTY   )0u,
 360:..\app.c      ****                  (OS_TICK      )0u,
 361:..\app.c      ****                  (void        *)0,
 362:..\app.c      ****                  (OS_OPT       )(OS_OPT_TASK_STK_CHK | OS_OPT_TASK_STK_CLR),
 363:..\app.c      ****                  (OS_ERR      *)&os_err);
 364:..\app.c      ****     
 365:..\app.c      ****     // ======== task IHM  ========
 366:..\app.c      ****     OSTaskCreate((OS_TCB      *)&App_Task_Ihm_TCB,                             // endereço da task
 407              		.loc 1 366 0
 408 0038 BB1D     		adds	r3, r7, #6
 409 003a 0893     		str	r3, [sp, #32]
 410 003c 0323     		movs	r3, #3
 411 003e 0793     		str	r3, [sp, #28]
 412 0040 0023     		movs	r3, #0
 413 0042 0693     		str	r3, [sp, #24]
 414 0044 0023     		movs	r3, #0
 415 0046 0593     		str	r3, [sp, #20]
 416 0048 0023     		movs	r3, #0
 417 004a 0493     		str	r3, [sp, #16]
 418 004c 4023     		movs	r3, #64
 419 004e 0393     		str	r3, [sp, #12]
 420 0050 0623     		movs	r3, #6
 421 0052 0293     		str	r3, [sp, #8]
 422 0054 6C4B     		ldr	r3, .L14+16
 423 0056 0193     		str	r3, [sp, #4]
 424 0058 0623     		movs	r3, #6
 425 005a 0093     		str	r3, [sp]
 426 005c 0023     		movs	r3, #0
 427 005e 6B4A     		ldr	r2, .L14+20
 428 0060 6B49     		ldr	r1, .L14+24
 429 0062 6C48     		ldr	r0, .L14+28
 430 0064 FFF7FEFF 		bl	OSTaskCreate
 367:..\app.c      ****                  (CPU_CHAR    *)"IHM_Task",                                    // string com nome d
 368:..\app.c      ****                  (OS_TASK_PTR  )App_Task_Ihm,                                  // endereco da funca
 369:..\app.c      ****                  (void        *)0,                                              // parametros passa
 370:..\app.c      ****                  (OS_PRIO      )APP_CFG_TASK_IHM_PRIO,                         // prioridade de exe
 371:..\app.c      ****                  (CPU_STK     *)&App_Task_Ihm_Stk[0],                          // endereco base da 
 372:..\app.c      ****                  (CPU_STK_SIZE )APP_CFG_TASK_IHM_STK_SIZE_LIMIT,               // endereco final da
ARM GAS  C:\Users\alex\AppData\Local\Temp\ccpvubq1.s 			page 17


 373:..\app.c      ****                  (CPU_STK_SIZE )APP_CFG_TASK_IHM_STK_SIZE,                     // tamanho da pilha
 374:..\app.c      ****                  (OS_MSG_QTY   )0u,                                             // task incapaz de 
 375:..\app.c      ****                  (OS_TICK      )0u,                                             // clock tick defau
 376:..\app.c      ****                  (void        *)0,                                              // sem endereço de
 377:..\app.c      ****                  (OS_OPT       )(OS_OPT_TASK_STK_CHK | OS_OPT_TASK_STK_CLR),    // opcoes especific
 378:..\app.c      ****                  (OS_ERR      *)&os_err);                                       // ponteiro com err
 379:..\app.c      ****  
 380:..\app.c      ****     // ======== task Emergencia  ========
 381:..\app.c      ****     OSTaskCreate((OS_TCB      *)&App_Task_Emerg_TCB,                             // endereço da ta
 431              		.loc 1 381 0
 432 0068 BB1D     		adds	r3, r7, #6
 433 006a 0893     		str	r3, [sp, #32]
 434 006c 0323     		movs	r3, #3
 435 006e 0793     		str	r3, [sp, #28]
 436 0070 0023     		movs	r3, #0
 437 0072 0693     		str	r3, [sp, #24]
 438 0074 0023     		movs	r3, #0
 439 0076 0593     		str	r3, [sp, #20]
 440 0078 0023     		movs	r3, #0
 441 007a 0493     		str	r3, [sp, #16]
 442 007c 4023     		movs	r3, #64
 443 007e 0393     		str	r3, [sp, #12]
 444 0080 0623     		movs	r3, #6
 445 0082 0293     		str	r3, [sp, #8]
 446 0084 644B     		ldr	r3, .L14+32
 447 0086 0193     		str	r3, [sp, #4]
 448 0088 0323     		movs	r3, #3
 449 008a 0093     		str	r3, [sp]
 450 008c 0023     		movs	r3, #0
 451 008e 634A     		ldr	r2, .L14+36
 452 0090 6349     		ldr	r1, .L14+40
 453 0092 6448     		ldr	r0, .L14+44
 454 0094 FFF7FEFF 		bl	OSTaskCreate
 382:..\app.c      ****                  (CPU_CHAR    *)"Emerg_Task",                                    // string com nome
 383:..\app.c      ****                  (OS_TASK_PTR  )App_Task_Emerg,                                  // endereco da fun
 384:..\app.c      ****                  (void        *)0,                                              // parametros passa
 385:..\app.c      ****                  (OS_PRIO      )APP_CFG_TASK_EMERG_PRIO,                         // prioridade de e
 386:..\app.c      ****                  (CPU_STK     *)&App_Task_Emerg_Stk[0],                          // endereco base d
 387:..\app.c      ****                  (CPU_STK_SIZE )APP_CFG_TASK_EMERG_STK_SIZE_LIMIT,               // endereco final 
 388:..\app.c      ****                  (CPU_STK_SIZE )APP_CFG_TASK_EMERG_STK_SIZE,                     // tamanho da pilh
 389:..\app.c      ****                  (OS_MSG_QTY   )0u,                                             // task incapaz de 
 390:..\app.c      ****                  (OS_TICK      )0u,                                             // clock tick defau
 391:..\app.c      ****                  (void        *)0,                                              // sem endereço de
 392:..\app.c      ****                  (OS_OPT       )(OS_OPT_TASK_STK_CHK | OS_OPT_TASK_STK_CLR),    // opcoes especific
 393:..\app.c      ****                  (OS_ERR      *)&os_err);                                       // ponteiro com err
 394:..\app.c      **** 
 395:..\app.c      ****     // ======== task sen. mec.  ========
 396:..\app.c      ****     OSTaskCreate((OS_TCB      *)&App_Task_Sen_Mec_TCB,                             // endereço da 
 455              		.loc 1 396 0
 456 0098 BB1D     		adds	r3, r7, #6
 457 009a 0893     		str	r3, [sp, #32]
 458 009c 0323     		movs	r3, #3
 459 009e 0793     		str	r3, [sp, #28]
 460 00a0 0023     		movs	r3, #0
 461 00a2 0693     		str	r3, [sp, #24]
 462 00a4 0023     		movs	r3, #0
 463 00a6 0593     		str	r3, [sp, #20]
ARM GAS  C:\Users\alex\AppData\Local\Temp\ccpvubq1.s 			page 18


 464 00a8 0023     		movs	r3, #0
 465 00aa 0493     		str	r3, [sp, #16]
 466 00ac 4023     		movs	r3, #64
 467 00ae 0393     		str	r3, [sp, #12]
 468 00b0 0623     		movs	r3, #6
 469 00b2 0293     		str	r3, [sp, #8]
 470 00b4 5C4B     		ldr	r3, .L14+48
 471 00b6 0193     		str	r3, [sp, #4]
 472 00b8 0423     		movs	r3, #4
 473 00ba 0093     		str	r3, [sp]
 474 00bc 0023     		movs	r3, #0
 475 00be 5B4A     		ldr	r2, .L14+52
 476 00c0 5B49     		ldr	r1, .L14+56
 477 00c2 5C48     		ldr	r0, .L14+60
 478 00c4 FFF7FEFF 		bl	OSTaskCreate
 397:..\app.c      ****                  (CPU_CHAR    *)"Sen_Mec_Task",                                    // string com no
 398:..\app.c      ****                  (OS_TASK_PTR  )App_Task_Sen_Mec,                                  // endereco da f
 399:..\app.c      ****                  (void        *)0,                                              // parametros passa
 400:..\app.c      ****                  (OS_PRIO      )APP_CFG_TASK_SEN_MEC_PRIO,                         // prioridade de
 401:..\app.c      ****                  (CPU_STK     *)&App_Task_Sen_Mec_Stk[0],                          // endereco base
 402:..\app.c      ****                  (CPU_STK_SIZE )APP_CFG_TASK_SEN_MEC_STK_SIZE_LIMIT,               // endereco fina
 403:..\app.c      ****                  (CPU_STK_SIZE )APP_CFG_TASK_SEN_MEC_STK_SIZE,                     // tamanho da pi
 404:..\app.c      ****                  (OS_MSG_QTY   )0u,                                             // task incapaz de 
 405:..\app.c      ****                  (OS_TICK      )0u,                                             // clock tick defau
 406:..\app.c      ****                  (void        *)0,                                              // sem endereço de
 407:..\app.c      ****                  (OS_OPT       )(OS_OPT_TASK_STK_CHK | OS_OPT_TASK_STK_CLR),    // opcoes especific
 408:..\app.c      ****                  (OS_ERR      *)&os_err);                                       // ponteiro com err
 409:..\app.c      ****     
 410:..\app.c      ****     // ======== task sen. temp.  ========
 411:..\app.c      ****     OSTaskCreate((OS_TCB      *)&App_Task_Sen_Mec_TCB,                             // endereço da 
 479              		.loc 1 411 0
 480 00c8 BB1D     		adds	r3, r7, #6
 481 00ca 0893     		str	r3, [sp, #32]
 482 00cc 0323     		movs	r3, #3
 483 00ce 0793     		str	r3, [sp, #28]
 484 00d0 0023     		movs	r3, #0
 485 00d2 0693     		str	r3, [sp, #24]
 486 00d4 0023     		movs	r3, #0
 487 00d6 0593     		str	r3, [sp, #20]
 488 00d8 0023     		movs	r3, #0
 489 00da 0493     		str	r3, [sp, #16]
 490 00dc 4023     		movs	r3, #64
 491 00de 0393     		str	r3, [sp, #12]
 492 00e0 0623     		movs	r3, #6
 493 00e2 0293     		str	r3, [sp, #8]
 494 00e4 544B     		ldr	r3, .L14+64
 495 00e6 0193     		str	r3, [sp, #4]
 496 00e8 0523     		movs	r3, #5
 497 00ea 0093     		str	r3, [sp]
 498 00ec 0023     		movs	r3, #0
 499 00ee 534A     		ldr	r2, .L14+68
 500 00f0 5349     		ldr	r1, .L14+72
 501 00f2 5048     		ldr	r0, .L14+60
 502 00f4 FFF7FEFF 		bl	OSTaskCreate
 412:..\app.c      ****                  (CPU_CHAR    *)"Sen_Temp_Task",                                    // string com n
 413:..\app.c      ****                  (OS_TASK_PTR  )App_Task_Sen_Temp,                                  // endereco da 
 414:..\app.c      ****                  (void        *)0,                                              // parametros passa
ARM GAS  C:\Users\alex\AppData\Local\Temp\ccpvubq1.s 			page 19


 415:..\app.c      ****                  (OS_PRIO      )APP_CFG_TASK_SEN_TEMP_PRIO,                         // prioridade d
 416:..\app.c      ****                  (CPU_STK     *)&App_Task_Sen_Temp_Stk[0],                          // endereco bas
 417:..\app.c      ****                  (CPU_STK_SIZE )APP_CFG_TASK_SEN_TEMP_STK_SIZE_LIMIT,               // endereco fin
 418:..\app.c      ****                  (CPU_STK_SIZE )APP_CFG_TASK_SEN_TEMP_STK_SIZE,                     // tamanho da p
 419:..\app.c      ****                  (OS_MSG_QTY   )0u,                                             // task incapaz de 
 420:..\app.c      ****                  (OS_TICK      )0u,                                             // clock tick defau
 421:..\app.c      ****                  (void        *)0,                                              // sem endereço de
 422:..\app.c      ****                  (OS_OPT       )(OS_OPT_TASK_STK_CHK | OS_OPT_TASK_STK_CLR),    // opcoes especific
 423:..\app.c      ****                  (OS_ERR      *)&os_err);                                       // ponteiro com err
 424:..\app.c      ****     
 425:..\app.c      ****     // ======== task diz play  ========
 426:..\app.c      ****     OSTaskCreate((OS_TCB      *)&App_Task_Display_TCB,                             // endereço da 
 503              		.loc 1 426 0
 504 00f8 BB1D     		adds	r3, r7, #6
 505 00fa 0893     		str	r3, [sp, #32]
 506 00fc 0323     		movs	r3, #3
 507 00fe 0793     		str	r3, [sp, #28]
 508 0100 0023     		movs	r3, #0
 509 0102 0693     		str	r3, [sp, #24]
 510 0104 0023     		movs	r3, #0
 511 0106 0593     		str	r3, [sp, #20]
 512 0108 0023     		movs	r3, #0
 513 010a 0493     		str	r3, [sp, #16]
 514 010c 4023     		movs	r3, #64
 515 010e 0393     		str	r3, [sp, #12]
 516 0110 0623     		movs	r3, #6
 517 0112 0293     		str	r3, [sp, #8]
 518 0114 4B4B     		ldr	r3, .L14+76
 519 0116 0193     		str	r3, [sp, #4]
 520 0118 0723     		movs	r3, #7
 521 011a 0093     		str	r3, [sp]
 522 011c 0023     		movs	r3, #0
 523 011e 4A4A     		ldr	r2, .L14+80
 524 0120 4A49     		ldr	r1, .L14+84
 525 0122 4B48     		ldr	r0, .L14+88
 526 0124 FFF7FEFF 		bl	OSTaskCreate
 427:..\app.c      ****                  (CPU_CHAR    *)"Display_Task",                                    // string com no
 428:..\app.c      ****                  (OS_TASK_PTR  )App_Task_Display,                                  // endereco da f
 429:..\app.c      ****                  (void        *)0,                                              // parametros passa
 430:..\app.c      ****                  (OS_PRIO      )APP_CFG_TASK_DISPLAY_PRIO,                         // prioridade de
 431:..\app.c      ****                  (CPU_STK     *)&App_Task_Display_Stk[0],                          // endereco base
 432:..\app.c      ****                  (CPU_STK_SIZE )APP_CFG_TASK_DISPLAY_STK_SIZE_LIMIT,               // endereco fina
 433:..\app.c      ****                  (CPU_STK_SIZE )APP_CFG_TASK_DISPLAY_STK_SIZE,                     // tamanho da pi
 434:..\app.c      ****                  (OS_MSG_QTY   )0u,                                             // task incapaz de 
 435:..\app.c      ****                  (OS_TICK      )0u,                                             // clock tick defau
 436:..\app.c      ****                  (void        *)0,                                              // sem endereço de
 437:..\app.c      ****                  (OS_OPT       )(OS_OPT_TASK_STK_CHK | OS_OPT_TASK_STK_CLR),    // opcoes especific
 438:..\app.c      ****                  (OS_ERR      *)&os_err);                                       // ponteiro com err
 439:..\app.c      ****     
 440:..\app.c      ****     
 441:..\app.c      ****     // ======== task semaforo veiculo 01  ========
 442:..\app.c      ****     OSTaskCreate((OS_TCB      *)&App_Task_SV01_TCB,                             // endereço da tas
 527              		.loc 1 442 0
 528 0128 BB1D     		adds	r3, r7, #6
 529 012a 0893     		str	r3, [sp, #32]
 530 012c 0323     		movs	r3, #3
 531 012e 0793     		str	r3, [sp, #28]
ARM GAS  C:\Users\alex\AppData\Local\Temp\ccpvubq1.s 			page 20


 532 0130 0023     		movs	r3, #0
 533 0132 0693     		str	r3, [sp, #24]
 534 0134 0023     		movs	r3, #0
 535 0136 0593     		str	r3, [sp, #20]
 536 0138 0023     		movs	r3, #0
 537 013a 0493     		str	r3, [sp, #16]
 538 013c 4FF48073 		mov	r3, #256
 539 0140 0393     		str	r3, [sp, #12]
 540 0142 1923     		movs	r3, #25
 541 0144 0293     		str	r3, [sp, #8]
 542 0146 434B     		ldr	r3, .L14+92
 543 0148 0193     		str	r3, [sp, #4]
 544 014a 0423     		movs	r3, #4
 545 014c 0093     		str	r3, [sp]
 546 014e 0023     		movs	r3, #0
 547 0150 414A     		ldr	r2, .L14+96
 548 0152 4249     		ldr	r1, .L14+100
 549 0154 4248     		ldr	r0, .L14+104
 550 0156 FFF7FEFF 		bl	OSTaskCreate
 443:..\app.c      ****                  (CPU_CHAR    *)"SV01_Task",                                    // string com nome 
 444:..\app.c      ****                  (OS_TASK_PTR  )App_Task_SV01,                                  // endereco da func
 445:..\app.c      ****                  (void        *)0,                                              // parametros passa
 446:..\app.c      ****                  (OS_PRIO      )APP_CFG_TASK_SV01_PRIO,                         // prioridade de ex
 447:..\app.c      ****                  (CPU_STK     *)&App_Task_SVO1_Stk[0],                          // endereco base da
 448:..\app.c      ****                  (CPU_STK_SIZE )APP_CFG_TASK_SV01_STK_SIZE_LIMIT,               // endereco final d
 449:..\app.c      ****                  (CPU_STK_SIZE )APP_CFG_TASK_SV01_STK_SIZE,                     // tamanho da pilha
 450:..\app.c      ****                  (OS_MSG_QTY   )0u,                                             // task incapaz de 
 451:..\app.c      ****                  (OS_TICK      )0u,                                             // clock tick defau
 452:..\app.c      ****                  (void        *)0,                                              // sem endereço de
 453:..\app.c      ****                  (OS_OPT       )(OS_OPT_TASK_STK_CHK | OS_OPT_TASK_STK_CLR),    // opcoes especific
 454:..\app.c      ****                  (OS_ERR      *)&os_err);                                       // ponteiro com err
 455:..\app.c      ****     
 456:..\app.c      ****     // ======== task semaforo pedestre 01  ========
 457:..\app.c      ****     OSTaskCreate((OS_TCB      *)&App_Task_SP01_TCB,                             // endereço da tas
 551              		.loc 1 457 0
 552 015a BB1D     		adds	r3, r7, #6
 553 015c 0893     		str	r3, [sp, #32]
 554 015e 0323     		movs	r3, #3
 555 0160 0793     		str	r3, [sp, #28]
 556 0162 0023     		movs	r3, #0
 557 0164 0693     		str	r3, [sp, #24]
 558 0166 0023     		movs	r3, #0
 559 0168 0593     		str	r3, [sp, #20]
 560 016a 0023     		movs	r3, #0
 561 016c 0493     		str	r3, [sp, #16]
 562 016e 4FF48073 		mov	r3, #256
 563 0172 0393     		str	r3, [sp, #12]
 564 0174 1923     		movs	r3, #25
 565 0176 0293     		str	r3, [sp, #8]
 566 0178 3A4B     		ldr	r3, .L14+108
 567 017a 0193     		str	r3, [sp, #4]
 568 017c 0323     		movs	r3, #3
 569 017e 0093     		str	r3, [sp]
 570 0180 0023     		movs	r3, #0
 571 0182 394A     		ldr	r2, .L14+112
 572 0184 3949     		ldr	r1, .L14+116
 573 0186 3A48     		ldr	r0, .L14+120
ARM GAS  C:\Users\alex\AppData\Local\Temp\ccpvubq1.s 			page 21


 574 0188 FFF7FEFF 		bl	OSTaskCreate
 458:..\app.c      ****                  (CPU_CHAR    *)"SP01_Task",                                    // string com nome 
 459:..\app.c      ****                  (OS_TASK_PTR  )App_Task_SP01,                                  // endereco da func
 460:..\app.c      ****                  (void        *)0,                                              // parametros passa
 461:..\app.c      ****                  (OS_PRIO      )APP_CFG_TASK_SP01_PRIO,                         // prioridade de ex
 462:..\app.c      ****                  (CPU_STK     *)&App_Task_SPO1_Stk[0],                          // endereco base da
 463:..\app.c      ****                  (CPU_STK_SIZE )APP_CFG_TASK_SP01_STK_SIZE_LIMIT,               // endereco final d
 464:..\app.c      ****                  (CPU_STK_SIZE )APP_CFG_TASK_SP01_STK_SIZE,                     // tamanho da pilha
 465:..\app.c      ****                  (OS_MSG_QTY   )0u,                                             // task incapaz de 
 466:..\app.c      ****                  (OS_TICK      )0u,                                             // clock tick defau
 467:..\app.c      ****                  (void        *)0,                                              // sem endereço de
 468:..\app.c      ****                  (OS_OPT       )(OS_OPT_TASK_STK_CHK | OS_OPT_TASK_STK_CLR),    // opcoes especific
 469:..\app.c      ****                  (OS_ERR      *)&os_err);                                       // ponteiro com err
 470:..\app.c      ****     
 471:..\app.c      ****     // ======== task semaforo veiculo 02  ========
 472:..\app.c      ****     OSTaskCreate((OS_TCB      *)&App_Task_SV02_TCB,                             // endereço da tas
 575              		.loc 1 472 0
 576 018c BB1D     		adds	r3, r7, #6
 577 018e 0893     		str	r3, [sp, #32]
 578 0190 0323     		movs	r3, #3
 579 0192 0793     		str	r3, [sp, #28]
 580 0194 0023     		movs	r3, #0
 581 0196 0693     		str	r3, [sp, #24]
 582 0198 0023     		movs	r3, #0
 583 019a 0593     		str	r3, [sp, #20]
 584 019c 0023     		movs	r3, #0
 585 019e 0493     		str	r3, [sp, #16]
 586 01a0 4FF48073 		mov	r3, #256
 587 01a4 0393     		str	r3, [sp, #12]
 588 01a6 1923     		movs	r3, #25
 589 01a8 0293     		str	r3, [sp, #8]
 590 01aa 324B     		ldr	r3, .L14+124
 591 01ac 0193     		str	r3, [sp, #4]
 592 01ae 0423     		movs	r3, #4
 593 01b0 0093     		str	r3, [sp]
 594 01b2 0023     		movs	r3, #0
 595 01b4 304A     		ldr	r2, .L14+128
 596 01b6 3149     		ldr	r1, .L14+132
 597 01b8 3148     		ldr	r0, .L14+136
 598 01ba FFF7FEFF 		bl	OSTaskCreate
 473:..\app.c      ****                  (CPU_CHAR    *)"SV02_Task",                                    // string com nome 
 474:..\app.c      ****                  (OS_TASK_PTR  )App_Task_SV02,                                  // endereco da func
 475:..\app.c      ****                  (void        *)0,                                              // parametros passa
 476:..\app.c      ****                  (OS_PRIO      )APP_CFG_TASK_SV02_PRIO,                         // prioridade de ex
 477:..\app.c      ****                  (CPU_STK     *)&App_Task_SVO2_Stk[0],                          // endereco base da
 478:..\app.c      ****                  (CPU_STK_SIZE )APP_CFG_TASK_SV02_STK_SIZE_LIMIT,               // endereco final d
 479:..\app.c      ****                  (CPU_STK_SIZE )APP_CFG_TASK_SV02_STK_SIZE,                     // tamanho da pilha
 480:..\app.c      ****                  (OS_MSG_QTY   )0u,                                             // task incapaz de 
 481:..\app.c      ****                  (OS_TICK      )0u,                                             // clock tick defau
 482:..\app.c      ****                  (void        *)0,                                              // sem endereço de
 483:..\app.c      ****                  (OS_OPT       )(OS_OPT_TASK_STK_CHK | OS_OPT_TASK_STK_CLR),    // opcoes especific
 484:..\app.c      ****                  (OS_ERR      *)&os_err);                                       // ponteiro com err
 485:..\app.c      ****     
 486:..\app.c      ****     // ======== task semaforo pedestre 02  ========
 487:..\app.c      ****     OSTaskCreate((OS_TCB      *)&App_Task_SP02_TCB,                             // endereço da tas
 599              		.loc 1 487 0
 600 01be BB1D     		adds	r3, r7, #6
ARM GAS  C:\Users\alex\AppData\Local\Temp\ccpvubq1.s 			page 22


 601 01c0 0893     		str	r3, [sp, #32]
 602 01c2 0323     		movs	r3, #3
 603 01c4 0793     		str	r3, [sp, #28]
 604 01c6 0023     		movs	r3, #0
 605 01c8 0693     		str	r3, [sp, #24]
 606 01ca 0023     		movs	r3, #0
 607 01cc 0593     		str	r3, [sp, #20]
 608 01ce 0023     		movs	r3, #0
 609 01d0 0493     		str	r3, [sp, #16]
 610 01d2 4FF48073 		mov	r3, #256
 611 01d6 0393     		str	r3, [sp, #12]
 612 01d8 1923     		movs	r3, #25
 613 01da 0293     		str	r3, [sp, #8]
 614 01dc 294B     		ldr	r3, .L14+140
 615 01de 0193     		str	r3, [sp, #4]
 616 01e0 0323     		movs	r3, #3
 617 01e2 0093     		str	r3, [sp]
 618 01e4 0023     		movs	r3, #0
 619 01e6 284A     		ldr	r2, .L14+144
 620 01e8 2849     		ldr	r1, .L14+148
 621 01ea 2948     		ldr	r0, .L14+152
 622 01ec FFF7FEFF 		bl	OSTaskCreate
 488:..\app.c      ****                  (CPU_CHAR    *)"SP02_Task",                                    // string com nome 
 489:..\app.c      ****                  (OS_TASK_PTR  )App_Task_SP02,                                  // endereco da func
 490:..\app.c      ****                  (void        *)0,                                              // parametros passa
 491:..\app.c      ****                  (OS_PRIO      )APP_CFG_TASK_SP02_PRIO,                         // prioridade de ex
 492:..\app.c      ****                  (CPU_STK     *)&App_Task_SPO2_Stk[0],                          // endereco base da
 493:..\app.c      ****                  (CPU_STK_SIZE )APP_CFG_TASK_SP02_STK_SIZE_LIMIT,               // endereco final d
 494:..\app.c      ****                  (CPU_STK_SIZE )APP_CFG_TASK_SP02_STK_SIZE,                     // tamanho da pilha
 495:..\app.c      ****                  (OS_MSG_QTY   )0u,                                             // task incapaz de 
 496:..\app.c      ****                  (OS_TICK      )0u,                                             // clock tick defau
 497:..\app.c      ****                  (void        *)0,                                              // sem endereço de
 498:..\app.c      ****                  (OS_OPT       )(OS_OPT_TASK_STK_CHK | OS_OPT_TASK_STK_CLR),    // opcoes especific
 499:..\app.c      ****                  (OS_ERR      *)&os_err);                                       // ponteiro com err
 500:..\app.c      ****     
 501:..\app.c      ****     
 502:..\app.c      **** }
 623              		.loc 1 502 0
 624 01f0 00BF     		nop
 625 01f2 0837     		adds	r7, r7, #8
 626              		.cfi_def_cfa_offset 8
 627 01f4 BD46     		mov	sp, r7
 628              		.cfi_def_cfa_register 13
 629              		@ sp needed
 630 01f6 80BD     		pop	{r7, pc}
 631              	.L15:
 632              		.align	2
 633              	.L14:
 634 01f8 80030000 		.word	App_TaskUserIFStk
 635 01fc 00000000 		.word	App_TaskUserIF
 636 0200 00000000 		.word	.LC0
 637 0204 C0020000 		.word	App_TaskUserIF_TCB
 638 0208 40080000 		.word	App_Task_Ihm_Stk
 639 020c 00000000 		.word	App_Task_Ihm
 640 0210 08000000 		.word	.LC1
 641 0214 80070000 		.word	App_Task_Ihm_TCB
 642 0218 000A0000 		.word	App_Task_Emerg_Stk
ARM GAS  C:\Users\alex\AppData\Local\Temp\ccpvubq1.s 			page 23


 643 021c 00000000 		.word	App_Task_Emerg
 644 0220 14000000 		.word	.LC2
 645 0224 40090000 		.word	App_Task_Emerg_TCB
 646 0228 C00B0000 		.word	App_Task_Sen_Mec_Stk
 647 022c 00000000 		.word	App_Task_Sen_Mec
 648 0230 20000000 		.word	.LC3
 649 0234 000B0000 		.word	App_Task_Sen_Mec_TCB
 650 0238 800D0000 		.word	App_Task_Sen_Temp_Stk
 651 023c 00000000 		.word	App_Task_Sen_Temp
 652 0240 30000000 		.word	.LC4
 653 0244 400F0000 		.word	App_Task_Display_Stk
 654 0248 00000000 		.word	App_Task_Display
 655 024c 40000000 		.word	.LC5
 656 0250 800E0000 		.word	App_Task_Display_TCB
 657 0254 00110000 		.word	App_Task_SVO1_Stk
 658 0258 00000000 		.word	App_Task_SV01
 659 025c 50000000 		.word	.LC6
 660 0260 40100000 		.word	App_Task_SV01_TCB
 661 0264 C0150000 		.word	App_Task_SPO1_Stk
 662 0268 00000000 		.word	App_Task_SP01
 663 026c 5C000000 		.word	.LC7
 664 0270 00150000 		.word	App_Task_SP01_TCB
 665 0274 801A0000 		.word	App_Task_SVO2_Stk
 666 0278 00000000 		.word	App_Task_SV02
 667 027c 68000000 		.word	.LC8
 668 0280 C0190000 		.word	App_Task_SV02_TCB
 669 0284 401F0000 		.word	App_Task_SPO2_Stk
 670 0288 00000000 		.word	App_Task_SP02
 671 028c 74000000 		.word	.LC9
 672 0290 801E0000 		.word	App_Task_SP02_TCB
 673              		.cfi_endproc
 674              	.LFE68:
 675              		.size	App_TaskCreate, .-App_TaskCreate
 676              		.section	.text.App_Task_Ihm,"ax",%progbits
 677              		.align	2
 678              		.thumb
 679              		.thumb_func
 680              		.type	App_Task_Ihm, %function
 681              	App_Task_Ihm:
 682              	.LFB69:
 503:..\app.c      **** 
 504:..\app.c      **** static  void  App_Task_Ihm(void *p_arg)
 505:..\app.c      **** {
 683              		.loc 1 505 0
 684              		.cfi_startproc
 685              		@ args = 0, pretend = 0, frame = 8
 686              		@ frame_needed = 1, uses_anonymous_args = 0
 687              		@ link register save eliminated.
 688 0000 80B4     		push	{r7}
 689              		.cfi_def_cfa_offset 4
 690              		.cfi_offset 7, -4
 691 0002 83B0     		sub	sp, sp, #12
 692              		.cfi_def_cfa_offset 16
 693 0004 00AF     		add	r7, sp, #0
 694              		.cfi_def_cfa_register 7
 695 0006 7860     		str	r0, [r7, #4]
 506:..\app.c      ****     
ARM GAS  C:\Users\alex\AppData\Local\Temp\ccpvubq1.s 			page 24


 507:..\app.c      ****     /* estruturas */
 508:..\app.c      ****     
 509:..\app.c      ****     typedef enum{E1,E2,E3} estados_t;                   /* 
 510:..\app.c      ****                                                             maquina de estados
 511:..\app.c      ****                                                             E1: ST: VR - SP: VD
 512:..\app.c      ****                                                             E2: ST: VD - SP: VR
 513:..\app.c      ****                                                             E3: ST: AM - SP: VR
 514:..\app.c      ****                                                         */
 515:..\app.c      **** 
 516:..\app.c      ****     /* variaveis locais */
 517:..\app.c      **** 
 518:..\app.c      ****     //CPU_INT16U      t_qtde = TIVE;                    /* base para periodo de tempo para delay pa
 519:..\app.c      ****     estados_t       estado;                             /* declatando struct para estados */
 520:..\app.c      ****     void            *p_msg;                             /* recebe mensagens da ISR do botao 01 - pe
 521:..\app.c      ****     OS_MSG_SIZE     msg_size;                           /* tamanho da mensagem */
 522:..\app.c      ****     CPU_TS          ts;                                 /* indica quando a mensagem foi postada */ 
 523:..\app.c      ****     OS_ERR          err;                                /* var com os erros do processo */
 524:..\app.c      ****     
 525:..\app.c      **** 
 526:..\app.c      ****      
 527:..\app.c      ****    (void)p_arg;
 528:..\app.c      **** 
 529:..\app.c      **** 
 530:..\app.c      ****     
 531:..\app.c      **** }
 696              		.loc 1 531 0
 697 0008 00BF     		nop
 698 000a 0C37     		adds	r7, r7, #12
 699              		.cfi_def_cfa_offset 4
 700 000c BD46     		mov	sp, r7
 701              		.cfi_def_cfa_register 13
 702              		@ sp needed
 703 000e 80BC     		pop	{r7}
 704              		.cfi_restore 7
 705              		.cfi_def_cfa_offset 0
 706 0010 7047     		bx	lr
 707              		.cfi_endproc
 708              	.LFE69:
 709              		.size	App_Task_Ihm, .-App_Task_Ihm
 710 0012 00BF     		.section	.text.App_Task_Emerg,"ax",%progbits
 711              		.align	2
 712              		.thumb
 713              		.thumb_func
 714              		.type	App_Task_Emerg, %function
 715              	App_Task_Emerg:
 716              	.LFB70:
 532:..\app.c      **** 
 533:..\app.c      **** static  void  App_Task_Emerg(void *p_arg)
 534:..\app.c      **** {
 717              		.loc 1 534 0
 718              		.cfi_startproc
 719              		@ args = 0, pretend = 0, frame = 8
 720              		@ frame_needed = 1, uses_anonymous_args = 0
 721              		@ link register save eliminated.
 722 0000 80B4     		push	{r7}
 723              		.cfi_def_cfa_offset 4
 724              		.cfi_offset 7, -4
ARM GAS  C:\Users\alex\AppData\Local\Temp\ccpvubq1.s 			page 25


 725 0002 83B0     		sub	sp, sp, #12
 726              		.cfi_def_cfa_offset 16
 727 0004 00AF     		add	r7, sp, #0
 728              		.cfi_def_cfa_register 7
 729 0006 7860     		str	r0, [r7, #4]
 535:..\app.c      ****     
 536:..\app.c      ****     /* estruturas */
 537:..\app.c      ****     
 538:..\app.c      ****     typedef enum{E1,E2,E3} estados_t;                   /* 
 539:..\app.c      ****                                                             maquina de estados
 540:..\app.c      ****                                                             E1: ST: VR - SP: VD
 541:..\app.c      ****                                                             E2: ST: VD - SP: VR
 542:..\app.c      ****                                                             E3: ST: AM - SP: VR
 543:..\app.c      ****                                                         */
 544:..\app.c      **** 
 545:..\app.c      ****     /* variaveis locais */
 546:..\app.c      **** 
 547:..\app.c      ****     //CPU_INT16U      t_qtde = TIVE;                    /* base para periodo de tempo para delay pa
 548:..\app.c      ****     estados_t       estado;                             /* declatando struct para estados */
 549:..\app.c      ****     void            *p_msg;                             /* recebe mensagens da ISR do botao 01 - pe
 550:..\app.c      ****     OS_MSG_SIZE     msg_size;                           /* tamanho da mensagem */
 551:..\app.c      ****     CPU_TS          ts;                                 /* indica quando a mensagem foi postada */ 
 552:..\app.c      ****     OS_ERR          err;                                /* var com os erros do processo */
 553:..\app.c      ****     
 554:..\app.c      **** 
 555:..\app.c      ****      
 556:..\app.c      ****    (void)p_arg;
 557:..\app.c      **** 
 558:..\app.c      **** 
 559:..\app.c      ****     
 560:..\app.c      **** }
 730              		.loc 1 560 0
 731 0008 00BF     		nop
 732 000a 0C37     		adds	r7, r7, #12
 733              		.cfi_def_cfa_offset 4
 734 000c BD46     		mov	sp, r7
 735              		.cfi_def_cfa_register 13
 736              		@ sp needed
 737 000e 80BC     		pop	{r7}
 738              		.cfi_restore 7
 739              		.cfi_def_cfa_offset 0
 740 0010 7047     		bx	lr
 741              		.cfi_endproc
 742              	.LFE70:
 743              		.size	App_Task_Emerg, .-App_Task_Emerg
 744 0012 00BF     		.section	.text.App_Task_Sen_Mec,"ax",%progbits
 745              		.align	2
 746              		.thumb
 747              		.thumb_func
 748              		.type	App_Task_Sen_Mec, %function
 749              	App_Task_Sen_Mec:
 750              	.LFB71:
 561:..\app.c      **** 
 562:..\app.c      **** static  void  App_Task_Sen_Mec(void *p_arg)
 563:..\app.c      **** {
 751              		.loc 1 563 0
 752              		.cfi_startproc
ARM GAS  C:\Users\alex\AppData\Local\Temp\ccpvubq1.s 			page 26


 753              		@ args = 0, pretend = 0, frame = 8
 754              		@ frame_needed = 1, uses_anonymous_args = 0
 755              		@ link register save eliminated.
 756 0000 80B4     		push	{r7}
 757              		.cfi_def_cfa_offset 4
 758              		.cfi_offset 7, -4
 759 0002 83B0     		sub	sp, sp, #12
 760              		.cfi_def_cfa_offset 16
 761 0004 00AF     		add	r7, sp, #0
 762              		.cfi_def_cfa_register 7
 763 0006 7860     		str	r0, [r7, #4]
 564:..\app.c      ****     
 565:..\app.c      ****     /* estruturas */
 566:..\app.c      ****     
 567:..\app.c      ****     typedef enum{E1,E2,E3} estados_t;                   /* 
 568:..\app.c      ****                                                             maquina de estados
 569:..\app.c      ****                                                             E1: ST: VR - SP: VD
 570:..\app.c      ****                                                             E2: ST: VD - SP: VR
 571:..\app.c      ****                                                             E3: ST: AM - SP: VR
 572:..\app.c      ****                                                         */
 573:..\app.c      **** 
 574:..\app.c      ****     /* variaveis locais */
 575:..\app.c      **** 
 576:..\app.c      ****     //CPU_INT16U      t_qtde = TIVE;                    /* base para periodo de tempo para delay pa
 577:..\app.c      ****     estados_t       estado;                             /* declatando struct para estados */
 578:..\app.c      ****     void            *p_msg;                             /* recebe mensagens da ISR do botao 01 - pe
 579:..\app.c      ****     OS_MSG_SIZE     msg_size;                           /* tamanho da mensagem */
 580:..\app.c      ****     CPU_TS          ts;                                 /* indica quando a mensagem foi postada */ 
 581:..\app.c      ****     OS_ERR          err;                                /* var com os erros do processo */
 582:..\app.c      ****     
 583:..\app.c      **** 
 584:..\app.c      ****      
 585:..\app.c      ****    (void)p_arg;
 586:..\app.c      **** 
 587:..\app.c      **** 
 588:..\app.c      ****     
 589:..\app.c      **** }
 764              		.loc 1 589 0
 765 0008 00BF     		nop
 766 000a 0C37     		adds	r7, r7, #12
 767              		.cfi_def_cfa_offset 4
 768 000c BD46     		mov	sp, r7
 769              		.cfi_def_cfa_register 13
 770              		@ sp needed
 771 000e 80BC     		pop	{r7}
 772              		.cfi_restore 7
 773              		.cfi_def_cfa_offset 0
 774 0010 7047     		bx	lr
 775              		.cfi_endproc
 776              	.LFE71:
 777              		.size	App_Task_Sen_Mec, .-App_Task_Sen_Mec
 778 0012 00BF     		.section	.text.App_Task_Sen_Temp,"ax",%progbits
 779              		.align	2
 780              		.thumb
 781              		.thumb_func
 782              		.type	App_Task_Sen_Temp, %function
 783              	App_Task_Sen_Temp:
ARM GAS  C:\Users\alex\AppData\Local\Temp\ccpvubq1.s 			page 27


 784              	.LFB72:
 590:..\app.c      **** 
 591:..\app.c      **** static  void  App_Task_Sen_Temp(void *p_arg)
 592:..\app.c      **** {
 785              		.loc 1 592 0
 786              		.cfi_startproc
 787              		@ args = 0, pretend = 0, frame = 8
 788              		@ frame_needed = 1, uses_anonymous_args = 0
 789              		@ link register save eliminated.
 790 0000 80B4     		push	{r7}
 791              		.cfi_def_cfa_offset 4
 792              		.cfi_offset 7, -4
 793 0002 83B0     		sub	sp, sp, #12
 794              		.cfi_def_cfa_offset 16
 795 0004 00AF     		add	r7, sp, #0
 796              		.cfi_def_cfa_register 7
 797 0006 7860     		str	r0, [r7, #4]
 593:..\app.c      ****     
 594:..\app.c      ****     /* estruturas */
 595:..\app.c      ****     
 596:..\app.c      ****     typedef enum{E1,E2,E3} estados_t;                   /* 
 597:..\app.c      ****                                                             maquina de estados
 598:..\app.c      ****                                                             E1: ST: VR - SP: VD
 599:..\app.c      ****                                                             E2: ST: VD - SP: VR
 600:..\app.c      ****                                                             E3: ST: AM - SP: VR
 601:..\app.c      ****                                                         */
 602:..\app.c      **** 
 603:..\app.c      ****     /* variaveis locais */
 604:..\app.c      **** 
 605:..\app.c      ****     //CPU_INT16U      t_qtde = TIVE;                    /* base para periodo de tempo para delay pa
 606:..\app.c      ****     estados_t       estado;                             /* declatando struct para estados */
 607:..\app.c      ****     void            *p_msg;                             /* recebe mensagens da ISR do botao 01 - pe
 608:..\app.c      ****     OS_MSG_SIZE     msg_size;                           /* tamanho da mensagem */
 609:..\app.c      ****     CPU_TS          ts;                                 /* indica quando a mensagem foi postada */ 
 610:..\app.c      ****     OS_ERR          err;                                /* var com os erros do processo */
 611:..\app.c      ****     
 612:..\app.c      **** 
 613:..\app.c      ****      
 614:..\app.c      ****    (void)p_arg;
 615:..\app.c      **** 
 616:..\app.c      **** 
 617:..\app.c      ****     
 618:..\app.c      **** }
 798              		.loc 1 618 0
 799 0008 00BF     		nop
 800 000a 0C37     		adds	r7, r7, #12
 801              		.cfi_def_cfa_offset 4
 802 000c BD46     		mov	sp, r7
 803              		.cfi_def_cfa_register 13
 804              		@ sp needed
 805 000e 80BC     		pop	{r7}
 806              		.cfi_restore 7
 807              		.cfi_def_cfa_offset 0
 808 0010 7047     		bx	lr
 809              		.cfi_endproc
 810              	.LFE72:
 811              		.size	App_Task_Sen_Temp, .-App_Task_Sen_Temp
ARM GAS  C:\Users\alex\AppData\Local\Temp\ccpvubq1.s 			page 28


 812 0012 00BF     		.section	.text.App_Task_Display,"ax",%progbits
 813              		.align	2
 814              		.thumb
 815              		.thumb_func
 816              		.type	App_Task_Display, %function
 817              	App_Task_Display:
 818              	.LFB73:
 619:..\app.c      **** 
 620:..\app.c      **** static  void  App_Task_Display(void *p_arg)
 621:..\app.c      **** {
 819              		.loc 1 621 0
 820              		.cfi_startproc
 821              		@ args = 0, pretend = 0, frame = 8
 822              		@ frame_needed = 1, uses_anonymous_args = 0
 823              		@ link register save eliminated.
 824 0000 80B4     		push	{r7}
 825              		.cfi_def_cfa_offset 4
 826              		.cfi_offset 7, -4
 827 0002 83B0     		sub	sp, sp, #12
 828              		.cfi_def_cfa_offset 16
 829 0004 00AF     		add	r7, sp, #0
 830              		.cfi_def_cfa_register 7
 831 0006 7860     		str	r0, [r7, #4]
 622:..\app.c      ****     
 623:..\app.c      ****     /* estruturas */
 624:..\app.c      ****     
 625:..\app.c      ****     typedef enum{E1,E2,E3} estados_t;                   /* 
 626:..\app.c      ****                                                             maquina de estados
 627:..\app.c      ****                                                             E1: ST: VR - SP: VD
 628:..\app.c      ****                                                             E2: ST: VD - SP: VR
 629:..\app.c      ****                                                             E3: ST: AM - SP: VR
 630:..\app.c      ****                                                         */
 631:..\app.c      **** 
 632:..\app.c      ****     /* variaveis locais */
 633:..\app.c      **** 
 634:..\app.c      ****     //CPU_INT16U      t_qtde = TIVE;                    /* base para periodo de tempo para delay pa
 635:..\app.c      ****     estados_t       estado;                             /* declatando struct para estados */
 636:..\app.c      ****     void            *p_msg;                             /* recebe mensagens da ISR do botao 01 - pe
 637:..\app.c      ****     OS_MSG_SIZE     msg_size;                           /* tamanho da mensagem */
 638:..\app.c      ****     CPU_TS          ts;                                 /* indica quando a mensagem foi postada */ 
 639:..\app.c      ****     OS_ERR          err;                                /* var com os erros do processo */
 640:..\app.c      ****     
 641:..\app.c      **** 
 642:..\app.c      ****      
 643:..\app.c      ****    (void)p_arg;
 644:..\app.c      **** 
 645:..\app.c      **** 
 646:..\app.c      ****     
 647:..\app.c      **** }
 832              		.loc 1 647 0
 833 0008 00BF     		nop
 834 000a 0C37     		adds	r7, r7, #12
 835              		.cfi_def_cfa_offset 4
 836 000c BD46     		mov	sp, r7
 837              		.cfi_def_cfa_register 13
 838              		@ sp needed
 839 000e 80BC     		pop	{r7}
ARM GAS  C:\Users\alex\AppData\Local\Temp\ccpvubq1.s 			page 29


 840              		.cfi_restore 7
 841              		.cfi_def_cfa_offset 0
 842 0010 7047     		bx	lr
 843              		.cfi_endproc
 844              	.LFE73:
 845              		.size	App_Task_Display, .-App_Task_Display
 846 0012 00BF     		.section	.text.App_Task_SV01,"ax",%progbits
 847              		.align	2
 848              		.thumb
 849              		.thumb_func
 850              		.type	App_Task_SV01, %function
 851              	App_Task_SV01:
 852              	.LFB74:
 648:..\app.c      **** 
 649:..\app.c      **** ////////////////////////////////////////
 650:..\app.c      **** 
 651:..\app.c      **** static  void  App_Task_SV01(void *p_arg)
 652:..\app.c      **** {
 853              		.loc 1 652 0
 854              		.cfi_startproc
 855              		@ args = 0, pretend = 0, frame = 16
 856              		@ frame_needed = 1, uses_anonymous_args = 0
 857 0000 80B5     		push	{r7, lr}
 858              		.cfi_def_cfa_offset 8
 859              		.cfi_offset 7, -8
 860              		.cfi_offset 14, -4
 861 0002 86B0     		sub	sp, sp, #24
 862              		.cfi_def_cfa_offset 32
 863 0004 02AF     		add	r7, sp, #8
 864              		.cfi_def_cfa 7, 24
 865 0006 7860     		str	r0, [r7, #4]
 866              	.L30:
 653:..\app.c      ****     
 654:..\app.c      ****     /* estruturas */
 655:..\app.c      ****     
 656:..\app.c      ****     typedef enum{E1,E2,E3} estados_t;                   /* 
 657:..\app.c      ****                                                             maquina de estados
 658:..\app.c      ****                                                             E1: ST: VR - SP: VD
 659:..\app.c      ****                                                             E2: ST: VD - SP: VR
 660:..\app.c      ****                                                             E3: ST: AM - SP: VR
 661:..\app.c      ****                                                         */
 662:..\app.c      **** 
 663:..\app.c      ****     /* variaveis locais */
 664:..\app.c      **** 
 665:..\app.c      ****     //CPU_INT16U      t_qtde = TIVE;                    /* base para periodo de tempo para delay pa
 666:..\app.c      ****     estados_t       estado;                             /* declatando struct para estados */
 667:..\app.c      ****     void            *p_msg;                             /* recebe mensagens da ISR do botao 01 - pe
 668:..\app.c      ****     OS_MSG_SIZE     msg_size;                           /* tamanho da mensagem */
 669:..\app.c      ****     CPU_TS          ts;                                 /* indica quando a mensagem foi postada */ 
 670:..\app.c      ****     OS_ERR          err;                                /* var com os erros do processo */
 671:..\app.c      ****     
 672:..\app.c      **** 
 673:..\app.c      ****      
 674:..\app.c      ****    (void)p_arg;
 675:..\app.c      **** 
 676:..\app.c      ****     
 677:..\app.c      ****     //CyGlobalIntEnable; /* Enable global interrupts. */
ARM GAS  C:\Users\alex\AppData\Local\Temp\ccpvubq1.s 			page 30


 678:..\app.c      **** 
 679:..\app.c      ****     /* Place your initialization/startup code here (e.g. MyInst_Start()) */
 680:..\app.c      ****     
 681:..\app.c      ****     
 682:..\app.c      ****     for(;;)
 683:..\app.c      ****     {
 684:..\app.c      ****         /* Place your application code here. */
 685:..\app.c      ****         
 686:..\app.c      ****         //CyDelay(t_base);                              /* contagem de tempo */
 687:..\app.c      ****         OSTimeDlyHMSM(0, 0, 0, TBASE, 
 867              		.loc 1 687 0
 868 0008 07F10C03 		add	r3, r7, #12
 869 000c 0193     		str	r3, [sp, #4]
 870 000e 1023     		movs	r3, #16
 871 0010 0093     		str	r3, [sp]
 872 0012 4FF47A73 		mov	r3, #1000
 873 0016 0022     		movs	r2, #0
 874 0018 0021     		movs	r1, #0
 875 001a 0020     		movs	r0, #0
 876 001c FFF7FEFF 		bl	OSTimeDlyHMSM
 688:..\app.c      ****                       OS_OPT_TIME_HMSM_NON_STRICT, 
 689:..\app.c      ****                       &err);
 690:..\app.c      ****         t_qtde1++;                                      /* atualiza contagem de tempo */
 877              		.loc 1 690 0
 878 0020 1C4B     		ldr	r3, .L31
 879 0022 1B88     		ldrh	r3, [r3]
 880 0024 0133     		adds	r3, r3, #1
 881 0026 9AB2     		uxth	r2, r3
 882 0028 1A4B     		ldr	r3, .L31
 883 002a 1A80     		strh	r2, [r3]	@ movhi
 691:..\app.c      ****         
 692:..\app.c      ****         if(t_qtde1 < TFVM)                              /* se contagem entre  0 e 30 entra no E1 - 
 884              		.loc 1 692 0
 885 002c 194B     		ldr	r3, .L31
 886 002e 1B88     		ldrh	r3, [r3]
 887 0030 312B     		cmp	r3, #49
 888 0032 02D8     		bhi	.L22
 693:..\app.c      ****             estado = E1;
 889              		.loc 1 693 0
 890 0034 0023     		movs	r3, #0
 891 0036 FB73     		strb	r3, [r7, #15]
 892 0038 18E0     		b	.L23
 893              	.L22:
 694:..\app.c      ****         else if(t_qtde1 >= TIVE && t_qtde1 < TFVE)      /* se contagem entre 30 e 75 entra no E2 - 
 894              		.loc 1 694 0
 895 003a 164B     		ldr	r3, .L31
 896 003c 1B88     		ldrh	r3, [r3]
 897 003e 312B     		cmp	r3, #49
 898 0040 06D9     		bls	.L24
 899              		.loc 1 694 0 is_stmt 0 discriminator 1
 900 0042 144B     		ldr	r3, .L31
 901 0044 1B88     		ldrh	r3, [r3]
 902 0046 5E2B     		cmp	r3, #94
 903 0048 02D8     		bhi	.L24
 695:..\app.c      ****             estado = E2; 
 904              		.loc 1 695 0 is_stmt 1
 905 004a 0123     		movs	r3, #1
ARM GAS  C:\Users\alex\AppData\Local\Temp\ccpvubq1.s 			page 31


 906 004c FB73     		strb	r3, [r7, #15]
 907 004e 0DE0     		b	.L23
 908              	.L24:
 696:..\app.c      ****         else if(t_qtde1 >= TIAM && t_qtde1 < TFAM)      /* se contagem entre 75 e 80 entra no E3 - 
 909              		.loc 1 696 0
 910 0050 104B     		ldr	r3, .L31
 911 0052 1B88     		ldrh	r3, [r3]
 912 0054 5E2B     		cmp	r3, #94
 913 0056 06D9     		bls	.L25
 914              		.loc 1 696 0 is_stmt 0 discriminator 1
 915 0058 0E4B     		ldr	r3, .L31
 916 005a 1B88     		ldrh	r3, [r3]
 917 005c 632B     		cmp	r3, #99
 918 005e 02D8     		bhi	.L25
 697:..\app.c      ****             estado = E3;
 919              		.loc 1 697 0 is_stmt 1
 920 0060 0223     		movs	r3, #2
 921 0062 FB73     		strb	r3, [r7, #15]
 922 0064 02E0     		b	.L23
 923              	.L25:
 698:..\app.c      ****         else                                            /* repete ciclo do timer */
 699:..\app.c      ****             t_qtde1 = TIVM;
 924              		.loc 1 699 0
 925 0066 0B4B     		ldr	r3, .L31
 926 0068 0022     		movs	r2, #0
 927 006a 1A80     		strh	r2, [r3]	@ movhi
 928              	.L23:
 700:..\app.c      ****                        
 701:..\app.c      ****         
 702:..\app.c      ****         switch(estado){                                 /* maquina de estados */
 929              		.loc 1 702 0
 930 006c FB7B     		ldrb	r3, [r7, #15]	@ zero_extendqisi2
 931 006e 012B     		cmp	r3, #1
 932 0070 07D0     		beq	.L27
 933 0072 022B     		cmp	r3, #2
 934 0074 09D0     		beq	.L28
 935 0076 002B     		cmp	r3, #0
 936 0078 0BD1     		bne	.L26
 703:..\app.c      ****             case E1: go_to_E1(SEM1); break;
 937              		.loc 1 703 0
 938 007a 0120     		movs	r0, #1
 939 007c FFF7FEFF 		bl	go_to_E1
 940 0080 07E0     		b	.L26
 941              	.L27:
 704:..\app.c      ****             case E2: go_to_E2(SEM1); break;
 942              		.loc 1 704 0
 943 0082 0120     		movs	r0, #1
 944 0084 FFF7FEFF 		bl	go_to_E2
 945 0088 03E0     		b	.L26
 946              	.L28:
 705:..\app.c      ****             case E3: go_to_E3(SEM1); break;
 947              		.loc 1 705 0
 948 008a 0120     		movs	r0, #1
 949 008c FFF7FEFF 		bl	go_to_E3
 950 0090 00BF     		nop
 951              	.L26:
 706:..\app.c      ****         }
ARM GAS  C:\Users\alex\AppData\Local\Temp\ccpvubq1.s 			page 32


 707:..\app.c      ****         
 708:..\app.c      ****                                                         /* lembrar periodo 0s - 80s - sem. t. verde
 709:..\app.c      ****         
 710:..\app.c      ****            
 711:..\app.c      ****     }
 952              		.loc 1 711 0
 953 0092 B9E7     		b	.L30
 954              	.L32:
 955              		.align	2
 956              	.L31:
 957 0094 00000000 		.word	t_qtde1
 958              		.cfi_endproc
 959              	.LFE74:
 960              		.size	App_Task_SV01, .-App_Task_SV01
 961              		.section	.text.App_Task_SP01,"ax",%progbits
 962              		.align	2
 963              		.thumb
 964              		.thumb_func
 965              		.type	App_Task_SP01, %function
 966              	App_Task_SP01:
 967              	.LFB75:
 712:..\app.c      ****     
 713:..\app.c      **** }
 714:..\app.c      **** 
 715:..\app.c      **** static  void  App_Task_SP01(void *p_arg)
 716:..\app.c      **** {
 968              		.loc 1 716 0
 969              		.cfi_startproc
 970              		@ args = 0, pretend = 0, frame = 16
 971              		@ frame_needed = 1, uses_anonymous_args = 0
 972 0000 80B5     		push	{r7, lr}
 973              		.cfi_def_cfa_offset 8
 974              		.cfi_offset 7, -8
 975              		.cfi_offset 14, -4
 976 0002 86B0     		sub	sp, sp, #24
 977              		.cfi_def_cfa_offset 32
 978 0004 02AF     		add	r7, sp, #8
 979              		.cfi_def_cfa 7, 24
 980 0006 7860     		str	r0, [r7, #4]
 981              	.L43:
 717:..\app.c      ****     
 718:..\app.c      ****     /* estruturas */
 719:..\app.c      ****     
 720:..\app.c      ****     
 721:..\app.c      ****     
 722:..\app.c      ****     typedef enum{E1,E2,E3} estados_t;                   /* 
 723:..\app.c      ****                                                             maquina de estados
 724:..\app.c      ****                                                             E1: ST: VR - SP: VD
 725:..\app.c      ****                                                             E2: ST: VD - SP: VR
 726:..\app.c      ****                                                             E3: ST: AM - SP: VR
 727:..\app.c      ****                                                         */
 728:..\app.c      **** 
 729:..\app.c      ****     /* variaveis locais */
 730:..\app.c      **** 
 731:..\app.c      ****     
 732:..\app.c      ****     //CPU_INT16U      t_qtde = TIVE;                      /* base para periodo de tempo para delay 
 733:..\app.c      ****     estados_t       estado;                             /* declatando struct para estados */
ARM GAS  C:\Users\alex\AppData\Local\Temp\ccpvubq1.s 			page 33


 734:..\app.c      ****     void            *p_msg;                             /* recebe mensagens da ISR do botao 01 - pe
 735:..\app.c      ****     OS_MSG_SIZE     msg_size;                           /* tamanho da mensagem */
 736:..\app.c      ****     CPU_TS          ts;                                 /* indica quando a mensagem foi postada */ 
 737:..\app.c      ****     OS_ERR          err;                                /* var com os erros do processo */
 738:..\app.c      ****     
 739:..\app.c      **** 
 740:..\app.c      ****      
 741:..\app.c      ****    (void)p_arg;
 742:..\app.c      **** 
 743:..\app.c      ****     
 744:..\app.c      ****     //CyGlobalIntEnable; /* Enable global interrupts. */
 745:..\app.c      **** 
 746:..\app.c      ****     /* Place your initialization/startup code here (e.g. MyInst_Start()) */
 747:..\app.c      ****     
 748:..\app.c      ****         
 749:..\app.c      ****     //Pin_BP01_int_StartEx(Pin_BP01_Handler);           /* habilita ISR do pino*/
 750:..\app.c      **** 
 751:..\app.c      ****     for(;;)
 752:..\app.c      ****     {
 753:..\app.c      ****         /* Place your application code here. */
 754:..\app.c      ****         
 755:..\app.c      ****         //CyDelay(t_base);                               /* contagem de tempo */
 756:..\app.c      ****         OSTimeDlyHMSM(0, 0, 0, TBASE, 
 982              		.loc 1 756 0
 983 0008 07F10C03 		add	r3, r7, #12
 984 000c 0193     		str	r3, [sp, #4]
 985 000e 1023     		movs	r3, #16
 986 0010 0093     		str	r3, [sp]
 987 0012 4FF47A73 		mov	r3, #1000
 988 0016 0022     		movs	r2, #0
 989 0018 0021     		movs	r1, #0
 990 001a 0020     		movs	r0, #0
 991 001c FFF7FEFF 		bl	OSTimeDlyHMSM
 757:..\app.c      ****                       OS_OPT_TIME_HMSM_NON_STRICT, 
 758:..\app.c      ****                       &err);
 759:..\app.c      ****         t_qtde2++;                                      /* atualiza contagem de tempo */
 992              		.loc 1 759 0
 993 0020 2B4B     		ldr	r3, .L44
 994 0022 1B88     		ldrh	r3, [r3]
 995 0024 0133     		adds	r3, r3, #1
 996 0026 9AB2     		uxth	r2, r3
 997 0028 294B     		ldr	r3, .L44
 998 002a 1A80     		strh	r2, [r3]	@ movhi
 760:..\app.c      ****         
 761:..\app.c      ****         if(t_qtde2 < TFVM)                              /* se contagem entre  0 e 30 entra no E1 - 
 999              		.loc 1 761 0
 1000 002c 284B     		ldr	r3, .L44
 1001 002e 1B88     		ldrh	r3, [r3]
 1002 0030 312B     		cmp	r3, #49
 1003 0032 02D8     		bhi	.L34
 762:..\app.c      ****             estado = E1;
 1004              		.loc 1 762 0
 1005 0034 0023     		movs	r3, #0
 1006 0036 FB73     		strb	r3, [r7, #15]
 1007 0038 18E0     		b	.L35
 1008              	.L34:
 763:..\app.c      ****         else if(t_qtde2 >= TIVE && t_qtde2 < TFVE)      /* se contagem entre 30 e 75 entra no E2 - 
ARM GAS  C:\Users\alex\AppData\Local\Temp\ccpvubq1.s 			page 34


 1009              		.loc 1 763 0
 1010 003a 254B     		ldr	r3, .L44
 1011 003c 1B88     		ldrh	r3, [r3]
 1012 003e 312B     		cmp	r3, #49
 1013 0040 06D9     		bls	.L36
 1014              		.loc 1 763 0 is_stmt 0 discriminator 1
 1015 0042 234B     		ldr	r3, .L44
 1016 0044 1B88     		ldrh	r3, [r3]
 1017 0046 5E2B     		cmp	r3, #94
 1018 0048 02D8     		bhi	.L36
 764:..\app.c      ****             estado = E2; 
 1019              		.loc 1 764 0 is_stmt 1
 1020 004a 0123     		movs	r3, #1
 1021 004c FB73     		strb	r3, [r7, #15]
 1022 004e 0DE0     		b	.L35
 1023              	.L36:
 765:..\app.c      ****         else if(t_qtde2 >= TIAM && t_qtde2 < TFAM)      /* se contagem entre 75 e 80 entra no E3 - 
 1024              		.loc 1 765 0
 1025 0050 1F4B     		ldr	r3, .L44
 1026 0052 1B88     		ldrh	r3, [r3]
 1027 0054 5E2B     		cmp	r3, #94
 1028 0056 06D9     		bls	.L37
 1029              		.loc 1 765 0 is_stmt 0 discriminator 1
 1030 0058 1D4B     		ldr	r3, .L44
 1031 005a 1B88     		ldrh	r3, [r3]
 1032 005c 632B     		cmp	r3, #99
 1033 005e 02D8     		bhi	.L37
 766:..\app.c      ****             estado = E3;
 1034              		.loc 1 766 0 is_stmt 1
 1035 0060 0223     		movs	r3, #2
 1036 0062 FB73     		strb	r3, [r7, #15]
 1037 0064 02E0     		b	.L35
 1038              	.L37:
 767:..\app.c      ****         else                                            /* repete ciclo do timer */
 768:..\app.c      ****            t_qtde2 = TIVM;
 1039              		.loc 1 768 0
 1040 0066 1A4B     		ldr	r3, .L44
 1041 0068 0022     		movs	r2, #0
 1042 006a 1A80     		strh	r2, [r3]	@ movhi
 1043              	.L35:
 769:..\app.c      ****                        
 770:..\app.c      ****        
 771:..\app.c      ****         switch(estado){                                 /* maquina de estados */
 1044              		.loc 1 771 0
 1045 006c FB7B     		ldrb	r3, [r7, #15]	@ zero_extendqisi2
 1046 006e 012B     		cmp	r3, #1
 1047 0070 07D0     		beq	.L39
 1048 0072 022B     		cmp	r3, #2
 1049 0074 09D0     		beq	.L40
 1050 0076 002B     		cmp	r3, #0
 1051 0078 0BD1     		bne	.L38
 772:..\app.c      ****             case E1: go_to_E1(SEM1); break;
 1052              		.loc 1 772 0
 1053 007a 0120     		movs	r0, #1
 1054 007c FFF7FEFF 		bl	go_to_E1
 1055 0080 07E0     		b	.L38
 1056              	.L39:
ARM GAS  C:\Users\alex\AppData\Local\Temp\ccpvubq1.s 			page 35


 773:..\app.c      ****             case E2: go_to_E2(SEM1); break;
 1057              		.loc 1 773 0
 1058 0082 0120     		movs	r0, #1
 1059 0084 FFF7FEFF 		bl	go_to_E2
 1060 0088 03E0     		b	.L38
 1061              	.L40:
 774:..\app.c      ****             case E3: go_to_E3(SEM1); break;
 1062              		.loc 1 774 0
 1063 008a 0120     		movs	r0, #1
 1064 008c FFF7FEFF 		bl	go_to_E3
 1065 0090 00BF     		nop
 1066              	.L38:
 775:..\app.c      ****         }
 776:..\app.c      ****         
 777:..\app.c      ****         
 778:..\app.c      ****         //p_msg = OSTaskQPend(0,                          /* 0 clock ticks de timeout - valor irrel
 779:..\app.c      ****         //                    OS_OPT_PEND_NON_BLOCKING,   /* nao bloqueia a task se nao tiver mensa
 780:..\app.c      ****         //                    &msg_size,
 781:..\app.c      ****         //                    &ts,
 782:..\app.c      ****         //                   &err);
 783:..\app.c      ****         
 784:..\app.c      ****                                                         /* lembrar periodo 0s - 80s - sem. t. verde
 785:..\app.c      ****         if((estado == E2) && (bp01Msg)){                /* caso estado = E2 e se uma mensagem foi r
 1067              		.loc 1 785 0
 1068 0092 FB7B     		ldrb	r3, [r7, #15]	@ zero_extendqisi2
 1069 0094 012B     		cmp	r3, #1
 1070 0096 16D1     		bne	.L42
 1071              		.loc 1 785 0 is_stmt 0 discriminator 1
 1072 0098 0E4B     		ldr	r3, .L44+4
 1073 009a 1B78     		ldrb	r3, [r3]	@ zero_extendqisi2
 1074 009c 002B     		cmp	r3, #0
 1075 009e 12D0     		beq	.L42
 786:..\app.c      ****                                                 
 787:..\app.c      ****             if(t_qtde2 > TCVE){                         /* tem menos de 30s de s. tran. aberto, se 
 1076              		.loc 1 787 0 is_stmt 1
 1077 00a0 0B4B     		ldr	r3, .L44
 1078 00a2 1B88     		ldrh	r3, [r3]
 1079 00a4 502B     		cmp	r3, #80
 1080 00a6 0ED9     		bls	.L42
 788:..\app.c      ****                                                         /* caso contrário passa direto para o esta
 789:..\app.c      ****                 t_qtde1 = TIAM;                         /* ajusta o ciclo do temporizador para entr
 1081              		.loc 1 789 0
 1082 00a8 0B4B     		ldr	r3, .L44+8
 1083 00aa 5F22     		movs	r2, #95
 1084 00ac 1A80     		strh	r2, [r3]	@ movhi
 790:..\app.c      ****                 t_qtde2 = TIAM;                         /* ajusta o ciclo do temporizador para entr
 1085              		.loc 1 790 0
 1086 00ae 084B     		ldr	r3, .L44
 1087 00b0 5F22     		movs	r2, #95
 1088 00b2 1A80     		strh	r2, [r3]	@ movhi
 791:..\app.c      ****                 t_qtde3 = TASJ;                         /* ajuste de sincronia entre semafortos */
 1089              		.loc 1 791 0
 1090 00b4 094B     		ldr	r3, .L44+12
 1091 00b6 2D22     		movs	r2, #45
 1092 00b8 1A80     		strh	r2, [r3]	@ movhi
 792:..\app.c      ****                 t_qtde4 = TASJ;                         /* ajuste de sincronia entre semafortos */
 1093              		.loc 1 792 0
ARM GAS  C:\Users\alex\AppData\Local\Temp\ccpvubq1.s 			page 36


 1094 00ba 094B     		ldr	r3, .L44+16
 1095 00bc 2D22     		movs	r2, #45
 1096 00be 1A80     		strh	r2, [r3]	@ movhi
 793:..\app.c      ****                 go_to_E3(SEM1);                         /* inicia execucao do E3 */
 1097              		.loc 1 793 0
 1098 00c0 0120     		movs	r0, #1
 1099 00c2 FFF7FEFF 		bl	go_to_E3
 1100              	.L42:
 794:..\app.c      ****             }
 795:..\app.c      ****             
 796:..\app.c      ****             
 797:..\app.c      ****         } 
 798:..\app.c      ****         
 799:..\app.c      ****         bp01Msg = 0;
 1101              		.loc 1 799 0
 1102 00c6 034B     		ldr	r3, .L44+4
 1103 00c8 0022     		movs	r2, #0
 1104 00ca 1A70     		strb	r2, [r3]
 800:..\app.c      ****         
 801:..\app.c      ****     }
 1105              		.loc 1 801 0
 1106 00cc 9CE7     		b	.L43
 1107              	.L45:
 1108 00ce 00BF     		.align	2
 1109              	.L44:
 1110 00d0 00000000 		.word	t_qtde2
 1111 00d4 00000000 		.word	bp01Msg
 1112 00d8 00000000 		.word	t_qtde1
 1113 00dc 00000000 		.word	t_qtde3
 1114 00e0 00000000 		.word	t_qtde4
 1115              		.cfi_endproc
 1116              	.LFE75:
 1117              		.size	App_Task_SP01, .-App_Task_SP01
 1118              		.section	.text.App_Task_SV02,"ax",%progbits
 1119              		.align	2
 1120              		.thumb
 1121              		.thumb_func
 1122              		.type	App_Task_SV02, %function
 1123              	App_Task_SV02:
 1124              	.LFB76:
 802:..\app.c      ****     
 803:..\app.c      **** }
 804:..\app.c      **** 
 805:..\app.c      **** static  void  App_Task_SV02(void *p_arg)
 806:..\app.c      **** {
 1125              		.loc 1 806 0
 1126              		.cfi_startproc
 1127              		@ args = 0, pretend = 0, frame = 16
 1128              		@ frame_needed = 1, uses_anonymous_args = 0
 1129 0000 80B5     		push	{r7, lr}
 1130              		.cfi_def_cfa_offset 8
 1131              		.cfi_offset 7, -8
 1132              		.cfi_offset 14, -4
 1133 0002 86B0     		sub	sp, sp, #24
 1134              		.cfi_def_cfa_offset 32
 1135 0004 02AF     		add	r7, sp, #8
 1136              		.cfi_def_cfa 7, 24
ARM GAS  C:\Users\alex\AppData\Local\Temp\ccpvubq1.s 			page 37


 1137 0006 7860     		str	r0, [r7, #4]
 807:..\app.c      ****     
 808:..\app.c      ****     /* estruturas */
 809:..\app.c      ****     
 810:..\app.c      ****     typedef enum{E1,E2,E3} estados_t;                   /* 
 811:..\app.c      ****                                                             maquina de estados
 812:..\app.c      ****                                                             E1: ST: VR - SP: VD
 813:..\app.c      ****                                                             E2: ST: VD - SP: VR
 814:..\app.c      ****                                                             E3: ST: AM - SP: VR
 815:..\app.c      ****                                                         */
 816:..\app.c      **** 
 817:..\app.c      ****     /* variaveis locais */
 818:..\app.c      **** 
 819:..\app.c      ****     
 820:..\app.c      ****     estados_t       estado;                             /* declatando struct para estados */
 821:..\app.c      ****     void            *p_msg;                             /* recebe mensagens da ISR do botao 01 - pe
 822:..\app.c      ****     OS_MSG_SIZE     msg_size;                           /* tamanho da mensagem */
 823:..\app.c      ****     CPU_TS          ts;                                 /* indica quando a mensagem foi postada */ 
 824:..\app.c      ****     OS_ERR          err;                                /* var com os erros do processo */
 825:..\app.c      ****     
 826:..\app.c      **** 
 827:..\app.c      ****      
 828:..\app.c      ****    (void)p_arg;
 829:..\app.c      **** 
 830:..\app.c      ****     
 831:..\app.c      ****     //CyGlobalIntEnable; /* Enable global interrupts. */
 832:..\app.c      **** 
 833:..\app.c      ****     /* Place your initialization/startup code here (e.g. MyInst_Start()) */
 834:..\app.c      ****     
 835:..\app.c      ****     estado = E3;                                        /* iniciando no estado 1 com tempo t = 0 */
 1138              		.loc 1 835 0
 1139 0008 0223     		movs	r3, #2
 1140 000a FB73     		strb	r3, [r7, #15]
 1141              	.L55:
 836:..\app.c      ****     
 837:..\app.c      **** 
 838:..\app.c      ****     for(;;)
 839:..\app.c      ****     {
 840:..\app.c      ****         /* Place your application code here. */
 841:..\app.c      ****         
 842:..\app.c      ****         //CyDelay(t_base);                                /* contagem de tempo */
 843:..\app.c      ****         OSTimeDlyHMSM(0, 0, 0, TBASE, 
 1142              		.loc 1 843 0
 1143 000c 07F10C03 		add	r3, r7, #12
 1144 0010 0193     		str	r3, [sp, #4]
 1145 0012 1023     		movs	r3, #16
 1146 0014 0093     		str	r3, [sp]
 1147 0016 4FF47A73 		mov	r3, #1000
 1148 001a 0022     		movs	r2, #0
 1149 001c 0021     		movs	r1, #0
 1150 001e 0020     		movs	r0, #0
 1151 0020 FFF7FEFF 		bl	OSTimeDlyHMSM
 844:..\app.c      ****                       OS_OPT_TIME_HMSM_NON_STRICT, 
 845:..\app.c      ****                       &err);
 846:..\app.c      ****         t_qtde3++;                                       /* atualiza contagem de tempo */
 1152              		.loc 1 846 0
 1153 0024 1C4B     		ldr	r3, .L56
ARM GAS  C:\Users\alex\AppData\Local\Temp\ccpvubq1.s 			page 38


 1154 0026 1B88     		ldrh	r3, [r3]
 1155 0028 0133     		adds	r3, r3, #1
 1156 002a 9AB2     		uxth	r2, r3
 1157 002c 1A4B     		ldr	r3, .L56
 1158 002e 1A80     		strh	r2, [r3]	@ movhi
 847:..\app.c      ****         
 848:..\app.c      ****         if(t_qtde3 < TFVM)                               /* se contagem entre  0 e 30 entra no E1 -
 1159              		.loc 1 848 0
 1160 0030 194B     		ldr	r3, .L56
 1161 0032 1B88     		ldrh	r3, [r3]
 1162 0034 312B     		cmp	r3, #49
 1163 0036 02D8     		bhi	.L47
 849:..\app.c      ****             estado = E1;
 1164              		.loc 1 849 0
 1165 0038 0023     		movs	r3, #0
 1166 003a FB73     		strb	r3, [r7, #15]
 1167 003c 18E0     		b	.L48
 1168              	.L47:
 850:..\app.c      ****         else if(t_qtde3 >= TIVE && t_qtde3 < TFVE)        /* se contagem entre 30 e 75 entra no E2 
 1169              		.loc 1 850 0
 1170 003e 164B     		ldr	r3, .L56
 1171 0040 1B88     		ldrh	r3, [r3]
 1172 0042 312B     		cmp	r3, #49
 1173 0044 06D9     		bls	.L49
 1174              		.loc 1 850 0 is_stmt 0 discriminator 1
 1175 0046 144B     		ldr	r3, .L56
 1176 0048 1B88     		ldrh	r3, [r3]
 1177 004a 5E2B     		cmp	r3, #94
 1178 004c 02D8     		bhi	.L49
 851:..\app.c      ****             estado = E2; 
 1179              		.loc 1 851 0 is_stmt 1
 1180 004e 0123     		movs	r3, #1
 1181 0050 FB73     		strb	r3, [r7, #15]
 1182 0052 0DE0     		b	.L48
 1183              	.L49:
 852:..\app.c      ****         else if(t_qtde3 >= TIAM && t_qtde3 < TFAM)        /* se contagem entre 75 e 80 entra no E3 
 1184              		.loc 1 852 0
 1185 0054 104B     		ldr	r3, .L56
 1186 0056 1B88     		ldrh	r3, [r3]
 1187 0058 5E2B     		cmp	r3, #94
 1188 005a 06D9     		bls	.L50
 1189              		.loc 1 852 0 is_stmt 0 discriminator 1
 1190 005c 0E4B     		ldr	r3, .L56
 1191 005e 1B88     		ldrh	r3, [r3]
 1192 0060 632B     		cmp	r3, #99
 1193 0062 02D8     		bhi	.L50
 853:..\app.c      ****             estado = E3;
 1194              		.loc 1 853 0 is_stmt 1
 1195 0064 0223     		movs	r3, #2
 1196 0066 FB73     		strb	r3, [r7, #15]
 1197 0068 02E0     		b	.L48
 1198              	.L50:
 854:..\app.c      ****         else                                            /* repete ciclo do timer */
 855:..\app.c      ****             t_qtde3 = TIVM;
 1199              		.loc 1 855 0
 1200 006a 0B4B     		ldr	r3, .L56
 1201 006c 0022     		movs	r2, #0
ARM GAS  C:\Users\alex\AppData\Local\Temp\ccpvubq1.s 			page 39


 1202 006e 1A80     		strh	r2, [r3]	@ movhi
 1203              	.L48:
 856:..\app.c      ****                        
 857:..\app.c      ****         
 858:..\app.c      ****         switch(estado){                                 /* maquina de estados */
 1204              		.loc 1 858 0
 1205 0070 FB7B     		ldrb	r3, [r7, #15]	@ zero_extendqisi2
 1206 0072 012B     		cmp	r3, #1
 1207 0074 07D0     		beq	.L52
 1208 0076 022B     		cmp	r3, #2
 1209 0078 09D0     		beq	.L53
 1210 007a 002B     		cmp	r3, #0
 1211 007c 0BD1     		bne	.L51
 859:..\app.c      ****             case E1: go_to_E1(SEM2); break;
 1212              		.loc 1 859 0
 1213 007e 0220     		movs	r0, #2
 1214 0080 FFF7FEFF 		bl	go_to_E1
 1215 0084 07E0     		b	.L51
 1216              	.L52:
 860:..\app.c      ****             case E2: go_to_E2(SEM2); break;
 1217              		.loc 1 860 0
 1218 0086 0220     		movs	r0, #2
 1219 0088 FFF7FEFF 		bl	go_to_E2
 1220 008c 03E0     		b	.L51
 1221              	.L53:
 861:..\app.c      ****             case E3: go_to_E3(SEM2); break;
 1222              		.loc 1 861 0
 1223 008e 0220     		movs	r0, #2
 1224 0090 FFF7FEFF 		bl	go_to_E3
 1225 0094 00BF     		nop
 1226              	.L51:
 862:..\app.c      ****         }
 863:..\app.c      ****            
 864:..\app.c      ****     }
 1227              		.loc 1 864 0
 1228 0096 B9E7     		b	.L55
 1229              	.L57:
 1230              		.align	2
 1231              	.L56:
 1232 0098 00000000 		.word	t_qtde3
 1233              		.cfi_endproc
 1234              	.LFE76:
 1235              		.size	App_Task_SV02, .-App_Task_SV02
 1236              		.section	.text.App_Task_SP02,"ax",%progbits
 1237              		.align	2
 1238              		.thumb
 1239              		.thumb_func
 1240              		.type	App_Task_SP02, %function
 1241              	App_Task_SP02:
 1242              	.LFB77:
 865:..\app.c      ****     
 866:..\app.c      **** }
 867:..\app.c      **** 
 868:..\app.c      **** static  void  App_Task_SP02(void *p_arg)
 869:..\app.c      **** {
 1243              		.loc 1 869 0
 1244              		.cfi_startproc
ARM GAS  C:\Users\alex\AppData\Local\Temp\ccpvubq1.s 			page 40


 1245              		@ args = 0, pretend = 0, frame = 16
 1246              		@ frame_needed = 1, uses_anonymous_args = 0
 1247 0000 80B5     		push	{r7, lr}
 1248              		.cfi_def_cfa_offset 8
 1249              		.cfi_offset 7, -8
 1250              		.cfi_offset 14, -4
 1251 0002 86B0     		sub	sp, sp, #24
 1252              		.cfi_def_cfa_offset 32
 1253 0004 02AF     		add	r7, sp, #8
 1254              		.cfi_def_cfa 7, 24
 1255 0006 7860     		str	r0, [r7, #4]
 870:..\app.c      ****     
 871:..\app.c      ****     /* estruturas */
 872:..\app.c      ****     
 873:..\app.c      ****     typedef enum{E1,E2,E3} estados_t;                   /* 
 874:..\app.c      ****                                                             maquina de estados
 875:..\app.c      ****                                                             E1: ST: VR - SP: VD
 876:..\app.c      ****                                                             E2: ST: VD - SP: VR
 877:..\app.c      ****                                                             E3: ST: AM - SP: VR
 878:..\app.c      ****                                                         */
 879:..\app.c      **** 
 880:..\app.c      ****     /* variaveis locais */
 881:..\app.c      **** 
 882:..\app.c      ****     
 883:..\app.c      ****     estados_t       estado;                             /* declatando struct para estados */
 884:..\app.c      ****     void            *p_msg;                             /* recebe mensagens da ISR do botao 01 - pe
 885:..\app.c      ****     OS_MSG_SIZE     msg_size;                           /* tamanho da mensagem */
 886:..\app.c      ****     CPU_TS          ts;                                 /* indica quando a mensagem foi postada */ 
 887:..\app.c      ****     OS_ERR          err;                                /* var com os erros do processo */
 888:..\app.c      ****     
 889:..\app.c      **** 
 890:..\app.c      ****      
 891:..\app.c      ****    (void)p_arg;
 892:..\app.c      **** 
 893:..\app.c      ****     
 894:..\app.c      ****     //CyGlobalIntEnable; /* Enable global interrupts. */
 895:..\app.c      **** 
 896:..\app.c      ****     /* Place your initialization/startup code here (e.g. MyInst_Start()) */
 897:..\app.c      ****     
 898:..\app.c      ****     estado = E3;                                        /* iniciando no estado 1 com tempo t = 0 */
 1256              		.loc 1 898 0
 1257 0008 0223     		movs	r3, #2
 1258 000a FB73     		strb	r3, [r7, #15]
 1259              	.L68:
 899:..\app.c      ****     
 900:..\app.c      ****     //Pin_BP02_int_StartEx(Pin_BP02_Handler);           /* habilita ISR do pino*/
 901:..\app.c      **** 
 902:..\app.c      ****     for(;;)
 903:..\app.c      ****     {
 904:..\app.c      ****         /* Place your application code here. */
 905:..\app.c      ****         
 906:..\app.c      ****         //CyDelay(t_base);                              /* contagem de tempo */
 907:..\app.c      ****         OSTimeDlyHMSM(0, 0, 0, TBASE, 
 1260              		.loc 1 907 0
 1261 000c 07F10C03 		add	r3, r7, #12
 1262 0010 0193     		str	r3, [sp, #4]
 1263 0012 1023     		movs	r3, #16
ARM GAS  C:\Users\alex\AppData\Local\Temp\ccpvubq1.s 			page 41


 1264 0014 0093     		str	r3, [sp]
 1265 0016 4FF47A73 		mov	r3, #1000
 1266 001a 0022     		movs	r2, #0
 1267 001c 0021     		movs	r1, #0
 1268 001e 0020     		movs	r0, #0
 1269 0020 FFF7FEFF 		bl	OSTimeDlyHMSM
 908:..\app.c      ****                       OS_OPT_TIME_HMSM_NON_STRICT, 
 909:..\app.c      ****                       &err);
 910:..\app.c      ****         t_qtde4++;                                       /* atualiza contagem de tempo */
 1270              		.loc 1 910 0
 1271 0024 2B4B     		ldr	r3, .L69
 1272 0026 1B88     		ldrh	r3, [r3]
 1273 0028 0133     		adds	r3, r3, #1
 1274 002a 9AB2     		uxth	r2, r3
 1275 002c 294B     		ldr	r3, .L69
 1276 002e 1A80     		strh	r2, [r3]	@ movhi
 911:..\app.c      ****         
 912:..\app.c      ****         if(t_qtde4 < TFVM)                               /* se contagem entre  0 e 30 entra no E1 -
 1277              		.loc 1 912 0
 1278 0030 284B     		ldr	r3, .L69
 1279 0032 1B88     		ldrh	r3, [r3]
 1280 0034 312B     		cmp	r3, #49
 1281 0036 02D8     		bhi	.L59
 913:..\app.c      ****             estado = E1;
 1282              		.loc 1 913 0
 1283 0038 0023     		movs	r3, #0
 1284 003a FB73     		strb	r3, [r7, #15]
 1285 003c 18E0     		b	.L60
 1286              	.L59:
 914:..\app.c      ****         else if(t_qtde4 >= TIVE && t_qtde4 < TFVE)      /* se contagem entre 30 e 75 entra no E2 - 
 1287              		.loc 1 914 0
 1288 003e 254B     		ldr	r3, .L69
 1289 0040 1B88     		ldrh	r3, [r3]
 1290 0042 312B     		cmp	r3, #49
 1291 0044 06D9     		bls	.L61
 1292              		.loc 1 914 0 is_stmt 0 discriminator 1
 1293 0046 234B     		ldr	r3, .L69
 1294 0048 1B88     		ldrh	r3, [r3]
 1295 004a 5E2B     		cmp	r3, #94
 1296 004c 02D8     		bhi	.L61
 915:..\app.c      ****             estado = E2; 
 1297              		.loc 1 915 0 is_stmt 1
 1298 004e 0123     		movs	r3, #1
 1299 0050 FB73     		strb	r3, [r7, #15]
 1300 0052 0DE0     		b	.L60
 1301              	.L61:
 916:..\app.c      ****         else if(t_qtde4 >= TIAM && t_qtde4 < TFAM)      /* se contagem entre 75 e 80 entra no E3 - 
 1302              		.loc 1 916 0
 1303 0054 1F4B     		ldr	r3, .L69
 1304 0056 1B88     		ldrh	r3, [r3]
 1305 0058 5E2B     		cmp	r3, #94
 1306 005a 06D9     		bls	.L62
 1307              		.loc 1 916 0 is_stmt 0 discriminator 1
 1308 005c 1D4B     		ldr	r3, .L69
 1309 005e 1B88     		ldrh	r3, [r3]
 1310 0060 632B     		cmp	r3, #99
 1311 0062 02D8     		bhi	.L62
ARM GAS  C:\Users\alex\AppData\Local\Temp\ccpvubq1.s 			page 42


 917:..\app.c      ****             estado = E3;
 1312              		.loc 1 917 0 is_stmt 1
 1313 0064 0223     		movs	r3, #2
 1314 0066 FB73     		strb	r3, [r7, #15]
 1315 0068 02E0     		b	.L60
 1316              	.L62:
 918:..\app.c      ****         else                                            /* repete ciclo do timer */
 919:..\app.c      ****             t_qtde4 = TIVM;
 1317              		.loc 1 919 0
 1318 006a 1A4B     		ldr	r3, .L69
 1319 006c 0022     		movs	r2, #0
 1320 006e 1A80     		strh	r2, [r3]	@ movhi
 1321              	.L60:
 920:..\app.c      ****                        
 921:..\app.c      ****         
 922:..\app.c      ****         switch(estado){                                 /* maquina de estados */
 1322              		.loc 1 922 0
 1323 0070 FB7B     		ldrb	r3, [r7, #15]	@ zero_extendqisi2
 1324 0072 012B     		cmp	r3, #1
 1325 0074 07D0     		beq	.L64
 1326 0076 022B     		cmp	r3, #2
 1327 0078 09D0     		beq	.L65
 1328 007a 002B     		cmp	r3, #0
 1329 007c 0BD1     		bne	.L63
 923:..\app.c      ****             case E1: go_to_E1(SEM2); break;
 1330              		.loc 1 923 0
 1331 007e 0220     		movs	r0, #2
 1332 0080 FFF7FEFF 		bl	go_to_E1
 1333 0084 07E0     		b	.L63
 1334              	.L64:
 924:..\app.c      ****             case E2: go_to_E2(SEM2); break;
 1335              		.loc 1 924 0
 1336 0086 0220     		movs	r0, #2
 1337 0088 FFF7FEFF 		bl	go_to_E2
 1338 008c 03E0     		b	.L63
 1339              	.L65:
 925:..\app.c      ****             case E3: go_to_E3(SEM2); break;
 1340              		.loc 1 925 0
 1341 008e 0220     		movs	r0, #2
 1342 0090 FFF7FEFF 		bl	go_to_E3
 1343 0094 00BF     		nop
 1344              	.L63:
 926:..\app.c      ****         }
 927:..\app.c      ****         
 928:..\app.c      ****         
 929:..\app.c      ****         
 930:..\app.c      ****         
 931:..\app.c      ****                                                         /* lembrar periodo 0s - 80s - sem. t. verde
 932:..\app.c      ****         //if((estado == E2) && (err == OS_ERR_NONE)){   /* caso estado = E2 e se uma mensagem foi r
 933:..\app.c      ****                                                 
 934:..\app.c      ****         //    if(t_qtde < TCVE)                         /* tem menos de 30s de s. tran. aberto, se 
 935:..\app.c      ****         //        t_qtde = TFVE - (TCVE - t_qtde);      /* atualiza o tempo para contagem inteirar 
 936:..\app.c      ****         //   else{                                      /* caso contrário passa direto para o esta
 937:..\app.c      ****         //        t_qtde = TIAM;                        /* ajusta o ciclo do temporizador para entr
 938:..\app.c      ****         //        estado = E3;                          /* muda para E3 - sem. t. alerta / sem. p. 
 939:..\app.c      ****         //        go_to_E3(SEM2);                       /* inicia execucao do E3 */
 940:..\app.c      ****         //    }
ARM GAS  C:\Users\alex\AppData\Local\Temp\ccpvubq1.s 			page 43


 941:..\app.c      ****             
 942:..\app.c      ****         //}
 943:..\app.c      ****         
 944:..\app.c      ****         if((estado == E2) && (bp02Msg)){     /* caso estado = E2 e se uma mensagem foi recebida */
 1345              		.loc 1 944 0
 1346 0096 FB7B     		ldrb	r3, [r7, #15]	@ zero_extendqisi2
 1347 0098 012B     		cmp	r3, #1
 1348 009a 16D1     		bne	.L67
 1349              		.loc 1 944 0 is_stmt 0 discriminator 1
 1350 009c 0E4B     		ldr	r3, .L69+4
 1351 009e 1B78     		ldrb	r3, [r3]	@ zero_extendqisi2
 1352 00a0 002B     		cmp	r3, #0
 1353 00a2 12D0     		beq	.L67
 945:..\app.c      ****                                                 
 946:..\app.c      ****             if(t_qtde4 > TCVE){                         /* tem menos de 30s de s. tran. aberto, se 
 1354              		.loc 1 946 0 is_stmt 1
 1355 00a4 0B4B     		ldr	r3, .L69
 1356 00a6 1B88     		ldrh	r3, [r3]
 1357 00a8 502B     		cmp	r3, #80
 1358 00aa 0ED9     		bls	.L67
 947:..\app.c      ****                                                         /* caso contrário passa direto para o esta
 948:..\app.c      ****                 t_qtde1 = TASJ;                         /* ajuste de sincronia entre semafortos */
 1359              		.loc 1 948 0
 1360 00ac 0B4B     		ldr	r3, .L69+8
 1361 00ae 2D22     		movs	r2, #45
 1362 00b0 1A80     		strh	r2, [r3]	@ movhi
 949:..\app.c      ****                 t_qtde2 = TASJ;                         /* ajuste de sincronia entre semafortos */
 1363              		.loc 1 949 0
 1364 00b2 0B4B     		ldr	r3, .L69+12
 1365 00b4 2D22     		movs	r2, #45
 1366 00b6 1A80     		strh	r2, [r3]	@ movhi
 950:..\app.c      ****                 t_qtde3 = TIAM;                         /* ajusta o ciclo do temporizador para entr
 1367              		.loc 1 950 0
 1368 00b8 0A4B     		ldr	r3, .L69+16
 1369 00ba 5F22     		movs	r2, #95
 1370 00bc 1A80     		strh	r2, [r3]	@ movhi
 951:..\app.c      ****                 t_qtde4 = TIAM;                         /* ajusta o ciclo do temporizador para entr
 1371              		.loc 1 951 0
 1372 00be 054B     		ldr	r3, .L69
 1373 00c0 5F22     		movs	r2, #95
 1374 00c2 1A80     		strh	r2, [r3]	@ movhi
 952:..\app.c      ****                 go_to_E3(SEM2);                         /* inicia execucao do E3 */
 1375              		.loc 1 952 0
 1376 00c4 0220     		movs	r0, #2
 1377 00c6 FFF7FEFF 		bl	go_to_E3
 1378              	.L67:
 953:..\app.c      ****             }
 954:..\app.c      ****             
 955:..\app.c      ****             
 956:..\app.c      ****         } 
 957:..\app.c      ****         
 958:..\app.c      ****         bp02Msg = 0;
 1379              		.loc 1 958 0
 1380 00ca 034B     		ldr	r3, .L69+4
 1381 00cc 0022     		movs	r2, #0
 1382 00ce 1A70     		strb	r2, [r3]
 959:..\app.c      ****         
ARM GAS  C:\Users\alex\AppData\Local\Temp\ccpvubq1.s 			page 44


 960:..\app.c      ****     }
 1383              		.loc 1 960 0
 1384 00d0 9CE7     		b	.L68
 1385              	.L70:
 1386 00d2 00BF     		.align	2
 1387              	.L69:
 1388 00d4 00000000 		.word	t_qtde4
 1389 00d8 00000000 		.word	bp02Msg
 1390 00dc 00000000 		.word	t_qtde1
 1391 00e0 00000000 		.word	t_qtde2
 1392 00e4 00000000 		.word	t_qtde3
 1393              		.cfi_endproc
 1394              	.LFE77:
 1395              		.size	App_Task_SP02, .-App_Task_SP02
 1396              		.section	.text.App_ObjCreate,"ax",%progbits
 1397              		.align	2
 1398              		.thumb
 1399              		.thumb_func
 1400              		.type	App_ObjCreate, %function
 1401              	App_ObjCreate:
 1402              	.LFB78:
 961:..\app.c      ****     
 962:..\app.c      **** }
 963:..\app.c      **** 
 964:..\app.c      **** 
 965:..\app.c      **** 
 966:..\app.c      **** 
 967:..\app.c      **** /*
 968:..\app.c      **** ***************************************************************************************************
 969:..\app.c      **** *                                          App_ObjCreate()
 970:..\app.c      **** *
 971:..\app.c      **** * Description : Create application kernel objects tasks.
 972:..\app.c      **** *
 973:..\app.c      **** * Argument(s) : none
 974:..\app.c      **** *
 975:..\app.c      **** * Return(s)   : none
 976:..\app.c      **** *
 977:..\app.c      **** * Caller(s)   : AppTaskStart()
 978:..\app.c      **** *
 979:..\app.c      **** * Note(s)     : none.
 980:..\app.c      **** ***************************************************************************************************
 981:..\app.c      **** */
 982:..\app.c      **** 
 983:..\app.c      **** static  void  App_ObjCreate (void)
 984:..\app.c      **** {
 1403              		.loc 1 984 0
 1404              		.cfi_startproc
 1405              		@ args = 0, pretend = 0, frame = 0
 1406              		@ frame_needed = 1, uses_anonymous_args = 0
 1407              		@ link register save eliminated.
 1408 0000 80B4     		push	{r7}
 1409              		.cfi_def_cfa_offset 4
 1410              		.cfi_offset 7, -4
 1411 0002 00AF     		add	r7, sp, #0
 1412              		.cfi_def_cfa_register 7
 985:..\app.c      **** 
 986:..\app.c      **** }
ARM GAS  C:\Users\alex\AppData\Local\Temp\ccpvubq1.s 			page 45


 1413              		.loc 1 986 0
 1414 0004 00BF     		nop
 1415 0006 BD46     		mov	sp, r7
 1416              		.cfi_def_cfa_register 13
 1417              		@ sp needed
 1418 0008 80BC     		pop	{r7}
 1419              		.cfi_restore 7
 1420              		.cfi_def_cfa_offset 0
 1421 000a 7047     		bx	lr
 1422              		.cfi_endproc
 1423              	.LFE78:
 1424              		.size	App_ObjCreate, .-App_ObjCreate
 1425              		.section	.rodata
 1426 007e 0000     		.align	2
 1427              	.LC10:
 1428 0080 20202020 		.ascii	"                \000"
 1428      20202020 
 1428      20202020 
 1428      20202020 
 1428      00
 1429 0091 000000   		.align	2
 1430              	.LC11:
 1431 0094 4D696372 		.ascii	"Micrium uC/OS-III\000"
 1431      69756D20 
 1431      75432F4F 
 1431      532D4949 
 1431      4900
 1432 00a6 0000     		.align	2
 1433              	.LC12:
 1434 00a8 75432F4F 		.ascii	"uC/OS-III Vx.yyy\000"
 1434      532D4949 
 1434      49205678 
 1434      2E797979 
 1434      00
 1435 00b9 000000   		.align	2
 1436              	.LC13:
 1437 00bc 5469636B 		.ascii	"TickRate:   xxxx\000"
 1437      52617465 
 1437      3A202020 
 1437      78787878 
 1437      00
 1438 00cd 000000   		.align	2
 1439              	.LC14:
 1440 00d0 43505520 		.ascii	"CPU Usage:xx %  \000"
 1440      55736167 
 1440      653A7878 
 1440      20252020 
 1440      00
 1441 00e1 000000   		.align	2
 1442              	.LC15:
 1443 00e4 43505520 		.ascii	"CPU Speed:xxxMHz\000"
 1443      53706565 
 1443      643A7878 
 1443      784D487A 
 1443      00
 1444 00f5 000000   		.align	2
 1445              	.LC16:
ARM GAS  C:\Users\alex\AppData\Local\Temp\ccpvubq1.s 			page 46


 1446 00f8 23546963 		.ascii	"#Ticks: xxxxxxxx\000"
 1446      6B733A20 
 1446      78787878 
 1446      78787878 
 1446      00
 1447 0109 000000   		.align	2
 1448              	.LC17:
 1449 010c 23437478 		.ascii	"#CtxSw: xxxxxxxx\000"
 1449      53773A20 
 1449      78787878 
 1449      78787878 
 1449      00
 1450 011d 000000   		.align	2
 1451              	.LC18:
 1452 0120 3D3D3D20 		.ascii	"=== Micrium === \000"
 1452      4D696372 
 1452      69756D20 
 1452      3D3D3D20 
 1452      00
 1453 0131 000000   		.align	2
 1454              	.LC19:
 1455 0134 20202075 		.ascii	"   uC/OS-III    \000"
 1455      432F4F53 
 1455      2D494949 
 1455      20202020 
 1455      00
 1456              		.section	.text.App_TaskUserIF,"ax",%progbits
 1457              		.align	2
 1458              		.thumb
 1459              		.thumb_func
 1460              		.type	App_TaskUserIF, %function
 1461              	App_TaskUserIF:
 1462              	.LFB79:
 987:..\app.c      **** 
 988:..\app.c      **** 
 989:..\app.c      **** /*
 990:..\app.c      **** ***************************************************************************************************
 991:..\app.c      **** *                                          App_TaskUserIF()
 992:..\app.c      **** *
 993:..\app.c      **** * Description : User interface task
 994:..\app.c      **** *
 995:..\app.c      **** * Argument(s) : p_arg   is the argument passed to 'App_TaskUserIF()' by 'OSTaskCreate()'.
 996:..\app.c      **** *
 997:..\app.c      **** * Return(s)   : none
 998:..\app.c      **** *
 999:..\app.c      **** * Note(s)     : 1) The first line of code is used to prevent a compiler warning because 'p_arg' is 
1000:..\app.c      **** *                  used.  The compiler should not generate any code for this statement.
1001:..\app.c      **** ***************************************************************************************************
1002:..\app.c      **** */
1003:..\app.c      **** 
1004:..\app.c      **** 
1005:..\app.c      **** static  void  App_TaskUserIF (void *p_arg)
1006:..\app.c      **** {
 1463              		.loc 1 1006 0
 1464              		.cfi_startproc
 1465              		@ args = 0, pretend = 0, frame = 40
 1466              		@ frame_needed = 1, uses_anonymous_args = 0
ARM GAS  C:\Users\alex\AppData\Local\Temp\ccpvubq1.s 			page 47


 1467 0000 80B5     		push	{r7, lr}
 1468              		.cfi_def_cfa_offset 8
 1469              		.cfi_offset 7, -8
 1470              		.cfi_offset 14, -4
 1471 0002 8EB0     		sub	sp, sp, #56
 1472              		.cfi_def_cfa_offset 64
 1473 0004 04AF     		add	r7, sp, #16
 1474              		.cfi_def_cfa 7, 48
 1475 0006 7860     		str	r0, [r7, #4]
1007:..\app.c      ****    CPU_INT32U   val;
1008:..\app.c      ****    CPU_INT08U   user_if_state_cur;
1009:..\app.c      ****    CPU_INT08U   user_if_state_prev;   
1010:..\app.c      ****    CPU_BOOLEAN  pb2_state_cur;
1011:..\app.c      ****    CPU_BOOLEAN  pb2_state_prev;
1012:..\app.c      ****    CPU_BOOLEAN  pb3_state_cur;
1013:..\app.c      ****    CPU_BOOLEAN  pb3_state_prev;
1014:..\app.c      ****    OS_ERR       os_err;
1015:..\app.c      ****    CPU_CHAR     line_str[17];
1016:..\app.c      ****    
1017:..\app.c      ****    
1018:..\app.c      ****    (void)p_arg;
1019:..\app.c      ****    
1020:..\app.c      ****    LCD_Disp_Start();                                             /* Initialize the LCD screen.     
 1476              		.loc 1 1020 0
 1477 0008 FFF7FEFF 		bl	LCD_Disp_Start
1021:..\app.c      ****    
1022:..\app.c      ****    LCD_Disp_Position(0u, 0u);                                    /* Clear LCD screen               
 1478              		.loc 1 1022 0
 1479 000c 0021     		movs	r1, #0
 1480 000e 0020     		movs	r0, #0
 1481 0010 FFF7FEFF 		bl	LCD_Disp_Position
1023:..\app.c      ****    LCD_Disp_PrintString((uint8 *)"                ");
 1482              		.loc 1 1023 0
 1483 0014 AE48     		ldr	r0, .L83
 1484 0016 FFF7FEFF 		bl	LCD_Disp_PrintString
1024:..\app.c      ****    LCD_Disp_Position(1u, 0u);
 1485              		.loc 1 1024 0
 1486 001a 0021     		movs	r1, #0
 1487 001c 0120     		movs	r0, #1
 1488 001e FFF7FEFF 		bl	LCD_Disp_Position
1025:..\app.c      ****    LCD_Disp_PrintString((uint8 *)"                ");
 1489              		.loc 1 1025 0
 1490 0022 AB48     		ldr	r0, .L83
 1491 0024 FFF7FEFF 		bl	LCD_Disp_PrintString
1026:..\app.c      ****    
1027:..\app.c      ****    LCD_Disp_PrintString((uint8 *)"Micrium uC/OS-III");
 1492              		.loc 1 1027 0
 1493 0028 AA48     		ldr	r0, .L83+4
 1494 002a FFF7FEFF 		bl	LCD_Disp_PrintString
1028:..\app.c      **** 
1029:..\app.c      ****    user_if_state_cur  = APP_USER_IF_SIGN_ON;
 1495              		.loc 1 1029 0
 1496 002e 0023     		movs	r3, #0
 1497 0030 87F82730 		strb	r3, [r7, #39]
1030:..\app.c      ****    user_if_state_prev = APP_USER_IF_SIGN_ON;
 1498              		.loc 1 1030 0
 1499 0034 0023     		movs	r3, #0
ARM GAS  C:\Users\alex\AppData\Local\Temp\ccpvubq1.s 			page 48


 1500 0036 87F82630 		strb	r3, [r7, #38]
1031:..\app.c      ****    pb2_state_cur      = DEF_OFF;
 1501              		.loc 1 1031 0
 1502 003a 0023     		movs	r3, #0
 1503 003c 87F82330 		strb	r3, [r7, #35]
1032:..\app.c      ****    pb2_state_prev     = DEF_OFF;
 1504              		.loc 1 1032 0
 1505 0040 0023     		movs	r3, #0
 1506 0042 87F82530 		strb	r3, [r7, #37]
1033:..\app.c      ****    pb3_state_cur      = DEF_OFF;
 1507              		.loc 1 1033 0
 1508 0046 0023     		movs	r3, #0
 1509 0048 87F82230 		strb	r3, [r7, #34]
1034:..\app.c      ****    pb3_state_prev     = DEF_OFF;
 1510              		.loc 1 1034 0
 1511 004c 0023     		movs	r3, #0
 1512 004e 87F82430 		strb	r3, [r7, #36]
 1513              	.L81:
1035:..\app.c      ****    
1036:..\app.c      ****    
1037:..\app.c      ****     while (DEF_TRUE) {    
1038:..\app.c      **** 
1039:..\app.c      ****         if (user_if_state_cur != user_if_state_prev) {
 1514              		.loc 1 1039 0
 1515 0052 97F82720 		ldrb	r2, [r7, #39]	@ zero_extendqisi2
 1516 0056 97F82630 		ldrb	r3, [r7, #38]	@ zero_extendqisi2
 1517 005a 9A42     		cmp	r2, r3
 1518 005c 11D0     		beq	.L73
1040:..\app.c      ****             LCD_Disp_Position(0u, 0u);
 1519              		.loc 1 1040 0
 1520 005e 0021     		movs	r1, #0
 1521 0060 0020     		movs	r0, #0
 1522 0062 FFF7FEFF 		bl	LCD_Disp_Position
1041:..\app.c      ****             LCD_Disp_PrintString((uint8 *)"                ");
 1523              		.loc 1 1041 0
 1524 0066 9A48     		ldr	r0, .L83
 1525 0068 FFF7FEFF 		bl	LCD_Disp_PrintString
1042:..\app.c      ****             LCD_Disp_Position(1u, 0u);
 1526              		.loc 1 1042 0
 1527 006c 0021     		movs	r1, #0
 1528 006e 0120     		movs	r0, #1
 1529 0070 FFF7FEFF 		bl	LCD_Disp_Position
1043:..\app.c      ****             LCD_Disp_PrintString((uint8 *)"                ");
 1530              		.loc 1 1043 0
 1531 0074 9648     		ldr	r0, .L83
 1532 0076 FFF7FEFF 		bl	LCD_Disp_PrintString
1044:..\app.c      ****             user_if_state_prev = user_if_state_cur;
 1533              		.loc 1 1044 0
 1534 007a 97F82730 		ldrb	r3, [r7, #39]
 1535 007e 87F82630 		strb	r3, [r7, #38]
 1536              	.L73:
1045:..\app.c      ****         }
1046:..\app.c      **** 
1047:..\app.c      ****         switch (user_if_state_cur) {
 1537              		.loc 1 1047 0
 1538 0082 97F82730 		ldrb	r3, [r7, #39]	@ zero_extendqisi2
 1539 0086 022B     		cmp	r3, #2
ARM GAS  C:\Users\alex\AppData\Local\Temp\ccpvubq1.s 			page 49


 1540 0088 76D0     		beq	.L75
 1541 008a 032B     		cmp	r3, #3
 1542 008c 00F0DE80 		beq	.L76
 1543 0090 012B     		cmp	r3, #1
 1544 0092 40F03D81 		bne	.L82
1048:..\app.c      ****             case APP_USER_IF_VER_TICK_RATE:
1049:..\app.c      ****                  Str_Copy(line_str, "uC/OS-III Vx.yyy");
 1545              		.loc 1 1049 0
 1546 0096 07F10803 		add	r3, r7, #8
 1547 009a 8F49     		ldr	r1, .L83+8
 1548 009c 1846     		mov	r0, r3
 1549 009e FFF7FEFF 		bl	Str_Copy
1050:..\app.c      ****                  val          = (CPU_INT32U)OSVersion(&os_err);
 1550              		.loc 1 1050 0
 1551 00a2 07F11A03 		add	r3, r7, #26
 1552 00a6 1846     		mov	r0, r3
 1553 00a8 FFF7FEFF 		bl	OSVersion
 1554 00ac 0346     		mov	r3, r0
 1555 00ae FB61     		str	r3, [r7, #28]
1051:..\app.c      ****                  line_str[11] = (val        )  / 1000u + '0';
 1556              		.loc 1 1051 0
 1557 00b0 FB69     		ldr	r3, [r7, #28]
 1558 00b2 8A4A     		ldr	r2, .L83+12
 1559 00b4 A2FB0323 		umull	r2, r3, r2, r3
 1560 00b8 9B09     		lsrs	r3, r3, #6
 1561 00ba DBB2     		uxtb	r3, r3
 1562 00bc 3033     		adds	r3, r3, #48
 1563 00be DBB2     		uxtb	r3, r3
 1564 00c0 FB74     		strb	r3, [r7, #19]
1052:..\app.c      ****                  line_str[13] = (val % 1000u)  /  100u + '0';
 1565              		.loc 1 1052 0
 1566 00c2 FA69     		ldr	r2, [r7, #28]
 1567 00c4 854B     		ldr	r3, .L83+12
 1568 00c6 A3FB0213 		umull	r1, r3, r3, r2
 1569 00ca 9B09     		lsrs	r3, r3, #6
 1570 00cc 4FF47A71 		mov	r1, #1000
 1571 00d0 01FB03F3 		mul	r3, r1, r3
 1572 00d4 D31A     		subs	r3, r2, r3
 1573 00d6 824A     		ldr	r2, .L83+16
 1574 00d8 A2FB0323 		umull	r2, r3, r2, r3
 1575 00dc 5B09     		lsrs	r3, r3, #5
 1576 00de DBB2     		uxtb	r3, r3
 1577 00e0 3033     		adds	r3, r3, #48
 1578 00e2 DBB2     		uxtb	r3, r3
 1579 00e4 7B75     		strb	r3, [r7, #21]
1053:..\app.c      ****                  line_str[14] = (val %  100u)  /   10u + '0';
 1580              		.loc 1 1053 0
 1581 00e6 FA69     		ldr	r2, [r7, #28]
 1582 00e8 7D4B     		ldr	r3, .L83+16
 1583 00ea A3FB0213 		umull	r1, r3, r3, r2
 1584 00ee 5B09     		lsrs	r3, r3, #5
 1585 00f0 6421     		movs	r1, #100
 1586 00f2 01FB03F3 		mul	r3, r1, r3
 1587 00f6 D31A     		subs	r3, r2, r3
 1588 00f8 7A4A     		ldr	r2, .L83+20
 1589 00fa A2FB0323 		umull	r2, r3, r2, r3
 1590 00fe DB08     		lsrs	r3, r3, #3
ARM GAS  C:\Users\alex\AppData\Local\Temp\ccpvubq1.s 			page 50


 1591 0100 DBB2     		uxtb	r3, r3
 1592 0102 3033     		adds	r3, r3, #48
 1593 0104 DBB2     		uxtb	r3, r3
 1594 0106 BB75     		strb	r3, [r7, #22]
1054:..\app.c      ****                  line_str[15] = (val %   10u)          + '0';
 1595              		.loc 1 1054 0
 1596 0108 F969     		ldr	r1, [r7, #28]
 1597 010a 764B     		ldr	r3, .L83+20
 1598 010c A3FB0123 		umull	r2, r3, r3, r1
 1599 0110 DA08     		lsrs	r2, r3, #3
 1600 0112 1346     		mov	r3, r2
 1601 0114 9B00     		lsls	r3, r3, #2
 1602 0116 1344     		add	r3, r3, r2
 1603 0118 5B00     		lsls	r3, r3, #1
 1604 011a CA1A     		subs	r2, r1, r3
 1605 011c D3B2     		uxtb	r3, r2
 1606 011e 3033     		adds	r3, r3, #48
 1607 0120 DBB2     		uxtb	r3, r3
 1608 0122 FB75     		strb	r3, [r7, #23]
1055:..\app.c      ****                  LCD_Disp_Position(0u, 0u);
 1609              		.loc 1 1055 0
 1610 0124 0021     		movs	r1, #0
 1611 0126 0020     		movs	r0, #0
 1612 0128 FFF7FEFF 		bl	LCD_Disp_Position
1056:..\app.c      ****                  LCD_Disp_PrintString((uint8 *)line_str);
 1613              		.loc 1 1056 0
 1614 012c 07F10803 		add	r3, r7, #8
 1615 0130 1846     		mov	r0, r3
 1616 0132 FFF7FEFF 		bl	LCD_Disp_PrintString
1057:..\app.c      **** 
1058:..\app.c      ****                  Str_Copy(line_str, "TickRate:   xxxx");
 1617              		.loc 1 1058 0
 1618 0136 07F10803 		add	r3, r7, #8
 1619 013a 6B49     		ldr	r1, .L83+24
 1620 013c 1846     		mov	r0, r3
 1621 013e FFF7FEFF 		bl	Str_Copy
1059:..\app.c      ****                  val = (CPU_INT32U)OSCfg_TickRate_Hz;
 1622              		.loc 1 1059 0
 1623 0142 6A4B     		ldr	r3, .L83+28
 1624 0144 1B68     		ldr	r3, [r3]
 1625 0146 FB61     		str	r3, [r7, #28]
1060:..\app.c      ****                  Str_FmtNbr_Int32U((CPU_INT32U     )val, 
 1626              		.loc 1 1060 0
 1627 0148 07F10803 		add	r3, r7, #8
 1628 014c 0C33     		adds	r3, r3, #12
 1629 014e 0293     		str	r3, [sp, #8]
 1630 0150 0123     		movs	r3, #1
 1631 0152 0193     		str	r3, [sp, #4]
 1632 0154 0023     		movs	r3, #0
 1633 0156 0093     		str	r3, [sp]
 1634 0158 0023     		movs	r3, #0
 1635 015a 0A22     		movs	r2, #10
 1636 015c 0421     		movs	r1, #4
 1637 015e F869     		ldr	r0, [r7, #28]
 1638 0160 FFF7FEFF 		bl	Str_FmtNbr_Int32U
1061:..\app.c      ****                                    (CPU_INT08U     )4u,
1062:..\app.c      ****                                    (CPU_INT08U     )10,
ARM GAS  C:\Users\alex\AppData\Local\Temp\ccpvubq1.s 			page 51


1063:..\app.c      ****                                    (CPU_CHAR       )0,
1064:..\app.c      ****                                    (CPU_BOOLEAN    )DEF_NO,
1065:..\app.c      ****                                    (CPU_BOOLEAN    )DEF_YES,
1066:..\app.c      ****                                    (CPU_CHAR      *)&line_str[12]);
1067:..\app.c      ****                  LCD_Disp_Position(1u, 0u);
 1639              		.loc 1 1067 0
 1640 0164 0021     		movs	r1, #0
 1641 0166 0120     		movs	r0, #1
 1642 0168 FFF7FEFF 		bl	LCD_Disp_Position
1068:..\app.c      ****                  LCD_Disp_PrintString((uint8 *)line_str);
 1643              		.loc 1 1068 0
 1644 016c 07F10803 		add	r3, r7, #8
 1645 0170 1846     		mov	r0, r3
 1646 0172 FFF7FEFF 		bl	LCD_Disp_PrintString
1069:..\app.c      ****                  break;
 1647              		.loc 1 1069 0
 1648 0176 DAE0     		b	.L78
 1649              	.L75:
1070:..\app.c      **** 
1071:..\app.c      ****             case APP_USER_IF_CPU:
1072:..\app.c      ****                  Str_Copy(line_str, "CPU Usage:xx %  ");
 1650              		.loc 1 1072 0
 1651 0178 07F10803 		add	r3, r7, #8
 1652 017c 5C49     		ldr	r1, .L83+32
 1653 017e 1846     		mov	r0, r3
 1654 0180 FFF7FEFF 		bl	Str_Copy
1073:..\app.c      ****                  val          = (CPU_INT32U)OSStatTaskCPUUsage;
 1655              		.loc 1 1073 0
 1656 0184 5B4B     		ldr	r3, .L83+36
 1657 0186 1B88     		ldrh	r3, [r3]
 1658 0188 FB61     		str	r3, [r7, #28]
1074:..\app.c      ****                  line_str[10] = (val / 10u) + '0';
 1659              		.loc 1 1074 0
 1660 018a FB69     		ldr	r3, [r7, #28]
 1661 018c 554A     		ldr	r2, .L83+20
 1662 018e A2FB0323 		umull	r2, r3, r2, r3
 1663 0192 DB08     		lsrs	r3, r3, #3
 1664 0194 DBB2     		uxtb	r3, r3
 1665 0196 3033     		adds	r3, r3, #48
 1666 0198 DBB2     		uxtb	r3, r3
 1667 019a BB74     		strb	r3, [r7, #18]
1075:..\app.c      ****                  line_str[11] = (val % 10u) + '0';
 1668              		.loc 1 1075 0
 1669 019c F969     		ldr	r1, [r7, #28]
 1670 019e 514B     		ldr	r3, .L83+20
 1671 01a0 A3FB0123 		umull	r2, r3, r3, r1
 1672 01a4 DA08     		lsrs	r2, r3, #3
 1673 01a6 1346     		mov	r3, r2
 1674 01a8 9B00     		lsls	r3, r3, #2
 1675 01aa 1344     		add	r3, r3, r2
 1676 01ac 5B00     		lsls	r3, r3, #1
 1677 01ae CA1A     		subs	r2, r1, r3
 1678 01b0 D3B2     		uxtb	r3, r2
 1679 01b2 3033     		adds	r3, r3, #48
 1680 01b4 DBB2     		uxtb	r3, r3
 1681 01b6 FB74     		strb	r3, [r7, #19]
1076:..\app.c      ****                  LCD_Disp_Position(0u, 0u);
ARM GAS  C:\Users\alex\AppData\Local\Temp\ccpvubq1.s 			page 52


 1682              		.loc 1 1076 0
 1683 01b8 0021     		movs	r1, #0
 1684 01ba 0020     		movs	r0, #0
 1685 01bc FFF7FEFF 		bl	LCD_Disp_Position
1077:..\app.c      ****                  LCD_Disp_PrintString((uint8 *)line_str);
 1686              		.loc 1 1077 0
 1687 01c0 07F10803 		add	r3, r7, #8
 1688 01c4 1846     		mov	r0, r3
 1689 01c6 FFF7FEFF 		bl	LCD_Disp_PrintString
1078:..\app.c      ****                  
1079:..\app.c      ****                  Str_Copy(line_str, "CPU Speed:xxxMHz");
 1690              		.loc 1 1079 0
 1691 01ca 07F10803 		add	r3, r7, #8
 1692 01ce 4A49     		ldr	r1, .L83+40
 1693 01d0 1846     		mov	r0, r3
 1694 01d2 FFF7FEFF 		bl	Str_Copy
1080:..\app.c      ****                  val          = (CPU_INT32U)BSP_CPU_ClkFreq();
 1695              		.loc 1 1080 0
 1696 01d6 FFF7FEFF 		bl	BSP_CPU_ClkFreq
 1697 01da F861     		str	r0, [r7, #28]
1081:..\app.c      ****                  val         /= 1000000u;
 1698              		.loc 1 1081 0
 1699 01dc FB69     		ldr	r3, [r7, #28]
 1700 01de 474A     		ldr	r2, .L83+44
 1701 01e0 A2FB0323 		umull	r2, r3, r2, r3
 1702 01e4 9B0C     		lsrs	r3, r3, #18
 1703 01e6 FB61     		str	r3, [r7, #28]
1082:..\app.c      ****                  line_str[10] = (val       ) / 100u + '0';
 1704              		.loc 1 1082 0
 1705 01e8 FB69     		ldr	r3, [r7, #28]
 1706 01ea 3D4A     		ldr	r2, .L83+16
 1707 01ec A2FB0323 		umull	r2, r3, r2, r3
 1708 01f0 5B09     		lsrs	r3, r3, #5
 1709 01f2 DBB2     		uxtb	r3, r3
 1710 01f4 3033     		adds	r3, r3, #48
 1711 01f6 DBB2     		uxtb	r3, r3
 1712 01f8 BB74     		strb	r3, [r7, #18]
1083:..\app.c      ****                  line_str[11] = (val % 100u) /  10u + '0';
 1713              		.loc 1 1083 0
 1714 01fa FA69     		ldr	r2, [r7, #28]
 1715 01fc 384B     		ldr	r3, .L83+16
 1716 01fe A3FB0213 		umull	r1, r3, r3, r2
 1717 0202 5B09     		lsrs	r3, r3, #5
 1718 0204 6421     		movs	r1, #100
 1719 0206 01FB03F3 		mul	r3, r1, r3
 1720 020a D31A     		subs	r3, r2, r3
 1721 020c 354A     		ldr	r2, .L83+20
 1722 020e A2FB0323 		umull	r2, r3, r2, r3
 1723 0212 DB08     		lsrs	r3, r3, #3
 1724 0214 DBB2     		uxtb	r3, r3
 1725 0216 3033     		adds	r3, r3, #48
 1726 0218 DBB2     		uxtb	r3, r3
 1727 021a FB74     		strb	r3, [r7, #19]
1084:..\app.c      ****                  line_str[12] = (val % 10u)         + '0';
 1728              		.loc 1 1084 0
 1729 021c F969     		ldr	r1, [r7, #28]
 1730 021e 314B     		ldr	r3, .L83+20
ARM GAS  C:\Users\alex\AppData\Local\Temp\ccpvubq1.s 			page 53


 1731 0220 A3FB0123 		umull	r2, r3, r3, r1
 1732 0224 DA08     		lsrs	r2, r3, #3
 1733 0226 1346     		mov	r3, r2
 1734 0228 9B00     		lsls	r3, r3, #2
 1735 022a 1344     		add	r3, r3, r2
 1736 022c 5B00     		lsls	r3, r3, #1
 1737 022e CA1A     		subs	r2, r1, r3
 1738 0230 D3B2     		uxtb	r3, r2
 1739 0232 3033     		adds	r3, r3, #48
 1740 0234 DBB2     		uxtb	r3, r3
 1741 0236 3B75     		strb	r3, [r7, #20]
1085:..\app.c      ****                  LCD_Disp_Position(1u, 0u);
 1742              		.loc 1 1085 0
 1743 0238 0021     		movs	r1, #0
 1744 023a 0120     		movs	r0, #1
 1745 023c FFF7FEFF 		bl	LCD_Disp_Position
1086:..\app.c      ****                  LCD_Disp_PrintString((uint8 *)line_str);
 1746              		.loc 1 1086 0
 1747 0240 07F10803 		add	r3, r7, #8
 1748 0244 1846     		mov	r0, r3
 1749 0246 FFF7FEFF 		bl	LCD_Disp_PrintString
1087:..\app.c      ****                  break;
 1750              		.loc 1 1087 0
 1751 024a 70E0     		b	.L78
 1752              	.L76:
1088:..\app.c      **** 
1089:..\app.c      ****             case APP_USER_IF_CTXSW:
1090:..\app.c      ****                  Str_Copy(line_str, "#Ticks: xxxxxxxx");
 1753              		.loc 1 1090 0
 1754 024c 07F10803 		add	r3, r7, #8
 1755 0250 2B49     		ldr	r1, .L83+48
 1756 0252 1846     		mov	r0, r3
 1757 0254 FFF7FEFF 		bl	Str_Copy
1091:..\app.c      ****                  val = (CPU_INT32U)OSTickCtr;
 1758              		.loc 1 1091 0
 1759 0258 2A4B     		ldr	r3, .L83+52
 1760 025a 1B68     		ldr	r3, [r3]
 1761 025c FB61     		str	r3, [r7, #28]
1092:..\app.c      ****                  Str_FmtNbr_Int32U((CPU_INT32U     )val, 
 1762              		.loc 1 1092 0
 1763 025e 07F10803 		add	r3, r7, #8
 1764 0262 0833     		adds	r3, r3, #8
 1765 0264 0293     		str	r3, [sp, #8]
 1766 0266 0123     		movs	r3, #1
 1767 0268 0193     		str	r3, [sp, #4]
 1768 026a 0023     		movs	r3, #0
 1769 026c 0093     		str	r3, [sp]
 1770 026e 0023     		movs	r3, #0
 1771 0270 0A22     		movs	r2, #10
 1772 0272 0821     		movs	r1, #8
 1773 0274 F869     		ldr	r0, [r7, #28]
 1774 0276 FFF7FEFF 		bl	Str_FmtNbr_Int32U
1093:..\app.c      ****                                    (CPU_INT08U     )8u,
1094:..\app.c      ****                                    (CPU_INT08U     )10,
1095:..\app.c      ****                                    (CPU_CHAR       )0,
1096:..\app.c      ****                                    (CPU_BOOLEAN    )DEF_NO,
1097:..\app.c      ****                                    (CPU_BOOLEAN    )DEF_YES,
ARM GAS  C:\Users\alex\AppData\Local\Temp\ccpvubq1.s 			page 54


1098:..\app.c      ****                                    (CPU_CHAR      *)&line_str[8]);
1099:..\app.c      ****                  LCD_Disp_Position(0u, 0u);
 1775              		.loc 1 1099 0
 1776 027a 0021     		movs	r1, #0
 1777 027c 0020     		movs	r0, #0
 1778 027e FFF7FEFF 		bl	LCD_Disp_Position
1100:..\app.c      ****                  LCD_Disp_PrintString((uint8 *)line_str);
 1779              		.loc 1 1100 0
 1780 0282 07F10803 		add	r3, r7, #8
 1781 0286 1846     		mov	r0, r3
 1782 0288 FFF7FEFF 		bl	LCD_Disp_PrintString
1101:..\app.c      ****                  
1102:..\app.c      ****                  Str_Copy(line_str, "#CtxSw: xxxxxxxx");
 1783              		.loc 1 1102 0
 1784 028c 07F10803 		add	r3, r7, #8
 1785 0290 1D49     		ldr	r1, .L83+56
 1786 0292 1846     		mov	r0, r3
 1787 0294 FFF7FEFF 		bl	Str_Copy
1103:..\app.c      ****                  val          = (CPU_INT32U)OSTaskCtxSwCtr;
 1788              		.loc 1 1103 0
 1789 0298 1C4B     		ldr	r3, .L83+60
 1790 029a 1B68     		ldr	r3, [r3]
 1791 029c FB61     		str	r3, [r7, #28]
1104:..\app.c      ****                  Str_FmtNbr_Int32U((CPU_INT32U     )val, 
 1792              		.loc 1 1104 0
 1793 029e 07F10803 		add	r3, r7, #8
 1794 02a2 0833     		adds	r3, r3, #8
 1795 02a4 0293     		str	r3, [sp, #8]
 1796 02a6 0123     		movs	r3, #1
 1797 02a8 0193     		str	r3, [sp, #4]
 1798 02aa 0023     		movs	r3, #0
 1799 02ac 0093     		str	r3, [sp]
 1800 02ae 0023     		movs	r3, #0
 1801 02b0 0A22     		movs	r2, #10
 1802 02b2 0821     		movs	r1, #8
 1803 02b4 F869     		ldr	r0, [r7, #28]
 1804 02b6 FFF7FEFF 		bl	Str_FmtNbr_Int32U
1105:..\app.c      ****                                    (CPU_INT08U     )8u,
1106:..\app.c      ****                                    (CPU_INT08U     )10,
1107:..\app.c      ****                                    (CPU_CHAR       )0,
1108:..\app.c      ****                                    (CPU_BOOLEAN    )DEF_NO,
1109:..\app.c      ****                                    (CPU_BOOLEAN    )DEF_YES,
1110:..\app.c      ****                                    (CPU_CHAR      *)&line_str[8]);
1111:..\app.c      ****                  LCD_Disp_Position(1u, 0u);
 1805              		.loc 1 1111 0
 1806 02ba 0021     		movs	r1, #0
 1807 02bc 0120     		movs	r0, #1
 1808 02be FFF7FEFF 		bl	LCD_Disp_Position
1112:..\app.c      ****                  LCD_Disp_PrintString((uint8 *)line_str);
 1809              		.loc 1 1112 0
 1810 02c2 07F10803 		add	r3, r7, #8
 1811 02c6 1846     		mov	r0, r3
 1812 02c8 FFF7FEFF 		bl	LCD_Disp_PrintString
1113:..\app.c      ****                  break;
 1813              		.loc 1 1113 0
 1814 02cc 2FE0     		b	.L78
 1815              	.L84:
ARM GAS  C:\Users\alex\AppData\Local\Temp\ccpvubq1.s 			page 55


 1816 02ce 00BF     		.align	2
 1817              	.L83:
 1818 02d0 80000000 		.word	.LC10
 1819 02d4 94000000 		.word	.LC11
 1820 02d8 A8000000 		.word	.LC12
 1821 02dc D34D6210 		.word	274877907
 1822 02e0 1F85EB51 		.word	1374389535
 1823 02e4 CDCCCCCC 		.word	-858993459
 1824 02e8 BC000000 		.word	.LC13
 1825 02ec 00000000 		.word	OSCfg_TickRate_Hz
 1826 02f0 D0000000 		.word	.LC14
 1827 02f4 00000000 		.word	OSStatTaskCPUUsage
 1828 02f8 E4000000 		.word	.LC15
 1829 02fc 83DE1B43 		.word	1125899907
 1830 0300 F8000000 		.word	.LC16
 1831 0304 00000000 		.word	OSTickCtr
 1832 0308 0C010000 		.word	.LC17
 1833 030c 00000000 		.word	OSTaskCtxSwCtr
 1834              	.L82:
1114:..\app.c      **** 
1115:..\app.c      ****             case APP_USER_IF_SIGN_ON:
1116:..\app.c      ****             default:
1117:..\app.c      ****                  LCD_Disp_Position(0u, 0u);
 1835              		.loc 1 1117 0
 1836 0310 0021     		movs	r1, #0
 1837 0312 0020     		movs	r0, #0
 1838 0314 FFF7FEFF 		bl	LCD_Disp_Position
1118:..\app.c      ****                  LCD_Disp_PrintString((uint8 *)"=== Micrium === ");
 1839              		.loc 1 1118 0
 1840 0318 2548     		ldr	r0, .L85
 1841 031a FFF7FEFF 		bl	LCD_Disp_PrintString
1119:..\app.c      ****                  LCD_Disp_Position(1u, 0u);
 1842              		.loc 1 1119 0
 1843 031e 0021     		movs	r1, #0
 1844 0320 0120     		movs	r0, #1
 1845 0322 FFF7FEFF 		bl	LCD_Disp_Position
1120:..\app.c      ****                  LCD_Disp_PrintString((uint8 *)"   uC/OS-III    ");
 1846              		.loc 1 1120 0
 1847 0326 2348     		ldr	r0, .L85+4
 1848 0328 FFF7FEFF 		bl	LCD_Disp_PrintString
1121:..\app.c      ****                  break;
 1849              		.loc 1 1121 0
 1850 032c 00BF     		nop
 1851              	.L78:
1122:..\app.c      ****         }
1123:..\app.c      **** 
1124:..\app.c      ****         pb2_state_cur = BSP_PB_StatusGet(2);
 1852              		.loc 1 1124 0
 1853 032e 0220     		movs	r0, #2
 1854 0330 FFF7FEFF 		bl	BSP_PB_StatusGet
 1855 0334 0346     		mov	r3, r0
 1856 0336 87F82330 		strb	r3, [r7, #35]
1125:..\app.c      ****         pb3_state_cur = BSP_PB_StatusGet(3);
 1857              		.loc 1 1125 0
 1858 033a 0320     		movs	r0, #3
 1859 033c FFF7FEFF 		bl	BSP_PB_StatusGet
 1860 0340 0346     		mov	r3, r0
ARM GAS  C:\Users\alex\AppData\Local\Temp\ccpvubq1.s 			page 56


 1861 0342 87F82230 		strb	r3, [r7, #34]
1126:..\app.c      ****         if ((pb2_state_cur  == DEF_ON ) &&
 1862              		.loc 1 1126 0
 1863 0346 97F82330 		ldrb	r3, [r7, #35]	@ zero_extendqisi2
 1864 034a 012B     		cmp	r3, #1
 1865 034c 0BD1     		bne	.L79
 1866              		.loc 1 1126 0 is_stmt 0 discriminator 1
 1867 034e 97F82530 		ldrb	r3, [r7, #37]	@ zero_extendqisi2
 1868 0352 002B     		cmp	r3, #0
 1869 0354 07D1     		bne	.L79
1127:..\app.c      ****             (pb2_state_prev == DEF_OFF)) {     
1128:..\app.c      ****             user_if_state_cur = (user_if_state_cur + 1u) % APP_USER_IF_STATE_MAX;
 1870              		.loc 1 1128 0 is_stmt 1
 1871 0356 97F82730 		ldrb	r3, [r7, #39]
 1872 035a 0133     		adds	r3, r3, #1
 1873 035c DBB2     		uxtb	r3, r3
 1874 035e 03F00303 		and	r3, r3, #3
 1875 0362 87F82730 		strb	r3, [r7, #39]
 1876              	.L79:
1129:..\app.c      ****         }
1130:..\app.c      **** 
1131:..\app.c      ****         if ((pb3_state_cur  == DEF_ON ) &&
 1877              		.loc 1 1131 0
 1878 0366 97F82230 		ldrb	r3, [r7, #34]	@ zero_extendqisi2
 1879 036a 012B     		cmp	r3, #1
 1880 036c 0BD1     		bne	.L80
 1881              		.loc 1 1131 0 is_stmt 0 discriminator 1
 1882 036e 97F82430 		ldrb	r3, [r7, #36]	@ zero_extendqisi2
 1883 0372 002B     		cmp	r3, #0
 1884 0374 07D1     		bne	.L80
1132:..\app.c      ****             (pb3_state_prev == DEF_OFF)) { 
1133:..\app.c      ****             user_if_state_cur = (user_if_state_cur - 1u) % APP_USER_IF_STATE_MAX;
 1885              		.loc 1 1133 0 is_stmt 1
 1886 0376 97F82730 		ldrb	r3, [r7, #39]
 1887 037a 013B     		subs	r3, r3, #1
 1888 037c DBB2     		uxtb	r3, r3
 1889 037e 03F00303 		and	r3, r3, #3
 1890 0382 87F82730 		strb	r3, [r7, #39]
 1891              	.L80:
1134:..\app.c      ****         }
1135:..\app.c      **** 
1136:..\app.c      ****         OSTimeDlyHMSM(0, 0, 0, 100, 
 1892              		.loc 1 1136 0
 1893 0386 07F11A03 		add	r3, r7, #26
 1894 038a 0193     		str	r3, [sp, #4]
 1895 038c 0023     		movs	r3, #0
 1896 038e 0093     		str	r3, [sp]
 1897 0390 6423     		movs	r3, #100
 1898 0392 0022     		movs	r2, #0
 1899 0394 0021     		movs	r1, #0
 1900 0396 0020     		movs	r0, #0
 1901 0398 FFF7FEFF 		bl	OSTimeDlyHMSM
1137:..\app.c      ****                       OS_OPT_TIME_HMSM_STRICT, 
1138:..\app.c      ****                       &os_err);
1139:..\app.c      **** 
1140:..\app.c      ****         pb2_state_prev = pb2_state_cur;
 1902              		.loc 1 1140 0
ARM GAS  C:\Users\alex\AppData\Local\Temp\ccpvubq1.s 			page 57


 1903 039c 97F82330 		ldrb	r3, [r7, #35]
 1904 03a0 87F82530 		strb	r3, [r7, #37]
1141:..\app.c      ****         pb3_state_prev = pb3_state_cur;	
 1905              		.loc 1 1141 0
 1906 03a4 97F82230 		ldrb	r3, [r7, #34]
 1907 03a8 87F82430 		strb	r3, [r7, #36]
1142:..\app.c      ****     }
 1908              		.loc 1 1142 0
 1909 03ac 51E6     		b	.L81
 1910              	.L86:
 1911 03ae 00BF     		.align	2
 1912              	.L85:
 1913 03b0 20010000 		.word	.LC18
 1914 03b4 34010000 		.word	.LC19
 1915              		.cfi_endproc
 1916              	.LFE79:
 1917              		.size	App_TaskUserIF, .-App_TaskUserIF
 1918              		.section	.text.go_to_E1,"ax",%progbits
 1919              		.align	2
 1920              		.global	go_to_E1
 1921              		.thumb
 1922              		.thumb_func
 1923              		.type	go_to_E1, %function
 1924              	go_to_E1:
 1925              	.LFB80:
1143:..\app.c      **** }
1144:..\app.c      **** 
1145:..\app.c      **** /* desenvolvimento das funcoes */
1146:..\app.c      **** 
1147:..\app.c      **** 
1148:..\app.c      **** void go_to_E1(CPU_INT08U sem){
 1926              		.loc 1 1148 0
 1927              		.cfi_startproc
 1928              		@ args = 0, pretend = 0, frame = 8
 1929              		@ frame_needed = 1, uses_anonymous_args = 0
 1930 0000 80B5     		push	{r7, lr}
 1931              		.cfi_def_cfa_offset 8
 1932              		.cfi_offset 7, -8
 1933              		.cfi_offset 14, -4
 1934 0002 82B0     		sub	sp, sp, #8
 1935              		.cfi_def_cfa_offset 16
 1936 0004 00AF     		add	r7, sp, #0
 1937              		.cfi_def_cfa_register 7
 1938 0006 0346     		mov	r3, r0
 1939 0008 FB71     		strb	r3, [r7, #7]
1149:..\app.c      ****     
1150:..\app.c      ****     if(sem == SEM1){
 1940              		.loc 1 1150 0
 1941 000a FB79     		ldrb	r3, [r7, #7]	@ zero_extendqisi2
 1942 000c 012B     		cmp	r3, #1
 1943 000e 0ED1     		bne	.L88
1151:..\app.c      ****         Pin_SV01_VE_Write(0u);                            /* sem. t. aberto  */
 1944              		.loc 1 1151 0
 1945 0010 0020     		movs	r0, #0
 1946 0012 FFF7FEFF 		bl	Pin_SV01_VE_Write
1152:..\app.c      ****         Pin_SV01_AM_Write(0u);                            /* sem. t. fechado */
 1947              		.loc 1 1152 0
ARM GAS  C:\Users\alex\AppData\Local\Temp\ccpvubq1.s 			page 58


 1948 0016 0020     		movs	r0, #0
 1949 0018 FFF7FEFF 		bl	Pin_SV01_AM_Write
1153:..\app.c      ****         Pin_SV01_VM_Write(1u);                            /* sem. t. fechado */
 1950              		.loc 1 1153 0
 1951 001c 0120     		movs	r0, #1
 1952 001e FFF7FEFF 		bl	Pin_SV01_VM_Write
1154:..\app.c      ****             
1155:..\app.c      ****         Pin_SP01_VE_Write(1u);                            /* sem. p. aberto  */
 1953              		.loc 1 1155 0
 1954 0022 0120     		movs	r0, #1
 1955 0024 FFF7FEFF 		bl	Pin_SP01_VE_Write
1156:..\app.c      ****         Pin_SP01_VM_Write(0u);                            /* sem. p. fechado */
 1956              		.loc 1 1156 0
 1957 0028 0020     		movs	r0, #0
 1958 002a FFF7FEFF 		bl	Pin_SP01_VM_Write
 1959              	.L88:
1157:..\app.c      ****         
1158:..\app.c      ****     }
1159:..\app.c      ****     if(sem == SEM2){
 1960              		.loc 1 1159 0
 1961 002e FB79     		ldrb	r3, [r7, #7]	@ zero_extendqisi2
 1962 0030 022B     		cmp	r3, #2
 1963 0032 0ED1     		bne	.L90
1160:..\app.c      ****         Pin_SV02_VE_Write(0u);                            /* sem. t. aberto  */
 1964              		.loc 1 1160 0
 1965 0034 0020     		movs	r0, #0
 1966 0036 FFF7FEFF 		bl	Pin_SV02_VE_Write
1161:..\app.c      ****         Pin_SV02_AM_Write(0u);                            /* sem. t. fechado */
 1967              		.loc 1 1161 0
 1968 003a 0020     		movs	r0, #0
 1969 003c FFF7FEFF 		bl	Pin_SV02_AM_Write
1162:..\app.c      ****         Pin_SV02_VM_Write(1u);                            /* sem. t. fechado */
 1970              		.loc 1 1162 0
 1971 0040 0120     		movs	r0, #1
 1972 0042 FFF7FEFF 		bl	Pin_SV02_VM_Write
1163:..\app.c      ****             
1164:..\app.c      ****         Pin_SP02_VE_Write(1u);                            /* sem. p. aberto  */
 1973              		.loc 1 1164 0
 1974 0046 0120     		movs	r0, #1
 1975 0048 FFF7FEFF 		bl	Pin_SP02_VE_Write
1165:..\app.c      ****         Pin_SP02_VM_Write(0u);                            /* sem. p. fechado */
 1976              		.loc 1 1165 0
 1977 004c 0020     		movs	r0, #0
 1978 004e FFF7FEFF 		bl	Pin_SP02_VM_Write
 1979              	.L90:
1166:..\app.c      ****             
1167:..\app.c      ****     }
1168:..\app.c      ****                                                                  
1169:..\app.c      **** }
 1980              		.loc 1 1169 0
 1981 0052 00BF     		nop
 1982 0054 0837     		adds	r7, r7, #8
 1983              		.cfi_def_cfa_offset 8
 1984 0056 BD46     		mov	sp, r7
 1985              		.cfi_def_cfa_register 13
 1986              		@ sp needed
 1987 0058 80BD     		pop	{r7, pc}
ARM GAS  C:\Users\alex\AppData\Local\Temp\ccpvubq1.s 			page 59


 1988              		.cfi_endproc
 1989              	.LFE80:
 1990              		.size	go_to_E1, .-go_to_E1
 1991 005a 00BF     		.section	.text.go_to_E2,"ax",%progbits
 1992              		.align	2
 1993              		.global	go_to_E2
 1994              		.thumb
 1995              		.thumb_func
 1996              		.type	go_to_E2, %function
 1997              	go_to_E2:
 1998              	.LFB81:
1170:..\app.c      **** 
1171:..\app.c      **** void go_to_E2(CPU_INT08U sem){
 1999              		.loc 1 1171 0
 2000              		.cfi_startproc
 2001              		@ args = 0, pretend = 0, frame = 8
 2002              		@ frame_needed = 1, uses_anonymous_args = 0
 2003 0000 80B5     		push	{r7, lr}
 2004              		.cfi_def_cfa_offset 8
 2005              		.cfi_offset 7, -8
 2006              		.cfi_offset 14, -4
 2007 0002 82B0     		sub	sp, sp, #8
 2008              		.cfi_def_cfa_offset 16
 2009 0004 00AF     		add	r7, sp, #0
 2010              		.cfi_def_cfa_register 7
 2011 0006 0346     		mov	r3, r0
 2012 0008 FB71     		strb	r3, [r7, #7]
1172:..\app.c      ****     
1173:..\app.c      ****     if(sem == SEM1){
 2013              		.loc 1 1173 0
 2014 000a FB79     		ldrb	r3, [r7, #7]	@ zero_extendqisi2
 2015 000c 012B     		cmp	r3, #1
 2016 000e 0ED1     		bne	.L92
1174:..\app.c      ****         Pin_SV01_VE_Write(1u);                            /* sem. t. aberto  */
 2017              		.loc 1 1174 0
 2018 0010 0120     		movs	r0, #1
 2019 0012 FFF7FEFF 		bl	Pin_SV01_VE_Write
1175:..\app.c      ****         Pin_SV01_AM_Write(0u);                            /* sem. t. fechado */
 2020              		.loc 1 1175 0
 2021 0016 0020     		movs	r0, #0
 2022 0018 FFF7FEFF 		bl	Pin_SV01_AM_Write
1176:..\app.c      ****         Pin_SV01_VM_Write(0u);                            /* sem. t. fechado */
 2023              		.loc 1 1176 0
 2024 001c 0020     		movs	r0, #0
 2025 001e FFF7FEFF 		bl	Pin_SV01_VM_Write
1177:..\app.c      ****         
1178:..\app.c      ****         Pin_SP01_VE_Write(0u);                            /* sem. p. aberto  */
 2026              		.loc 1 1178 0
 2027 0022 0020     		movs	r0, #0
 2028 0024 FFF7FEFF 		bl	Pin_SP01_VE_Write
1179:..\app.c      ****         Pin_SP01_VM_Write(1u);                            /* sem. p. fechado */
 2029              		.loc 1 1179 0
 2030 0028 0120     		movs	r0, #1
 2031 002a FFF7FEFF 		bl	Pin_SP01_VM_Write
 2032              	.L92:
1180:..\app.c      ****     }
1181:..\app.c      ****     if(sem == SEM2){
ARM GAS  C:\Users\alex\AppData\Local\Temp\ccpvubq1.s 			page 60


 2033              		.loc 1 1181 0
 2034 002e FB79     		ldrb	r3, [r7, #7]	@ zero_extendqisi2
 2035 0030 022B     		cmp	r3, #2
 2036 0032 0ED1     		bne	.L94
1182:..\app.c      ****         Pin_SV02_VE_Write(1u);                            /* sem. t. aberto  */
 2037              		.loc 1 1182 0
 2038 0034 0120     		movs	r0, #1
 2039 0036 FFF7FEFF 		bl	Pin_SV02_VE_Write
1183:..\app.c      ****         Pin_SV02_AM_Write(0u);                            /* sem. t. fechado */
 2040              		.loc 1 1183 0
 2041 003a 0020     		movs	r0, #0
 2042 003c FFF7FEFF 		bl	Pin_SV02_AM_Write
1184:..\app.c      ****         Pin_SV02_VM_Write(0u);                            /* sem. t. fechado */
 2043              		.loc 1 1184 0
 2044 0040 0020     		movs	r0, #0
 2045 0042 FFF7FEFF 		bl	Pin_SV02_VM_Write
1185:..\app.c      ****         
1186:..\app.c      ****     
1187:..\app.c      ****         Pin_SP02_VE_Write(0u);                            /* sem. p. aberto  */
 2046              		.loc 1 1187 0
 2047 0046 0020     		movs	r0, #0
 2048 0048 FFF7FEFF 		bl	Pin_SP02_VE_Write
1188:..\app.c      ****         Pin_SP02_VM_Write(1u);                            /* sem. p. fechado */
 2049              		.loc 1 1188 0
 2050 004c 0120     		movs	r0, #1
 2051 004e FFF7FEFF 		bl	Pin_SP02_VM_Write
 2052              	.L94:
1189:..\app.c      ****     }
1190:..\app.c      ****                                                                  
1191:..\app.c      **** }
 2053              		.loc 1 1191 0
 2054 0052 00BF     		nop
 2055 0054 0837     		adds	r7, r7, #8
 2056              		.cfi_def_cfa_offset 8
 2057 0056 BD46     		mov	sp, r7
 2058              		.cfi_def_cfa_register 13
 2059              		@ sp needed
 2060 0058 80BD     		pop	{r7, pc}
 2061              		.cfi_endproc
 2062              	.LFE81:
 2063              		.size	go_to_E2, .-go_to_E2
 2064 005a 00BF     		.section	.text.go_to_E3,"ax",%progbits
 2065              		.align	2
 2066              		.global	go_to_E3
 2067              		.thumb
 2068              		.thumb_func
 2069              		.type	go_to_E3, %function
 2070              	go_to_E3:
 2071              	.LFB82:
1192:..\app.c      **** 
1193:..\app.c      **** void go_to_E3(CPU_INT08U sem){
 2072              		.loc 1 1193 0
 2073              		.cfi_startproc
 2074              		@ args = 0, pretend = 0, frame = 8
 2075              		@ frame_needed = 1, uses_anonymous_args = 0
 2076 0000 80B5     		push	{r7, lr}
 2077              		.cfi_def_cfa_offset 8
ARM GAS  C:\Users\alex\AppData\Local\Temp\ccpvubq1.s 			page 61


 2078              		.cfi_offset 7, -8
 2079              		.cfi_offset 14, -4
 2080 0002 82B0     		sub	sp, sp, #8
 2081              		.cfi_def_cfa_offset 16
 2082 0004 00AF     		add	r7, sp, #0
 2083              		.cfi_def_cfa_register 7
 2084 0006 0346     		mov	r3, r0
 2085 0008 FB71     		strb	r3, [r7, #7]
1194:..\app.c      ****     
1195:..\app.c      ****     if(sem == SEM1){
 2086              		.loc 1 1195 0
 2087 000a FB79     		ldrb	r3, [r7, #7]	@ zero_extendqisi2
 2088 000c 012B     		cmp	r3, #1
 2089 000e 0ED1     		bne	.L96
1196:..\app.c      ****         Pin_SV01_VE_Write(0u);                            /* sem. t. aberto  */
 2090              		.loc 1 1196 0
 2091 0010 0020     		movs	r0, #0
 2092 0012 FFF7FEFF 		bl	Pin_SV01_VE_Write
1197:..\app.c      ****         Pin_SV01_AM_Write(1u);                            /* sem. t. fechado */
 2093              		.loc 1 1197 0
 2094 0016 0120     		movs	r0, #1
 2095 0018 FFF7FEFF 		bl	Pin_SV01_AM_Write
1198:..\app.c      ****         Pin_SV01_VM_Write(0u);                            /* sem. t. fechado */
 2096              		.loc 1 1198 0
 2097 001c 0020     		movs	r0, #0
 2098 001e FFF7FEFF 		bl	Pin_SV01_VM_Write
1199:..\app.c      ****         
1200:..\app.c      ****         Pin_SP01_VE_Write(0u);                            /* sem. p. aberto  */
 2099              		.loc 1 1200 0
 2100 0022 0020     		movs	r0, #0
 2101 0024 FFF7FEFF 		bl	Pin_SP01_VE_Write
1201:..\app.c      ****         Pin_SP01_VM_Write(1u);                            /* sem. p. fechado */
 2102              		.loc 1 1201 0
 2103 0028 0120     		movs	r0, #1
 2104 002a FFF7FEFF 		bl	Pin_SP01_VM_Write
 2105              	.L96:
1202:..\app.c      ****     }
1203:..\app.c      ****     if(sem == SEM2){
 2106              		.loc 1 1203 0
 2107 002e FB79     		ldrb	r3, [r7, #7]	@ zero_extendqisi2
 2108 0030 022B     		cmp	r3, #2
 2109 0032 0ED1     		bne	.L98
1204:..\app.c      ****         Pin_SV02_VE_Write(0u);                            /* sem. t. aberto  */
 2110              		.loc 1 1204 0
 2111 0034 0020     		movs	r0, #0
 2112 0036 FFF7FEFF 		bl	Pin_SV02_VE_Write
1205:..\app.c      ****         Pin_SV02_AM_Write(1u);                            /* sem. t. fechado */
 2113              		.loc 1 1205 0
 2114 003a 0120     		movs	r0, #1
 2115 003c FFF7FEFF 		bl	Pin_SV02_AM_Write
1206:..\app.c      ****         Pin_SV02_VM_Write(0u);                            /* sem. t. fechado */
 2116              		.loc 1 1206 0
 2117 0040 0020     		movs	r0, #0
 2118 0042 FFF7FEFF 		bl	Pin_SV02_VM_Write
1207:..\app.c      ****     
1208:..\app.c      ****         Pin_SP02_VE_Write(0u);                            /* sem. p. aberto  */
 2119              		.loc 1 1208 0
ARM GAS  C:\Users\alex\AppData\Local\Temp\ccpvubq1.s 			page 62


 2120 0046 0020     		movs	r0, #0
 2121 0048 FFF7FEFF 		bl	Pin_SP02_VE_Write
1209:..\app.c      ****         Pin_SP02_VM_Write(1u);                            /* sem. p. fechado */
 2122              		.loc 1 1209 0
 2123 004c 0120     		movs	r0, #1
 2124 004e FFF7FEFF 		bl	Pin_SP02_VM_Write
 2125              	.L98:
1210:..\app.c      ****     }
1211:..\app.c      ****                                                                  
1212:..\app.c      **** }
 2126              		.loc 1 1212 0
 2127 0052 00BF     		nop
 2128 0054 0837     		adds	r7, r7, #8
 2129              		.cfi_def_cfa_offset 8
 2130 0056 BD46     		mov	sp, r7
 2131              		.cfi_def_cfa_register 13
 2132              		@ sp needed
 2133 0058 80BD     		pop	{r7, pc}
 2134              		.cfi_endproc
 2135              	.LFE82:
 2136              		.size	go_to_E3, .-go_to_E3
 2137 005a 00BF     		.text
 2138              	.Letext0:
 2139              		.file 2 "c:\\program files (x86)\\cypress\\psoc creator\\4.4\\psoc creator\\import\\gnu\\arm\\5.4.
 2140              		.file 3 "c:\\program files (x86)\\cypress\\psoc creator\\4.4\\psoc creator\\import\\gnu\\arm\\5.4.
 2141              		.file 4 "..\\..\\..\\..\\..\\..\\uC-CPU\\ARM-Cortex-M3\\GNU/cpu.h"
 2142              		.file 5 "..\\..\\..\\..\\..\\..\\uC-CPU/cpu_core.h"
 2143              		.file 6 "..\\..\\..\\..\\..\\..\\uCOS-III\\Source/os_type.h"
 2144              		.file 7 "..\\..\\..\\..\\..\\..\\uCOS-III\\Source/os.h"
 2145              		.file 8 "Generated_Source\\PSoC5/cytypes.h"
 2146              		.file 9 "Generated_Source\\PSoC5/core_cm3.h"