ARM GAS  C:\Users\alex\AppData\Local\Temp\ccrLK32p.s 			page 1


   1              		.syntax unified
   2              		.cpu cortex-m3
   3              		.fpu softvfp
   4              		.eabi_attribute 20, 1
   5              		.eabi_attribute 21, 1
   6              		.eabi_attribute 23, 3
   7              		.eabi_attribute 24, 1
   8              		.eabi_attribute 25, 1
   9              		.eabi_attribute 26, 1
  10              		.eabi_attribute 30, 6
  11              		.eabi_attribute 34, 1
  12              		.eabi_attribute 18, 4
  13              		.thumb
  14              		.syntax unified
  15              		.file	"app.c"
  16              		.text
  17              	.Ltext0:
  18              		.cfi_sections	.debug_frame
  19              		.bss
  20              		.align	2
  21              	App_TaskStartTCB:
  22 0000 00000000 		.space	192
  22      00000000 
  22      00000000 
  22      00000000 
  22      00000000 
  23              		.align	2
  24              	App_TaskStartStk:
  25 00c0 00000000 		.space	512
  25      00000000 
  25      00000000 
  25      00000000 
  25      00000000 
  26              		.align	2
  27              	App_TaskUserIF_TCB:
  28 02c0 00000000 		.space	192
  28      00000000 
  28      00000000 
  28      00000000 
  28      00000000 
  29              		.align	2
  30              	App_TaskUserIFStk:
  31 0380 00000000 		.space	512
  31      00000000 
  31      00000000 
  31      00000000 
  31      00000000 
  32              		.align	2
  33              	App_Task_Ihm_TCB:
  34 0580 00000000 		.space	192
  34      00000000 
  34      00000000 
  34      00000000 
  34      00000000 
  35              		.align	2
  36              	App_Task_Ihm_Stk:
  37 0640 00000000 		.space	512
ARM GAS  C:\Users\alex\AppData\Local\Temp\ccrLK32p.s 			page 2


  37      00000000 
  37      00000000 
  37      00000000 
  37      00000000 
  38              		.align	2
  39              	App_Task_Emerg_TCB:
  40 0840 00000000 		.space	192
  40      00000000 
  40      00000000 
  40      00000000 
  40      00000000 
  41              		.align	2
  42              	App_Task_Emerg_Stk:
  43 0900 00000000 		.space	512
  43      00000000 
  43      00000000 
  43      00000000 
  43      00000000 
  44              		.align	2
  45              	App_Task_Sen_Mec_TCB:
  46 0b00 00000000 		.space	192
  46      00000000 
  46      00000000 
  46      00000000 
  46      00000000 
  47              		.align	2
  48              	App_Task_Sen_Mec_Stk:
  49 0bc0 00000000 		.space	512
  49      00000000 
  49      00000000 
  49      00000000 
  49      00000000 
  50              		.align	2
  51              	App_Task_Sen_Temp_TCB:
  52 0dc0 00000000 		.space	192
  52      00000000 
  52      00000000 
  52      00000000 
  52      00000000 
  53              		.align	2
  54              	App_Task_Sen_Temp_Stk:
  55 0e80 00000000 		.space	512
  55      00000000 
  55      00000000 
  55      00000000 
  55      00000000 
  56              		.align	2
  57              	App_Task_Display_TCB:
  58 1080 00000000 		.space	192
  58      00000000 
  58      00000000 
  58      00000000 
  58      00000000 
  59              		.align	2
  60              	App_Task_Display_Stk:
  61 1140 00000000 		.space	512
  61      00000000 
ARM GAS  C:\Users\alex\AppData\Local\Temp\ccrLK32p.s 			page 3


  61      00000000 
  61      00000000 
  61      00000000 
  62              		.global	motor
  63              		.type	motor, %object
  64              		.size	motor, 1
  65              	motor:
  66 1340 00       		.space	1
  67              		.global	emerg
  68              		.type	emerg, %object
  69              		.size	emerg, 1
  70              	emerg:
  71 1341 00       		.space	1
  72              		.global	rearme
  73              		.data
  74              		.type	rearme, %object
  75              		.size	rearme, 1
  76              	rearme:
  77 0000 01       		.byte	1
  78              		.global	alerta
  79              		.bss
  80              		.type	alerta, %object
  81              		.size	alerta, 1
  82              	alerta:
  83 1342 00       		.space	1
  84              		.global	tempM
  85 1343 00       		.align	2
  86              		.type	tempM, %object
  87              		.size	tempM, 4
  88              	tempM:
  89 1344 00000000 		.space	4
  90              		.global	tempQ
  91              		.align	2
  92              		.type	tempQ, %object
  93              		.size	tempQ, 4
  94              	tempQ:
  95 1348 00000000 		.space	4
  96              		.section	.text.se_indut_porta_Handler,"ax",%progbits
  97              		.align	2
  98              		.global	se_indut_porta_Handler
  99              		.thumb
 100              		.thumb_func
 101              		.type	se_indut_porta_Handler, %function
 102              	se_indut_porta_Handler:
 103              	.LFB64:
 104              		.file 1 "..\\app.c"
   1:..\app.c      **** /*
   2:..\app.c      **** ***************************************************************************************************
   3:..\app.c      **** *                                              EXAMPLE CODE
   4:..\app.c      **** *
   5:..\app.c      **** *                             (c) Copyright 2012; Micrium, Inc.; Weston, FL
   6:..\app.c      **** *
   7:..\app.c      **** *               All rights reserved.  Protected by international copyright laws.
   8:..\app.c      **** *               Knowledge of the source code may NOT be used to develop a similar product.
   9:..\app.c      **** *               Please help us continue to provide the Embedded community with the finest
  10:..\app.c      **** *               software available.  Your honesty is greatly appreciated.
  11:..\app.c      **** ***************************************************************************************************
ARM GAS  C:\Users\alex\AppData\Local\Temp\ccrLK32p.s 			page 4


  12:..\app.c      **** */
  13:..\app.c      **** 
  14:..\app.c      **** /*
  15:..\app.c      **** ***************************************************************************************************
  16:..\app.c      **** *
  17:..\app.c      **** *                                           EXAMPLE CODE
  18:..\app.c      **** *
  19:..\app.c      **** *                                           CYPRESS PSoC5
  20:..\app.c      **** *                                              with the
  21:..\app.c      **** *                                     CY8CKIT-050 Development Kit
  22:..\app.c      **** *
  23:..\app.c      **** * Filename      : app.c
  24:..\app.c      **** * Version       : V1.00
  25:..\app.c      **** * Programmer(s) : DC
  26:..\app.c      ****                   
  27:..\app.c      **** ***************************************************************************************************
  28:..\app.c      **** */
  29:..\app.c      **** 
  30:..\app.c      **** /*
  31:..\app.c      **** ***************************************************************************************************
  32:..\app.c      **** *                                             INCLUDE FILES
  33:..\app.c      **** ***************************************************************************************************
  34:..\app.c      **** */
  35:..\app.c      **** 
  36:..\app.c      **** #include <includes.h>
  37:..\app.c      **** #include <project.h>                /* incluindo api do psoc */
  38:..\app.c      **** //#include <math.h>                   // biblioteca matematica padrao do C - para calc de temperatu
  39:..\app.c      **** 
  40:..\app.c      **** //////////////// comentario teste - apagar
  41:..\app.c      **** //////////////// outro comentario de teste
  42:..\app.c      **** /*
  43:..\app.c      **** ***************************************************************************************************
  44:..\app.c      **** *                                             LOCAL DEFINES
  45:..\app.c      **** ***************************************************************************************************
  46:..\app.c      **** */
  47:..\app.c      **** 
  48:..\app.c      **** #define  APP_USER_IF_SIGN_ON                        0u
  49:..\app.c      **** #define  APP_USER_IF_VER_TICK_RATE                  1u
  50:..\app.c      **** #define  APP_USER_IF_CPU                            2u
  51:..\app.c      **** #define  APP_USER_IF_CTXSW                          3u
  52:..\app.c      **** #define  APP_USER_IF_STATE_MAX                      4u
  53:..\app.c      **** 
  54:..\app.c      **** #define LIGA                1u
  55:..\app.c      **** #define DESL                0u
  56:..\app.c      **** 
  57:..\app.c      **** #define DEBOUNCE            100u                               // tempo de debounce para botoes
  58:..\app.c      **** #define NTC_B               4275.0                              // constante B do termistor
  59:..\app.c      **** #define NTC_R0              100000.0                            // R0 = 100k kit grove
  60:..\app.c      **** #define TEMP_MOTOR_ALERTA   40.0
  61:..\app.c      **** #define TEMP_QUADRO_ALERTA  40.0
  62:..\app.c      **** 
  63:..\app.c      **** 
  64:..\app.c      **** /*
  65:..\app.c      **** ***************************************************************************************************
  66:..\app.c      **** *                                            LOCAL VARIABLES
  67:..\app.c      **** ***************************************************************************************************
  68:..\app.c      **** */
ARM GAS  C:\Users\alex\AppData\Local\Temp\ccrLK32p.s 			page 5


  69:..\app.c      **** 
  70:..\app.c      **** static  OS_TCB      App_TaskStartTCB;
  71:..\app.c      **** static  CPU_STK     App_TaskStartStk[APP_CFG_TASK_START_STK_SIZE];
  72:..\app.c      **** 
  73:..\app.c      **** static  OS_TCB      App_TaskUserIF_TCB;
  74:..\app.c      **** static  CPU_STK     App_TaskUserIFStk[APP_CFG_TASK_USER_IF_STK_SIZE];
  75:..\app.c      **** 
  76:..\app.c      ****                                                                         // criando as estruras do T
  77:..\app.c      **** static  OS_TCB      App_Task_Ihm_TCB;
  78:..\app.c      **** static  CPU_STK     App_Task_Ihm_Stk[APP_CFG_TASK_IHM_STK_SIZE];
  79:..\app.c      **** 
  80:..\app.c      ****                                                                         // criando as estruras do T
  81:..\app.c      **** static  OS_TCB      App_Task_Emerg_TCB;
  82:..\app.c      **** static  CPU_STK     App_Task_Emerg_Stk[APP_CFG_TASK_EMERG_STK_SIZE];
  83:..\app.c      **** 
  84:..\app.c      ****                                                                         // criando as estruras do T
  85:..\app.c      **** static  OS_TCB      App_Task_Sen_Mec_TCB;
  86:..\app.c      **** static  CPU_STK     App_Task_Sen_Mec_Stk[APP_CFG_TASK_SEN_MEC_STK_SIZE];
  87:..\app.c      **** 
  88:..\app.c      ****                                                                         // criando as estruras do T
  89:..\app.c      **** static  OS_TCB      App_Task_Sen_Temp_TCB;
  90:..\app.c      **** static  CPU_STK     App_Task_Sen_Temp_Stk[APP_CFG_TASK_SEN_TEMP_STK_SIZE];
  91:..\app.c      **** 
  92:..\app.c      ****                                                                         // criando as estruras do T
  93:..\app.c      **** static  OS_TCB      App_Task_Display_TCB;
  94:..\app.c      **** static  CPU_STK     App_Task_Display_Stk[APP_CFG_TASK_DISPLAY_STK_SIZE];
  95:..\app.c      **** 
  96:..\app.c      **** 
  97:..\app.c      ****         CPU_INT08U  motor   = 0,                                        // estado do motor - 1: lig
  98:..\app.c      ****                     emerg   = 0,                                        // var. para monitorar esta
  99:..\app.c      ****                     rearme  = 1,                                        // var. para monitorar esta
 100:..\app.c      ****                     alerta  = 0;                                        // var. para monitorar esta
 101:..\app.c      ****                     
 102:..\app.c      **** 
 103:..\app.c      ****         float       tempM = 0,                                          // var. para temperatura do
 104:..\app.c      ****                     tempQ = 0;                                          // var. para temperatura do
 105:..\app.c      **** 
 106:..\app.c      **** /*
 107:..\app.c      **** ***************************************************************************************************
 108:..\app.c      **** *                                         FUNCTION PROTOTYPES
 109:..\app.c      **** ***************************************************************************************************
 110:..\app.c      **** */
 111:..\app.c      **** 
 112:..\app.c      **** static  void  App_TaskStart  (void *p_arg);
 113:..\app.c      **** 
 114:..\app.c      **** static  void  App_TaskUserIF (void *p_arg);
 115:..\app.c      **** 
 116:..\app.c      **** static  void  App_TaskCreate (void);
 117:..\app.c      **** static  void  App_ObjCreate  (void);
 118:..\app.c      **** 
 119:..\app.c      **** static  void  App_Task_Ihm      (void *p_arg);             /* prototipo da funcao que define a task
 120:..\app.c      **** static  void  App_Task_Emerg    (void *p_arg);             /* prototipo da funcao que define a task
 121:..\app.c      **** static  void  App_Task_Sen_Mec  (void *p_arg);             /* prototipo da funcao que define a task
 122:..\app.c      **** static  void  App_Task_Sen_Temp (void *p_arg);             /* prototipo da funcao que define a task
 123:..\app.c      **** static  void  App_Task_Display  (void *p_arg);             /* prototipo da funcao que define a task
 124:..\app.c      **** 
 125:..\app.c      ****         void  statusMotor    (CPU_INT08U op);
ARM GAS  C:\Users\alex\AppData\Local\Temp\ccrLK32p.s 			page 6


 126:..\app.c      ****         void  statusRearme   (CPU_INT08U op);
 127:..\app.c      ****         void  statusEmerg    (CPU_INT08U op);
 128:..\app.c      ****         void  statusAlerta   (CPU_INT08U op);
 129:..\app.c      **** 
 130:..\app.c      ****         
 131:..\app.c      **** /*
 132:..\app.c      **** ***************************************************************************************************
 133:..\app.c      **** *                                         ISR HANDLERS
 134:..\app.c      **** ***************************************************************************************************
 135:..\app.c      **** */
 136:..\app.c      **** 
 137:..\app.c      **** CY_ISR(se_indut_porta_Handler){                     // implementando rotina de tratamento de interr
 105              		.loc 1 137 0
 106              		.cfi_startproc
 107              		@ args = 0, pretend = 0, frame = 0
 108              		@ frame_needed = 1, uses_anonymous_args = 0
 109 0000 80B5     		push	{r7, lr}
 110              		.cfi_def_cfa_offset 8
 111              		.cfi_offset 7, -8
 112              		.cfi_offset 14, -4
 113 0002 00AF     		add	r7, sp, #0
 114              		.cfi_def_cfa_register 7
 138:..\app.c      ****     
 139:..\app.c      ****      // tratando debounce do botão
 140:..\app.c      ****     OSTimeDly(DEBOUNCE,OS_ERR_TIME_DLY_ISR, NULL);
 115              		.loc 1 140 0
 116 0004 0022     		movs	r2, #0
 117 0006 47F27521 		movw	r1, #29301
 118 000a 6420     		movs	r0, #100
 119 000c FFF7FEFF 		bl	OSTimeDly
 141:..\app.c      ****     
 142:..\app.c      ****                                                     // trata sens. indut da protecao mec. da porta
 143:..\app.c      ****     statusMotor(DESL);
 120              		.loc 1 143 0
 121 0010 0020     		movs	r0, #0
 122 0012 FFF7FEFF 		bl	statusMotor
 144:..\app.c      ****     statusRearme(LIGA);
 123              		.loc 1 144 0
 124 0016 0120     		movs	r0, #1
 125 0018 FFF7FEFF 		bl	statusRearme
 145:..\app.c      ****     statusAlerta(LIGA);
 126              		.loc 1 145 0
 127 001c 0120     		movs	r0, #1
 128 001e FFF7FEFF 		bl	statusAlerta
 146:..\app.c      ****         
 147:..\app.c      ****     se_indut_porta_ClearInterrupt();                // limpa flag de interrupçao
 129              		.loc 1 147 0
 130 0022 FFF7FEFF 		bl	se_indut_porta_ClearInterrupt
 148:..\app.c      ****     
 149:..\app.c      ****     
 150:..\app.c      **** }
 131              		.loc 1 150 0
 132 0026 00BF     		nop
 133 0028 80BD     		pop	{r7, pc}
 134              		.cfi_endproc
 135              	.LFE64:
 136              		.size	se_indut_porta_Handler, .-se_indut_porta_Handler
ARM GAS  C:\Users\alex\AppData\Local\Temp\ccrLK32p.s 			page 7


 137 002a 00BF     		.section	.text.se_indut_motor_Handler,"ax",%progbits
 138              		.align	2
 139              		.global	se_indut_motor_Handler
 140              		.thumb
 141              		.thumb_func
 142              		.type	se_indut_motor_Handler, %function
 143              	se_indut_motor_Handler:
 144              	.LFB65:
 151:..\app.c      **** 
 152:..\app.c      **** CY_ISR(se_indut_motor_Handler){                     // implementando rotina de tratamento de interr
 145              		.loc 1 152 0
 146              		.cfi_startproc
 147              		@ args = 0, pretend = 0, frame = 0
 148              		@ frame_needed = 1, uses_anonymous_args = 0
 149 0000 80B5     		push	{r7, lr}
 150              		.cfi_def_cfa_offset 8
 151              		.cfi_offset 7, -8
 152              		.cfi_offset 14, -4
 153 0002 00AF     		add	r7, sp, #0
 154              		.cfi_def_cfa_register 7
 153:..\app.c      ****   
 154:..\app.c      ****     // tratando debounce do botão
 155:..\app.c      ****     OSTimeDly(DEBOUNCE,OS_ERR_TIME_DLY_ISR, NULL);
 155              		.loc 1 155 0
 156 0004 0022     		movs	r2, #0
 157 0006 47F27521 		movw	r1, #29301
 158 000a 6420     		movs	r0, #100
 159 000c FFF7FEFF 		bl	OSTimeDly
 156:..\app.c      ****     
 157:..\app.c      ****                                                     // trata sens. indut da protecao mec. do motor
 158:..\app.c      ****     statusMotor(DESL);
 160              		.loc 1 158 0
 161 0010 0020     		movs	r0, #0
 162 0012 FFF7FEFF 		bl	statusMotor
 159:..\app.c      ****     statusRearme(LIGA);
 163              		.loc 1 159 0
 164 0016 0120     		movs	r0, #1
 165 0018 FFF7FEFF 		bl	statusRearme
 160:..\app.c      ****     statusAlerta(LIGA);
 166              		.loc 1 160 0
 167 001c 0120     		movs	r0, #1
 168 001e FFF7FEFF 		bl	statusAlerta
 161:..\app.c      ****     
 162:..\app.c      ****     se_indut_motor_ClearInterrupt();                // limpa flag de interrupçao
 169              		.loc 1 162 0
 170 0022 FFF7FEFF 		bl	se_indut_motor_ClearInterrupt
 163:..\app.c      ****     
 164:..\app.c      **** }
 171              		.loc 1 164 0
 172 0026 00BF     		nop
 173 0028 80BD     		pop	{r7, pc}
 174              		.cfi_endproc
 175              	.LFE65:
 176              		.size	se_indut_motor_Handler, .-se_indut_motor_Handler
 177 002a 00BF     		.section	.text.bt_emerg_int_Handler,"ax",%progbits
 178              		.align	2
 179              		.global	bt_emerg_int_Handler
ARM GAS  C:\Users\alex\AppData\Local\Temp\ccrLK32p.s 			page 8


 180              		.thumb
 181              		.thumb_func
 182              		.type	bt_emerg_int_Handler, %function
 183              	bt_emerg_int_Handler:
 184              	.LFB66:
 165:..\app.c      **** 
 166:..\app.c      **** CY_ISR(bt_emerg_int_Handler){                       // implementando rotina de tratamento de interr
 185              		.loc 1 166 0
 186              		.cfi_startproc
 187              		@ args = 0, pretend = 0, frame = 0
 188              		@ frame_needed = 1, uses_anonymous_args = 0
 189 0000 80B5     		push	{r7, lr}
 190              		.cfi_def_cfa_offset 8
 191              		.cfi_offset 7, -8
 192              		.cfi_offset 14, -4
 193 0002 00AF     		add	r7, sp, #0
 194              		.cfi_def_cfa_register 7
 167:..\app.c      ****     
 168:..\app.c      ****     
 169:..\app.c      ****                                                     // tratando debounce do botão
 170:..\app.c      ****     OSTimeDly(200,OS_ERR_TIME_DLY_ISR, NULL);
 195              		.loc 1 170 0
 196 0004 0022     		movs	r2, #0
 197 0006 47F27521 		movw	r1, #29301
 198 000a C820     		movs	r0, #200
 199 000c FFF7FEFF 		bl	OSTimeDly
 171:..\app.c      ****     statusMotor(DESL);
 200              		.loc 1 171 0
 201 0010 0020     		movs	r0, #0
 202 0012 FFF7FEFF 		bl	statusMotor
 172:..\app.c      ****     statusRearme(LIGA);
 203              		.loc 1 172 0
 204 0016 0120     		movs	r0, #1
 205 0018 FFF7FEFF 		bl	statusRearme
 173:..\app.c      ****     statusEmerg(LIGA);
 206              		.loc 1 173 0
 207 001c 0120     		movs	r0, #1
 208 001e FFF7FEFF 		bl	statusEmerg
 174:..\app.c      **** 
 175:..\app.c      ****     bt_emerg_ClearInterrupt();                      // limpa flag de interrupçao
 209              		.loc 1 175 0
 210 0022 FFF7FEFF 		bl	bt_emerg_ClearInterrupt
 176:..\app.c      ****     
 177:..\app.c      **** }
 211              		.loc 1 177 0
 212 0026 00BF     		nop
 213 0028 80BD     		pop	{r7, pc}
 214              		.cfi_endproc
 215              	.LFE66:
 216              		.size	bt_emerg_int_Handler, .-bt_emerg_int_Handler
 217 002a 00BF     		.section	.rodata
 218              		.align	2
 219              	.LC0:
 220 0000 53746172 		.ascii	"Start\000"
 220      7400
 221              		.section	.text.main,"ax",%progbits
 222              		.align	2
ARM GAS  C:\Users\alex\AppData\Local\Temp\ccrLK32p.s 			page 9


 223              		.global	main
 224              		.thumb
 225              		.thumb_func
 226              		.type	main, %function
 227              	main:
 228              	.LFB67:
 178:..\app.c      **** 
 179:..\app.c      ****  
 180:..\app.c      **** 
 181:..\app.c      **** /*
 182:..\app.c      **** ***************************************************************************************************
 183:..\app.c      **** *                                                main()
 184:..\app.c      **** *
 185:..\app.c      **** * Description : This is the standard entry point for C code.  It is assumed that your code will cal
 186:..\app.c      **** *               main() once you have performed all necessary initialization.
 187:..\app.c      **** *
 188:..\app.c      **** * Argument(s) : none
 189:..\app.c      **** *
 190:..\app.c      **** * Return(s)   : none
 191:..\app.c      **** *
 192:..\app.c      **** * Caller(s)   : Startup Code.
 193:..\app.c      **** *
 194:..\app.c      **** * Note(s)     : none.
 195:..\app.c      **** ***************************************************************************************************
 196:..\app.c      **** */
 197:..\app.c      **** 
 198:..\app.c      **** int  main (void)
 199:..\app.c      **** {
 229              		.loc 1 199 0
 230              		.cfi_startproc
 231              		@ args = 0, pretend = 0, frame = 8
 232              		@ frame_needed = 1, uses_anonymous_args = 0
 233 0000 80B5     		push	{r7, lr}
 234              		.cfi_def_cfa_offset 8
 235              		.cfi_offset 7, -8
 236              		.cfi_offset 14, -4
 237 0002 8CB0     		sub	sp, sp, #48
 238              		.cfi_def_cfa_offset 56
 239 0004 0AAF     		add	r7, sp, #40
 240              		.cfi_def_cfa 7, 16
 200:..\app.c      ****     
 201:..\app.c      **** 
 202:..\app.c      ****     se_indut_porta_int_StartEx(se_indut_porta_Handler);         // habilita ISR do pino
 241              		.loc 1 202 0
 242 0006 1948     		ldr	r0, .L6
 243 0008 FFF7FEFF 		bl	se_indut_porta_int_StartEx
 203:..\app.c      ****     se_indut_motor_int_StartEx(se_indut_motor_Handler);         // habilita ISR do pino
 244              		.loc 1 203 0
 245 000c 1848     		ldr	r0, .L6+4
 246 000e FFF7FEFF 		bl	se_indut_motor_int_StartEx
 204:..\app.c      ****     bt_emerg_int_StartEx(bt_emerg_int_Handler);                 // habilita ISR do pino
 247              		.loc 1 204 0
 248 0012 1848     		ldr	r0, .L6+8
 249 0014 FFF7FEFF 		bl	bt_emerg_int_StartEx
 205:..\app.c      ****     
 206:..\app.c      ****     OS_ERR  os_err;
 207:..\app.c      **** 
ARM GAS  C:\Users\alex\AppData\Local\Temp\ccrLK32p.s 			page 10


 208:..\app.c      **** 
 209:..\app.c      ****     BSP_PreInit();                                              /* Perform BSP pre-initialization. 
 250              		.loc 1 209 0
 251 0018 FFF7FEFF 		bl	BSP_PreInit
 210:..\app.c      **** 
 211:..\app.c      ****     CPU_Init();                                                 /* Initialize the uC/CPU services  
 252              		.loc 1 211 0
 253 001c FFF7FEFF 		bl	CPU_Init
 212:..\app.c      **** 
 213:..\app.c      ****     OSInit(&os_err);                                            /* Init uC/OS-III.                 
 254              		.loc 1 213 0
 255 0020 BB1D     		adds	r3, r7, #6
 256 0022 1846     		mov	r0, r3
 257 0024 FFF7FEFF 		bl	OSInit
 214:..\app.c      **** 
 215:..\app.c      ****     OSTaskCreate((OS_TCB      *)&App_TaskStartTCB,              /* Create the start task           
 258              		.loc 1 215 0
 259 0028 BB1D     		adds	r3, r7, #6
 260 002a 0893     		str	r3, [sp, #32]
 261 002c 0323     		movs	r3, #3
 262 002e 0793     		str	r3, [sp, #28]
 263 0030 0023     		movs	r3, #0
 264 0032 0693     		str	r3, [sp, #24]
 265 0034 0023     		movs	r3, #0
 266 0036 0593     		str	r3, [sp, #20]
 267 0038 0023     		movs	r3, #0
 268 003a 0493     		str	r3, [sp, #16]
 269 003c 8023     		movs	r3, #128
 270 003e 0393     		str	r3, [sp, #12]
 271 0040 0C23     		movs	r3, #12
 272 0042 0293     		str	r3, [sp, #8]
 273 0044 0C4B     		ldr	r3, .L6+12
 274 0046 0193     		str	r3, [sp, #4]
 275 0048 0223     		movs	r3, #2
 276 004a 0093     		str	r3, [sp]
 277 004c 0023     		movs	r3, #0
 278 004e 0B4A     		ldr	r2, .L6+16
 279 0050 0B49     		ldr	r1, .L6+20
 280 0052 0C48     		ldr	r0, .L6+24
 281 0054 FFF7FEFF 		bl	OSTaskCreate
 216:..\app.c      ****                  (CPU_CHAR    *)"Start",
 217:..\app.c      ****                  (OS_TASK_PTR  )App_TaskStart, 
 218:..\app.c      ****                  (void        *)0,
 219:..\app.c      ****                  (OS_PRIO      )APP_CFG_TASK_START_PRIO,
 220:..\app.c      ****                  (CPU_STK     *)&App_TaskStartStk[0],
 221:..\app.c      ****                  (CPU_STK_SIZE )APP_CFG_TASK_START_STK_SIZE_LIMIT,
 222:..\app.c      ****                  (CPU_STK_SIZE )APP_CFG_TASK_START_STK_SIZE,
 223:..\app.c      ****                  (OS_MSG_QTY   )0u,
 224:..\app.c      ****                  (OS_TICK      )0u,
 225:..\app.c      ****                  (void        *)0,
 226:..\app.c      ****                  (OS_OPT       )(OS_OPT_TASK_STK_CHK | OS_OPT_TASK_STK_CLR),
 227:..\app.c      ****                  (OS_ERR      *)&os_err);
 228:..\app.c      **** 
 229:..\app.c      ****     OSStart(&os_err);                                            /* Start multitasking (i.e. give c
 282              		.loc 1 229 0
 283 0058 BB1D     		adds	r3, r7, #6
 284 005a 1846     		mov	r0, r3
ARM GAS  C:\Users\alex\AppData\Local\Temp\ccrLK32p.s 			page 11


 285 005c FFF7FEFF 		bl	OSStart
 286 0060 0023     		movs	r3, #0
 230:..\app.c      ****     
 231:..\app.c      ****     
 232:..\app.c      ****     
 233:..\app.c      **** }
 287              		.loc 1 233 0
 288 0062 1846     		mov	r0, r3
 289 0064 0837     		adds	r7, r7, #8
 290              		.cfi_def_cfa_offset 8
 291 0066 BD46     		mov	sp, r7
 292              		.cfi_def_cfa_register 13
 293              		@ sp needed
 294 0068 80BD     		pop	{r7, pc}
 295              	.L7:
 296 006a 00BF     		.align	2
 297              	.L6:
 298 006c 00000000 		.word	se_indut_porta_Handler
 299 0070 00000000 		.word	se_indut_motor_Handler
 300 0074 00000000 		.word	bt_emerg_int_Handler
 301 0078 C0000000 		.word	App_TaskStartStk
 302 007c 00000000 		.word	App_TaskStart
 303 0080 00000000 		.word	.LC0
 304 0084 00000000 		.word	App_TaskStartTCB
 305              		.cfi_endproc
 306              	.LFE67:
 307              		.size	main, .-main
 308              		.section	.text.App_TaskStart,"ax",%progbits
 309              		.align	2
 310              		.thumb
 311              		.thumb_func
 312              		.type	App_TaskStart, %function
 313              	App_TaskStart:
 314              	.LFB68:
 234:..\app.c      **** 
 235:..\app.c      **** 
 236:..\app.c      **** /*
 237:..\app.c      **** ***************************************************************************************************
 238:..\app.c      **** *                                          App_TaskStart()
 239:..\app.c      **** *
 240:..\app.c      **** * Description : This is an example of a startup task.  As mentioned in the book's text, you MUST
 241:..\app.c      **** *               initialize the ticker only once multitasking has started.
 242:..\app.c      **** *
 243:..\app.c      **** * Argument(s) : p_arg   is the argument passed to 'App_TaskStart()' by 'OSTaskCreate()'.
 244:..\app.c      **** *
 245:..\app.c      **** * Return(s)   : none
 246:..\app.c      **** *
 247:..\app.c      **** * Note(s)     : 1) The first line of code is used to prevent a compiler warning because 'p_arg' is 
 248:..\app.c      **** *                  used.  The compiler should not generate any code for this statement.
 249:..\app.c      **** ***************************************************************************************************
 250:..\app.c      **** */
 251:..\app.c      **** 
 252:..\app.c      **** static  void  App_TaskStart (void *p_arg)
 253:..\app.c      **** {
 315              		.loc 1 253 0
 316              		.cfi_startproc
 317              		@ args = 0, pretend = 0, frame = 16
ARM GAS  C:\Users\alex\AppData\Local\Temp\ccrLK32p.s 			page 12


 318              		@ frame_needed = 1, uses_anonymous_args = 0
 319 0000 80B5     		push	{r7, lr}
 320              		.cfi_def_cfa_offset 8
 321              		.cfi_offset 7, -8
 322              		.cfi_offset 14, -4
 323 0002 86B0     		sub	sp, sp, #24
 324              		.cfi_def_cfa_offset 32
 325 0004 02AF     		add	r7, sp, #8
 326              		.cfi_def_cfa 7, 24
 327 0006 7860     		str	r0, [r7, #4]
 254:..\app.c      ****     OS_ERR       err;
 255:..\app.c      ****         
 256:..\app.c      **** 
 257:..\app.c      ****    (void)p_arg;
 258:..\app.c      ****    
 259:..\app.c      **** 
 260:..\app.c      ****     BSP_PostInit();                                               /* Perform BSP post-initializatio
 328              		.loc 1 260 0
 329 0008 FFF7FEFF 		bl	BSP_PostInit
 261:..\app.c      ****     
 262:..\app.c      ****     BSP_CPU_TickInit();                                           /* Perfrom Tick Initialization   
 330              		.loc 1 262 0
 331 000c FFF7FEFF 		bl	BSP_CPU_TickInit
 263:..\app.c      **** 
 264:..\app.c      **** #if (OS_CFG_STAT_TASK_EN > 0u)
 265:..\app.c      ****     OSStatTaskCPUUsageInit(&err);
 332              		.loc 1 265 0
 333 0010 07F10E03 		add	r3, r7, #14
 334 0014 1846     		mov	r0, r3
 335 0016 FFF7FEFF 		bl	OSStatTaskCPUUsageInit
 266:..\app.c      **** #endif    
 267:..\app.c      **** 
 268:..\app.c      **** #ifdef CPU_CFG_INT_DIS_MEAS_EN
 269:..\app.c      ****     CPU_IntDisMeasMaxCurReset();
 270:..\app.c      **** #endif      
 271:..\app.c      **** 
 272:..\app.c      ****     App_TaskCreate();                                             /* Create application tasks.     
 336              		.loc 1 272 0
 337 001a FFF7FEFF 		bl	App_TaskCreate
 273:..\app.c      **** 
 274:..\app.c      ****     App_ObjCreate();                                              /* Create kernel objects         
 338              		.loc 1 274 0
 339 001e FFF7FEFF 		bl	App_ObjCreate
 275:..\app.c      ****     
 276:..\app.c      **** #if (APP_CFG_PROBE_COM_EN == DEF_ENABLED)
 277:..\app.c      ****     App_ProbeInit();                                              /* Enabling uC/Probe             
 340              		.loc 1 277 0
 341 0022 FFF7FEFF 		bl	App_ProbeInit
 278:..\app.c      **** #endif
 279:..\app.c      ****     
 280:..\app.c      ****     BSP_LED_Off(1);
 342              		.loc 1 280 0
 343 0026 0120     		movs	r0, #1
 344 0028 FFF7FEFF 		bl	BSP_LED_Off
 345              	.L9:
 281:..\app.c      **** 
 282:..\app.c      ****     while (DEF_TRUE) {                                            /* Task body, always written as a
ARM GAS  C:\Users\alex\AppData\Local\Temp\ccrLK32p.s 			page 13


 283:..\app.c      ****         BSP_LED_Toggle(1);
 346              		.loc 1 283 0 discriminator 1
 347 002c 0120     		movs	r0, #1
 348 002e FFF7FEFF 		bl	BSP_LED_Toggle
 284:..\app.c      ****         OSTimeDlyHMSM(0, 0, 0, 100, 
 349              		.loc 1 284 0 discriminator 1
 350 0032 07F10E03 		add	r3, r7, #14
 351 0036 0193     		str	r3, [sp, #4]
 352 0038 0023     		movs	r3, #0
 353 003a 0093     		str	r3, [sp]
 354 003c 6423     		movs	r3, #100
 355 003e 0022     		movs	r2, #0
 356 0040 0021     		movs	r1, #0
 357 0042 0020     		movs	r0, #0
 358 0044 FFF7FEFF 		bl	OSTimeDlyHMSM
 285:..\app.c      ****                       OS_OPT_TIME_HMSM_STRICT, 
 286:..\app.c      ****                       &err);
 287:..\app.c      ****     }
 359              		.loc 1 287 0 discriminator 1
 360 0048 F0E7     		b	.L9
 361              		.cfi_endproc
 362              	.LFE68:
 363              		.size	App_TaskStart, .-App_TaskStart
 364 004a 00BF     		.section	.rodata
 365 0006 0000     		.align	2
 366              	.LC1:
 367 0008 49484D5F 		.ascii	"IHM_Task\000"
 367      5461736B 
 367      00
 368 0011 000000   		.align	2
 369              	.LC2:
 370 0014 456D6572 		.ascii	"Emerg_Task\000"
 370      675F5461 
 370      736B00
 371 001f 00       		.align	2
 372              	.LC3:
 373 0020 53656E5F 		.ascii	"Sen_Mec_Task\000"
 373      4D65635F 
 373      5461736B 
 373      00
 374 002d 000000   		.align	2
 375              	.LC4:
 376 0030 53656E5F 		.ascii	"Sen_Temp_Task\000"
 376      54656D70 
 376      5F546173 
 376      6B00
 377 003e 0000     		.align	2
 378              	.LC5:
 379 0040 44697370 		.ascii	"Display_Task\000"
 379      6C61795F 
 379      5461736B 
 379      00
 380              		.section	.text.App_TaskCreate,"ax",%progbits
 381              		.align	2
 382              		.thumb
 383              		.thumb_func
 384              		.type	App_TaskCreate, %function
ARM GAS  C:\Users\alex\AppData\Local\Temp\ccrLK32p.s 			page 14


 385              	App_TaskCreate:
 386              	.LFB69:
 288:..\app.c      **** }
 289:..\app.c      **** 
 290:..\app.c      **** 
 291:..\app.c      **** /*
 292:..\app.c      **** ***************************************************************************************************
 293:..\app.c      **** *                                          App_TaskCreate()
 294:..\app.c      **** *
 295:..\app.c      **** * Description : Create application tasks.
 296:..\app.c      **** *
 297:..\app.c      **** * Argument(s) : none
 298:..\app.c      **** *
 299:..\app.c      **** * Return(s)   : none
 300:..\app.c      **** *
 301:..\app.c      **** * Caller(s)   : AppTaskStart()
 302:..\app.c      **** *
 303:..\app.c      **** * Note(s)     : none.
 304:..\app.c      **** ***************************************************************************************************
 305:..\app.c      **** */
 306:..\app.c      **** 
 307:..\app.c      **** static  void  App_TaskCreate (void)
 308:..\app.c      **** {
 387              		.loc 1 308 0
 388              		.cfi_startproc
 389              		@ args = 0, pretend = 0, frame = 8
 390              		@ frame_needed = 1, uses_anonymous_args = 0
 391 0000 80B5     		push	{r7, lr}
 392              		.cfi_def_cfa_offset 8
 393              		.cfi_offset 7, -8
 394              		.cfi_offset 14, -4
 395 0002 8CB0     		sub	sp, sp, #48
 396              		.cfi_def_cfa_offset 56
 397 0004 0AAF     		add	r7, sp, #40
 398              		.cfi_def_cfa 7, 16
 309:..\app.c      **** 
 310:..\app.c      ****     OS_ERR  os_err;
 311:..\app.c      **** 
 312:..\app.c      ****     /*
 313:..\app.c      ****     OSTaskCreate((OS_TCB      *)&App_TaskUserIF_TCB,
 314:..\app.c      ****                  (CPU_CHAR    *)"Start",
 315:..\app.c      ****                  (OS_TASK_PTR  )App_TaskUserIF, 
 316:..\app.c      ****                  (void        *)0,
 317:..\app.c      ****                  (OS_PRIO      )APP_CFG_TASK_USER_IF_PRIO,
 318:..\app.c      ****                  (CPU_STK     *)&App_TaskUserIFStk[0],
 319:..\app.c      ****                  (CPU_STK_SIZE )APP_CFG_TASK_USER_IF_STK_SIZE_LIMIT,
 320:..\app.c      ****                  (CPU_STK_SIZE )APP_CFG_TASK_USER_IF_STK_SIZE,
 321:..\app.c      ****                  (OS_MSG_QTY   )0u,
 322:..\app.c      ****                  (OS_TICK      )0u,
 323:..\app.c      ****                  (void        *)0,
 324:..\app.c      ****                  (OS_OPT       )(OS_OPT_TASK_STK_CHK | OS_OPT_TASK_STK_CLR),
 325:..\app.c      ****                  (OS_ERR      *)&os_err);
 326:..\app.c      ****     */
 327:..\app.c      ****     
 328:..\app.c      ****     // ======== task IHM  ========
 329:..\app.c      ****     OSTaskCreate((OS_TCB      *)&App_Task_Ihm_TCB,                             // endereço da task
 399              		.loc 1 329 0
ARM GAS  C:\Users\alex\AppData\Local\Temp\ccrLK32p.s 			page 15


 400 0006 BB1D     		adds	r3, r7, #6
 401 0008 0893     		str	r3, [sp, #32]
 402 000a 0323     		movs	r3, #3
 403 000c 0793     		str	r3, [sp, #28]
 404 000e 0023     		movs	r3, #0
 405 0010 0693     		str	r3, [sp, #24]
 406 0012 0023     		movs	r3, #0
 407 0014 0593     		str	r3, [sp, #20]
 408 0016 0023     		movs	r3, #0
 409 0018 0493     		str	r3, [sp, #16]
 410 001a 8023     		movs	r3, #128
 411 001c 0393     		str	r3, [sp, #12]
 412 001e 0C23     		movs	r3, #12
 413 0020 0293     		str	r3, [sp, #8]
 414 0022 374B     		ldr	r3, .L11
 415 0024 0193     		str	r3, [sp, #4]
 416 0026 0223     		movs	r3, #2
 417 0028 0093     		str	r3, [sp]
 418 002a 0023     		movs	r3, #0
 419 002c 354A     		ldr	r2, .L11+4
 420 002e 3649     		ldr	r1, .L11+8
 421 0030 3648     		ldr	r0, .L11+12
 422 0032 FFF7FEFF 		bl	OSTaskCreate
 330:..\app.c      ****                  (CPU_CHAR    *)"IHM_Task",                                    // string com nome d
 331:..\app.c      ****                  (OS_TASK_PTR  )App_Task_Ihm,                                  // endereco da funca
 332:..\app.c      ****                  (void        *)0,                                              // parametros passa
 333:..\app.c      ****                  (OS_PRIO      )APP_CFG_TASK_IHM_PRIO,                         // prioridade de exe
 334:..\app.c      ****                  (CPU_STK     *)&App_Task_Ihm_Stk[0],                          // endereco base da 
 335:..\app.c      ****                  (CPU_STK_SIZE )APP_CFG_TASK_IHM_STK_SIZE_LIMIT,               // endereco final da
 336:..\app.c      ****                  (CPU_STK_SIZE )APP_CFG_TASK_IHM_STK_SIZE,                     // tamanho da pilha
 337:..\app.c      ****                  (OS_MSG_QTY   )0u,                                             // task incapaz de 
 338:..\app.c      ****                  (OS_TICK      )0u,                                             // clock tick defau
 339:..\app.c      ****                  (void        *)0,                                              // sem endereço de
 340:..\app.c      ****                  (OS_OPT       )(OS_OPT_TASK_STK_CHK | OS_OPT_TASK_STK_CLR),    // opcoes especific
 341:..\app.c      ****                  (OS_ERR      *)&os_err);                                       // ponteiro com err
 342:..\app.c      ****  
 343:..\app.c      ****     // ======== task Emergencia  ========
 344:..\app.c      ****     OSTaskCreate((OS_TCB      *)&App_Task_Emerg_TCB,                             // endereço da ta
 423              		.loc 1 344 0
 424 0036 BB1D     		adds	r3, r7, #6
 425 0038 0893     		str	r3, [sp, #32]
 426 003a 0323     		movs	r3, #3
 427 003c 0793     		str	r3, [sp, #28]
 428 003e 0023     		movs	r3, #0
 429 0040 0693     		str	r3, [sp, #24]
 430 0042 0023     		movs	r3, #0
 431 0044 0593     		str	r3, [sp, #20]
 432 0046 0023     		movs	r3, #0
 433 0048 0493     		str	r3, [sp, #16]
 434 004a 8023     		movs	r3, #128
 435 004c 0393     		str	r3, [sp, #12]
 436 004e 0C23     		movs	r3, #12
 437 0050 0293     		str	r3, [sp, #8]
 438 0052 2F4B     		ldr	r3, .L11+16
 439 0054 0193     		str	r3, [sp, #4]
 440 0056 0223     		movs	r3, #2
 441 0058 0093     		str	r3, [sp]
ARM GAS  C:\Users\alex\AppData\Local\Temp\ccrLK32p.s 			page 16


 442 005a 0023     		movs	r3, #0
 443 005c 2D4A     		ldr	r2, .L11+20
 444 005e 2E49     		ldr	r1, .L11+24
 445 0060 2E48     		ldr	r0, .L11+28
 446 0062 FFF7FEFF 		bl	OSTaskCreate
 345:..\app.c      ****                  (CPU_CHAR    *)"Emerg_Task",                                    // string com nome
 346:..\app.c      ****                  (OS_TASK_PTR  )App_Task_Emerg,                                  // endereco da fun
 347:..\app.c      ****                  (void        *)0,                                              // parametros passa
 348:..\app.c      ****                  (OS_PRIO      )APP_CFG_TASK_EMERG_PRIO,                         // prioridade de e
 349:..\app.c      ****                  (CPU_STK     *)&App_Task_Emerg_Stk[0],                          // endereco base d
 350:..\app.c      ****                  (CPU_STK_SIZE )APP_CFG_TASK_EMERG_STK_SIZE_LIMIT,               // endereco final 
 351:..\app.c      ****                  (CPU_STK_SIZE )APP_CFG_TASK_EMERG_STK_SIZE,                     // tamanho da pilh
 352:..\app.c      ****                  (OS_MSG_QTY   )0u,                                             // task incapaz de 
 353:..\app.c      ****                  (OS_TICK      )0u,                                             // clock tick defau
 354:..\app.c      ****                  (void        *)0,                                              // sem endereço de
 355:..\app.c      ****                  (OS_OPT       )(OS_OPT_TASK_STK_CHK | OS_OPT_TASK_STK_CLR),    // opcoes especific
 356:..\app.c      ****                  (OS_ERR      *)&os_err);                                       // ponteiro com err
 357:..\app.c      **** 
 358:..\app.c      ****     // ======== task sen. mec.  ========
 359:..\app.c      ****     OSTaskCreate((OS_TCB      *)&App_Task_Sen_Mec_TCB,                             // endereço da 
 447              		.loc 1 359 0
 448 0066 BB1D     		adds	r3, r7, #6
 449 0068 0893     		str	r3, [sp, #32]
 450 006a 0323     		movs	r3, #3
 451 006c 0793     		str	r3, [sp, #28]
 452 006e 0023     		movs	r3, #0
 453 0070 0693     		str	r3, [sp, #24]
 454 0072 0023     		movs	r3, #0
 455 0074 0593     		str	r3, [sp, #20]
 456 0076 0023     		movs	r3, #0
 457 0078 0493     		str	r3, [sp, #16]
 458 007a 8023     		movs	r3, #128
 459 007c 0393     		str	r3, [sp, #12]
 460 007e 0C23     		movs	r3, #12
 461 0080 0293     		str	r3, [sp, #8]
 462 0082 274B     		ldr	r3, .L11+32
 463 0084 0193     		str	r3, [sp, #4]
 464 0086 0223     		movs	r3, #2
 465 0088 0093     		str	r3, [sp]
 466 008a 0023     		movs	r3, #0
 467 008c 254A     		ldr	r2, .L11+36
 468 008e 2649     		ldr	r1, .L11+40
 469 0090 2648     		ldr	r0, .L11+44
 470 0092 FFF7FEFF 		bl	OSTaskCreate
 360:..\app.c      ****                  (CPU_CHAR    *)"Sen_Mec_Task",                                    // string com no
 361:..\app.c      ****                  (OS_TASK_PTR  )App_Task_Sen_Mec,                                  // endereco da f
 362:..\app.c      ****                  (void        *)0,                                              // parametros passa
 363:..\app.c      ****                  (OS_PRIO      )APP_CFG_TASK_SEN_MEC_PRIO,                         // prioridade de
 364:..\app.c      ****                  (CPU_STK     *)&App_Task_Sen_Mec_Stk[0],                          // endereco base
 365:..\app.c      ****                  (CPU_STK_SIZE )APP_CFG_TASK_SEN_MEC_STK_SIZE_LIMIT,               // endereco fina
 366:..\app.c      ****                  (CPU_STK_SIZE )APP_CFG_TASK_SEN_MEC_STK_SIZE,                     // tamanho da pi
 367:..\app.c      ****                  (OS_MSG_QTY   )0u,                                             // task incapaz de 
 368:..\app.c      ****                  (OS_TICK      )0u,                                             // clock tick defau
 369:..\app.c      ****                  (void        *)0,                                              // sem endereço de
 370:..\app.c      ****                  (OS_OPT       )(OS_OPT_TASK_STK_CHK | OS_OPT_TASK_STK_CLR),    // opcoes especific
 371:..\app.c      ****                  (OS_ERR      *)&os_err);                                       // ponteiro com err
 372:..\app.c      ****     
ARM GAS  C:\Users\alex\AppData\Local\Temp\ccrLK32p.s 			page 17


 373:..\app.c      ****     // ======== task sen. temp.  ========
 374:..\app.c      ****     OSTaskCreate((OS_TCB      *)&App_Task_Sen_Mec_TCB,                             // endereço da 
 471              		.loc 1 374 0
 472 0096 BB1D     		adds	r3, r7, #6
 473 0098 0893     		str	r3, [sp, #32]
 474 009a 0323     		movs	r3, #3
 475 009c 0793     		str	r3, [sp, #28]
 476 009e 0023     		movs	r3, #0
 477 00a0 0693     		str	r3, [sp, #24]
 478 00a2 0023     		movs	r3, #0
 479 00a4 0593     		str	r3, [sp, #20]
 480 00a6 0023     		movs	r3, #0
 481 00a8 0493     		str	r3, [sp, #16]
 482 00aa 8023     		movs	r3, #128
 483 00ac 0393     		str	r3, [sp, #12]
 484 00ae 0C23     		movs	r3, #12
 485 00b0 0293     		str	r3, [sp, #8]
 486 00b2 1F4B     		ldr	r3, .L11+48
 487 00b4 0193     		str	r3, [sp, #4]
 488 00b6 0223     		movs	r3, #2
 489 00b8 0093     		str	r3, [sp]
 490 00ba 0023     		movs	r3, #0
 491 00bc 1D4A     		ldr	r2, .L11+52
 492 00be 1E49     		ldr	r1, .L11+56
 493 00c0 1A48     		ldr	r0, .L11+44
 494 00c2 FFF7FEFF 		bl	OSTaskCreate
 375:..\app.c      ****                  (CPU_CHAR    *)"Sen_Temp_Task",                                    // string com n
 376:..\app.c      ****                  (OS_TASK_PTR  )App_Task_Sen_Temp,                                  // endereco da 
 377:..\app.c      ****                  (void        *)0,                                              // parametros passa
 378:..\app.c      ****                  (OS_PRIO      )APP_CFG_TASK_SEN_TEMP_PRIO,                         // prioridade d
 379:..\app.c      ****                  (CPU_STK     *)&App_Task_Sen_Temp_Stk[0],                          // endereco bas
 380:..\app.c      ****                  (CPU_STK_SIZE )APP_CFG_TASK_SEN_TEMP_STK_SIZE_LIMIT,               // endereco fin
 381:..\app.c      ****                  (CPU_STK_SIZE )APP_CFG_TASK_SEN_TEMP_STK_SIZE,                     // tamanho da p
 382:..\app.c      ****                  (OS_MSG_QTY   )0u,                                             // task incapaz de 
 383:..\app.c      ****                  (OS_TICK      )0u,                                             // clock tick defau
 384:..\app.c      ****                  (void        *)0,                                              // sem endereço de
 385:..\app.c      ****                  (OS_OPT       )(OS_OPT_TASK_STK_CHK | OS_OPT_TASK_STK_CLR),    // opcoes especific
 386:..\app.c      ****                  (OS_ERR      *)&os_err);                                       // ponteiro com err
 387:..\app.c      ****     
 388:..\app.c      ****     
 389:..\app.c      ****     // ======== task diz play  ========
 390:..\app.c      ****     OSTaskCreate((OS_TCB      *)&App_Task_Display_TCB,                             // endereço da 
 495              		.loc 1 390 0
 496 00c6 BB1D     		adds	r3, r7, #6
 497 00c8 0893     		str	r3, [sp, #32]
 498 00ca 0323     		movs	r3, #3
 499 00cc 0793     		str	r3, [sp, #28]
 500 00ce 0023     		movs	r3, #0
 501 00d0 0693     		str	r3, [sp, #24]
 502 00d2 0023     		movs	r3, #0
 503 00d4 0593     		str	r3, [sp, #20]
 504 00d6 0023     		movs	r3, #0
 505 00d8 0493     		str	r3, [sp, #16]
 506 00da 8023     		movs	r3, #128
 507 00dc 0393     		str	r3, [sp, #12]
 508 00de 0C23     		movs	r3, #12
 509 00e0 0293     		str	r3, [sp, #8]
ARM GAS  C:\Users\alex\AppData\Local\Temp\ccrLK32p.s 			page 18


 510 00e2 164B     		ldr	r3, .L11+60
 511 00e4 0193     		str	r3, [sp, #4]
 512 00e6 0223     		movs	r3, #2
 513 00e8 0093     		str	r3, [sp]
 514 00ea 0023     		movs	r3, #0
 515 00ec 144A     		ldr	r2, .L11+64
 516 00ee 1549     		ldr	r1, .L11+68
 517 00f0 1548     		ldr	r0, .L11+72
 518 00f2 FFF7FEFF 		bl	OSTaskCreate
 391:..\app.c      ****                  (CPU_CHAR    *)"Display_Task",                                    // string com no
 392:..\app.c      ****                  (OS_TASK_PTR  )App_TaskUserIF,                                  // endereco da fun
 393:..\app.c      ****                  (void        *)0,                                              // parametros passa
 394:..\app.c      ****                  (OS_PRIO      )APP_CFG_TASK_DISPLAY_PRIO,                         // prioridade de
 395:..\app.c      ****                  (CPU_STK     *)&App_Task_Display_Stk[0],                          // endereco base
 396:..\app.c      ****                  (CPU_STK_SIZE )APP_CFG_TASK_DISPLAY_STK_SIZE_LIMIT,               // endereco fina
 397:..\app.c      ****                  (CPU_STK_SIZE )APP_CFG_TASK_DISPLAY_STK_SIZE,                     // tamanho da pi
 398:..\app.c      ****                  (OS_MSG_QTY   )0u,                                             // task incapaz de 
 399:..\app.c      ****                  (OS_TICK      )0u,                                             // clock tick defau
 400:..\app.c      ****                  (void        *)0,                                              // sem endereço de
 401:..\app.c      ****                  (OS_OPT       )(OS_OPT_TASK_STK_CHK | OS_OPT_TASK_STK_CLR),    // opcoes especific
 402:..\app.c      ****                  (OS_ERR      *)&os_err);                                       // ponteiro com err
 403:..\app.c      ****     
 404:..\app.c      **** }
 519              		.loc 1 404 0
 520 00f6 00BF     		nop
 521 00f8 0837     		adds	r7, r7, #8
 522              		.cfi_def_cfa_offset 8
 523 00fa BD46     		mov	sp, r7
 524              		.cfi_def_cfa_register 13
 525              		@ sp needed
 526 00fc 80BD     		pop	{r7, pc}
 527              	.L12:
 528 00fe 00BF     		.align	2
 529              	.L11:
 530 0100 40060000 		.word	App_Task_Ihm_Stk
 531 0104 00000000 		.word	App_Task_Ihm
 532 0108 08000000 		.word	.LC1
 533 010c 80050000 		.word	App_Task_Ihm_TCB
 534 0110 00090000 		.word	App_Task_Emerg_Stk
 535 0114 00000000 		.word	App_Task_Emerg
 536 0118 14000000 		.word	.LC2
 537 011c 40080000 		.word	App_Task_Emerg_TCB
 538 0120 C00B0000 		.word	App_Task_Sen_Mec_Stk
 539 0124 00000000 		.word	App_Task_Sen_Mec
 540 0128 20000000 		.word	.LC3
 541 012c 000B0000 		.word	App_Task_Sen_Mec_TCB
 542 0130 800E0000 		.word	App_Task_Sen_Temp_Stk
 543 0134 00000000 		.word	App_Task_Sen_Temp
 544 0138 30000000 		.word	.LC4
 545 013c 40110000 		.word	App_Task_Display_Stk
 546 0140 00000000 		.word	App_TaskUserIF
 547 0144 40000000 		.word	.LC5
 548 0148 80100000 		.word	App_Task_Display_TCB
 549              		.cfi_endproc
 550              	.LFE69:
 551              		.size	App_TaskCreate, .-App_TaskCreate
 552              		.section	.text.App_Task_Ihm,"ax",%progbits
ARM GAS  C:\Users\alex\AppData\Local\Temp\ccrLK32p.s 			page 19


 553              		.align	2
 554              		.thumb
 555              		.thumb_func
 556              		.type	App_Task_Ihm, %function
 557              	App_Task_Ihm:
 558              	.LFB70:
 405:..\app.c      **** 
 406:..\app.c      **** static  void  App_Task_Ihm(void *p_arg)
 407:..\app.c      **** {
 559              		.loc 1 407 0
 560              		.cfi_startproc
 561              		@ args = 0, pretend = 0, frame = 8
 562              		@ frame_needed = 1, uses_anonymous_args = 0
 563 0000 80B5     		push	{r7, lr}
 564              		.cfi_def_cfa_offset 8
 565              		.cfi_offset 7, -8
 566              		.cfi_offset 14, -4
 567 0002 82B0     		sub	sp, sp, #8
 568              		.cfi_def_cfa_offset 16
 569 0004 00AF     		add	r7, sp, #0
 570              		.cfi_def_cfa_register 7
 571 0006 7860     		str	r0, [r7, #4]
 572              	.L17:
 408:..\app.c      ****     
 409:..\app.c      ****     OS_ERR          err;                                /* var com os erros do processo */
 410:..\app.c      ****              
 411:..\app.c      ****    (void)p_arg;
 412:..\app.c      **** 
 413:..\app.c      ****     while(DEF_ON){
 414:..\app.c      ****         
 415:..\app.c      ****                 
 416:..\app.c      ****         if((!bt_liga_Read()) && (!emerg) && (!rearme) && (!alerta)){   // botoeira liga pressionada
 573              		.loc 1 416 0
 574 0008 FFF7FEFF 		bl	bt_liga_Read
 575 000c 0346     		mov	r3, r0
 576 000e 002B     		cmp	r3, #0
 577 0010 0ED1     		bne	.L14
 578              		.loc 1 416 0 is_stmt 0 discriminator 1
 579 0012 164B     		ldr	r3, .L18
 580 0014 1B78     		ldrb	r3, [r3]	@ zero_extendqisi2
 581 0016 002B     		cmp	r3, #0
 582 0018 0AD1     		bne	.L14
 583              		.loc 1 416 0 discriminator 2
 584 001a 154B     		ldr	r3, .L18+4
 585 001c 1B78     		ldrb	r3, [r3]	@ zero_extendqisi2
 586 001e 002B     		cmp	r3, #0
 587 0020 06D1     		bne	.L14
 588              		.loc 1 416 0 discriminator 3
 589 0022 144B     		ldr	r3, .L18+8
 590 0024 1B78     		ldrb	r3, [r3]	@ zero_extendqisi2
 591 0026 002B     		cmp	r3, #0
 592 0028 02D1     		bne	.L14
 417:..\app.c      ****             statusMotor(LIGA);
 593              		.loc 1 417 0 is_stmt 1
 594 002a 0120     		movs	r0, #1
 595 002c FFF7FEFF 		bl	statusMotor
 596              	.L14:
ARM GAS  C:\Users\alex\AppData\Local\Temp\ccrLK32p.s 			page 20


 418:..\app.c      ****         }
 419:..\app.c      ****         
 420:..\app.c      ****         if(!bt_desl_Read()){                                            // botoeira desliga pressio
 597              		.loc 1 420 0
 598 0030 FFF7FEFF 		bl	bt_desl_Read
 599 0034 0346     		mov	r3, r0
 600 0036 002B     		cmp	r3, #0
 601 0038 02D1     		bne	.L15
 421:..\app.c      ****             statusMotor(DESL);
 602              		.loc 1 421 0
 603 003a 0020     		movs	r0, #0
 604 003c FFF7FEFF 		bl	statusMotor
 605              	.L15:
 422:..\app.c      ****         }
 423:..\app.c      ****                 
 424:..\app.c      ****         if(!bt_rearme_Read() && (!emerg) && (!rearme) && (!alerta)){    // remocao de rearme se nao
 606              		.loc 1 424 0
 607 0040 FFF7FEFF 		bl	bt_rearme_Read
 608 0044 0346     		mov	r3, r0
 609 0046 002B     		cmp	r3, #0
 610 0048 DED1     		bne	.L17
 611              		.loc 1 424 0 is_stmt 0 discriminator 1
 612 004a 084B     		ldr	r3, .L18
 613 004c 1B78     		ldrb	r3, [r3]	@ zero_extendqisi2
 614 004e 002B     		cmp	r3, #0
 615 0050 DAD1     		bne	.L17
 616              		.loc 1 424 0 discriminator 2
 617 0052 074B     		ldr	r3, .L18+4
 618 0054 1B78     		ldrb	r3, [r3]	@ zero_extendqisi2
 619 0056 002B     		cmp	r3, #0
 620 0058 D6D1     		bne	.L17
 621              		.loc 1 424 0 discriminator 3
 622 005a 064B     		ldr	r3, .L18+8
 623 005c 1B78     		ldrb	r3, [r3]	@ zero_extendqisi2
 624 005e 002B     		cmp	r3, #0
 625 0060 D2D1     		bne	.L17
 425:..\app.c      ****             statusRearme(DESL);
 626              		.loc 1 425 0 is_stmt 1
 627 0062 0020     		movs	r0, #0
 628 0064 FFF7FEFF 		bl	statusRearme
 426:..\app.c      ****         }
 427:..\app.c      ****                                
 428:..\app.c      ****     }
 629              		.loc 1 428 0
 630 0068 CEE7     		b	.L17
 631              	.L19:
 632 006a 00BF     		.align	2
 633              	.L18:
 634 006c 00000000 		.word	emerg
 635 0070 00000000 		.word	rearme
 636 0074 00000000 		.word	alerta
 637              		.cfi_endproc
 638              	.LFE70:
 639              		.size	App_Task_Ihm, .-App_Task_Ihm
 640              		.section	.text.App_Task_Emerg,"ax",%progbits
 641              		.align	2
 642              		.thumb
ARM GAS  C:\Users\alex\AppData\Local\Temp\ccrLK32p.s 			page 21


 643              		.thumb_func
 644              		.type	App_Task_Emerg, %function
 645              	App_Task_Emerg:
 646              	.LFB71:
 429:..\app.c      ****     
 430:..\app.c      **** }
 431:..\app.c      **** 
 432:..\app.c      **** static  void  App_Task_Emerg(void *p_arg)
 433:..\app.c      **** {
 647              		.loc 1 433 0
 648              		.cfi_startproc
 649              		@ args = 0, pretend = 0, frame = 8
 650              		@ frame_needed = 1, uses_anonymous_args = 0
 651 0000 80B5     		push	{r7, lr}
 652              		.cfi_def_cfa_offset 8
 653              		.cfi_offset 7, -8
 654              		.cfi_offset 14, -4
 655 0002 82B0     		sub	sp, sp, #8
 656              		.cfi_def_cfa_offset 16
 657 0004 00AF     		add	r7, sp, #0
 658              		.cfi_def_cfa_register 7
 659 0006 7860     		str	r0, [r7, #4]
 660              	.L22:
 434:..\app.c      ****     
 435:..\app.c      ****     OS_ERR          err;                                    /* var com os erros do processo */
 436:..\app.c      ****          
 437:..\app.c      ****    (void)p_arg;
 438:..\app.c      **** 
 439:..\app.c      **** 
 440:..\app.c      ****     while(DEF_ON){                                          // tratamento de ocorrencia de emergenc
 441:..\app.c      ****         
 442:..\app.c      ****         if(bt_emerg_Read()){                                // se o botao foi liberado libera a eme
 661              		.loc 1 442 0
 662 0008 FFF7FEFF 		bl	bt_emerg_Read
 663 000c 0346     		mov	r3, r0
 664 000e 002B     		cmp	r3, #0
 665 0010 FAD0     		beq	.L22
 443:..\app.c      ****             statusEmerg(DESL);
 666              		.loc 1 443 0
 667 0012 0020     		movs	r0, #0
 668 0014 FFF7FEFF 		bl	statusEmerg
 444:..\app.c      ****         }
 445:..\app.c      ****         
 446:..\app.c      ****     }
 669              		.loc 1 446 0
 670 0018 F6E7     		b	.L22
 671              		.cfi_endproc
 672              	.LFE71:
 673              		.size	App_Task_Emerg, .-App_Task_Emerg
 674 001a 00BF     		.section	.text.App_Task_Sen_Mec,"ax",%progbits
 675              		.align	2
 676              		.thumb
 677              		.thumb_func
 678              		.type	App_Task_Sen_Mec, %function
 679              	App_Task_Sen_Mec:
 680              	.LFB72:
 447:..\app.c      ****     
ARM GAS  C:\Users\alex\AppData\Local\Temp\ccrLK32p.s 			page 22


 448:..\app.c      **** }
 449:..\app.c      **** 
 450:..\app.c      **** static  void  App_Task_Sen_Mec(void *p_arg)
 451:..\app.c      **** {
 681              		.loc 1 451 0
 682              		.cfi_startproc
 683              		@ args = 0, pretend = 0, frame = 8
 684              		@ frame_needed = 1, uses_anonymous_args = 0
 685 0000 80B5     		push	{r7, lr}
 686              		.cfi_def_cfa_offset 8
 687              		.cfi_offset 7, -8
 688              		.cfi_offset 14, -4
 689 0002 82B0     		sub	sp, sp, #8
 690              		.cfi_def_cfa_offset 16
 691 0004 00AF     		add	r7, sp, #0
 692              		.cfi_def_cfa_register 7
 693 0006 7860     		str	r0, [r7, #4]
 694              	.L26:
 452:..\app.c      ****     
 453:..\app.c      ****       
 454:..\app.c      ****     OS_ERR          err;                                    /* var com os erros do processo */
 455:..\app.c      ****     
 456:..\app.c      ****    (void)p_arg;
 457:..\app.c      **** 
 458:..\app.c      ****     while(DEF_ON){
 459:..\app.c      ****             
 460:..\app.c      ****                                                             // tratamento de ocorrencia de alerta
 461:..\app.c      ****         
 462:..\app.c      ****         if(alerta){                                         // se ocorreu um alerta
 695              		.loc 1 462 0
 696 0008 084B     		ldr	r3, .L27
 697 000a 1B78     		ldrb	r3, [r3]	@ zero_extendqisi2
 698 000c 002B     		cmp	r3, #0
 699 000e 09D0     		beq	.L24
 463:..\app.c      ****             si_alerta_Write(1);                             // ativa sinaleira de emerg.
 700              		.loc 1 463 0
 701 0010 0120     		movs	r0, #1
 702 0012 FFF7FEFF 		bl	si_alerta_Write
 464:..\app.c      ****             ct_motor_Write(0);                              // desliga contator do motor
 703              		.loc 1 464 0
 704 0016 0020     		movs	r0, #0
 705 0018 FFF7FEFF 		bl	ct_motor_Write
 465:..\app.c      ****             rearme = 1;                                     // seta flag indicando necessidade de r
 706              		.loc 1 465 0
 707 001c 044B     		ldr	r3, .L27+4
 708 001e 0122     		movs	r2, #1
 709 0020 1A70     		strb	r2, [r3]
 710 0022 F1E7     		b	.L26
 711              	.L24:
 466:..\app.c      ****                     
 467:..\app.c      ****         }
 468:..\app.c      ****         else{
 469:..\app.c      ****             si_alerta_Write(0);                             // ativa sinaleira de alerta
 712              		.loc 1 469 0
 713 0024 0020     		movs	r0, #0
 714 0026 FFF7FEFF 		bl	si_alerta_Write
 470:..\app.c      ****             
ARM GAS  C:\Users\alex\AppData\Local\Temp\ccrLK32p.s 			page 23


 471:..\app.c      ****         }
 472:..\app.c      ****     
 473:..\app.c      ****     }
 715              		.loc 1 473 0
 716 002a EDE7     		b	.L26
 717              	.L28:
 718              		.align	2
 719              	.L27:
 720 002c 00000000 		.word	alerta
 721 0030 00000000 		.word	rearme
 722              		.cfi_endproc
 723              	.LFE72:
 724              		.size	App_Task_Sen_Mec, .-App_Task_Sen_Mec
 725              		.global	__aeabi_i2d
 726              		.global	__aeabi_ddiv
 727              		.global	__aeabi_dsub
 728              		.global	__aeabi_d2f
 729              		.global	__aeabi_fmul
 730              		.global	__aeabi_f2d
 731              		.global	__aeabi_dadd
 732              		.global	__aeabi_i2f
 733              		.global	__aeabi_fcmplt
 734              		.section	.text.App_Task_Sen_Temp,"ax",%progbits
 735              		.align	2
 736              		.thumb
 737              		.thumb_func
 738              		.type	App_Task_Sen_Temp, %function
 739              	App_Task_Sen_Temp:
 740              	.LFB73:
 474:..\app.c      **** }
 475:..\app.c      **** 
 476:..\app.c      **** static  void  App_Task_Sen_Temp(void *p_arg)
 477:..\app.c      **** {
 741              		.loc 1 477 0
 742              		.cfi_startproc
 743              		@ args = 0, pretend = 0, frame = 32
 744              		@ frame_needed = 1, uses_anonymous_args = 0
 745 0000 90B5     		push	{r4, r7, lr}
 746              		.cfi_def_cfa_offset 12
 747              		.cfi_offset 4, -12
 748              		.cfi_offset 7, -8
 749              		.cfi_offset 14, -4
 750 0002 89B0     		sub	sp, sp, #36
 751              		.cfi_def_cfa_offset 48
 752 0004 00AF     		add	r7, sp, #0
 753              		.cfi_def_cfa_register 7
 754 0006 7860     		str	r0, [r7, #4]
 478:..\app.c      ****      
 479:..\app.c      ****     OS_ERR          err;                                    // var com os erros do processo 
 480:..\app.c      ****     CPU_INT08U      tAltaMotor  = TEMP_MOTOR_ALERTA;        // variavel referencia para teste de lo
 755              		.loc 1 480 0
 756 0008 2823     		movs	r3, #40
 757 000a FB77     		strb	r3, [r7, #31]
 481:..\app.c      ****     CPU_INT08U      tAltaQuadro = TEMP_QUADRO_ALERTA;       // variavel referencia para teste de lo
 758              		.loc 1 481 0
 759 000c 2823     		movs	r3, #40
 760 000e BB77     		strb	r3, [r7, #30]
ARM GAS  C:\Users\alex\AppData\Local\Temp\ccrLK32p.s 			page 24


 482:..\app.c      ****     CPU_INT16U      temp1 = 0,                              // var aux com bits da temp. do adc
 761              		.loc 1 482 0
 762 0010 0023     		movs	r3, #0
 763 0012 BB83     		strh	r3, [r7, #28]	@ movhi
 483:..\app.c      ****                     temp2 = 0;                       
 764              		.loc 1 483 0
 765 0014 0023     		movs	r3, #0
 766 0016 7B83     		strh	r3, [r7, #26]	@ movhi
 484:..\app.c      ****     float           R1 = 0, R2 = 0;                         // resistencia em bits 
 767              		.loc 1 484 0
 768 0018 4FF00003 		mov	r3, #0
 769 001c 7B61     		str	r3, [r7, #20]	@ float
 770 001e 4FF00003 		mov	r3, #0
 771 0022 3B61     		str	r3, [r7, #16]	@ float
 485:..\app.c      ****     
 486:..\app.c      ****     
 487:..\app.c      ****    (void)p_arg;
 488:..\app.c      **** 
 489:..\app.c      ****     //Math_Init();
 490:..\app.c      ****     ADC_SAR_Seq_Start();
 772              		.loc 1 490 0
 773 0024 FFF7FEFF 		bl	ADC_SAR_Seq_Start
 491:..\app.c      ****     
 492:..\app.c      ****     // StartConvert() must be called to initiate 
 493:..\app.c      ****     //   conversion in Free Running Mode
 494:..\app.c      ****     
 495:..\app.c      ****     ADC_SAR_Seq_StartConvert();
 774              		.loc 1 495 0
 775 0028 FFF7FEFF 		bl	ADC_SAR_Seq_StartConvert
 776              	.L34:
 496:..\app.c      **** 
 497:..\app.c      ****     while(DEF_ON){
 498:..\app.c      ****         
 499:..\app.c      ****         ADC_SAR_Seq_IsEndConversion(ADC_SAR_Seq_WAIT_FOR_RESULT);
 777              		.loc 1 499 0
 778 002c 0020     		movs	r0, #0
 779 002e FFF7FEFF 		bl	ADC_SAR_Seq_IsEndConversion
 500:..\app.c      ****         
 501:..\app.c      ****         temp1 = ADC_SAR_Seq_GetResult16(0u);
 780              		.loc 1 501 0
 781 0032 0020     		movs	r0, #0
 782 0034 FFF7FEFF 		bl	ADC_SAR_Seq_GetResult16
 783 0038 0346     		mov	r3, r0
 784 003a BB83     		strh	r3, [r7, #28]	@ movhi
 502:..\app.c      ****         temp2 = ADC_SAR_Seq_GetResult16(1u);
 785              		.loc 1 502 0
 786 003c 0120     		movs	r0, #1
 787 003e FFF7FEFF 		bl	ADC_SAR_Seq_GetResult16
 788 0042 0346     		mov	r3, r0
 789 0044 7B83     		strh	r3, [r7, #26]	@ movhi
 503:..\app.c      ****         
 504:..\app.c      ****         R1 = (4095.0/temp1)-1.0; // resistencia lida
 790              		.loc 1 504 0
 791 0046 BB8B     		ldrh	r3, [r7, #28]
 792 0048 1846     		mov	r0, r3
 793 004a FFF7FEFF 		bl	__aeabi_i2d
 794 004e 0346     		mov	r3, r0
ARM GAS  C:\Users\alex\AppData\Local\Temp\ccrLK32p.s 			page 25


 795 0050 0C46     		mov	r4, r1
 796 0052 1A46     		mov	r2, r3
 797 0054 2346     		mov	r3, r4
 798 0056 70A1     		adr	r1, .L35
 799 0058 D1E90001 		ldrd	r0, [r1]
 800 005c FFF7FEFF 		bl	__aeabi_ddiv
 801 0060 0346     		mov	r3, r0
 802 0062 0C46     		mov	r4, r1
 803 0064 1846     		mov	r0, r3
 804 0066 2146     		mov	r1, r4
 805 0068 4FF00002 		mov	r2, #0
 806 006c 744B     		ldr	r3, .L35+40
 807 006e FFF7FEFF 		bl	__aeabi_dsub
 808 0072 0346     		mov	r3, r0
 809 0074 0C46     		mov	r4, r1
 810 0076 1846     		mov	r0, r3
 811 0078 2146     		mov	r1, r4
 812 007a FFF7FEFF 		bl	__aeabi_d2f
 813 007e 0346     		mov	r3, r0
 814 0080 7B61     		str	r3, [r7, #20]	@ float
 505:..\app.c      ****         R2 = (4095.0/temp2)-1.0; // resistencia lida
 815              		.loc 1 505 0
 816 0082 7B8B     		ldrh	r3, [r7, #26]
 817 0084 1846     		mov	r0, r3
 818 0086 FFF7FEFF 		bl	__aeabi_i2d
 819 008a 0346     		mov	r3, r0
 820 008c 0C46     		mov	r4, r1
 821 008e 1A46     		mov	r2, r3
 822 0090 2346     		mov	r3, r4
 823 0092 61A1     		adr	r1, .L35
 824 0094 D1E90001 		ldrd	r0, [r1]
 825 0098 FFF7FEFF 		bl	__aeabi_ddiv
 826 009c 0346     		mov	r3, r0
 827 009e 0C46     		mov	r4, r1
 828 00a0 1846     		mov	r0, r3
 829 00a2 2146     		mov	r1, r4
 830 00a4 4FF00002 		mov	r2, #0
 831 00a8 654B     		ldr	r3, .L35+40
 832 00aa FFF7FEFF 		bl	__aeabi_dsub
 833 00ae 0346     		mov	r3, r0
 834 00b0 0C46     		mov	r4, r1
 835 00b2 1846     		mov	r0, r3
 836 00b4 2146     		mov	r1, r4
 837 00b6 FFF7FEFF 		bl	__aeabi_d2f
 838 00ba 0346     		mov	r3, r0
 839 00bc 3B61     		str	r3, [r7, #16]	@ float
 506:..\app.c      ****         
 507:..\app.c      ****         R1 = NTC_R0*R1;
 840              		.loc 1 507 0
 841 00be 6149     		ldr	r1, .L35+44
 842 00c0 7869     		ldr	r0, [r7, #20]	@ float
 843 00c2 FFF7FEFF 		bl	__aeabi_fmul
 844 00c6 0346     		mov	r3, r0
 845 00c8 7B61     		str	r3, [r7, #20]	@ float
 508:..\app.c      ****         R2 = NTC_R0*R2;
 846              		.loc 1 508 0
 847 00ca 5E49     		ldr	r1, .L35+44
ARM GAS  C:\Users\alex\AppData\Local\Temp\ccrLK32p.s 			page 26


 848 00cc 3869     		ldr	r0, [r7, #16]	@ float
 849 00ce FFF7FEFF 		bl	__aeabi_fmul
 850 00d2 0346     		mov	r3, r0
 851 00d4 3B61     		str	r3, [r7, #16]	@ float
 509:..\app.c      ****         
 510:..\app.c      ****         tempM = 1.0/(log(R1/NTC_R0)/NTC_B+1/298.15) -273.15; // convert to temperature via datashee
 852              		.loc 1 510 0
 853 00d6 7869     		ldr	r0, [r7, #20]	@ float
 854 00d8 FFF7FEFF 		bl	__aeabi_f2d
 855 00dc 50A3     		adr	r3, .L35+8
 856 00de D3E90023 		ldrd	r2, [r3]
 857 00e2 FFF7FEFF 		bl	__aeabi_ddiv
 858 00e6 0346     		mov	r3, r0
 859 00e8 0C46     		mov	r4, r1
 860 00ea 1846     		mov	r0, r3
 861 00ec 2146     		mov	r1, r4
 862 00ee FFF7FEFF 		bl	log
 863 00f2 4DA3     		adr	r3, .L35+16
 864 00f4 D3E90023 		ldrd	r2, [r3]
 865 00f8 FFF7FEFF 		bl	__aeabi_ddiv
 866 00fc 0346     		mov	r3, r0
 867 00fe 0C46     		mov	r4, r1
 868 0100 1846     		mov	r0, r3
 869 0102 2146     		mov	r1, r4
 870 0104 4AA3     		adr	r3, .L35+24
 871 0106 D3E90023 		ldrd	r2, [r3]
 872 010a FFF7FEFF 		bl	__aeabi_dadd
 873 010e 0346     		mov	r3, r0
 874 0110 0C46     		mov	r4, r1
 875 0112 1A46     		mov	r2, r3
 876 0114 2346     		mov	r3, r4
 877 0116 4FF00000 		mov	r0, #0
 878 011a 4949     		ldr	r1, .L35+40
 879 011c FFF7FEFF 		bl	__aeabi_ddiv
 880 0120 0346     		mov	r3, r0
 881 0122 0C46     		mov	r4, r1
 882 0124 1846     		mov	r0, r3
 883 0126 2146     		mov	r1, r4
 884 0128 43A3     		adr	r3, .L35+32
 885 012a D3E90023 		ldrd	r2, [r3]
 886 012e FFF7FEFF 		bl	__aeabi_dsub
 887 0132 0346     		mov	r3, r0
 888 0134 0C46     		mov	r4, r1
 889 0136 1846     		mov	r0, r3
 890 0138 2146     		mov	r1, r4
 891 013a FFF7FEFF 		bl	__aeabi_d2f
 892 013e 0246     		mov	r2, r0
 893 0140 414B     		ldr	r3, .L35+48
 894 0142 1A60     		str	r2, [r3]	@ float
 511:..\app.c      ****         tempQ = 1.0/(log(R2/NTC_R0)/NTC_B+1/298.15) -273.15; // convert to temperature via datashee
 895              		.loc 1 511 0
 896 0144 3869     		ldr	r0, [r7, #16]	@ float
 897 0146 FFF7FEFF 		bl	__aeabi_f2d
 898 014a 35A3     		adr	r3, .L35+8
 899 014c D3E90023 		ldrd	r2, [r3]
 900 0150 FFF7FEFF 		bl	__aeabi_ddiv
 901 0154 0346     		mov	r3, r0
ARM GAS  C:\Users\alex\AppData\Local\Temp\ccrLK32p.s 			page 27


 902 0156 0C46     		mov	r4, r1
 903 0158 1846     		mov	r0, r3
 904 015a 2146     		mov	r1, r4
 905 015c FFF7FEFF 		bl	log
 906 0160 31A3     		adr	r3, .L35+16
 907 0162 D3E90023 		ldrd	r2, [r3]
 908 0166 FFF7FEFF 		bl	__aeabi_ddiv
 909 016a 0346     		mov	r3, r0
 910 016c 0C46     		mov	r4, r1
 911 016e 1846     		mov	r0, r3
 912 0170 2146     		mov	r1, r4
 913 0172 2FA3     		adr	r3, .L35+24
 914 0174 D3E90023 		ldrd	r2, [r3]
 915 0178 FFF7FEFF 		bl	__aeabi_dadd
 916 017c 0346     		mov	r3, r0
 917 017e 0C46     		mov	r4, r1
 918 0180 1A46     		mov	r2, r3
 919 0182 2346     		mov	r3, r4
 920 0184 4FF00000 		mov	r0, #0
 921 0188 2D49     		ldr	r1, .L35+40
 922 018a FFF7FEFF 		bl	__aeabi_ddiv
 923 018e 0346     		mov	r3, r0
 924 0190 0C46     		mov	r4, r1
 925 0192 1846     		mov	r0, r3
 926 0194 2146     		mov	r1, r4
 927 0196 28A3     		adr	r3, .L35+32
 928 0198 D3E90023 		ldrd	r2, [r3]
 929 019c FFF7FEFF 		bl	__aeabi_dsub
 930 01a0 0346     		mov	r3, r0
 931 01a2 0C46     		mov	r4, r1
 932 01a4 1846     		mov	r0, r3
 933 01a6 2146     		mov	r1, r4
 934 01a8 FFF7FEFF 		bl	__aeabi_d2f
 935 01ac 0246     		mov	r2, r0
 936 01ae 274B     		ldr	r3, .L35+52
 937 01b0 1A60     		str	r2, [r3]	@ float
 512:..\app.c      ****         
 513:..\app.c      ****         OSTimeDly(100, OS_OPT_TIME_DLY, &err);
 938              		.loc 1 513 0
 939 01b2 07F10E03 		add	r3, r7, #14
 940 01b6 1A46     		mov	r2, r3
 941 01b8 0021     		movs	r1, #0
 942 01ba 6420     		movs	r0, #100
 943 01bc FFF7FEFF 		bl	OSTimeDly
 514:..\app.c      ****         
 515:..\app.c      ****         if(bt_test_Read()){
 944              		.loc 1 515 0
 945 01c0 FFF7FEFF 		bl	bt_test_Read
 946 01c4 0346     		mov	r3, r0
 947 01c6 002B     		cmp	r3, #0
 948 01c8 0BD0     		beq	.L30
 516:..\app.c      ****             OSTimeDly(100, OS_OPT_TIME_DLY, &err);          // debounce botao de teste
 949              		.loc 1 516 0
 950 01ca 07F10E03 		add	r3, r7, #14
 951 01ce 1A46     		mov	r2, r3
 952 01d0 0021     		movs	r1, #0
 953 01d2 6420     		movs	r0, #100
ARM GAS  C:\Users\alex\AppData\Local\Temp\ccrLK32p.s 			page 28


 954 01d4 FFF7FEFF 		bl	OSTimeDly
 517:..\app.c      ****             tAltaMotor  = 10;                               // variavel referencia para teste de lo
 955              		.loc 1 517 0
 956 01d8 0A23     		movs	r3, #10
 957 01da FB77     		strb	r3, [r7, #31]
 518:..\app.c      ****             tAltaQuadro = 10;     
 958              		.loc 1 518 0
 959 01dc 0A23     		movs	r3, #10
 960 01de BB77     		strb	r3, [r7, #30]
 961 01e0 03E0     		b	.L31
 962              	.L30:
 519:..\app.c      ****                         
 520:..\app.c      ****         }
 521:..\app.c      ****         else{
 522:..\app.c      ****             tAltaMotor  = TEMP_MOTOR_ALERTA;                // variavel referencia para teste de lo
 963              		.loc 1 522 0
 964 01e2 2823     		movs	r3, #40
 965 01e4 FB77     		strb	r3, [r7, #31]
 523:..\app.c      ****             tAltaQuadro = TEMP_QUADRO_ALERTA;     
 966              		.loc 1 523 0
 967 01e6 2823     		movs	r3, #40
 968 01e8 BB77     		strb	r3, [r7, #30]
 969              	.L31:
 524:..\app.c      ****             
 525:..\app.c      ****         }
 526:..\app.c      ****             
 527:..\app.c      ****         
 528:..\app.c      ****         if(tempM > tAltaMotor || tAltaQuadro){
 970              		.loc 1 528 0
 971 01ea FB7F     		ldrb	r3, [r7, #31]	@ zero_extendqisi2
 972 01ec 1846     		mov	r0, r3
 973 01ee FFF7FEFF 		bl	__aeabi_i2f
 974 01f2 0246     		mov	r2, r0
 975 01f4 144B     		ldr	r3, .L35+48
 976 01f6 1B68     		ldr	r3, [r3]	@ float
 977 01f8 1946     		mov	r1, r3
 978 01fa 1046     		mov	r0, r2
 979 01fc FFF7FEFF 		bl	__aeabi_fcmplt
 980 0200 0346     		mov	r3, r0
 981 0202 002B     		cmp	r3, #0
 982 0204 03D1     		bne	.L32
 983              		.loc 1 528 0 is_stmt 0 discriminator 1
 984 0206 BB7F     		ldrb	r3, [r7, #30]	@ zero_extendqisi2
 985 0208 002B     		cmp	r3, #0
 986 020a 3FF40FAF 		beq	.L34
 987              	.L32:
 529:..\app.c      ****             statusAlerta(LIGA);
 988              		.loc 1 529 0 is_stmt 1
 989 020e 0120     		movs	r0, #1
 990 0210 FFF7FEFF 		bl	statusAlerta
 530:..\app.c      ****             
 531:..\app.c      ****         }
 532:..\app.c      ****                 
 533:..\app.c      ****         // fonte: https://wiki.seeedstudio.com/Grove-Temperature_Sensor_V1.2/
 534:..\app.c      ****         // log: adicionando "Libm.a" no projeto https://community.infineon.com/t5/PSoC-Creator-Desi
 535:..\app.c      ****     
 536:..\app.c      ****     }
ARM GAS  C:\Users\alex\AppData\Local\Temp\ccrLK32p.s 			page 29


 991              		.loc 1 536 0
 992 0214 0AE7     		b	.L34
 993              	.L36:
 994 0216 00BF     		.align	3
 995              	.L35:
 996 0218 00000000 		.word	0
 997 021c 00FEAF40 		.word	1085275648
 998 0220 00000000 		.word	0
 999 0224 006AF840 		.word	1090021888
 1000 0228 00000000 		.word	0
 1001 022c 00B3B040 		.word	1085321984
 1002 0230 83DBB5DC 		.word	-592061565
 1003 0234 E1796B3F 		.word	1064008161
 1004 0238 66666666 		.word	1717986918
 1005 023c 66127140 		.word	1081152102
 1006 0240 0000F03F 		.word	1072693248
 1007 0244 0050C347 		.word	1203982336
 1008 0248 00000000 		.word	tempM
 1009 024c 00000000 		.word	tempQ
 1010              		.cfi_endproc
 1011              	.LFE73:
 1012              		.size	App_Task_Sen_Temp, .-App_Task_Sen_Temp
 1013              		.section	.rodata
 1014 004d 000000   		.align	2
 1015              	.LC6:
 1016 0050 20202020 		.ascii	"                \000"
 1016      20202020 
 1016      20202020 
 1016      20202020 
 1016      00
 1017 0061 000000   		.align	2
 1018              	.LC7:
 1019 0064 54454D50 		.ascii	"TEMP QUADRO     \000"
 1019      20515541 
 1019      44524F20 
 1019      20202020 
 1019      00
 1020 0075 000000   		.align	2
 1021              	.LC8:
 1022 0078 252E3266 		.ascii	"%.2f\000"
 1022      00
 1023 007d 000000   		.align	2
 1024              	.LC9:
 1025 0080 54454D50 		.ascii	"TEMP MOTOR      \000"
 1025      204D4F54 
 1025      4F522020 
 1025      20202020 
 1025      00
 1026              		.section	.text.App_Task_Display,"ax",%progbits
 1027              		.align	2
 1028              		.thumb
 1029              		.thumb_func
 1030              		.type	App_Task_Display, %function
 1031              	App_Task_Display:
 1032              	.LFB74:
 537:..\app.c      ****      
 538:..\app.c      **** }
ARM GAS  C:\Users\alex\AppData\Local\Temp\ccrLK32p.s 			page 30


 539:..\app.c      **** 
 540:..\app.c      **** static  void  App_Task_Display (void *p_arg)
 541:..\app.c      **** {
 1033              		.loc 1 541 0
 1034              		.cfi_startproc
 1035              		@ args = 0, pretend = 0, frame = 32
 1036              		@ frame_needed = 1, uses_anonymous_args = 0
 1037 0000 90B5     		push	{r4, r7, lr}
 1038              		.cfi_def_cfa_offset 12
 1039              		.cfi_offset 4, -12
 1040              		.cfi_offset 7, -8
 1041              		.cfi_offset 14, -4
 1042 0002 8BB0     		sub	sp, sp, #44
 1043              		.cfi_def_cfa_offset 56
 1044 0004 02AF     		add	r7, sp, #8
 1045              		.cfi_def_cfa 7, 48
 1046 0006 7860     		str	r0, [r7, #4]
 542:..\app.c      ****     CPU_INT32U   val;
 543:..\app.c      ****     OS_ERR       os_err;
 544:..\app.c      ****     CPU_CHAR     line_str[17];
 545:..\app.c      **** 
 546:..\app.c      **** 
 547:..\app.c      ****     (void)p_arg;
 548:..\app.c      ****    
 549:..\app.c      ****     LCD_Disp_Start();                                       /* Initialize the LCD screen.          
 1047              		.loc 1 549 0
 1048 0008 FFF7FEFF 		bl	LCD_Disp_Start
 1049              	.L38:
 550:..\app.c      ****    
 551:..\app.c      ****     while(DEF_ON){
 552:..\app.c      ****         
 553:..\app.c      ****         LCD_Disp_Position(0u, 0u);                          // limpa o display
 1050              		.loc 1 553 0 discriminator 1
 1051 000c 0021     		movs	r1, #0
 1052 000e 0020     		movs	r0, #0
 1053 0010 FFF7FEFF 		bl	LCD_Disp_Position
 554:..\app.c      ****         LCD_Disp_PrintString((char *)"                ");
 1054              		.loc 1 554 0 discriminator 1
 1055 0014 2448     		ldr	r0, .L39
 1056 0016 FFF7FEFF 		bl	LCD_Disp_PrintString
 555:..\app.c      ****         LCD_Disp_Position(1u, 0u);
 1057              		.loc 1 555 0 discriminator 1
 1058 001a 0021     		movs	r1, #0
 1059 001c 0120     		movs	r0, #1
 1060 001e FFF7FEFF 		bl	LCD_Disp_Position
 556:..\app.c      ****         LCD_Disp_PrintString((char *)"                ");
 1061              		.loc 1 556 0 discriminator 1
 1062 0022 2148     		ldr	r0, .L39
 1063 0024 FFF7FEFF 		bl	LCD_Disp_PrintString
 557:..\app.c      ****         
 558:..\app.c      ****                                                             // imprime temperatura do quadro       
 559:..\app.c      ****         LCD_Disp_Position(0u, 0u); 
 1064              		.loc 1 559 0 discriminator 1
 1065 0028 0021     		movs	r1, #0
 1066 002a 0020     		movs	r0, #0
 1067 002c FFF7FEFF 		bl	LCD_Disp_Position
 560:..\app.c      ****         LCD_Disp_PrintString((char *)"TEMP QUADRO     ");
ARM GAS  C:\Users\alex\AppData\Local\Temp\ccrLK32p.s 			page 31


 1068              		.loc 1 560 0 discriminator 1
 1069 0030 1E48     		ldr	r0, .L39+4
 1070 0032 FFF7FEFF 		bl	LCD_Disp_PrintString
 561:..\app.c      ****         sprintf((char *)line_str,"%.2f",tempQ);
 1071              		.loc 1 561 0 discriminator 1
 1072 0036 1E4B     		ldr	r3, .L39+8
 1073 0038 1B68     		ldr	r3, [r3]	@ float
 1074 003a 1846     		mov	r0, r3
 1075 003c FFF7FEFF 		bl	__aeabi_f2d
 1076 0040 0346     		mov	r3, r0
 1077 0042 0C46     		mov	r4, r1
 1078 0044 07F10C00 		add	r0, r7, #12
 1079 0048 1A46     		mov	r2, r3
 1080 004a 2346     		mov	r3, r4
 1081 004c 1949     		ldr	r1, .L39+12
 1082 004e FFF7FEFF 		bl	sprintf
 562:..\app.c      ****         LCD_Disp_PrintString((char *)line_str);
 1083              		.loc 1 562 0 discriminator 1
 1084 0052 07F10C03 		add	r3, r7, #12
 1085 0056 1846     		mov	r0, r3
 1086 0058 FFF7FEFF 		bl	LCD_Disp_PrintString
 563:..\app.c      ****         
 564:..\app.c      ****                                                             // imprime temperatura do motor
 565:..\app.c      ****         LCD_Disp_Position(1u, 0u);
 1087              		.loc 1 565 0 discriminator 1
 1088 005c 0021     		movs	r1, #0
 1089 005e 0120     		movs	r0, #1
 1090 0060 FFF7FEFF 		bl	LCD_Disp_Position
 566:..\app.c      ****         LCD_Disp_PrintString((char *)"TEMP MOTOR      ");
 1091              		.loc 1 566 0 discriminator 1
 1092 0064 1448     		ldr	r0, .L39+16
 1093 0066 FFF7FEFF 		bl	LCD_Disp_PrintString
 567:..\app.c      ****         sprintf((char *)line_str,"%.2f",tempM);
 1094              		.loc 1 567 0 discriminator 1
 1095 006a 144B     		ldr	r3, .L39+20
 1096 006c 1B68     		ldr	r3, [r3]	@ float
 1097 006e 1846     		mov	r0, r3
 1098 0070 FFF7FEFF 		bl	__aeabi_f2d
 1099 0074 0346     		mov	r3, r0
 1100 0076 0C46     		mov	r4, r1
 1101 0078 07F10C00 		add	r0, r7, #12
 1102 007c 1A46     		mov	r2, r3
 1103 007e 2346     		mov	r3, r4
 1104 0080 0C49     		ldr	r1, .L39+12
 1105 0082 FFF7FEFF 		bl	sprintf
 568:..\app.c      ****         LCD_Disp_PrintString((char *)line_str);
 1106              		.loc 1 568 0 discriminator 1
 1107 0086 07F10C03 		add	r3, r7, #12
 1108 008a 1846     		mov	r0, r3
 1109 008c FFF7FEFF 		bl	LCD_Disp_PrintString
 569:..\app.c      ****         
 570:..\app.c      ****         OSTimeDlyHMSM(0, 0, 0, 100, 
 1110              		.loc 1 570 0 discriminator 1
 1111 0090 07F11E03 		add	r3, r7, #30
 1112 0094 0193     		str	r3, [sp, #4]
 1113 0096 0023     		movs	r3, #0
 1114 0098 0093     		str	r3, [sp]
ARM GAS  C:\Users\alex\AppData\Local\Temp\ccrLK32p.s 			page 32


 1115 009a 6423     		movs	r3, #100
 1116 009c 0022     		movs	r2, #0
 1117 009e 0021     		movs	r1, #0
 1118 00a0 0020     		movs	r0, #0
 1119 00a2 FFF7FEFF 		bl	OSTimeDlyHMSM
 571:..\app.c      ****                       OS_OPT_TIME_HMSM_STRICT, 
 572:..\app.c      ****                       &os_err);
 573:..\app.c      **** 
 574:..\app.c      ****     }
 1120              		.loc 1 574 0 discriminator 1
 1121 00a6 B1E7     		b	.L38
 1122              	.L40:
 1123              		.align	2
 1124              	.L39:
 1125 00a8 50000000 		.word	.LC6
 1126 00ac 64000000 		.word	.LC7
 1127 00b0 00000000 		.word	tempQ
 1128 00b4 78000000 		.word	.LC8
 1129 00b8 80000000 		.word	.LC9
 1130 00bc 00000000 		.word	tempM
 1131              		.cfi_endproc
 1132              	.LFE74:
 1133              		.size	App_Task_Display, .-App_Task_Display
 1134              		.section	.text.App_ObjCreate,"ax",%progbits
 1135              		.align	2
 1136              		.thumb
 1137              		.thumb_func
 1138              		.type	App_ObjCreate, %function
 1139              	App_ObjCreate:
 1140              	.LFB75:
 575:..\app.c      **** }
 576:..\app.c      **** 
 577:..\app.c      **** 
 578:..\app.c      **** /*
 579:..\app.c      **** ***************************************************************************************************
 580:..\app.c      **** *                                          App_ObjCreate()
 581:..\app.c      **** *
 582:..\app.c      **** * Description : Create application kernel objects tasks.
 583:..\app.c      **** *
 584:..\app.c      **** * Argument(s) : none
 585:..\app.c      **** *
 586:..\app.c      **** * Return(s)   : none
 587:..\app.c      **** *
 588:..\app.c      **** * Caller(s)   : AppTaskStart()
 589:..\app.c      **** *
 590:..\app.c      **** * Note(s)     : none.
 591:..\app.c      **** ***************************************************************************************************
 592:..\app.c      **** */
 593:..\app.c      **** 
 594:..\app.c      **** static  void  App_ObjCreate (void)
 595:..\app.c      **** {
 1141              		.loc 1 595 0
 1142              		.cfi_startproc
 1143              		@ args = 0, pretend = 0, frame = 0
 1144              		@ frame_needed = 1, uses_anonymous_args = 0
 1145              		@ link register save eliminated.
 1146 0000 80B4     		push	{r7}
ARM GAS  C:\Users\alex\AppData\Local\Temp\ccrLK32p.s 			page 33


 1147              		.cfi_def_cfa_offset 4
 1148              		.cfi_offset 7, -4
 1149 0002 00AF     		add	r7, sp, #0
 1150              		.cfi_def_cfa_register 7
 596:..\app.c      **** 
 597:..\app.c      **** }
 1151              		.loc 1 597 0
 1152 0004 00BF     		nop
 1153 0006 BD46     		mov	sp, r7
 1154              		.cfi_def_cfa_register 13
 1155              		@ sp needed
 1156 0008 80BC     		pop	{r7}
 1157              		.cfi_restore 7
 1158              		.cfi_def_cfa_offset 0
 1159 000a 7047     		bx	lr
 1160              		.cfi_endproc
 1161              	.LFE75:
 1162              		.size	App_ObjCreate, .-App_ObjCreate
 1163              		.section	.rodata
 1164 0091 000000   		.align	2
 1165              	.LC10:
 1166 0094 4D696372 		.ascii	"Micrium uC/OS-III\000"
 1166      69756D20 
 1166      75432F4F 
 1166      532D4949 
 1166      4900
 1167 00a6 0000     		.align	2
 1168              	.LC11:
 1169 00a8 75432F4F 		.ascii	"uC/OS-III Vx.yyy\000"
 1169      532D4949 
 1169      49205678 
 1169      2E797979 
 1169      00
 1170 00b9 000000   		.align	2
 1171              	.LC12:
 1172 00bc 5469636B 		.ascii	"TickRate:   xxxx\000"
 1172      52617465 
 1172      3A202020 
 1172      78787878 
 1172      00
 1173 00cd 000000   		.align	2
 1174              	.LC13:
 1175 00d0 43505520 		.ascii	"CPU Usage:xx %  \000"
 1175      55736167 
 1175      653A7878 
 1175      20252020 
 1175      00
 1176 00e1 000000   		.align	2
 1177              	.LC14:
 1178 00e4 43505520 		.ascii	"CPU Speed:xxxMHz\000"
 1178      53706565 
 1178      643A7878 
 1178      784D487A 
 1178      00
 1179 00f5 000000   		.align	2
 1180              	.LC15:
 1181 00f8 23546963 		.ascii	"#Ticks: xxxxxxxx\000"
ARM GAS  C:\Users\alex\AppData\Local\Temp\ccrLK32p.s 			page 34


 1181      6B733A20 
 1181      78787878 
 1181      78787878 
 1181      00
 1182 0109 000000   		.align	2
 1183              	.LC16:
 1184 010c 23437478 		.ascii	"#CtxSw: xxxxxxxx\000"
 1184      53773A20 
 1184      78787878 
 1184      78787878 
 1184      00
 1185 011d 000000   		.align	2
 1186              	.LC17:
 1187 0120 3D3D3D20 		.ascii	"=== Micrium === \000"
 1187      4D696372 
 1187      69756D20 
 1187      3D3D3D20 
 1187      00
 1188 0131 000000   		.align	2
 1189              	.LC18:
 1190 0134 20202075 		.ascii	"   uC/OS-III    \000"
 1190      432F4F53 
 1190      2D494949 
 1190      20202020 
 1190      00
 1191              		.section	.text.App_TaskUserIF,"ax",%progbits
 1192              		.align	2
 1193              		.thumb
 1194              		.thumb_func
 1195              		.type	App_TaskUserIF, %function
 1196              	App_TaskUserIF:
 1197              	.LFB76:
 598:..\app.c      **** 
 599:..\app.c      **** 
 600:..\app.c      **** /*
 601:..\app.c      **** ***************************************************************************************************
 602:..\app.c      **** *                                          App_TaskUserIF()
 603:..\app.c      **** *
 604:..\app.c      **** * Description : User interface task
 605:..\app.c      **** *
 606:..\app.c      **** * Argument(s) : p_arg   is the argument passed to 'App_TaskUserIF()' by 'OSTaskCreate()'.
 607:..\app.c      **** *
 608:..\app.c      **** * Return(s)   : none
 609:..\app.c      **** *
 610:..\app.c      **** * Note(s)     : 1) The first line of code is used to prevent a compiler warning because 'p_arg' is 
 611:..\app.c      **** *                  used.  The compiler should not generate any code for this statement.
 612:..\app.c      **** ***************************************************************************************************
 613:..\app.c      **** */
 614:..\app.c      **** 
 615:..\app.c      **** 
 616:..\app.c      **** static  void  App_TaskUserIF (void *p_arg)
 617:..\app.c      **** {
 1198              		.loc 1 617 0
 1199              		.cfi_startproc
 1200              		@ args = 0, pretend = 0, frame = 40
 1201              		@ frame_needed = 1, uses_anonymous_args = 0
 1202 0000 80B5     		push	{r7, lr}
ARM GAS  C:\Users\alex\AppData\Local\Temp\ccrLK32p.s 			page 35


 1203              		.cfi_def_cfa_offset 8
 1204              		.cfi_offset 7, -8
 1205              		.cfi_offset 14, -4
 1206 0002 8EB0     		sub	sp, sp, #56
 1207              		.cfi_def_cfa_offset 64
 1208 0004 04AF     		add	r7, sp, #16
 1209              		.cfi_def_cfa 7, 48
 1210 0006 7860     		str	r0, [r7, #4]
 618:..\app.c      ****    CPU_INT32U   val;
 619:..\app.c      ****    CPU_INT08U   user_if_state_cur;
 620:..\app.c      ****    CPU_INT08U   user_if_state_prev;   
 621:..\app.c      ****    CPU_BOOLEAN  pb2_state_cur;
 622:..\app.c      ****    CPU_BOOLEAN  pb2_state_prev;
 623:..\app.c      ****    CPU_BOOLEAN  pb3_state_cur;
 624:..\app.c      ****    CPU_BOOLEAN  pb3_state_prev;
 625:..\app.c      ****    OS_ERR       os_err;
 626:..\app.c      ****    CPU_CHAR     line_str[17];
 627:..\app.c      ****    
 628:..\app.c      ****    
 629:..\app.c      ****    (void)p_arg;
 630:..\app.c      ****    
 631:..\app.c      ****    LCD_Disp_Start();                                             /* Initialize the LCD screen.     
 1211              		.loc 1 631 0
 1212 0008 FFF7FEFF 		bl	LCD_Disp_Start
 632:..\app.c      ****    
 633:..\app.c      ****    LCD_Disp_Position(0u, 0u);                                    /* Clear LCD screen               
 1213              		.loc 1 633 0
 1214 000c 0021     		movs	r1, #0
 1215 000e 0020     		movs	r0, #0
 1216 0010 FFF7FEFF 		bl	LCD_Disp_Position
 634:..\app.c      ****    LCD_Disp_PrintString((uint8 *)"                ");
 1217              		.loc 1 634 0
 1218 0014 AE48     		ldr	r0, .L53
 1219 0016 FFF7FEFF 		bl	LCD_Disp_PrintString
 635:..\app.c      ****    LCD_Disp_Position(1u, 0u);
 1220              		.loc 1 635 0
 1221 001a 0021     		movs	r1, #0
 1222 001c 0120     		movs	r0, #1
 1223 001e FFF7FEFF 		bl	LCD_Disp_Position
 636:..\app.c      ****    LCD_Disp_PrintString((uint8 *)"                ");
 1224              		.loc 1 636 0
 1225 0022 AB48     		ldr	r0, .L53
 1226 0024 FFF7FEFF 		bl	LCD_Disp_PrintString
 637:..\app.c      ****    
 638:..\app.c      ****    LCD_Disp_PrintString((uint8 *)"Micrium uC/OS-III");
 1227              		.loc 1 638 0
 1228 0028 AA48     		ldr	r0, .L53+4
 1229 002a FFF7FEFF 		bl	LCD_Disp_PrintString
 639:..\app.c      **** 
 640:..\app.c      ****    user_if_state_cur  = APP_USER_IF_SIGN_ON;
 1230              		.loc 1 640 0
 1231 002e 0023     		movs	r3, #0
 1232 0030 87F82730 		strb	r3, [r7, #39]
 641:..\app.c      ****    user_if_state_prev = APP_USER_IF_SIGN_ON;
 1233              		.loc 1 641 0
 1234 0034 0023     		movs	r3, #0
 1235 0036 87F82630 		strb	r3, [r7, #38]
ARM GAS  C:\Users\alex\AppData\Local\Temp\ccrLK32p.s 			page 36


 642:..\app.c      ****    pb2_state_cur      = DEF_OFF;
 1236              		.loc 1 642 0
 1237 003a 0023     		movs	r3, #0
 1238 003c 87F82330 		strb	r3, [r7, #35]
 643:..\app.c      ****    pb2_state_prev     = DEF_OFF;
 1239              		.loc 1 643 0
 1240 0040 0023     		movs	r3, #0
 1241 0042 87F82530 		strb	r3, [r7, #37]
 644:..\app.c      ****    pb3_state_cur      = DEF_OFF;
 1242              		.loc 1 644 0
 1243 0046 0023     		movs	r3, #0
 1244 0048 87F82230 		strb	r3, [r7, #34]
 645:..\app.c      ****    pb3_state_prev     = DEF_OFF;
 1245              		.loc 1 645 0
 1246 004c 0023     		movs	r3, #0
 1247 004e 87F82430 		strb	r3, [r7, #36]
 1248              	.L51:
 646:..\app.c      ****    
 647:..\app.c      ****    
 648:..\app.c      ****     while (DEF_TRUE) {    
 649:..\app.c      **** 
 650:..\app.c      ****         if (user_if_state_cur != user_if_state_prev) {
 1249              		.loc 1 650 0
 1250 0052 97F82720 		ldrb	r2, [r7, #39]	@ zero_extendqisi2
 1251 0056 97F82630 		ldrb	r3, [r7, #38]	@ zero_extendqisi2
 1252 005a 9A42     		cmp	r2, r3
 1253 005c 11D0     		beq	.L43
 651:..\app.c      ****             LCD_Disp_Position(0u, 0u);
 1254              		.loc 1 651 0
 1255 005e 0021     		movs	r1, #0
 1256 0060 0020     		movs	r0, #0
 1257 0062 FFF7FEFF 		bl	LCD_Disp_Position
 652:..\app.c      ****             LCD_Disp_PrintString((uint8 *)"                ");
 1258              		.loc 1 652 0
 1259 0066 9A48     		ldr	r0, .L53
 1260 0068 FFF7FEFF 		bl	LCD_Disp_PrintString
 653:..\app.c      ****             LCD_Disp_Position(1u, 0u);
 1261              		.loc 1 653 0
 1262 006c 0021     		movs	r1, #0
 1263 006e 0120     		movs	r0, #1
 1264 0070 FFF7FEFF 		bl	LCD_Disp_Position
 654:..\app.c      ****             LCD_Disp_PrintString((uint8 *)"                ");
 1265              		.loc 1 654 0
 1266 0074 9648     		ldr	r0, .L53
 1267 0076 FFF7FEFF 		bl	LCD_Disp_PrintString
 655:..\app.c      ****             user_if_state_prev = user_if_state_cur;
 1268              		.loc 1 655 0
 1269 007a 97F82730 		ldrb	r3, [r7, #39]
 1270 007e 87F82630 		strb	r3, [r7, #38]
 1271              	.L43:
 656:..\app.c      ****         }
 657:..\app.c      **** 
 658:..\app.c      ****         switch (user_if_state_cur) {
 1272              		.loc 1 658 0
 1273 0082 97F82730 		ldrb	r3, [r7, #39]	@ zero_extendqisi2
 1274 0086 022B     		cmp	r3, #2
 1275 0088 76D0     		beq	.L45
ARM GAS  C:\Users\alex\AppData\Local\Temp\ccrLK32p.s 			page 37


 1276 008a 032B     		cmp	r3, #3
 1277 008c 00F0DE80 		beq	.L46
 1278 0090 012B     		cmp	r3, #1
 1279 0092 40F03D81 		bne	.L52
 659:..\app.c      ****             case APP_USER_IF_VER_TICK_RATE:
 660:..\app.c      ****                  Str_Copy(line_str, "uC/OS-III Vx.yyy");
 1280              		.loc 1 660 0
 1281 0096 07F10803 		add	r3, r7, #8
 1282 009a 8F49     		ldr	r1, .L53+8
 1283 009c 1846     		mov	r0, r3
 1284 009e FFF7FEFF 		bl	Str_Copy
 661:..\app.c      ****                  val          = (CPU_INT32U)OSVersion(&os_err);
 1285              		.loc 1 661 0
 1286 00a2 07F11A03 		add	r3, r7, #26
 1287 00a6 1846     		mov	r0, r3
 1288 00a8 FFF7FEFF 		bl	OSVersion
 1289 00ac 0346     		mov	r3, r0
 1290 00ae FB61     		str	r3, [r7, #28]
 662:..\app.c      ****                  line_str[11] = (val        )  / 1000u + '0';
 1291              		.loc 1 662 0
 1292 00b0 FB69     		ldr	r3, [r7, #28]
 1293 00b2 8A4A     		ldr	r2, .L53+12
 1294 00b4 A2FB0323 		umull	r2, r3, r2, r3
 1295 00b8 9B09     		lsrs	r3, r3, #6
 1296 00ba DBB2     		uxtb	r3, r3
 1297 00bc 3033     		adds	r3, r3, #48
 1298 00be DBB2     		uxtb	r3, r3
 1299 00c0 FB74     		strb	r3, [r7, #19]
 663:..\app.c      ****                  line_str[13] = (val % 1000u)  /  100u + '0';
 1300              		.loc 1 663 0
 1301 00c2 FA69     		ldr	r2, [r7, #28]
 1302 00c4 854B     		ldr	r3, .L53+12
 1303 00c6 A3FB0213 		umull	r1, r3, r3, r2
 1304 00ca 9B09     		lsrs	r3, r3, #6
 1305 00cc 4FF47A71 		mov	r1, #1000
 1306 00d0 01FB03F3 		mul	r3, r1, r3
 1307 00d4 D31A     		subs	r3, r2, r3
 1308 00d6 824A     		ldr	r2, .L53+16
 1309 00d8 A2FB0323 		umull	r2, r3, r2, r3
 1310 00dc 5B09     		lsrs	r3, r3, #5
 1311 00de DBB2     		uxtb	r3, r3
 1312 00e0 3033     		adds	r3, r3, #48
 1313 00e2 DBB2     		uxtb	r3, r3
 1314 00e4 7B75     		strb	r3, [r7, #21]
 664:..\app.c      ****                  line_str[14] = (val %  100u)  /   10u + '0';
 1315              		.loc 1 664 0
 1316 00e6 FA69     		ldr	r2, [r7, #28]
 1317 00e8 7D4B     		ldr	r3, .L53+16
 1318 00ea A3FB0213 		umull	r1, r3, r3, r2
 1319 00ee 5B09     		lsrs	r3, r3, #5
 1320 00f0 6421     		movs	r1, #100
 1321 00f2 01FB03F3 		mul	r3, r1, r3
 1322 00f6 D31A     		subs	r3, r2, r3
 1323 00f8 7A4A     		ldr	r2, .L53+20
 1324 00fa A2FB0323 		umull	r2, r3, r2, r3
 1325 00fe DB08     		lsrs	r3, r3, #3
 1326 0100 DBB2     		uxtb	r3, r3
ARM GAS  C:\Users\alex\AppData\Local\Temp\ccrLK32p.s 			page 38


 1327 0102 3033     		adds	r3, r3, #48
 1328 0104 DBB2     		uxtb	r3, r3
 1329 0106 BB75     		strb	r3, [r7, #22]
 665:..\app.c      ****                  line_str[15] = (val %   10u)          + '0';
 1330              		.loc 1 665 0
 1331 0108 F969     		ldr	r1, [r7, #28]
 1332 010a 764B     		ldr	r3, .L53+20
 1333 010c A3FB0123 		umull	r2, r3, r3, r1
 1334 0110 DA08     		lsrs	r2, r3, #3
 1335 0112 1346     		mov	r3, r2
 1336 0114 9B00     		lsls	r3, r3, #2
 1337 0116 1344     		add	r3, r3, r2
 1338 0118 5B00     		lsls	r3, r3, #1
 1339 011a CA1A     		subs	r2, r1, r3
 1340 011c D3B2     		uxtb	r3, r2
 1341 011e 3033     		adds	r3, r3, #48
 1342 0120 DBB2     		uxtb	r3, r3
 1343 0122 FB75     		strb	r3, [r7, #23]
 666:..\app.c      ****                  LCD_Disp_Position(0u, 0u);
 1344              		.loc 1 666 0
 1345 0124 0021     		movs	r1, #0
 1346 0126 0020     		movs	r0, #0
 1347 0128 FFF7FEFF 		bl	LCD_Disp_Position
 667:..\app.c      ****                  LCD_Disp_PrintString((uint8 *)line_str);
 1348              		.loc 1 667 0
 1349 012c 07F10803 		add	r3, r7, #8
 1350 0130 1846     		mov	r0, r3
 1351 0132 FFF7FEFF 		bl	LCD_Disp_PrintString
 668:..\app.c      **** 
 669:..\app.c      ****                  Str_Copy(line_str, "TickRate:   xxxx");
 1352              		.loc 1 669 0
 1353 0136 07F10803 		add	r3, r7, #8
 1354 013a 6B49     		ldr	r1, .L53+24
 1355 013c 1846     		mov	r0, r3
 1356 013e FFF7FEFF 		bl	Str_Copy
 670:..\app.c      ****                  val = (CPU_INT32U)OSCfg_TickRate_Hz;
 1357              		.loc 1 670 0
 1358 0142 6A4B     		ldr	r3, .L53+28
 1359 0144 1B68     		ldr	r3, [r3]
 1360 0146 FB61     		str	r3, [r7, #28]
 671:..\app.c      ****                  Str_FmtNbr_Int32U((CPU_INT32U     )val, 
 1361              		.loc 1 671 0
 1362 0148 07F10803 		add	r3, r7, #8
 1363 014c 0C33     		adds	r3, r3, #12
 1364 014e 0293     		str	r3, [sp, #8]
 1365 0150 0123     		movs	r3, #1
 1366 0152 0193     		str	r3, [sp, #4]
 1367 0154 0023     		movs	r3, #0
 1368 0156 0093     		str	r3, [sp]
 1369 0158 0023     		movs	r3, #0
 1370 015a 0A22     		movs	r2, #10
 1371 015c 0421     		movs	r1, #4
 1372 015e F869     		ldr	r0, [r7, #28]
 1373 0160 FFF7FEFF 		bl	Str_FmtNbr_Int32U
 672:..\app.c      ****                                    (CPU_INT08U     )4u,
 673:..\app.c      ****                                    (CPU_INT08U     )10,
 674:..\app.c      ****                                    (CPU_CHAR       )0,
ARM GAS  C:\Users\alex\AppData\Local\Temp\ccrLK32p.s 			page 39


 675:..\app.c      ****                                    (CPU_BOOLEAN    )DEF_NO,
 676:..\app.c      ****                                    (CPU_BOOLEAN    )DEF_YES,
 677:..\app.c      ****                                    (CPU_CHAR      *)&line_str[12]);
 678:..\app.c      ****                  LCD_Disp_Position(1u, 0u);
 1374              		.loc 1 678 0
 1375 0164 0021     		movs	r1, #0
 1376 0166 0120     		movs	r0, #1
 1377 0168 FFF7FEFF 		bl	LCD_Disp_Position
 679:..\app.c      ****                  LCD_Disp_PrintString((uint8 *)line_str);
 1378              		.loc 1 679 0
 1379 016c 07F10803 		add	r3, r7, #8
 1380 0170 1846     		mov	r0, r3
 1381 0172 FFF7FEFF 		bl	LCD_Disp_PrintString
 680:..\app.c      ****                  break;
 1382              		.loc 1 680 0
 1383 0176 DAE0     		b	.L48
 1384              	.L45:
 681:..\app.c      **** 
 682:..\app.c      ****             case APP_USER_IF_CPU:
 683:..\app.c      ****                  Str_Copy(line_str, "CPU Usage:xx %  ");
 1385              		.loc 1 683 0
 1386 0178 07F10803 		add	r3, r7, #8
 1387 017c 5C49     		ldr	r1, .L53+32
 1388 017e 1846     		mov	r0, r3
 1389 0180 FFF7FEFF 		bl	Str_Copy
 684:..\app.c      ****                  val          = (CPU_INT32U)OSStatTaskCPUUsage;
 1390              		.loc 1 684 0
 1391 0184 5B4B     		ldr	r3, .L53+36
 1392 0186 1B88     		ldrh	r3, [r3]
 1393 0188 FB61     		str	r3, [r7, #28]
 685:..\app.c      ****                  line_str[10] = (val / 10u) + '0';
 1394              		.loc 1 685 0
 1395 018a FB69     		ldr	r3, [r7, #28]
 1396 018c 554A     		ldr	r2, .L53+20
 1397 018e A2FB0323 		umull	r2, r3, r2, r3
 1398 0192 DB08     		lsrs	r3, r3, #3
 1399 0194 DBB2     		uxtb	r3, r3
 1400 0196 3033     		adds	r3, r3, #48
 1401 0198 DBB2     		uxtb	r3, r3
 1402 019a BB74     		strb	r3, [r7, #18]
 686:..\app.c      ****                  line_str[11] = (val % 10u) + '0';
 1403              		.loc 1 686 0
 1404 019c F969     		ldr	r1, [r7, #28]
 1405 019e 514B     		ldr	r3, .L53+20
 1406 01a0 A3FB0123 		umull	r2, r3, r3, r1
 1407 01a4 DA08     		lsrs	r2, r3, #3
 1408 01a6 1346     		mov	r3, r2
 1409 01a8 9B00     		lsls	r3, r3, #2
 1410 01aa 1344     		add	r3, r3, r2
 1411 01ac 5B00     		lsls	r3, r3, #1
 1412 01ae CA1A     		subs	r2, r1, r3
 1413 01b0 D3B2     		uxtb	r3, r2
 1414 01b2 3033     		adds	r3, r3, #48
 1415 01b4 DBB2     		uxtb	r3, r3
 1416 01b6 FB74     		strb	r3, [r7, #19]
 687:..\app.c      ****                  LCD_Disp_Position(0u, 0u);
 1417              		.loc 1 687 0
ARM GAS  C:\Users\alex\AppData\Local\Temp\ccrLK32p.s 			page 40


 1418 01b8 0021     		movs	r1, #0
 1419 01ba 0020     		movs	r0, #0
 1420 01bc FFF7FEFF 		bl	LCD_Disp_Position
 688:..\app.c      ****                  LCD_Disp_PrintString((uint8 *)line_str);
 1421              		.loc 1 688 0
 1422 01c0 07F10803 		add	r3, r7, #8
 1423 01c4 1846     		mov	r0, r3
 1424 01c6 FFF7FEFF 		bl	LCD_Disp_PrintString
 689:..\app.c      ****                  
 690:..\app.c      ****                  Str_Copy(line_str, "CPU Speed:xxxMHz");
 1425              		.loc 1 690 0
 1426 01ca 07F10803 		add	r3, r7, #8
 1427 01ce 4A49     		ldr	r1, .L53+40
 1428 01d0 1846     		mov	r0, r3
 1429 01d2 FFF7FEFF 		bl	Str_Copy
 691:..\app.c      ****                  val          = (CPU_INT32U)BSP_CPU_ClkFreq();
 1430              		.loc 1 691 0
 1431 01d6 FFF7FEFF 		bl	BSP_CPU_ClkFreq
 1432 01da F861     		str	r0, [r7, #28]
 692:..\app.c      ****                  val         /= 1000000u;
 1433              		.loc 1 692 0
 1434 01dc FB69     		ldr	r3, [r7, #28]
 1435 01de 474A     		ldr	r2, .L53+44
 1436 01e0 A2FB0323 		umull	r2, r3, r2, r3
 1437 01e4 9B0C     		lsrs	r3, r3, #18
 1438 01e6 FB61     		str	r3, [r7, #28]
 693:..\app.c      ****                  line_str[10] = (val       ) / 100u + '0';
 1439              		.loc 1 693 0
 1440 01e8 FB69     		ldr	r3, [r7, #28]
 1441 01ea 3D4A     		ldr	r2, .L53+16
 1442 01ec A2FB0323 		umull	r2, r3, r2, r3
 1443 01f0 5B09     		lsrs	r3, r3, #5
 1444 01f2 DBB2     		uxtb	r3, r3
 1445 01f4 3033     		adds	r3, r3, #48
 1446 01f6 DBB2     		uxtb	r3, r3
 1447 01f8 BB74     		strb	r3, [r7, #18]
 694:..\app.c      ****                  line_str[11] = (val % 100u) /  10u + '0';
 1448              		.loc 1 694 0
 1449 01fa FA69     		ldr	r2, [r7, #28]
 1450 01fc 384B     		ldr	r3, .L53+16
 1451 01fe A3FB0213 		umull	r1, r3, r3, r2
 1452 0202 5B09     		lsrs	r3, r3, #5
 1453 0204 6421     		movs	r1, #100
 1454 0206 01FB03F3 		mul	r3, r1, r3
 1455 020a D31A     		subs	r3, r2, r3
 1456 020c 354A     		ldr	r2, .L53+20
 1457 020e A2FB0323 		umull	r2, r3, r2, r3
 1458 0212 DB08     		lsrs	r3, r3, #3
 1459 0214 DBB2     		uxtb	r3, r3
 1460 0216 3033     		adds	r3, r3, #48
 1461 0218 DBB2     		uxtb	r3, r3
 1462 021a FB74     		strb	r3, [r7, #19]
 695:..\app.c      ****                  line_str[12] = (val % 10u)         + '0';
 1463              		.loc 1 695 0
 1464 021c F969     		ldr	r1, [r7, #28]
 1465 021e 314B     		ldr	r3, .L53+20
 1466 0220 A3FB0123 		umull	r2, r3, r3, r1
ARM GAS  C:\Users\alex\AppData\Local\Temp\ccrLK32p.s 			page 41


 1467 0224 DA08     		lsrs	r2, r3, #3
 1468 0226 1346     		mov	r3, r2
 1469 0228 9B00     		lsls	r3, r3, #2
 1470 022a 1344     		add	r3, r3, r2
 1471 022c 5B00     		lsls	r3, r3, #1
 1472 022e CA1A     		subs	r2, r1, r3
 1473 0230 D3B2     		uxtb	r3, r2
 1474 0232 3033     		adds	r3, r3, #48
 1475 0234 DBB2     		uxtb	r3, r3
 1476 0236 3B75     		strb	r3, [r7, #20]
 696:..\app.c      ****                  LCD_Disp_Position(1u, 0u);
 1477              		.loc 1 696 0
 1478 0238 0021     		movs	r1, #0
 1479 023a 0120     		movs	r0, #1
 1480 023c FFF7FEFF 		bl	LCD_Disp_Position
 697:..\app.c      ****                  LCD_Disp_PrintString((uint8 *)line_str);
 1481              		.loc 1 697 0
 1482 0240 07F10803 		add	r3, r7, #8
 1483 0244 1846     		mov	r0, r3
 1484 0246 FFF7FEFF 		bl	LCD_Disp_PrintString
 698:..\app.c      ****                  break;
 1485              		.loc 1 698 0
 1486 024a 70E0     		b	.L48
 1487              	.L46:
 699:..\app.c      **** 
 700:..\app.c      ****             case APP_USER_IF_CTXSW:
 701:..\app.c      ****                  Str_Copy(line_str, "#Ticks: xxxxxxxx");
 1488              		.loc 1 701 0
 1489 024c 07F10803 		add	r3, r7, #8
 1490 0250 2B49     		ldr	r1, .L53+48
 1491 0252 1846     		mov	r0, r3
 1492 0254 FFF7FEFF 		bl	Str_Copy
 702:..\app.c      ****                  val = (CPU_INT32U)OSTickCtr;
 1493              		.loc 1 702 0
 1494 0258 2A4B     		ldr	r3, .L53+52
 1495 025a 1B68     		ldr	r3, [r3]
 1496 025c FB61     		str	r3, [r7, #28]
 703:..\app.c      ****                  Str_FmtNbr_Int32U((CPU_INT32U     )val, 
 1497              		.loc 1 703 0
 1498 025e 07F10803 		add	r3, r7, #8
 1499 0262 0833     		adds	r3, r3, #8
 1500 0264 0293     		str	r3, [sp, #8]
 1501 0266 0123     		movs	r3, #1
 1502 0268 0193     		str	r3, [sp, #4]
 1503 026a 0023     		movs	r3, #0
 1504 026c 0093     		str	r3, [sp]
 1505 026e 0023     		movs	r3, #0
 1506 0270 0A22     		movs	r2, #10
 1507 0272 0821     		movs	r1, #8
 1508 0274 F869     		ldr	r0, [r7, #28]
 1509 0276 FFF7FEFF 		bl	Str_FmtNbr_Int32U
 704:..\app.c      ****                                    (CPU_INT08U     )8u,
 705:..\app.c      ****                                    (CPU_INT08U     )10,
 706:..\app.c      ****                                    (CPU_CHAR       )0,
 707:..\app.c      ****                                    (CPU_BOOLEAN    )DEF_NO,
 708:..\app.c      ****                                    (CPU_BOOLEAN    )DEF_YES,
 709:..\app.c      ****                                    (CPU_CHAR      *)&line_str[8]);
ARM GAS  C:\Users\alex\AppData\Local\Temp\ccrLK32p.s 			page 42


 710:..\app.c      ****                  LCD_Disp_Position(0u, 0u);
 1510              		.loc 1 710 0
 1511 027a 0021     		movs	r1, #0
 1512 027c 0020     		movs	r0, #0
 1513 027e FFF7FEFF 		bl	LCD_Disp_Position
 711:..\app.c      ****                  LCD_Disp_PrintString((uint8 *)line_str);
 1514              		.loc 1 711 0
 1515 0282 07F10803 		add	r3, r7, #8
 1516 0286 1846     		mov	r0, r3
 1517 0288 FFF7FEFF 		bl	LCD_Disp_PrintString
 712:..\app.c      ****                  
 713:..\app.c      ****                  Str_Copy(line_str, "#CtxSw: xxxxxxxx");
 1518              		.loc 1 713 0
 1519 028c 07F10803 		add	r3, r7, #8
 1520 0290 1D49     		ldr	r1, .L53+56
 1521 0292 1846     		mov	r0, r3
 1522 0294 FFF7FEFF 		bl	Str_Copy
 714:..\app.c      ****                  val          = (CPU_INT32U)OSTaskCtxSwCtr;
 1523              		.loc 1 714 0
 1524 0298 1C4B     		ldr	r3, .L53+60
 1525 029a 1B68     		ldr	r3, [r3]
 1526 029c FB61     		str	r3, [r7, #28]
 715:..\app.c      ****                  Str_FmtNbr_Int32U((CPU_INT32U     )val, 
 1527              		.loc 1 715 0
 1528 029e 07F10803 		add	r3, r7, #8
 1529 02a2 0833     		adds	r3, r3, #8
 1530 02a4 0293     		str	r3, [sp, #8]
 1531 02a6 0123     		movs	r3, #1
 1532 02a8 0193     		str	r3, [sp, #4]
 1533 02aa 0023     		movs	r3, #0
 1534 02ac 0093     		str	r3, [sp]
 1535 02ae 0023     		movs	r3, #0
 1536 02b0 0A22     		movs	r2, #10
 1537 02b2 0821     		movs	r1, #8
 1538 02b4 F869     		ldr	r0, [r7, #28]
 1539 02b6 FFF7FEFF 		bl	Str_FmtNbr_Int32U
 716:..\app.c      ****                                    (CPU_INT08U     )8u,
 717:..\app.c      ****                                    (CPU_INT08U     )10,
 718:..\app.c      ****                                    (CPU_CHAR       )0,
 719:..\app.c      ****                                    (CPU_BOOLEAN    )DEF_NO,
 720:..\app.c      ****                                    (CPU_BOOLEAN    )DEF_YES,
 721:..\app.c      ****                                    (CPU_CHAR      *)&line_str[8]);
 722:..\app.c      ****                  LCD_Disp_Position(1u, 0u);
 1540              		.loc 1 722 0
 1541 02ba 0021     		movs	r1, #0
 1542 02bc 0120     		movs	r0, #1
 1543 02be FFF7FEFF 		bl	LCD_Disp_Position
 723:..\app.c      ****                  LCD_Disp_PrintString((uint8 *)line_str);
 1544              		.loc 1 723 0
 1545 02c2 07F10803 		add	r3, r7, #8
 1546 02c6 1846     		mov	r0, r3
 1547 02c8 FFF7FEFF 		bl	LCD_Disp_PrintString
 724:..\app.c      ****                  break;
 1548              		.loc 1 724 0
 1549 02cc 2FE0     		b	.L48
 1550              	.L54:
 1551 02ce 00BF     		.align	2
ARM GAS  C:\Users\alex\AppData\Local\Temp\ccrLK32p.s 			page 43


 1552              	.L53:
 1553 02d0 50000000 		.word	.LC6
 1554 02d4 94000000 		.word	.LC10
 1555 02d8 A8000000 		.word	.LC11
 1556 02dc D34D6210 		.word	274877907
 1557 02e0 1F85EB51 		.word	1374389535
 1558 02e4 CDCCCCCC 		.word	-858993459
 1559 02e8 BC000000 		.word	.LC12
 1560 02ec 00000000 		.word	OSCfg_TickRate_Hz
 1561 02f0 D0000000 		.word	.LC13
 1562 02f4 00000000 		.word	OSStatTaskCPUUsage
 1563 02f8 E4000000 		.word	.LC14
 1564 02fc 83DE1B43 		.word	1125899907
 1565 0300 F8000000 		.word	.LC15
 1566 0304 00000000 		.word	OSTickCtr
 1567 0308 0C010000 		.word	.LC16
 1568 030c 00000000 		.word	OSTaskCtxSwCtr
 1569              	.L52:
 725:..\app.c      **** 
 726:..\app.c      ****             case APP_USER_IF_SIGN_ON:
 727:..\app.c      ****             default:
 728:..\app.c      ****                  LCD_Disp_Position(0u, 0u);
 1570              		.loc 1 728 0
 1571 0310 0021     		movs	r1, #0
 1572 0312 0020     		movs	r0, #0
 1573 0314 FFF7FEFF 		bl	LCD_Disp_Position
 729:..\app.c      ****                  LCD_Disp_PrintString((uint8 *)"=== Micrium === ");
 1574              		.loc 1 729 0
 1575 0318 2548     		ldr	r0, .L55
 1576 031a FFF7FEFF 		bl	LCD_Disp_PrintString
 730:..\app.c      ****                  LCD_Disp_Position(1u, 0u);
 1577              		.loc 1 730 0
 1578 031e 0021     		movs	r1, #0
 1579 0320 0120     		movs	r0, #1
 1580 0322 FFF7FEFF 		bl	LCD_Disp_Position
 731:..\app.c      ****                  LCD_Disp_PrintString((uint8 *)"   uC/OS-III    ");
 1581              		.loc 1 731 0
 1582 0326 2348     		ldr	r0, .L55+4
 1583 0328 FFF7FEFF 		bl	LCD_Disp_PrintString
 732:..\app.c      ****                  break;
 1584              		.loc 1 732 0
 1585 032c 00BF     		nop
 1586              	.L48:
 733:..\app.c      ****         }
 734:..\app.c      **** 
 735:..\app.c      ****         pb2_state_cur = BSP_PB_StatusGet(2);
 1587              		.loc 1 735 0
 1588 032e 0220     		movs	r0, #2
 1589 0330 FFF7FEFF 		bl	BSP_PB_StatusGet
 1590 0334 0346     		mov	r3, r0
 1591 0336 87F82330 		strb	r3, [r7, #35]
 736:..\app.c      ****         pb3_state_cur = BSP_PB_StatusGet(3);
 1592              		.loc 1 736 0
 1593 033a 0320     		movs	r0, #3
 1594 033c FFF7FEFF 		bl	BSP_PB_StatusGet
 1595 0340 0346     		mov	r3, r0
 1596 0342 87F82230 		strb	r3, [r7, #34]
ARM GAS  C:\Users\alex\AppData\Local\Temp\ccrLK32p.s 			page 44


 737:..\app.c      ****         if ((pb2_state_cur  == DEF_ON ) &&
 1597              		.loc 1 737 0
 1598 0346 97F82330 		ldrb	r3, [r7, #35]	@ zero_extendqisi2
 1599 034a 012B     		cmp	r3, #1
 1600 034c 0BD1     		bne	.L49
 1601              		.loc 1 737 0 is_stmt 0 discriminator 1
 1602 034e 97F82530 		ldrb	r3, [r7, #37]	@ zero_extendqisi2
 1603 0352 002B     		cmp	r3, #0
 1604 0354 07D1     		bne	.L49
 738:..\app.c      ****             (pb2_state_prev == DEF_OFF)) {     
 739:..\app.c      ****             user_if_state_cur = (user_if_state_cur + 1u) % APP_USER_IF_STATE_MAX;
 1605              		.loc 1 739 0 is_stmt 1
 1606 0356 97F82730 		ldrb	r3, [r7, #39]
 1607 035a 0133     		adds	r3, r3, #1
 1608 035c DBB2     		uxtb	r3, r3
 1609 035e 03F00303 		and	r3, r3, #3
 1610 0362 87F82730 		strb	r3, [r7, #39]
 1611              	.L49:
 740:..\app.c      ****         }
 741:..\app.c      **** 
 742:..\app.c      ****         if ((pb3_state_cur  == DEF_ON ) &&
 1612              		.loc 1 742 0
 1613 0366 97F82230 		ldrb	r3, [r7, #34]	@ zero_extendqisi2
 1614 036a 012B     		cmp	r3, #1
 1615 036c 0BD1     		bne	.L50
 1616              		.loc 1 742 0 is_stmt 0 discriminator 1
 1617 036e 97F82430 		ldrb	r3, [r7, #36]	@ zero_extendqisi2
 1618 0372 002B     		cmp	r3, #0
 1619 0374 07D1     		bne	.L50
 743:..\app.c      ****             (pb3_state_prev == DEF_OFF)) { 
 744:..\app.c      ****             user_if_state_cur = (user_if_state_cur - 1u) % APP_USER_IF_STATE_MAX;
 1620              		.loc 1 744 0 is_stmt 1
 1621 0376 97F82730 		ldrb	r3, [r7, #39]
 1622 037a 013B     		subs	r3, r3, #1
 1623 037c DBB2     		uxtb	r3, r3
 1624 037e 03F00303 		and	r3, r3, #3
 1625 0382 87F82730 		strb	r3, [r7, #39]
 1626              	.L50:
 745:..\app.c      ****         }
 746:..\app.c      **** 
 747:..\app.c      ****         OSTimeDlyHMSM(0, 0, 0, 100, 
 1627              		.loc 1 747 0
 1628 0386 07F11A03 		add	r3, r7, #26
 1629 038a 0193     		str	r3, [sp, #4]
 1630 038c 0023     		movs	r3, #0
 1631 038e 0093     		str	r3, [sp]
 1632 0390 6423     		movs	r3, #100
 1633 0392 0022     		movs	r2, #0
 1634 0394 0021     		movs	r1, #0
 1635 0396 0020     		movs	r0, #0
 1636 0398 FFF7FEFF 		bl	OSTimeDlyHMSM
 748:..\app.c      ****                       OS_OPT_TIME_HMSM_STRICT, 
 749:..\app.c      ****                       &os_err);
 750:..\app.c      **** 
 751:..\app.c      ****         pb2_state_prev = pb2_state_cur;
 1637              		.loc 1 751 0
 1638 039c 97F82330 		ldrb	r3, [r7, #35]
ARM GAS  C:\Users\alex\AppData\Local\Temp\ccrLK32p.s 			page 45


 1639 03a0 87F82530 		strb	r3, [r7, #37]
 752:..\app.c      ****         pb3_state_prev = pb3_state_cur;	
 1640              		.loc 1 752 0
 1641 03a4 97F82230 		ldrb	r3, [r7, #34]
 1642 03a8 87F82430 		strb	r3, [r7, #36]
 753:..\app.c      ****     }
 1643              		.loc 1 753 0
 1644 03ac 51E6     		b	.L51
 1645              	.L56:
 1646 03ae 00BF     		.align	2
 1647              	.L55:
 1648 03b0 20010000 		.word	.LC17
 1649 03b4 34010000 		.word	.LC18
 1650              		.cfi_endproc
 1651              	.LFE76:
 1652              		.size	App_TaskUserIF, .-App_TaskUserIF
 1653              		.section	.text.statusMotor,"ax",%progbits
 1654              		.align	2
 1655              		.global	statusMotor
 1656              		.thumb
 1657              		.thumb_func
 1658              		.type	statusMotor, %function
 1659              	statusMotor:
 1660              	.LFB77:
 754:..\app.c      **** }
 755:..\app.c      **** 
 756:..\app.c      **** /* desenvolvimento das funcoes */
 757:..\app.c      **** 
 758:..\app.c      **** void statusMotor(CPU_INT08U op){
 1661              		.loc 1 758 0
 1662              		.cfi_startproc
 1663              		@ args = 0, pretend = 0, frame = 8
 1664              		@ frame_needed = 1, uses_anonymous_args = 0
 1665 0000 80B5     		push	{r7, lr}
 1666              		.cfi_def_cfa_offset 8
 1667              		.cfi_offset 7, -8
 1668              		.cfi_offset 14, -4
 1669 0002 82B0     		sub	sp, sp, #8
 1670              		.cfi_def_cfa_offset 16
 1671 0004 00AF     		add	r7, sp, #0
 1672              		.cfi_def_cfa_register 7
 1673 0006 0346     		mov	r3, r0
 1674 0008 FB71     		strb	r3, [r7, #7]
 759:..\app.c      ****     
 760:..\app.c      ****     if(op){
 1675              		.loc 1 760 0
 1676 000a FB79     		ldrb	r3, [r7, #7]	@ zero_extendqisi2
 1677 000c 002B     		cmp	r3, #0
 1678 000e 09D0     		beq	.L58
 761:..\app.c      ****         ct_motor_Write(LIGA);  // liga contator
 1679              		.loc 1 761 0
 1680 0010 0120     		movs	r0, #1
 1681 0012 FFF7FEFF 		bl	ct_motor_Write
 762:..\app.c      ****         si_liga_Write(LIGA);   // liga sinaleira motor liga
 1682              		.loc 1 762 0
 1683 0016 0120     		movs	r0, #1
 1684 0018 FFF7FEFF 		bl	si_liga_Write
ARM GAS  C:\Users\alex\AppData\Local\Temp\ccrLK32p.s 			page 46


 763:..\app.c      ****         si_desl_Write(DESL);   // desl sinaleira motor desl
 1685              		.loc 1 763 0
 1686 001c 0020     		movs	r0, #0
 1687 001e FFF7FEFF 		bl	si_desl_Write
 764:..\app.c      ****                
 765:..\app.c      ****     }
 766:..\app.c      ****     else{
 767:..\app.c      ****         ct_motor_Write(DESL);   // desl contator
 768:..\app.c      ****         si_liga_Write(DESL);    // desl sinaleira motor liga
 769:..\app.c      ****         si_desl_Write(LIGA);    // liga sinaleira motor desl
 770:..\app.c      ****         
 771:..\app.c      ****     }
 772:..\app.c      ****     
 773:..\app.c      **** }
 1688              		.loc 1 773 0
 1689 0022 08E0     		b	.L60
 1690              	.L58:
 767:..\app.c      ****         si_liga_Write(DESL);    // desl sinaleira motor liga
 1691              		.loc 1 767 0
 1692 0024 0020     		movs	r0, #0
 1693 0026 FFF7FEFF 		bl	ct_motor_Write
 768:..\app.c      ****         si_desl_Write(LIGA);    // liga sinaleira motor desl
 1694              		.loc 1 768 0
 1695 002a 0020     		movs	r0, #0
 1696 002c FFF7FEFF 		bl	si_liga_Write
 769:..\app.c      ****         
 1697              		.loc 1 769 0
 1698 0030 0120     		movs	r0, #1
 1699 0032 FFF7FEFF 		bl	si_desl_Write
 1700              	.L60:
 1701              		.loc 1 773 0
 1702 0036 00BF     		nop
 1703 0038 0837     		adds	r7, r7, #8
 1704              		.cfi_def_cfa_offset 8
 1705 003a BD46     		mov	sp, r7
 1706              		.cfi_def_cfa_register 13
 1707              		@ sp needed
 1708 003c 80BD     		pop	{r7, pc}
 1709              		.cfi_endproc
 1710              	.LFE77:
 1711              		.size	statusMotor, .-statusMotor
 1712 003e 00BF     		.section	.text.statusRearme,"ax",%progbits
 1713              		.align	2
 1714              		.global	statusRearme
 1715              		.thumb
 1716              		.thumb_func
 1717              		.type	statusRearme, %function
 1718              	statusRearme:
 1719              	.LFB78:
 774:..\app.c      **** 
 775:..\app.c      **** void statusRearme(CPU_INT08U op){
 1720              		.loc 1 775 0
 1721              		.cfi_startproc
 1722              		@ args = 0, pretend = 0, frame = 8
 1723              		@ frame_needed = 1, uses_anonymous_args = 0
 1724 0000 80B5     		push	{r7, lr}
 1725              		.cfi_def_cfa_offset 8
ARM GAS  C:\Users\alex\AppData\Local\Temp\ccrLK32p.s 			page 47


 1726              		.cfi_offset 7, -8
 1727              		.cfi_offset 14, -4
 1728 0002 82B0     		sub	sp, sp, #8
 1729              		.cfi_def_cfa_offset 16
 1730 0004 00AF     		add	r7, sp, #0
 1731              		.cfi_def_cfa_register 7
 1732 0006 0346     		mov	r3, r0
 1733 0008 FB71     		strb	r3, [r7, #7]
 776:..\app.c      ****     
 777:..\app.c      ****     if(op){
 1734              		.loc 1 777 0
 1735 000a FB79     		ldrb	r3, [r7, #7]	@ zero_extendqisi2
 1736 000c 002B     		cmp	r3, #0
 1737 000e 06D0     		beq	.L62
 778:..\app.c      ****         si_rearme_Write(LIGA);  // liga sinaleira rearme
 1738              		.loc 1 778 0
 1739 0010 0120     		movs	r0, #1
 1740 0012 FFF7FEFF 		bl	si_rearme_Write
 779:..\app.c      ****         rearme = 1;
 1741              		.loc 1 779 0
 1742 0016 074B     		ldr	r3, .L65
 1743 0018 0122     		movs	r2, #1
 1744 001a 1A70     		strb	r2, [r3]
 780:..\app.c      ****         
 781:..\app.c      ****     }
 782:..\app.c      ****     else{
 783:..\app.c      ****         si_rearme_Write(DESL);  // desl sinaleira rearme
 784:..\app.c      ****         rearme = 0;
 785:..\app.c      ****     }
 786:..\app.c      ****     
 787:..\app.c      **** }
 1745              		.loc 1 787 0
 1746 001c 05E0     		b	.L64
 1747              	.L62:
 783:..\app.c      ****         rearme = 0;
 1748              		.loc 1 783 0
 1749 001e 0020     		movs	r0, #0
 1750 0020 FFF7FEFF 		bl	si_rearme_Write
 784:..\app.c      ****     }
 1751              		.loc 1 784 0
 1752 0024 034B     		ldr	r3, .L65
 1753 0026 0022     		movs	r2, #0
 1754 0028 1A70     		strb	r2, [r3]
 1755              	.L64:
 1756              		.loc 1 787 0
 1757 002a 00BF     		nop
 1758 002c 0837     		adds	r7, r7, #8
 1759              		.cfi_def_cfa_offset 8
 1760 002e BD46     		mov	sp, r7
 1761              		.cfi_def_cfa_register 13
 1762              		@ sp needed
 1763 0030 80BD     		pop	{r7, pc}
 1764              	.L66:
 1765 0032 00BF     		.align	2
 1766              	.L65:
 1767 0034 00000000 		.word	rearme
 1768              		.cfi_endproc
ARM GAS  C:\Users\alex\AppData\Local\Temp\ccrLK32p.s 			page 48


 1769              	.LFE78:
 1770              		.size	statusRearme, .-statusRearme
 1771              		.section	.text.statusEmerg,"ax",%progbits
 1772              		.align	2
 1773              		.global	statusEmerg
 1774              		.thumb
 1775              		.thumb_func
 1776              		.type	statusEmerg, %function
 1777              	statusEmerg:
 1778              	.LFB79:
 788:..\app.c      **** 
 789:..\app.c      **** void statusEmerg(CPU_INT08U op){
 1779              		.loc 1 789 0
 1780              		.cfi_startproc
 1781              		@ args = 0, pretend = 0, frame = 8
 1782              		@ frame_needed = 1, uses_anonymous_args = 0
 1783 0000 80B5     		push	{r7, lr}
 1784              		.cfi_def_cfa_offset 8
 1785              		.cfi_offset 7, -8
 1786              		.cfi_offset 14, -4
 1787 0002 82B0     		sub	sp, sp, #8
 1788              		.cfi_def_cfa_offset 16
 1789 0004 00AF     		add	r7, sp, #0
 1790              		.cfi_def_cfa_register 7
 1791 0006 0346     		mov	r3, r0
 1792 0008 FB71     		strb	r3, [r7, #7]
 790:..\app.c      ****     
 791:..\app.c      ****     if(op){
 1793              		.loc 1 791 0
 1794 000a FB79     		ldrb	r3, [r7, #7]	@ zero_extendqisi2
 1795 000c 002B     		cmp	r3, #0
 1796 000e 06D0     		beq	.L68
 792:..\app.c      ****         si_emerg_Write(LIGA);   // liga sinaleira emerg
 1797              		.loc 1 792 0
 1798 0010 0120     		movs	r0, #1
 1799 0012 FFF7FEFF 		bl	si_emerg_Write
 793:..\app.c      ****         emerg = 1;
 1800              		.loc 1 793 0
 1801 0016 074B     		ldr	r3, .L71
 1802 0018 0122     		movs	r2, #1
 1803 001a 1A70     		strb	r2, [r3]
 794:..\app.c      ****         
 795:..\app.c      ****     }
 796:..\app.c      ****     else{        
 797:..\app.c      ****         si_emerg_Write(DESL);   // desl sinaleira rearme
 798:..\app.c      ****         emerg = 0;
 799:..\app.c      ****         
 800:..\app.c      ****     }
 801:..\app.c      ****     
 802:..\app.c      **** }
 1804              		.loc 1 802 0
 1805 001c 05E0     		b	.L70
 1806              	.L68:
 797:..\app.c      ****         emerg = 0;
 1807              		.loc 1 797 0
 1808 001e 0020     		movs	r0, #0
 1809 0020 FFF7FEFF 		bl	si_emerg_Write
ARM GAS  C:\Users\alex\AppData\Local\Temp\ccrLK32p.s 			page 49


 798:..\app.c      ****         
 1810              		.loc 1 798 0
 1811 0024 034B     		ldr	r3, .L71
 1812 0026 0022     		movs	r2, #0
 1813 0028 1A70     		strb	r2, [r3]
 1814              	.L70:
 1815              		.loc 1 802 0
 1816 002a 00BF     		nop
 1817 002c 0837     		adds	r7, r7, #8
 1818              		.cfi_def_cfa_offset 8
 1819 002e BD46     		mov	sp, r7
 1820              		.cfi_def_cfa_register 13
 1821              		@ sp needed
 1822 0030 80BD     		pop	{r7, pc}
 1823              	.L72:
 1824 0032 00BF     		.align	2
 1825              	.L71:
 1826 0034 00000000 		.word	emerg
 1827              		.cfi_endproc
 1828              	.LFE79:
 1829              		.size	statusEmerg, .-statusEmerg
 1830              		.section	.text.statusAlerta,"ax",%progbits
 1831              		.align	2
 1832              		.global	statusAlerta
 1833              		.thumb
 1834              		.thumb_func
 1835              		.type	statusAlerta, %function
 1836              	statusAlerta:
 1837              	.LFB80:
 803:..\app.c      **** 
 804:..\app.c      **** void statusAlerta(CPU_INT08U op){
 1838              		.loc 1 804 0
 1839              		.cfi_startproc
 1840              		@ args = 0, pretend = 0, frame = 8
 1841              		@ frame_needed = 1, uses_anonymous_args = 0
 1842 0000 80B5     		push	{r7, lr}
 1843              		.cfi_def_cfa_offset 8
 1844              		.cfi_offset 7, -8
 1845              		.cfi_offset 14, -4
 1846 0002 82B0     		sub	sp, sp, #8
 1847              		.cfi_def_cfa_offset 16
 1848 0004 00AF     		add	r7, sp, #0
 1849              		.cfi_def_cfa_register 7
 1850 0006 0346     		mov	r3, r0
 1851 0008 FB71     		strb	r3, [r7, #7]
 805:..\app.c      ****     
 806:..\app.c      ****     if(op){
 1852              		.loc 1 806 0
 1853 000a FB79     		ldrb	r3, [r7, #7]	@ zero_extendqisi2
 1854 000c 002B     		cmp	r3, #0
 1855 000e 06D0     		beq	.L74
 807:..\app.c      ****         si_alerta_Write(LIGA);   // liga sinaleira alerta
 1856              		.loc 1 807 0
 1857 0010 0120     		movs	r0, #1
 1858 0012 FFF7FEFF 		bl	si_alerta_Write
 808:..\app.c      ****         alerta = 1;
 1859              		.loc 1 808 0
ARM GAS  C:\Users\alex\AppData\Local\Temp\ccrLK32p.s 			page 50


 1860 0016 074B     		ldr	r3, .L77
 1861 0018 0122     		movs	r2, #1
 1862 001a 1A70     		strb	r2, [r3]
 809:..\app.c      ****         
 810:..\app.c      ****     }
 811:..\app.c      ****     else{        
 812:..\app.c      ****         si_alerta_Write(DESL);   // desl sinaleira alerta
 813:..\app.c      ****         alerta = 0;
 814:..\app.c      ****         
 815:..\app.c      ****     }
 816:..\app.c      ****     
 817:..\app.c      **** }
 1863              		.loc 1 817 0
 1864 001c 05E0     		b	.L76
 1865              	.L74:
 812:..\app.c      ****         alerta = 0;
 1866              		.loc 1 812 0
 1867 001e 0020     		movs	r0, #0
 1868 0020 FFF7FEFF 		bl	si_alerta_Write
 813:..\app.c      ****         
 1869              		.loc 1 813 0
 1870 0024 034B     		ldr	r3, .L77
 1871 0026 0022     		movs	r2, #0
 1872 0028 1A70     		strb	r2, [r3]
 1873              	.L76:
 1874              		.loc 1 817 0
 1875 002a 00BF     		nop
 1876 002c 0837     		adds	r7, r7, #8
 1877              		.cfi_def_cfa_offset 8
 1878 002e BD46     		mov	sp, r7
 1879              		.cfi_def_cfa_register 13
 1880              		@ sp needed
 1881 0030 80BD     		pop	{r7, pc}
 1882              	.L78:
 1883 0032 00BF     		.align	2
 1884              	.L77:
 1885 0034 00000000 		.word	alerta
 1886              		.cfi_endproc
 1887              	.LFE80:
 1888              		.size	statusAlerta, .-statusAlerta
 1889              		.text
 1890              	.Letext0:
 1891              		.file 2 "c:\\program files (x86)\\cypress\\psoc creator\\4.4\\psoc creator\\import\\gnu\\arm\\5.4.
 1892              		.file 3 "c:\\program files (x86)\\cypress\\psoc creator\\4.4\\psoc creator\\import\\gnu\\arm\\5.4.
 1893              		.file 4 "..\\..\\..\\..\\..\\..\\uC-CPU\\ARM-Cortex-M3\\GNU/cpu.h"
 1894              		.file 5 "..\\..\\..\\..\\..\\..\\uC-CPU/cpu_core.h"
 1895              		.file 6 "..\\..\\..\\..\\..\\..\\uCOS-III\\Source/os_type.h"
 1896              		.file 7 "..\\..\\..\\..\\..\\..\\uCOS-III\\Source/os.h"
 1897              		.file 8 "Generated_Source\\PSoC5/cytypes.h"
 1898              		.file 9 "Generated_Source\\PSoC5/core_cm3.h"
 1899              		.section	.debug_info,"",%progbits
 1900              	.Ldebug_info0:
 1901 0000 AB100000 		.4byte	0x10ab
 1902 0004 0400     		.2byte	0x4
 1903 0006 00000000 		.4byte	.Ldebug_abbrev0
 1904 000a 04       		.byte	0x4
 1905 000b 01       		.uleb128 0x1
ARM GAS  C:\Users\alex\AppData\Local\Temp\ccrLK32p.s 			page 51


 1906 000c CF0A0000 		.4byte	.LASF340
 1907 0010 0C       		.byte	0xc
 1908 0011 A30B0000 		.4byte	.LASF341
 1909 0015 36010000 		.4byte	.LASF342
 1910 0019 00000000 		.4byte	.Ldebug_ranges0+0
 1911 001d 00000000 		.4byte	0
 1912 0021 00000000 		.4byte	.Ldebug_line0
 1913 0025 02       		.uleb128 0x2
 1914 0026 04       		.byte	0x4
 1915 0027 03       		.uleb128 0x3
 1916 0028 01       		.byte	0x1
 1917 0029 06       		.byte	0x6
 1918 002a 7F040000 		.4byte	.LASF0
 1919 002e 03       		.uleb128 0x3
 1920 002f 01       		.byte	0x1
 1921 0030 08       		.byte	0x8
 1922 0031 61050000 		.4byte	.LASF1
 1923 0035 03       		.uleb128 0x3
 1924 0036 02       		.byte	0x2
 1925 0037 05       		.byte	0x5
 1926 0038 E4110000 		.4byte	.LASF2
 1927 003c 03       		.uleb128 0x3
 1928 003d 02       		.byte	0x2
 1929 003e 07       		.byte	0x7
 1930 003f 47140000 		.4byte	.LASF3
 1931 0043 04       		.uleb128 0x4
 1932 0044 E7140000 		.4byte	.LASF12
 1933 0048 02       		.byte	0x2
 1934 0049 3F       		.byte	0x3f
 1935 004a 4E000000 		.4byte	0x4e
 1936 004e 03       		.uleb128 0x3
 1937 004f 04       		.byte	0x4
 1938 0050 05       		.byte	0x5
 1939 0051 54030000 		.4byte	.LASF4
 1940 0055 03       		.uleb128 0x3
 1941 0056 04       		.byte	0x4
 1942 0057 07       		.byte	0x7
 1943 0058 BB090000 		.4byte	.LASF5
 1944 005c 03       		.uleb128 0x3
 1945 005d 08       		.byte	0x8
 1946 005e 05       		.byte	0x5
 1947 005f 8D0B0000 		.4byte	.LASF6
 1948 0063 03       		.uleb128 0x3
 1949 0064 08       		.byte	0x8
 1950 0065 07       		.byte	0x7
 1951 0066 4F0F0000 		.4byte	.LASF7
 1952 006a 05       		.uleb128 0x5
 1953 006b 04       		.byte	0x4
 1954 006c 05       		.byte	0x5
 1955 006d 696E7400 		.ascii	"int\000"
 1956 0071 03       		.uleb128 0x3
 1957 0072 04       		.byte	0x4
 1958 0073 07       		.byte	0x7
 1959 0074 E00C0000 		.4byte	.LASF8
 1960 0078 03       		.uleb128 0x3
 1961 0079 08       		.byte	0x8
 1962 007a 04       		.byte	0x4
ARM GAS  C:\Users\alex\AppData\Local\Temp\ccrLK32p.s 			page 52


 1963 007b 040E0000 		.4byte	.LASF9
 1964 007f 03       		.uleb128 0x3
 1965 0080 04       		.byte	0x4
 1966 0081 07       		.byte	0x7
 1967 0082 61000000 		.4byte	.LASF10
 1968 0086 03       		.uleb128 0x3
 1969 0087 01       		.byte	0x1
 1970 0088 08       		.byte	0x8
 1971 0089 51060000 		.4byte	.LASF11
 1972 008d 04       		.uleb128 0x4
 1973 008e D4000000 		.4byte	.LASF13
 1974 0092 03       		.byte	0x3
 1975 0093 2C       		.byte	0x2c
 1976 0094 43000000 		.4byte	0x43
 1977 0098 03       		.uleb128 0x3
 1978 0099 08       		.byte	0x8
 1979 009a 04       		.byte	0x4
 1980 009b C30B0000 		.4byte	.LASF14
 1981 009f 03       		.uleb128 0x3
 1982 00a0 04       		.byte	0x4
 1983 00a1 04       		.byte	0x4
 1984 00a2 730C0000 		.4byte	.LASF15
 1985 00a6 04       		.uleb128 0x4
 1986 00a7 EB000000 		.4byte	.LASF16
 1987 00ab 04       		.byte	0x4
 1988 00ac 76       		.byte	0x76
 1989 00ad 86000000 		.4byte	0x86
 1990 00b1 04       		.uleb128 0x4
 1991 00b2 6A000000 		.4byte	.LASF17
 1992 00b6 04       		.byte	0x4
 1993 00b7 77       		.byte	0x77
 1994 00b8 2E000000 		.4byte	0x2e
 1995 00bc 04       		.uleb128 0x4
 1996 00bd 8D130000 		.4byte	.LASF18
 1997 00c1 04       		.byte	0x4
 1998 00c2 78       		.byte	0x78
 1999 00c3 2E000000 		.4byte	0x2e
 2000 00c7 04       		.uleb128 0x4
 2001 00c8 18010000 		.4byte	.LASF19
 2002 00cc 04       		.byte	0x4
 2003 00cd 7A       		.byte	0x7a
 2004 00ce 3C000000 		.4byte	0x3c
 2005 00d2 04       		.uleb128 0x4
 2006 00d3 A4070000 		.4byte	.LASF20
 2007 00d7 04       		.byte	0x4
 2008 00d8 7C       		.byte	0x7c
 2009 00d9 71000000 		.4byte	0x71
 2010 00dd 06       		.uleb128 0x6
 2011 00de 04       		.byte	0x4
 2012 00df E3000000 		.4byte	0xe3
 2013 00e3 07       		.uleb128 0x7
 2014 00e4 EE000000 		.4byte	0xee
 2015 00e8 08       		.uleb128 0x8
 2016 00e9 25000000 		.4byte	0x25
 2017 00ed 00       		.byte	0
 2018 00ee 04       		.uleb128 0x4
 2019 00ef 00080000 		.4byte	.LASF21
ARM GAS  C:\Users\alex\AppData\Local\Temp\ccrLK32p.s 			page 53


 2020 00f3 04       		.byte	0x4
 2021 00f4 B5       		.byte	0xb5
 2022 00f5 D2000000 		.4byte	0xd2
 2023 00f9 04       		.uleb128 0x4
 2024 00fa 1A020000 		.4byte	.LASF22
 2025 00fe 04       		.byte	0x4
 2026 00ff D9       		.byte	0xd9
 2027 0100 D2000000 		.4byte	0xd2
 2028 0104 04       		.uleb128 0x4
 2029 0105 980C0000 		.4byte	.LASF23
 2030 0109 04       		.byte	0x4
 2031 010a DA       		.byte	0xda
 2032 010b EE000000 		.4byte	0xee
 2033 010f 04       		.uleb128 0x4
 2034 0110 DC080000 		.4byte	.LASF24
 2035 0114 05       		.byte	0x5
 2036 0115 C4       		.byte	0xc4
 2037 0116 D2000000 		.4byte	0xd2
 2038 011a 04       		.uleb128 0x4
 2039 011b 18040000 		.4byte	.LASF25
 2040 011f 05       		.byte	0x5
 2041 0120 C7       		.byte	0xc7
 2042 0121 0F010000 		.4byte	0x10f
 2043 0125 04       		.uleb128 0x4
 2044 0126 CD090000 		.4byte	.LASF26
 2045 012a 06       		.byte	0x6
 2046 012b 30       		.byte	0x30
 2047 012c C7000000 		.4byte	0xc7
 2048 0130 04       		.uleb128 0x4
 2049 0131 E5080000 		.4byte	.LASF27
 2050 0135 06       		.byte	0x6
 2051 0136 34       		.byte	0x34
 2052 0137 D2000000 		.4byte	0xd2
 2053 013b 04       		.uleb128 0x4
 2054 013c 25060000 		.4byte	.LASF28
 2055 0140 06       		.byte	0x6
 2056 0141 36       		.byte	0x36
 2057 0142 D2000000 		.4byte	0xd2
 2058 0146 04       		.uleb128 0x4
 2059 0147 CD110000 		.4byte	.LASF29
 2060 014b 06       		.byte	0x6
 2061 014c 38       		.byte	0x38
 2062 014d D2000000 		.4byte	0xd2
 2063 0151 04       		.uleb128 0x4
 2064 0152 75130000 		.4byte	.LASF30
 2065 0156 06       		.byte	0x6
 2066 0157 3F       		.byte	0x3f
 2067 0158 C7000000 		.4byte	0xc7
 2068 015c 04       		.uleb128 0x4
 2069 015d 190D0000 		.4byte	.LASF31
 2070 0161 06       		.byte	0x6
 2071 0162 40       		.byte	0x40
 2072 0163 C7000000 		.4byte	0xc7
 2073 0167 04       		.uleb128 0x4
 2074 0168 3C0C0000 		.4byte	.LASF32
 2075 016c 06       		.byte	0x6
 2076 016d 42       		.byte	0x42
ARM GAS  C:\Users\alex\AppData\Local\Temp\ccrLK32p.s 			page 54


 2077 016e BC000000 		.4byte	0xbc
 2078 0172 04       		.uleb128 0x4
 2079 0173 860A0000 		.4byte	.LASF33
 2080 0177 06       		.byte	0x6
 2081 0178 44       		.byte	0x44
 2082 0179 C7000000 		.4byte	0xc7
 2083 017d 04       		.uleb128 0x4
 2084 017e 2F060000 		.4byte	.LASF34
 2085 0182 06       		.byte	0x6
 2086 0183 45       		.byte	0x45
 2087 0184 D2000000 		.4byte	0xd2
 2088 0188 04       		.uleb128 0x4
 2089 0189 8C020000 		.4byte	.LASF35
 2090 018d 06       		.byte	0x6
 2091 018e 47       		.byte	0x47
 2092 018f C7000000 		.4byte	0xc7
 2093 0193 04       		.uleb128 0x4
 2094 0194 7C0B0000 		.4byte	.LASF36
 2095 0198 06       		.byte	0x6
 2096 0199 49       		.byte	0x49
 2097 019a BC000000 		.4byte	0xbc
 2098 019e 04       		.uleb128 0x4
 2099 019f F30F0000 		.4byte	.LASF37
 2100 01a3 06       		.byte	0x6
 2101 01a4 4D       		.byte	0x4d
 2102 01a5 D2000000 		.4byte	0xd2
 2103 01a9 04       		.uleb128 0x4
 2104 01aa 21080000 		.4byte	.LASF38
 2105 01ae 06       		.byte	0x6
 2106 01af 4F       		.byte	0x4f
 2107 01b0 D2000000 		.4byte	0xd2
 2108 01b4 04       		.uleb128 0x4
 2109 01b5 120C0000 		.4byte	.LASF39
 2110 01b9 06       		.byte	0x6
 2111 01ba 52       		.byte	0x52
 2112 01bb D2000000 		.4byte	0xd2
 2113 01bf 04       		.uleb128 0x4
 2114 01c0 0D060000 		.4byte	.LASF40
 2115 01c4 06       		.byte	0x6
 2116 01c5 54       		.byte	0x54
 2117 01c6 BC000000 		.4byte	0xbc
 2118 01ca 04       		.uleb128 0x4
 2119 01cb C50D0000 		.4byte	.LASF41
 2120 01cf 06       		.byte	0x6
 2121 01d0 56       		.byte	0x56
 2122 01d1 BC000000 		.4byte	0xbc
 2123 01d5 04       		.uleb128 0x4
 2124 01d6 9B0B0000 		.4byte	.LASF42
 2125 01da 06       		.byte	0x6
 2126 01db 58       		.byte	0x58
 2127 01dc D2000000 		.4byte	0xd2
 2128 01e0 09       		.uleb128 0x9
 2129 01e1 450E0000 		.4byte	.LASF290
 2130 01e5 02       		.byte	0x2
 2131 01e6 3C000000 		.4byte	0x3c
 2132 01ea 07       		.byte	0x7
 2133 01eb A501     		.2byte	0x1a5
ARM GAS  C:\Users\alex\AppData\Local\Temp\ccrLK32p.s 			page 55


 2134 01ed 58060000 		.4byte	0x658
 2135 01f1 0A       		.uleb128 0xa
 2136 01f2 650B0000 		.4byte	.LASF43
 2137 01f6 00       		.byte	0
 2138 01f7 0B       		.uleb128 0xb
 2139 01f8 2E040000 		.4byte	.LASF44
 2140 01fc 1027     		.2byte	0x2710
 2141 01fe 0B       		.uleb128 0xb
 2142 01ff CA060000 		.4byte	.LASF45
 2143 0203 1127     		.2byte	0x2711
 2144 0205 0B       		.uleb128 0xb
 2145 0206 37040000 		.4byte	.LASF46
 2146 020a F82A     		.2byte	0x2af8
 2147 020c 0B       		.uleb128 0xb
 2148 020d 40040000 		.4byte	.LASF47
 2149 0211 E02E     		.2byte	0x2ee0
 2150 0213 0B       		.uleb128 0xb
 2151 0214 050A0000 		.4byte	.LASF48
 2152 0218 E12E     		.2byte	0x2ee1
 2153 021a 0B       		.uleb128 0xb
 2154 021b 49040000 		.4byte	.LASF49
 2155 021f C832     		.2byte	0x32c8
 2156 0221 0B       		.uleb128 0xb
 2157 0222 04120000 		.4byte	.LASF50
 2158 0226 C932     		.2byte	0x32c9
 2159 0228 0B       		.uleb128 0xb
 2160 0229 52040000 		.4byte	.LASF51
 2161 022d B036     		.2byte	0x36b0
 2162 022f 0B       		.uleb128 0xb
 2163 0230 5B040000 		.4byte	.LASF52
 2164 0234 983A     		.2byte	0x3a98
 2165 0236 0B       		.uleb128 0xb
 2166 0237 04040000 		.4byte	.LASF53
 2167 023b 993A     		.2byte	0x3a99
 2168 023d 0B       		.uleb128 0xb
 2169 023e A80F0000 		.4byte	.LASF54
 2170 0242 FD3A     		.2byte	0x3afd
 2171 0244 0B       		.uleb128 0xb
 2172 0245 79050000 		.4byte	.LASF55
 2173 0249 FE3A     		.2byte	0x3afe
 2174 024b 0B       		.uleb128 0xb
 2175 024c 2A130000 		.4byte	.LASF56
 2176 0250 FF3A     		.2byte	0x3aff
 2177 0252 0B       		.uleb128 0xb
 2178 0253 260F0000 		.4byte	.LASF57
 2179 0257 003B     		.2byte	0x3b00
 2180 0259 0B       		.uleb128 0xb
 2181 025a 64040000 		.4byte	.LASF58
 2182 025e 803E     		.2byte	0x3e80
 2183 0260 0B       		.uleb128 0xb
 2184 0261 6D040000 		.4byte	.LASF59
 2185 0265 6842     		.2byte	0x4268
 2186 0267 0B       		.uleb128 0xb
 2187 0268 76040000 		.4byte	.LASF60
 2188 026c 5046     		.2byte	0x4650
 2189 026e 0B       		.uleb128 0xb
 2190 026f A50C0000 		.4byte	.LASF61
ARM GAS  C:\Users\alex\AppData\Local\Temp\ccrLK32p.s 			page 56


 2191 0273 5146     		.2byte	0x4651
 2192 0275 0B       		.uleb128 0xb
 2193 0276 8D140000 		.4byte	.LASF62
 2194 027a 5246     		.2byte	0x4652
 2195 027c 0B       		.uleb128 0xb
 2196 027d 5D030000 		.4byte	.LASF63
 2197 0281 5346     		.2byte	0x4653
 2198 0283 0B       		.uleb128 0xb
 2199 0284 C2100000 		.4byte	.LASF64
 2200 0288 5446     		.2byte	0x4654
 2201 028a 0B       		.uleb128 0xb
 2202 028b 42080000 		.4byte	.LASF65
 2203 028f 5546     		.2byte	0x4655
 2204 0291 0B       		.uleb128 0xb
 2205 0292 5B080000 		.4byte	.LASF66
 2206 0296 5646     		.2byte	0x4656
 2207 0298 0B       		.uleb128 0xb
 2208 0299 76000000 		.4byte	.LASF67
 2209 029d 384A     		.2byte	0x4a38
 2210 029f 0B       		.uleb128 0xb
 2211 02a0 8B040000 		.4byte	.LASF68
 2212 02a4 204E     		.2byte	0x4e20
 2213 02a6 0B       		.uleb128 0xb
 2214 02a7 94040000 		.4byte	.LASF69
 2215 02ab 0852     		.2byte	0x5208
 2216 02ad 0B       		.uleb128 0xb
 2217 02ae 5A110000 		.4byte	.LASF70
 2218 02b2 0952     		.2byte	0x5209
 2219 02b4 0B       		.uleb128 0xb
 2220 02b5 9D040000 		.4byte	.LASF71
 2221 02b9 F055     		.2byte	0x55f0
 2222 02bb 0B       		.uleb128 0xb
 2223 02bc 3B060000 		.4byte	.LASF72
 2224 02c0 B956     		.2byte	0x56b9
 2225 02c2 0B       		.uleb128 0xb
 2226 02c3 00000000 		.4byte	.LASF73
 2227 02c7 BA56     		.2byte	0x56ba
 2228 02c9 0B       		.uleb128 0xb
 2229 02ca F1060000 		.4byte	.LASF74
 2230 02ce BB56     		.2byte	0x56bb
 2231 02d0 0B       		.uleb128 0xb
 2232 02d1 76060000 		.4byte	.LASF75
 2233 02d5 BC56     		.2byte	0x56bc
 2234 02d7 0B       		.uleb128 0xb
 2235 02d8 91080000 		.4byte	.LASF76
 2236 02dc BD56     		.2byte	0x56bd
 2237 02de 0B       		.uleb128 0xb
 2238 02df 0D0F0000 		.4byte	.LASF77
 2239 02e3 BE56     		.2byte	0x56be
 2240 02e5 0B       		.uleb128 0xb
 2241 02e6 C10E0000 		.4byte	.LASF78
 2242 02ea BF56     		.2byte	0x56bf
 2243 02ec 0B       		.uleb128 0xb
 2244 02ed D90F0000 		.4byte	.LASF79
 2245 02f1 C056     		.2byte	0x56c0
 2246 02f3 0B       		.uleb128 0xb
 2247 02f4 5E100000 		.4byte	.LASF80
ARM GAS  C:\Users\alex\AppData\Local\Temp\ccrLK32p.s 			page 57


 2248 02f8 C156     		.2byte	0x56c1
 2249 02fa 0B       		.uleb128 0xb
 2250 02fb FC020000 		.4byte	.LASF81
 2251 02ff C256     		.2byte	0x56c2
 2252 0301 0B       		.uleb128 0xb
 2253 0302 A6020000 		.4byte	.LASF82
 2254 0306 1D57     		.2byte	0x571d
 2255 0308 0B       		.uleb128 0xb
 2256 0309 3F130000 		.4byte	.LASF83
 2257 030d 1E57     		.2byte	0x571e
 2258 030f 0B       		.uleb128 0xb
 2259 0310 19070000 		.4byte	.LASF84
 2260 0314 8157     		.2byte	0x5781
 2261 0316 0B       		.uleb128 0xb
 2262 0317 2C030000 		.4byte	.LASF85
 2263 031b 8257     		.2byte	0x5782
 2264 031d 0B       		.uleb128 0xb
 2265 031e E80E0000 		.4byte	.LASF86
 2266 0322 8357     		.2byte	0x5783
 2267 0324 0B       		.uleb128 0xb
 2268 0325 A6040000 		.4byte	.LASF87
 2269 0329 D859     		.2byte	0x59d8
 2270 032b 0B       		.uleb128 0xb
 2271 032c A00D0000 		.4byte	.LASF88
 2272 0330 D959     		.2byte	0x59d9
 2273 0332 0B       		.uleb128 0xb
 2274 0333 34090000 		.4byte	.LASF89
 2275 0337 DA59     		.2byte	0x59da
 2276 0339 0B       		.uleb128 0xb
 2277 033a AF040000 		.4byte	.LASF90
 2278 033e C05D     		.2byte	0x5dc0
 2279 0340 0B       		.uleb128 0xb
 2280 0341 BC020000 		.4byte	.LASF91
 2281 0345 C15D     		.2byte	0x5dc1
 2282 0347 0B       		.uleb128 0xb
 2283 0348 B5080000 		.4byte	.LASF92
 2284 034c C25D     		.2byte	0x5dc2
 2285 034e 0B       		.uleb128 0xb
 2286 034f EF130000 		.4byte	.LASF93
 2287 0353 C35D     		.2byte	0x5dc3
 2288 0355 0B       		.uleb128 0xb
 2289 0356 F1140000 		.4byte	.LASF94
 2290 035a C45D     		.2byte	0x5dc4
 2291 035c 0B       		.uleb128 0xb
 2292 035d 17130000 		.4byte	.LASF95
 2293 0361 255E     		.2byte	0x5e25
 2294 0363 0B       		.uleb128 0xb
 2295 0364 250D0000 		.4byte	.LASF96
 2296 0368 895E     		.2byte	0x5e89
 2297 036a 0B       		.uleb128 0xb
 2298 036b B30D0000 		.4byte	.LASF97
 2299 036f 8A5E     		.2byte	0x5e8a
 2300 0371 0B       		.uleb128 0xb
 2301 0372 B8040000 		.4byte	.LASF98
 2302 0376 A861     		.2byte	0x61a8
 2303 0378 0B       		.uleb128 0xb
 2304 0379 37070000 		.4byte	.LASF99
ARM GAS  C:\Users\alex\AppData\Local\Temp\ccrLK32p.s 			page 58


 2305 037d A961     		.2byte	0x61a9
 2306 037f 0B       		.uleb128 0xb
 2307 0380 230A0000 		.4byte	.LASF100
 2308 0384 AA61     		.2byte	0x61aa
 2309 0386 0B       		.uleb128 0xb
 2310 0387 DE010000 		.4byte	.LASF101
 2311 038b AB61     		.2byte	0x61ab
 2312 038d 0B       		.uleb128 0xb
 2313 038e AC0B0000 		.4byte	.LASF102
 2314 0392 AC61     		.2byte	0x61ac
 2315 0394 0B       		.uleb128 0xb
 2316 0395 FD0E0000 		.4byte	.LASF103
 2317 0399 AD61     		.2byte	0x61ad
 2318 039b 0B       		.uleb128 0xb
 2319 039c 6F030000 		.4byte	.LASF104
 2320 03a0 AE61     		.2byte	0x61ae
 2321 03a2 0B       		.uleb128 0xb
 2322 03a3 F10D0000 		.4byte	.LASF105
 2323 03a7 AF61     		.2byte	0x61af
 2324 03a9 0B       		.uleb128 0xb
 2325 03aa 3D150000 		.4byte	.LASF106
 2326 03ae B061     		.2byte	0x61b0
 2327 03b0 0B       		.uleb128 0xb
 2328 03b1 6B0D0000 		.4byte	.LASF107
 2329 03b5 0D62     		.2byte	0x620d
 2330 03b7 0B       		.uleb128 0xb
 2331 03b8 46050000 		.4byte	.LASF108
 2332 03bc 0E62     		.2byte	0x620e
 2333 03be 0B       		.uleb128 0xb
 2334 03bf 81120000 		.4byte	.LASF109
 2335 03c3 7162     		.2byte	0x6271
 2336 03c5 0B       		.uleb128 0xb
 2337 03c6 81140000 		.4byte	.LASF110
 2338 03ca 7262     		.2byte	0x6272
 2339 03cc 0B       		.uleb128 0xb
 2340 03cd 0A100000 		.4byte	.LASF111
 2341 03d1 7362     		.2byte	0x6273
 2342 03d3 0B       		.uleb128 0xb
 2343 03d4 950F0000 		.4byte	.LASF112
 2344 03d8 D562     		.2byte	0x62d5
 2345 03da 0B       		.uleb128 0xb
 2346 03db C1040000 		.4byte	.LASF113
 2347 03df 9065     		.2byte	0x6590
 2348 03e1 0B       		.uleb128 0xb
 2349 03e2 410F0000 		.4byte	.LASF114
 2350 03e6 9165     		.2byte	0x6591
 2351 03e8 0B       		.uleb128 0xb
 2352 03e9 22120000 		.4byte	.LASF115
 2353 03ed 9265     		.2byte	0x6592
 2354 03ef 0B       		.uleb128 0xb
 2355 03f0 80130000 		.4byte	.LASF116
 2356 03f4 9365     		.2byte	0x6593
 2357 03f6 0B       		.uleb128 0xb
 2358 03f7 0B070000 		.4byte	.LASF117
 2359 03fb 9465     		.2byte	0x6594
 2360 03fd 0B       		.uleb128 0xb
 2361 03fe CA040000 		.4byte	.LASF118
ARM GAS  C:\Users\alex\AppData\Local\Temp\ccrLK32p.s 			page 59


 2362 0402 7869     		.2byte	0x6978
 2363 0404 0B       		.uleb128 0xb
 2364 0405 25100000 		.4byte	.LASF119
 2365 0409 7969     		.2byte	0x6979
 2366 040b 0B       		.uleb128 0xb
 2367 040c F4000000 		.4byte	.LASF120
 2368 0410 7A69     		.2byte	0x697a
 2369 0412 0B       		.uleb128 0xb
 2370 0413 A7130000 		.4byte	.LASF121
 2371 0417 7B69     		.2byte	0x697b
 2372 0419 0B       		.uleb128 0xb
 2373 041a D3040000 		.4byte	.LASF122
 2374 041e 606D     		.2byte	0x6d60
 2375 0420 0B       		.uleb128 0xb
 2376 0421 800D0000 		.4byte	.LASF123
 2377 0425 616D     		.2byte	0x6d61
 2378 0427 0B       		.uleb128 0xb
 2379 0428 83150000 		.4byte	.LASF124
 2380 042c 626D     		.2byte	0x6d62
 2381 042e 0B       		.uleb128 0xb
 2382 042f 7F030000 		.4byte	.LASF125
 2383 0433 636D     		.2byte	0x6d63
 2384 0435 0B       		.uleb128 0xb
 2385 0436 C4080000 		.4byte	.LASF126
 2386 043a 646D     		.2byte	0x6d64
 2387 043c 0B       		.uleb128 0xb
 2388 043d 09080000 		.4byte	.LASF127
 2389 0441 656D     		.2byte	0x6d65
 2390 0443 0B       		.uleb128 0xb
 2391 0444 09010000 		.4byte	.LASF128
 2392 0448 C56D     		.2byte	0x6dc5
 2393 044a 0B       		.uleb128 0xb
 2394 044b 280E0000 		.4byte	.LASF129
 2395 044f C66D     		.2byte	0x6dc6
 2396 0451 0B       		.uleb128 0xb
 2397 0452 31120000 		.4byte	.LASF130
 2398 0456 296E     		.2byte	0x6e29
 2399 0458 0B       		.uleb128 0xb
 2400 0459 4B0C0000 		.4byte	.LASF131
 2401 045d 2A6E     		.2byte	0x6e2a
 2402 045f 0B       		.uleb128 0xb
 2403 0460 B0010000 		.4byte	.LASF132
 2404 0464 2B6E     		.2byte	0x6e2b
 2405 0466 0B       		.uleb128 0xb
 2406 0467 7B070000 		.4byte	.LASF133
 2407 046b 2C6E     		.2byte	0x6e2c
 2408 046d 0B       		.uleb128 0xb
 2409 046e F8050000 		.4byte	.LASF134
 2410 0472 2D6E     		.2byte	0x6e2d
 2411 0474 0B       		.uleb128 0xb
 2412 0475 35110000 		.4byte	.LASF135
 2413 0479 2E6E     		.2byte	0x6e2e
 2414 047b 0B       		.uleb128 0xb
 2415 047c A8090000 		.4byte	.LASF136
 2416 0480 2F6E     		.2byte	0x6e2f
 2417 0482 0B       		.uleb128 0xb
 2418 0483 49070000 		.4byte	.LASF137
ARM GAS  C:\Users\alex\AppData\Local\Temp\ccrLK32p.s 			page 60


 2419 0487 306E     		.2byte	0x6e30
 2420 0489 0B       		.uleb128 0xb
 2421 048a 7F0C0000 		.4byte	.LASF138
 2422 048e 316E     		.2byte	0x6e31
 2423 0490 0B       		.uleb128 0xb
 2424 0491 DC040000 		.4byte	.LASF139
 2425 0495 4871     		.2byte	0x7148
 2426 0497 0B       		.uleb128 0xb
 2427 0498 08150000 		.4byte	.LASF140
 2428 049c 4971     		.2byte	0x7149
 2429 049e 0B       		.uleb128 0xb
 2430 049f 4C090000 		.4byte	.LASF141
 2431 04a3 4A71     		.2byte	0x714a
 2432 04a5 0B       		.uleb128 0xb
 2433 04a6 8F0E0000 		.4byte	.LASF142
 2434 04aa 4B71     		.2byte	0x714b
 2435 04ac 0B       		.uleb128 0xb
 2436 04ad 6C140000 		.4byte	.LASF143
 2437 04b1 4C71     		.2byte	0x714c
 2438 04b3 0B       		.uleb128 0xb
 2439 04b4 8A100000 		.4byte	.LASF144
 2440 04b8 4D71     		.2byte	0x714d
 2441 04ba 0B       		.uleb128 0xb
 2442 04bb FE0B0000 		.4byte	.LASF145
 2443 04bf 4E71     		.2byte	0x714e
 2444 04c1 0B       		.uleb128 0xb
 2445 04c2 47120000 		.4byte	.LASF146
 2446 04c6 4F71     		.2byte	0x714f
 2447 04c8 0B       		.uleb128 0xb
 2448 04c9 63020000 		.4byte	.LASF147
 2449 04cd 5071     		.2byte	0x7150
 2450 04cf 0B       		.uleb128 0xb
 2451 04d0 F1090000 		.4byte	.LASF148
 2452 04d4 5171     		.2byte	0x7151
 2453 04d6 0B       		.uleb128 0xb
 2454 04d7 AB0E0000 		.4byte	.LASF149
 2455 04db 5271     		.2byte	0x7152
 2456 04dd 0B       		.uleb128 0xb
 2457 04de 61070000 		.4byte	.LASF150
 2458 04e2 5371     		.2byte	0x7153
 2459 04e4 0B       		.uleb128 0xb
 2460 04e5 E8050000 		.4byte	.LASF151
 2461 04e9 5471     		.2byte	0x7154
 2462 04eb 0B       		.uleb128 0xb
 2463 04ec DA090000 		.4byte	.LASF152
 2464 04f0 5571     		.2byte	0x7155
 2465 04f2 0B       		.uleb128 0xb
 2466 04f3 C10F0000 		.4byte	.LASF153
 2467 04f7 5671     		.2byte	0x7156
 2468 04f9 0B       		.uleb128 0xb
 2469 04fa 660F0000 		.4byte	.LASF154
 2470 04fe 5771     		.2byte	0x7157
 2471 0500 0B       		.uleb128 0xb
 2472 0501 9A140000 		.4byte	.LASF155
 2473 0505 5871     		.2byte	0x7158
 2474 0507 0B       		.uleb128 0xb
 2475 0508 390A0000 		.4byte	.LASF156
ARM GAS  C:\Users\alex\AppData\Local\Temp\ccrLK32p.s 			page 61


 2476 050c 5971     		.2byte	0x7159
 2477 050e 0B       		.uleb128 0xb
 2478 050f C3030000 		.4byte	.LASF157
 2479 0513 5A71     		.2byte	0x715a
 2480 0515 0B       		.uleb128 0xb
 2481 0516 6A0E0000 		.4byte	.LASF158
 2482 051a 5B71     		.2byte	0x715b
 2483 051c 0B       		.uleb128 0xb
 2484 051d 72110000 		.4byte	.LASF159
 2485 0521 5C71     		.2byte	0x715c
 2486 0523 0B       		.uleb128 0xb
 2487 0524 79080000 		.4byte	.LASF160
 2488 0528 5D71     		.2byte	0x715d
 2489 052a 0B       		.uleb128 0xb
 2490 052b 2E140000 		.4byte	.LASF161
 2491 052f 5E71     		.2byte	0x715e
 2492 0531 0B       		.uleb128 0xb
 2493 0532 76100000 		.4byte	.LASF162
 2494 0536 5F71     		.2byte	0x715f
 2495 0538 0B       		.uleb128 0xb
 2496 0539 93020000 		.4byte	.LASF163
 2497 053d AD71     		.2byte	0x71ad
 2498 053f 0B       		.uleb128 0xb
 2499 0540 C8010000 		.4byte	.LASF164
 2500 0544 C071     		.2byte	0x71c0
 2501 0546 0B       		.uleb128 0xb
 2502 0547 1D030000 		.4byte	.LASF165
 2503 054b C171     		.2byte	0x71c1
 2504 054d 0B       		.uleb128 0xb
 2505 054e 510A0000 		.4byte	.LASF166
 2506 0552 C271     		.2byte	0x71c2
 2507 0554 0B       		.uleb128 0xb
 2508 0555 5A140000 		.4byte	.LASF167
 2509 0559 C371     		.2byte	0x71c3
 2510 055b 0B       		.uleb128 0xb
 2511 055c E3070000 		.4byte	.LASF168
 2512 0560 C471     		.2byte	0x71c4
 2513 0562 0B       		.uleb128 0xb
 2514 0563 24150000 		.4byte	.LASF169
 2515 0567 1172     		.2byte	0x7211
 2516 0569 0B       		.uleb128 0xb
 2517 056a C3130000 		.4byte	.LASF170
 2518 056e 1272     		.2byte	0x7212
 2519 0570 0B       		.uleb128 0xb
 2520 0571 A7050000 		.4byte	.LASF171
 2521 0575 1372     		.2byte	0x7213
 2522 0577 0B       		.uleb128 0xb
 2523 0578 03140000 		.4byte	.LASF172
 2524 057c 1472     		.2byte	0x7214
 2525 057e 0B       		.uleb128 0xb
 2526 057f 1A140000 		.4byte	.LASF173
 2527 0583 7572     		.2byte	0x7275
 2528 0585 0B       		.uleb128 0xb
 2529 0586 AF070000 		.4byte	.LASF174
 2530 058a 7672     		.2byte	0x7276
 2531 058c 0B       		.uleb128 0xb
 2532 058d 6F150000 		.4byte	.LASF175
ARM GAS  C:\Users\alex\AppData\Local\Temp\ccrLK32p.s 			page 62


 2533 0591 7772     		.2byte	0x7277
 2534 0593 0B       		.uleb128 0xb
 2535 0594 28080000 		.4byte	.LASF176
 2536 0598 7872     		.2byte	0x7278
 2537 059a 0B       		.uleb128 0xb
 2538 059b 6A0A0000 		.4byte	.LASF177
 2539 059f 7972     		.2byte	0x7279
 2540 05a1 0B       		.uleb128 0xb
 2541 05a2 00090000 		.4byte	.LASF178
 2542 05a6 7A72     		.2byte	0x727a
 2543 05a8 0B       		.uleb128 0xb
 2544 05a9 92110000 		.4byte	.LASF179
 2545 05ad 7B72     		.2byte	0x727b
 2546 05af 0B       		.uleb128 0xb
 2547 05b0 4F020000 		.4byte	.LASF180
 2548 05b4 7C72     		.2byte	0x727c
 2549 05b6 0B       		.uleb128 0xb
 2550 05b7 DB130000 		.4byte	.LASF181
 2551 05bb 7D72     		.2byte	0x727d
 2552 05bd 0B       		.uleb128 0xb
 2553 05be 22050000 		.4byte	.LASF182
 2554 05c2 7E72     		.2byte	0x727e
 2555 05c4 0B       		.uleb128 0xb
 2556 05c5 25090000 		.4byte	.LASF183
 2557 05c9 D972     		.2byte	0x72d9
 2558 05cb 0B       		.uleb128 0xb
 2559 05cc 62120000 		.4byte	.LASF184
 2560 05d0 3D73     		.2byte	0x733d
 2561 05d2 0B       		.uleb128 0xb
 2562 05d3 63090000 		.4byte	.LASF185
 2563 05d7 3E73     		.2byte	0x733e
 2564 05d9 0B       		.uleb128 0xb
 2565 05da F30C0000 		.4byte	.LASF186
 2566 05de 3F73     		.2byte	0x733f
 2567 05e0 0B       		.uleb128 0xb
 2568 05e1 BD120000 		.4byte	.LASF187
 2569 05e5 4073     		.2byte	0x7340
 2570 05e7 0B       		.uleb128 0xb
 2571 05e8 CA070000 		.4byte	.LASF188
 2572 05ec 4173     		.2byte	0x7341
 2573 05ee 0B       		.uleb128 0xb
 2574 05ef 1D0C0000 		.4byte	.LASF189
 2575 05f3 4273     		.2byte	0x7342
 2576 05f5 0B       		.uleb128 0xb
 2577 05f6 98130000 		.4byte	.LASF190
 2578 05fa 4373     		.2byte	0x7343
 2579 05fc 0B       		.uleb128 0xb
 2580 05fd 7E0F0000 		.4byte	.LASF191
 2581 0601 4473     		.2byte	0x7344
 2582 0603 0B       		.uleb128 0xb
 2583 0604 84090000 		.4byte	.LASF192
 2584 0608 4573     		.2byte	0x7345
 2585 060a 0B       		.uleb128 0xb
 2586 060b BC000000 		.4byte	.LASF193
 2587 060f 4673     		.2byte	0x7346
 2588 0611 0B       		.uleb128 0xb
 2589 0612 4A000000 		.4byte	.LASF194
ARM GAS  C:\Users\alex\AppData\Local\Temp\ccrLK32p.s 			page 63


 2590 0616 4773     		.2byte	0x7347
 2591 0618 0B       		.uleb128 0xb
 2592 0619 8E060000 		.4byte	.LASF195
 2593 061d 4873     		.2byte	0x7348
 2594 061f 0B       		.uleb128 0xb
 2595 0620 7F000000 		.4byte	.LASF196
 2596 0624 4973     		.2byte	0x7349
 2597 0626 0B       		.uleb128 0xb
 2598 0627 E5040000 		.4byte	.LASF197
 2599 062b 3075     		.2byte	0x7530
 2600 062d 0B       		.uleb128 0xb
 2601 062e EE040000 		.4byte	.LASF198
 2602 0632 1879     		.2byte	0x7918
 2603 0634 0B       		.uleb128 0xb
 2604 0635 F7040000 		.4byte	.LASF199
 2605 0639 007D     		.2byte	0x7d00
 2606 063b 0B       		.uleb128 0xb
 2607 063c 00050000 		.4byte	.LASF200
 2608 0640 E880     		.2byte	0x80e8
 2609 0642 0B       		.uleb128 0xb
 2610 0643 09050000 		.4byte	.LASF201
 2611 0647 D084     		.2byte	0x84d0
 2612 0649 0B       		.uleb128 0xb
 2613 064a D80B0000 		.4byte	.LASF202
 2614 064e D184     		.2byte	0x84d1
 2615 0650 0B       		.uleb128 0xb
 2616 0651 12050000 		.4byte	.LASF203
 2617 0655 B888     		.2byte	0x88b8
 2618 0657 00       		.byte	0
 2619 0658 0C       		.uleb128 0xc
 2620 0659 9A030000 		.4byte	.LASF204
 2621 065d 07       		.byte	0x7
 2622 065e 7202     		.2byte	0x272
 2623 0660 E0010000 		.4byte	0x1e0
 2624 0664 0C       		.uleb128 0xc
 2625 0665 B3110000 		.4byte	.LASF205
 2626 0669 07       		.byte	0x7
 2627 066a 8202     		.2byte	0x282
 2628 066c 70060000 		.4byte	0x670
 2629 0670 0D       		.uleb128 0xd
 2630 0671 30070000 		.4byte	.LASF211
 2631 0675 10       		.byte	0x10
 2632 0676 07       		.byte	0x7
 2633 0677 4003     		.2byte	0x340
 2634 0679 B2060000 		.4byte	0x6b2
 2635 067d 0E       		.uleb128 0xe
 2636 067e BA110000 		.4byte	.LASF206
 2637 0682 07       		.byte	0x7
 2638 0683 4103     		.2byte	0x341
 2639 0685 4D0B0000 		.4byte	0xb4d
 2640 0689 00       		.byte	0
 2641 068a 0E       		.uleb128 0xe
 2642 068b E4000000 		.4byte	.LASF207
 2643 068f 07       		.byte	0x7
 2644 0690 4203     		.2byte	0x342
 2645 0692 25000000 		.4byte	0x25
 2646 0696 04       		.byte	0x4
ARM GAS  C:\Users\alex\AppData\Local\Temp\ccrLK32p.s 			page 64


 2647 0697 0E       		.uleb128 0xe
 2648 0698 A5120000 		.4byte	.LASF208
 2649 069c 07       		.byte	0x7
 2650 069d 4303     		.2byte	0x343
 2651 069f 5C010000 		.4byte	0x15c
 2652 06a3 08       		.byte	0x8
 2653 06a4 0E       		.uleb128 0xe
 2654 06a5 DC060000 		.4byte	.LASF209
 2655 06a9 07       		.byte	0x7
 2656 06aa 4403     		.2byte	0x344
 2657 06ac 1A010000 		.4byte	0x11a
 2658 06b0 0C       		.byte	0xc
 2659 06b1 00       		.byte	0
 2660 06b2 0C       		.uleb128 0xc
 2661 06b3 16060000 		.4byte	.LASF210
 2662 06b7 07       		.byte	0x7
 2663 06b8 8402     		.2byte	0x284
 2664 06ba BE060000 		.4byte	0x6be
 2665 06be 0D       		.uleb128 0xd
 2666 06bf 13120000 		.4byte	.LASF212
 2667 06c3 10       		.byte	0x10
 2668 06c4 07       		.byte	0x7
 2669 06c5 5303     		.2byte	0x353
 2670 06c7 0D070000 		.4byte	0x70d
 2671 06cb 0E       		.uleb128 0xe
 2672 06cc D6110000 		.4byte	.LASF213
 2673 06d0 07       		.byte	0x7
 2674 06d1 5403     		.2byte	0x354
 2675 06d3 4D0B0000 		.4byte	0xb4d
 2676 06d7 00       		.byte	0
 2677 06d8 0E       		.uleb128 0xe
 2678 06d9 5B120000 		.4byte	.LASF214
 2679 06dd 07       		.byte	0x7
 2680 06de 5503     		.2byte	0x355
 2681 06e0 4D0B0000 		.4byte	0xb4d
 2682 06e4 04       		.byte	0x4
 2683 06e5 0E       		.uleb128 0xe
 2684 06e6 ED020000 		.4byte	.LASF215
 2685 06ea 07       		.byte	0x7
 2686 06eb 5603     		.2byte	0x356
 2687 06ed 51010000 		.4byte	0x151
 2688 06f1 08       		.byte	0x8
 2689 06f2 0E       		.uleb128 0xe
 2690 06f3 76120000 		.4byte	.LASF216
 2691 06f7 07       		.byte	0x7
 2692 06f8 5703     		.2byte	0x357
 2693 06fa 51010000 		.4byte	0x151
 2694 06fe 0A       		.byte	0xa
 2695 06ff 0E       		.uleb128 0xe
 2696 0700 DA0E0000 		.4byte	.LASF217
 2697 0704 07       		.byte	0x7
 2698 0705 5803     		.2byte	0x358
 2699 0707 51010000 		.4byte	0x151
 2700 070b 0C       		.byte	0xc
 2701 070c 00       		.byte	0
 2702 070d 0C       		.uleb128 0xc
 2703 070e 58130000 		.4byte	.LASF218
ARM GAS  C:\Users\alex\AppData\Local\Temp\ccrLK32p.s 			page 65


 2704 0712 07       		.byte	0x7
 2705 0713 8E02     		.2byte	0x28e
 2706 0715 DD000000 		.4byte	0xdd
 2707 0719 0C       		.uleb128 0xc
 2708 071a 92000000 		.4byte	.LASF219
 2709 071e 07       		.byte	0x7
 2710 071f 9002     		.2byte	0x290
 2711 0721 25070000 		.4byte	0x725
 2712 0725 0D       		.uleb128 0xd
 2713 0726 FD030000 		.4byte	.LASF220
 2714 072a C0       		.byte	0xc0
 2715 072b 07       		.byte	0x7
 2716 072c AB03     		.2byte	0x3ab
 2717 072e C9090000 		.4byte	0x9c9
 2718 0732 0E       		.uleb128 0xe
 2719 0733 E1050000 		.4byte	.LASF221
 2720 0737 07       		.byte	0x7
 2721 0738 AC03     		.2byte	0x3ac
 2722 073a 530B0000 		.4byte	0xb53
 2723 073e 00       		.byte	0
 2724 073f 0E       		.uleb128 0xe
 2725 0740 AC0D0000 		.4byte	.LASF222
 2726 0744 07       		.byte	0x7
 2727 0745 AE03     		.2byte	0x3ae
 2728 0747 25000000 		.4byte	0x25
 2729 074b 04       		.byte	0x4
 2730 074c 0E       		.uleb128 0xe
 2731 074d 98070000 		.4byte	.LASF223
 2732 0751 07       		.byte	0x7
 2733 0752 B003     		.2byte	0x3b0
 2734 0754 530B0000 		.4byte	0xb53
 2735 0758 08       		.byte	0x8
 2736 0759 0E       		.uleb128 0xe
 2737 075a BA110000 		.4byte	.LASF206
 2738 075e 07       		.byte	0x7
 2739 075f B203     		.2byte	0x3b2
 2740 0761 350B0000 		.4byte	0xb35
 2741 0765 0C       		.byte	0xc
 2742 0766 0E       		.uleb128 0xe
 2743 0767 20110000 		.4byte	.LASF224
 2744 076b 07       		.byte	0x7
 2745 076c B303     		.2byte	0x3b3
 2746 076e 350B0000 		.4byte	0xb35
 2747 0772 10       		.byte	0x10
 2748 0773 0E       		.uleb128 0xe
 2749 0774 1E000000 		.4byte	.LASF225
 2750 0778 07       		.byte	0x7
 2751 0779 B503     		.2byte	0x3b5
 2752 077b 350B0000 		.4byte	0xb35
 2753 077f 14       		.byte	0x14
 2754 0780 0E       		.uleb128 0xe
 2755 0781 A9080000 		.4byte	.LASF226
 2756 0785 07       		.byte	0x7
 2757 0786 B603     		.2byte	0x3b6
 2758 0788 350B0000 		.4byte	0xb35
 2759 078c 18       		.byte	0x18
 2760 078d 0E       		.uleb128 0xe
ARM GAS  C:\Users\alex\AppData\Local\Temp\ccrLK32p.s 			page 66


 2761 078e 28110000 		.4byte	.LASF227
 2762 0792 07       		.byte	0x7
 2763 0793 B803     		.2byte	0x3b8
 2764 0795 590B0000 		.4byte	0xb59
 2765 0799 1C       		.byte	0x1c
 2766 079a 0E       		.uleb128 0xe
 2767 079b FC110000 		.4byte	.LASF228
 2768 079f 07       		.byte	0x7
 2769 07a0 BA03     		.2byte	0x3ba
 2770 07a2 470B0000 		.4byte	0xb47
 2771 07a6 20       		.byte	0x20
 2772 07a7 0E       		.uleb128 0xe
 2773 07a8 F8120000 		.4byte	.LASF229
 2774 07ac 07       		.byte	0x7
 2775 07ad BC03     		.2byte	0x3bc
 2776 07af 530B0000 		.4byte	0xb53
 2777 07b3 24       		.byte	0x24
 2778 07b4 0E       		.uleb128 0xe
 2779 07b5 370E0000 		.4byte	.LASF230
 2780 07b9 07       		.byte	0x7
 2781 07ba C203     		.2byte	0x3c2
 2782 07bc 0D070000 		.4byte	0x70d
 2783 07c0 28       		.byte	0x28
 2784 07c1 0E       		.uleb128 0xe
 2785 07c2 B5100000 		.4byte	.LASF231
 2786 07c6 07       		.byte	0x7
 2787 07c7 C303     		.2byte	0x3c3
 2788 07c9 25000000 		.4byte	0x25
 2789 07cd 2C       		.byte	0x2c
 2790 07ce 0E       		.uleb128 0xe
 2791 07cf E2060000 		.4byte	.LASF232
 2792 07d3 07       		.byte	0x7
 2793 07d4 C503     		.2byte	0x3c5
 2794 07d6 3B0B0000 		.4byte	0xb3b
 2795 07da 30       		.byte	0x30
 2796 07db 0E       		.uleb128 0xe
 2797 07dc 1E100000 		.4byte	.LASF233
 2798 07e0 07       		.byte	0x7
 2799 07e1 C603     		.2byte	0x3c6
 2800 07e3 BF010000 		.4byte	0x1bf
 2801 07e7 34       		.byte	0x34
 2802 07e8 0E       		.uleb128 0xe
 2803 07e9 E4120000 		.4byte	.LASF234
 2804 07ed 07       		.byte	0x7
 2805 07ee C703     		.2byte	0x3c7
 2806 07f0 CA010000 		.4byte	0x1ca
 2807 07f4 35       		.byte	0x35
 2808 07f5 0E       		.uleb128 0xe
 2809 07f6 C40C0000 		.4byte	.LASF235
 2810 07fa 07       		.byte	0x7
 2811 07fb C903     		.2byte	0x3c9
 2812 07fd BF010000 		.4byte	0x1bf
 2813 0801 36       		.byte	0x36
 2814 0802 0E       		.uleb128 0xe
 2815 0803 AE140000 		.4byte	.LASF236
 2816 0807 07       		.byte	0x7
 2817 0808 CA03     		.2byte	0x3ca
ARM GAS  C:\Users\alex\AppData\Local\Temp\ccrLK32p.s 			page 67


 2818 080a 93010000 		.4byte	0x193
 2819 080e 37       		.byte	0x37
 2820 080f 0E       		.uleb128 0xe
 2821 0810 5D0B0000 		.4byte	.LASF237
 2822 0814 07       		.byte	0x7
 2823 0815 CB03     		.2byte	0x3cb
 2824 0817 04010000 		.4byte	0x104
 2825 081b 38       		.byte	0x38
 2826 081c 0F       		.uleb128 0xf
 2827 081d 4F707400 		.ascii	"Opt\000"
 2828 0821 07       		.byte	0x7
 2829 0822 CC03     		.2byte	0x3cc
 2830 0824 88010000 		.4byte	0x188
 2831 0828 3C       		.byte	0x3c
 2832 0829 0E       		.uleb128 0xe
 2833 082a 2A000000 		.4byte	.LASF238
 2834 082e 07       		.byte	0x7
 2835 082f CE03     		.2byte	0x3ce
 2836 0831 72010000 		.4byte	0x172
 2837 0835 3E       		.byte	0x3e
 2838 0836 0F       		.uleb128 0xf
 2839 0837 545300   		.ascii	"TS\000"
 2840 083a 07       		.byte	0x7
 2841 083b D003     		.2byte	0x3d0
 2842 083d 1A010000 		.4byte	0x11a
 2843 0841 40       		.byte	0x40
 2844 0842 0E       		.uleb128 0xe
 2845 0843 01150000 		.4byte	.LASF239
 2846 0847 07       		.byte	0x7
 2847 0848 D203     		.2byte	0x3d2
 2848 084a B4010000 		.4byte	0x1b4
 2849 084e 44       		.byte	0x44
 2850 084f 0E       		.uleb128 0xe
 2851 0850 43020000 		.4byte	.LASF240
 2852 0854 07       		.byte	0x7
 2853 0855 D503     		.2byte	0x3d5
 2854 0857 D5010000 		.4byte	0x1d5
 2855 085b 48       		.byte	0x48
 2856 085c 0E       		.uleb128 0xe
 2857 085d E40D0000 		.4byte	.LASF241
 2858 0861 07       		.byte	0x7
 2859 0862 D603     		.2byte	0x3d6
 2860 0864 D5010000 		.4byte	0x1d5
 2861 0868 4C       		.byte	0x4c
 2862 0869 0E       		.uleb128 0xe
 2863 086a AA060000 		.4byte	.LASF242
 2864 086e 07       		.byte	0x7
 2865 086f D703     		.2byte	0x3d7
 2866 0871 D5010000 		.4byte	0x1d5
 2867 0875 50       		.byte	0x50
 2868 0876 0E       		.uleb128 0xe
 2869 0877 710B0000 		.4byte	.LASF243
 2870 087b 07       		.byte	0x7
 2871 087c D903     		.2byte	0x3d9
 2872 087e D5010000 		.4byte	0x1d5
 2873 0882 54       		.byte	0x54
 2874 0883 0E       		.uleb128 0xe
ARM GAS  C:\Users\alex\AppData\Local\Temp\ccrLK32p.s 			page 68


 2875 0884 3F030000 		.4byte	.LASF244
 2876 0888 07       		.byte	0x7
 2877 0889 DA03     		.2byte	0x3da
 2878 088b D5010000 		.4byte	0x1d5
 2879 088f 58       		.byte	0x58
 2880 0890 0E       		.uleb128 0xe
 2881 0891 E4000000 		.4byte	.LASF207
 2882 0895 07       		.byte	0x7
 2883 0896 DD03     		.2byte	0x3dd
 2884 0898 25000000 		.4byte	0x25
 2885 089c 5C       		.byte	0x5c
 2886 089d 0E       		.uleb128 0xe
 2887 089e A5120000 		.4byte	.LASF208
 2888 08a2 07       		.byte	0x7
 2889 08a3 DE03     		.2byte	0x3de
 2890 08a5 5C010000 		.4byte	0x15c
 2891 08a9 60       		.byte	0x60
 2892 08aa 0E       		.uleb128 0xe
 2893 08ab CE0C0000 		.4byte	.LASF245
 2894 08af 07       		.byte	0x7
 2895 08b0 E203     		.2byte	0x3e2
 2896 08b2 B2060000 		.4byte	0x6b2
 2897 08b6 64       		.byte	0x64
 2898 08b7 0E       		.uleb128 0xe
 2899 08b8 69060000 		.4byte	.LASF246
 2900 08bc 07       		.byte	0x7
 2901 08bd E403     		.2byte	0x3e4
 2902 08bf 1A010000 		.4byte	0x11a
 2903 08c3 74       		.byte	0x74
 2904 08c4 0E       		.uleb128 0xe
 2905 08c5 55150000 		.4byte	.LASF247
 2906 08c9 07       		.byte	0x7
 2907 08ca E503     		.2byte	0x3e5
 2908 08cc 1A010000 		.4byte	0x11a
 2909 08d0 78       		.byte	0x78
 2910 08d1 0E       		.uleb128 0xe
 2911 08d2 4D030000 		.4byte	.LASF248
 2912 08d6 07       		.byte	0x7
 2913 08d7 EA03     		.2byte	0x3ea
 2914 08d9 5F0B0000 		.4byte	0xb5f
 2915 08dd 7C       		.byte	0x7c
 2916 08de 0E       		.uleb128 0xe
 2917 08df 6F050000 		.4byte	.LASF249
 2918 08e3 07       		.byte	0x7
 2919 08e4 EE03     		.2byte	0x3ee
 2920 08e6 46010000 		.4byte	0x146
 2921 08ea 80       		.byte	0x80
 2922 08eb 0E       		.uleb128 0xe
 2923 08ec EF120000 		.4byte	.LASF250
 2924 08f0 07       		.byte	0x7
 2925 08f1 EF03     		.2byte	0x3ef
 2926 08f3 46010000 		.4byte	0x146
 2927 08f7 84       		.byte	0x84
 2928 08f8 0E       		.uleb128 0xe
 2929 08f9 840B0000 		.4byte	.LASF251
 2930 08fd 07       		.byte	0x7
 2931 08fe F003     		.2byte	0x3f0
ARM GAS  C:\Users\alex\AppData\Local\Temp\ccrLK32p.s 			page 69


 2932 0900 88010000 		.4byte	0x188
 2933 0904 88       		.byte	0x88
 2934 0905 0E       		.uleb128 0xe
 2935 0906 22020000 		.4byte	.LASF252
 2936 090a 07       		.byte	0x7
 2937 090b F403     		.2byte	0x3f4
 2938 090d 67010000 		.4byte	0x167
 2939 0911 8A       		.byte	0x8a
 2940 0912 0E       		.uleb128 0xe
 2941 0913 14030000 		.4byte	.LASF253
 2942 0917 07       		.byte	0x7
 2943 0918 F803     		.2byte	0x3f8
 2944 091a 25010000 		.4byte	0x125
 2945 091e 8C       		.byte	0x8c
 2946 091f 0E       		.uleb128 0xe
 2947 0920 FE0F0000 		.4byte	.LASF254
 2948 0924 07       		.byte	0x7
 2949 0925 F903     		.2byte	0x3f9
 2950 0927 25010000 		.4byte	0x125
 2951 092b 8E       		.byte	0x8e
 2952 092c 0E       		.uleb128 0xe
 2953 092d 7B090000 		.4byte	.LASF255
 2954 0931 07       		.byte	0x7
 2955 0932 FA03     		.2byte	0x3fa
 2956 0934 30010000 		.4byte	0x130
 2957 0938 90       		.byte	0x90
 2958 0939 0E       		.uleb128 0xe
 2959 093a 830E0000 		.4byte	.LASF256
 2960 093e 07       		.byte	0x7
 2961 093f FB03     		.2byte	0x3fb
 2962 0941 1A010000 		.4byte	0x11a
 2963 0945 94       		.byte	0x94
 2964 0946 0E       		.uleb128 0xe
 2965 0947 100E0000 		.4byte	.LASF257
 2966 094b 07       		.byte	0x7
 2967 094c FC03     		.2byte	0x3fc
 2968 094e 1A010000 		.4byte	0x11a
 2969 0952 98       		.byte	0x98
 2970 0953 0E       		.uleb128 0xe
 2971 0954 9B050000 		.4byte	.LASF258
 2972 0958 07       		.byte	0x7
 2973 0959 FD03     		.2byte	0x3fd
 2974 095b 3B010000 		.4byte	0x13b
 2975 095f 9C       		.byte	0x9c
 2976 0960 0E       		.uleb128 0xe
 2977 0961 AD120000 		.4byte	.LASF259
 2978 0965 07       		.byte	0x7
 2979 0966 FE03     		.2byte	0x3fe
 2980 0968 3B010000 		.4byte	0x13b
 2981 096c A0       		.byte	0xa0
 2982 096d 0E       		.uleb128 0xe
 2983 096e 300C0000 		.4byte	.LASF260
 2984 0972 07       		.byte	0x7
 2985 0973 0004     		.2byte	0x400
 2986 0975 1A010000 		.4byte	0x11a
 2987 0979 A4       		.byte	0xa4
 2988 097a 0E       		.uleb128 0xe
ARM GAS  C:\Users\alex\AppData\Local\Temp\ccrLK32p.s 			page 70


 2989 097b 1F040000 		.4byte	.LASF261
 2990 097f 07       		.byte	0x7
 2991 0980 0104     		.2byte	0x401
 2992 0982 1A010000 		.4byte	0x11a
 2993 0986 A8       		.byte	0xa8
 2994 0987 0E       		.uleb128 0xe
 2995 0988 DC110000 		.4byte	.LASF262
 2996 098c 07       		.byte	0x7
 2997 098d 0504     		.2byte	0x405
 2998 098f 04010000 		.4byte	0x104
 2999 0993 AC       		.byte	0xac
 3000 0994 0E       		.uleb128 0xe
 3001 0995 DC000000 		.4byte	.LASF263
 3002 0999 07       		.byte	0x7
 3003 099a 0604     		.2byte	0x406
 3004 099c 04010000 		.4byte	0x104
 3005 09a0 B0       		.byte	0xb0
 3006 09a1 0E       		.uleb128 0xe
 3007 09a2 C4050000 		.4byte	.LASF264
 3008 09a6 07       		.byte	0x7
 3009 09a7 1104     		.2byte	0x411
 3010 09a9 350B0000 		.4byte	0xb35
 3011 09ad B4       		.byte	0xb4
 3012 09ae 0E       		.uleb128 0xe
 3013 09af 0C130000 		.4byte	.LASF265
 3014 09b3 07       		.byte	0x7
 3015 09b4 1204     		.2byte	0x412
 3016 09b6 350B0000 		.4byte	0xb35
 3017 09ba B8       		.byte	0xb8
 3018 09bb 0E       		.uleb128 0xe
 3019 09bc 56050000 		.4byte	.LASF266
 3020 09c0 07       		.byte	0x7
 3021 09c1 1304     		.2byte	0x413
 3022 09c3 470B0000 		.4byte	0xb47
 3023 09c7 BC       		.byte	0xbc
 3024 09c8 00       		.byte	0
 3025 09c9 0C       		.uleb128 0xc
 3026 09ca 50100000 		.4byte	.LASF267
 3027 09ce 07       		.byte	0x7
 3028 09cf 9E02     		.2byte	0x29e
 3029 09d1 D5090000 		.4byte	0x9d5
 3030 09d5 0D       		.uleb128 0xd
 3031 09d6 CA0B0000 		.4byte	.LASF268
 3032 09da 08       		.byte	0x8
 3033 09db 07       		.byte	0x7
 3034 09dc 1E04     		.2byte	0x41e
 3035 09de 0A0A0000 		.4byte	0xa0a
 3036 09e2 0E       		.uleb128 0xe
 3037 09e3 0A0D0000 		.4byte	.LASF269
 3038 09e7 07       		.byte	0x7
 3039 09e8 1F04     		.2byte	0x41f
 3040 09ea 350B0000 		.4byte	0xb35
 3041 09ee 00       		.byte	0
 3042 09ef 0E       		.uleb128 0xe
 3043 09f0 76120000 		.4byte	.LASF216
 3044 09f4 07       		.byte	0x7
 3045 09f5 2004     		.2byte	0x420
ARM GAS  C:\Users\alex\AppData\Local\Temp\ccrLK32p.s 			page 71


 3046 09f7 72010000 		.4byte	0x172
 3047 09fb 04       		.byte	0x4
 3048 09fc 0E       		.uleb128 0xe
 3049 09fd DA0E0000 		.4byte	.LASF217
 3050 0a01 07       		.byte	0x7
 3051 0a02 2104     		.2byte	0x421
 3052 0a04 72010000 		.4byte	0x172
 3053 0a08 06       		.byte	0x6
 3054 0a09 00       		.byte	0
 3055 0a0a 0C       		.uleb128 0xc
 3056 0a0b F3080000 		.4byte	.LASF270
 3057 0a0f 07       		.byte	0x7
 3058 0a10 A502     		.2byte	0x2a5
 3059 0a12 160A0000 		.4byte	0xa16
 3060 0a16 0D       		.uleb128 0xd
 3061 0a17 CF020000 		.4byte	.LASF271
 3062 0a1b 20       		.byte	0x20
 3063 0a1c 07       		.byte	0x7
 3064 0a1d DD02     		.2byte	0x2dd
 3065 0a1f 8C0A0000 		.4byte	0xa8c
 3066 0a23 0E       		.uleb128 0xe
 3067 0a24 20110000 		.4byte	.LASF224
 3068 0a28 07       		.byte	0x7
 3069 0a29 DE02     		.2byte	0x2de
 3070 0a2b 3B0B0000 		.4byte	0xb3b
 3071 0a2f 00       		.byte	0
 3072 0a30 0E       		.uleb128 0xe
 3073 0a31 BA110000 		.4byte	.LASF206
 3074 0a35 07       		.byte	0x7
 3075 0a36 DF02     		.2byte	0x2df
 3076 0a38 3B0B0000 		.4byte	0xb3b
 3077 0a3c 04       		.byte	0x4
 3078 0a3d 0E       		.uleb128 0xe
 3079 0a3e 93030000 		.4byte	.LASF272
 3080 0a42 07       		.byte	0x7
 3081 0a43 E002     		.2byte	0x2e0
 3082 0a45 350B0000 		.4byte	0xb35
 3083 0a49 08       		.byte	0x8
 3084 0a4a 0E       		.uleb128 0xe
 3085 0a4b C2110000 		.4byte	.LASF273
 3086 0a4f 07       		.byte	0x7
 3087 0a50 E102     		.2byte	0x2e1
 3088 0a52 410B0000 		.4byte	0xb41
 3089 0a56 0C       		.byte	0xc
 3090 0a57 0E       		.uleb128 0xe
 3091 0a58 370F0000 		.4byte	.LASF274
 3092 0a5c 07       		.byte	0x7
 3093 0a5d E202     		.2byte	0x2e2
 3094 0a5f 410B0000 		.4byte	0xb41
 3095 0a63 10       		.byte	0x10
 3096 0a64 0E       		.uleb128 0xe
 3097 0a65 65150000 		.4byte	.LASF275
 3098 0a69 07       		.byte	0x7
 3099 0a6a E302     		.2byte	0x2e3
 3100 0a6c 25000000 		.4byte	0x25
 3101 0a70 14       		.byte	0x14
 3102 0a71 0E       		.uleb128 0xe
ARM GAS  C:\Users\alex\AppData\Local\Temp\ccrLK32p.s 			page 72


 3103 0a72 D90D0000 		.4byte	.LASF276
 3104 0a76 07       		.byte	0x7
 3105 0a77 E402     		.2byte	0x2e4
 3106 0a79 5C010000 		.4byte	0x15c
 3107 0a7d 18       		.byte	0x18
 3108 0a7e 0E       		.uleb128 0xe
 3109 0a7f ED0C0000 		.4byte	.LASF277
 3110 0a83 07       		.byte	0x7
 3111 0a84 E502     		.2byte	0x2e5
 3112 0a86 1A010000 		.4byte	0x11a
 3113 0a8a 1C       		.byte	0x1c
 3114 0a8b 00       		.byte	0
 3115 0a8c 0C       		.uleb128 0xc
 3116 0a8d 3D000000 		.4byte	.LASF278
 3117 0a91 07       		.byte	0x7
 3118 0a92 A602     		.2byte	0x2a6
 3119 0a94 980A0000 		.4byte	0xa98
 3120 0a98 0D       		.uleb128 0xd
 3121 0a99 D4100000 		.4byte	.LASF279
 3122 0a9d 0C       		.byte	0xc
 3123 0a9e 07       		.byte	0x7
 3124 0a9f E902     		.2byte	0x2e9
 3125 0aa1 CD0A0000 		.4byte	0xacd
 3126 0aa5 0E       		.uleb128 0xe
 3127 0aa6 620E0000 		.4byte	.LASF280
 3128 0aaa 07       		.byte	0x7
 3129 0aab EA02     		.2byte	0x2ea
 3130 0aad 3B0B0000 		.4byte	0xb3b
 3131 0ab1 00       		.byte	0
 3132 0ab2 0E       		.uleb128 0xe
 3133 0ab3 3B0D0000 		.4byte	.LASF281
 3134 0ab7 07       		.byte	0x7
 3135 0ab8 EB02     		.2byte	0x2eb
 3136 0aba 3B0B0000 		.4byte	0xb3b
 3137 0abe 04       		.byte	0x4
 3138 0abf 0E       		.uleb128 0xe
 3139 0ac0 76120000 		.4byte	.LASF216
 3140 0ac4 07       		.byte	0x7
 3141 0ac5 EC02     		.2byte	0x2ec
 3142 0ac7 72010000 		.4byte	0x172
 3143 0acb 08       		.byte	0x8
 3144 0acc 00       		.byte	0
 3145 0acd 0C       		.uleb128 0xc
 3146 0ace 170A0000 		.4byte	.LASF282
 3147 0ad2 07       		.byte	0x7
 3148 0ad3 A702     		.2byte	0x2a7
 3149 0ad5 D90A0000 		.4byte	0xad9
 3150 0ad9 0D       		.uleb128 0xd
 3151 0ada 9F0E0000 		.4byte	.LASF283
 3152 0ade 20       		.byte	0x20
 3153 0adf 07       		.byte	0x7
 3154 0ae0 FF02     		.2byte	0x2ff
 3155 0ae2 350B0000 		.4byte	0xb35
 3156 0ae6 0E       		.uleb128 0xe
 3157 0ae7 5A0D0000 		.4byte	.LASF284
 3158 0aeb 07       		.byte	0x7
 3159 0aec 0003     		.2byte	0x300
ARM GAS  C:\Users\alex\AppData\Local\Temp\ccrLK32p.s 			page 73


 3160 0aee 7D010000 		.4byte	0x17d
 3161 0af2 00       		.byte	0
 3162 0af3 0E       		.uleb128 0xe
 3163 0af4 FC110000 		.4byte	.LASF228
 3164 0af8 07       		.byte	0x7
 3165 0af9 0103     		.2byte	0x301
 3166 0afb 470B0000 		.4byte	0xb47
 3167 0aff 04       		.byte	0x4
 3168 0b00 0E       		.uleb128 0xe
 3169 0b01 1C090000 		.4byte	.LASF285
 3170 0b05 07       		.byte	0x7
 3171 0b06 0203     		.2byte	0x302
 3172 0b08 8C0A0000 		.4byte	0xa8c
 3173 0b0c 08       		.byte	0x8
 3174 0b0d 0E       		.uleb128 0xe
 3175 0b0e C4050000 		.4byte	.LASF264
 3176 0b12 07       		.byte	0x7
 3177 0b13 0403     		.2byte	0x304
 3178 0b15 25000000 		.4byte	0x25
 3179 0b19 14       		.byte	0x14
 3180 0b1a 0E       		.uleb128 0xe
 3181 0b1b 0C130000 		.4byte	.LASF265
 3182 0b1f 07       		.byte	0x7
 3183 0b20 0503     		.2byte	0x305
 3184 0b22 25000000 		.4byte	0x25
 3185 0b26 18       		.byte	0x18
 3186 0b27 0E       		.uleb128 0xe
 3187 0b28 56050000 		.4byte	.LASF266
 3188 0b2c 07       		.byte	0x7
 3189 0b2d 0603     		.2byte	0x306
 3190 0b2f 470B0000 		.4byte	0xb47
 3191 0b33 1C       		.byte	0x1c
 3192 0b34 00       		.byte	0
 3193 0b35 06       		.uleb128 0x6
 3194 0b36 04       		.byte	0x4
 3195 0b37 19070000 		.4byte	0x719
 3196 0b3b 06       		.uleb128 0x6
 3197 0b3c 04       		.byte	0x4
 3198 0b3d 0A0A0000 		.4byte	0xa0a
 3199 0b41 06       		.uleb128 0x6
 3200 0b42 04       		.byte	0x4
 3201 0b43 CD0A0000 		.4byte	0xacd
 3202 0b47 06       		.uleb128 0x6
 3203 0b48 04       		.byte	0x4
 3204 0b49 A6000000 		.4byte	0xa6
 3205 0b4d 06       		.uleb128 0x6
 3206 0b4e 04       		.byte	0x4
 3207 0b4f 64060000 		.4byte	0x664
 3208 0b53 06       		.uleb128 0x6
 3209 0b54 04       		.byte	0x4
 3210 0b55 F9000000 		.4byte	0xf9
 3211 0b59 06       		.uleb128 0x6
 3212 0b5a 04       		.byte	0x4
 3213 0b5b C9090000 		.4byte	0x9c9
 3214 0b5f 10       		.uleb128 0x10
 3215 0b60 A9010000 		.4byte	0x1a9
 3216 0b64 6F0B0000 		.4byte	0xb6f
ARM GAS  C:\Users\alex\AppData\Local\Temp\ccrLK32p.s 			page 74


 3217 0b68 11       		.uleb128 0x11
 3218 0b69 7F000000 		.4byte	0x7f
 3219 0b6d 00       		.byte	0
 3220 0b6e 00       		.byte	0
 3221 0b6f 0C       		.uleb128 0xc
 3222 0b70 1F060000 		.4byte	.LASF286
 3223 0b74 08       		.byte	0x8
 3224 0b75 E401     		.2byte	0x1e4
 3225 0b77 2E000000 		.4byte	0x2e
 3226 0b7b 12       		.uleb128 0x12
 3227 0b7c F5010000 		.4byte	.LASF287
 3228 0b80 01       		.byte	0x1
 3229 0b81 89       		.byte	0x89
 3230 0b82 00000000 		.4byte	.LFB64
 3231 0b86 2A000000 		.4byte	.LFE64-.LFB64
 3232 0b8a 01       		.uleb128 0x1
 3233 0b8b 9C       		.byte	0x9c
 3234 0b8c 12       		.uleb128 0x12
 3235 0b8d 910A0000 		.4byte	.LASF288
 3236 0b91 01       		.byte	0x1
 3237 0b92 98       		.byte	0x98
 3238 0b93 00000000 		.4byte	.LFB65
 3239 0b97 2A000000 		.4byte	.LFE65-.LFB65
 3240 0b9b 01       		.uleb128 0x1
 3241 0b9c 9C       		.byte	0x9c
 3242 0b9d 12       		.uleb128 0x12
 3243 0b9e B5060000 		.4byte	.LASF289
 3244 0ba2 01       		.byte	0x1
 3245 0ba3 A6       		.byte	0xa6
 3246 0ba4 00000000 		.4byte	.LFB66
 3247 0ba8 2A000000 		.4byte	.LFE66-.LFB66
 3248 0bac 01       		.uleb128 0x1
 3249 0bad 9C       		.byte	0x9c
 3250 0bae 13       		.uleb128 0x13
 3251 0baf E5030000 		.4byte	.LASF343
 3252 0bb3 01       		.byte	0x1
 3253 0bb4 C6       		.byte	0xc6
 3254 0bb5 6A000000 		.4byte	0x6a
 3255 0bb9 00000000 		.4byte	.LFB67
 3256 0bbd 88000000 		.4byte	.LFE67-.LFB67
 3257 0bc1 01       		.uleb128 0x1
 3258 0bc2 9C       		.byte	0x9c
 3259 0bc3 D60B0000 		.4byte	0xbd6
 3260 0bc7 14       		.uleb128 0x14
 3261 0bc8 450E0000 		.4byte	.LASF290
 3262 0bcc 01       		.byte	0x1
 3263 0bcd CE       		.byte	0xce
 3264 0bce 58060000 		.4byte	0x658
 3265 0bd2 02       		.uleb128 0x2
 3266 0bd3 91       		.byte	0x91
 3267 0bd4 76       		.sleb128 -10
 3268 0bd5 00       		.byte	0
 3269 0bd6 15       		.uleb128 0x15
 3270 0bd7 0C020000 		.4byte	.LASF291
 3271 0bdb 01       		.byte	0x1
 3272 0bdc FC       		.byte	0xfc
 3273 0bdd 00000000 		.4byte	.LFB68
ARM GAS  C:\Users\alex\AppData\Local\Temp\ccrLK32p.s 			page 75


 3274 0be1 4A000000 		.4byte	.LFE68-.LFB68
 3275 0be5 01       		.uleb128 0x1
 3276 0be6 9C       		.byte	0x9c
 3277 0be7 080C0000 		.4byte	0xc08
 3278 0beb 16       		.uleb128 0x16
 3279 0bec 790C0000 		.4byte	.LASF294
 3280 0bf0 01       		.byte	0x1
 3281 0bf1 FC       		.byte	0xfc
 3282 0bf2 25000000 		.4byte	0x25
 3283 0bf6 02       		.uleb128 0x2
 3284 0bf7 91       		.byte	0x91
 3285 0bf8 6C       		.sleb128 -20
 3286 0bf9 17       		.uleb128 0x17
 3287 0bfa 65727200 		.ascii	"err\000"
 3288 0bfe 01       		.byte	0x1
 3289 0bff FE       		.byte	0xfe
 3290 0c00 58060000 		.4byte	0x658
 3291 0c04 02       		.uleb128 0x2
 3292 0c05 91       		.byte	0x91
 3293 0c06 76       		.sleb128 -10
 3294 0c07 00       		.byte	0
 3295 0c08 18       		.uleb128 0x18
 3296 0c09 640C0000 		.4byte	.LASF292
 3297 0c0d 01       		.byte	0x1
 3298 0c0e 3301     		.2byte	0x133
 3299 0c10 00000000 		.4byte	.LFB69
 3300 0c14 4C010000 		.4byte	.LFE69-.LFB69
 3301 0c18 01       		.uleb128 0x1
 3302 0c19 9C       		.byte	0x9c
 3303 0c1a 2E0C0000 		.4byte	0xc2e
 3304 0c1e 19       		.uleb128 0x19
 3305 0c1f 450E0000 		.4byte	.LASF290
 3306 0c23 01       		.byte	0x1
 3307 0c24 3601     		.2byte	0x136
 3308 0c26 58060000 		.4byte	0x658
 3309 0c2a 02       		.uleb128 0x2
 3310 0c2b 91       		.byte	0x91
 3311 0c2c 76       		.sleb128 -10
 3312 0c2d 00       		.byte	0
 3313 0c2e 18       		.uleb128 0x18
 3314 0c2f D30C0000 		.4byte	.LASF293
 3315 0c33 01       		.byte	0x1
 3316 0c34 9601     		.2byte	0x196
 3317 0c36 00000000 		.4byte	.LFB70
 3318 0c3a 78000000 		.4byte	.LFE70-.LFB70
 3319 0c3e 01       		.uleb128 0x1
 3320 0c3f 9C       		.byte	0x9c
 3321 0c40 600C0000 		.4byte	0xc60
 3322 0c44 1A       		.uleb128 0x1a
 3323 0c45 790C0000 		.4byte	.LASF294
 3324 0c49 01       		.byte	0x1
 3325 0c4a 9601     		.2byte	0x196
 3326 0c4c 25000000 		.4byte	0x25
 3327 0c50 02       		.uleb128 0x2
 3328 0c51 91       		.byte	0x91
 3329 0c52 74       		.sleb128 -12
 3330 0c53 1B       		.uleb128 0x1b
ARM GAS  C:\Users\alex\AppData\Local\Temp\ccrLK32p.s 			page 76


 3331 0c54 65727200 		.ascii	"err\000"
 3332 0c58 01       		.byte	0x1
 3333 0c59 9901     		.2byte	0x199
 3334 0c5b 58060000 		.4byte	0x658
 3335 0c5f 00       		.byte	0
 3336 0c60 18       		.uleb128 0x18
 3337 0c61 A80A0000 		.4byte	.LASF295
 3338 0c65 01       		.byte	0x1
 3339 0c66 B001     		.2byte	0x1b0
 3340 0c68 00000000 		.4byte	.LFB71
 3341 0c6c 1A000000 		.4byte	.LFE71-.LFB71
 3342 0c70 01       		.uleb128 0x1
 3343 0c71 9C       		.byte	0x9c
 3344 0c72 920C0000 		.4byte	0xc92
 3345 0c76 1A       		.uleb128 0x1a
 3346 0c77 790C0000 		.4byte	.LASF294
 3347 0c7b 01       		.byte	0x1
 3348 0c7c B001     		.2byte	0x1b0
 3349 0c7e 25000000 		.4byte	0x25
 3350 0c82 02       		.uleb128 0x2
 3351 0c83 91       		.byte	0x91
 3352 0c84 74       		.sleb128 -12
 3353 0c85 1B       		.uleb128 0x1b
 3354 0c86 65727200 		.ascii	"err\000"
 3355 0c8a 01       		.byte	0x1
 3356 0c8b B301     		.2byte	0x1b3
 3357 0c8d 58060000 		.4byte	0x658
 3358 0c91 00       		.byte	0
 3359 0c92 18       		.uleb128 0x18
 3360 0c93 7B020000 		.4byte	.LASF296
 3361 0c97 01       		.byte	0x1
 3362 0c98 C201     		.2byte	0x1c2
 3363 0c9a 00000000 		.4byte	.LFB72
 3364 0c9e 34000000 		.4byte	.LFE72-.LFB72
 3365 0ca2 01       		.uleb128 0x1
 3366 0ca3 9C       		.byte	0x9c
 3367 0ca4 C40C0000 		.4byte	0xcc4
 3368 0ca8 1A       		.uleb128 0x1a
 3369 0ca9 790C0000 		.4byte	.LASF294
 3370 0cad 01       		.byte	0x1
 3371 0cae C201     		.2byte	0x1c2
 3372 0cb0 25000000 		.4byte	0x25
 3373 0cb4 02       		.uleb128 0x2
 3374 0cb5 91       		.byte	0x91
 3375 0cb6 74       		.sleb128 -12
 3376 0cb7 1B       		.uleb128 0x1b
 3377 0cb8 65727200 		.ascii	"err\000"
 3378 0cbc 01       		.byte	0x1
 3379 0cbd C601     		.2byte	0x1c6
 3380 0cbf 58060000 		.4byte	0x658
 3381 0cc3 00       		.byte	0
 3382 0cc4 18       		.uleb128 0x18
 3383 0cc5 93120000 		.4byte	.LASF297
 3384 0cc9 01       		.byte	0x1
 3385 0cca DC01     		.2byte	0x1dc
 3386 0ccc 00000000 		.4byte	.LFB73
 3387 0cd0 50020000 		.4byte	.LFE73-.LFB73
ARM GAS  C:\Users\alex\AppData\Local\Temp\ccrLK32p.s 			page 77


 3388 0cd4 01       		.uleb128 0x1
 3389 0cd5 9C       		.byte	0x9c
 3390 0cd6 510D0000 		.4byte	0xd51
 3391 0cda 1A       		.uleb128 0x1a
 3392 0cdb 790C0000 		.4byte	.LASF294
 3393 0cdf 01       		.byte	0x1
 3394 0ce0 DC01     		.2byte	0x1dc
 3395 0ce2 25000000 		.4byte	0x25
 3396 0ce6 02       		.uleb128 0x2
 3397 0ce7 91       		.byte	0x91
 3398 0ce8 54       		.sleb128 -44
 3399 0ce9 1C       		.uleb128 0x1c
 3400 0cea 65727200 		.ascii	"err\000"
 3401 0cee 01       		.byte	0x1
 3402 0cef DF01     		.2byte	0x1df
 3403 0cf1 58060000 		.4byte	0x658
 3404 0cf5 02       		.uleb128 0x2
 3405 0cf6 91       		.byte	0x91
 3406 0cf7 5E       		.sleb128 -34
 3407 0cf8 19       		.uleb128 0x19
 3408 0cf9 DC020000 		.4byte	.LASF298
 3409 0cfd 01       		.byte	0x1
 3410 0cfe E001     		.2byte	0x1e0
 3411 0d00 BC000000 		.4byte	0xbc
 3412 0d04 02       		.uleb128 0x2
 3413 0d05 91       		.byte	0x91
 3414 0d06 6F       		.sleb128 -17
 3415 0d07 19       		.uleb128 0x19
 3416 0d08 D9030000 		.4byte	.LASF299
 3417 0d0c 01       		.byte	0x1
 3418 0d0d E101     		.2byte	0x1e1
 3419 0d0f BC000000 		.4byte	0xbc
 3420 0d13 02       		.uleb128 0x2
 3421 0d14 91       		.byte	0x91
 3422 0d15 6E       		.sleb128 -18
 3423 0d16 19       		.uleb128 0x19
 3424 0d17 540D0000 		.4byte	.LASF300
 3425 0d1b 01       		.byte	0x1
 3426 0d1c E201     		.2byte	0x1e2
 3427 0d1e C7000000 		.4byte	0xc7
 3428 0d22 02       		.uleb128 0x2
 3429 0d23 91       		.byte	0x91
 3430 0d24 6C       		.sleb128 -20
 3431 0d25 19       		.uleb128 0x19
 3432 0d26 130D0000 		.4byte	.LASF301
 3433 0d2a 01       		.byte	0x1
 3434 0d2b E301     		.2byte	0x1e3
 3435 0d2d C7000000 		.4byte	0xc7
 3436 0d31 02       		.uleb128 0x2
 3437 0d32 91       		.byte	0x91
 3438 0d33 6A       		.sleb128 -22
 3439 0d34 1C       		.uleb128 0x1c
 3440 0d35 523100   		.ascii	"R1\000"
 3441 0d38 01       		.byte	0x1
 3442 0d39 E401     		.2byte	0x1e4
 3443 0d3b 9F000000 		.4byte	0x9f
 3444 0d3f 02       		.uleb128 0x2
ARM GAS  C:\Users\alex\AppData\Local\Temp\ccrLK32p.s 			page 78


 3445 0d40 91       		.byte	0x91
 3446 0d41 64       		.sleb128 -28
 3447 0d42 1C       		.uleb128 0x1c
 3448 0d43 523200   		.ascii	"R2\000"
 3449 0d46 01       		.byte	0x1
 3450 0d47 E401     		.2byte	0x1e4
 3451 0d49 9F000000 		.4byte	0x9f
 3452 0d4d 02       		.uleb128 0x2
 3453 0d4e 91       		.byte	0x91
 3454 0d4f 60       		.sleb128 -32
 3455 0d50 00       		.byte	0
 3456 0d51 18       		.uleb128 0x18
 3457 0d52 0F110000 		.4byte	.LASF302
 3458 0d56 01       		.byte	0x1
 3459 0d57 1C02     		.2byte	0x21c
 3460 0d59 00000000 		.4byte	.LFB74
 3461 0d5d C0000000 		.4byte	.LFE74-.LFB74
 3462 0d61 01       		.uleb128 0x1
 3463 0d62 9C       		.byte	0x9c
 3464 0d63 A10D0000 		.4byte	0xda1
 3465 0d67 1A       		.uleb128 0x1a
 3466 0d68 790C0000 		.4byte	.LASF294
 3467 0d6c 01       		.byte	0x1
 3468 0d6d 1C02     		.2byte	0x21c
 3469 0d6f 25000000 		.4byte	0x25
 3470 0d73 02       		.uleb128 0x2
 3471 0d74 91       		.byte	0x91
 3472 0d75 54       		.sleb128 -44
 3473 0d76 1B       		.uleb128 0x1b
 3474 0d77 76616C00 		.ascii	"val\000"
 3475 0d7b 01       		.byte	0x1
 3476 0d7c 1E02     		.2byte	0x21e
 3477 0d7e D2000000 		.4byte	0xd2
 3478 0d82 19       		.uleb128 0x19
 3479 0d83 450E0000 		.4byte	.LASF290
 3480 0d87 01       		.byte	0x1
 3481 0d88 1F02     		.2byte	0x21f
 3482 0d8a 58060000 		.4byte	0x658
 3483 0d8e 02       		.uleb128 0x2
 3484 0d8f 91       		.byte	0x91
 3485 0d90 6E       		.sleb128 -18
 3486 0d91 19       		.uleb128 0x19
 3487 0d92 03130000 		.4byte	.LASF303
 3488 0d96 01       		.byte	0x1
 3489 0d97 2002     		.2byte	0x220
 3490 0d99 A10D0000 		.4byte	0xda1
 3491 0d9d 02       		.uleb128 0x2
 3492 0d9e 91       		.byte	0x91
 3493 0d9f 5C       		.sleb128 -36
 3494 0da0 00       		.byte	0
 3495 0da1 10       		.uleb128 0x10
 3496 0da2 A6000000 		.4byte	0xa6
 3497 0da6 B10D0000 		.4byte	0xdb1
 3498 0daa 11       		.uleb128 0x11
 3499 0dab 7F000000 		.4byte	0x7f
 3500 0daf 10       		.byte	0x10
 3501 0db0 00       		.byte	0
ARM GAS  C:\Users\alex\AppData\Local\Temp\ccrLK32p.s 			page 79


 3502 0db1 1D       		.uleb128 0x1d
 3503 0db2 10000000 		.4byte	.LASF344
 3504 0db6 01       		.byte	0x1
 3505 0db7 5202     		.2byte	0x252
 3506 0db9 00000000 		.4byte	.LFB75
 3507 0dbd 0C000000 		.4byte	.LFE75-.LFB75
 3508 0dc1 01       		.uleb128 0x1
 3509 0dc2 9C       		.byte	0x9c
 3510 0dc3 18       		.uleb128 0x18
 3511 0dc4 99090000 		.4byte	.LASF304
 3512 0dc8 01       		.byte	0x1
 3513 0dc9 6802     		.2byte	0x268
 3514 0dcb 00000000 		.4byte	.LFB76
 3515 0dcf B8030000 		.4byte	.LFE76-.LFB76
 3516 0dd3 01       		.uleb128 0x1
 3517 0dd4 9C       		.byte	0x9c
 3518 0dd5 700E0000 		.4byte	0xe70
 3519 0dd9 1A       		.uleb128 0x1a
 3520 0dda 790C0000 		.4byte	.LASF294
 3521 0dde 01       		.byte	0x1
 3522 0ddf 6802     		.2byte	0x268
 3523 0de1 25000000 		.4byte	0x25
 3524 0de5 02       		.uleb128 0x2
 3525 0de6 91       		.byte	0x91
 3526 0de7 54       		.sleb128 -44
 3527 0de8 1C       		.uleb128 0x1c
 3528 0de9 76616C00 		.ascii	"val\000"
 3529 0ded 01       		.byte	0x1
 3530 0dee 6A02     		.2byte	0x26a
 3531 0df0 D2000000 		.4byte	0xd2
 3532 0df4 02       		.uleb128 0x2
 3533 0df5 91       		.byte	0x91
 3534 0df6 6C       		.sleb128 -20
 3535 0df7 19       		.uleb128 0x19
 3536 0df8 CF050000 		.4byte	.LASF305
 3537 0dfc 01       		.byte	0x1
 3538 0dfd 6B02     		.2byte	0x26b
 3539 0dff BC000000 		.4byte	0xbc
 3540 0e03 02       		.uleb128 0x2
 3541 0e04 91       		.byte	0x91
 3542 0e05 77       		.sleb128 -9
 3543 0e06 19       		.uleb128 0x19
 3544 0e07 56060000 		.4byte	.LASF306
 3545 0e0b 01       		.byte	0x1
 3546 0e0c 6C02     		.2byte	0x26c
 3547 0e0e BC000000 		.4byte	0xbc
 3548 0e12 02       		.uleb128 0x2
 3549 0e13 91       		.byte	0x91
 3550 0e14 76       		.sleb128 -10
 3551 0e15 19       		.uleb128 0x19
 3552 0e16 EE110000 		.4byte	.LASF307
 3553 0e1a 01       		.byte	0x1
 3554 0e1b 6D02     		.2byte	0x26d
 3555 0e1d B1000000 		.4byte	0xb1
 3556 0e21 02       		.uleb128 0x2
 3557 0e22 91       		.byte	0x91
 3558 0e23 73       		.sleb128 -13
ARM GAS  C:\Users\alex\AppData\Local\Temp\ccrLK32p.s 			page 80


 3559 0e24 19       		.uleb128 0x19
 3560 0e25 4B110000 		.4byte	.LASF308
 3561 0e29 01       		.byte	0x1
 3562 0e2a 6E02     		.2byte	0x26e
 3563 0e2c B1000000 		.4byte	0xb1
 3564 0e30 02       		.uleb128 0x2
 3565 0e31 91       		.byte	0x91
 3566 0e32 75       		.sleb128 -11
 3567 0e33 19       		.uleb128 0x19
 3568 0e34 8D050000 		.4byte	.LASF309
 3569 0e38 01       		.byte	0x1
 3570 0e39 6F02     		.2byte	0x26f
 3571 0e3b B1000000 		.4byte	0xb1
 3572 0e3f 02       		.uleb128 0x2
 3573 0e40 91       		.byte	0x91
 3574 0e41 72       		.sleb128 -14
 3575 0e42 19       		.uleb128 0x19
 3576 0e43 37050000 		.4byte	.LASF310
 3577 0e47 01       		.byte	0x1
 3578 0e48 7002     		.2byte	0x270
 3579 0e4a B1000000 		.4byte	0xb1
 3580 0e4e 02       		.uleb128 0x2
 3581 0e4f 91       		.byte	0x91
 3582 0e50 74       		.sleb128 -12
 3583 0e51 19       		.uleb128 0x19
 3584 0e52 450E0000 		.4byte	.LASF290
 3585 0e56 01       		.byte	0x1
 3586 0e57 7102     		.2byte	0x271
 3587 0e59 58060000 		.4byte	0x658
 3588 0e5d 02       		.uleb128 0x2
 3589 0e5e 91       		.byte	0x91
 3590 0e5f 6A       		.sleb128 -22
 3591 0e60 19       		.uleb128 0x19
 3592 0e61 03130000 		.4byte	.LASF303
 3593 0e65 01       		.byte	0x1
 3594 0e66 7202     		.2byte	0x272
 3595 0e68 A10D0000 		.4byte	0xda1
 3596 0e6c 02       		.uleb128 0x2
 3597 0e6d 91       		.byte	0x91
 3598 0e6e 58       		.sleb128 -40
 3599 0e6f 00       		.byte	0
 3600 0e70 1E       		.uleb128 0x1e
 3601 0e71 1C0E0000 		.4byte	.LASF311
 3602 0e75 01       		.byte	0x1
 3603 0e76 F602     		.2byte	0x2f6
 3604 0e78 00000000 		.4byte	.LFB77
 3605 0e7c 3E000000 		.4byte	.LFE77-.LFB77
 3606 0e80 01       		.uleb128 0x1
 3607 0e81 9C       		.byte	0x9c
 3608 0e82 950E0000 		.4byte	0xe95
 3609 0e86 1F       		.uleb128 0x1f
 3610 0e87 6F7000   		.ascii	"op\000"
 3611 0e8a 01       		.byte	0x1
 3612 0e8b F602     		.2byte	0x2f6
 3613 0e8d BC000000 		.4byte	0xbc
 3614 0e91 02       		.uleb128 0x2
 3615 0e92 91       		.byte	0x91
ARM GAS  C:\Users\alex\AppData\Local\Temp\ccrLK32p.s 			page 81


 3616 0e93 77       		.sleb128 -9
 3617 0e94 00       		.byte	0
 3618 0e95 1E       		.uleb128 0x1e
 3619 0e96 B6030000 		.4byte	.LASF312
 3620 0e9a 01       		.byte	0x1
 3621 0e9b 0703     		.2byte	0x307
 3622 0e9d 00000000 		.4byte	.LFB78
 3623 0ea1 38000000 		.4byte	.LFE78-.LFB78
 3624 0ea5 01       		.uleb128 0x1
 3625 0ea6 9C       		.byte	0x9c
 3626 0ea7 BA0E0000 		.4byte	0xeba
 3627 0eab 1F       		.uleb128 0x1f
 3628 0eac 6F7000   		.ascii	"op\000"
 3629 0eaf 01       		.byte	0x1
 3630 0eb0 0703     		.2byte	0x307
 3631 0eb2 BC000000 		.4byte	0xbc
 3632 0eb6 02       		.uleb128 0x2
 3633 0eb7 91       		.byte	0x91
 3634 0eb8 77       		.sleb128 -9
 3635 0eb9 00       		.byte	0
 3636 0eba 1E       		.uleb128 0x1e
 3637 0ebb DB140000 		.4byte	.LASF313
 3638 0ebf 01       		.byte	0x1
 3639 0ec0 1503     		.2byte	0x315
 3640 0ec2 00000000 		.4byte	.LFB79
 3641 0ec6 38000000 		.4byte	.LFE79-.LFB79
 3642 0eca 01       		.uleb128 0x1
 3643 0ecb 9C       		.byte	0x9c
 3644 0ecc DF0E0000 		.4byte	0xedf
 3645 0ed0 1F       		.uleb128 0x1f
 3646 0ed1 6F7000   		.ascii	"op\000"
 3647 0ed4 01       		.byte	0x1
 3648 0ed5 1503     		.2byte	0x315
 3649 0ed7 BC000000 		.4byte	0xbc
 3650 0edb 02       		.uleb128 0x2
 3651 0edc 91       		.byte	0x91
 3652 0edd 77       		.sleb128 -9
 3653 0ede 00       		.byte	0
 3654 0edf 1E       		.uleb128 0x1e
 3655 0ee0 F0100000 		.4byte	.LASF314
 3656 0ee4 01       		.byte	0x1
 3657 0ee5 2403     		.2byte	0x324
 3658 0ee7 00000000 		.4byte	.LFB80
 3659 0eeb 38000000 		.4byte	.LFE80-.LFB80
 3660 0eef 01       		.uleb128 0x1
 3661 0ef0 9C       		.byte	0x9c
 3662 0ef1 040F0000 		.4byte	0xf04
 3663 0ef5 1F       		.uleb128 0x1f
 3664 0ef6 6F7000   		.ascii	"op\000"
 3665 0ef9 01       		.byte	0x1
 3666 0efa 2403     		.2byte	0x324
 3667 0efc BC000000 		.4byte	0xbc
 3668 0f00 02       		.uleb128 0x2
 3669 0f01 91       		.byte	0x91
 3670 0f02 77       		.sleb128 -9
 3671 0f03 00       		.byte	0
 3672 0f04 14       		.uleb128 0x14
ARM GAS  C:\Users\alex\AppData\Local\Temp\ccrLK32p.s 			page 82


 3673 0f05 430D0000 		.4byte	.LASF315
 3674 0f09 01       		.byte	0x1
 3675 0f0a 46       		.byte	0x46
 3676 0f0b 19070000 		.4byte	0x719
 3677 0f0f 05       		.uleb128 0x5
 3678 0f10 03       		.byte	0x3
 3679 0f11 00000000 		.4byte	App_TaskStartTCB
 3680 0f15 10       		.uleb128 0x10
 3681 0f16 F9000000 		.4byte	0xf9
 3682 0f1a 250F0000 		.4byte	0xf25
 3683 0f1e 11       		.uleb128 0x11
 3684 0f1f 7F000000 		.4byte	0x7f
 3685 0f23 7F       		.byte	0x7f
 3686 0f24 00       		.byte	0
 3687 0f25 14       		.uleb128 0x14
 3688 0f26 99000000 		.4byte	.LASF316
 3689 0f2a 01       		.byte	0x1
 3690 0f2b 47       		.byte	0x47
 3691 0f2c 150F0000 		.4byte	0xf15
 3692 0f30 05       		.uleb128 0x5
 3693 0f31 03       		.byte	0x3
 3694 0f32 C0000000 		.4byte	App_TaskStartStk
 3695 0f36 14       		.uleb128 0x14
 3696 0f37 C8140000 		.4byte	.LASF317
 3697 0f3b 01       		.byte	0x1
 3698 0f3c 49       		.byte	0x49
 3699 0f3d 19070000 		.4byte	0x719
 3700 0f41 05       		.uleb128 0x5
 3701 0f42 03       		.byte	0x3
 3702 0f43 C0020000 		.4byte	App_TaskUserIF_TCB
 3703 0f47 14       		.uleb128 0x14
 3704 0f48 AA000000 		.4byte	.LASF318
 3705 0f4c 01       		.byte	0x1
 3706 0f4d 4A       		.byte	0x4a
 3707 0f4e 150F0000 		.4byte	0xf15
 3708 0f52 05       		.uleb128 0x5
 3709 0f53 03       		.byte	0x3
 3710 0f54 80030000 		.4byte	App_TaskUserIFStk
 3711 0f58 14       		.uleb128 0x14
 3712 0f59 64130000 		.4byte	.LASF319
 3713 0f5d 01       		.byte	0x1
 3714 0f5e 4D       		.byte	0x4d
 3715 0f5f 19070000 		.4byte	0x719
 3716 0f63 05       		.uleb128 0x5
 3717 0f64 03       		.byte	0x3
 3718 0f65 80050000 		.4byte	App_Task_Ihm_TCB
 3719 0f69 14       		.uleb128 0x14
 3720 0f6a BE0A0000 		.4byte	.LASF320
 3721 0f6e 01       		.byte	0x1
 3722 0f6f 4E       		.byte	0x4e
 3723 0f70 150F0000 		.4byte	0xf15
 3724 0f74 05       		.uleb128 0x5
 3725 0f75 03       		.byte	0x3
 3726 0f76 40060000 		.4byte	App_Task_Ihm_Stk
 3727 0f7a 14       		.uleb128 0x14
 3728 0f7b A2100000 		.4byte	.LASF321
 3729 0f7f 01       		.byte	0x1
ARM GAS  C:\Users\alex\AppData\Local\Temp\ccrLK32p.s 			page 83


 3730 0f80 51       		.byte	0x51
 3731 0f81 19070000 		.4byte	0x719
 3732 0f85 05       		.uleb128 0x5
 3733 0f86 03       		.byte	0x3
 3734 0f87 40080000 		.4byte	App_Task_Emerg_TCB
 3735 0f8b 14       		.uleb128 0x14
 3736 0f8c EA030000 		.4byte	.LASF322
 3737 0f90 01       		.byte	0x1
 3738 0f91 52       		.byte	0x52
 3739 0f92 150F0000 		.4byte	0xf15
 3740 0f96 05       		.uleb128 0x5
 3741 0f97 03       		.byte	0x3
 3742 0f98 00090000 		.4byte	App_Task_Emerg_Stk
 3743 0f9c 14       		.uleb128 0x14
 3744 0f9d E90B0000 		.4byte	.LASF323
 3745 0fa1 01       		.byte	0x1
 3746 0fa2 55       		.byte	0x55
 3747 0fa3 19070000 		.4byte	0x719
 3748 0fa7 05       		.uleb128 0x5
 3749 0fa8 03       		.byte	0x3
 3750 0fa9 000B0000 		.4byte	App_Task_Sen_Mec_TCB
 3751 0fad 14       		.uleb128 0x14
 3752 0fae B3140000 		.4byte	.LASF324
 3753 0fb2 01       		.byte	0x1
 3754 0fb3 56       		.byte	0x56
 3755 0fb4 150F0000 		.4byte	0xf15
 3756 0fb8 05       		.uleb128 0x5
 3757 0fb9 03       		.byte	0x3
 3758 0fba C00B0000 		.4byte	App_Task_Sen_Mec_Stk
 3759 0fbe 14       		.uleb128 0x14
 3760 0fbf 4C0E0000 		.4byte	.LASF325
 3761 0fc3 01       		.byte	0x1
 3762 0fc4 59       		.byte	0x59
 3763 0fc5 19070000 		.4byte	0x719
 3764 0fc9 05       		.uleb128 0x5
 3765 0fca 03       		.byte	0x3
 3766 0fcb C00D0000 		.4byte	App_Task_Sen_Temp_TCB
 3767 0fcf 14       		.uleb128 0x14
 3768 0fd0 2D020000 		.4byte	.LASF326
 3769 0fd4 01       		.byte	0x1
 3770 0fd5 5A       		.byte	0x5a
 3771 0fd6 150F0000 		.4byte	0xf15
 3772 0fda 05       		.uleb128 0x5
 3773 0fdb 03       		.byte	0x3
 3774 0fdc 800E0000 		.4byte	App_Task_Sen_Temp_Stk
 3775 0fe0 14       		.uleb128 0x14
 3776 0fe1 3B100000 		.4byte	.LASF327
 3777 0fe5 01       		.byte	0x1
 3778 0fe6 5D       		.byte	0x5d
 3779 0fe7 19070000 		.4byte	0x719
 3780 0feb 05       		.uleb128 0x5
 3781 0fec 03       		.byte	0x3
 3782 0fed 80100000 		.4byte	App_Task_Display_TCB
 3783 0ff1 14       		.uleb128 0x14
 3784 0ff2 A1030000 		.4byte	.LASF328
 3785 0ff6 01       		.byte	0x1
 3786 0ff7 5E       		.byte	0x5e
ARM GAS  C:\Users\alex\AppData\Local\Temp\ccrLK32p.s 			page 84


 3787 0ff8 150F0000 		.4byte	0xf15
 3788 0ffc 05       		.uleb128 0x5
 3789 0ffd 03       		.byte	0x3
 3790 0ffe 40110000 		.4byte	App_Task_Display_Stk
 3791 1002 20       		.uleb128 0x20
 3792 1003 23010000 		.4byte	.LASF329
 3793 1007 07       		.byte	0x7
 3794 1008 BD04     		.2byte	0x4bd
 3795 100a 25010000 		.4byte	0x125
 3796 100e 20       		.uleb128 0x20
 3797 100f E1100000 		.4byte	.LASF330
 3798 1013 07       		.byte	0x7
 3799 1014 C804     		.2byte	0x4c8
 3800 1016 30010000 		.4byte	0x130
 3801 101a 20       		.uleb128 0x20
 3802 101b CF0D0000 		.4byte	.LASF331
 3803 101f 07       		.byte	0x7
 3804 1020 D304     		.2byte	0x4d3
 3805 1022 D5010000 		.4byte	0x1d5
 3806 1026 20       		.uleb128 0x20
 3807 1027 FD100000 		.4byte	.LASF332
 3808 102b 07       		.byte	0x7
 3809 102c 0F05     		.2byte	0x50f
 3810 102e 32100000 		.4byte	0x1032
 3811 1032 21       		.uleb128 0x21
 3812 1033 9E010000 		.4byte	0x19e
 3813 1037 20       		.uleb128 0x20
 3814 1038 D7120000 		.4byte	.LASF333
 3815 103c 09       		.byte	0x9
 3816 103d 1207     		.2byte	0x712
 3817 103f 43100000 		.4byte	0x1043
 3818 1043 22       		.uleb128 0x22
 3819 1044 8D000000 		.4byte	0x8d
 3820 1048 23       		.uleb128 0x23
 3821 1049 1C120000 		.4byte	.LASF334
 3822 104d 01       		.byte	0x1
 3823 104e 61       		.byte	0x61
 3824 104f BC000000 		.4byte	0xbc
 3825 1053 05       		.uleb128 0x5
 3826 1054 03       		.byte	0x3
 3827 1055 00000000 		.4byte	motor
 3828 1059 23       		.uleb128 0x23
 3829 105a E7020000 		.4byte	.LASF335
 3830 105e 01       		.byte	0x1
 3831 105f 62       		.byte	0x62
 3832 1060 BC000000 		.4byte	0xbc
 3833 1064 05       		.uleb128 0x5
 3834 1065 03       		.byte	0x3
 3835 1066 00000000 		.4byte	emerg
 3836 106a 23       		.uleb128 0x23
 3837 106b B70A0000 		.4byte	.LASF336
 3838 106f 01       		.byte	0x1
 3839 1070 63       		.byte	0x63
 3840 1071 BC000000 		.4byte	0xbc
 3841 1075 05       		.uleb128 0x5
 3842 1076 03       		.byte	0x3
 3843 1077 00000000 		.4byte	rearme
ARM GAS  C:\Users\alex\AppData\Local\Temp\ccrLK32p.s 			page 85


 3844 107b 23       		.uleb128 0x23
 3845 107c 1B050000 		.4byte	.LASF337
 3846 1080 01       		.byte	0x1
 3847 1081 64       		.byte	0x64
 3848 1082 BC000000 		.4byte	0xbc
 3849 1086 05       		.uleb128 0x5
 3850 1087 03       		.byte	0x3
 3851 1088 00000000 		.4byte	alerta
 3852 108c 23       		.uleb128 0x23
 3853 108d 5F0D0000 		.4byte	.LASF338
 3854 1091 01       		.byte	0x1
 3855 1092 67       		.byte	0x67
 3856 1093 9F000000 		.4byte	0x9f
 3857 1097 05       		.uleb128 0x5
 3858 1098 03       		.byte	0x3
 3859 1099 00000000 		.4byte	tempM
 3860 109d 23       		.uleb128 0x23
 3861 109e 650D0000 		.4byte	.LASF339
 3862 10a2 01       		.byte	0x1
 3863 10a3 68       		.byte	0x68
 3864 10a4 9F000000 		.4byte	0x9f
 3865 10a8 05       		.uleb128 0x5
 3866 10a9 03       		.byte	0x3
 3867 10aa 00000000 		.4byte	tempQ
 3868 10ae 00       		.byte	0
 3869              		.section	.debug_abbrev,"",%progbits
 3870              	.Ldebug_abbrev0:
 3871 0000 01       		.uleb128 0x1
 3872 0001 11       		.uleb128 0x11
 3873 0002 01       		.byte	0x1
 3874 0003 25       		.uleb128 0x25
 3875 0004 0E       		.uleb128 0xe
 3876 0005 13       		.uleb128 0x13
 3877 0006 0B       		.uleb128 0xb
 3878 0007 03       		.uleb128 0x3
 3879 0008 0E       		.uleb128 0xe
 3880 0009 1B       		.uleb128 0x1b
 3881 000a 0E       		.uleb128 0xe
 3882 000b 55       		.uleb128 0x55
 3883 000c 17       		.uleb128 0x17
 3884 000d 11       		.uleb128 0x11
 3885 000e 01       		.uleb128 0x1
 3886 000f 10       		.uleb128 0x10
 3887 0010 17       		.uleb128 0x17
 3888 0011 00       		.byte	0
 3889 0012 00       		.byte	0
 3890 0013 02       		.uleb128 0x2
 3891 0014 0F       		.uleb128 0xf
 3892 0015 00       		.byte	0
 3893 0016 0B       		.uleb128 0xb
 3894 0017 0B       		.uleb128 0xb
 3895 0018 00       		.byte	0
 3896 0019 00       		.byte	0
 3897 001a 03       		.uleb128 0x3
 3898 001b 24       		.uleb128 0x24
 3899 001c 00       		.byte	0
 3900 001d 0B       		.uleb128 0xb
ARM GAS  C:\Users\alex\AppData\Local\Temp\ccrLK32p.s 			page 86


 3901 001e 0B       		.uleb128 0xb
 3902 001f 3E       		.uleb128 0x3e
 3903 0020 0B       		.uleb128 0xb
 3904 0021 03       		.uleb128 0x3
 3905 0022 0E       		.uleb128 0xe
 3906 0023 00       		.byte	0
 3907 0024 00       		.byte	0
 3908 0025 04       		.uleb128 0x4
 3909 0026 16       		.uleb128 0x16
 3910 0027 00       		.byte	0
 3911 0028 03       		.uleb128 0x3
 3912 0029 0E       		.uleb128 0xe
 3913 002a 3A       		.uleb128 0x3a
 3914 002b 0B       		.uleb128 0xb
 3915 002c 3B       		.uleb128 0x3b
 3916 002d 0B       		.uleb128 0xb
 3917 002e 49       		.uleb128 0x49
 3918 002f 13       		.uleb128 0x13
 3919 0030 00       		.byte	0
 3920 0031 00       		.byte	0
 3921 0032 05       		.uleb128 0x5
 3922 0033 24       		.uleb128 0x24
 3923 0034 00       		.byte	0
 3924 0035 0B       		.uleb128 0xb
 3925 0036 0B       		.uleb128 0xb
 3926 0037 3E       		.uleb128 0x3e
 3927 0038 0B       		.uleb128 0xb
 3928 0039 03       		.uleb128 0x3
 3929 003a 08       		.uleb128 0x8
 3930 003b 00       		.byte	0
 3931 003c 00       		.byte	0
 3932 003d 06       		.uleb128 0x6
 3933 003e 0F       		.uleb128 0xf
 3934 003f 00       		.byte	0
 3935 0040 0B       		.uleb128 0xb
 3936 0041 0B       		.uleb128 0xb
 3937 0042 49       		.uleb128 0x49
 3938 0043 13       		.uleb128 0x13
 3939 0044 00       		.byte	0
 3940 0045 00       		.byte	0
 3941 0046 07       		.uleb128 0x7
 3942 0047 15       		.uleb128 0x15
 3943 0048 01       		.byte	0x1
 3944 0049 27       		.uleb128 0x27
 3945 004a 19       		.uleb128 0x19
 3946 004b 01       		.uleb128 0x1
 3947 004c 13       		.uleb128 0x13
 3948 004d 00       		.byte	0
 3949 004e 00       		.byte	0
 3950 004f 08       		.uleb128 0x8
 3951 0050 05       		.uleb128 0x5
 3952 0051 00       		.byte	0
 3953 0052 49       		.uleb128 0x49
 3954 0053 13       		.uleb128 0x13
 3955 0054 00       		.byte	0
 3956 0055 00       		.byte	0
 3957 0056 09       		.uleb128 0x9
ARM GAS  C:\Users\alex\AppData\Local\Temp\ccrLK32p.s 			page 87


 3958 0057 04       		.uleb128 0x4
 3959 0058 01       		.byte	0x1
 3960 0059 03       		.uleb128 0x3
 3961 005a 0E       		.uleb128 0xe
 3962 005b 0B       		.uleb128 0xb
 3963 005c 0B       		.uleb128 0xb
 3964 005d 49       		.uleb128 0x49
 3965 005e 13       		.uleb128 0x13
 3966 005f 3A       		.uleb128 0x3a
 3967 0060 0B       		.uleb128 0xb
 3968 0061 3B       		.uleb128 0x3b
 3969 0062 05       		.uleb128 0x5
 3970 0063 01       		.uleb128 0x1
 3971 0064 13       		.uleb128 0x13
 3972 0065 00       		.byte	0
 3973 0066 00       		.byte	0
 3974 0067 0A       		.uleb128 0xa
 3975 0068 28       		.uleb128 0x28
 3976 0069 00       		.byte	0
 3977 006a 03       		.uleb128 0x3
 3978 006b 0E       		.uleb128 0xe
 3979 006c 1C       		.uleb128 0x1c
 3980 006d 0B       		.uleb128 0xb
 3981 006e 00       		.byte	0
 3982 006f 00       		.byte	0
 3983 0070 0B       		.uleb128 0xb
 3984 0071 28       		.uleb128 0x28
 3985 0072 00       		.byte	0
 3986 0073 03       		.uleb128 0x3
 3987 0074 0E       		.uleb128 0xe
 3988 0075 1C       		.uleb128 0x1c
 3989 0076 05       		.uleb128 0x5
 3990 0077 00       		.byte	0
 3991 0078 00       		.byte	0
 3992 0079 0C       		.uleb128 0xc
 3993 007a 16       		.uleb128 0x16
 3994 007b 00       		.byte	0
 3995 007c 03       		.uleb128 0x3
 3996 007d 0E       		.uleb128 0xe
 3997 007e 3A       		.uleb128 0x3a
 3998 007f 0B       		.uleb128 0xb
 3999 0080 3B       		.uleb128 0x3b
 4000 0081 05       		.uleb128 0x5
 4001 0082 49       		.uleb128 0x49
 4002 0083 13       		.uleb128 0x13
 4003 0084 00       		.byte	0
 4004 0085 00       		.byte	0
 4005 0086 0D       		.uleb128 0xd
 4006 0087 13       		.uleb128 0x13
 4007 0088 01       		.byte	0x1
 4008 0089 03       		.uleb128 0x3
 4009 008a 0E       		.uleb128 0xe
 4010 008b 0B       		.uleb128 0xb
 4011 008c 0B       		.uleb128 0xb
 4012 008d 3A       		.uleb128 0x3a
 4013 008e 0B       		.uleb128 0xb
 4014 008f 3B       		.uleb128 0x3b
ARM GAS  C:\Users\alex\AppData\Local\Temp\ccrLK32p.s 			page 88


 4015 0090 05       		.uleb128 0x5
 4016 0091 01       		.uleb128 0x1
 4017 0092 13       		.uleb128 0x13
 4018 0093 00       		.byte	0
 4019 0094 00       		.byte	0
 4020 0095 0E       		.uleb128 0xe
 4021 0096 0D       		.uleb128 0xd
 4022 0097 00       		.byte	0
 4023 0098 03       		.uleb128 0x3
 4024 0099 0E       		.uleb128 0xe
 4025 009a 3A       		.uleb128 0x3a
 4026 009b 0B       		.uleb128 0xb
 4027 009c 3B       		.uleb128 0x3b
 4028 009d 05       		.uleb128 0x5
 4029 009e 49       		.uleb128 0x49
 4030 009f 13       		.uleb128 0x13
 4031 00a0 38       		.uleb128 0x38
 4032 00a1 0B       		.uleb128 0xb
 4033 00a2 00       		.byte	0
 4034 00a3 00       		.byte	0
 4035 00a4 0F       		.uleb128 0xf
 4036 00a5 0D       		.uleb128 0xd
 4037 00a6 00       		.byte	0
 4038 00a7 03       		.uleb128 0x3
 4039 00a8 08       		.uleb128 0x8
 4040 00a9 3A       		.uleb128 0x3a
 4041 00aa 0B       		.uleb128 0xb
 4042 00ab 3B       		.uleb128 0x3b
 4043 00ac 05       		.uleb128 0x5
 4044 00ad 49       		.uleb128 0x49
 4045 00ae 13       		.uleb128 0x13
 4046 00af 38       		.uleb128 0x38
 4047 00b0 0B       		.uleb128 0xb
 4048 00b1 00       		.byte	0
 4049 00b2 00       		.byte	0
 4050 00b3 10       		.uleb128 0x10
 4051 00b4 01       		.uleb128 0x1
 4052 00b5 01       		.byte	0x1
 4053 00b6 49       		.uleb128 0x49
 4054 00b7 13       		.uleb128 0x13
 4055 00b8 01       		.uleb128 0x1
 4056 00b9 13       		.uleb128 0x13
 4057 00ba 00       		.byte	0
 4058 00bb 00       		.byte	0
 4059 00bc 11       		.uleb128 0x11
 4060 00bd 21       		.uleb128 0x21
 4061 00be 00       		.byte	0
 4062 00bf 49       		.uleb128 0x49
 4063 00c0 13       		.uleb128 0x13
 4064 00c1 2F       		.uleb128 0x2f
 4065 00c2 0B       		.uleb128 0xb
 4066 00c3 00       		.byte	0
 4067 00c4 00       		.byte	0
 4068 00c5 12       		.uleb128 0x12
 4069 00c6 2E       		.uleb128 0x2e
 4070 00c7 00       		.byte	0
 4071 00c8 3F       		.uleb128 0x3f
ARM GAS  C:\Users\alex\AppData\Local\Temp\ccrLK32p.s 			page 89


 4072 00c9 19       		.uleb128 0x19
 4073 00ca 03       		.uleb128 0x3
 4074 00cb 0E       		.uleb128 0xe
 4075 00cc 3A       		.uleb128 0x3a
 4076 00cd 0B       		.uleb128 0xb
 4077 00ce 3B       		.uleb128 0x3b
 4078 00cf 0B       		.uleb128 0xb
 4079 00d0 27       		.uleb128 0x27
 4080 00d1 19       		.uleb128 0x19
 4081 00d2 11       		.uleb128 0x11
 4082 00d3 01       		.uleb128 0x1
 4083 00d4 12       		.uleb128 0x12
 4084 00d5 06       		.uleb128 0x6
 4085 00d6 40       		.uleb128 0x40
 4086 00d7 18       		.uleb128 0x18
 4087 00d8 9642     		.uleb128 0x2116
 4088 00da 19       		.uleb128 0x19
 4089 00db 00       		.byte	0
 4090 00dc 00       		.byte	0
 4091 00dd 13       		.uleb128 0x13
 4092 00de 2E       		.uleb128 0x2e
 4093 00df 01       		.byte	0x1
 4094 00e0 3F       		.uleb128 0x3f
 4095 00e1 19       		.uleb128 0x19
 4096 00e2 03       		.uleb128 0x3
 4097 00e3 0E       		.uleb128 0xe
 4098 00e4 3A       		.uleb128 0x3a
 4099 00e5 0B       		.uleb128 0xb
 4100 00e6 3B       		.uleb128 0x3b
 4101 00e7 0B       		.uleb128 0xb
 4102 00e8 27       		.uleb128 0x27
 4103 00e9 19       		.uleb128 0x19
 4104 00ea 49       		.uleb128 0x49
 4105 00eb 13       		.uleb128 0x13
 4106 00ec 11       		.uleb128 0x11
 4107 00ed 01       		.uleb128 0x1
 4108 00ee 12       		.uleb128 0x12
 4109 00ef 06       		.uleb128 0x6
 4110 00f0 40       		.uleb128 0x40
 4111 00f1 18       		.uleb128 0x18
 4112 00f2 9642     		.uleb128 0x2116
 4113 00f4 19       		.uleb128 0x19
 4114 00f5 01       		.uleb128 0x1
 4115 00f6 13       		.uleb128 0x13
 4116 00f7 00       		.byte	0
 4117 00f8 00       		.byte	0
 4118 00f9 14       		.uleb128 0x14
 4119 00fa 34       		.uleb128 0x34
 4120 00fb 00       		.byte	0
 4121 00fc 03       		.uleb128 0x3
 4122 00fd 0E       		.uleb128 0xe
 4123 00fe 3A       		.uleb128 0x3a
 4124 00ff 0B       		.uleb128 0xb
 4125 0100 3B       		.uleb128 0x3b
 4126 0101 0B       		.uleb128 0xb
 4127 0102 49       		.uleb128 0x49
 4128 0103 13       		.uleb128 0x13
ARM GAS  C:\Users\alex\AppData\Local\Temp\ccrLK32p.s 			page 90


 4129 0104 02       		.uleb128 0x2
 4130 0105 18       		.uleb128 0x18
 4131 0106 00       		.byte	0
 4132 0107 00       		.byte	0
 4133 0108 15       		.uleb128 0x15
 4134 0109 2E       		.uleb128 0x2e
 4135 010a 01       		.byte	0x1
 4136 010b 03       		.uleb128 0x3
 4137 010c 0E       		.uleb128 0xe
 4138 010d 3A       		.uleb128 0x3a
 4139 010e 0B       		.uleb128 0xb
 4140 010f 3B       		.uleb128 0x3b
 4141 0110 0B       		.uleb128 0xb
 4142 0111 27       		.uleb128 0x27
 4143 0112 19       		.uleb128 0x19
 4144 0113 11       		.uleb128 0x11
 4145 0114 01       		.uleb128 0x1
 4146 0115 12       		.uleb128 0x12
 4147 0116 06       		.uleb128 0x6
 4148 0117 40       		.uleb128 0x40
 4149 0118 18       		.uleb128 0x18
 4150 0119 9642     		.uleb128 0x2116
 4151 011b 19       		.uleb128 0x19
 4152 011c 01       		.uleb128 0x1
 4153 011d 13       		.uleb128 0x13
 4154 011e 00       		.byte	0
 4155 011f 00       		.byte	0
 4156 0120 16       		.uleb128 0x16
 4157 0121 05       		.uleb128 0x5
 4158 0122 00       		.byte	0
 4159 0123 03       		.uleb128 0x3
 4160 0124 0E       		.uleb128 0xe
 4161 0125 3A       		.uleb128 0x3a
 4162 0126 0B       		.uleb128 0xb
 4163 0127 3B       		.uleb128 0x3b
 4164 0128 0B       		.uleb128 0xb
 4165 0129 49       		.uleb128 0x49
 4166 012a 13       		.uleb128 0x13
 4167 012b 02       		.uleb128 0x2
 4168 012c 18       		.uleb128 0x18
 4169 012d 00       		.byte	0
 4170 012e 00       		.byte	0
 4171 012f 17       		.uleb128 0x17
 4172 0130 34       		.uleb128 0x34
 4173 0131 00       		.byte	0
 4174 0132 03       		.uleb128 0x3
 4175 0133 08       		.uleb128 0x8
 4176 0134 3A       		.uleb128 0x3a
 4177 0135 0B       		.uleb128 0xb
 4178 0136 3B       		.uleb128 0x3b
 4179 0137 0B       		.uleb128 0xb
 4180 0138 49       		.uleb128 0x49
 4181 0139 13       		.uleb128 0x13
 4182 013a 02       		.uleb128 0x2
 4183 013b 18       		.uleb128 0x18
 4184 013c 00       		.byte	0
 4185 013d 00       		.byte	0
ARM GAS  C:\Users\alex\AppData\Local\Temp\ccrLK32p.s 			page 91


 4186 013e 18       		.uleb128 0x18
 4187 013f 2E       		.uleb128 0x2e
 4188 0140 01       		.byte	0x1
 4189 0141 03       		.uleb128 0x3
 4190 0142 0E       		.uleb128 0xe
 4191 0143 3A       		.uleb128 0x3a
 4192 0144 0B       		.uleb128 0xb
 4193 0145 3B       		.uleb128 0x3b
 4194 0146 05       		.uleb128 0x5
 4195 0147 27       		.uleb128 0x27
 4196 0148 19       		.uleb128 0x19
 4197 0149 11       		.uleb128 0x11
 4198 014a 01       		.uleb128 0x1
 4199 014b 12       		.uleb128 0x12
 4200 014c 06       		.uleb128 0x6
 4201 014d 40       		.uleb128 0x40
 4202 014e 18       		.uleb128 0x18
 4203 014f 9642     		.uleb128 0x2116
 4204 0151 19       		.uleb128 0x19
 4205 0152 01       		.uleb128 0x1
 4206 0153 13       		.uleb128 0x13
 4207 0154 00       		.byte	0
 4208 0155 00       		.byte	0
 4209 0156 19       		.uleb128 0x19
 4210 0157 34       		.uleb128 0x34
 4211 0158 00       		.byte	0
 4212 0159 03       		.uleb128 0x3
 4213 015a 0E       		.uleb128 0xe
 4214 015b 3A       		.uleb128 0x3a
 4215 015c 0B       		.uleb128 0xb
 4216 015d 3B       		.uleb128 0x3b
 4217 015e 05       		.uleb128 0x5
 4218 015f 49       		.uleb128 0x49
 4219 0160 13       		.uleb128 0x13
 4220 0161 02       		.uleb128 0x2
 4221 0162 18       		.uleb128 0x18
 4222 0163 00       		.byte	0
 4223 0164 00       		.byte	0
 4224 0165 1A       		.uleb128 0x1a
 4225 0166 05       		.uleb128 0x5
 4226 0167 00       		.byte	0
 4227 0168 03       		.uleb128 0x3
 4228 0169 0E       		.uleb128 0xe
 4229 016a 3A       		.uleb128 0x3a
 4230 016b 0B       		.uleb128 0xb
 4231 016c 3B       		.uleb128 0x3b
 4232 016d 05       		.uleb128 0x5
 4233 016e 49       		.uleb128 0x49
 4234 016f 13       		.uleb128 0x13
 4235 0170 02       		.uleb128 0x2
 4236 0171 18       		.uleb128 0x18
 4237 0172 00       		.byte	0
 4238 0173 00       		.byte	0
 4239 0174 1B       		.uleb128 0x1b
 4240 0175 34       		.uleb128 0x34
 4241 0176 00       		.byte	0
 4242 0177 03       		.uleb128 0x3
ARM GAS  C:\Users\alex\AppData\Local\Temp\ccrLK32p.s 			page 92


 4243 0178 08       		.uleb128 0x8
 4244 0179 3A       		.uleb128 0x3a
 4245 017a 0B       		.uleb128 0xb
 4246 017b 3B       		.uleb128 0x3b
 4247 017c 05       		.uleb128 0x5
 4248 017d 49       		.uleb128 0x49
 4249 017e 13       		.uleb128 0x13
 4250 017f 00       		.byte	0
 4251 0180 00       		.byte	0
 4252 0181 1C       		.uleb128 0x1c
 4253 0182 34       		.uleb128 0x34
 4254 0183 00       		.byte	0
 4255 0184 03       		.uleb128 0x3
 4256 0185 08       		.uleb128 0x8
 4257 0186 3A       		.uleb128 0x3a
 4258 0187 0B       		.uleb128 0xb
 4259 0188 3B       		.uleb128 0x3b
 4260 0189 05       		.uleb128 0x5
 4261 018a 49       		.uleb128 0x49
 4262 018b 13       		.uleb128 0x13
 4263 018c 02       		.uleb128 0x2
 4264 018d 18       		.uleb128 0x18
 4265 018e 00       		.byte	0
 4266 018f 00       		.byte	0
 4267 0190 1D       		.uleb128 0x1d
 4268 0191 2E       		.uleb128 0x2e
 4269 0192 00       		.byte	0
 4270 0193 03       		.uleb128 0x3
 4271 0194 0E       		.uleb128 0xe
 4272 0195 3A       		.uleb128 0x3a
 4273 0196 0B       		.uleb128 0xb
 4274 0197 3B       		.uleb128 0x3b
 4275 0198 05       		.uleb128 0x5
 4276 0199 27       		.uleb128 0x27
 4277 019a 19       		.uleb128 0x19
 4278 019b 11       		.uleb128 0x11
 4279 019c 01       		.uleb128 0x1
 4280 019d 12       		.uleb128 0x12
 4281 019e 06       		.uleb128 0x6
 4282 019f 40       		.uleb128 0x40
 4283 01a0 18       		.uleb128 0x18
 4284 01a1 9742     		.uleb128 0x2117
 4285 01a3 19       		.uleb128 0x19
 4286 01a4 00       		.byte	0
 4287 01a5 00       		.byte	0
 4288 01a6 1E       		.uleb128 0x1e
 4289 01a7 2E       		.uleb128 0x2e
 4290 01a8 01       		.byte	0x1
 4291 01a9 3F       		.uleb128 0x3f
 4292 01aa 19       		.uleb128 0x19
 4293 01ab 03       		.uleb128 0x3
 4294 01ac 0E       		.uleb128 0xe
 4295 01ad 3A       		.uleb128 0x3a
 4296 01ae 0B       		.uleb128 0xb
 4297 01af 3B       		.uleb128 0x3b
 4298 01b0 05       		.uleb128 0x5
 4299 01b1 27       		.uleb128 0x27
ARM GAS  C:\Users\alex\AppData\Local\Temp\ccrLK32p.s 			page 93


 4300 01b2 19       		.uleb128 0x19
 4301 01b3 11       		.uleb128 0x11
 4302 01b4 01       		.uleb128 0x1
 4303 01b5 12       		.uleb128 0x12
 4304 01b6 06       		.uleb128 0x6
 4305 01b7 40       		.uleb128 0x40
 4306 01b8 18       		.uleb128 0x18
 4307 01b9 9642     		.uleb128 0x2116
 4308 01bb 19       		.uleb128 0x19
 4309 01bc 01       		.uleb128 0x1
 4310 01bd 13       		.uleb128 0x13
 4311 01be 00       		.byte	0
 4312 01bf 00       		.byte	0
 4313 01c0 1F       		.uleb128 0x1f
 4314 01c1 05       		.uleb128 0x5
 4315 01c2 00       		.byte	0
 4316 01c3 03       		.uleb128 0x3
 4317 01c4 08       		.uleb128 0x8
 4318 01c5 3A       		.uleb128 0x3a
 4319 01c6 0B       		.uleb128 0xb
 4320 01c7 3B       		.uleb128 0x3b
 4321 01c8 05       		.uleb128 0x5
 4322 01c9 49       		.uleb128 0x49
 4323 01ca 13       		.uleb128 0x13
 4324 01cb 02       		.uleb128 0x2
 4325 01cc 18       		.uleb128 0x18
 4326 01cd 00       		.byte	0
 4327 01ce 00       		.byte	0
 4328 01cf 20       		.uleb128 0x20
 4329 01d0 34       		.uleb128 0x34
 4330 01d1 00       		.byte	0
 4331 01d2 03       		.uleb128 0x3
 4332 01d3 0E       		.uleb128 0xe
 4333 01d4 3A       		.uleb128 0x3a
 4334 01d5 0B       		.uleb128 0xb
 4335 01d6 3B       		.uleb128 0x3b
 4336 01d7 05       		.uleb128 0x5
 4337 01d8 49       		.uleb128 0x49
 4338 01d9 13       		.uleb128 0x13
 4339 01da 3F       		.uleb128 0x3f
 4340 01db 19       		.uleb128 0x19
 4341 01dc 3C       		.uleb128 0x3c
 4342 01dd 19       		.uleb128 0x19
 4343 01de 00       		.byte	0
 4344 01df 00       		.byte	0
 4345 01e0 21       		.uleb128 0x21
 4346 01e1 26       		.uleb128 0x26
 4347 01e2 00       		.byte	0
 4348 01e3 49       		.uleb128 0x49
 4349 01e4 13       		.uleb128 0x13
 4350 01e5 00       		.byte	0
 4351 01e6 00       		.byte	0
 4352 01e7 22       		.uleb128 0x22
 4353 01e8 35       		.uleb128 0x35
 4354 01e9 00       		.byte	0
 4355 01ea 49       		.uleb128 0x49
 4356 01eb 13       		.uleb128 0x13
ARM GAS  C:\Users\alex\AppData\Local\Temp\ccrLK32p.s 			page 94


 4357 01ec 00       		.byte	0
 4358 01ed 00       		.byte	0
 4359 01ee 23       		.uleb128 0x23
 4360 01ef 34       		.uleb128 0x34
 4361 01f0 00       		.byte	0
 4362 01f1 03       		.uleb128 0x3
 4363 01f2 0E       		.uleb128 0xe
 4364 01f3 3A       		.uleb128 0x3a
 4365 01f4 0B       		.uleb128 0xb
 4366 01f5 3B       		.uleb128 0x3b
 4367 01f6 0B       		.uleb128 0xb
 4368 01f7 49       		.uleb128 0x49
 4369 01f8 13       		.uleb128 0x13
 4370 01f9 3F       		.uleb128 0x3f
 4371 01fa 19       		.uleb128 0x19
 4372 01fb 02       		.uleb128 0x2
 4373 01fc 18       		.uleb128 0x18
 4374 01fd 00       		.byte	0
 4375 01fe 00       		.byte	0
 4376 01ff 00       		.byte	0
 4377              		.section	.debug_aranges,"",%progbits
 4378 0000 9C000000 		.4byte	0x9c
 4379 0004 0200     		.2byte	0x2
 4380 0006 00000000 		.4byte	.Ldebug_info0
 4381 000a 04       		.byte	0x4
 4382 000b 00       		.byte	0
 4383 000c 0000     		.2byte	0
 4384 000e 0000     		.2byte	0
 4385 0010 00000000 		.4byte	.LFB64
 4386 0014 2A000000 		.4byte	.LFE64-.LFB64
 4387 0018 00000000 		.4byte	.LFB65
 4388 001c 2A000000 		.4byte	.LFE65-.LFB65
 4389 0020 00000000 		.4byte	.LFB66
 4390 0024 2A000000 		.4byte	.LFE66-.LFB66
 4391 0028 00000000 		.4byte	.LFB67
 4392 002c 88000000 		.4byte	.LFE67-.LFB67
 4393 0030 00000000 		.4byte	.LFB68
 4394 0034 4A000000 		.4byte	.LFE68-.LFB68
 4395 0038 00000000 		.4byte	.LFB69
 4396 003c 4C010000 		.4byte	.LFE69-.LFB69
 4397 0040 00000000 		.4byte	.LFB70
 4398 0044 78000000 		.4byte	.LFE70-.LFB70
 4399 0048 00000000 		.4byte	.LFB71
 4400 004c 1A000000 		.4byte	.LFE71-.LFB71
 4401 0050 00000000 		.4byte	.LFB72
 4402 0054 34000000 		.4byte	.LFE72-.LFB72
 4403 0058 00000000 		.4byte	.LFB73
 4404 005c 50020000 		.4byte	.LFE73-.LFB73
 4405 0060 00000000 		.4byte	.LFB74
 4406 0064 C0000000 		.4byte	.LFE74-.LFB74
 4407 0068 00000000 		.4byte	.LFB75
 4408 006c 0C000000 		.4byte	.LFE75-.LFB75
 4409 0070 00000000 		.4byte	.LFB76
 4410 0074 B8030000 		.4byte	.LFE76-.LFB76
 4411 0078 00000000 		.4byte	.LFB77
 4412 007c 3E000000 		.4byte	.LFE77-.LFB77
 4413 0080 00000000 		.4byte	.LFB78
ARM GAS  C:\Users\alex\AppData\Local\Temp\ccrLK32p.s 			page 95


 4414 0084 38000000 		.4byte	.LFE78-.LFB78
 4415 0088 00000000 		.4byte	.LFB79
 4416 008c 38000000 		.4byte	.LFE79-.LFB79
 4417 0090 00000000 		.4byte	.LFB80
 4418 0094 38000000 		.4byte	.LFE80-.LFB80
 4419 0098 00000000 		.4byte	0
 4420 009c 00000000 		.4byte	0
 4421              		.section	.debug_ranges,"",%progbits
 4422              	.Ldebug_ranges0:
 4423 0000 00000000 		.4byte	.LFB64
 4424 0004 2A000000 		.4byte	.LFE64
 4425 0008 00000000 		.4byte	.LFB65
 4426 000c 2A000000 		.4byte	.LFE65
 4427 0010 00000000 		.4byte	.LFB66
 4428 0014 2A000000 		.4byte	.LFE66
 4429 0018 00000000 		.4byte	.LFB67
 4430 001c 88000000 		.4byte	.LFE67
 4431 0020 00000000 		.4byte	.LFB68
 4432 0024 4A000000 		.4byte	.LFE68
 4433 0028 00000000 		.4byte	.LFB69
 4434 002c 4C010000 		.4byte	.LFE69
 4435 0030 00000000 		.4byte	.LFB70
 4436 0034 78000000 		.4byte	.LFE70
 4437 0038 00000000 		.4byte	.LFB71
 4438 003c 1A000000 		.4byte	.LFE71
 4439 0040 00000000 		.4byte	.LFB72
 4440 0044 34000000 		.4byte	.LFE72
 4441 0048 00000000 		.4byte	.LFB73
 4442 004c 50020000 		.4byte	.LFE73
 4443 0050 00000000 		.4byte	.LFB74
 4444 0054 C0000000 		.4byte	.LFE74
 4445 0058 00000000 		.4byte	.LFB75
 4446 005c 0C000000 		.4byte	.LFE75
 4447 0060 00000000 		.4byte	.LFB76
 4448 0064 B8030000 		.4byte	.LFE76
 4449 0068 00000000 		.4byte	.LFB77
 4450 006c 3E000000 		.4byte	.LFE77
 4451 0070 00000000 		.4byte	.LFB78
 4452 0074 38000000 		.4byte	.LFE78
 4453 0078 00000000 		.4byte	.LFB79
 4454 007c 38000000 		.4byte	.LFE79
 4455 0080 00000000 		.4byte	.LFB80
 4456 0084 38000000 		.4byte	.LFE80
 4457 0088 00000000 		.4byte	0
 4458 008c 00000000 		.4byte	0
 4459              		.section	.debug_line,"",%progbits
 4460              	.Ldebug_line0:
 4461 0000 6D040000 		.section	.debug_str,"MS",%progbits,1
 4461      0200E001 
 4461      00000201 
 4461      FB0E0D00 
 4461      01010101 
 4462              	.LASF73:
 4463 0000 4F535F45 		.ascii	"OS_ERR_MEM_FULL\000"
 4463      52525F4D 
 4463      454D5F46 
 4463      554C4C00 
ARM GAS  C:\Users\alex\AppData\Local\Temp\ccrLK32p.s 			page 96


 4464              	.LASF344:
 4465 0010 4170705F 		.ascii	"App_ObjCreate\000"
 4465      4F626A43 
 4465      72656174 
 4465      6500
 4466              	.LASF225:
 4467 001e 5469636B 		.ascii	"TickNextPtr\000"
 4467      4E657874 
 4467      50747200 
 4468              	.LASF238:
 4469 002a 50656E64 		.ascii	"PendDataTblEntries\000"
 4469      44617461 
 4469      54626C45 
 4469      6E747269 
 4469      657300
 4470              	.LASF278:
 4471 003d 4F535F50 		.ascii	"OS_PEND_LIST\000"
 4471      454E445F 
 4471      4C495354 
 4471      00
 4472              	.LASF194:
 4473 004a 4F535F45 		.ascii	"OS_ERR_TMR_STK_INVALID\000"
 4473      52525F54 
 4473      4D525F53 
 4473      544B5F49 
 4473      4E56414C 
 4474              	.LASF10:
 4475 0061 73697A65 		.ascii	"sizetype\000"
 4475      74797065 
 4475      00
 4476              	.LASF17:
 4477 006a 4350555F 		.ascii	"CPU_BOOLEAN\000"
 4477      424F4F4C 
 4477      45414E00 
 4478              	.LASF67:
 4479 0076 4F535F45 		.ascii	"OS_ERR_J\000"
 4479      52525F4A 
 4479      00
 4480              	.LASF196:
 4481 007f 4F535F45 		.ascii	"OS_ERR_TMR_STOPPED\000"
 4481      52525F54 
 4481      4D525F53 
 4481      544F5050 
 4481      454400
 4482              	.LASF219:
 4483 0092 4F535F54 		.ascii	"OS_TCB\000"
 4483      434200
 4484              	.LASF316:
 4485 0099 4170705F 		.ascii	"App_TaskStartStk\000"
 4485      5461736B 
 4485      53746172 
 4485      7453746B 
 4485      00
 4486              	.LASF318:
 4487 00aa 4170705F 		.ascii	"App_TaskUserIFStk\000"
 4487      5461736B 
 4487      55736572 
ARM GAS  C:\Users\alex\AppData\Local\Temp\ccrLK32p.s 			page 97


 4487      49465374 
 4487      6B00
 4488              	.LASF193:
 4489 00bc 4F535F45 		.ascii	"OS_ERR_TMR_PRIO_INVALID\000"
 4489      52525F54 
 4489      4D525F50 
 4489      52494F5F 
 4489      494E5641 
 4490              	.LASF13:
 4491 00d4 696E7433 		.ascii	"int32_t\000"
 4491      325F7400 
 4492              	.LASF263:
 4493 00dc 53746B46 		.ascii	"StkFree\000"
 4493      72656500 
 4494              	.LASF207:
 4495 00e4 4D736750 		.ascii	"MsgPtr\000"
 4495      747200
 4496              	.LASF16:
 4497 00eb 4350555F 		.ascii	"CPU_CHAR\000"
 4497      43484152 
 4497      00
 4498              	.LASF120:
 4499 00f4 4F535F45 		.ascii	"OS_ERR_ROUND_ROBIN_1\000"
 4499      52525F52 
 4499      4F554E44 
 4499      5F524F42 
 4499      494E5F31 
 4500              	.LASF128:
 4501 0109 4F535F45 		.ascii	"OS_ERR_SEM_OVF\000"
 4501      52525F53 
 4501      454D5F4F 
 4501      564600
 4502              	.LASF19:
 4503 0118 4350555F 		.ascii	"CPU_INT16U\000"
 4503      494E5431 
 4503      365500
 4504              	.LASF329:
 4505 0123 4F535374 		.ascii	"OSStatTaskCPUUsage\000"
 4505      61745461 
 4505      736B4350 
 4505      55557361 
 4505      676500
 4506              	.LASF342:
 4507 0136 483A5C42 		.ascii	"H:\\BCC722-RTOS-moinho\\UCoS\\Micrium_2\\Software\\"
 4507      43433732 
 4507      322D5254 
 4507      4F532D6D 
 4507      6F696E68 
 4508 0164 4576616C 		.ascii	"EvalBoards\\Cypress\\CY8CKIT-050\\PSoC\\uCOS-III-Pr"
 4508      426F6172 
 4508      64735C43 
 4508      79707265 
 4508      73735C43 
 4509 0193 6F62655C 		.ascii	"obe\\BCC722-RTOS-MOINHO.cydsn\000"
 4509      42434337 
 4509      32322D52 
 4509      544F532D 
ARM GAS  C:\Users\alex\AppData\Local\Temp\ccrLK32p.s 			page 98


 4509      4D4F494E 
 4510              	.LASF132:
 4511 01b0 4F535F45 		.ascii	"OS_ERR_STAT_STK_INVALID\000"
 4511      52525F53 
 4511      5441545F 
 4511      53544B5F 
 4511      494E5641 
 4512              	.LASF164:
 4513 01c8 4F535F45 		.ascii	"OS_ERR_TLS_ID_INVALID\000"
 4513      52525F54 
 4513      4C535F49 
 4513      445F494E 
 4513      56414C49 
 4514              	.LASF101:
 4515 01de 4F535F45 		.ascii	"OS_ERR_PEND_ABORT_NONE\000"
 4515      52525F50 
 4515      454E445F 
 4515      41424F52 
 4515      545F4E4F 
 4516              	.LASF287:
 4517 01f5 73655F69 		.ascii	"se_indut_porta_Handler\000"
 4517      6E647574 
 4517      5F706F72 
 4517      74615F48 
 4517      616E646C 
 4518              	.LASF291:
 4519 020c 4170705F 		.ascii	"App_TaskStart\000"
 4519      5461736B 
 4519      53746172 
 4519      7400
 4520              	.LASF22:
 4521 021a 4350555F 		.ascii	"CPU_STK\000"
 4521      53544B00 
 4522              	.LASF252:
 4523 0222 53757370 		.ascii	"SuspendCtr\000"
 4523      656E6443 
 4523      747200
 4524              	.LASF326:
 4525 022d 4170705F 		.ascii	"App_Task_Sen_Temp_Stk\000"
 4525      5461736B 
 4525      5F53656E 
 4525      5F54656D 
 4525      705F5374 
 4526              	.LASF240:
 4527 0243 5469636B 		.ascii	"TickCtrPrev\000"
 4527      43747250 
 4527      72657600 
 4528              	.LASF180:
 4529 024f 4F535F45 		.ascii	"OS_ERR_TIME_NOT_DLY\000"
 4529      52525F54 
 4529      494D455F 
 4529      4E4F545F 
 4529      444C5900 
 4530              	.LASF147:
 4531 0263 4F535F45 		.ascii	"OS_ERR_TASK_NO_MORE_TCB\000"
 4531      52525F54 
 4531      41534B5F 
ARM GAS  C:\Users\alex\AppData\Local\Temp\ccrLK32p.s 			page 99


 4531      4E4F5F4D 
 4531      4F52455F 
 4532              	.LASF296:
 4533 027b 4170705F 		.ascii	"App_Task_Sen_Mec\000"
 4533      5461736B 
 4533      5F53656E 
 4533      5F4D6563 
 4533      00
 4534              	.LASF35:
 4535 028c 4F535F4F 		.ascii	"OS_OPT\000"
 4535      505400
 4536              	.LASF163:
 4537 0293 4F535F45 		.ascii	"OS_ERR_TCB_INVALID\000"
 4537      52525F54 
 4537      43425F49 
 4537      4E56414C 
 4537      494400
 4538              	.LASF82:
 4539 02a6 4F535F45 		.ascii	"OS_ERR_MSG_POOL_EMPTY\000"
 4539      52525F4D 
 4539      53475F50 
 4539      4F4F4C5F 
 4539      454D5054 
 4540              	.LASF91:
 4541 02bc 4F535F45 		.ascii	"OS_ERR_OBJ_CREATED\000"
 4541      52525F4F 
 4541      424A5F43 
 4541      52454154 
 4541      454400
 4542              	.LASF271:
 4543 02cf 6F735F70 		.ascii	"os_pend_data\000"
 4543      656E645F 
 4543      64617461 
 4543      00
 4544              	.LASF298:
 4545 02dc 74416C74 		.ascii	"tAltaMotor\000"
 4545      614D6F74 
 4545      6F7200
 4546              	.LASF335:
 4547 02e7 656D6572 		.ascii	"emerg\000"
 4547      6700
 4548              	.LASF215:
 4549 02ed 4E627245 		.ascii	"NbrEntriesSize\000"
 4549      6E747269 
 4549      65735369 
 4549      7A6500
 4550              	.LASF81:
 4551 02fc 4F535F45 		.ascii	"OS_ERR_MEM_NO_FREE_BLKS\000"
 4551      52525F4D 
 4551      454D5F4E 
 4551      4F5F4652 
 4551      45455F42 
 4552              	.LASF253:
 4553 0314 43505555 		.ascii	"CPUUsage\000"
 4553      73616765 
 4553      00
 4554              	.LASF165:
ARM GAS  C:\Users\alex\AppData\Local\Temp\ccrLK32p.s 			page 100


 4555 031d 4F535F45 		.ascii	"OS_ERR_TLS_ISR\000"
 4555      52525F54 
 4555      4C535F49 
 4555      535200
 4556              	.LASF85:
 4557 032c 4F535F45 		.ascii	"OS_ERR_MUTEX_OWNER\000"
 4557      52525F4D 
 4557      55544558 
 4557      5F4F574E 
 4557      455200
 4558              	.LASF244:
 4559 033f 54696D65 		.ascii	"TimeQuantaCtr\000"
 4559      5175616E 
 4559      74614374 
 4559      7200
 4560              	.LASF248:
 4561 034d 52656754 		.ascii	"RegTbl\000"
 4561      626C00
 4562              	.LASF4:
 4563 0354 6C6F6E67 		.ascii	"long int\000"
 4563      20696E74 
 4563      00
 4564              	.LASF63:
 4565 035d 4F535F45 		.ascii	"OS_ERR_INT_Q_FULL\000"
 4565      52525F49 
 4565      4E545F51 
 4565      5F46554C 
 4565      4C00
 4566              	.LASF104:
 4567 036f 4F535F45 		.ascii	"OS_ERR_PEND_ISR\000"
 4567      52525F50 
 4567      454E445F 
 4567      49535200 
 4568              	.LASF125:
 4569 037f 4F535F45 		.ascii	"OS_ERR_SCHED_LOCKED\000"
 4569      52525F53 
 4569      43484544 
 4569      5F4C4F43 
 4569      4B454400 
 4570              	.LASF272:
 4571 0393 54434250 		.ascii	"TCBPtr\000"
 4571      747200
 4572              	.LASF204:
 4573 039a 4F535F45 		.ascii	"OS_ERR\000"
 4573      525200
 4574              	.LASF328:
 4575 03a1 4170705F 		.ascii	"App_Task_Display_Stk\000"
 4575      5461736B 
 4575      5F446973 
 4575      706C6179 
 4575      5F53746B 
 4576              	.LASF312:
 4577 03b6 73746174 		.ascii	"statusRearme\000"
 4577      75735265 
 4577      61726D65 
 4577      00
 4578              	.LASF157:
ARM GAS  C:\Users\alex\AppData\Local\Temp\ccrLK32p.s 			page 101


 4579 03c3 4F535F45 		.ascii	"OS_ERR_TASK_SUSPENDED\000"
 4579      52525F54 
 4579      41534B5F 
 4579      53555350 
 4579      454E4445 
 4580              	.LASF299:
 4581 03d9 74416C74 		.ascii	"tAltaQuadro\000"
 4581      61517561 
 4581      64726F00 
 4582              	.LASF343:
 4583 03e5 6D61696E 		.ascii	"main\000"
 4583      00
 4584              	.LASF322:
 4585 03ea 4170705F 		.ascii	"App_Task_Emerg_Stk\000"
 4585      5461736B 
 4585      5F456D65 
 4585      72675F53 
 4585      746B00
 4586              	.LASF220:
 4587 03fd 6F735F74 		.ascii	"os_tcb\000"
 4587      636200
 4588              	.LASF53:
 4589 0404 4F535F45 		.ascii	"OS_ERR_FATAL_RETURN\000"
 4589      52525F46 
 4589      4154414C 
 4589      5F524554 
 4589      55524E00 
 4590              	.LASF25:
 4591 0418 4350555F 		.ascii	"CPU_TS\000"
 4591      545300
 4592              	.LASF261:
 4593 041f 53656D50 		.ascii	"SemPendTimeMax\000"
 4593      656E6454 
 4593      696D654D 
 4593      617800
 4594              	.LASF44:
 4595 042e 4F535F45 		.ascii	"OS_ERR_A\000"
 4595      52525F41 
 4595      00
 4596              	.LASF46:
 4597 0437 4F535F45 		.ascii	"OS_ERR_B\000"
 4597      52525F42 
 4597      00
 4598              	.LASF47:
 4599 0440 4F535F45 		.ascii	"OS_ERR_C\000"
 4599      52525F43 
 4599      00
 4600              	.LASF49:
 4601 0449 4F535F45 		.ascii	"OS_ERR_D\000"
 4601      52525F44 
 4601      00
 4602              	.LASF51:
 4603 0452 4F535F45 		.ascii	"OS_ERR_E\000"
 4603      52525F45 
 4603      00
 4604              	.LASF52:
 4605 045b 4F535F45 		.ascii	"OS_ERR_F\000"
ARM GAS  C:\Users\alex\AppData\Local\Temp\ccrLK32p.s 			page 102


 4605      52525F46 
 4605      00
 4606              	.LASF58:
 4607 0464 4F535F45 		.ascii	"OS_ERR_G\000"
 4607      52525F47 
 4607      00
 4608              	.LASF59:
 4609 046d 4F535F45 		.ascii	"OS_ERR_H\000"
 4609      52525F48 
 4609      00
 4610              	.LASF60:
 4611 0476 4F535F45 		.ascii	"OS_ERR_I\000"
 4611      52525F49 
 4611      00
 4612              	.LASF0:
 4613 047f 7369676E 		.ascii	"signed char\000"
 4613      65642063 
 4613      68617200 
 4614              	.LASF68:
 4615 048b 4F535F45 		.ascii	"OS_ERR_K\000"
 4615      52525F4B 
 4615      00
 4616              	.LASF69:
 4617 0494 4F535F45 		.ascii	"OS_ERR_L\000"
 4617      52525F4C 
 4617      00
 4618              	.LASF71:
 4619 049d 4F535F45 		.ascii	"OS_ERR_M\000"
 4619      52525F4D 
 4619      00
 4620              	.LASF87:
 4621 04a6 4F535F45 		.ascii	"OS_ERR_N\000"
 4621      52525F4E 
 4621      00
 4622              	.LASF90:
 4623 04af 4F535F45 		.ascii	"OS_ERR_O\000"
 4623      52525F4F 
 4623      00
 4624              	.LASF98:
 4625 04b8 4F535F45 		.ascii	"OS_ERR_P\000"
 4625      52525F50 
 4625      00
 4626              	.LASF113:
 4627 04c1 4F535F45 		.ascii	"OS_ERR_Q\000"
 4627      52525F51 
 4627      00
 4628              	.LASF118:
 4629 04ca 4F535F45 		.ascii	"OS_ERR_R\000"
 4629      52525F52 
 4629      00
 4630              	.LASF122:
 4631 04d3 4F535F45 		.ascii	"OS_ERR_S\000"
 4631      52525F53 
 4631      00
 4632              	.LASF139:
 4633 04dc 4F535F45 		.ascii	"OS_ERR_T\000"
 4633      52525F54 
ARM GAS  C:\Users\alex\AppData\Local\Temp\ccrLK32p.s 			page 103


 4633      00
 4634              	.LASF197:
 4635 04e5 4F535F45 		.ascii	"OS_ERR_U\000"
 4635      52525F55 
 4635      00
 4636              	.LASF198:
 4637 04ee 4F535F45 		.ascii	"OS_ERR_V\000"
 4637      52525F56 
 4637      00
 4638              	.LASF199:
 4639 04f7 4F535F45 		.ascii	"OS_ERR_W\000"
 4639      52525F57 
 4639      00
 4640              	.LASF200:
 4641 0500 4F535F45 		.ascii	"OS_ERR_X\000"
 4641      52525F58 
 4641      00
 4642              	.LASF201:
 4643 0509 4F535F45 		.ascii	"OS_ERR_Y\000"
 4643      52525F59 
 4643      00
 4644              	.LASF203:
 4645 0512 4F535F45 		.ascii	"OS_ERR_Z\000"
 4645      52525F5A 
 4645      00
 4646              	.LASF337:
 4647 051b 616C6572 		.ascii	"alerta\000"
 4647      746100
 4648              	.LASF182:
 4649 0522 4F535F45 		.ascii	"OS_ERR_TIME_ZERO_DLY\000"
 4649      52525F54 
 4649      494D455F 
 4649      5A45524F 
 4649      5F444C59 
 4650              	.LASF310:
 4651 0537 7062335F 		.ascii	"pb3_state_prev\000"
 4651      73746174 
 4651      655F7072 
 4651      657600
 4652              	.LASF108:
 4653 0546 4F535F45 		.ascii	"OS_ERR_POST_ISR\000"
 4653      52525F50 
 4653      4F53545F 
 4653      49535200 
 4654              	.LASF266:
 4655 0556 4462674E 		.ascii	"DbgNamePtr\000"
 4655      616D6550 
 4655      747200
 4656              	.LASF1:
 4657 0561 756E7369 		.ascii	"unsigned char\000"
 4657      676E6564 
 4657      20636861 
 4657      7200
 4658              	.LASF249:
 4659 056f 466C6167 		.ascii	"FlagsPend\000"
 4659      7350656E 
 4659      6400
ARM GAS  C:\Users\alex\AppData\Local\Temp\ccrLK32p.s 			page 104


 4660              	.LASF55:
 4661 0579 4F535F45 		.ascii	"OS_ERR_FLAG_NOT_RDY\000"
 4661      52525F46 
 4661      4C41475F 
 4661      4E4F545F 
 4661      52445900 
 4662              	.LASF309:
 4663 058d 7062335F 		.ascii	"pb3_state_cur\000"
 4663      73746174 
 4663      655F6375 
 4663      7200
 4664              	.LASF258:
 4665 059b 4379636C 		.ascii	"CyclesTotal\000"
 4665      6573546F 
 4665      74616C00 
 4666              	.LASF171:
 4667 05a7 4F535F45 		.ascii	"OS_ERR_TICK_STK_SIZE_INVALID\000"
 4667      52525F54 
 4667      49434B5F 
 4667      53544B5F 
 4667      53495A45 
 4668              	.LASF264:
 4669 05c4 44626750 		.ascii	"DbgPrevPtr\000"
 4669      72657650 
 4669      747200
 4670              	.LASF305:
 4671 05cf 75736572 		.ascii	"user_if_state_cur\000"
 4671      5F69665F 
 4671      73746174 
 4671      655F6375 
 4671      7200
 4672              	.LASF221:
 4673 05e1 53746B50 		.ascii	"StkPtr\000"
 4673      747200
 4674              	.LASF151:
 4675 05e8 4F535F45 		.ascii	"OS_ERR_TASK_OPT\000"
 4675      52525F54 
 4675      41534B5F 
 4675      4F505400 
 4676              	.LASF134:
 4677 05f8 4F535F45 		.ascii	"OS_ERR_STATE_INVALID\000"
 4677      52525F53 
 4677      54415445 
 4677      5F494E56 
 4677      414C4944 
 4678              	.LASF40:
 4679 060d 4F535F53 		.ascii	"OS_STATE\000"
 4679      54415445 
 4679      00
 4680              	.LASF210:
 4681 0616 4F535F4D 		.ascii	"OS_MSG_Q\000"
 4681      53475F51 
 4681      00
 4682              	.LASF286:
 4683 061f 75696E74 		.ascii	"uint8\000"
 4683      3800
 4684              	.LASF28:
ARM GAS  C:\Users\alex\AppData\Local\Temp\ccrLK32p.s 			page 105


 4685 0625 4F535F43 		.ascii	"OS_CYCLES\000"
 4685      59434C45 
 4685      5300
 4686              	.LASF34:
 4687 062f 4F535F4F 		.ascii	"OS_OBJ_TYPE\000"
 4687      424A5F54 
 4687      59504500 
 4688              	.LASF72:
 4689 063b 4F535F45 		.ascii	"OS_ERR_MEM_CREATE_ISR\000"
 4689      52525F4D 
 4689      454D5F43 
 4689      52454154 
 4689      455F4953 
 4690              	.LASF11:
 4691 0651 63686172 		.ascii	"char\000"
 4691      00
 4692              	.LASF306:
 4693 0656 75736572 		.ascii	"user_if_state_prev\000"
 4693      5F69665F 
 4693      73746174 
 4693      655F7072 
 4693      657600
 4694              	.LASF246:
 4695 0669 4D736751 		.ascii	"MsgQPendTime\000"
 4695      50656E64 
 4695      54696D65 
 4695      00
 4696              	.LASF75:
 4697 0676 4F535F45 		.ascii	"OS_ERR_MEM_INVALID_BLKS\000"
 4697      52525F4D 
 4697      454D5F49 
 4697      4E56414C 
 4697      49445F42 
 4698              	.LASF195:
 4699 068e 4F535F45 		.ascii	"OS_ERR_TMR_STK_SIZE_INVALID\000"
 4699      52525F54 
 4699      4D525F53 
 4699      544B5F53 
 4699      495A455F 
 4700              	.LASF242:
 4701 06aa 5469636B 		.ascii	"TickRemain\000"
 4701      52656D61 
 4701      696E00
 4702              	.LASF289:
 4703 06b5 62745F65 		.ascii	"bt_emerg_int_Handler\000"
 4703      6D657267 
 4703      5F696E74 
 4703      5F48616E 
 4703      646C6572 
 4704              	.LASF45:
 4705 06ca 4F535F45 		.ascii	"OS_ERR_ACCEPT_ISR\000"
 4705      52525F41 
 4705      43434550 
 4705      545F4953 
 4705      5200
 4706              	.LASF209:
 4707 06dc 4D736754 		.ascii	"MsgTS\000"
ARM GAS  C:\Users\alex\AppData\Local\Temp\ccrLK32p.s 			page 106


 4707      5300
 4708              	.LASF232:
 4709 06e2 50656E64 		.ascii	"PendDataTblPtr\000"
 4709      44617461 
 4709      54626C50 
 4709      747200
 4710              	.LASF74:
 4711 06f1 4F535F45 		.ascii	"OS_ERR_MEM_INVALID_P_ADDR\000"
 4711      52525F4D 
 4711      454D5F49 
 4711      4E56414C 
 4711      49445F50 
 4712              	.LASF117:
 4713 070b 4F535F45 		.ascii	"OS_ERR_Q_SIZE\000"
 4713      52525F51 
 4713      5F53495A 
 4713      4500
 4714              	.LASF84:
 4715 0719 4F535F45 		.ascii	"OS_ERR_MUTEX_NOT_OWNER\000"
 4715      52525F4D 
 4715      55544558 
 4715      5F4E4F54 
 4715      5F4F574E 
 4716              	.LASF211:
 4717 0730 6F735F6D 		.ascii	"os_msg\000"
 4717      736700
 4718              	.LASF99:
 4719 0737 4F535F45 		.ascii	"OS_ERR_PEND_ABORT\000"
 4719      52525F50 
 4719      454E445F 
 4719      41424F52 
 4719      5400
 4720              	.LASF137:
 4721 0749 4F535F45 		.ascii	"OS_ERR_STK_SIZE_INVALID\000"
 4721      52525F53 
 4721      544B5F53 
 4721      495A455F 
 4721      494E5641 
 4722              	.LASF150:
 4723 0761 4F535F45 		.ascii	"OS_ERR_TASK_NOT_SUSPENDED\000"
 4723      52525F54 
 4723      41534B5F 
 4723      4E4F545F 
 4723      53555350 
 4724              	.LASF133:
 4725 077b 4F535F45 		.ascii	"OS_ERR_STAT_STK_SIZE_INVALID\000"
 4725      52525F53 
 4725      5441545F 
 4725      53544B5F 
 4725      53495A45 
 4726              	.LASF223:
 4727 0798 53746B4C 		.ascii	"StkLimitPtr\000"
 4727      696D6974 
 4727      50747200 
 4728              	.LASF20:
 4729 07a4 4350555F 		.ascii	"CPU_INT32U\000"
 4729      494E5433 
ARM GAS  C:\Users\alex\AppData\Local\Temp\ccrLK32p.s 			page 107


 4729      325500
 4730              	.LASF174:
 4731 07af 4F535F45 		.ascii	"OS_ERR_TIME_DLY_RESUME_ISR\000"
 4731      52525F54 
 4731      494D455F 
 4731      444C595F 
 4731      52455355 
 4732              	.LASF188:
 4733 07ca 4F535F45 		.ascii	"OS_ERR_TMR_INVALID_STATE\000"
 4733      52525F54 
 4733      4D525F49 
 4733      4E56414C 
 4733      49445F53 
 4734              	.LASF168:
 4735 07e3 4F535F45 		.ascii	"OS_ERR_TLS_DESTRUCT_ASSIGNED\000"
 4735      52525F54 
 4735      4C535F44 
 4735      45535452 
 4735      5543545F 
 4736              	.LASF21:
 4737 0800 4350555F 		.ascii	"CPU_ADDR\000"
 4737      41444452 
 4737      00
 4738              	.LASF127:
 4739 0809 4F535F45 		.ascii	"OS_ERR_SCHED_UNLOCK_ISR\000"
 4739      52525F53 
 4739      43484544 
 4739      5F554E4C 
 4739      4F434B5F 
 4740              	.LASF38:
 4741 0821 4F535F52 		.ascii	"OS_REG\000"
 4741      454700
 4742              	.LASF176:
 4743 0828 4F535F45 		.ascii	"OS_ERR_TIME_INVALID_HOURS\000"
 4743      52525F54 
 4743      494D455F 
 4743      494E5641 
 4743      4C49445F 
 4744              	.LASF65:
 4745 0842 4F535F45 		.ascii	"OS_ERR_INT_Q_STK_INVALID\000"
 4745      52525F49 
 4745      4E545F51 
 4745      5F53544B 
 4745      5F494E56 
 4746              	.LASF66:
 4747 085b 4F535F45 		.ascii	"OS_ERR_INT_Q_STK_SIZE_INVALID\000"
 4747      52525F49 
 4747      4E545F51 
 4747      5F53544B 
 4747      5F53495A 
 4748              	.LASF160:
 4749 0879 4F535F45 		.ascii	"OS_ERR_TASK_SUSPEND_ISR\000"
 4749      52525F54 
 4749      41534B5F 
 4749      53555350 
 4749      454E445F 
 4750              	.LASF76:
ARM GAS  C:\Users\alex\AppData\Local\Temp\ccrLK32p.s 			page 108


 4751 0891 4F535F45 		.ascii	"OS_ERR_MEM_INVALID_PART\000"
 4751      52525F4D 
 4751      454D5F49 
 4751      4E56414C 
 4751      49445F50 
 4752              	.LASF226:
 4753 08a9 5469636B 		.ascii	"TickPrevPtr\000"
 4753      50726576 
 4753      50747200 
 4754              	.LASF92:
 4755 08b5 4F535F45 		.ascii	"OS_ERR_OBJ_DEL\000"
 4755      52525F4F 
 4755      424A5F44 
 4755      454C00
 4756              	.LASF126:
 4757 08c4 4F535F45 		.ascii	"OS_ERR_SCHED_NOT_LOCKED\000"
 4757      52525F53 
 4757      43484544 
 4757      5F4E4F54 
 4757      5F4C4F43 
 4758              	.LASF24:
 4759 08dc 4350555F 		.ascii	"CPU_TS32\000"
 4759      54533332 
 4759      00
 4760              	.LASF27:
 4761 08e5 4F535F43 		.ascii	"OS_CTX_SW_CTR\000"
 4761      54585F53 
 4761      575F4354 
 4761      5200
 4762              	.LASF270:
 4763 08f3 4F535F50 		.ascii	"OS_PEND_DATA\000"
 4763      454E445F 
 4763      44415441 
 4763      00
 4764              	.LASF178:
 4765 0900 4F535F45 		.ascii	"OS_ERR_TIME_INVALID_SECONDS\000"
 4765      52525F54 
 4765      494D455F 
 4765      494E5641 
 4765      4C49445F 
 4766              	.LASF285:
 4767 091c 50656E64 		.ascii	"PendList\000"
 4767      4C697374 
 4767      00
 4768              	.LASF183:
 4769 0925 4F535F45 		.ascii	"OS_ERR_TIMEOUT\000"
 4769      52525F54 
 4769      494D454F 
 4769      555400
 4770              	.LASF89:
 4771 0934 4F535F45 		.ascii	"OS_ERR_NO_MORE_ID_AVAIL\000"
 4771      52525F4E 
 4771      4F5F4D4F 
 4771      52455F49 
 4771      445F4156 
 4772              	.LASF141:
 4773 094c 4F535F45 		.ascii	"OS_ERR_TASK_CREATE_ISR\000"
ARM GAS  C:\Users\alex\AppData\Local\Temp\ccrLK32p.s 			page 109


 4773      52525F54 
 4773      41534B5F 
 4773      43524541 
 4773      54455F49 
 4774              	.LASF185:
 4775 0963 4F535F45 		.ascii	"OS_ERR_TMR_INVALID_DEST\000"
 4775      52525F54 
 4775      4D525F49 
 4775      4E56414C 
 4775      49445F44 
 4776              	.LASF255:
 4777 097b 43747853 		.ascii	"CtxSwCtr\000"
 4777      77437472 
 4777      00
 4778              	.LASF192:
 4779 0984 4F535F45 		.ascii	"OS_ERR_TMR_NON_AVAIL\000"
 4779      52525F54 
 4779      4D525F4E 
 4779      4F4E5F41 
 4779      5641494C 
 4780              	.LASF304:
 4781 0999 4170705F 		.ascii	"App_TaskUserIF\000"
 4781      5461736B 
 4781      55736572 
 4781      494600
 4782              	.LASF136:
 4783 09a8 4F535F45 		.ascii	"OS_ERR_STK_INVALID\000"
 4783      52525F53 
 4783      544B5F49 
 4783      4E56414C 
 4783      494400
 4784              	.LASF5:
 4785 09bb 6C6F6E67 		.ascii	"long unsigned int\000"
 4785      20756E73 
 4785      69676E65 
 4785      6420696E 
 4785      7400
 4786              	.LASF26:
 4787 09cd 4F535F43 		.ascii	"OS_CPU_USAGE\000"
 4787      50555F55 
 4787      53414745 
 4787      00
 4788              	.LASF152:
 4789 09da 4F535F45 		.ascii	"OS_ERR_TASK_RESUME_ISR\000"
 4789      52525F54 
 4789      41534B5F 
 4789      52455355 
 4789      4D455F49 
 4790              	.LASF148:
 4791 09f1 4F535F45 		.ascii	"OS_ERR_TASK_NOT_DLY\000"
 4791      52525F54 
 4791      41534B5F 
 4791      4E4F545F 
 4791      444C5900 
 4792              	.LASF48:
 4793 0a05 4F535F45 		.ascii	"OS_ERR_CREATE_ISR\000"
 4793      52525F43 
ARM GAS  C:\Users\alex\AppData\Local\Temp\ccrLK32p.s 			page 110


 4793      52454154 
 4793      455F4953 
 4793      5200
 4794              	.LASF282:
 4795 0a17 4F535F50 		.ascii	"OS_PEND_OBJ\000"
 4795      454E445F 
 4795      4F424A00 
 4796              	.LASF100:
 4797 0a23 4F535F45 		.ascii	"OS_ERR_PEND_ABORT_ISR\000"
 4797      52525F50 
 4797      454E445F 
 4797      41424F52 
 4797      545F4953 
 4798              	.LASF156:
 4799 0a39 4F535F45 		.ascii	"OS_ERR_TASK_STK_CHK_ISR\000"
 4799      52525F54 
 4799      41534B5F 
 4799      53544B5F 
 4799      43484B5F 
 4800              	.LASF166:
 4801 0a51 4F535F45 		.ascii	"OS_ERR_TLS_NO_MORE_AVAIL\000"
 4801      52525F54 
 4801      4C535F4E 
 4801      4F5F4D4F 
 4801      52455F41 
 4802              	.LASF177:
 4803 0a6a 4F535F45 		.ascii	"OS_ERR_TIME_INVALID_MINUTES\000"
 4803      52525F54 
 4803      494D455F 
 4803      494E5641 
 4803      4C49445F 
 4804              	.LASF33:
 4805 0a86 4F535F4F 		.ascii	"OS_OBJ_QTY\000"
 4805      424A5F51 
 4805      545900
 4806              	.LASF288:
 4807 0a91 73655F69 		.ascii	"se_indut_motor_Handler\000"
 4807      6E647574 
 4807      5F6D6F74 
 4807      6F725F48 
 4807      616E646C 
 4808              	.LASF295:
 4809 0aa8 4170705F 		.ascii	"App_Task_Emerg\000"
 4809      5461736B 
 4809      5F456D65 
 4809      726700
 4810              	.LASF336:
 4811 0ab7 72656172 		.ascii	"rearme\000"
 4811      6D6500
 4812              	.LASF320:
 4813 0abe 4170705F 		.ascii	"App_Task_Ihm_Stk\000"
 4813      5461736B 
 4813      5F49686D 
 4813      5F53746B 
 4813      00
 4814              	.LASF340:
 4815 0acf 474E5520 		.ascii	"GNU C11 5.4.1 20160609 (release) [ARM/embedded-5-br"
ARM GAS  C:\Users\alex\AppData\Local\Temp\ccrLK32p.s 			page 111


 4815      43313120 
 4815      352E342E 
 4815      31203230 
 4815      31363036 
 4816 0b02 616E6368 		.ascii	"anch revision 237715] -mcpu=cortex-m3 -mthumb -g -O"
 4816      20726576 
 4816      6973696F 
 4816      6E203233 
 4816      37373135 
 4817 0b35 30202D66 		.ascii	"0 -ffunction-sections -ffat-lto-objects\000"
 4817      66756E63 
 4817      74696F6E 
 4817      2D736563 
 4817      74696F6E 
 4818              	.LASF237:
 4819 0b5d 53746B53 		.ascii	"StkSize\000"
 4819      697A6500 
 4820              	.LASF43:
 4821 0b65 4F535F45 		.ascii	"OS_ERR_NONE\000"
 4821      52525F4E 
 4821      4F4E4500 
 4822              	.LASF243:
 4823 0b71 54696D65 		.ascii	"TimeQuanta\000"
 4823      5175616E 
 4823      746100
 4824              	.LASF36:
 4825 0b7c 4F535F50 		.ascii	"OS_PRIO\000"
 4825      52494F00 
 4826              	.LASF251:
 4827 0b84 466C6167 		.ascii	"FlagsOpt\000"
 4827      734F7074 
 4827      00
 4828              	.LASF6:
 4829 0b8d 6C6F6E67 		.ascii	"long long int\000"
 4829      206C6F6E 
 4829      6720696E 
 4829      7400
 4830              	.LASF42:
 4831 0b9b 4F535F54 		.ascii	"OS_TICK\000"
 4831      49434B00 
 4832              	.LASF341:
 4833 0ba3 2E2E5C61 		.ascii	"..\\app.c\000"
 4833      70702E63 
 4833      00
 4834              	.LASF102:
 4835 0bac 4F535F45 		.ascii	"OS_ERR_PEND_ABORT_SELF\000"
 4835      52525F50 
 4835      454E445F 
 4835      41424F52 
 4835      545F5345 
 4836              	.LASF14:
 4837 0bc3 646F7562 		.ascii	"double\000"
 4837      6C6500
 4838              	.LASF268:
 4839 0bca 6F735F74 		.ascii	"os_tick_spoke\000"
 4839      69636B5F 
 4839      73706F6B 
ARM GAS  C:\Users\alex\AppData\Local\Temp\ccrLK32p.s 			page 112


 4839      6500
 4840              	.LASF202:
 4841 0bd8 4F535F45 		.ascii	"OS_ERR_YIELD_ISR\000"
 4841      52525F59 
 4841      49454C44 
 4841      5F495352 
 4841      00
 4842              	.LASF323:
 4843 0be9 4170705F 		.ascii	"App_Task_Sen_Mec_TCB\000"
 4843      5461736B 
 4843      5F53656E 
 4843      5F4D6563 
 4843      5F544342 
 4844              	.LASF145:
 4845 0bfe 4F535F45 		.ascii	"OS_ERR_TASK_DEL_ISR\000"
 4845      52525F54 
 4845      41534B5F 
 4845      44454C5F 
 4845      49535200 
 4846              	.LASF39:
 4847 0c12 4F535F53 		.ascii	"OS_SEM_CTR\000"
 4847      454D5F43 
 4847      545200
 4848              	.LASF189:
 4849 0c1d 4F535F45 		.ascii	"OS_ERR_TMR_INVALID\000"
 4849      52525F54 
 4849      4D525F49 
 4849      4E56414C 
 4849      494400
 4850              	.LASF260:
 4851 0c30 53656D50 		.ascii	"SemPendTime\000"
 4851      656E6454 
 4851      696D6500 
 4852              	.LASF32:
 4853 0c3c 4F535F4E 		.ascii	"OS_NESTING_CTR\000"
 4853      45535449 
 4853      4E475F43 
 4853      545200
 4854              	.LASF131:
 4855 0c4b 4F535F45 		.ascii	"OS_ERR_STAT_PRIO_INVALID\000"
 4855      52525F53 
 4855      5441545F 
 4855      5052494F 
 4855      5F494E56 
 4856              	.LASF292:
 4857 0c64 4170705F 		.ascii	"App_TaskCreate\000"
 4857      5461736B 
 4857      43726561 
 4857      746500
 4858              	.LASF15:
 4859 0c73 666C6F61 		.ascii	"float\000"
 4859      7400
 4860              	.LASF294:
 4861 0c79 705F6172 		.ascii	"p_arg\000"
 4861      6700
 4862              	.LASF138:
 4863 0c7f 4F535F45 		.ascii	"OS_ERR_STK_LIMIT_INVALID\000"
ARM GAS  C:\Users\alex\AppData\Local\Temp\ccrLK32p.s 			page 113


 4863      52525F53 
 4863      544B5F4C 
 4863      494D4954 
 4863      5F494E56 
 4864              	.LASF23:
 4865 0c98 4350555F 		.ascii	"CPU_STK_SIZE\000"
 4865      53544B5F 
 4865      53495A45 
 4865      00
 4866              	.LASF61:
 4867 0ca5 4F535F45 		.ascii	"OS_ERR_ILLEGAL_CREATE_RUN_TIME\000"
 4867      52525F49 
 4867      4C4C4547 
 4867      414C5F43 
 4867      52454154 
 4868              	.LASF235:
 4869 0cc4 5461736B 		.ascii	"TaskState\000"
 4869      53746174 
 4869      6500
 4870              	.LASF245:
 4871 0cce 4D736751 		.ascii	"MsgQ\000"
 4871      00
 4872              	.LASF293:
 4873 0cd3 4170705F 		.ascii	"App_Task_Ihm\000"
 4873      5461736B 
 4873      5F49686D 
 4873      00
 4874              	.LASF8:
 4875 0ce0 756E7369 		.ascii	"unsigned int\000"
 4875      676E6564 
 4875      20696E74 
 4875      00
 4876              	.LASF277:
 4877 0ced 52647954 		.ascii	"RdyTS\000"
 4877      5300
 4878              	.LASF186:
 4879 0cf3 4F535F45 		.ascii	"OS_ERR_TMR_INVALID_DLY\000"
 4879      52525F54 
 4879      4D525F49 
 4879      4E56414C 
 4879      49445F44 
 4880              	.LASF269:
 4881 0d0a 46697273 		.ascii	"FirstPtr\000"
 4881      74507472 
 4881      00
 4882              	.LASF301:
 4883 0d13 74656D70 		.ascii	"temp2\000"
 4883      3200
 4884              	.LASF31:
 4885 0d19 4F535F4D 		.ascii	"OS_MSG_SIZE\000"
 4885      53475F53 
 4885      495A4500 
 4886              	.LASF96:
 4887 0d25 4F535F45 		.ascii	"OS_ERR_OS_NOT_RUNNING\000"
 4887      52525F4F 
 4887      535F4E4F 
 4887      545F5255 
ARM GAS  C:\Users\alex\AppData\Local\Temp\ccrLK32p.s 			page 114


 4887      4E4E494E 
 4888              	.LASF281:
 4889 0d3b 5461696C 		.ascii	"TailPtr\000"
 4889      50747200 
 4890              	.LASF315:
 4891 0d43 4170705F 		.ascii	"App_TaskStartTCB\000"
 4891      5461736B 
 4891      53746172 
 4891      74544342 
 4891      00
 4892              	.LASF300:
 4893 0d54 74656D70 		.ascii	"temp1\000"
 4893      3100
 4894              	.LASF284:
 4895 0d5a 54797065 		.ascii	"Type\000"
 4895      00
 4896              	.LASF338:
 4897 0d5f 74656D70 		.ascii	"tempM\000"
 4897      4D00
 4898              	.LASF339:
 4899 0d65 74656D70 		.ascii	"tempQ\000"
 4899      5100
 4900              	.LASF107:
 4901 0d6b 4F535F45 		.ascii	"OS_ERR_POST_NULL_PTR\000"
 4901      52525F50 
 4901      4F53545F 
 4901      4E554C4C 
 4901      5F505452 
 4902              	.LASF123:
 4903 0d80 4F535F45 		.ascii	"OS_ERR_SCHED_INVALID_TIME_SLICE\000"
 4903      52525F53 
 4903      43484544 
 4903      5F494E56 
 4903      414C4944 
 4904              	.LASF88:
 4905 0da0 4F535F45 		.ascii	"OS_ERR_NAME\000"
 4905      52525F4E 
 4905      414D4500 
 4906              	.LASF222:
 4907 0dac 45787450 		.ascii	"ExtPtr\000"
 4907      747200
 4908              	.LASF97:
 4909 0db3 4F535F45 		.ascii	"OS_ERR_OS_RUNNING\000"
 4909      52525F4F 
 4909      535F5255 
 4909      4E4E494E 
 4909      4700
 4910              	.LASF41:
 4911 0dc5 4F535F53 		.ascii	"OS_STATUS\000"
 4911      54415455 
 4911      5300
 4912              	.LASF331:
 4913 0dcf 4F535469 		.ascii	"OSTickCtr\000"
 4913      636B4374 
 4913      7200
 4914              	.LASF276:
 4915 0dd9 5264794D 		.ascii	"RdyMsgSize\000"
ARM GAS  C:\Users\alex\AppData\Local\Temp\ccrLK32p.s 			page 115


 4915      73675369 
 4915      7A6500
 4916              	.LASF241:
 4917 0de4 5469636B 		.ascii	"TickCtrMatch\000"
 4917      4374724D 
 4917      61746368 
 4917      00
 4918              	.LASF105:
 4919 0df1 4F535F45 		.ascii	"OS_ERR_PEND_LOCKED\000"
 4919      52525F50 
 4919      454E445F 
 4919      4C4F434B 
 4919      454400
 4920              	.LASF9:
 4921 0e04 6C6F6E67 		.ascii	"long double\000"
 4921      20646F75 
 4921      626C6500 
 4922              	.LASF257:
 4923 0e10 4379636C 		.ascii	"CyclesStart\000"
 4923      65735374 
 4923      61727400 
 4924              	.LASF311:
 4925 0e1c 73746174 		.ascii	"statusMotor\000"
 4925      75734D6F 
 4925      746F7200 
 4926              	.LASF129:
 4927 0e28 4F535F45 		.ascii	"OS_ERR_SET_ISR\000"
 4927      52525F53 
 4927      45545F49 
 4927      535200
 4928              	.LASF230:
 4929 0e37 5461736B 		.ascii	"TaskEntryAddr\000"
 4929      456E7472 
 4929      79416464 
 4929      7200
 4930              	.LASF290:
 4931 0e45 6F735F65 		.ascii	"os_err\000"
 4931      727200
 4932              	.LASF325:
 4933 0e4c 4170705F 		.ascii	"App_Task_Sen_Temp_TCB\000"
 4933      5461736B 
 4933      5F53656E 
 4933      5F54656D 
 4933      705F5443 
 4934              	.LASF280:
 4935 0e62 48656164 		.ascii	"HeadPtr\000"
 4935      50747200 
 4936              	.LASF158:
 4937 0e6a 4F535F45 		.ascii	"OS_ERR_TASK_SUSPEND_IDLE\000"
 4937      52525F54 
 4937      41534B5F 
 4937      53555350 
 4937      454E445F 
 4938              	.LASF256:
 4939 0e83 4379636C 		.ascii	"CyclesDelta\000"
 4939      65734465 
 4939      6C746100 
ARM GAS  C:\Users\alex\AppData\Local\Temp\ccrLK32p.s 			page 116


 4940              	.LASF142:
 4941 0e8f 4F535F45 		.ascii	"OS_ERR_TASK_DEL\000"
 4941      52525F54 
 4941      41534B5F 
 4941      44454C00 
 4942              	.LASF283:
 4943 0e9f 6F735F70 		.ascii	"os_pend_obj\000"
 4943      656E645F 
 4943      6F626A00 
 4944              	.LASF149:
 4945 0eab 4F535F45 		.ascii	"OS_ERR_TASK_NOT_EXIST\000"
 4945      52525F54 
 4945      41534B5F 
 4945      4E4F545F 
 4945      45584953 
 4946              	.LASF78:
 4947 0ec1 4F535F45 		.ascii	"OS_ERR_MEM_INVALID_P_MEM\000"
 4947      52525F4D 
 4947      454D5F49 
 4947      4E56414C 
 4947      49445F50 
 4948              	.LASF217:
 4949 0eda 4E627245 		.ascii	"NbrEntriesMax\000"
 4949      6E747269 
 4949      65734D61 
 4949      7800
 4950              	.LASF86:
 4951 0ee8 4F535F45 		.ascii	"OS_ERR_MUTEX_NESTING\000"
 4951      52525F4D 
 4951      55544558 
 4951      5F4E4553 
 4951      54494E47 
 4952              	.LASF103:
 4953 0efd 4F535F45 		.ascii	"OS_ERR_PEND_DEL\000"
 4953      52525F50 
 4953      454E445F 
 4953      44454C00 
 4954              	.LASF77:
 4955 0f0d 4F535F45 		.ascii	"OS_ERR_MEM_INVALID_P_BLK\000"
 4955      52525F4D 
 4955      454D5F49 
 4955      4E56414C 
 4955      49445F50 
 4956              	.LASF57:
 4957 0f26 4F535F45 		.ascii	"OS_ERR_FLUSH_ISR\000"
 4957      52525F46 
 4957      4C555348 
 4957      5F495352 
 4957      00
 4958              	.LASF274:
 4959 0f37 5264794F 		.ascii	"RdyObjPtr\000"
 4959      626A5074 
 4959      7200
 4960              	.LASF114:
 4961 0f41 4F535F45 		.ascii	"OS_ERR_Q_FULL\000"
 4961      52525F51 
 4961      5F46554C 
ARM GAS  C:\Users\alex\AppData\Local\Temp\ccrLK32p.s 			page 117


 4961      4C00
 4962              	.LASF7:
 4963 0f4f 6C6F6E67 		.ascii	"long long unsigned int\000"
 4963      206C6F6E 
 4963      6720756E 
 4963      7369676E 
 4963      65642069 
 4964              	.LASF154:
 4965 0f66 4F535F45 		.ascii	"OS_ERR_TASK_RESUME_SELF\000"
 4965      52525F54 
 4965      41534B5F 
 4965      52455355 
 4965      4D455F53 
 4966              	.LASF191:
 4967 0f7e 4F535F45 		.ascii	"OS_ERR_TMR_NO_CALLBACK\000"
 4967      52525F54 
 4967      4D525F4E 
 4967      4F5F4341 
 4967      4C4C4241 
 4968              	.LASF112:
 4969 0f95 4F535F45 		.ascii	"OS_ERR_PTR_INVALID\000"
 4969      52525F50 
 4969      54525F49 
 4969      4E56414C 
 4969      494400
 4970              	.LASF54:
 4971 0fa8 4F535F45 		.ascii	"OS_ERR_FLAG_GRP_DEPLETED\000"
 4971      52525F46 
 4971      4C41475F 
 4971      4752505F 
 4971      4445504C 
 4972              	.LASF153:
 4973 0fc1 4F535F45 		.ascii	"OS_ERR_TASK_RESUME_PRIO\000"
 4973      52525F54 
 4973      41534B5F 
 4973      52455355 
 4973      4D455F50 
 4974              	.LASF79:
 4975 0fd9 4F535F45 		.ascii	"OS_ERR_MEM_INVALID_P_DATA\000"
 4975      52525F4D 
 4975      454D5F49 
 4975      4E56414C 
 4975      49445F50 
 4976              	.LASF37:
 4977 0ff3 4F535F52 		.ascii	"OS_RATE_HZ\000"
 4977      4154455F 
 4977      485A00
 4978              	.LASF254:
 4979 0ffe 43505555 		.ascii	"CPUUsageMax\000"
 4979      73616765 
 4979      4D617800 
 4980              	.LASF111:
 4981 100a 4F535F45 		.ascii	"OS_ERR_PRIO_INVALID\000"
 4981      52525F50 
 4981      52494F5F 
 4981      494E5641 
 4981      4C494400 
ARM GAS  C:\Users\alex\AppData\Local\Temp\ccrLK32p.s 			page 118


 4982              	.LASF233:
 4983 101e 50656E64 		.ascii	"PendOn\000"
 4983      4F6E00
 4984              	.LASF119:
 4985 1025 4F535F45 		.ascii	"OS_ERR_REG_ID_INVALID\000"
 4985      52525F52 
 4985      45475F49 
 4985      445F494E 
 4985      56414C49 
 4986              	.LASF327:
 4987 103b 4170705F 		.ascii	"App_Task_Display_TCB\000"
 4987      5461736B 
 4987      5F446973 
 4987      706C6179 
 4987      5F544342 
 4988              	.LASF267:
 4989 1050 4F535F54 		.ascii	"OS_TICK_SPOKE\000"
 4989      49434B5F 
 4989      53504F4B 
 4989      4500
 4990              	.LASF80:
 4991 105e 4F535F45 		.ascii	"OS_ERR_MEM_INVALID_SIZE\000"
 4991      52525F4D 
 4991      454D5F49 
 4991      4E56414C 
 4991      49445F53 
 4992              	.LASF162:
 4993 1076 4F535F45 		.ascii	"OS_ERR_TASK_WAITING\000"
 4993      52525F54 
 4993      41534B5F 
 4993      57414954 
 4993      494E4700 
 4994              	.LASF144:
 4995 108a 4F535F45 		.ascii	"OS_ERR_TASK_DEL_INVALID\000"
 4995      52525F54 
 4995      41534B5F 
 4995      44454C5F 
 4995      494E5641 
 4996              	.LASF321:
 4997 10a2 4170705F 		.ascii	"App_Task_Emerg_TCB\000"
 4997      5461736B 
 4997      5F456D65 
 4997      72675F54 
 4997      434200
 4998              	.LASF231:
 4999 10b5 5461736B 		.ascii	"TaskEntryArg\000"
 4999      456E7472 
 4999      79417267 
 4999      00
 5000              	.LASF64:
 5001 10c2 4F535F45 		.ascii	"OS_ERR_INT_Q_SIZE\000"
 5001      52525F49 
 5001      4E545F51 
 5001      5F53495A 
 5001      4500
 5002              	.LASF279:
 5003 10d4 6F735F70 		.ascii	"os_pend_list\000"
ARM GAS  C:\Users\alex\AppData\Local\Temp\ccrLK32p.s 			page 119


 5003      656E645F 
 5003      6C697374 
 5003      00
 5004              	.LASF330:
 5005 10e1 4F535461 		.ascii	"OSTaskCtxSwCtr\000"
 5005      736B4374 
 5005      78537743 
 5005      747200
 5006              	.LASF314:
 5007 10f0 73746174 		.ascii	"statusAlerta\000"
 5007      7573416C 
 5007      65727461 
 5007      00
 5008              	.LASF332:
 5009 10fd 4F534366 		.ascii	"OSCfg_TickRate_Hz\000"
 5009      675F5469 
 5009      636B5261 
 5009      74655F48 
 5009      7A00
 5010              	.LASF302:
 5011 110f 4170705F 		.ascii	"App_Task_Display\000"
 5011      5461736B 
 5011      5F446973 
 5011      706C6179 
 5011      00
 5012              	.LASF224:
 5013 1120 50726576 		.ascii	"PrevPtr\000"
 5013      50747200 
 5014              	.LASF227:
 5015 1128 5469636B 		.ascii	"TickSpokePtr\000"
 5015      53706F6B 
 5015      65507472 
 5015      00
 5016              	.LASF135:
 5017 1135 4F535F45 		.ascii	"OS_ERR_STATUS_INVALID\000"
 5017      52525F53 
 5017      54415455 
 5017      535F494E 
 5017      56414C49 
 5018              	.LASF308:
 5019 114b 7062325F 		.ascii	"pb2_state_prev\000"
 5019      73746174 
 5019      655F7072 
 5019      657600
 5020              	.LASF70:
 5021 115a 4F535F45 		.ascii	"OS_ERR_LOCK_NESTING_OVF\000"
 5021      52525F4C 
 5021      4F434B5F 
 5021      4E455354 
 5021      494E475F 
 5022              	.LASF159:
 5023 1172 4F535F45 		.ascii	"OS_ERR_TASK_SUSPEND_INT_HANDLER\000"
 5023      52525F54 
 5023      41534B5F 
 5023      53555350 
 5023      454E445F 
 5024              	.LASF179:
ARM GAS  C:\Users\alex\AppData\Local\Temp\ccrLK32p.s 			page 120


 5025 1192 4F535F45 		.ascii	"OS_ERR_TIME_INVALID_MILLISECONDS\000"
 5025      52525F54 
 5025      494D455F 
 5025      494E5641 
 5025      4C49445F 
 5026              	.LASF205:
 5027 11b3 4F535F4D 		.ascii	"OS_MSG\000"
 5027      534700
 5028              	.LASF206:
 5029 11ba 4E657874 		.ascii	"NextPtr\000"
 5029      50747200 
 5030              	.LASF273:
 5031 11c2 50656E64 		.ascii	"PendObjPtr\000"
 5031      4F626A50 
 5031      747200
 5032              	.LASF29:
 5033 11cd 4F535F46 		.ascii	"OS_FLAGS\000"
 5033      4C414753 
 5033      00
 5034              	.LASF213:
 5035 11d6 496E5074 		.ascii	"InPtr\000"
 5035      7200
 5036              	.LASF262:
 5037 11dc 53746B55 		.ascii	"StkUsed\000"
 5037      73656400 
 5038              	.LASF2:
 5039 11e4 73686F72 		.ascii	"short int\000"
 5039      7420696E 
 5039      7400
 5040              	.LASF307:
 5041 11ee 7062325F 		.ascii	"pb2_state_cur\000"
 5041      73746174 
 5041      655F6375 
 5041      7200
 5042              	.LASF228:
 5043 11fc 4E616D65 		.ascii	"NamePtr\000"
 5043      50747200 
 5044              	.LASF50:
 5045 1204 4F535F45 		.ascii	"OS_ERR_DEL_ISR\000"
 5045      52525F44 
 5045      454C5F49 
 5045      535200
 5046              	.LASF212:
 5047 1213 6F735F6D 		.ascii	"os_msg_q\000"
 5047      73675F71 
 5047      00
 5048              	.LASF334:
 5049 121c 6D6F746F 		.ascii	"motor\000"
 5049      7200
 5050              	.LASF115:
 5051 1222 4F535F45 		.ascii	"OS_ERR_Q_EMPTY\000"
 5051      52525F51 
 5051      5F454D50 
 5051      545900
 5052              	.LASF130:
 5053 1231 4F535F45 		.ascii	"OS_ERR_STAT_RESET_ISR\000"
 5053      52525F53 
ARM GAS  C:\Users\alex\AppData\Local\Temp\ccrLK32p.s 			page 121


 5053      5441545F 
 5053      52455345 
 5053      545F4953 
 5054              	.LASF146:
 5055 1247 4F535F45 		.ascii	"OS_ERR_TASK_INVALID\000"
 5055      52525F54 
 5055      41534B5F 
 5055      494E5641 
 5055      4C494400 
 5056              	.LASF214:
 5057 125b 4F757450 		.ascii	"OutPtr\000"
 5057      747200
 5058              	.LASF184:
 5059 1262 4F535F45 		.ascii	"OS_ERR_TMR_INACTIVE\000"
 5059      52525F54 
 5059      4D525F49 
 5059      4E414354 
 5059      49564500 
 5060              	.LASF216:
 5061 1276 4E627245 		.ascii	"NbrEntries\000"
 5061      6E747269 
 5061      657300
 5062              	.LASF109:
 5063 1281 4F535F45 		.ascii	"OS_ERR_PRIO_EXIST\000"
 5063      52525F50 
 5063      52494F5F 
 5063      45584953 
 5063      5400
 5064              	.LASF297:
 5065 1293 4170705F 		.ascii	"App_Task_Sen_Temp\000"
 5065      5461736B 
 5065      5F53656E 
 5065      5F54656D 
 5065      7000
 5066              	.LASF208:
 5067 12a5 4D736753 		.ascii	"MsgSize\000"
 5067      697A6500 
 5068              	.LASF259:
 5069 12ad 4379636C 		.ascii	"CyclesTotalPrev\000"
 5069      6573546F 
 5069      74616C50 
 5069      72657600 
 5070              	.LASF187:
 5071 12bd 4F535F45 		.ascii	"OS_ERR_TMR_INVALID_PERIOD\000"
 5071      52525F54 
 5071      4D525F49 
 5071      4E56414C 
 5071      49445F50 
 5072              	.LASF333:
 5073 12d7 49544D5F 		.ascii	"ITM_RxBuffer\000"
 5073      52784275 
 5073      66666572 
 5073      00
 5074              	.LASF234:
 5075 12e4 50656E64 		.ascii	"PendStatus\000"
 5075      53746174 
 5075      757300
ARM GAS  C:\Users\alex\AppData\Local\Temp\ccrLK32p.s 			page 122


 5076              	.LASF250:
 5077 12ef 466C6167 		.ascii	"FlagsRdy\000"
 5077      73526479 
 5077      00
 5078              	.LASF229:
 5079 12f8 53746B42 		.ascii	"StkBasePtr\000"
 5079      61736550 
 5079      747200
 5080              	.LASF303:
 5081 1303 6C696E65 		.ascii	"line_str\000"
 5081      5F737472 
 5081      00
 5082              	.LASF265:
 5083 130c 4462674E 		.ascii	"DbgNextPtr\000"
 5083      65787450 
 5083      747200
 5084              	.LASF95:
 5085 1317 4F535F45 		.ascii	"OS_ERR_OPT_INVALID\000"
 5085      52525F4F 
 5085      50545F49 
 5085      4E56414C 
 5085      494400
 5086              	.LASF56:
 5087 132a 4F535F45 		.ascii	"OS_ERR_FLAG_PEND_OPT\000"
 5087      52525F46 
 5087      4C41475F 
 5087      50454E44 
 5087      5F4F5054 
 5088              	.LASF83:
 5089 133f 4F535F45 		.ascii	"OS_ERR_MSG_POOL_NULL_PTR\000"
 5089      52525F4D 
 5089      53475F50 
 5089      4F4F4C5F 
 5089      4E554C4C 
 5090              	.LASF218:
 5091 1358 4F535F54 		.ascii	"OS_TASK_PTR\000"
 5091      41534B5F 
 5091      50545200 
 5092              	.LASF319:
 5093 1364 4170705F 		.ascii	"App_Task_Ihm_TCB\000"
 5093      5461736B 
 5093      5F49686D 
 5093      5F544342 
 5093      00
 5094              	.LASF30:
 5095 1375 4F535F4D 		.ascii	"OS_MSG_QTY\000"
 5095      53475F51 
 5095      545900
 5096              	.LASF116:
 5097 1380 4F535F45 		.ascii	"OS_ERR_Q_MAX\000"
 5097      52525F51 
 5097      5F4D4158 
 5097      00
 5098              	.LASF18:
 5099 138d 4350555F 		.ascii	"CPU_INT08U\000"
 5099      494E5430 
 5099      385500
ARM GAS  C:\Users\alex\AppData\Local\Temp\ccrLK32p.s 			page 123


 5100              	.LASF190:
 5101 1398 4F535F45 		.ascii	"OS_ERR_TMR_ISR\000"
 5101      52525F54 
 5101      4D525F49 
 5101      535200
 5102              	.LASF121:
 5103 13a7 4F535F45 		.ascii	"OS_ERR_ROUND_ROBIN_DISABLED\000"
 5103      52525F52 
 5103      4F554E44 
 5103      5F524F42 
 5103      494E5F44 
 5104              	.LASF170:
 5105 13c3 4F535F45 		.ascii	"OS_ERR_TICK_STK_INVALID\000"
 5105      52525F54 
 5105      49434B5F 
 5105      53544B5F 
 5105      494E5641 
 5106              	.LASF181:
 5107 13db 4F535F45 		.ascii	"OS_ERR_TIME_SET_ISR\000"
 5107      52525F54 
 5107      494D455F 
 5107      5345545F 
 5107      49535200 
 5108              	.LASF93:
 5109 13ef 4F535F45 		.ascii	"OS_ERR_OBJ_PTR_NULL\000"
 5109      52525F4F 
 5109      424A5F50 
 5109      54525F4E 
 5109      554C4C00 
 5110              	.LASF172:
 5111 1403 4F535F45 		.ascii	"OS_ERR_TICK_WHEEL_SIZE\000"
 5111      52525F54 
 5111      49434B5F 
 5111      57484545 
 5111      4C5F5349 
 5112              	.LASF173:
 5113 141a 4F535F45 		.ascii	"OS_ERR_TIME_DLY_ISR\000"
 5113      52525F54 
 5113      494D455F 
 5113      444C595F 
 5113      49535200 
 5114              	.LASF161:
 5115 142e 4F535F45 		.ascii	"OS_ERR_TASK_SUSPEND_PRIO\000"
 5115      52525F54 
 5115      41534B5F 
 5115      53555350 
 5115      454E445F 
 5116              	.LASF3:
 5117 1447 73686F72 		.ascii	"short unsigned int\000"
 5117      7420756E 
 5117      7369676E 
 5117      65642069 
 5117      6E7400
 5118              	.LASF167:
 5119 145a 4F535F45 		.ascii	"OS_ERR_TLS_NOT_EN\000"
 5119      52525F54 
 5119      4C535F4E 
ARM GAS  C:\Users\alex\AppData\Local\Temp\ccrLK32p.s 			page 124


 5119      4F545F45 
 5119      4E00
 5120              	.LASF143:
 5121 146c 4F535F45 		.ascii	"OS_ERR_TASK_DEL_IDLE\000"
 5121      52525F54 
 5121      41534B5F 
 5121      44454C5F 
 5121      49444C45 
 5122              	.LASF110:
 5123 1481 4F535F45 		.ascii	"OS_ERR_PRIO\000"
 5123      52525F50 
 5123      52494F00 
 5124              	.LASF62:
 5125 148d 4F535F45 		.ascii	"OS_ERR_INT_Q\000"
 5125      52525F49 
 5125      4E545F51 
 5125      00
 5126              	.LASF155:
 5127 149a 4F535F45 		.ascii	"OS_ERR_TASK_RUNNING\000"
 5127      52525F54 
 5127      41534B5F 
 5127      52554E4E 
 5127      494E4700 
 5128              	.LASF236:
 5129 14ae 5072696F 		.ascii	"Prio\000"
 5129      00
 5130              	.LASF324:
 5131 14b3 4170705F 		.ascii	"App_Task_Sen_Mec_Stk\000"
 5131      5461736B 
 5131      5F53656E 
 5131      5F4D6563 
 5131      5F53746B 
 5132              	.LASF317:
 5133 14c8 4170705F 		.ascii	"App_TaskUserIF_TCB\000"
 5133      5461736B 
 5133      55736572 
 5133      49465F54 
 5133      434200
 5134              	.LASF313:
 5135 14db 73746174 		.ascii	"statusEmerg\000"
 5135      7573456D 
 5135      65726700 
 5136              	.LASF12:
 5137 14e7 5F5F696E 		.ascii	"__int32_t\000"
 5137      7433325F 
 5137      7400
 5138              	.LASF94:
 5139 14f1 4F535F45 		.ascii	"OS_ERR_OBJ_TYPE\000"
 5139      52525F4F 
 5139      424A5F54 
 5139      59504500 
 5140              	.LASF239:
 5141 1501 53656D43 		.ascii	"SemCtr\000"
 5141      747200
 5142              	.LASF140:
 5143 1508 4F535F45 		.ascii	"OS_ERR_TASK_CHANGE_PRIO_ISR\000"
 5143      52525F54 
ARM GAS  C:\Users\alex\AppData\Local\Temp\ccrLK32p.s 			page 125


 5143      41534B5F 
 5143      4348414E 
 5143      47455F50 
 5144              	.LASF169:
 5145 1524 4F535F45 		.ascii	"OS_ERR_TICK_PRIO_INVALID\000"
 5145      52525F54 
 5145      49434B5F 
 5145      5052494F 
 5145      5F494E56 
 5146              	.LASF106:
 5147 153d 4F535F45 		.ascii	"OS_ERR_PEND_WOULD_BLOCK\000"
 5147      52525F50 
 5147      454E445F 
 5147      574F554C 
 5147      445F424C 
 5148              	.LASF247:
 5149 1555 4D736751 		.ascii	"MsgQPendTimeMax\000"
 5149      50656E64 
 5149      54696D65 
 5149      4D617800 
 5150              	.LASF275:
 5151 1565 5264794D 		.ascii	"RdyMsgPtr\000"
 5151      73675074 
 5151      7200
 5152              	.LASF175:
 5153 156f 4F535F45 		.ascii	"OS_ERR_TIME_GET_ISR\000"
 5153      52525F54 
 5153      494D455F 
 5153      4745545F 
 5153      49535200 
 5154              	.LASF124:
 5155 1583 4F535F45 		.ascii	"OS_ERR_SCHED_LOCK_ISR\000"
 5155      52525F53 
 5155      43484544 
 5155      5F4C4F43 
 5155      4B5F4953 
 5156              		.ident	"GCC: (GNU Tools for ARM Embedded Processors) 5.4.1 20160609 (release) [ARM/embedded-5-bran
