ARM GAS  C:\Users\alex\AppData\Local\Temp\cciAm60H.s 			page 1


   1              		.syntax unified
   2              		.cpu cortex-m3
   3              		.fpu softvfp
   4              		.eabi_attribute 20, 1
   5              		.eabi_attribute 21, 1
   6              		.eabi_attribute 23, 3
   7              		.eabi_attribute 24, 1
   8              		.eabi_attribute 25, 1
   9              		.eabi_attribute 26, 1
  10              		.eabi_attribute 30, 6
  11              		.eabi_attribute 34, 1
  12              		.eabi_attribute 18, 4
  13              		.thumb
  14              		.syntax unified
  15              		.file	"bsp.c"
  16              		.text
  17              	.Ltext0:
  18              		.cfi_sections	.debug_frame
  19              		.comm	LED_REG_VAL,1,1
  20              		.section	.text.BSP_PreInit,"ax",%progbits
  21              		.align	2
  22              		.global	BSP_PreInit
  23              		.thumb
  24              		.thumb_func
  25              		.type	BSP_PreInit, %function
  26              	BSP_PreInit:
  27              	.LFB0:
  28              		.file 1 "..\\..\\BSP\\bsp.c"
   1:..\..\BSP/bsp.c **** /*
   2:..\..\BSP/bsp.c **** ***************************************************************************************************
   3:..\..\BSP/bsp.c **** *                                     MICIRUM BOARD SUPPORT PACKAGE
   4:..\..\BSP/bsp.c **** *
   5:..\..\BSP/bsp.c **** *                             (c) Copyright 2012; Micrium, Inc.; Weston, FL
   6:..\..\BSP/bsp.c **** *
   7:..\..\BSP/bsp.c **** *               All rights reserved.  Protected by international copyright laws.
   8:..\..\BSP/bsp.c **** *               Knowledge of the source code may NOT be used to develop a similar product.
   9:..\..\BSP/bsp.c **** *               Please help us continue to provide the Embedded community with the finest
  10:..\..\BSP/bsp.c **** *               software available.  Your honesty is greatly appreciated.
  11:..\..\BSP/bsp.c **** ***************************************************************************************************
  12:..\..\BSP/bsp.c **** */
  13:..\..\BSP/bsp.c **** 
  14:..\..\BSP/bsp.c **** /*
  15:..\..\BSP/bsp.c **** ***************************************************************************************************
  16:..\..\BSP/bsp.c **** *
  17:..\..\BSP/bsp.c **** *                                        BOARD SUPPORT PACKAGE
  18:..\..\BSP/bsp.c **** *
  19:..\..\BSP/bsp.c **** *                                           CYPRESS PSoC5
  20:..\..\BSP/bsp.c **** *                                              with the
  21:..\..\BSP/bsp.c **** *                                     CY8CKIT-050 Development Kit
  22:..\..\BSP/bsp.c **** *
  23:..\..\BSP/bsp.c **** * Filename      : bsp.c
  24:..\..\BSP/bsp.c **** * Version       : V1.00
  25:..\..\BSP/bsp.c **** * Programmer(s) : DC
  26:..\..\BSP/bsp.c **** ***************************************************************************************************
  27:..\..\BSP/bsp.c **** */
  28:..\..\BSP/bsp.c **** 
  29:..\..\BSP/bsp.c **** /*
ARM GAS  C:\Users\alex\AppData\Local\Temp\cciAm60H.s 			page 2


  30:..\..\BSP/bsp.c **** ***************************************************************************************************
  31:..\..\BSP/bsp.c **** *                                             INCLUDE FILES
  32:..\..\BSP/bsp.c **** ***************************************************************************************************
  33:..\..\BSP/bsp.c **** */
  34:..\..\BSP/bsp.c **** 
  35:..\..\BSP/bsp.c **** #define  BSP_MODULE
  36:..\..\BSP/bsp.c **** #include <bsp.h>
  37:..\..\BSP/bsp.c **** #include <bsp_psoc.h>
  38:..\..\BSP/bsp.c **** 
  39:..\..\BSP/bsp.c **** 
  40:..\..\BSP/bsp.c **** /*
  41:..\..\BSP/bsp.c **** ***************************************************************************************************
  42:..\..\BSP/bsp.c **** *                                            LOCAL DEFINES
  43:..\..\BSP/bsp.c **** ***************************************************************************************************
  44:..\..\BSP/bsp.c **** */
  45:..\..\BSP/bsp.c ****                                                     /* ------------------- LED DEFINITONS ---------
  46:..\..\BSP/bsp.c **** #define  LED_3                  1                   /* Represents 0x01, Control_0 Bit in Control Re
  47:..\..\BSP/bsp.c **** #define  LED_4                  2                   /* Represents 0x10, Control_1 Bit in Control Re
  48:..\..\BSP/bsp.c **** #define  ALL_LED                3                   /* Represents 0x11, Control_0 & 1 Bit in Contro
  49:..\..\BSP/bsp.c **** 
  50:..\..\BSP/bsp.c **** 
  51:..\..\BSP/bsp.c **** /*
  52:..\..\BSP/bsp.c **** ***************************************************************************************************
  53:..\..\BSP/bsp.c **** *                                           LOCAL CONSTANTS
  54:..\..\BSP/bsp.c **** ***************************************************************************************************
  55:..\..\BSP/bsp.c **** */
  56:..\..\BSP/bsp.c ****                                                                    
  57:..\..\BSP/bsp.c **** CPU_INT08U                      LED_REG_VAL;        /*
  58:..\..\BSP/bsp.c ****                                                     ***********************************************
  59:..\..\BSP/bsp.c ****                                                     * LED_REG_VAL is used to read the current value
  60:..\..\BSP/bsp.c ****                                                     * LED_Status Control Register using LED_Status_
  61:..\..\BSP/bsp.c ****                                                     * function and provides this information to the
  62:..\..\BSP/bsp.c ****                                                     * LED_Status_Write() function so it won't overw
  63:..\..\BSP/bsp.c ****                                                     * values from other LEDs. LED_Status_Write() th
  64:..\..\BSP/bsp.c ****                                                     * writes a single bit in the necessary control 
  65:..\..\BSP/bsp.c ****                                                     * register pin for the neceessary LED.
  66:..\..\BSP/bsp.c ****                                                     ***********************************************
  67:..\..\BSP/bsp.c ****                                                     */
  68:..\..\BSP/bsp.c **** 
  69:..\..\BSP/bsp.c **** /*
  70:..\..\BSP/bsp.c **** ***************************************************************************************************
  71:..\..\BSP/bsp.c **** *                                          LOCAL DATA TYPES
  72:..\..\BSP/bsp.c **** ***************************************************************************************************
  73:..\..\BSP/bsp.c **** */
  74:..\..\BSP/bsp.c **** 
  75:..\..\BSP/bsp.c **** 
  76:..\..\BSP/bsp.c **** /*
  77:..\..\BSP/bsp.c **** ***************************************************************************************************
  78:..\..\BSP/bsp.c **** *                                            LOCAL TABLES
  79:..\..\BSP/bsp.c **** ***************************************************************************************************
  80:..\..\BSP/bsp.c **** */
  81:..\..\BSP/bsp.c **** 
  82:..\..\BSP/bsp.c **** 
  83:..\..\BSP/bsp.c **** /*
  84:..\..\BSP/bsp.c **** ***************************************************************************************************
  85:..\..\BSP/bsp.c **** *                                       LOCAL GLOBAL VARIABLES
  86:..\..\BSP/bsp.c **** ***************************************************************************************************
ARM GAS  C:\Users\alex\AppData\Local\Temp\cciAm60H.s 			page 3


  87:..\..\BSP/bsp.c **** */
  88:..\..\BSP/bsp.c **** 
  89:..\..\BSP/bsp.c **** 
  90:..\..\BSP/bsp.c **** 
  91:..\..\BSP/bsp.c **** /*
  92:..\..\BSP/bsp.c **** ***************************************************************************************************
  93:..\..\BSP/bsp.c **** *                                      LOCAL FUNCTION PROTOTYPES
  94:..\..\BSP/bsp.c **** ***************************************************************************************************
  95:..\..\BSP/bsp.c **** */
  96:..\..\BSP/bsp.c **** 
  97:..\..\BSP/bsp.c **** 
  98:..\..\BSP/bsp.c **** /*
  99:..\..\BSP/bsp.c **** ***************************************************************************************************
 100:..\..\BSP/bsp.c **** *                                            REGISTER BITS
 101:..\..\BSP/bsp.c **** ***************************************************************************************************
 102:..\..\BSP/bsp.c **** */
 103:..\..\BSP/bsp.c **** 
 104:..\..\BSP/bsp.c **** 
 105:..\..\BSP/bsp.c **** /*
 106:..\..\BSP/bsp.c **** ***************************************************************************************************
 107:..\..\BSP/bsp.c **** *                                     LOCAL CONFIGURATION ERRORS
 108:..\..\BSP/bsp.c **** ***************************************************************************************************
 109:..\..\BSP/bsp.c **** */
 110:..\..\BSP/bsp.c **** 
 111:..\..\BSP/bsp.c **** 
 112:..\..\BSP/bsp.c **** /*
 113:..\..\BSP/bsp.c **** ***************************************************************************************************
 114:..\..\BSP/bsp.c **** *                                             BSP_PreInit()
 115:..\..\BSP/bsp.c **** *
 116:..\..\BSP/bsp.c **** * Description : Board support package pre-initialization funtion.
 117:..\..\BSP/bsp.c **** *
 118:..\..\BSP/bsp.c **** * Argument(s) : none.
 119:..\..\BSP/bsp.c **** *
 120:..\..\BSP/bsp.c **** * Return(s)   : none.
 121:..\..\BSP/bsp.c **** *
 122:..\..\BSP/bsp.c **** * Caller(s)   : Application.
 123:..\..\BSP/bsp.c **** *
 124:..\..\BSP/bsp.c **** * Note(s)     : (1) This funtion initializes peripherals required before the OS is initialized (e.g
 125:..\..\BSP/bsp.c **** *                   external memory.
 126:..\..\BSP/bsp.c **** ***************************************************************************************************
 127:..\..\BSP/bsp.c **** */
 128:..\..\BSP/bsp.c **** 
 129:..\..\BSP/bsp.c **** 
 130:..\..\BSP/bsp.c **** void BSP_PreInit (void)
 131:..\..\BSP/bsp.c **** {
  29              		.loc 1 131 0
  30              		.cfi_startproc
  31              		@ args = 0, pretend = 0, frame = 8
  32              		@ frame_needed = 1, uses_anonymous_args = 0
  33              		@ link register save eliminated.
  34 0000 80B4     		push	{r7}
  35              		.cfi_def_cfa_offset 4
  36              		.cfi_offset 7, -4
  37 0002 83B0     		sub	sp, sp, #12
  38              		.cfi_def_cfa_offset 16
  39 0004 00AF     		add	r7, sp, #0
  40              		.cfi_def_cfa_register 7
ARM GAS  C:\Users\alex\AppData\Local\Temp\cciAm60H.s 			page 4


 132:..\..\BSP/bsp.c ****     CPU_INT32U  reg_val;
 133:..\..\BSP/bsp.c ****     CPU_INT32U *p_vect_tbl;
 134:..\..\BSP/bsp.c ****     
 135:..\..\BSP/bsp.c ****     
 136:..\..\BSP/bsp.c ****     reg_val = CPU_REG_NVIC_VTOR;                                   /* Get the NVIC offset table    
  41              		.loc 1 136 0
  42 0006 0B4B     		ldr	r3, .L2
  43 0008 1B68     		ldr	r3, [r3]
  44 000a 7B60     		str	r3, [r7, #4]
 137:..\..\BSP/bsp.c ****     DEF_BIT_CLR(reg_val, DEF_BIT_29);                              /* Clear the TBLBASE bit        
  45              		.loc 1 137 0
  46 000c 7B68     		ldr	r3, [r7, #4]
  47 000e 23F00053 		bic	r3, r3, #536870912
  48 0012 7B60     		str	r3, [r7, #4]
 138:..\..\BSP/bsp.c ****     
 139:..\..\BSP/bsp.c ****      
 140:..\..\BSP/bsp.c ****     p_vect_tbl                  = (CPU_INT32U *)reg_val;           
  49              		.loc 1 140 0
  50 0014 7B68     		ldr	r3, [r7, #4]
  51 0016 3B60     		str	r3, [r7]
 141:..\..\BSP/bsp.c ****                                                                    /* Install the PendSV & Systick 
 142:..\..\BSP/bsp.c ****     p_vect_tbl[CPU_INT_PENDSV]  = (CPU_INT32U  )OS_CPU_PendSVHandler;
  52              		.loc 1 142 0
  53 0018 3B68     		ldr	r3, [r7]
  54 001a 3833     		adds	r3, r3, #56
  55 001c 064A     		ldr	r2, .L2+4
  56 001e 1A60     		str	r2, [r3]
 143:..\..\BSP/bsp.c ****     p_vect_tbl[CPU_INT_SYSTICK] = (CPU_INT32U  )OS_CPU_SysTickHandler;
  57              		.loc 1 143 0
  58 0020 3B68     		ldr	r3, [r7]
  59 0022 3C33     		adds	r3, r3, #60
  60 0024 054A     		ldr	r2, .L2+8
  61 0026 1A60     		str	r2, [r3]
 144:..\..\BSP/bsp.c **** }
  62              		.loc 1 144 0
  63 0028 00BF     		nop
  64 002a 0C37     		adds	r7, r7, #12
  65              		.cfi_def_cfa_offset 4
  66 002c BD46     		mov	sp, r7
  67              		.cfi_def_cfa_register 13
  68              		@ sp needed
  69 002e 80BC     		pop	{r7}
  70              		.cfi_restore 7
  71              		.cfi_def_cfa_offset 0
  72 0030 7047     		bx	lr
  73              	.L3:
  74 0032 00BF     		.align	2
  75              	.L2:
  76 0034 08ED00E0 		.word	-536810232
  77 0038 00000000 		.word	OS_CPU_PendSVHandler
  78 003c 00000000 		.word	OS_CPU_SysTickHandler
  79              		.cfi_endproc
  80              	.LFE0:
  81              		.size	BSP_PreInit, .-BSP_PreInit
  82              		.section	.text.BSP_PostInit,"ax",%progbits
  83              		.align	2
  84              		.global	BSP_PostInit
ARM GAS  C:\Users\alex\AppData\Local\Temp\cciAm60H.s 			page 5


  85              		.thumb
  86              		.thumb_func
  87              		.type	BSP_PostInit, %function
  88              	BSP_PostInit:
  89              	.LFB1:
 145:..\..\BSP/bsp.c **** 
 146:..\..\BSP/bsp.c **** 
 147:..\..\BSP/bsp.c **** /*
 148:..\..\BSP/bsp.c **** ***************************************************************************************************
 149:..\..\BSP/bsp.c **** *                                               BSP_PostInit()
 150:..\..\BSP/bsp.c **** *
 151:..\..\BSP/bsp.c **** * Description : Board Support Package Post initialization.
 152:..\..\BSP/bsp.c **** *
 153:..\..\BSP/bsp.c **** * Argument(s) : none.
 154:..\..\BSP/bsp.c **** *
 155:..\..\BSP/bsp.c **** * Return(s)   : none.
 156:..\..\BSP/bsp.c **** *
 157:..\..\BSP/bsp.c **** * Caller(s)   : Application.
 158:..\..\BSP/bsp.c **** *
 159:..\..\BSP/bsp.c **** * Note(s)     : (1) This funtion initilize peripherlas that requires the OS to be initialized.
 160:..\..\BSP/bsp.c **** ***************************************************************************************************
 161:..\..\BSP/bsp.c **** */
 162:..\..\BSP/bsp.c **** 
 163:..\..\BSP/bsp.c **** void  BSP_PostInit (void)
 164:..\..\BSP/bsp.c **** {
  90              		.loc 1 164 0
  91              		.cfi_startproc
  92              		@ args = 0, pretend = 0, frame = 0
  93              		@ frame_needed = 1, uses_anonymous_args = 0
  94              		@ link register save eliminated.
  95 0000 80B4     		push	{r7}
  96              		.cfi_def_cfa_offset 4
  97              		.cfi_offset 7, -4
  98 0002 00AF     		add	r7, sp, #0
  99              		.cfi_def_cfa_register 7
 165:..\..\BSP/bsp.c **** 
 166:..\..\BSP/bsp.c **** }
 100              		.loc 1 166 0
 101 0004 00BF     		nop
 102 0006 BD46     		mov	sp, r7
 103              		.cfi_def_cfa_register 13
 104              		@ sp needed
 105 0008 80BC     		pop	{r7}
 106              		.cfi_restore 7
 107              		.cfi_def_cfa_offset 0
 108 000a 7047     		bx	lr
 109              		.cfi_endproc
 110              	.LFE1:
 111              		.size	BSP_PostInit, .-BSP_PostInit
 112              		.section	.text.BSP_CPU_TickInit,"ax",%progbits
 113              		.align	2
 114              		.global	BSP_CPU_TickInit
 115              		.thumb
 116              		.thumb_func
 117              		.type	BSP_CPU_TickInit, %function
 118              	BSP_CPU_TickInit:
 119              	.LFB2:
ARM GAS  C:\Users\alex\AppData\Local\Temp\cciAm60H.s 			page 6


 167:..\..\BSP/bsp.c **** 
 168:..\..\BSP/bsp.c **** 
 169:..\..\BSP/bsp.c **** /*
 170:..\..\BSP/bsp.c **** ***************************************************************************************************
 171:..\..\BSP/bsp.c **** *                                       BSP_CPU_TickInit()
 172:..\..\BSP/bsp.c **** *
 173:..\..\BSP/bsp.c **** * Description : This function reads CPU registers to determine the CPU clock frequency of the chip 
 174:..\..\BSP/bsp.c **** *
 175:..\..\BSP/bsp.c **** * Argument(s) : none.
 176:..\..\BSP/bsp.c **** *
 177:..\..\BSP/bsp.c **** * Return(s)   : none.
 178:..\..\BSP/bsp.c **** *
 179:..\..\BSP/bsp.c **** * Caller(s)   : Application.
 180:..\..\BSP/bsp.c **** *
 181:..\..\BSP/bsp.c **** * Note(s)     : none.
 182:..\..\BSP/bsp.c **** ***************************************************************************************************
 183:..\..\BSP/bsp.c **** */
 184:..\..\BSP/bsp.c **** void  BSP_CPU_TickInit  (void)
 185:..\..\BSP/bsp.c **** {
 120              		.loc 1 185 0
 121              		.cfi_startproc
 122              		@ args = 0, pretend = 0, frame = 8
 123              		@ frame_needed = 1, uses_anonymous_args = 0
 124 0000 80B5     		push	{r7, lr}
 125              		.cfi_def_cfa_offset 8
 126              		.cfi_offset 7, -8
 127              		.cfi_offset 14, -4
 128 0002 82B0     		sub	sp, sp, #8
 129              		.cfi_def_cfa_offset 16
 130 0004 00AF     		add	r7, sp, #0
 131              		.cfi_def_cfa_register 7
 186:..\..\BSP/bsp.c ****     CPU_INT32U   cpu_clk_freq;
 187:..\..\BSP/bsp.c ****     CPU_INT32U   cnts;
 188:..\..\BSP/bsp.c ****     
 189:..\..\BSP/bsp.c ****     cpu_clk_freq = BSP_CPU_ClkFreq();                             /* Determine SysTick reference fr
 132              		.loc 1 189 0
 133 0006 FFF7FEFF 		bl	BSP_CPU_ClkFreq
 134 000a 7860     		str	r0, [r7, #4]
 190:..\..\BSP/bsp.c **** #if (OS_VERSION > 30000u)                                         /* Determine nbr SysTick incremen
 191:..\..\BSP/bsp.c ****     cnts         = (cpu_clk_freq / OSCfg_TickRate_Hz);
 135              		.loc 1 191 0
 136 000c 064B     		ldr	r3, .L6
 137 000e 1B68     		ldr	r3, [r3]
 138 0010 7A68     		ldr	r2, [r7, #4]
 139 0012 B2FBF3F3 		udiv	r3, r2, r3
 140 0016 3B60     		str	r3, [r7]
 192:..\..\BSP/bsp.c **** #else
 193:..\..\BSP/bsp.c ****     cnts         = (cpu_clk_freq / OS_TICKS_PER_SEC);
 194:..\..\BSP/bsp.c **** #endif
 195:..\..\BSP/bsp.c ****     OS_CPU_SysTickInit(cnts);                                     /* Init uC/OS periodic time src (
 141              		.loc 1 195 0
 142 0018 3868     		ldr	r0, [r7]
 143 001a FFF7FEFF 		bl	OS_CPU_SysTickInit
 196:..\..\BSP/bsp.c ****     
 197:..\..\BSP/bsp.c **** }
 144              		.loc 1 197 0
 145 001e 00BF     		nop
ARM GAS  C:\Users\alex\AppData\Local\Temp\cciAm60H.s 			page 7


 146 0020 0837     		adds	r7, r7, #8
 147              		.cfi_def_cfa_offset 8
 148 0022 BD46     		mov	sp, r7
 149              		.cfi_def_cfa_register 13
 150              		@ sp needed
 151 0024 80BD     		pop	{r7, pc}
 152              	.L7:
 153 0026 00BF     		.align	2
 154              	.L6:
 155 0028 00000000 		.word	OSCfg_TickRate_Hz
 156              		.cfi_endproc
 157              	.LFE2:
 158              		.size	BSP_CPU_TickInit, .-BSP_CPU_TickInit
 159              		.section	.text.BSP_CPU_ClkFreq,"ax",%progbits
 160              		.align	2
 161              		.global	BSP_CPU_ClkFreq
 162              		.thumb
 163              		.thumb_func
 164              		.type	BSP_CPU_ClkFreq, %function
 165              	BSP_CPU_ClkFreq:
 166              	.LFB3:
 198:..\..\BSP/bsp.c **** 
 199:..\..\BSP/bsp.c **** /*
 200:..\..\BSP/bsp.c **** ***************************************************************************************************
 201:..\..\BSP/bsp.c **** *                                            BSP_CPU_ClkFreq()
 202:..\..\BSP/bsp.c **** *
 203:..\..\BSP/bsp.c **** * Description : Read CPU registers to determine the CPU clock frequency of the chip.
 204:..\..\BSP/bsp.c **** *
 205:..\..\BSP/bsp.c **** * Argument(s) : none.
 206:..\..\BSP/bsp.c **** *
 207:..\..\BSP/bsp.c **** * Return(s)   : The CPU clock frequency, in Hz.
 208:..\..\BSP/bsp.c **** *
 209:..\..\BSP/bsp.c **** * Caller(s)   : Application.
 210:..\..\BSP/bsp.c **** *
 211:..\..\BSP/bsp.c **** * Note(s)     : none.
 212:..\..\BSP/bsp.c **** ***************************************************************************************************
 213:..\..\BSP/bsp.c **** */
 214:..\..\BSP/bsp.c **** 
 215:..\..\BSP/bsp.c **** CPU_INT32U  BSP_CPU_ClkFreq (void)
 216:..\..\BSP/bsp.c **** {
 167              		.loc 1 216 0
 168              		.cfi_startproc
 169              		@ args = 0, pretend = 0, frame = 0
 170              		@ frame_needed = 1, uses_anonymous_args = 0
 171              		@ link register save eliminated.
 172 0000 80B4     		push	{r7}
 173              		.cfi_def_cfa_offset 4
 174              		.cfi_offset 7, -4
 175 0002 00AF     		add	r7, sp, #0
 176              		.cfi_def_cfa_register 7
 217:..\..\BSP/bsp.c ****     return ((CPU_INT32U)BSP_PSOC_CPU_FREQ);
 177              		.loc 1 217 0
 178 0004 024B     		ldr	r3, .L10
 218:..\..\BSP/bsp.c **** }
 179              		.loc 1 218 0
 180 0006 1846     		mov	r0, r3
 181 0008 BD46     		mov	sp, r7
ARM GAS  C:\Users\alex\AppData\Local\Temp\cciAm60H.s 			page 8


 182              		.cfi_def_cfa_register 13
 183              		@ sp needed
 184 000a 80BC     		pop	{r7}
 185              		.cfi_restore 7
 186              		.cfi_def_cfa_offset 0
 187 000c 7047     		bx	lr
 188              	.L11:
 189 000e 00BF     		.align	2
 190              	.L10:
 191 0010 00879303 		.word	60000000
 192              		.cfi_endproc
 193              	.LFE3:
 194              		.size	BSP_CPU_ClkFreq, .-BSP_CPU_ClkFreq
 195              		.section	.text.BSP_LED_On,"ax",%progbits
 196              		.align	2
 197              		.global	BSP_LED_On
 198              		.thumb
 199              		.thumb_func
 200              		.type	BSP_LED_On, %function
 201              	BSP_LED_On:
 202              	.LFB4:
 219:..\..\BSP/bsp.c **** 
 220:..\..\BSP/bsp.c **** 
 221:..\..\BSP/bsp.c **** /*
 222:..\..\BSP/bsp.c **** ***************************************************************************************************
 223:..\..\BSP/bsp.c **** ***************************************************************************************************
 224:..\..\BSP/bsp.c **** *                                              LED FUNCTIONS
 225:..\..\BSP/bsp.c **** ***************************************************************************************************
 226:..\..\BSP/bsp.c **** ***************************************************************************************************
 227:..\..\BSP/bsp.c **** */
 228:..\..\BSP/bsp.c **** 
 229:..\..\BSP/bsp.c **** 
 230:..\..\BSP/bsp.c **** /*
 231:..\..\BSP/bsp.c **** ***************************************************************************************************
 232:..\..\BSP/bsp.c **** *                                             BSP_LED_On()
 233:..\..\BSP/bsp.c **** *
 234:..\..\BSP/bsp.c **** * Description : Turn ON any or all the LEDs on the board.
 235:..\..\BSP/bsp.c **** *
 236:..\..\BSP/bsp.c **** * Argument(s) : led     The ID of the LED to control:
 237:..\..\BSP/bsp.c **** *
 238:..\..\BSP/bsp.c **** *                       0    turns ON ALL the LEDs
 239:..\..\BSP/bsp.c **** *                       1    turns ON user LED1  on the board
 240:..\..\BSP/bsp.c **** *                       2    turns ON user LED2  on the board
 241:..\..\BSP/bsp.c **** *                       3    turns ON user LED3  on the board
 242:..\..\BSP/bsp.c **** *
 243:..\..\BSP/bsp.c **** * Return(s)   : none.
 244:..\..\BSP/bsp.c **** *
 245:..\..\BSP/bsp.c **** * Caller(s)   : Application.
 246:..\..\BSP/bsp.c **** *
 247:..\..\BSP/bsp.c **** * Note(s)     : none.
 248:..\..\BSP/bsp.c **** ***************************************************************************************************
 249:..\..\BSP/bsp.c **** */
 250:..\..\BSP/bsp.c **** 
 251:..\..\BSP/bsp.c **** void  BSP_LED_On (CPU_INT08U led)
 252:..\..\BSP/bsp.c **** {
 203              		.loc 1 252 0
 204              		.cfi_startproc
ARM GAS  C:\Users\alex\AppData\Local\Temp\cciAm60H.s 			page 9


 205              		@ args = 0, pretend = 0, frame = 8
 206              		@ frame_needed = 1, uses_anonymous_args = 0
 207 0000 80B5     		push	{r7, lr}
 208              		.cfi_def_cfa_offset 8
 209              		.cfi_offset 7, -8
 210              		.cfi_offset 14, -4
 211 0002 82B0     		sub	sp, sp, #8
 212              		.cfi_def_cfa_offset 16
 213 0004 00AF     		add	r7, sp, #0
 214              		.cfi_def_cfa_register 7
 215 0006 0346     		mov	r3, r0
 216 0008 FB71     		strb	r3, [r7, #7]
 253:..\..\BSP/bsp.c ****     switch (led) {
 217              		.loc 1 253 0
 218 000a FB79     		ldrb	r3, [r7, #7]	@ zero_extendqisi2
 219 000c 042B     		cmp	r3, #4
 220 000e 3AD8     		bhi	.L19
 221 0010 01A2     		adr	r2, .L15
 222 0012 52F823F0 		ldr	pc, [r2, r3, lsl #2]
 223 0016 00BF     		.p2align 2
 224              	.L15:
 225 0018 2D000000 		.word	.L14+1
 226 001c 4B000000 		.word	.L16+1
 227 0020 4B000000 		.word	.L16+1
 228 0024 4B000000 		.word	.L16+1
 229 0028 69000000 		.word	.L17+1
 230              		.p2align 1
 231              	.L14:
 232              	.LBB2:
 254:..\..\BSP/bsp.c ****         case 0:
 255:..\..\BSP/bsp.c ****              LED_REG_VAL = LED_Status_Read();                   /* LED_Status Signifies the given n
 233              		.loc 1 255 0
 234 002c FFF7FEFF 		bl	LED_Status_Read
 235 0030 0346     		mov	r3, r0
 236 0032 DAB2     		uxtb	r2, r3
 237 0034 164B     		ldr	r3, .L20
 238 0036 1A70     		strb	r2, [r3]
 256:..\..\BSP/bsp.c ****              LED_Status_Write(LED_REG_VAL | ALL_LED);           /* the Control Register controlling
 239              		.loc 1 256 0
 240 0038 154B     		ldr	r3, .L20
 241 003a 1B78     		ldrb	r3, [r3]	@ zero_extendqisi2
 242 003c 43F00303 		orr	r3, r3, #3
 243 0040 DBB2     		uxtb	r3, r3
 244 0042 1846     		mov	r0, r3
 245 0044 FFF7FEFF 		bl	LED_Status_Write
 257:..\..\BSP/bsp.c ****              break;
 246              		.loc 1 257 0
 247 0048 1EE0     		b	.L18
 248              	.L16:
 258:..\..\BSP/bsp.c ****             
 259:..\..\BSP/bsp.c ****         case 1:
 260:..\..\BSP/bsp.c ****         case 2:
 261:..\..\BSP/bsp.c ****         case 3:
 262:..\..\BSP/bsp.c ****              LED_REG_VAL = LED_Status_Read();
 249              		.loc 1 262 0
 250 004a FFF7FEFF 		bl	LED_Status_Read
 251 004e 0346     		mov	r3, r0
ARM GAS  C:\Users\alex\AppData\Local\Temp\cciAm60H.s 			page 10


 252 0050 DAB2     		uxtb	r2, r3
 253 0052 0F4B     		ldr	r3, .L20
 254 0054 1A70     		strb	r2, [r3]
 263:..\..\BSP/bsp.c ****              LED_Status_Write(LED_REG_VAL | LED_3);
 255              		.loc 1 263 0
 256 0056 0E4B     		ldr	r3, .L20
 257 0058 1B78     		ldrb	r3, [r3]	@ zero_extendqisi2
 258 005a 43F00103 		orr	r3, r3, #1
 259 005e DBB2     		uxtb	r3, r3
 260 0060 1846     		mov	r0, r3
 261 0062 FFF7FEFF 		bl	LED_Status_Write
 264:..\..\BSP/bsp.c ****              break;
 262              		.loc 1 264 0
 263 0066 0FE0     		b	.L18
 264              	.L17:
 265:..\..\BSP/bsp.c ****              
 266:..\..\BSP/bsp.c ****              
 267:..\..\BSP/bsp.c ****         case 4:
 268:..\..\BSP/bsp.c ****              LED_REG_VAL = LED_Status_Read();
 265              		.loc 1 268 0
 266 0068 FFF7FEFF 		bl	LED_Status_Read
 267 006c 0346     		mov	r3, r0
 268 006e DAB2     		uxtb	r2, r3
 269 0070 074B     		ldr	r3, .L20
 270 0072 1A70     		strb	r2, [r3]
 269:..\..\BSP/bsp.c ****              LED_Status_Write(LED_REG_VAL | LED_4);
 271              		.loc 1 269 0
 272 0074 064B     		ldr	r3, .L20
 273 0076 1B78     		ldrb	r3, [r3]	@ zero_extendqisi2
 274 0078 43F00203 		orr	r3, r3, #2
 275 007c DBB2     		uxtb	r3, r3
 276 007e 1846     		mov	r0, r3
 277 0080 FFF7FEFF 		bl	LED_Status_Write
 270:..\..\BSP/bsp.c ****              break;
 278              		.loc 1 270 0
 279 0084 00E0     		b	.L18
 280              	.L19:
 271:..\..\BSP/bsp.c **** 
 272:..\..\BSP/bsp.c **** 
 273:..\..\BSP/bsp.c ****         default:
 274:..\..\BSP/bsp.c ****              break;
 281              		.loc 1 274 0
 282 0086 00BF     		nop
 283              	.L18:
 284              	.LBE2:
 275:..\..\BSP/bsp.c ****     }
 276:..\..\BSP/bsp.c **** }
 285              		.loc 1 276 0
 286 0088 00BF     		nop
 287 008a 0837     		adds	r7, r7, #8
 288              		.cfi_def_cfa_offset 8
 289 008c BD46     		mov	sp, r7
 290              		.cfi_def_cfa_register 13
 291              		@ sp needed
 292 008e 80BD     		pop	{r7, pc}
 293              	.L21:
 294              		.align	2
ARM GAS  C:\Users\alex\AppData\Local\Temp\cciAm60H.s 			page 11


 295              	.L20:
 296 0090 00000000 		.word	LED_REG_VAL
 297              		.cfi_endproc
 298              	.LFE4:
 299              		.size	BSP_LED_On, .-BSP_LED_On
 300              		.section	.text.BSP_LED_Off,"ax",%progbits
 301              		.align	2
 302              		.global	BSP_LED_Off
 303              		.thumb
 304              		.thumb_func
 305              		.type	BSP_LED_Off, %function
 306              	BSP_LED_Off:
 307              	.LFB5:
 277:..\..\BSP/bsp.c **** 
 278:..\..\BSP/bsp.c **** 
 279:..\..\BSP/bsp.c **** /*
 280:..\..\BSP/bsp.c **** ***************************************************************************************************
 281:..\..\BSP/bsp.c **** *                                              BSP_LED_Off()
 282:..\..\BSP/bsp.c **** *
 283:..\..\BSP/bsp.c **** * Description : Turn OFF any or all the LEDs on the board.
 284:..\..\BSP/bsp.c **** *
 285:..\..\BSP/bsp.c **** * Argument(s) : led     The ID of the LED to control:
 286:..\..\BSP/bsp.c **** *
 287:..\..\BSP/bsp.c **** *                       0    turns OFF ALL the LEDs
 288:..\..\BSP/bsp.c **** *                       1    turns OFF user LED1  on the board
 289:..\..\BSP/bsp.c **** *                       2    turns OFF user LED2  on the board
 290:..\..\BSP/bsp.c **** *                       3    turns OFF user LED3  on the board
 291:..\..\BSP/bsp.c **** *
 292:..\..\BSP/bsp.c **** * Return(s)   : none.
 293:..\..\BSP/bsp.c **** *
 294:..\..\BSP/bsp.c **** * Caller(s)   : Application.
 295:..\..\BSP/bsp.c **** *
 296:..\..\BSP/bsp.c **** * Note(s)     : none.
 297:..\..\BSP/bsp.c **** ***************************************************************************************************
 298:..\..\BSP/bsp.c **** */
 299:..\..\BSP/bsp.c **** 
 300:..\..\BSP/bsp.c **** void  BSP_LED_Off (CPU_INT08U led)
 301:..\..\BSP/bsp.c **** {
 308              		.loc 1 301 0
 309              		.cfi_startproc
 310              		@ args = 0, pretend = 0, frame = 8
 311              		@ frame_needed = 1, uses_anonymous_args = 0
 312 0000 80B5     		push	{r7, lr}
 313              		.cfi_def_cfa_offset 8
 314              		.cfi_offset 7, -8
 315              		.cfi_offset 14, -4
 316 0002 82B0     		sub	sp, sp, #8
 317              		.cfi_def_cfa_offset 16
 318 0004 00AF     		add	r7, sp, #0
 319              		.cfi_def_cfa_register 7
 320 0006 0346     		mov	r3, r0
 321 0008 FB71     		strb	r3, [r7, #7]
 302:..\..\BSP/bsp.c ****         switch (led) {
 322              		.loc 1 302 0
 323 000a FB79     		ldrb	r3, [r7, #7]	@ zero_extendqisi2
 324 000c 042B     		cmp	r3, #4
 325 000e 37D8     		bhi	.L29
ARM GAS  C:\Users\alex\AppData\Local\Temp\cciAm60H.s 			page 12


 326 0010 01A2     		adr	r2, .L25
 327 0012 52F823F0 		ldr	pc, [r2, r3, lsl #2]
 328 0016 00BF     		.p2align 2
 329              	.L25:
 330 0018 2D000000 		.word	.L24+1
 331 001c 49000000 		.word	.L26+1
 332 0020 49000000 		.word	.L26+1
 333 0024 49000000 		.word	.L26+1
 334 0028 65000000 		.word	.L27+1
 335              		.p2align 1
 336              	.L24:
 337              	.LBB3:
 303:..\..\BSP/bsp.c ****         case 0:
 304:..\..\BSP/bsp.c ****              LED_REG_VAL = LED_Status_Read();                   /* LED_Status Signifies the given n
 338              		.loc 1 304 0
 339 002c FFF7FEFF 		bl	LED_Status_Read
 340 0030 0346     		mov	r3, r0
 341 0032 DAB2     		uxtb	r2, r3
 342 0034 154B     		ldr	r3, .L30
 343 0036 1A70     		strb	r2, [r3]
 305:..\..\BSP/bsp.c ****              LED_Status_Write(LED_REG_VAL & ~ALL_LED);          /* the Control Register controlling
 344              		.loc 1 305 0
 345 0038 144B     		ldr	r3, .L30
 346 003a 1B78     		ldrb	r3, [r3]	@ zero_extendqisi2
 347 003c 23F00303 		bic	r3, r3, #3
 348 0040 1846     		mov	r0, r3
 349 0042 FFF7FEFF 		bl	LED_Status_Write
 306:..\..\BSP/bsp.c ****              break;
 350              		.loc 1 306 0
 351 0046 1CE0     		b	.L28
 352              	.L26:
 307:..\..\BSP/bsp.c ****             
 308:..\..\BSP/bsp.c ****         case 1:
 309:..\..\BSP/bsp.c ****         case 2:
 310:..\..\BSP/bsp.c ****         case 3:
 311:..\..\BSP/bsp.c ****              LED_REG_VAL = LED_Status_Read();
 353              		.loc 1 311 0
 354 0048 FFF7FEFF 		bl	LED_Status_Read
 355 004c 0346     		mov	r3, r0
 356 004e DAB2     		uxtb	r2, r3
 357 0050 0E4B     		ldr	r3, .L30
 358 0052 1A70     		strb	r2, [r3]
 312:..\..\BSP/bsp.c ****              LED_Status_Write(LED_REG_VAL & ~LED_3);
 359              		.loc 1 312 0
 360 0054 0D4B     		ldr	r3, .L30
 361 0056 1B78     		ldrb	r3, [r3]	@ zero_extendqisi2
 362 0058 23F00103 		bic	r3, r3, #1
 363 005c 1846     		mov	r0, r3
 364 005e FFF7FEFF 		bl	LED_Status_Write
 313:..\..\BSP/bsp.c ****              break;
 365              		.loc 1 313 0
 366 0062 0EE0     		b	.L28
 367              	.L27:
 314:..\..\BSP/bsp.c ****              
 315:..\..\BSP/bsp.c ****              
 316:..\..\BSP/bsp.c ****         case 4:
 317:..\..\BSP/bsp.c ****              LED_REG_VAL = LED_Status_Read();
ARM GAS  C:\Users\alex\AppData\Local\Temp\cciAm60H.s 			page 13


 368              		.loc 1 317 0
 369 0064 FFF7FEFF 		bl	LED_Status_Read
 370 0068 0346     		mov	r3, r0
 371 006a DAB2     		uxtb	r2, r3
 372 006c 074B     		ldr	r3, .L30
 373 006e 1A70     		strb	r2, [r3]
 318:..\..\BSP/bsp.c ****              LED_Status_Write(LED_REG_VAL & ~LED_4);
 374              		.loc 1 318 0
 375 0070 064B     		ldr	r3, .L30
 376 0072 1B78     		ldrb	r3, [r3]	@ zero_extendqisi2
 377 0074 23F00203 		bic	r3, r3, #2
 378 0078 1846     		mov	r0, r3
 379 007a FFF7FEFF 		bl	LED_Status_Write
 319:..\..\BSP/bsp.c ****              break;
 380              		.loc 1 319 0
 381 007e 00E0     		b	.L28
 382              	.L29:
 320:..\..\BSP/bsp.c **** 
 321:..\..\BSP/bsp.c **** 
 322:..\..\BSP/bsp.c ****         default:
 323:..\..\BSP/bsp.c ****              break;
 383              		.loc 1 323 0
 384 0080 00BF     		nop
 385              	.L28:
 386              	.LBE3:
 324:..\..\BSP/bsp.c ****     }
 325:..\..\BSP/bsp.c **** }
 387              		.loc 1 325 0
 388 0082 00BF     		nop
 389 0084 0837     		adds	r7, r7, #8
 390              		.cfi_def_cfa_offset 8
 391 0086 BD46     		mov	sp, r7
 392              		.cfi_def_cfa_register 13
 393              		@ sp needed
 394 0088 80BD     		pop	{r7, pc}
 395              	.L31:
 396 008a 00BF     		.align	2
 397              	.L30:
 398 008c 00000000 		.word	LED_REG_VAL
 399              		.cfi_endproc
 400              	.LFE5:
 401              		.size	BSP_LED_Off, .-BSP_LED_Off
 402              		.section	.text.BSP_LED_Toggle,"ax",%progbits
 403              		.align	2
 404              		.global	BSP_LED_Toggle
 405              		.thumb
 406              		.thumb_func
 407              		.type	BSP_LED_Toggle, %function
 408              	BSP_LED_Toggle:
 409              	.LFB6:
 326:..\..\BSP/bsp.c **** 
 327:..\..\BSP/bsp.c **** 
 328:..\..\BSP/bsp.c **** /*
 329:..\..\BSP/bsp.c **** ***************************************************************************************************
 330:..\..\BSP/bsp.c **** *                                            BSP_LED_Toggle()
 331:..\..\BSP/bsp.c **** *
 332:..\..\BSP/bsp.c **** * Description : TOGGLE any or all the LEDs on the board.
ARM GAS  C:\Users\alex\AppData\Local\Temp\cciAm60H.s 			page 14


 333:..\..\BSP/bsp.c **** *
 334:..\..\BSP/bsp.c **** * Argument(s) : led     The ID of the LED to control:
 335:..\..\BSP/bsp.c **** *
 336:..\..\BSP/bsp.c **** *                       0    TOGGLE ALL the LEDs
 337:..\..\BSP/bsp.c **** *                       1    TOGGLE user LED1  on the board
 338:..\..\BSP/bsp.c **** *                       2    TOGGLE user LED2  on the board
 339:..\..\BSP/bsp.c **** *                       3    TOGGLE user LED3  on the board
 340:..\..\BSP/bsp.c **** *
 341:..\..\BSP/bsp.c **** * Return(s)   : none.
 342:..\..\BSP/bsp.c **** *
 343:..\..\BSP/bsp.c **** * Caller(s)   : Application.
 344:..\..\BSP/bsp.c **** *
 345:..\..\BSP/bsp.c **** * Note(s)     : none.
 346:..\..\BSP/bsp.c **** ***************************************************************************************************
 347:..\..\BSP/bsp.c **** */
 348:..\..\BSP/bsp.c **** 
 349:..\..\BSP/bsp.c **** void  BSP_LED_Toggle (CPU_INT08U led)
 350:..\..\BSP/bsp.c **** {
 410              		.loc 1 350 0
 411              		.cfi_startproc
 412              		@ args = 0, pretend = 0, frame = 8
 413              		@ frame_needed = 1, uses_anonymous_args = 0
 414 0000 80B5     		push	{r7, lr}
 415              		.cfi_def_cfa_offset 8
 416              		.cfi_offset 7, -8
 417              		.cfi_offset 14, -4
 418 0002 82B0     		sub	sp, sp, #8
 419              		.cfi_def_cfa_offset 16
 420 0004 00AF     		add	r7, sp, #0
 421              		.cfi_def_cfa_register 7
 422 0006 0346     		mov	r3, r0
 423 0008 FB71     		strb	r3, [r7, #7]
 351:..\..\BSP/bsp.c ****         switch (led) {
 424              		.loc 1 351 0
 425 000a FB79     		ldrb	r3, [r7, #7]	@ zero_extendqisi2
 426 000c 042B     		cmp	r3, #4
 427 000e 3AD8     		bhi	.L39
 428 0010 01A2     		adr	r2, .L35
 429 0012 52F823F0 		ldr	pc, [r2, r3, lsl #2]
 430 0016 00BF     		.p2align 2
 431              	.L35:
 432 0018 2D000000 		.word	.L34+1
 433 001c 4B000000 		.word	.L36+1
 434 0020 4B000000 		.word	.L36+1
 435 0024 4B000000 		.word	.L36+1
 436 0028 69000000 		.word	.L37+1
 437              		.p2align 1
 438              	.L34:
 439              	.LBB4:
 352:..\..\BSP/bsp.c ****         case 0:
 353:..\..\BSP/bsp.c ****              LED_REG_VAL = LED_Status_Read();                   /* LED_Status Signifies the given n
 440              		.loc 1 353 0
 441 002c FFF7FEFF 		bl	LED_Status_Read
 442 0030 0346     		mov	r3, r0
 443 0032 DAB2     		uxtb	r2, r3
 444 0034 164B     		ldr	r3, .L40
 445 0036 1A70     		strb	r2, [r3]
ARM GAS  C:\Users\alex\AppData\Local\Temp\cciAm60H.s 			page 15


 354:..\..\BSP/bsp.c ****              LED_Status_Write(LED_REG_VAL ^ ALL_LED);           /* the Control Register controlling
 446              		.loc 1 354 0
 447 0038 154B     		ldr	r3, .L40
 448 003a 1B78     		ldrb	r3, [r3]	@ zero_extendqisi2
 449 003c 83F00303 		eor	r3, r3, #3
 450 0040 DBB2     		uxtb	r3, r3
 451 0042 1846     		mov	r0, r3
 452 0044 FFF7FEFF 		bl	LED_Status_Write
 355:..\..\BSP/bsp.c ****              break;                                             
 453              		.loc 1 355 0
 454 0048 1EE0     		b	.L38
 455              	.L36:
 356:..\..\BSP/bsp.c ****             
 357:..\..\BSP/bsp.c ****         case 1:
 358:..\..\BSP/bsp.c ****         case 2:
 359:..\..\BSP/bsp.c ****         case 3:
 360:..\..\BSP/bsp.c ****              LED_REG_VAL = LED_Status_Read();
 456              		.loc 1 360 0
 457 004a FFF7FEFF 		bl	LED_Status_Read
 458 004e 0346     		mov	r3, r0
 459 0050 DAB2     		uxtb	r2, r3
 460 0052 0F4B     		ldr	r3, .L40
 461 0054 1A70     		strb	r2, [r3]
 361:..\..\BSP/bsp.c ****              LED_Status_Write(LED_REG_VAL ^ LED_3);
 462              		.loc 1 361 0
 463 0056 0E4B     		ldr	r3, .L40
 464 0058 1B78     		ldrb	r3, [r3]	@ zero_extendqisi2
 465 005a 83F00103 		eor	r3, r3, #1
 466 005e DBB2     		uxtb	r3, r3
 467 0060 1846     		mov	r0, r3
 468 0062 FFF7FEFF 		bl	LED_Status_Write
 362:..\..\BSP/bsp.c ****              break;
 469              		.loc 1 362 0
 470 0066 0FE0     		b	.L38
 471              	.L37:
 363:..\..\BSP/bsp.c ****              
 364:..\..\BSP/bsp.c ****              
 365:..\..\BSP/bsp.c ****         case 4:
 366:..\..\BSP/bsp.c ****              LED_REG_VAL = LED_Status_Read();
 472              		.loc 1 366 0
 473 0068 FFF7FEFF 		bl	LED_Status_Read
 474 006c 0346     		mov	r3, r0
 475 006e DAB2     		uxtb	r2, r3
 476 0070 074B     		ldr	r3, .L40
 477 0072 1A70     		strb	r2, [r3]
 367:..\..\BSP/bsp.c ****              LED_Status_Write(LED_REG_VAL ^ LED_4);
 478              		.loc 1 367 0
 479 0074 064B     		ldr	r3, .L40
 480 0076 1B78     		ldrb	r3, [r3]	@ zero_extendqisi2
 481 0078 83F00203 		eor	r3, r3, #2
 482 007c DBB2     		uxtb	r3, r3
 483 007e 1846     		mov	r0, r3
 484 0080 FFF7FEFF 		bl	LED_Status_Write
 368:..\..\BSP/bsp.c ****              break;
 485              		.loc 1 368 0
 486 0084 00E0     		b	.L38
 487              	.L39:
ARM GAS  C:\Users\alex\AppData\Local\Temp\cciAm60H.s 			page 16


 369:..\..\BSP/bsp.c **** 
 370:..\..\BSP/bsp.c **** 
 371:..\..\BSP/bsp.c ****         default:
 372:..\..\BSP/bsp.c ****              break;
 488              		.loc 1 372 0
 489 0086 00BF     		nop
 490              	.L38:
 491              	.LBE4:
 373:..\..\BSP/bsp.c ****     }
 374:..\..\BSP/bsp.c **** }
 492              		.loc 1 374 0
 493 0088 00BF     		nop
 494 008a 0837     		adds	r7, r7, #8
 495              		.cfi_def_cfa_offset 8
 496 008c BD46     		mov	sp, r7
 497              		.cfi_def_cfa_register 13
 498              		@ sp needed
 499 008e 80BD     		pop	{r7, pc}
 500              	.L41:
 501              		.align	2
 502              	.L40:
 503 0090 00000000 		.word	LED_REG_VAL
 504              		.cfi_endproc
 505              	.LFE6:
 506              		.size	BSP_LED_Toggle, .-BSP_LED_Toggle
 507              		.section	.text.BSP_PB_StatusGet,"ax",%progbits
 508              		.align	2
 509              		.global	BSP_PB_StatusGet
 510              		.thumb
 511              		.thumb_func
 512              		.type	BSP_PB_StatusGet, %function
 513              	BSP_PB_StatusGet:
 514              	.LFB7:
 375:..\..\BSP/bsp.c **** 
 376:..\..\BSP/bsp.c **** 
 377:..\..\BSP/bsp.c **** /*
 378:..\..\BSP/bsp.c **** ***************************************************************************************************
 379:..\..\BSP/bsp.c **** *                                            BSP_PB_StatusGet()
 380:..\..\BSP/bsp.c **** *
 381:..\..\BSP/bsp.c **** * Description : Get the current status of the push buttons.
 382:..\..\BSP/bsp.c **** *
 383:..\..\BSP/bsp.c **** * Argument(s) : pb    Push button identifier.
 384:..\..\BSP/bsp.c **** *
 385:..\..\BSP/bsp.c **** *                           1 Board SW1
 386:..\..\BSP/bsp.c **** *                           2 Board SW2
 387:..\..\BSP/bsp.c **** *
 388:..\..\BSP/bsp.c **** * Return(s)   : DEF_ON    If the push button is pressed.
 389:..\..\BSP/bsp.c **** *               DEF_OFF,  otherwise
 390:..\..\BSP/bsp.c **** *
 391:..\..\BSP/bsp.c **** * Caller(s)   : application
 392:..\..\BSP/bsp.c **** *
 393:..\..\BSP/bsp.c **** * Note(s)     : none.
 394:..\..\BSP/bsp.c **** ***************************************************************************************************
 395:..\..\BSP/bsp.c **** */
 396:..\..\BSP/bsp.c **** 
 397:..\..\BSP/bsp.c **** CPU_BOOLEAN  BSP_PB_StatusGet (CPU_INT08U  pb)
 398:..\..\BSP/bsp.c **** {
ARM GAS  C:\Users\alex\AppData\Local\Temp\cciAm60H.s 			page 17


 515              		.loc 1 398 0
 516              		.cfi_startproc
 517              		@ args = 0, pretend = 0, frame = 16
 518              		@ frame_needed = 1, uses_anonymous_args = 0
 519 0000 80B5     		push	{r7, lr}
 520              		.cfi_def_cfa_offset 8
 521              		.cfi_offset 7, -8
 522              		.cfi_offset 14, -4
 523 0002 84B0     		sub	sp, sp, #16
 524              		.cfi_def_cfa_offset 24
 525 0004 00AF     		add	r7, sp, #0
 526              		.cfi_def_cfa_register 7
 527 0006 0346     		mov	r3, r0
 528 0008 FB71     		strb	r3, [r7, #7]
 399:..\..\BSP/bsp.c ****     CPU_INT08U    reg_val;
 400:..\..\BSP/bsp.c ****     CPU_BOOLEAN   pb_status;
 401:..\..\BSP/bsp.c **** 
 402:..\..\BSP/bsp.c **** 
 403:..\..\BSP/bsp.c ****     //reg_val   = BSP_PSOC_PB_RD();
 404:..\..\BSP/bsp.c ****     pb_status = DEF_OFF;
 529              		.loc 1 404 0
 530 000a 0023     		movs	r3, #0
 531 000c FB73     		strb	r3, [r7, #15]
 405:..\..\BSP/bsp.c **** 
 406:..\..\BSP/bsp.c ****     switch (pb) {
 532              		.loc 1 406 0
 533 000e FB79     		ldrb	r3, [r7, #7]	@ zero_extendqisi2
 534 0010 022B     		cmp	r3, #2
 535 0012 02D0     		beq	.L44
 536 0014 032B     		cmp	r3, #3
 537 0016 0ED0     		beq	.L45
 538              	.LBB5:
 407:..\..\BSP/bsp.c ****         case 2u:
 408:..\..\BSP/bsp.c ****              reg_val   = BSP_PSOC_PB_2_RD();
 409:..\..\BSP/bsp.c ****              pb_status = DEF_BIT_IS_CLR(reg_val, DEF_BIT_00);
 410:..\..\BSP/bsp.c ****              break;
 411:..\..\BSP/bsp.c ****              
 412:..\..\BSP/bsp.c ****         case 3u:
 413:..\..\BSP/bsp.c ****              reg_val   = BSP_PSOC_PB_3_RD();
 414:..\..\BSP/bsp.c ****              pb_status = DEF_BIT_IS_CLR(reg_val, DEF_BIT_00);
 415:..\..\BSP/bsp.c ****              break;
 416:..\..\BSP/bsp.c **** 
 417:..\..\BSP/bsp.c ****         default:
 418:..\..\BSP/bsp.c ****              break;
 539              		.loc 1 418 0
 540 0018 1BE0     		b	.L48
 541              	.L44:
 408:..\..\BSP/bsp.c ****              pb_status = DEF_BIT_IS_CLR(reg_val, DEF_BIT_00);
 542              		.loc 1 408 0
 543 001a FFF7FEFF 		bl	PB_2_Read
 544 001e 0346     		mov	r3, r0
 545 0020 BB73     		strb	r3, [r7, #14]
 409:..\..\BSP/bsp.c ****              break;
 546              		.loc 1 409 0
 547 0022 BB7B     		ldrb	r3, [r7, #14]	@ zero_extendqisi2
 548 0024 03F00103 		and	r3, r3, #1
 549 0028 002B     		cmp	r3, #0
ARM GAS  C:\Users\alex\AppData\Local\Temp\cciAm60H.s 			page 18


 550 002a 01D1     		bne	.L46
 409:..\..\BSP/bsp.c ****              break;
 551              		.loc 1 409 0 is_stmt 0 discriminator 1
 552 002c 0123     		movs	r3, #1
 553 002e 00E0     		b	.L47
 554              	.L46:
 409:..\..\BSP/bsp.c ****              break;
 555              		.loc 1 409 0 discriminator 2
 556 0030 0023     		movs	r3, #0
 557              	.L47:
 409:..\..\BSP/bsp.c ****              break;
 558              		.loc 1 409 0 discriminator 4
 559 0032 FB73     		strb	r3, [r7, #15]
 410:..\..\BSP/bsp.c ****              
 560              		.loc 1 410 0 is_stmt 1 discriminator 4
 561 0034 0DE0     		b	.L48
 562              	.L45:
 413:..\..\BSP/bsp.c ****              pb_status = DEF_BIT_IS_CLR(reg_val, DEF_BIT_00);
 563              		.loc 1 413 0
 564 0036 FFF7FEFF 		bl	PB_3_Read
 565 003a 0346     		mov	r3, r0
 566 003c BB73     		strb	r3, [r7, #14]
 414:..\..\BSP/bsp.c ****              break;
 567              		.loc 1 414 0
 568 003e BB7B     		ldrb	r3, [r7, #14]	@ zero_extendqisi2
 569 0040 03F00103 		and	r3, r3, #1
 570 0044 002B     		cmp	r3, #0
 571 0046 01D1     		bne	.L49
 414:..\..\BSP/bsp.c ****              break;
 572              		.loc 1 414 0 is_stmt 0 discriminator 1
 573 0048 0123     		movs	r3, #1
 574 004a 00E0     		b	.L50
 575              	.L49:
 414:..\..\BSP/bsp.c ****              break;
 576              		.loc 1 414 0 discriminator 2
 577 004c 0023     		movs	r3, #0
 578              	.L50:
 414:..\..\BSP/bsp.c ****              break;
 579              		.loc 1 414 0 discriminator 4
 580 004e FB73     		strb	r3, [r7, #15]
 415:..\..\BSP/bsp.c **** 
 581              		.loc 1 415 0 is_stmt 1 discriminator 4
 582 0050 00BF     		nop
 583              	.L48:
 584              	.LBE5:
 419:..\..\BSP/bsp.c ****     }
 420:..\..\BSP/bsp.c **** 
 421:..\..\BSP/bsp.c ****     return (pb_status);
 585              		.loc 1 421 0
 586 0052 FB7B     		ldrb	r3, [r7, #15]	@ zero_extendqisi2
 422:..\..\BSP/bsp.c **** }
 587              		.loc 1 422 0
 588 0054 1846     		mov	r0, r3
 589 0056 1037     		adds	r7, r7, #16
 590              		.cfi_def_cfa_offset 8
 591 0058 BD46     		mov	sp, r7
 592              		.cfi_def_cfa_register 13
ARM GAS  C:\Users\alex\AppData\Local\Temp\cciAm60H.s 			page 19


 593              		@ sp needed
 594 005a 80BD     		pop	{r7, pc}
 595              		.cfi_endproc
 596              	.LFE7:
 597              		.size	BSP_PB_StatusGet, .-BSP_PB_StatusGet
 598              		.text
 599              	.Letext0:
 600              		.file 2 "..\\..\\..\\..\\..\\..\\uC-CPU\\ARM-Cortex-M3\\GNU/cpu.h"
 601              		.file 3 "..\\..\\..\\..\\..\\..\\uCOS-III\\Source/os_type.h"
 602              		.file 4 "..\\..\\..\\..\\..\\..\\uCOS-III\\Source/os.h"