ARM GAS  C:\Users\alex\AppData\Local\Temp\ccSBLcnl.s 			page 1


   1              		.syntax unified
   2              		.cpu cortex-m3
   3              		.fpu softvfp
   4              		.eabi_attribute 20, 1
   5              		.eabi_attribute 21, 1
   6              		.eabi_attribute 23, 3
   7              		.eabi_attribute 24, 1
   8              		.eabi_attribute 25, 1
   9              		.eabi_attribute 26, 1
  10              		.eabi_attribute 30, 6
  11              		.eabi_attribute 34, 1
  12              		.eabi_attribute 18, 4
  13              		.thumb
  14              		.syntax unified
  15              		.file	"cpu_core.c"
  16              		.text
  17              	.Ltext0:
  18              		.cfi_sections	.debug_frame
  19              		.comm	CPU_Name,16,4
  20              		.comm	CPU_TS_TmrFreq_Hz,4,4
  21              		.section	.rodata
  22              		.align	2
  23              		.type	CPU_CntLeadZerosTbl, %object
  24              		.size	CPU_CntLeadZerosTbl, 256
  25              	CPU_CntLeadZerosTbl:
  26 0000 08       		.byte	8
  27 0001 07       		.byte	7
  28 0002 06       		.byte	6
  29 0003 06       		.byte	6
  30 0004 05       		.byte	5
  31 0005 05       		.byte	5
  32 0006 05       		.byte	5
  33 0007 05       		.byte	5
  34 0008 04       		.byte	4
  35 0009 04       		.byte	4
  36 000a 04       		.byte	4
  37 000b 04       		.byte	4
  38 000c 04       		.byte	4
  39 000d 04       		.byte	4
  40 000e 04       		.byte	4
  41 000f 04       		.byte	4
  42 0010 03       		.byte	3
  43 0011 03       		.byte	3
  44 0012 03       		.byte	3
  45 0013 03       		.byte	3
  46 0014 03       		.byte	3
  47 0015 03       		.byte	3
  48 0016 03       		.byte	3
  49 0017 03       		.byte	3
  50 0018 03       		.byte	3
  51 0019 03       		.byte	3
  52 001a 03       		.byte	3
  53 001b 03       		.byte	3
  54 001c 03       		.byte	3
  55 001d 03       		.byte	3
  56 001e 03       		.byte	3
  57 001f 03       		.byte	3
ARM GAS  C:\Users\alex\AppData\Local\Temp\ccSBLcnl.s 			page 2


  58 0020 02       		.byte	2
  59 0021 02       		.byte	2
  60 0022 02       		.byte	2
  61 0023 02       		.byte	2
  62 0024 02       		.byte	2
  63 0025 02       		.byte	2
  64 0026 02       		.byte	2
  65 0027 02       		.byte	2
  66 0028 02       		.byte	2
  67 0029 02       		.byte	2
  68 002a 02       		.byte	2
  69 002b 02       		.byte	2
  70 002c 02       		.byte	2
  71 002d 02       		.byte	2
  72 002e 02       		.byte	2
  73 002f 02       		.byte	2
  74 0030 02       		.byte	2
  75 0031 02       		.byte	2
  76 0032 02       		.byte	2
  77 0033 02       		.byte	2
  78 0034 02       		.byte	2
  79 0035 02       		.byte	2
  80 0036 02       		.byte	2
  81 0037 02       		.byte	2
  82 0038 02       		.byte	2
  83 0039 02       		.byte	2
  84 003a 02       		.byte	2
  85 003b 02       		.byte	2
  86 003c 02       		.byte	2
  87 003d 02       		.byte	2
  88 003e 02       		.byte	2
  89 003f 02       		.byte	2
  90 0040 01       		.byte	1
  91 0041 01       		.byte	1
  92 0042 01       		.byte	1
  93 0043 01       		.byte	1
  94 0044 01       		.byte	1
  95 0045 01       		.byte	1
  96 0046 01       		.byte	1
  97 0047 01       		.byte	1
  98 0048 01       		.byte	1
  99 0049 01       		.byte	1
 100 004a 01       		.byte	1
 101 004b 01       		.byte	1
 102 004c 01       		.byte	1
 103 004d 01       		.byte	1
 104 004e 01       		.byte	1
 105 004f 01       		.byte	1
 106 0050 01       		.byte	1
 107 0051 01       		.byte	1
 108 0052 01       		.byte	1
 109 0053 01       		.byte	1
 110 0054 01       		.byte	1
 111 0055 01       		.byte	1
 112 0056 01       		.byte	1
 113 0057 01       		.byte	1
 114 0058 01       		.byte	1
ARM GAS  C:\Users\alex\AppData\Local\Temp\ccSBLcnl.s 			page 3


 115 0059 01       		.byte	1
 116 005a 01       		.byte	1
 117 005b 01       		.byte	1
 118 005c 01       		.byte	1
 119 005d 01       		.byte	1
 120 005e 01       		.byte	1
 121 005f 01       		.byte	1
 122 0060 01       		.byte	1
 123 0061 01       		.byte	1
 124 0062 01       		.byte	1
 125 0063 01       		.byte	1
 126 0064 01       		.byte	1
 127 0065 01       		.byte	1
 128 0066 01       		.byte	1
 129 0067 01       		.byte	1
 130 0068 01       		.byte	1
 131 0069 01       		.byte	1
 132 006a 01       		.byte	1
 133 006b 01       		.byte	1
 134 006c 01       		.byte	1
 135 006d 01       		.byte	1
 136 006e 01       		.byte	1
 137 006f 01       		.byte	1
 138 0070 01       		.byte	1
 139 0071 01       		.byte	1
 140 0072 01       		.byte	1
 141 0073 01       		.byte	1
 142 0074 01       		.byte	1
 143 0075 01       		.byte	1
 144 0076 01       		.byte	1
 145 0077 01       		.byte	1
 146 0078 01       		.byte	1
 147 0079 01       		.byte	1
 148 007a 01       		.byte	1
 149 007b 01       		.byte	1
 150 007c 01       		.byte	1
 151 007d 01       		.byte	1
 152 007e 01       		.byte	1
 153 007f 01       		.byte	1
 154 0080 00       		.byte	0
 155 0081 00       		.byte	0
 156 0082 00       		.byte	0
 157 0083 00       		.byte	0
 158 0084 00       		.byte	0
 159 0085 00       		.byte	0
 160 0086 00       		.byte	0
 161 0087 00       		.byte	0
 162 0088 00       		.byte	0
 163 0089 00       		.byte	0
 164 008a 00       		.byte	0
 165 008b 00       		.byte	0
 166 008c 00       		.byte	0
 167 008d 00       		.byte	0
 168 008e 00       		.byte	0
 169 008f 00       		.byte	0
 170 0090 00       		.byte	0
 171 0091 00       		.byte	0
ARM GAS  C:\Users\alex\AppData\Local\Temp\ccSBLcnl.s 			page 4


 172 0092 00       		.byte	0
 173 0093 00       		.byte	0
 174 0094 00       		.byte	0
 175 0095 00       		.byte	0
 176 0096 00       		.byte	0
 177 0097 00       		.byte	0
 178 0098 00       		.byte	0
 179 0099 00       		.byte	0
 180 009a 00       		.byte	0
 181 009b 00       		.byte	0
 182 009c 00       		.byte	0
 183 009d 00       		.byte	0
 184 009e 00       		.byte	0
 185 009f 00       		.byte	0
 186 00a0 00       		.byte	0
 187 00a1 00       		.byte	0
 188 00a2 00       		.byte	0
 189 00a3 00       		.byte	0
 190 00a4 00       		.byte	0
 191 00a5 00       		.byte	0
 192 00a6 00       		.byte	0
 193 00a7 00       		.byte	0
 194 00a8 00       		.byte	0
 195 00a9 00       		.byte	0
 196 00aa 00       		.byte	0
 197 00ab 00       		.byte	0
 198 00ac 00       		.byte	0
 199 00ad 00       		.byte	0
 200 00ae 00       		.byte	0
 201 00af 00       		.byte	0
 202 00b0 00       		.byte	0
 203 00b1 00       		.byte	0
 204 00b2 00       		.byte	0
 205 00b3 00       		.byte	0
 206 00b4 00       		.byte	0
 207 00b5 00       		.byte	0
 208 00b6 00       		.byte	0
 209 00b7 00       		.byte	0
 210 00b8 00       		.byte	0
 211 00b9 00       		.byte	0
 212 00ba 00       		.byte	0
 213 00bb 00       		.byte	0
 214 00bc 00       		.byte	0
 215 00bd 00       		.byte	0
 216 00be 00       		.byte	0
 217 00bf 00       		.byte	0
 218 00c0 00       		.byte	0
 219 00c1 00       		.byte	0
 220 00c2 00       		.byte	0
 221 00c3 00       		.byte	0
 222 00c4 00       		.byte	0
 223 00c5 00       		.byte	0
 224 00c6 00       		.byte	0
 225 00c7 00       		.byte	0
 226 00c8 00       		.byte	0
 227 00c9 00       		.byte	0
 228 00ca 00       		.byte	0
ARM GAS  C:\Users\alex\AppData\Local\Temp\ccSBLcnl.s 			page 5


 229 00cb 00       		.byte	0
 230 00cc 00       		.byte	0
 231 00cd 00       		.byte	0
 232 00ce 00       		.byte	0
 233 00cf 00       		.byte	0
 234 00d0 00       		.byte	0
 235 00d1 00       		.byte	0
 236 00d2 00       		.byte	0
 237 00d3 00       		.byte	0
 238 00d4 00       		.byte	0
 239 00d5 00       		.byte	0
 240 00d6 00       		.byte	0
 241 00d7 00       		.byte	0
 242 00d8 00       		.byte	0
 243 00d9 00       		.byte	0
 244 00da 00       		.byte	0
 245 00db 00       		.byte	0
 246 00dc 00       		.byte	0
 247 00dd 00       		.byte	0
 248 00de 00       		.byte	0
 249 00df 00       		.byte	0
 250 00e0 00       		.byte	0
 251 00e1 00       		.byte	0
 252 00e2 00       		.byte	0
 253 00e3 00       		.byte	0
 254 00e4 00       		.byte	0
 255 00e5 00       		.byte	0
 256 00e6 00       		.byte	0
 257 00e7 00       		.byte	0
 258 00e8 00       		.byte	0
 259 00e9 00       		.byte	0
 260 00ea 00       		.byte	0
 261 00eb 00       		.byte	0
 262 00ec 00       		.byte	0
 263 00ed 00       		.byte	0
 264 00ee 00       		.byte	0
 265 00ef 00       		.byte	0
 266 00f0 00       		.byte	0
 267 00f1 00       		.byte	0
 268 00f2 00       		.byte	0
 269 00f3 00       		.byte	0
 270 00f4 00       		.byte	0
 271 00f5 00       		.byte	0
 272 00f6 00       		.byte	0
 273 00f7 00       		.byte	0
 274 00f8 00       		.byte	0
 275 00f9 00       		.byte	0
 276 00fa 00       		.byte	0
 277 00fb 00       		.byte	0
 278 00fc 00       		.byte	0
 279 00fd 00       		.byte	0
 280 00fe 00       		.byte	0
 281 00ff 00       		.byte	0
 282              		.section	.text.CPU_Init,"ax",%progbits
 283              		.align	2
 284              		.global	CPU_Init
 285              		.thumb
ARM GAS  C:\Users\alex\AppData\Local\Temp\ccSBLcnl.s 			page 6


 286              		.thumb_func
 287              		.type	CPU_Init, %function
 288              	CPU_Init:
 289              	.LFB0:
 290              		.file 1 "..\\..\\..\\..\\..\\..\\uC-CPU\\cpu_core.c"
   1:..\..\..\..\..\..\uC-CPU/cpu_core.c **** /*
   2:..\..\..\..\..\..\uC-CPU/cpu_core.c **** ***************************************************************************************************
   3:..\..\..\..\..\..\uC-CPU/cpu_core.c **** *                                                uC/CPU
   4:..\..\..\..\..\..\uC-CPU/cpu_core.c **** *                                    CPU CONFIGURATION & PORT LAYER
   5:..\..\..\..\..\..\uC-CPU/cpu_core.c **** *
   6:..\..\..\..\..\..\uC-CPU/cpu_core.c **** *                          (c) Copyright 2004-2011; Micrium, Inc.; Weston, FL
   7:..\..\..\..\..\..\uC-CPU/cpu_core.c **** *
   8:..\..\..\..\..\..\uC-CPU/cpu_core.c **** *               All rights reserved.  Protected by international copyright laws.
   9:..\..\..\..\..\..\uC-CPU/cpu_core.c **** *
  10:..\..\..\..\..\..\uC-CPU/cpu_core.c **** *               uC/CPU is provided in source form to registered licensees ONLY.  It is
  11:..\..\..\..\..\..\uC-CPU/cpu_core.c **** *               illegal to distribute this source code to any third party unless you receive
  12:..\..\..\..\..\..\uC-CPU/cpu_core.c **** *               written permission by an authorized Micrium representative.  Knowledge of
  13:..\..\..\..\..\..\uC-CPU/cpu_core.c **** *               the source code may NOT be used to develop a similar product.
  14:..\..\..\..\..\..\uC-CPU/cpu_core.c **** *
  15:..\..\..\..\..\..\uC-CPU/cpu_core.c **** *               Please help us continue to provide the Embedded community with the finest
  16:..\..\..\..\..\..\uC-CPU/cpu_core.c **** *               software available.  Your honesty is greatly appreciated.
  17:..\..\..\..\..\..\uC-CPU/cpu_core.c **** *
  18:..\..\..\..\..\..\uC-CPU/cpu_core.c **** *               You can contact us at www.micrium.com.
  19:..\..\..\..\..\..\uC-CPU/cpu_core.c **** ***************************************************************************************************
  20:..\..\..\..\..\..\uC-CPU/cpu_core.c **** */
  21:..\..\..\..\..\..\uC-CPU/cpu_core.c **** 
  22:..\..\..\..\..\..\uC-CPU/cpu_core.c **** /*
  23:..\..\..\..\..\..\uC-CPU/cpu_core.c **** ***************************************************************************************************
  24:..\..\..\..\..\..\uC-CPU/cpu_core.c **** *
  25:..\..\..\..\..\..\uC-CPU/cpu_core.c **** *                                           CORE CPU MODULE
  26:..\..\..\..\..\..\uC-CPU/cpu_core.c **** *
  27:..\..\..\..\..\..\uC-CPU/cpu_core.c **** * Filename      : cpu_core.c
  28:..\..\..\..\..\..\uC-CPU/cpu_core.c **** * Version       : V1.29.01
  29:..\..\..\..\..\..\uC-CPU/cpu_core.c **** * Programmer(s) : SR
  30:..\..\..\..\..\..\uC-CPU/cpu_core.c **** *                 ITJ
  31:..\..\..\..\..\..\uC-CPU/cpu_core.c **** ***************************************************************************************************
  32:..\..\..\..\..\..\uC-CPU/cpu_core.c **** */
  33:..\..\..\..\..\..\uC-CPU/cpu_core.c **** 
  34:..\..\..\..\..\..\uC-CPU/cpu_core.c **** 
  35:..\..\..\..\..\..\uC-CPU/cpu_core.c **** /*
  36:..\..\..\..\..\..\uC-CPU/cpu_core.c **** ***************************************************************************************************
  37:..\..\..\..\..\..\uC-CPU/cpu_core.c **** *                                            INCLUDE FILES
  38:..\..\..\..\..\..\uC-CPU/cpu_core.c **** ***************************************************************************************************
  39:..\..\..\..\..\..\uC-CPU/cpu_core.c **** */
  40:..\..\..\..\..\..\uC-CPU/cpu_core.c **** 
  41:..\..\..\..\..\..\uC-CPU/cpu_core.c **** #define    MICRIUM_SOURCE
  42:..\..\..\..\..\..\uC-CPU/cpu_core.c **** #define    CPU_CORE_MODULE
  43:..\..\..\..\..\..\uC-CPU/cpu_core.c **** #include  <cpu_core.h>
  44:..\..\..\..\..\..\uC-CPU/cpu_core.c **** 
  45:..\..\..\..\..\..\uC-CPU/cpu_core.c **** 
  46:..\..\..\..\..\..\uC-CPU/cpu_core.c **** /*$PAGE*/
  47:..\..\..\..\..\..\uC-CPU/cpu_core.c **** /*
  48:..\..\..\..\..\..\uC-CPU/cpu_core.c **** ***************************************************************************************************
  49:..\..\..\..\..\..\uC-CPU/cpu_core.c **** *                                            LOCAL DEFINES
  50:..\..\..\..\..\..\uC-CPU/cpu_core.c **** ***************************************************************************************************
  51:..\..\..\..\..\..\uC-CPU/cpu_core.c **** */
  52:..\..\..\..\..\..\uC-CPU/cpu_core.c **** 
ARM GAS  C:\Users\alex\AppData\Local\Temp\ccSBLcnl.s 			page 7


  53:..\..\..\..\..\..\uC-CPU/cpu_core.c **** 
  54:..\..\..\..\..\..\uC-CPU/cpu_core.c **** /*
  55:..\..\..\..\..\..\uC-CPU/cpu_core.c **** ***************************************************************************************************
  56:..\..\..\..\..\..\uC-CPU/cpu_core.c **** *                                           LOCAL CONSTANTS
  57:..\..\..\..\..\..\uC-CPU/cpu_core.c **** ***************************************************************************************************
  58:..\..\..\..\..\..\uC-CPU/cpu_core.c **** */
  59:..\..\..\..\..\..\uC-CPU/cpu_core.c **** 
  60:..\..\..\..\..\..\uC-CPU/cpu_core.c **** 
  61:..\..\..\..\..\..\uC-CPU/cpu_core.c **** /*
  62:..\..\..\..\..\..\uC-CPU/cpu_core.c **** ***************************************************************************************************
  63:..\..\..\..\..\..\uC-CPU/cpu_core.c **** *                                          LOCAL DATA TYPES
  64:..\..\..\..\..\..\uC-CPU/cpu_core.c **** ***************************************************************************************************
  65:..\..\..\..\..\..\uC-CPU/cpu_core.c **** */
  66:..\..\..\..\..\..\uC-CPU/cpu_core.c **** 
  67:..\..\..\..\..\..\uC-CPU/cpu_core.c **** 
  68:..\..\..\..\..\..\uC-CPU/cpu_core.c **** /*
  69:..\..\..\..\..\..\uC-CPU/cpu_core.c **** ***************************************************************************************************
  70:..\..\..\..\..\..\uC-CPU/cpu_core.c **** *                                            LOCAL TABLES
  71:..\..\..\..\..\..\uC-CPU/cpu_core.c **** ***************************************************************************************************
  72:..\..\..\..\..\..\uC-CPU/cpu_core.c **** */
  73:..\..\..\..\..\..\uC-CPU/cpu_core.c **** 
  74:..\..\..\..\..\..\uC-CPU/cpu_core.c **** /*
  75:..\..\..\..\..\..\uC-CPU/cpu_core.c **** ***************************************************************************************************
  76:..\..\..\..\..\..\uC-CPU/cpu_core.c **** *                                  CPU COUNT LEAD ZEROs LOOKUP TABLE
  77:..\..\..\..\..\..\uC-CPU/cpu_core.c **** *
  78:..\..\..\..\..\..\uC-CPU/cpu_core.c **** * Note(s) : (1) Index into bit pattern table determines the number of leading zeros in an 8-bit val
  79:..\..\..\..\..\..\uC-CPU/cpu_core.c **** *
  80:..\..\..\..\..\..\uC-CPU/cpu_core.c **** *                         b07  b06  b05  b04  b03  b02  b01  b00    # Leading Zeros
  81:..\..\..\..\..\..\uC-CPU/cpu_core.c **** *                         ---  ---  ---  ---  ---  ---  ---  ---    ---------------
  82:..\..\..\..\..\..\uC-CPU/cpu_core.c **** *                          1    x    x    x    x    x    x    x            0
  83:..\..\..\..\..\..\uC-CPU/cpu_core.c **** *                          0    1    x    x    x    x    x    x            1
  84:..\..\..\..\..\..\uC-CPU/cpu_core.c **** *                          0    0    1    x    x    x    x    x            2
  85:..\..\..\..\..\..\uC-CPU/cpu_core.c **** *                          0    0    0    1    x    x    x    x            3
  86:..\..\..\..\..\..\uC-CPU/cpu_core.c **** *                          0    0    0    0    1    x    x    x            4
  87:..\..\..\..\..\..\uC-CPU/cpu_core.c **** *                          0    0    0    0    0    1    x    x            5
  88:..\..\..\..\..\..\uC-CPU/cpu_core.c **** *                          0    0    0    0    0    0    1    x            6
  89:..\..\..\..\..\..\uC-CPU/cpu_core.c **** *                          0    0    0    0    0    0    0    1            7
  90:..\..\..\..\..\..\uC-CPU/cpu_core.c **** *                          0    0    0    0    0    0    0    0            8
  91:..\..\..\..\..\..\uC-CPU/cpu_core.c **** ***************************************************************************************************
  92:..\..\..\..\..\..\uC-CPU/cpu_core.c **** */
  93:..\..\..\..\..\..\uC-CPU/cpu_core.c **** 
  94:..\..\..\..\..\..\uC-CPU/cpu_core.c **** #if (!(defined(CPU_CFG_LEAD_ZEROS_ASM_PRESENT)) || \
  95:..\..\..\..\..\..\uC-CPU/cpu_core.c ****       (CPU_CFG_DATA_SIZE_MAX > CPU_CFG_DATA_SIZE))
  96:..\..\..\..\..\..\uC-CPU/cpu_core.c **** static  const  CPU_INT08U  CPU_CntLeadZerosTbl[256] = {                             /* Data vals : 
  97:..\..\..\..\..\..\uC-CPU/cpu_core.c **** /*   0    1    2    3    4    5    6    7    8    9    A    B    C    D    E    F   */
  98:..\..\..\..\..\..\uC-CPU/cpu_core.c ****     8u,  7u,  6u,  6u,  5u,  5u,  5u,  5u,  4u,  4u,  4u,  4u,  4u,  4u,  4u,  4u,  /*   0x00 to 0x
  99:..\..\..\..\..\..\uC-CPU/cpu_core.c ****     3u,  3u,  3u,  3u,  3u,  3u,  3u,  3u,  3u,  3u,  3u,  3u,  3u,  3u,  3u,  3u,  /*   0x10 to 0x
 100:..\..\..\..\..\..\uC-CPU/cpu_core.c ****     2u,  2u,  2u,  2u,  2u,  2u,  2u,  2u,  2u,  2u,  2u,  2u,  2u,  2u,  2u,  2u,  /*   0x20 to 0x
 101:..\..\..\..\..\..\uC-CPU/cpu_core.c ****     2u,  2u,  2u,  2u,  2u,  2u,  2u,  2u,  2u,  2u,  2u,  2u,  2u,  2u,  2u,  2u,  /*   0x30 to 0x
 102:..\..\..\..\..\..\uC-CPU/cpu_core.c ****     1u,  1u,  1u,  1u,  1u,  1u,  1u,  1u,  1u,  1u,  1u,  1u,  1u,  1u,  1u,  1u,  /*   0x40 to 0x
 103:..\..\..\..\..\..\uC-CPU/cpu_core.c ****     1u,  1u,  1u,  1u,  1u,  1u,  1u,  1u,  1u,  1u,  1u,  1u,  1u,  1u,  1u,  1u,  /*   0x50 to 0x
 104:..\..\..\..\..\..\uC-CPU/cpu_core.c ****     1u,  1u,  1u,  1u,  1u,  1u,  1u,  1u,  1u,  1u,  1u,  1u,  1u,  1u,  1u,  1u,  /*   0x60 to 0x
 105:..\..\..\..\..\..\uC-CPU/cpu_core.c ****     1u,  1u,  1u,  1u,  1u,  1u,  1u,  1u,  1u,  1u,  1u,  1u,  1u,  1u,  1u,  1u,  /*   0x70 to 0x
 106:..\..\..\..\..\..\uC-CPU/cpu_core.c ****     0u,  0u,  0u,  0u,  0u,  0u,  0u,  0u,  0u,  0u,  0u,  0u,  0u,  0u,  0u,  0u,  /*   0x80 to 0x
 107:..\..\..\..\..\..\uC-CPU/cpu_core.c ****     0u,  0u,  0u,  0u,  0u,  0u,  0u,  0u,  0u,  0u,  0u,  0u,  0u,  0u,  0u,  0u,  /*   0x90 to 0x
 108:..\..\..\..\..\..\uC-CPU/cpu_core.c ****     0u,  0u,  0u,  0u,  0u,  0u,  0u,  0u,  0u,  0u,  0u,  0u,  0u,  0u,  0u,  0u,  /*   0xA0 to 0x
 109:..\..\..\..\..\..\uC-CPU/cpu_core.c ****     0u,  0u,  0u,  0u,  0u,  0u,  0u,  0u,  0u,  0u,  0u,  0u,  0u,  0u,  0u,  0u,  /*   0xB0 to 0x
ARM GAS  C:\Users\alex\AppData\Local\Temp\ccSBLcnl.s 			page 8


 110:..\..\..\..\..\..\uC-CPU/cpu_core.c ****     0u,  0u,  0u,  0u,  0u,  0u,  0u,  0u,  0u,  0u,  0u,  0u,  0u,  0u,  0u,  0u,  /*   0xC0 to 0x
 111:..\..\..\..\..\..\uC-CPU/cpu_core.c ****     0u,  0u,  0u,  0u,  0u,  0u,  0u,  0u,  0u,  0u,  0u,  0u,  0u,  0u,  0u,  0u,  /*   0xD0 to 0x
 112:..\..\..\..\..\..\uC-CPU/cpu_core.c ****     0u,  0u,  0u,  0u,  0u,  0u,  0u,  0u,  0u,  0u,  0u,  0u,  0u,  0u,  0u,  0u,  /*   0xE0 to 0x
 113:..\..\..\..\..\..\uC-CPU/cpu_core.c ****     0u,  0u,  0u,  0u,  0u,  0u,  0u,  0u,  0u,  0u,  0u,  0u,  0u,  0u,  0u,  0u   /*   0xF0 to 0x
 114:..\..\..\..\..\..\uC-CPU/cpu_core.c **** };
 115:..\..\..\..\..\..\uC-CPU/cpu_core.c **** #endif
 116:..\..\..\..\..\..\uC-CPU/cpu_core.c **** 
 117:..\..\..\..\..\..\uC-CPU/cpu_core.c **** 
 118:..\..\..\..\..\..\uC-CPU/cpu_core.c **** /*$PAGE*/
 119:..\..\..\..\..\..\uC-CPU/cpu_core.c **** /*
 120:..\..\..\..\..\..\uC-CPU/cpu_core.c **** ***************************************************************************************************
 121:..\..\..\..\..\..\uC-CPU/cpu_core.c **** *                                       LOCAL GLOBAL VARIABLES
 122:..\..\..\..\..\..\uC-CPU/cpu_core.c **** ***************************************************************************************************
 123:..\..\..\..\..\..\uC-CPU/cpu_core.c **** */
 124:..\..\..\..\..\..\uC-CPU/cpu_core.c **** 
 125:..\..\..\..\..\..\uC-CPU/cpu_core.c **** 
 126:..\..\..\..\..\..\uC-CPU/cpu_core.c **** /*
 127:..\..\..\..\..\..\uC-CPU/cpu_core.c **** ***************************************************************************************************
 128:..\..\..\..\..\..\uC-CPU/cpu_core.c **** *                                      LOCAL FUNCTION PROTOTYPES
 129:..\..\..\..\..\..\uC-CPU/cpu_core.c **** ***************************************************************************************************
 130:..\..\..\..\..\..\uC-CPU/cpu_core.c **** */
 131:..\..\..\..\..\..\uC-CPU/cpu_core.c **** 
 132:..\..\..\..\..\..\uC-CPU/cpu_core.c **** #if    (CPU_CFG_NAME_EN   == DEF_ENABLED)                           /* ---------------- CPU NAME FN
 133:..\..\..\..\..\..\uC-CPU/cpu_core.c **** static  void        CPU_NameInit         (void);
 134:..\..\..\..\..\..\uC-CPU/cpu_core.c **** #endif
 135:..\..\..\..\..\..\uC-CPU/cpu_core.c **** 
 136:..\..\..\..\..\..\uC-CPU/cpu_core.c **** 
 137:..\..\..\..\..\..\uC-CPU/cpu_core.c ****                                                                     /* ----------------- CPU TS FNC
 138:..\..\..\..\..\..\uC-CPU/cpu_core.c **** #if   ((CPU_CFG_TS_EN     == DEF_ENABLED) || \
 139:..\..\..\..\..\..\uC-CPU/cpu_core.c ****        (CPU_CFG_TS_TMR_EN == DEF_ENABLED))
 140:..\..\..\..\..\..\uC-CPU/cpu_core.c **** static  void        CPU_TS_Init          (void);
 141:..\..\..\..\..\..\uC-CPU/cpu_core.c **** #endif
 142:..\..\..\..\..\..\uC-CPU/cpu_core.c **** 
 143:..\..\..\..\..\..\uC-CPU/cpu_core.c **** 
 144:..\..\..\..\..\..\uC-CPU/cpu_core.c **** #ifdef  CPU_CFG_INT_DIS_MEAS_EN                                     /* ---------- CPU INT DIS TIME 
 145:..\..\..\..\..\..\uC-CPU/cpu_core.c **** static  void        CPU_IntDisMeasInit   (void);
 146:..\..\..\..\..\..\uC-CPU/cpu_core.c **** 
 147:..\..\..\..\..\..\uC-CPU/cpu_core.c **** static  CPU_TS_TMR  CPU_IntDisMeasMaxCalc(CPU_TS_TMR  time_tot_cnts);
 148:..\..\..\..\..\..\uC-CPU/cpu_core.c **** #endif
 149:..\..\..\..\..\..\uC-CPU/cpu_core.c **** 
 150:..\..\..\..\..\..\uC-CPU/cpu_core.c **** 
 151:..\..\..\..\..\..\uC-CPU/cpu_core.c **** /*
 152:..\..\..\..\..\..\uC-CPU/cpu_core.c **** ***************************************************************************************************
 153:..\..\..\..\..\..\uC-CPU/cpu_core.c **** *                                     LOCAL CONFIGURATION ERRORS
 154:..\..\..\..\..\..\uC-CPU/cpu_core.c **** ***************************************************************************************************
 155:..\..\..\..\..\..\uC-CPU/cpu_core.c **** */
 156:..\..\..\..\..\..\uC-CPU/cpu_core.c **** 
 157:..\..\..\..\..\..\uC-CPU/cpu_core.c **** 
 158:..\..\..\..\..\..\uC-CPU/cpu_core.c **** /*$PAGE*/
 159:..\..\..\..\..\..\uC-CPU/cpu_core.c **** /*
 160:..\..\..\..\..\..\uC-CPU/cpu_core.c **** ***************************************************************************************************
 161:..\..\..\..\..\..\uC-CPU/cpu_core.c **** *                                             CPU_Init()
 162:..\..\..\..\..\..\uC-CPU/cpu_core.c **** *
 163:..\..\..\..\..\..\uC-CPU/cpu_core.c **** * Description : (1) Initialize CPU module :
 164:..\..\..\..\..\..\uC-CPU/cpu_core.c **** *
 165:..\..\..\..\..\..\uC-CPU/cpu_core.c **** *                   (a) Initialize CPU timestamps
 166:..\..\..\..\..\..\uC-CPU/cpu_core.c **** *                   (b) Initialize CPU interrupts disabled time measurements
ARM GAS  C:\Users\alex\AppData\Local\Temp\ccSBLcnl.s 			page 9


 167:..\..\..\..\..\..\uC-CPU/cpu_core.c **** *                   (c) Initialize CPU host name
 168:..\..\..\..\..\..\uC-CPU/cpu_core.c **** *
 169:..\..\..\..\..\..\uC-CPU/cpu_core.c **** *
 170:..\..\..\..\..\..\uC-CPU/cpu_core.c **** * Argument(s) : none.
 171:..\..\..\..\..\..\uC-CPU/cpu_core.c **** *
 172:..\..\..\..\..\..\uC-CPU/cpu_core.c **** * Return(s)   : none.
 173:..\..\..\..\..\..\uC-CPU/cpu_core.c **** *
 174:..\..\..\..\..\..\uC-CPU/cpu_core.c **** * Caller(s)   : Your Product's Application.
 175:..\..\..\..\..\..\uC-CPU/cpu_core.c **** *
 176:..\..\..\..\..\..\uC-CPU/cpu_core.c **** *               This function is a CPU initialization function & MAY be called by application/
 177:..\..\..\..\..\..\uC-CPU/cpu_core.c **** *               initialization function(s).
 178:..\..\..\..\..\..\uC-CPU/cpu_core.c **** *
 179:..\..\..\..\..\..\uC-CPU/cpu_core.c **** * Note(s)     : (2) CPU_Init() MUST be called ... :
 180:..\..\..\..\..\..\uC-CPU/cpu_core.c **** *
 181:..\..\..\..\..\..\uC-CPU/cpu_core.c **** *                   (a) ONLY ONCE from a product's application; ...
 182:..\..\..\..\..\..\uC-CPU/cpu_core.c **** *                   (b) BEFORE product's application calls any core CPU module function(s)
 183:..\..\..\..\..\..\uC-CPU/cpu_core.c **** *
 184:..\..\..\..\..\..\uC-CPU/cpu_core.c **** *               (3) The following initialization functions MUST be sequenced as follows :
 185:..\..\..\..\..\..\uC-CPU/cpu_core.c **** *
 186:..\..\..\..\..\..\uC-CPU/cpu_core.c **** *                   (a) CPU_TS_Init()           SHOULD precede ALL calls to other CPU timestamp fun
 187:..\..\..\..\..\..\uC-CPU/cpu_core.c **** *
 188:..\..\..\..\..\..\uC-CPU/cpu_core.c **** *                   (b) CPU_IntDisMeasInit()    SHOULD precede ALL calls to CPU_CRITICAL_ENTER()/CP
 189:..\..\..\..\..\..\uC-CPU/cpu_core.c **** *                                                   & other CPU interrupts disabled time measuremen
 190:..\..\..\..\..\..\uC-CPU/cpu_core.c **** ***************************************************************************************************
 191:..\..\..\..\..\..\uC-CPU/cpu_core.c **** */
 192:..\..\..\..\..\..\uC-CPU/cpu_core.c **** 
 193:..\..\..\..\..\..\uC-CPU/cpu_core.c **** void  CPU_Init (void)
 194:..\..\..\..\..\..\uC-CPU/cpu_core.c **** {
 291              		.loc 1 194 0
 292              		.cfi_startproc
 293              		@ args = 0, pretend = 0, frame = 0
 294              		@ frame_needed = 1, uses_anonymous_args = 0
 295 0000 80B5     		push	{r7, lr}
 296              		.cfi_def_cfa_offset 8
 297              		.cfi_offset 7, -8
 298              		.cfi_offset 14, -4
 299 0002 00AF     		add	r7, sp, #0
 300              		.cfi_def_cfa_register 7
 195:..\..\..\..\..\..\uC-CPU/cpu_core.c ****                                                                 /* --------------------- INIT TS --
 196:..\..\..\..\..\..\uC-CPU/cpu_core.c **** #if ((CPU_CFG_TS_EN     == DEF_ENABLED) || \
 197:..\..\..\..\..\..\uC-CPU/cpu_core.c ****      (CPU_CFG_TS_TMR_EN == DEF_ENABLED))
 198:..\..\..\..\..\..\uC-CPU/cpu_core.c ****     CPU_TS_Init();                                              /* See Note #3a.                   
 301              		.loc 1 198 0
 302 0004 FFF7FEFF 		bl	CPU_TS_Init
 199:..\..\..\..\..\..\uC-CPU/cpu_core.c **** #endif
 200:..\..\..\..\..\..\uC-CPU/cpu_core.c ****                                                                 /* -------------- INIT INT DIS TIME
 201:..\..\..\..\..\..\uC-CPU/cpu_core.c **** #ifdef  CPU_CFG_INT_DIS_MEAS_EN
 202:..\..\..\..\..\..\uC-CPU/cpu_core.c ****     CPU_IntDisMeasInit();                                       /* See Note #3b.                   
 203:..\..\..\..\..\..\uC-CPU/cpu_core.c **** #endif
 204:..\..\..\..\..\..\uC-CPU/cpu_core.c **** 
 205:..\..\..\..\..\..\uC-CPU/cpu_core.c ****                                                                 /* ------------------ INIT CPU NAME
 206:..\..\..\..\..\..\uC-CPU/cpu_core.c **** #if (CPU_CFG_NAME_EN == DEF_ENABLED)
 207:..\..\..\..\..\..\uC-CPU/cpu_core.c ****      CPU_NameInit();
 303              		.loc 1 207 0
 304 0008 FFF7FEFF 		bl	CPU_NameInit
 208:..\..\..\..\..\..\uC-CPU/cpu_core.c **** #endif
 209:..\..\..\..\..\..\uC-CPU/cpu_core.c **** }
ARM GAS  C:\Users\alex\AppData\Local\Temp\ccSBLcnl.s 			page 10


 305              		.loc 1 209 0
 306 000c 00BF     		nop
 307 000e 80BD     		pop	{r7, pc}
 308              		.cfi_endproc
 309              	.LFE0:
 310              		.size	CPU_Init, .-CPU_Init
 311              		.section	.text.CPU_SW_Exception,"ax",%progbits
 312              		.align	2
 313              		.global	CPU_SW_Exception
 314              		.thumb
 315              		.thumb_func
 316              		.type	CPU_SW_Exception, %function
 317              	CPU_SW_Exception:
 318              	.LFB1:
 210:..\..\..\..\..\..\uC-CPU/cpu_core.c **** 
 211:..\..\..\..\..\..\uC-CPU/cpu_core.c **** 
 212:..\..\..\..\..\..\uC-CPU/cpu_core.c **** /*$PAGE*/
 213:..\..\..\..\..\..\uC-CPU/cpu_core.c **** /*
 214:..\..\..\..\..\..\uC-CPU/cpu_core.c **** ***************************************************************************************************
 215:..\..\..\..\..\..\uC-CPU/cpu_core.c **** *                                         CPU_SW_Exception()
 216:..\..\..\..\..\..\uC-CPU/cpu_core.c **** *
 217:..\..\..\..\..\..\uC-CPU/cpu_core.c **** * Description : Trap unrecoverable software exception.
 218:..\..\..\..\..\..\uC-CPU/cpu_core.c **** *
 219:..\..\..\..\..\..\uC-CPU/cpu_core.c **** * Argument(s) : none.
 220:..\..\..\..\..\..\uC-CPU/cpu_core.c **** *
 221:..\..\..\..\..\..\uC-CPU/cpu_core.c **** * Return(s)   : none.
 222:..\..\..\..\..\..\uC-CPU/cpu_core.c **** *
 223:..\..\..\..\..\..\uC-CPU/cpu_core.c **** * Caller(s)   : various.
 224:..\..\..\..\..\..\uC-CPU/cpu_core.c **** *
 225:..\..\..\..\..\..\uC-CPU/cpu_core.c **** * Note(s)     : (1) CPU_SW_Exception() deadlocks the current code execution -- whether multi-tasked
 226:..\..\..\..\..\..\uC-CPU/cpu_core.c **** *                   -processed/-threaded or single-threaded -- when the current code execution cann
 227:..\..\..\..\..\..\uC-CPU/cpu_core.c **** *                   gracefully recover or report a fault or exception condition.
 228:..\..\..\..\..\..\uC-CPU/cpu_core.c **** *
 229:..\..\..\..\..\..\uC-CPU/cpu_core.c **** *                   See also 'cpu_core.h  CPU_SW_EXCEPTION()  Note #1'.
 230:..\..\..\..\..\..\uC-CPU/cpu_core.c **** ***************************************************************************************************
 231:..\..\..\..\..\..\uC-CPU/cpu_core.c **** */
 232:..\..\..\..\..\..\uC-CPU/cpu_core.c **** 
 233:..\..\..\..\..\..\uC-CPU/cpu_core.c **** void  CPU_SW_Exception (void)
 234:..\..\..\..\..\..\uC-CPU/cpu_core.c **** {
 319              		.loc 1 234 0
 320              		.cfi_startproc
 321              		@ args = 0, pretend = 0, frame = 0
 322              		@ frame_needed = 1, uses_anonymous_args = 0
 323              		@ link register save eliminated.
 324 0000 80B4     		push	{r7}
 325              		.cfi_def_cfa_offset 4
 326              		.cfi_offset 7, -4
 327 0002 00AF     		add	r7, sp, #0
 328              		.cfi_def_cfa_register 7
 329              	.L3:
 235:..\..\..\..\..\..\uC-CPU/cpu_core.c ****     while (DEF_ON) {
 236:..\..\..\..\..\..\uC-CPU/cpu_core.c ****         ;
 237:..\..\..\..\..\..\uC-CPU/cpu_core.c ****     }
 330              		.loc 1 237 0 discriminator 1
 331 0004 FEE7     		b	.L3
 332              		.cfi_endproc
 333              	.LFE1:
ARM GAS  C:\Users\alex\AppData\Local\Temp\ccSBLcnl.s 			page 11


 334              		.size	CPU_SW_Exception, .-CPU_SW_Exception
 335 0006 00BF     		.section	.text.CPU_NameClr,"ax",%progbits
 336              		.align	2
 337              		.global	CPU_NameClr
 338              		.thumb
 339              		.thumb_func
 340              		.type	CPU_NameClr, %function
 341              	CPU_NameClr:
 342              	.LFB2:
 238:..\..\..\..\..\..\uC-CPU/cpu_core.c **** }
 239:..\..\..\..\..\..\uC-CPU/cpu_core.c **** 
 240:..\..\..\..\..\..\uC-CPU/cpu_core.c **** 
 241:..\..\..\..\..\..\uC-CPU/cpu_core.c **** /*$PAGE*/
 242:..\..\..\..\..\..\uC-CPU/cpu_core.c **** /*
 243:..\..\..\..\..\..\uC-CPU/cpu_core.c **** ***************************************************************************************************
 244:..\..\..\..\..\..\uC-CPU/cpu_core.c **** *                                            CPU_NameClr()
 245:..\..\..\..\..\..\uC-CPU/cpu_core.c **** *
 246:..\..\..\..\..\..\uC-CPU/cpu_core.c **** * Description : Clear CPU Name.
 247:..\..\..\..\..\..\uC-CPU/cpu_core.c **** *
 248:..\..\..\..\..\..\uC-CPU/cpu_core.c **** * Argument(s) : none.
 249:..\..\..\..\..\..\uC-CPU/cpu_core.c **** *
 250:..\..\..\..\..\..\uC-CPU/cpu_core.c **** * Return(s)   : none.
 251:..\..\..\..\..\..\uC-CPU/cpu_core.c **** *
 252:..\..\..\..\..\..\uC-CPU/cpu_core.c **** * Caller(s)   : CPU_NameInit(),
 253:..\..\..\..\..\..\uC-CPU/cpu_core.c **** *               Application.
 254:..\..\..\..\..\..\uC-CPU/cpu_core.c **** *
 255:..\..\..\..\..\..\uC-CPU/cpu_core.c **** *               This function is a CPU module application programming interface (API) function & MA
 256:..\..\..\..\..\..\uC-CPU/cpu_core.c **** *               called by application function(s).
 257:..\..\..\..\..\..\uC-CPU/cpu_core.c **** *
 258:..\..\..\..\..\..\uC-CPU/cpu_core.c **** * Note(s)     : none.
 259:..\..\..\..\..\..\uC-CPU/cpu_core.c **** ***************************************************************************************************
 260:..\..\..\..\..\..\uC-CPU/cpu_core.c **** */
 261:..\..\..\..\..\..\uC-CPU/cpu_core.c **** 
 262:..\..\..\..\..\..\uC-CPU/cpu_core.c **** #if (CPU_CFG_NAME_EN == DEF_ENABLED)
 263:..\..\..\..\..\..\uC-CPU/cpu_core.c **** void  CPU_NameClr (void)
 264:..\..\..\..\..\..\uC-CPU/cpu_core.c **** {
 343              		.loc 1 264 0
 344              		.cfi_startproc
 345              		@ args = 0, pretend = 0, frame = 8
 346              		@ frame_needed = 1, uses_anonymous_args = 0
 347 0000 80B5     		push	{r7, lr}
 348              		.cfi_def_cfa_offset 8
 349              		.cfi_offset 7, -8
 350              		.cfi_offset 14, -4
 351 0002 82B0     		sub	sp, sp, #8
 352              		.cfi_def_cfa_offset 16
 353 0004 00AF     		add	r7, sp, #0
 354              		.cfi_def_cfa_register 7
 265:..\..\..\..\..\..\uC-CPU/cpu_core.c ****     CPU_SR_ALLOC();
 355              		.loc 1 265 0
 356 0006 0023     		movs	r3, #0
 357 0008 7B60     		str	r3, [r7, #4]
 266:..\..\..\..\..\..\uC-CPU/cpu_core.c **** 
 267:..\..\..\..\..\..\uC-CPU/cpu_core.c **** 
 268:..\..\..\..\..\..\uC-CPU/cpu_core.c ****     CPU_CRITICAL_ENTER();
 358              		.loc 1 268 0
 359 000a FFF7FEFF 		bl	CPU_SR_Save
ARM GAS  C:\Users\alex\AppData\Local\Temp\ccSBLcnl.s 			page 12


 360 000e 7860     		str	r0, [r7, #4]
 269:..\..\..\..\..\..\uC-CPU/cpu_core.c ****     Mem_Clr((void     *)&CPU_Name[0],
 361              		.loc 1 269 0
 362 0010 1021     		movs	r1, #16
 363 0012 0548     		ldr	r0, .L5
 364 0014 FFF7FEFF 		bl	Mem_Clr
 270:..\..\..\..\..\..\uC-CPU/cpu_core.c ****             (CPU_SIZE_T) CPU_CFG_NAME_SIZE);
 271:..\..\..\..\..\..\uC-CPU/cpu_core.c ****     CPU_CRITICAL_EXIT();
 365              		.loc 1 271 0
 366 0018 7868     		ldr	r0, [r7, #4]
 367 001a FFF7FEFF 		bl	CPU_SR_Restore
 272:..\..\..\..\..\..\uC-CPU/cpu_core.c **** }
 368              		.loc 1 272 0
 369 001e 00BF     		nop
 370 0020 0837     		adds	r7, r7, #8
 371              		.cfi_def_cfa_offset 8
 372 0022 BD46     		mov	sp, r7
 373              		.cfi_def_cfa_register 13
 374              		@ sp needed
 375 0024 80BD     		pop	{r7, pc}
 376              	.L6:
 377 0026 00BF     		.align	2
 378              	.L5:
 379 0028 00000000 		.word	CPU_Name
 380              		.cfi_endproc
 381              	.LFE2:
 382              		.size	CPU_NameClr, .-CPU_NameClr
 383              		.section	.text.CPU_NameGet,"ax",%progbits
 384              		.align	2
 385              		.global	CPU_NameGet
 386              		.thumb
 387              		.thumb_func
 388              		.type	CPU_NameGet, %function
 389              	CPU_NameGet:
 390              	.LFB3:
 273:..\..\..\..\..\..\uC-CPU/cpu_core.c **** #endif
 274:..\..\..\..\..\..\uC-CPU/cpu_core.c **** 
 275:..\..\..\..\..\..\uC-CPU/cpu_core.c **** 
 276:..\..\..\..\..\..\uC-CPU/cpu_core.c **** /*$PAGE*/
 277:..\..\..\..\..\..\uC-CPU/cpu_core.c **** /*
 278:..\..\..\..\..\..\uC-CPU/cpu_core.c **** ***************************************************************************************************
 279:..\..\..\..\..\..\uC-CPU/cpu_core.c **** *                                            CPU_NameGet()
 280:..\..\..\..\..\..\uC-CPU/cpu_core.c **** *
 281:..\..\..\..\..\..\uC-CPU/cpu_core.c **** * Description : Get CPU host name.
 282:..\..\..\..\..\..\uC-CPU/cpu_core.c **** *
 283:..\..\..\..\..\..\uC-CPU/cpu_core.c **** * Argument(s) : p_name      Pointer to an ASCII character array that will receive the return CPU ho
 284:..\..\..\..\..\..\uC-CPU/cpu_core.c **** *                               name ASCII string from this function (see Note #1).
 285:..\..\..\..\..\..\uC-CPU/cpu_core.c **** *
 286:..\..\..\..\..\..\uC-CPU/cpu_core.c **** *               p_err       Pointer to variable that will receive the return error code from this f
 287:..\..\..\..\..\..\uC-CPU/cpu_core.c **** *
 288:..\..\..\..\..\..\uC-CPU/cpu_core.c **** *                               CPU_ERR_NONE                    CPU host name successfully returned
 289:..\..\..\..\..\..\uC-CPU/cpu_core.c **** *                               CPU_ERR_NULL_PTR                Argument 'p_name' passed a NULL poi
 290:..\..\..\..\..\..\uC-CPU/cpu_core.c **** *
 291:..\..\..\..\..\..\uC-CPU/cpu_core.c **** * Return(s)   : none.
 292:..\..\..\..\..\..\uC-CPU/cpu_core.c **** *
 293:..\..\..\..\..\..\uC-CPU/cpu_core.c **** * Caller(s)   : Application.
 294:..\..\..\..\..\..\uC-CPU/cpu_core.c **** *
ARM GAS  C:\Users\alex\AppData\Local\Temp\ccSBLcnl.s 			page 13


 295:..\..\..\..\..\..\uC-CPU/cpu_core.c **** *               This function is a CPU module application programming interface (API) function & MA
 296:..\..\..\..\..\..\uC-CPU/cpu_core.c **** *               be called by application function(s).
 297:..\..\..\..\..\..\uC-CPU/cpu_core.c **** *
 298:..\..\..\..\..\..\uC-CPU/cpu_core.c **** * Note(s)     : (1) The size of the ASCII character array that will receive the return CPU host nam
 299:..\..\..\..\..\..\uC-CPU/cpu_core.c **** *                   ASCII string :
 300:..\..\..\..\..\..\uC-CPU/cpu_core.c **** *
 301:..\..\..\..\..\..\uC-CPU/cpu_core.c **** *                   (a) MUST   be greater than or equal to the current CPU host name's ASCII string
 302:..\..\..\..\..\..\uC-CPU/cpu_core.c **** *                           size including the terminating NULL character;
 303:..\..\..\..\..\..\uC-CPU/cpu_core.c **** *                   (b) SHOULD be greater than or equal to CPU_CFG_NAME_SIZE
 304:..\..\..\..\..\..\uC-CPU/cpu_core.c **** ***************************************************************************************************
 305:..\..\..\..\..\..\uC-CPU/cpu_core.c **** */
 306:..\..\..\..\..\..\uC-CPU/cpu_core.c **** 
 307:..\..\..\..\..\..\uC-CPU/cpu_core.c **** #if (CPU_CFG_NAME_EN == DEF_ENABLED)
 308:..\..\..\..\..\..\uC-CPU/cpu_core.c **** void  CPU_NameGet (CPU_CHAR  *p_name,
 309:..\..\..\..\..\..\uC-CPU/cpu_core.c ****                    CPU_ERR   *p_err)
 310:..\..\..\..\..\..\uC-CPU/cpu_core.c **** {
 391              		.loc 1 310 0
 392              		.cfi_startproc
 393              		@ args = 0, pretend = 0, frame = 16
 394              		@ frame_needed = 1, uses_anonymous_args = 0
 395 0000 80B5     		push	{r7, lr}
 396              		.cfi_def_cfa_offset 8
 397              		.cfi_offset 7, -8
 398              		.cfi_offset 14, -4
 399 0002 84B0     		sub	sp, sp, #16
 400              		.cfi_def_cfa_offset 24
 401 0004 00AF     		add	r7, sp, #0
 402              		.cfi_def_cfa_register 7
 403 0006 7860     		str	r0, [r7, #4]
 404 0008 3960     		str	r1, [r7]
 311:..\..\..\..\..\..\uC-CPU/cpu_core.c ****     CPU_SR_ALLOC();
 405              		.loc 1 311 0
 406 000a 0023     		movs	r3, #0
 407 000c FB60     		str	r3, [r7, #12]
 312:..\..\..\..\..\..\uC-CPU/cpu_core.c **** 
 313:..\..\..\..\..\..\uC-CPU/cpu_core.c **** 
 314:..\..\..\..\..\..\uC-CPU/cpu_core.c ****     if (p_err == (CPU_ERR *)0) {
 408              		.loc 1 314 0
 409 000e 3B68     		ldr	r3, [r7]
 410 0010 002B     		cmp	r3, #0
 411 0012 01D1     		bne	.L8
 315:..\..\..\..\..\..\uC-CPU/cpu_core.c ****         CPU_SW_EXCEPTION(;);
 412              		.loc 1 315 0
 413 0014 FFF7FEFF 		bl	CPU_SW_Exception
 414              	.L8:
 316:..\..\..\..\..\..\uC-CPU/cpu_core.c ****     }
 317:..\..\..\..\..\..\uC-CPU/cpu_core.c **** 
 318:..\..\..\..\..\..\uC-CPU/cpu_core.c ****     if (p_name == (CPU_CHAR *)0) {
 415              		.loc 1 318 0
 416 0018 7B68     		ldr	r3, [r7, #4]
 417 001a 002B     		cmp	r3, #0
 418 001c 03D1     		bne	.L9
 319:..\..\..\..\..\..\uC-CPU/cpu_core.c ****        *p_err = CPU_ERR_NULL_PTR;
 419              		.loc 1 319 0
 420 001e 3B68     		ldr	r3, [r7]
 421 0020 0A22     		movs	r2, #10
 422 0022 1A80     		strh	r2, [r3]	@ movhi
ARM GAS  C:\Users\alex\AppData\Local\Temp\ccSBLcnl.s 			page 14


 320:..\..\..\..\..\..\uC-CPU/cpu_core.c ****         return;
 423              		.loc 1 320 0
 424 0024 0DE0     		b	.L7
 425              	.L9:
 321:..\..\..\..\..\..\uC-CPU/cpu_core.c ****     }
 322:..\..\..\..\..\..\uC-CPU/cpu_core.c **** 
 323:..\..\..\..\..\..\uC-CPU/cpu_core.c ****     CPU_CRITICAL_ENTER();
 426              		.loc 1 323 0
 427 0026 FFF7FEFF 		bl	CPU_SR_Save
 428 002a F860     		str	r0, [r7, #12]
 324:..\..\..\..\..\..\uC-CPU/cpu_core.c ****    (void)Str_Copy_N(p_name,
 429              		.loc 1 324 0
 430 002c 1022     		movs	r2, #16
 431 002e 0649     		ldr	r1, .L11
 432 0030 7868     		ldr	r0, [r7, #4]
 433 0032 FFF7FEFF 		bl	Str_Copy_N
 325:..\..\..\..\..\..\uC-CPU/cpu_core.c ****                    &CPU_Name[0],
 326:..\..\..\..\..\..\uC-CPU/cpu_core.c ****                     CPU_CFG_NAME_SIZE);
 327:..\..\..\..\..\..\uC-CPU/cpu_core.c ****     CPU_CRITICAL_EXIT();
 434              		.loc 1 327 0
 435 0036 F868     		ldr	r0, [r7, #12]
 436 0038 FFF7FEFF 		bl	CPU_SR_Restore
 328:..\..\..\..\..\..\uC-CPU/cpu_core.c **** 
 329:..\..\..\..\..\..\uC-CPU/cpu_core.c ****    *p_err = CPU_ERR_NONE;
 437              		.loc 1 329 0
 438 003c 3B68     		ldr	r3, [r7]
 439 003e 0022     		movs	r2, #0
 440 0040 1A80     		strh	r2, [r3]	@ movhi
 441              	.L7:
 330:..\..\..\..\..\..\uC-CPU/cpu_core.c **** }
 442              		.loc 1 330 0
 443 0042 1037     		adds	r7, r7, #16
 444              		.cfi_def_cfa_offset 8
 445 0044 BD46     		mov	sp, r7
 446              		.cfi_def_cfa_register 13
 447              		@ sp needed
 448 0046 80BD     		pop	{r7, pc}
 449              	.L12:
 450              		.align	2
 451              	.L11:
 452 0048 00000000 		.word	CPU_Name
 453              		.cfi_endproc
 454              	.LFE3:
 455              		.size	CPU_NameGet, .-CPU_NameGet
 456              		.section	.text.CPU_NameSet,"ax",%progbits
 457              		.align	2
 458              		.global	CPU_NameSet
 459              		.thumb
 460              		.thumb_func
 461              		.type	CPU_NameSet, %function
 462              	CPU_NameSet:
 463              	.LFB4:
 331:..\..\..\..\..\..\uC-CPU/cpu_core.c **** #endif
 332:..\..\..\..\..\..\uC-CPU/cpu_core.c **** 
 333:..\..\..\..\..\..\uC-CPU/cpu_core.c **** 
 334:..\..\..\..\..\..\uC-CPU/cpu_core.c **** /*$PAGE*/
 335:..\..\..\..\..\..\uC-CPU/cpu_core.c **** /*
ARM GAS  C:\Users\alex\AppData\Local\Temp\ccSBLcnl.s 			page 15


 336:..\..\..\..\..\..\uC-CPU/cpu_core.c **** ***************************************************************************************************
 337:..\..\..\..\..\..\uC-CPU/cpu_core.c **** *                                            CPU_NameSet()
 338:..\..\..\..\..\..\uC-CPU/cpu_core.c **** *
 339:..\..\..\..\..\..\uC-CPU/cpu_core.c **** * Description : Set CPU host name.
 340:..\..\..\..\..\..\uC-CPU/cpu_core.c **** *
 341:..\..\..\..\..\..\uC-CPU/cpu_core.c **** * Argument(s) : p_name      Pointer to CPU host name to set.
 342:..\..\..\..\..\..\uC-CPU/cpu_core.c **** *
 343:..\..\..\..\..\..\uC-CPU/cpu_core.c **** *               p_err       Pointer to variable that will receive the return error code from this f
 344:..\..\..\..\..\..\uC-CPU/cpu_core.c **** *
 345:..\..\..\..\..\..\uC-CPU/cpu_core.c **** *                               CPU_ERR_NONE                    CPU host name successfully set.
 346:..\..\..\..\..\..\uC-CPU/cpu_core.c **** *                               CPU_ERR_NULL_PTR                Argument 'p_name' passed a NULL poi
 347:..\..\..\..\..\..\uC-CPU/cpu_core.c **** *                               CPU_ERR_NAME_SIZE               Invalid CPU host name size (see Not
 348:..\..\..\..\..\..\uC-CPU/cpu_core.c **** *
 349:..\..\..\..\..\..\uC-CPU/cpu_core.c **** * Return(s)   : none.
 350:..\..\..\..\..\..\uC-CPU/cpu_core.c **** *
 351:..\..\..\..\..\..\uC-CPU/cpu_core.c **** * Caller(s)   : Application.
 352:..\..\..\..\..\..\uC-CPU/cpu_core.c **** *
 353:..\..\..\..\..\..\uC-CPU/cpu_core.c **** *               This function is a CPU module application programming interface (API) function & MA
 354:..\..\..\..\..\..\uC-CPU/cpu_core.c **** *               called by application function(s).
 355:..\..\..\..\..\..\uC-CPU/cpu_core.c **** *
 356:..\..\..\..\..\..\uC-CPU/cpu_core.c **** * Note(s)     : (1) 'p_name' ASCII string size, including the terminating NULL character, MUST be l
 357:..\..\..\..\..\..\uC-CPU/cpu_core.c **** *                    than or equal to CPU_CFG_NAME_SIZE.
 358:..\..\..\..\..\..\uC-CPU/cpu_core.c **** ***************************************************************************************************
 359:..\..\..\..\..\..\uC-CPU/cpu_core.c **** */
 360:..\..\..\..\..\..\uC-CPU/cpu_core.c **** 
 361:..\..\..\..\..\..\uC-CPU/cpu_core.c **** #if (CPU_CFG_NAME_EN == DEF_ENABLED)
 362:..\..\..\..\..\..\uC-CPU/cpu_core.c **** void  CPU_NameSet (const  CPU_CHAR  *p_name,
 363:..\..\..\..\..\..\uC-CPU/cpu_core.c ****                           CPU_ERR   *p_err)
 364:..\..\..\..\..\..\uC-CPU/cpu_core.c **** {
 464              		.loc 1 364 0
 465              		.cfi_startproc
 466              		@ args = 0, pretend = 0, frame = 16
 467              		@ frame_needed = 1, uses_anonymous_args = 0
 468 0000 80B5     		push	{r7, lr}
 469              		.cfi_def_cfa_offset 8
 470              		.cfi_offset 7, -8
 471              		.cfi_offset 14, -4
 472 0002 84B0     		sub	sp, sp, #16
 473              		.cfi_def_cfa_offset 24
 474 0004 00AF     		add	r7, sp, #0
 475              		.cfi_def_cfa_register 7
 476 0006 7860     		str	r0, [r7, #4]
 477 0008 3960     		str	r1, [r7]
 365:..\..\..\..\..\..\uC-CPU/cpu_core.c ****     CPU_SIZE_T  len;
 366:..\..\..\..\..\..\uC-CPU/cpu_core.c ****     CPU_SR_ALLOC();
 478              		.loc 1 366 0
 479 000a 0023     		movs	r3, #0
 480 000c FB60     		str	r3, [r7, #12]
 367:..\..\..\..\..\..\uC-CPU/cpu_core.c **** 
 368:..\..\..\..\..\..\uC-CPU/cpu_core.c **** 
 369:..\..\..\..\..\..\uC-CPU/cpu_core.c ****     if (p_err == (CPU_ERR *)0) {
 481              		.loc 1 369 0
 482 000e 3B68     		ldr	r3, [r7]
 483 0010 002B     		cmp	r3, #0
 484 0012 01D1     		bne	.L14
 370:..\..\..\..\..\..\uC-CPU/cpu_core.c ****         CPU_SW_EXCEPTION(;);
 485              		.loc 1 370 0
ARM GAS  C:\Users\alex\AppData\Local\Temp\ccSBLcnl.s 			page 16


 486 0014 FFF7FEFF 		bl	CPU_SW_Exception
 487              	.L14:
 371:..\..\..\..\..\..\uC-CPU/cpu_core.c ****     }
 372:..\..\..\..\..\..\uC-CPU/cpu_core.c **** 
 373:..\..\..\..\..\..\uC-CPU/cpu_core.c ****     if (p_name == (const CPU_CHAR *)0) {
 488              		.loc 1 373 0
 489 0018 7B68     		ldr	r3, [r7, #4]
 490 001a 002B     		cmp	r3, #0
 491 001c 03D1     		bne	.L15
 374:..\..\..\..\..\..\uC-CPU/cpu_core.c ****        *p_err = CPU_ERR_NULL_PTR;
 492              		.loc 1 374 0
 493 001e 3B68     		ldr	r3, [r7]
 494 0020 0A22     		movs	r2, #10
 495 0022 1A80     		strh	r2, [r3]	@ movhi
 375:..\..\..\..\..\..\uC-CPU/cpu_core.c ****         return;
 496              		.loc 1 375 0
 497 0024 1AE0     		b	.L13
 498              	.L15:
 376:..\..\..\..\..\..\uC-CPU/cpu_core.c ****     }
 377:..\..\..\..\..\..\uC-CPU/cpu_core.c **** 
 378:..\..\..\..\..\..\uC-CPU/cpu_core.c ****     len = Str_Len_N(p_name,
 499              		.loc 1 378 0
 500 0026 1021     		movs	r1, #16
 501 0028 7868     		ldr	r0, [r7, #4]
 502 002a FFF7FEFF 		bl	Str_Len_N
 503 002e B860     		str	r0, [r7, #8]
 379:..\..\..\..\..\..\uC-CPU/cpu_core.c ****                     CPU_CFG_NAME_SIZE);
 380:..\..\..\..\..\..\uC-CPU/cpu_core.c ****     if (len < CPU_CFG_NAME_SIZE) {                              /* If       cfg name len < max name
 504              		.loc 1 380 0
 505 0030 BB68     		ldr	r3, [r7, #8]
 506 0032 0F2B     		cmp	r3, #15
 507 0034 0ED8     		bhi	.L17
 381:..\..\..\..\..\..\uC-CPU/cpu_core.c ****         CPU_CRITICAL_ENTER();
 508              		.loc 1 381 0
 509 0036 FFF7FEFF 		bl	CPU_SR_Save
 510 003a F860     		str	r0, [r7, #12]
 382:..\..\..\..\..\..\uC-CPU/cpu_core.c ****        (void)Str_Copy_N(&CPU_Name[0],                           /* ... copy cfg name to CPU host na
 511              		.loc 1 382 0
 512 003c 1022     		movs	r2, #16
 513 003e 7968     		ldr	r1, [r7, #4]
 514 0040 0848     		ldr	r0, .L18
 515 0042 FFF7FEFF 		bl	Str_Copy_N
 383:..\..\..\..\..\..\uC-CPU/cpu_core.c ****                          p_name,
 384:..\..\..\..\..\..\uC-CPU/cpu_core.c ****                          CPU_CFG_NAME_SIZE);
 385:..\..\..\..\..\..\uC-CPU/cpu_core.c ****         CPU_CRITICAL_EXIT();
 516              		.loc 1 385 0
 517 0046 F868     		ldr	r0, [r7, #12]
 518 0048 FFF7FEFF 		bl	CPU_SR_Restore
 386:..\..\..\..\..\..\uC-CPU/cpu_core.c ****        *p_err = CPU_ERR_NONE;
 519              		.loc 1 386 0
 520 004c 3B68     		ldr	r3, [r7]
 521 004e 0022     		movs	r2, #0
 522 0050 1A80     		strh	r2, [r3]	@ movhi
 523 0052 03E0     		b	.L13
 524              	.L17:
 387:..\..\..\..\..\..\uC-CPU/cpu_core.c **** 
 388:..\..\..\..\..\..\uC-CPU/cpu_core.c ****     } else {
ARM GAS  C:\Users\alex\AppData\Local\Temp\ccSBLcnl.s 			page 17


 389:..\..\..\..\..\..\uC-CPU/cpu_core.c ****        *p_err = CPU_ERR_NAME_SIZE;
 525              		.loc 1 389 0
 526 0054 3B68     		ldr	r3, [r7]
 527 0056 4FF47A72 		mov	r2, #1000
 528 005a 1A80     		strh	r2, [r3]	@ movhi
 529              	.L13:
 390:..\..\..\..\..\..\uC-CPU/cpu_core.c ****     }
 391:..\..\..\..\..\..\uC-CPU/cpu_core.c **** }
 530              		.loc 1 391 0
 531 005c 1037     		adds	r7, r7, #16
 532              		.cfi_def_cfa_offset 8
 533 005e BD46     		mov	sp, r7
 534              		.cfi_def_cfa_register 13
 535              		@ sp needed
 536 0060 80BD     		pop	{r7, pc}
 537              	.L19:
 538 0062 00BF     		.align	2
 539              	.L18:
 540 0064 00000000 		.word	CPU_Name
 541              		.cfi_endproc
 542              	.LFE4:
 543              		.size	CPU_NameSet, .-CPU_NameSet
 544              		.section	.text.CPU_TS_Get32,"ax",%progbits
 545              		.align	2
 546              		.global	CPU_TS_Get32
 547              		.thumb
 548              		.thumb_func
 549              		.type	CPU_TS_Get32, %function
 550              	CPU_TS_Get32:
 551              	.LFB5:
 392:..\..\..\..\..\..\uC-CPU/cpu_core.c **** #endif
 393:..\..\..\..\..\..\uC-CPU/cpu_core.c **** 
 394:..\..\..\..\..\..\uC-CPU/cpu_core.c **** 
 395:..\..\..\..\..\..\uC-CPU/cpu_core.c **** /*$PAGE*/
 396:..\..\..\..\..\..\uC-CPU/cpu_core.c **** /*
 397:..\..\..\..\..\..\uC-CPU/cpu_core.c **** ***************************************************************************************************
 398:..\..\..\..\..\..\uC-CPU/cpu_core.c **** *                                           CPU_TS_Get32()
 399:..\..\..\..\..\..\uC-CPU/cpu_core.c **** *
 400:..\..\..\..\..\..\uC-CPU/cpu_core.c **** * Description : Get current 32-bit CPU timestamp.
 401:..\..\..\..\..\..\uC-CPU/cpu_core.c **** *
 402:..\..\..\..\..\..\uC-CPU/cpu_core.c **** * Argument(s) : none.
 403:..\..\..\..\..\..\uC-CPU/cpu_core.c **** *
 404:..\..\..\..\..\..\uC-CPU/cpu_core.c **** * Return(s)   : Current 32-bit CPU timestamp (in timestamp timer counts).
 405:..\..\..\..\..\..\uC-CPU/cpu_core.c **** *
 406:..\..\..\..\..\..\uC-CPU/cpu_core.c **** * Caller(s)   : Application.
 407:..\..\..\..\..\..\uC-CPU/cpu_core.c **** *
 408:..\..\..\..\..\..\uC-CPU/cpu_core.c **** *               This function is a CPU module application programming interface (API) function & MA
 409:..\..\..\..\..\..\uC-CPU/cpu_core.c **** *               be called by application function(s).
 410:..\..\..\..\..\..\uC-CPU/cpu_core.c **** *
 411:..\..\..\..\..\..\uC-CPU/cpu_core.c **** * Note(s)     : (1) When applicable, the amount of time measured by CPU timestamps is calculated by
 412:..\..\..\..\..\..\uC-CPU/cpu_core.c **** *                   either of the following equations :
 413:..\..\..\..\..\..\uC-CPU/cpu_core.c **** *
 414:..\..\..\..\..\..\uC-CPU/cpu_core.c **** *                       (a) Time measured  =  Number timer counts  *  Timer period
 415:..\..\..\..\..\..\uC-CPU/cpu_core.c **** *
 416:..\..\..\..\..\..\uC-CPU/cpu_core.c **** *                               where
 417:..\..\..\..\..\..\uC-CPU/cpu_core.c **** *
 418:..\..\..\..\..\..\uC-CPU/cpu_core.c **** *                                   Number timer counts     Number of timer counts measured
ARM GAS  C:\Users\alex\AppData\Local\Temp\ccSBLcnl.s 			page 18


 419:..\..\..\..\..\..\uC-CPU/cpu_core.c **** *                                   Timer period            Timer's period in some units of
 420:..\..\..\..\..\..\uC-CPU/cpu_core.c **** *                                                               (fractional) seconds
 421:..\..\..\..\..\..\uC-CPU/cpu_core.c **** *                                   Time measured           Amount of time measured, in same
 422:..\..\..\..\..\..\uC-CPU/cpu_core.c **** *                                                               units of (fractional) seconds
 423:..\..\..\..\..\..\uC-CPU/cpu_core.c **** *                                                               as the Timer period
 424:..\..\..\..\..\..\uC-CPU/cpu_core.c **** *
 425:..\..\..\..\..\..\uC-CPU/cpu_core.c **** *                                              Number timer counts
 426:..\..\..\..\..\..\uC-CPU/cpu_core.c **** *                       (b) Time measured  =  ---------------------
 427:..\..\..\..\..\..\uC-CPU/cpu_core.c **** *                                                Timer frequency
 428:..\..\..\..\..\..\uC-CPU/cpu_core.c **** *
 429:..\..\..\..\..\..\uC-CPU/cpu_core.c **** *                               where
 430:..\..\..\..\..\..\uC-CPU/cpu_core.c **** *
 431:..\..\..\..\..\..\uC-CPU/cpu_core.c **** *                                   Number timer counts     Number of timer counts measured
 432:..\..\..\..\..\..\uC-CPU/cpu_core.c **** *                                   Timer frequency         Timer's frequency in some units
 433:..\..\..\..\..\..\uC-CPU/cpu_core.c **** *                                                               of counts per second
 434:..\..\..\..\..\..\uC-CPU/cpu_core.c **** *                                   Time measured           Amount of time measured, in seconds
 435:..\..\..\..\..\..\uC-CPU/cpu_core.c **** *
 436:..\..\..\..\..\..\uC-CPU/cpu_core.c **** *                   See also 'cpu_core.h  FUNCTION PROTOTYPES  CPU_TS_TmrRd()  Note #2c1'.
 437:..\..\..\..\..\..\uC-CPU/cpu_core.c **** *
 438:..\..\..\..\..\..\uC-CPU/cpu_core.c **** *               (2) In case the CPU timestamp timer has lower precision than the 32-bit CPU timesta
 439:..\..\..\..\..\..\uC-CPU/cpu_core.c **** *                   its precision is extended via periodic updates by accumulating the deltas of th
 440:..\..\..\..\..\..\uC-CPU/cpu_core.c **** *                   timestamp timer count values into the higher-precision 32-bit CPU timestamp.
 441:..\..\..\..\..\..\uC-CPU/cpu_core.c **** *
 442:..\..\..\..\..\..\uC-CPU/cpu_core.c **** *               (3) After initialization, 'CPU_TS_32_Accum' & 'CPU_TS_32_TmrPrev' MUST ALWAYS
 443:..\..\..\..\..\..\uC-CPU/cpu_core.c **** *                   be accessed AND updated exclusively with interrupts disabled -- but NOT
 444:..\..\..\..\..\..\uC-CPU/cpu_core.c **** *                   with critical sections.
 445:..\..\..\..\..\..\uC-CPU/cpu_core.c **** ***************************************************************************************************
 446:..\..\..\..\..\..\uC-CPU/cpu_core.c **** */
 447:..\..\..\..\..\..\uC-CPU/cpu_core.c **** 
 448:..\..\..\..\..\..\uC-CPU/cpu_core.c **** #if (CPU_CFG_TS_32_EN == DEF_ENABLED)
 449:..\..\..\..\..\..\uC-CPU/cpu_core.c **** CPU_TS32  CPU_TS_Get32 (void)
 450:..\..\..\..\..\..\uC-CPU/cpu_core.c **** {
 552              		.loc 1 450 0
 553              		.cfi_startproc
 554              		@ args = 0, pretend = 0, frame = 8
 555              		@ frame_needed = 1, uses_anonymous_args = 0
 556 0000 80B5     		push	{r7, lr}
 557              		.cfi_def_cfa_offset 8
 558              		.cfi_offset 7, -8
 559              		.cfi_offset 14, -4
 560 0002 82B0     		sub	sp, sp, #8
 561              		.cfi_def_cfa_offset 16
 562 0004 00AF     		add	r7, sp, #0
 563              		.cfi_def_cfa_register 7
 451:..\..\..\..\..\..\uC-CPU/cpu_core.c ****     CPU_TS32    ts;
 452:..\..\..\..\..\..\uC-CPU/cpu_core.c **** #if (CPU_CFG_TS_TMR_SIZE <  CPU_WORD_SIZE_32)
 453:..\..\..\..\..\..\uC-CPU/cpu_core.c ****     CPU_TS_TMR  tmr_cur;
 454:..\..\..\..\..\..\uC-CPU/cpu_core.c ****     CPU_TS_TMR  tmr_delta;
 455:..\..\..\..\..\..\uC-CPU/cpu_core.c ****     CPU_SR_ALLOC();
 456:..\..\..\..\..\..\uC-CPU/cpu_core.c **** #endif
 457:..\..\..\..\..\..\uC-CPU/cpu_core.c **** 
 458:..\..\..\..\..\..\uC-CPU/cpu_core.c **** 
 459:..\..\..\..\..\..\uC-CPU/cpu_core.c **** #if (CPU_CFG_TS_TMR_SIZE >= CPU_WORD_SIZE_32)
 460:..\..\..\..\..\..\uC-CPU/cpu_core.c ****     ts = (CPU_TS32)CPU_TS_TmrRd();                                  /* Get cur ts tmr val (in 32-bi
 564              		.loc 1 460 0
 565 0006 FFF7FEFF 		bl	CPU_TS_TmrRd
 566 000a 7860     		str	r0, [r7, #4]
ARM GAS  C:\Users\alex\AppData\Local\Temp\ccSBLcnl.s 			page 19


 461:..\..\..\..\..\..\uC-CPU/cpu_core.c **** 
 462:..\..\..\..\..\..\uC-CPU/cpu_core.c **** #else
 463:..\..\..\..\..\..\uC-CPU/cpu_core.c ****     CPU_INT_DIS();
 464:..\..\..\..\..\..\uC-CPU/cpu_core.c ****     tmr_cur            = (CPU_TS_TMR) CPU_TS_TmrRd();               /* Get cur ts tmr val (in ts tm
 465:..\..\..\..\..\..\uC-CPU/cpu_core.c ****     tmr_delta          = (CPU_TS_TMR)(tmr_cur - CPU_TS_32_TmrPrev); /* Calc      delta ts tmr cnts.
 466:..\..\..\..\..\..\uC-CPU/cpu_core.c ****     CPU_TS_32_Accum   += (CPU_TS32  ) tmr_delta;                    /* Inc ts by delta ts tmr cnts 
 467:..\..\..\..\..\..\uC-CPU/cpu_core.c ****     CPU_TS_32_TmrPrev  = (CPU_TS_TMR) tmr_cur;                      /* Save cur ts tmr cnts for nex
 468:..\..\..\..\..\..\uC-CPU/cpu_core.c ****     ts                 = (CPU_TS32  ) CPU_TS_32_Accum;
 469:..\..\..\..\..\..\uC-CPU/cpu_core.c ****     CPU_INT_EN();
 470:..\..\..\..\..\..\uC-CPU/cpu_core.c **** #endif
 471:..\..\..\..\..\..\uC-CPU/cpu_core.c **** 
 472:..\..\..\..\..\..\uC-CPU/cpu_core.c ****     return (ts);
 567              		.loc 1 472 0
 568 000c 7B68     		ldr	r3, [r7, #4]
 473:..\..\..\..\..\..\uC-CPU/cpu_core.c **** }
 569              		.loc 1 473 0
 570 000e 1846     		mov	r0, r3
 571 0010 0837     		adds	r7, r7, #8
 572              		.cfi_def_cfa_offset 8
 573 0012 BD46     		mov	sp, r7
 574              		.cfi_def_cfa_register 13
 575              		@ sp needed
 576 0014 80BD     		pop	{r7, pc}
 577              		.cfi_endproc
 578              	.LFE5:
 579              		.size	CPU_TS_Get32, .-CPU_TS_Get32
 580 0016 00BF     		.section	.text.CPU_TS_Update,"ax",%progbits
 581              		.align	2
 582              		.global	CPU_TS_Update
 583              		.thumb
 584              		.thumb_func
 585              		.type	CPU_TS_Update, %function
 586              	CPU_TS_Update:
 587              	.LFB6:
 474:..\..\..\..\..\..\uC-CPU/cpu_core.c **** #endif
 475:..\..\..\..\..\..\uC-CPU/cpu_core.c **** 
 476:..\..\..\..\..\..\uC-CPU/cpu_core.c **** 
 477:..\..\..\..\..\..\uC-CPU/cpu_core.c **** /*$PAGE*/
 478:..\..\..\..\..\..\uC-CPU/cpu_core.c **** /*
 479:..\..\..\..\..\..\uC-CPU/cpu_core.c **** ***************************************************************************************************
 480:..\..\..\..\..\..\uC-CPU/cpu_core.c **** *                                           CPU_TS_Get64()
 481:..\..\..\..\..\..\uC-CPU/cpu_core.c **** *
 482:..\..\..\..\..\..\uC-CPU/cpu_core.c **** * Description : Get current 64-bit CPU timestamp.
 483:..\..\..\..\..\..\uC-CPU/cpu_core.c **** *
 484:..\..\..\..\..\..\uC-CPU/cpu_core.c **** * Argument(s) : none.
 485:..\..\..\..\..\..\uC-CPU/cpu_core.c **** *
 486:..\..\..\..\..\..\uC-CPU/cpu_core.c **** * Return(s)   : Current 64-bit CPU timestamp (in timestamp timer counts).
 487:..\..\..\..\..\..\uC-CPU/cpu_core.c **** *
 488:..\..\..\..\..\..\uC-CPU/cpu_core.c **** * Caller(s)   : Application.
 489:..\..\..\..\..\..\uC-CPU/cpu_core.c **** *
 490:..\..\..\..\..\..\uC-CPU/cpu_core.c **** *               This function is a CPU module application programming interface (API) function & MA
 491:..\..\..\..\..\..\uC-CPU/cpu_core.c **** *               be called by application function(s).
 492:..\..\..\..\..\..\uC-CPU/cpu_core.c **** *
 493:..\..\..\..\..\..\uC-CPU/cpu_core.c **** * Note(s)     : (1) When applicable, the amount of time measured by CPU timestamps is calculated by
 494:..\..\..\..\..\..\uC-CPU/cpu_core.c **** *                   either of the following equations :
 495:..\..\..\..\..\..\uC-CPU/cpu_core.c **** *
 496:..\..\..\..\..\..\uC-CPU/cpu_core.c **** *                       (a) Time measured  =  Number timer counts  *  Timer period
ARM GAS  C:\Users\alex\AppData\Local\Temp\ccSBLcnl.s 			page 20


 497:..\..\..\..\..\..\uC-CPU/cpu_core.c **** *
 498:..\..\..\..\..\..\uC-CPU/cpu_core.c **** *                               where
 499:..\..\..\..\..\..\uC-CPU/cpu_core.c **** *
 500:..\..\..\..\..\..\uC-CPU/cpu_core.c **** *                                   Number timer counts     Number of timer counts measured
 501:..\..\..\..\..\..\uC-CPU/cpu_core.c **** *                                   Timer period            Timer's period in some units of
 502:..\..\..\..\..\..\uC-CPU/cpu_core.c **** *                                                               (fractional) seconds
 503:..\..\..\..\..\..\uC-CPU/cpu_core.c **** *                                   Time measured           Amount of time measured, in same
 504:..\..\..\..\..\..\uC-CPU/cpu_core.c **** *                                                               units of (fractional) seconds
 505:..\..\..\..\..\..\uC-CPU/cpu_core.c **** *                                                               as the Timer period
 506:..\..\..\..\..\..\uC-CPU/cpu_core.c **** *
 507:..\..\..\..\..\..\uC-CPU/cpu_core.c **** *                                              Number timer counts
 508:..\..\..\..\..\..\uC-CPU/cpu_core.c **** *                       (b) Time measured  =  ---------------------
 509:..\..\..\..\..\..\uC-CPU/cpu_core.c **** *                                                Timer frequency
 510:..\..\..\..\..\..\uC-CPU/cpu_core.c **** *
 511:..\..\..\..\..\..\uC-CPU/cpu_core.c **** *                               where
 512:..\..\..\..\..\..\uC-CPU/cpu_core.c **** *
 513:..\..\..\..\..\..\uC-CPU/cpu_core.c **** *                                   Number timer counts     Number of timer counts measured
 514:..\..\..\..\..\..\uC-CPU/cpu_core.c **** *                                   Timer frequency         Timer's frequency in some units
 515:..\..\..\..\..\..\uC-CPU/cpu_core.c **** *                                                               of counts per second
 516:..\..\..\..\..\..\uC-CPU/cpu_core.c **** *                                   Time measured           Amount of time measured, in seconds
 517:..\..\..\..\..\..\uC-CPU/cpu_core.c **** *
 518:..\..\..\..\..\..\uC-CPU/cpu_core.c **** *                   See also 'cpu_core.h  FUNCTION PROTOTYPES  CPU_TS_TmrRd()  Note #2c1'.
 519:..\..\..\..\..\..\uC-CPU/cpu_core.c **** *
 520:..\..\..\..\..\..\uC-CPU/cpu_core.c **** *               (2) In case the CPU timestamp timer has lower precision than the 64-bit CPU timesta
 521:..\..\..\..\..\..\uC-CPU/cpu_core.c **** *                   its precision is extended via periodic updates by accumulating the deltas of th
 522:..\..\..\..\..\..\uC-CPU/cpu_core.c **** *                   timestamp timer count values into the higher-precision 64-bit CPU timestamp.
 523:..\..\..\..\..\..\uC-CPU/cpu_core.c **** *
 524:..\..\..\..\..\..\uC-CPU/cpu_core.c **** *               (3) After initialization, 'CPU_TS_64_Accum' & 'CPU_TS_64_TmrPrev' MUST ALWAYS
 525:..\..\..\..\..\..\uC-CPU/cpu_core.c **** *                   be accessed AND updated exclusively with interrupts disabled -- but NOT
 526:..\..\..\..\..\..\uC-CPU/cpu_core.c **** *                   with critical sections.
 527:..\..\..\..\..\..\uC-CPU/cpu_core.c **** ***************************************************************************************************
 528:..\..\..\..\..\..\uC-CPU/cpu_core.c **** */
 529:..\..\..\..\..\..\uC-CPU/cpu_core.c **** 
 530:..\..\..\..\..\..\uC-CPU/cpu_core.c **** #if (CPU_CFG_TS_64_EN == DEF_ENABLED)
 531:..\..\..\..\..\..\uC-CPU/cpu_core.c **** CPU_TS64  CPU_TS_Get64 (void)
 532:..\..\..\..\..\..\uC-CPU/cpu_core.c **** {
 533:..\..\..\..\..\..\uC-CPU/cpu_core.c ****     CPU_TS64    ts;
 534:..\..\..\..\..\..\uC-CPU/cpu_core.c **** #if (CPU_CFG_TS_TMR_SIZE <  CPU_WORD_SIZE_64)
 535:..\..\..\..\..\..\uC-CPU/cpu_core.c ****     CPU_TS_TMR  tmr_cur;
 536:..\..\..\..\..\..\uC-CPU/cpu_core.c ****     CPU_TS_TMR  tmr_delta;
 537:..\..\..\..\..\..\uC-CPU/cpu_core.c ****     CPU_SR_ALLOC();
 538:..\..\..\..\..\..\uC-CPU/cpu_core.c **** #endif
 539:..\..\..\..\..\..\uC-CPU/cpu_core.c **** 
 540:..\..\..\..\..\..\uC-CPU/cpu_core.c **** 
 541:..\..\..\..\..\..\uC-CPU/cpu_core.c **** #if (CPU_CFG_TS_TMR_SIZE >= CPU_WORD_SIZE_64)
 542:..\..\..\..\..\..\uC-CPU/cpu_core.c ****     ts = (CPU_TS64)CPU_TS_TmrRd();                                  /* Get cur ts tmr val (in 64-bi
 543:..\..\..\..\..\..\uC-CPU/cpu_core.c **** 
 544:..\..\..\..\..\..\uC-CPU/cpu_core.c **** #else
 545:..\..\..\..\..\..\uC-CPU/cpu_core.c ****     CPU_INT_DIS();
 546:..\..\..\..\..\..\uC-CPU/cpu_core.c ****     tmr_cur            = (CPU_TS_TMR) CPU_TS_TmrRd();               /* Get cur ts tmr val (in ts tm
 547:..\..\..\..\..\..\uC-CPU/cpu_core.c ****     tmr_delta          = (CPU_TS_TMR)(tmr_cur - CPU_TS_64_TmrPrev); /* Calc      delta ts tmr cnts.
 548:..\..\..\..\..\..\uC-CPU/cpu_core.c ****     CPU_TS_64_Accum   += (CPU_TS64  ) tmr_delta;                    /* Inc ts by delta ts tmr cnts 
 549:..\..\..\..\..\..\uC-CPU/cpu_core.c ****     CPU_TS_64_TmrPrev  = (CPU_TS_TMR) tmr_cur;                      /* Save cur ts tmr cnts for nex
 550:..\..\..\..\..\..\uC-CPU/cpu_core.c ****     ts                 = (CPU_TS64  ) CPU_TS_64_Accum;
 551:..\..\..\..\..\..\uC-CPU/cpu_core.c ****     CPU_INT_EN();
 552:..\..\..\..\..\..\uC-CPU/cpu_core.c **** #endif
 553:..\..\..\..\..\..\uC-CPU/cpu_core.c **** 
ARM GAS  C:\Users\alex\AppData\Local\Temp\ccSBLcnl.s 			page 21


 554:..\..\..\..\..\..\uC-CPU/cpu_core.c ****     return (ts);
 555:..\..\..\..\..\..\uC-CPU/cpu_core.c **** }
 556:..\..\..\..\..\..\uC-CPU/cpu_core.c **** #endif
 557:..\..\..\..\..\..\uC-CPU/cpu_core.c **** 
 558:..\..\..\..\..\..\uC-CPU/cpu_core.c **** 
 559:..\..\..\..\..\..\uC-CPU/cpu_core.c **** /*$PAGE*/
 560:..\..\..\..\..\..\uC-CPU/cpu_core.c **** /*
 561:..\..\..\..\..\..\uC-CPU/cpu_core.c **** ***************************************************************************************************
 562:..\..\..\..\..\..\uC-CPU/cpu_core.c **** *                                           CPU_TS_Update()
 563:..\..\..\..\..\..\uC-CPU/cpu_core.c **** *
 564:..\..\..\..\..\..\uC-CPU/cpu_core.c **** * Description : Update current CPU timestamp(s).
 565:..\..\..\..\..\..\uC-CPU/cpu_core.c **** *
 566:..\..\..\..\..\..\uC-CPU/cpu_core.c **** * Argument(s) : none.
 567:..\..\..\..\..\..\uC-CPU/cpu_core.c **** *
 568:..\..\..\..\..\..\uC-CPU/cpu_core.c **** * Return(s)   : none.
 569:..\..\..\..\..\..\uC-CPU/cpu_core.c **** *
 570:..\..\..\..\..\..\uC-CPU/cpu_core.c **** * Caller(s)   : Application/BSP periodic time handler (see Note #1).
 571:..\..\..\..\..\..\uC-CPU/cpu_core.c **** *
 572:..\..\..\..\..\..\uC-CPU/cpu_core.c **** *               This function is a CPU timestamp BSP function & SHOULD be called only by appropriat
 573:..\..\..\..\..\..\uC-CPU/cpu_core.c **** *               application/BSP function(s).
 574:..\..\..\..\..\..\uC-CPU/cpu_core.c **** *
 575:..\..\..\..\..\..\uC-CPU/cpu_core.c **** * Note(s)     : (1) (a) CPU timestamp(s) MUST be updated periodically by some application (or BSP) 
 576:..\..\..\..\..\..\uC-CPU/cpu_core.c **** *                       handler in order to (adequately) maintain CPU timestamp(s)' time.
 577:..\..\..\..\..\..\uC-CPU/cpu_core.c **** *
 578:..\..\..\..\..\..\uC-CPU/cpu_core.c **** *                   (b) CPU timestamp(s) MUST be updated more frequently than the CPU timestamp tim
 579:..\..\..\..\..\..\uC-CPU/cpu_core.c **** *                       overflows; otherwise, CPU timestamp(s) will lose time.
 580:..\..\..\..\..\..\uC-CPU/cpu_core.c **** *
 581:..\..\..\..\..\..\uC-CPU/cpu_core.c **** *                       See also 'cpu_core.h  FUNCTION PROTOTYPES  CPU_TS_TmrRd()  Note #2c2'.
 582:..\..\..\..\..\..\uC-CPU/cpu_core.c **** ***************************************************************************************************
 583:..\..\..\..\..\..\uC-CPU/cpu_core.c **** */
 584:..\..\..\..\..\..\uC-CPU/cpu_core.c **** 
 585:..\..\..\..\..\..\uC-CPU/cpu_core.c **** #if (CPU_CFG_TS_EN == DEF_ENABLED)
 586:..\..\..\..\..\..\uC-CPU/cpu_core.c **** void  CPU_TS_Update (void)
 587:..\..\..\..\..\..\uC-CPU/cpu_core.c **** {
 588              		.loc 1 587 0
 589              		.cfi_startproc
 590              		@ args = 0, pretend = 0, frame = 0
 591              		@ frame_needed = 1, uses_anonymous_args = 0
 592              		@ link register save eliminated.
 593 0000 80B4     		push	{r7}
 594              		.cfi_def_cfa_offset 4
 595              		.cfi_offset 7, -4
 596 0002 00AF     		add	r7, sp, #0
 597              		.cfi_def_cfa_register 7
 588:..\..\..\..\..\..\uC-CPU/cpu_core.c **** #if ((CPU_CFG_TS_32_EN    == DEF_ENABLED)  && \
 589:..\..\..\..\..\..\uC-CPU/cpu_core.c ****      (CPU_CFG_TS_TMR_SIZE <  CPU_WORD_SIZE_32))
 590:..\..\..\..\..\..\uC-CPU/cpu_core.c ****    (void)CPU_TS_Get32();
 591:..\..\..\..\..\..\uC-CPU/cpu_core.c **** #endif
 592:..\..\..\..\..\..\uC-CPU/cpu_core.c **** 
 593:..\..\..\..\..\..\uC-CPU/cpu_core.c **** #if ((CPU_CFG_TS_64_EN    == DEF_ENABLED)  && \
 594:..\..\..\..\..\..\uC-CPU/cpu_core.c ****      (CPU_CFG_TS_TMR_SIZE <  CPU_WORD_SIZE_64))
 595:..\..\..\..\..\..\uC-CPU/cpu_core.c ****    (void)CPU_TS_Get64();
 596:..\..\..\..\..\..\uC-CPU/cpu_core.c **** #endif
 597:..\..\..\..\..\..\uC-CPU/cpu_core.c **** }
 598              		.loc 1 597 0
 599 0004 00BF     		nop
 600 0006 BD46     		mov	sp, r7
ARM GAS  C:\Users\alex\AppData\Local\Temp\ccSBLcnl.s 			page 22


 601              		.cfi_def_cfa_register 13
 602              		@ sp needed
 603 0008 80BC     		pop	{r7}
 604              		.cfi_restore 7
 605              		.cfi_def_cfa_offset 0
 606 000a 7047     		bx	lr
 607              		.cfi_endproc
 608              	.LFE6:
 609              		.size	CPU_TS_Update, .-CPU_TS_Update
 610              		.section	.text.CPU_TS_TmrFreqGet,"ax",%progbits
 611              		.align	2
 612              		.global	CPU_TS_TmrFreqGet
 613              		.thumb
 614              		.thumb_func
 615              		.type	CPU_TS_TmrFreqGet, %function
 616              	CPU_TS_TmrFreqGet:
 617              	.LFB7:
 598:..\..\..\..\..\..\uC-CPU/cpu_core.c **** #endif
 599:..\..\..\..\..\..\uC-CPU/cpu_core.c **** 
 600:..\..\..\..\..\..\uC-CPU/cpu_core.c **** 
 601:..\..\..\..\..\..\uC-CPU/cpu_core.c **** /*$PAGE*/
 602:..\..\..\..\..\..\uC-CPU/cpu_core.c **** /*
 603:..\..\..\..\..\..\uC-CPU/cpu_core.c **** ***************************************************************************************************
 604:..\..\..\..\..\..\uC-CPU/cpu_core.c **** *                                         CPU_TS_TmrFreqGet()
 605:..\..\..\..\..\..\uC-CPU/cpu_core.c **** *
 606:..\..\..\..\..\..\uC-CPU/cpu_core.c **** * Description : Get CPU timestamp's timer frequency.
 607:..\..\..\..\..\..\uC-CPU/cpu_core.c **** *
 608:..\..\..\..\..\..\uC-CPU/cpu_core.c **** * Argument(s) : p_err       Pointer to variable that will receive the return error code from this f
 609:..\..\..\..\..\..\uC-CPU/cpu_core.c **** *
 610:..\..\..\..\..\..\uC-CPU/cpu_core.c **** *                               CPU_ERR_NONE                    CPU timestamp's timer frequency suc
 611:..\..\..\..\..\..\uC-CPU/cpu_core.c **** *                                                                   returned.
 612:..\..\..\..\..\..\uC-CPU/cpu_core.c **** *                               CPU_ERR_TS_FREQ_INVALID         CPU timestamp's timer frequency inv
 613:..\..\..\..\..\..\uC-CPU/cpu_core.c **** *                                                                   NOT yet configured.
 614:..\..\..\..\..\..\uC-CPU/cpu_core.c **** *
 615:..\..\..\..\..\..\uC-CPU/cpu_core.c **** * Return(s)   : CPU timestamp's timer frequency (in Hertz), if NO error(s).
 616:..\..\..\..\..\..\uC-CPU/cpu_core.c **** *
 617:..\..\..\..\..\..\uC-CPU/cpu_core.c **** *               0,                                          otherwise.
 618:..\..\..\..\..\..\uC-CPU/cpu_core.c **** *
 619:..\..\..\..\..\..\uC-CPU/cpu_core.c **** * Caller(s)   : Application.
 620:..\..\..\..\..\..\uC-CPU/cpu_core.c **** *
 621:..\..\..\..\..\..\uC-CPU/cpu_core.c **** *               This function is a CPU module application programming interface (API) function & MA
 622:..\..\..\..\..\..\uC-CPU/cpu_core.c **** *               called by application function(s).
 623:..\..\..\..\..\..\uC-CPU/cpu_core.c **** *
 624:..\..\..\..\..\..\uC-CPU/cpu_core.c **** * Note(s)     : none.
 625:..\..\..\..\..\..\uC-CPU/cpu_core.c **** ***************************************************************************************************
 626:..\..\..\..\..\..\uC-CPU/cpu_core.c **** */
 627:..\..\..\..\..\..\uC-CPU/cpu_core.c **** 
 628:..\..\..\..\..\..\uC-CPU/cpu_core.c **** #if (CPU_CFG_TS_TMR_EN == DEF_ENABLED)
 629:..\..\..\..\..\..\uC-CPU/cpu_core.c **** CPU_TS_TMR_FREQ  CPU_TS_TmrFreqGet (CPU_ERR  *p_err)
 630:..\..\..\..\..\..\uC-CPU/cpu_core.c **** {
 618              		.loc 1 630 0
 619              		.cfi_startproc
 620              		@ args = 0, pretend = 0, frame = 16
 621              		@ frame_needed = 1, uses_anonymous_args = 0
 622 0000 80B5     		push	{r7, lr}
 623              		.cfi_def_cfa_offset 8
 624              		.cfi_offset 7, -8
ARM GAS  C:\Users\alex\AppData\Local\Temp\ccSBLcnl.s 			page 23


 625              		.cfi_offset 14, -4
 626 0002 84B0     		sub	sp, sp, #16
 627              		.cfi_def_cfa_offset 24
 628 0004 00AF     		add	r7, sp, #0
 629              		.cfi_def_cfa_register 7
 630 0006 7860     		str	r0, [r7, #4]
 631:..\..\..\..\..\..\uC-CPU/cpu_core.c ****     CPU_TS_TMR_FREQ  freq_hz;
 632:..\..\..\..\..\..\uC-CPU/cpu_core.c **** 
 633:..\..\..\..\..\..\uC-CPU/cpu_core.c **** 
 634:..\..\..\..\..\..\uC-CPU/cpu_core.c ****     if (p_err == (CPU_ERR *)0) {
 631              		.loc 1 634 0
 632 0008 7B68     		ldr	r3, [r7, #4]
 633 000a 002B     		cmp	r3, #0
 634 000c 01D1     		bne	.L24
 635:..\..\..\..\..\..\uC-CPU/cpu_core.c ****         CPU_SW_EXCEPTION(;);
 635              		.loc 1 635 0
 636 000e FFF7FEFF 		bl	CPU_SW_Exception
 637              	.L24:
 636:..\..\..\..\..\..\uC-CPU/cpu_core.c ****     }
 637:..\..\..\..\..\..\uC-CPU/cpu_core.c **** 
 638:..\..\..\..\..\..\uC-CPU/cpu_core.c ****     freq_hz =  CPU_TS_TmrFreq_Hz;
 638              		.loc 1 638 0
 639 0012 084B     		ldr	r3, .L28
 640 0014 1B68     		ldr	r3, [r3]
 641 0016 FB60     		str	r3, [r7, #12]
 639:..\..\..\..\..\..\uC-CPU/cpu_core.c ****    *p_err   = (freq_hz != 0u) ? CPU_ERR_NONE : CPU_ERR_TS_FREQ_INVALID;
 642              		.loc 1 639 0
 643 0018 FB68     		ldr	r3, [r7, #12]
 644 001a 002B     		cmp	r3, #0
 645 001c 01D0     		beq	.L25
 646              		.loc 1 639 0 is_stmt 0 discriminator 1
 647 001e 0022     		movs	r2, #0
 648 0020 01E0     		b	.L26
 649              	.L25:
 650              		.loc 1 639 0 discriminator 2
 651 0022 4FF4FA62 		mov	r2, #2000
 652              	.L26:
 653              		.loc 1 639 0 discriminator 4
 654 0026 7B68     		ldr	r3, [r7, #4]
 655 0028 1A80     		strh	r2, [r3]	@ movhi
 640:..\..\..\..\..\..\uC-CPU/cpu_core.c **** 
 641:..\..\..\..\..\..\uC-CPU/cpu_core.c ****     return (freq_hz);
 656              		.loc 1 641 0 is_stmt 1 discriminator 4
 657 002a FB68     		ldr	r3, [r7, #12]
 642:..\..\..\..\..\..\uC-CPU/cpu_core.c **** }
 658              		.loc 1 642 0 discriminator 4
 659 002c 1846     		mov	r0, r3
 660 002e 1037     		adds	r7, r7, #16
 661              		.cfi_def_cfa_offset 8
 662 0030 BD46     		mov	sp, r7
 663              		.cfi_def_cfa_register 13
 664              		@ sp needed
 665 0032 80BD     		pop	{r7, pc}
 666              	.L29:
 667              		.align	2
 668              	.L28:
 669 0034 00000000 		.word	CPU_TS_TmrFreq_Hz
ARM GAS  C:\Users\alex\AppData\Local\Temp\ccSBLcnl.s 			page 24


 670              		.cfi_endproc
 671              	.LFE7:
 672              		.size	CPU_TS_TmrFreqGet, .-CPU_TS_TmrFreqGet
 673              		.section	.text.CPU_TS_TmrFreqSet,"ax",%progbits
 674              		.align	2
 675              		.global	CPU_TS_TmrFreqSet
 676              		.thumb
 677              		.thumb_func
 678              		.type	CPU_TS_TmrFreqSet, %function
 679              	CPU_TS_TmrFreqSet:
 680              	.LFB8:
 643:..\..\..\..\..\..\uC-CPU/cpu_core.c **** #endif
 644:..\..\..\..\..\..\uC-CPU/cpu_core.c **** 
 645:..\..\..\..\..\..\uC-CPU/cpu_core.c **** 
 646:..\..\..\..\..\..\uC-CPU/cpu_core.c **** /*$PAGE*/
 647:..\..\..\..\..\..\uC-CPU/cpu_core.c **** /*
 648:..\..\..\..\..\..\uC-CPU/cpu_core.c **** ***************************************************************************************************
 649:..\..\..\..\..\..\uC-CPU/cpu_core.c **** *                                         CPU_TS_TmrFreqSet()
 650:..\..\..\..\..\..\uC-CPU/cpu_core.c **** *
 651:..\..\..\..\..\..\uC-CPU/cpu_core.c **** * Description : Set CPU timestamp's timer frequency.
 652:..\..\..\..\..\..\uC-CPU/cpu_core.c **** *
 653:..\..\..\..\..\..\uC-CPU/cpu_core.c **** * Argument(s) : freq_hz     Frequency (in Hertz) to set for CPU timestamp's timer.
 654:..\..\..\..\..\..\uC-CPU/cpu_core.c **** *
 655:..\..\..\..\..\..\uC-CPU/cpu_core.c **** * Return(s)   : none.
 656:..\..\..\..\..\..\uC-CPU/cpu_core.c **** *
 657:..\..\..\..\..\..\uC-CPU/cpu_core.c **** * Caller(s)   : CPU_TS_TmrInit(),
 658:..\..\..\..\..\..\uC-CPU/cpu_core.c **** *               Application/BSP initialization function(s).
 659:..\..\..\..\..\..\uC-CPU/cpu_core.c **** *
 660:..\..\..\..\..\..\uC-CPU/cpu_core.c **** *               This function is a CPU module BSP function & SHOULD be called only by appropriate
 661:..\..\..\..\..\..\uC-CPU/cpu_core.c **** *               application/BSP function(s) [see Note #1].
 662:..\..\..\..\..\..\uC-CPU/cpu_core.c **** *
 663:..\..\..\..\..\..\uC-CPU/cpu_core.c **** * Note(s)     : (1) (a) (1) CPU timestamp timer frequency is NOT required for internal CPU timestam
 664:..\..\..\..\..\..\uC-CPU/cpu_core.c **** *                           operations but may OPTIONALLY be configured by CPU_TS_TmrInit() or othe
 665:..\..\..\..\..\..\uC-CPU/cpu_core.c **** *                           application/BSP initialization functions.
 666:..\..\..\..\..\..\uC-CPU/cpu_core.c **** *
 667:..\..\..\..\..\..\uC-CPU/cpu_core.c **** *                       (2) CPU timestamp timer frequency MAY be used with optional CPU_TSxx_to_uSe
 668:..\..\..\..\..\..\uC-CPU/cpu_core.c **** *                           to convert CPU timestamps from timer counts into microseconds.
 669:..\..\..\..\..\..\uC-CPU/cpu_core.c **** *
 670:..\..\..\..\..\..\uC-CPU/cpu_core.c **** *                           See also 'cpu_core.h  FUNCTION PROTOTYPES  CPU_TSxx_to_uSec()  Note #2a
 671:..\..\..\..\..\..\uC-CPU/cpu_core.c **** *
 672:..\..\..\..\..\..\uC-CPU/cpu_core.c **** *                   (b) CPU timestamp timer period SHOULD be less than the typical measured time bu
 673:..\..\..\..\..\..\uC-CPU/cpu_core.c **** *                       be less than the maximum measured time; otherwise, timer resolution inadequ
 674:..\..\..\..\..\..\uC-CPU/cpu_core.c **** *                       measure desired times.
 675:..\..\..\..\..\..\uC-CPU/cpu_core.c **** *
 676:..\..\..\..\..\..\uC-CPU/cpu_core.c **** *                       See also 'cpu_core.h  FUNCTION PROTOTYPES  CPU_TSxx_to_uSec()  Note #2b'.
 677:..\..\..\..\..\..\uC-CPU/cpu_core.c **** ***************************************************************************************************
 678:..\..\..\..\..\..\uC-CPU/cpu_core.c **** */
 679:..\..\..\..\..\..\uC-CPU/cpu_core.c **** 
 680:..\..\..\..\..\..\uC-CPU/cpu_core.c **** #if (CPU_CFG_TS_TMR_EN == DEF_ENABLED)
 681:..\..\..\..\..\..\uC-CPU/cpu_core.c **** void  CPU_TS_TmrFreqSet (CPU_TS_TMR_FREQ  freq_hz)
 682:..\..\..\..\..\..\uC-CPU/cpu_core.c **** {
 681              		.loc 1 682 0
 682              		.cfi_startproc
 683              		@ args = 0, pretend = 0, frame = 8
 684              		@ frame_needed = 1, uses_anonymous_args = 0
 685              		@ link register save eliminated.
 686 0000 80B4     		push	{r7}
ARM GAS  C:\Users\alex\AppData\Local\Temp\ccSBLcnl.s 			page 25


 687              		.cfi_def_cfa_offset 4
 688              		.cfi_offset 7, -4
 689 0002 83B0     		sub	sp, sp, #12
 690              		.cfi_def_cfa_offset 16
 691 0004 00AF     		add	r7, sp, #0
 692              		.cfi_def_cfa_register 7
 693 0006 7860     		str	r0, [r7, #4]
 683:..\..\..\..\..\..\uC-CPU/cpu_core.c ****     CPU_TS_TmrFreq_Hz = freq_hz;
 694              		.loc 1 683 0
 695 0008 034A     		ldr	r2, .L31
 696 000a 7B68     		ldr	r3, [r7, #4]
 697 000c 1360     		str	r3, [r2]
 684:..\..\..\..\..\..\uC-CPU/cpu_core.c **** }
 698              		.loc 1 684 0
 699 000e 00BF     		nop
 700 0010 0C37     		adds	r7, r7, #12
 701              		.cfi_def_cfa_offset 4
 702 0012 BD46     		mov	sp, r7
 703              		.cfi_def_cfa_register 13
 704              		@ sp needed
 705 0014 80BC     		pop	{r7}
 706              		.cfi_restore 7
 707              		.cfi_def_cfa_offset 0
 708 0016 7047     		bx	lr
 709              	.L32:
 710              		.align	2
 711              	.L31:
 712 0018 00000000 		.word	CPU_TS_TmrFreq_Hz
 713              		.cfi_endproc
 714              	.LFE8:
 715              		.size	CPU_TS_TmrFreqSet, .-CPU_TS_TmrFreqSet
 716              		.section	.text.CPU_CntLeadZeros08,"ax",%progbits
 717              		.align	2
 718              		.global	CPU_CntLeadZeros08
 719              		.thumb
 720              		.thumb_func
 721              		.type	CPU_CntLeadZeros08, %function
 722              	CPU_CntLeadZeros08:
 723              	.LFB9:
 685:..\..\..\..\..\..\uC-CPU/cpu_core.c **** #endif
 686:..\..\..\..\..\..\uC-CPU/cpu_core.c **** 
 687:..\..\..\..\..\..\uC-CPU/cpu_core.c **** 
 688:..\..\..\..\..\..\uC-CPU/cpu_core.c **** /*$PAGE*/
 689:..\..\..\..\..\..\uC-CPU/cpu_core.c **** /*
 690:..\..\..\..\..\..\uC-CPU/cpu_core.c **** ***************************************************************************************************
 691:..\..\..\..\..\..\uC-CPU/cpu_core.c **** *                                     CPU_IntDisMeasMaxCurReset()
 692:..\..\..\..\..\..\uC-CPU/cpu_core.c **** *
 693:..\..\..\..\..\..\uC-CPU/cpu_core.c **** * Description : Reset current maximum interrupts disabled time.
 694:..\..\..\..\..\..\uC-CPU/cpu_core.c **** *
 695:..\..\..\..\..\..\uC-CPU/cpu_core.c **** * Argument(s) : none.
 696:..\..\..\..\..\..\uC-CPU/cpu_core.c **** *
 697:..\..\..\..\..\..\uC-CPU/cpu_core.c **** * Return(s)   : Maximum interrupts disabled time (in CPU timestamp timer counts) before resetting.
 698:..\..\..\..\..\..\uC-CPU/cpu_core.c **** *
 699:..\..\..\..\..\..\uC-CPU/cpu_core.c **** *               See also 'cpu_core.h  FUNCTION PROTOTYPES  CPU_TS_TmrRd()      Note #2c'
 700:..\..\..\..\..\..\uC-CPU/cpu_core.c **** *                      & 'cpu_core.h  FUNCTION PROTOTYPES  CPU_TSxx_to_uSec()  Note #2'.
 701:..\..\..\..\..\..\uC-CPU/cpu_core.c **** *
 702:..\..\..\..\..\..\uC-CPU/cpu_core.c **** * Caller(s)   : Application.
ARM GAS  C:\Users\alex\AppData\Local\Temp\ccSBLcnl.s 			page 26


 703:..\..\..\..\..\..\uC-CPU/cpu_core.c **** *
 704:..\..\..\..\..\..\uC-CPU/cpu_core.c **** *               This function is a CPU module application programming interface (API) function 
 705:..\..\..\..\..\..\uC-CPU/cpu_core.c **** *               & MAY be called by application function(s).
 706:..\..\..\..\..\..\uC-CPU/cpu_core.c **** *
 707:..\..\..\..\..\..\uC-CPU/cpu_core.c **** * Note(s)     : (1) After initialization, 'CPU_IntDisMeasMaxCur_cnts' MUST ALWAYS be accessed
 708:..\..\..\..\..\..\uC-CPU/cpu_core.c **** *                   exclusively with interrupts disabled -- but NOT with critical sections.
 709:..\..\..\..\..\..\uC-CPU/cpu_core.c **** ***************************************************************************************************
 710:..\..\..\..\..\..\uC-CPU/cpu_core.c **** */
 711:..\..\..\..\..\..\uC-CPU/cpu_core.c **** 
 712:..\..\..\..\..\..\uC-CPU/cpu_core.c **** #ifdef  CPU_CFG_INT_DIS_MEAS_EN
 713:..\..\..\..\..\..\uC-CPU/cpu_core.c **** CPU_TS_TMR  CPU_IntDisMeasMaxCurReset (void)
 714:..\..\..\..\..\..\uC-CPU/cpu_core.c **** {
 715:..\..\..\..\..\..\uC-CPU/cpu_core.c ****     CPU_TS_TMR  time_max_cnts;
 716:..\..\..\..\..\..\uC-CPU/cpu_core.c ****     CPU_SR_ALLOC();
 717:..\..\..\..\..\..\uC-CPU/cpu_core.c **** 
 718:..\..\..\..\..\..\uC-CPU/cpu_core.c **** 
 719:..\..\..\..\..\..\uC-CPU/cpu_core.c ****     time_max_cnts             = CPU_IntDisMeasMaxCurGet();
 720:..\..\..\..\..\..\uC-CPU/cpu_core.c ****     CPU_INT_DIS();
 721:..\..\..\..\..\..\uC-CPU/cpu_core.c ****     CPU_IntDisMeasMaxCur_cnts = 0u;
 722:..\..\..\..\..\..\uC-CPU/cpu_core.c ****     CPU_INT_EN();
 723:..\..\..\..\..\..\uC-CPU/cpu_core.c **** 
 724:..\..\..\..\..\..\uC-CPU/cpu_core.c ****     return (time_max_cnts);
 725:..\..\..\..\..\..\uC-CPU/cpu_core.c **** }
 726:..\..\..\..\..\..\uC-CPU/cpu_core.c **** #endif
 727:..\..\..\..\..\..\uC-CPU/cpu_core.c **** 
 728:..\..\..\..\..\..\uC-CPU/cpu_core.c **** 
 729:..\..\..\..\..\..\uC-CPU/cpu_core.c **** /*$PAGE*/
 730:..\..\..\..\..\..\uC-CPU/cpu_core.c **** /*
 731:..\..\..\..\..\..\uC-CPU/cpu_core.c **** ***************************************************************************************************
 732:..\..\..\..\..\..\uC-CPU/cpu_core.c **** *                                      CPU_IntDisMeasMaxCurGet()
 733:..\..\..\..\..\..\uC-CPU/cpu_core.c **** *
 734:..\..\..\..\..\..\uC-CPU/cpu_core.c **** * Description : Get current maximum interrupts disabled time.
 735:..\..\..\..\..\..\uC-CPU/cpu_core.c **** *
 736:..\..\..\..\..\..\uC-CPU/cpu_core.c **** * Argument(s) : none.
 737:..\..\..\..\..\..\uC-CPU/cpu_core.c **** *
 738:..\..\..\..\..\..\uC-CPU/cpu_core.c **** * Return(s)   : Current maximum interrupts disabled time (in CPU timestamp timer counts).
 739:..\..\..\..\..\..\uC-CPU/cpu_core.c **** *
 740:..\..\..\..\..\..\uC-CPU/cpu_core.c **** *               See also 'cpu_core.h  FUNCTION PROTOTYPES  CPU_TS_TmrRd()      Note #2c'
 741:..\..\..\..\..\..\uC-CPU/cpu_core.c **** *                      & 'cpu_core.h  FUNCTION PROTOTYPES  CPU_TSxx_to_uSec()  Note #2'.
 742:..\..\..\..\..\..\uC-CPU/cpu_core.c **** *
 743:..\..\..\..\..\..\uC-CPU/cpu_core.c **** * Caller(s)   : CPU_IntDisMeasMaxCurReset(),
 744:..\..\..\..\..\..\uC-CPU/cpu_core.c **** *               Application.
 745:..\..\..\..\..\..\uC-CPU/cpu_core.c **** *
 746:..\..\..\..\..\..\uC-CPU/cpu_core.c **** *               This function is a CPU module application programming interface (API) function 
 747:..\..\..\..\..\..\uC-CPU/cpu_core.c **** *               & MAY be called by application function(s).
 748:..\..\..\..\..\..\uC-CPU/cpu_core.c **** *
 749:..\..\..\..\..\..\uC-CPU/cpu_core.c **** * Note(s)     : (1) After initialization, 'CPU_IntDisMeasMaxCur_cnts' MUST ALWAYS be accessed
 750:..\..\..\..\..\..\uC-CPU/cpu_core.c **** *                   exclusively with interrupts disabled -- but NOT with critical sections.
 751:..\..\..\..\..\..\uC-CPU/cpu_core.c **** ***************************************************************************************************
 752:..\..\..\..\..\..\uC-CPU/cpu_core.c **** */
 753:..\..\..\..\..\..\uC-CPU/cpu_core.c **** 
 754:..\..\..\..\..\..\uC-CPU/cpu_core.c **** #ifdef  CPU_CFG_INT_DIS_MEAS_EN
 755:..\..\..\..\..\..\uC-CPU/cpu_core.c **** CPU_TS_TMR  CPU_IntDisMeasMaxCurGet (void)
 756:..\..\..\..\..\..\uC-CPU/cpu_core.c **** {
 757:..\..\..\..\..\..\uC-CPU/cpu_core.c ****     CPU_TS_TMR  time_tot_cnts;
 758:..\..\..\..\..\..\uC-CPU/cpu_core.c ****     CPU_TS_TMR  time_max_cnts;
 759:..\..\..\..\..\..\uC-CPU/cpu_core.c ****     CPU_SR_ALLOC();
ARM GAS  C:\Users\alex\AppData\Local\Temp\ccSBLcnl.s 			page 27


 760:..\..\..\..\..\..\uC-CPU/cpu_core.c **** 
 761:..\..\..\..\..\..\uC-CPU/cpu_core.c **** 
 762:..\..\..\..\..\..\uC-CPU/cpu_core.c ****     CPU_INT_DIS();
 763:..\..\..\..\..\..\uC-CPU/cpu_core.c ****     time_tot_cnts = CPU_IntDisMeasMaxCur_cnts;
 764:..\..\..\..\..\..\uC-CPU/cpu_core.c ****     CPU_INT_EN();
 765:..\..\..\..\..\..\uC-CPU/cpu_core.c ****     time_max_cnts = CPU_IntDisMeasMaxCalc(time_tot_cnts);
 766:..\..\..\..\..\..\uC-CPU/cpu_core.c **** 
 767:..\..\..\..\..\..\uC-CPU/cpu_core.c ****     return (time_max_cnts);
 768:..\..\..\..\..\..\uC-CPU/cpu_core.c **** }
 769:..\..\..\..\..\..\uC-CPU/cpu_core.c **** #endif
 770:..\..\..\..\..\..\uC-CPU/cpu_core.c **** 
 771:..\..\..\..\..\..\uC-CPU/cpu_core.c **** 
 772:..\..\..\..\..\..\uC-CPU/cpu_core.c **** /*$PAGE*/
 773:..\..\..\..\..\..\uC-CPU/cpu_core.c **** /*
 774:..\..\..\..\..\..\uC-CPU/cpu_core.c **** ***************************************************************************************************
 775:..\..\..\..\..\..\uC-CPU/cpu_core.c **** *                                       CPU_IntDisMeasMaxGet()
 776:..\..\..\..\..\..\uC-CPU/cpu_core.c **** *
 777:..\..\..\..\..\..\uC-CPU/cpu_core.c **** * Description : Get (non-resetable) maximum interrupts disabled time.
 778:..\..\..\..\..\..\uC-CPU/cpu_core.c **** *
 779:..\..\..\..\..\..\uC-CPU/cpu_core.c **** * Argument(s) : none.
 780:..\..\..\..\..\..\uC-CPU/cpu_core.c **** *
 781:..\..\..\..\..\..\uC-CPU/cpu_core.c **** * Return(s)   : (Non-resetable) maximum interrupts disabled time (in CPU timestamp timer counts).
 782:..\..\..\..\..\..\uC-CPU/cpu_core.c **** *
 783:..\..\..\..\..\..\uC-CPU/cpu_core.c **** *               See also 'cpu_core.h  FUNCTION PROTOTYPES  CPU_TS_TmrRd()      Note #2c'
 784:..\..\..\..\..\..\uC-CPU/cpu_core.c **** *                      & 'cpu_core.h  FUNCTION PROTOTYPES  CPU_TSxx_to_uSec()  Note #2'.
 785:..\..\..\..\..\..\uC-CPU/cpu_core.c **** *
 786:..\..\..\..\..\..\uC-CPU/cpu_core.c **** * Caller(s)   : CPU_IntDisMeasInit(),
 787:..\..\..\..\..\..\uC-CPU/cpu_core.c **** *               Application.
 788:..\..\..\..\..\..\uC-CPU/cpu_core.c **** *
 789:..\..\..\..\..\..\uC-CPU/cpu_core.c **** *               This function is a CPU module application programming interface (API) function 
 790:..\..\..\..\..\..\uC-CPU/cpu_core.c **** *               & MAY be called by application function(s).
 791:..\..\..\..\..\..\uC-CPU/cpu_core.c **** *
 792:..\..\..\..\..\..\uC-CPU/cpu_core.c **** * Note(s)     : (1) After initialization, 'CPU_IntDisMeasMax_cnts' MUST ALWAYS be accessed
 793:..\..\..\..\..\..\uC-CPU/cpu_core.c **** *                   exclusively with interrupts disabled -- but NOT with critical sections.
 794:..\..\..\..\..\..\uC-CPU/cpu_core.c **** ***************************************************************************************************
 795:..\..\..\..\..\..\uC-CPU/cpu_core.c **** */
 796:..\..\..\..\..\..\uC-CPU/cpu_core.c **** 
 797:..\..\..\..\..\..\uC-CPU/cpu_core.c **** #ifdef  CPU_CFG_INT_DIS_MEAS_EN
 798:..\..\..\..\..\..\uC-CPU/cpu_core.c **** CPU_TS_TMR  CPU_IntDisMeasMaxGet (void)
 799:..\..\..\..\..\..\uC-CPU/cpu_core.c **** {
 800:..\..\..\..\..\..\uC-CPU/cpu_core.c ****     CPU_TS_TMR  time_tot_cnts;
 801:..\..\..\..\..\..\uC-CPU/cpu_core.c ****     CPU_TS_TMR  time_max_cnts;
 802:..\..\..\..\..\..\uC-CPU/cpu_core.c ****     CPU_SR_ALLOC();
 803:..\..\..\..\..\..\uC-CPU/cpu_core.c **** 
 804:..\..\..\..\..\..\uC-CPU/cpu_core.c **** 
 805:..\..\..\..\..\..\uC-CPU/cpu_core.c ****     CPU_INT_DIS();
 806:..\..\..\..\..\..\uC-CPU/cpu_core.c ****     time_tot_cnts = CPU_IntDisMeasMax_cnts;
 807:..\..\..\..\..\..\uC-CPU/cpu_core.c ****     CPU_INT_EN();
 808:..\..\..\..\..\..\uC-CPU/cpu_core.c ****     time_max_cnts = CPU_IntDisMeasMaxCalc(time_tot_cnts);
 809:..\..\..\..\..\..\uC-CPU/cpu_core.c **** 
 810:..\..\..\..\..\..\uC-CPU/cpu_core.c ****     return (time_max_cnts);
 811:..\..\..\..\..\..\uC-CPU/cpu_core.c **** }
 812:..\..\..\..\..\..\uC-CPU/cpu_core.c **** #endif
 813:..\..\..\..\..\..\uC-CPU/cpu_core.c **** 
 814:..\..\..\..\..\..\uC-CPU/cpu_core.c **** 
 815:..\..\..\..\..\..\uC-CPU/cpu_core.c **** /*$PAGE*/
 816:..\..\..\..\..\..\uC-CPU/cpu_core.c **** /*
ARM GAS  C:\Users\alex\AppData\Local\Temp\ccSBLcnl.s 			page 28


 817:..\..\..\..\..\..\uC-CPU/cpu_core.c **** ***************************************************************************************************
 818:..\..\..\..\..\..\uC-CPU/cpu_core.c **** *                                        CPU_IntDisMeasStart()
 819:..\..\..\..\..\..\uC-CPU/cpu_core.c **** *
 820:..\..\..\..\..\..\uC-CPU/cpu_core.c **** * Description : Start interrupts disabled time measurement.
 821:..\..\..\..\..\..\uC-CPU/cpu_core.c **** *
 822:..\..\..\..\..\..\uC-CPU/cpu_core.c **** * Argument(s) : none.
 823:..\..\..\..\..\..\uC-CPU/cpu_core.c **** *
 824:..\..\..\..\..\..\uC-CPU/cpu_core.c **** * Return(s)   : none.
 825:..\..\..\..\..\..\uC-CPU/cpu_core.c **** *
 826:..\..\..\..\..\..\uC-CPU/cpu_core.c **** * Caller(s)   : CPU_CRITICAL_ENTER().
 827:..\..\..\..\..\..\uC-CPU/cpu_core.c **** *
 828:..\..\..\..\..\..\uC-CPU/cpu_core.c **** *               This function is an INTERNAL CPU module function & MUST NOT be called by applicatio
 829:..\..\..\..\..\..\uC-CPU/cpu_core.c **** *               function(s).
 830:..\..\..\..\..\..\uC-CPU/cpu_core.c **** *
 831:..\..\..\..\..\..\uC-CPU/cpu_core.c **** * Note(s)     : none.
 832:..\..\..\..\..\..\uC-CPU/cpu_core.c **** ***************************************************************************************************
 833:..\..\..\..\..\..\uC-CPU/cpu_core.c **** */
 834:..\..\..\..\..\..\uC-CPU/cpu_core.c **** 
 835:..\..\..\..\..\..\uC-CPU/cpu_core.c **** #ifdef  CPU_CFG_INT_DIS_MEAS_EN
 836:..\..\..\..\..\..\uC-CPU/cpu_core.c **** void  CPU_IntDisMeasStart (void)
 837:..\..\..\..\..\..\uC-CPU/cpu_core.c **** {
 838:..\..\..\..\..\..\uC-CPU/cpu_core.c ****     CPU_IntDisMeasCtr++;
 839:..\..\..\..\..\..\uC-CPU/cpu_core.c ****     if (CPU_IntDisNestCtr == 0u) {                                  /* If ints NOT yet dis'd, ...  
 840:..\..\..\..\..\..\uC-CPU/cpu_core.c ****         CPU_IntDisMeasStart_cnts = CPU_TS_TmrRd();                  /* ... get ints dis'd start tim
 841:..\..\..\..\..\..\uC-CPU/cpu_core.c ****     }
 842:..\..\..\..\..\..\uC-CPU/cpu_core.c ****     CPU_IntDisNestCtr++;
 843:..\..\..\..\..\..\uC-CPU/cpu_core.c **** }
 844:..\..\..\..\..\..\uC-CPU/cpu_core.c **** #endif
 845:..\..\..\..\..\..\uC-CPU/cpu_core.c **** 
 846:..\..\..\..\..\..\uC-CPU/cpu_core.c **** 
 847:..\..\..\..\..\..\uC-CPU/cpu_core.c **** /*$PAGE*/
 848:..\..\..\..\..\..\uC-CPU/cpu_core.c **** /*
 849:..\..\..\..\..\..\uC-CPU/cpu_core.c **** ***************************************************************************************************
 850:..\..\..\..\..\..\uC-CPU/cpu_core.c **** *                                        CPU_IntDisMeasStop()
 851:..\..\..\..\..\..\uC-CPU/cpu_core.c **** *
 852:..\..\..\..\..\..\uC-CPU/cpu_core.c **** * Description : Stop interrupts disabled time measurement.
 853:..\..\..\..\..\..\uC-CPU/cpu_core.c **** *
 854:..\..\..\..\..\..\uC-CPU/cpu_core.c **** * Argument(s) : none.
 855:..\..\..\..\..\..\uC-CPU/cpu_core.c **** *
 856:..\..\..\..\..\..\uC-CPU/cpu_core.c **** * Return(s)   : none.
 857:..\..\..\..\..\..\uC-CPU/cpu_core.c **** *
 858:..\..\..\..\..\..\uC-CPU/cpu_core.c **** * Caller(s)   : CPU_CRITICAL_EXIT().
 859:..\..\..\..\..\..\uC-CPU/cpu_core.c **** *
 860:..\..\..\..\..\..\uC-CPU/cpu_core.c **** *               This function is an INTERNAL CPU module function & MUST NOT be called by applicatio
 861:..\..\..\..\..\..\uC-CPU/cpu_core.c **** *               function(s).
 862:..\..\..\..\..\..\uC-CPU/cpu_core.c **** *
 863:..\..\..\..\..\..\uC-CPU/cpu_core.c **** * Note(s)     : (1) (a) The total amount of time interrupts are disabled by system &/or application
 864:..\..\..\..\..\..\uC-CPU/cpu_core.c **** *                       during critical sections is calculated by the following equations :
 865:..\..\..\..\..\..\uC-CPU/cpu_core.c **** *
 866:..\..\..\..\..\..\uC-CPU/cpu_core.c **** *                       (1) When interrupts disabled time measurements are disabled :
 867:..\..\..\..\..\..\uC-CPU/cpu_core.c **** *
 868:..\..\..\..\..\..\uC-CPU/cpu_core.c **** *
 869:..\..\..\..\..\..\uC-CPU/cpu_core.c **** *                               |   CRITICAL  |                           |   CRITICAL  |
 870:..\..\..\..\..\..\uC-CPU/cpu_core.c **** *                               |<- SECTION ->|                           |<- SECTION ->|
 871:..\..\..\..\..\..\uC-CPU/cpu_core.c **** *                               |    ENTER    |                           |    EXIT     |
 872:..\..\..\..\..\..\uC-CPU/cpu_core.c **** *
 873:..\..\..\..\..\..\uC-CPU/cpu_core.c **** *                            Disable                                    Enable
ARM GAS  C:\Users\alex\AppData\Local\Temp\ccSBLcnl.s 			page 29


 874:..\..\..\..\..\..\uC-CPU/cpu_core.c **** *                           Interrupts                                Interrupts
 875:..\..\..\..\..\..\uC-CPU/cpu_core.c **** *
 876:..\..\..\..\..\..\uC-CPU/cpu_core.c **** *                               ||           ||                           ||           ||
 877:..\..\..\..\..\..\uC-CPU/cpu_core.c **** *                               ||           ||                           ||           ||
 878:..\..\..\..\..\..\uC-CPU/cpu_core.c **** *                               ||       |   ||<------------------------->||       |   ||
 879:..\..\..\..\..\..\uC-CPU/cpu_core.c **** *                               ||       |<->||             |             ||<----->|   ||
 880:..\..\..\..\..\..\uC-CPU/cpu_core.c **** *                               ||       | | ||             |             ||   |   |   ||
 881:..\..\..\..\..\..\uC-CPU/cpu_core.c **** *                                        | |                |                  |   |
 882:..\..\..\..\..\..\uC-CPU/cpu_core.c **** *                                   interrupts            time                 interrupts
 883:..\..\..\..\..\..\uC-CPU/cpu_core.c **** *                                    disabled                 interrupts       |enabled
 884:..\..\..\..\..\..\uC-CPU/cpu_core.c **** *                                          |                   disabled        |
 885:..\..\..\..\..\..\uC-CPU/cpu_core.c **** *                                          |              (via application)    |
 886:..\..\..\..\..\..\uC-CPU/cpu_core.c **** *                                       time                                 time
 887:..\..\..\..\..\..\uC-CPU/cpu_core.c **** *                                           interrupts                           interrupts
 888:..\..\..\..\..\..\uC-CPU/cpu_core.c **** *                                         disabled ovrhd                        enabled ovrhd
 889:..\..\..\..\..\..\uC-CPU/cpu_core.c **** *
 890:..\..\..\..\..\..\uC-CPU/cpu_core.c **** *
 891:..\..\..\..\..\..\uC-CPU/cpu_core.c **** *                           (A) time            =  [ time            -  time           ]  -  time
 892:..\..\..\..\..\..\uC-CPU/cpu_core.c **** *                                   interrupts     [     interrupts         interrupts ]         to
 893:..\..\..\..\..\..\uC-CPU/cpu_core.c **** *                                    disabled      [      enabled            disabled  ]         ov
 894:..\..\..\..\..\..\uC-CPU/cpu_core.c **** *                               (via application)
 895:..\..\..\..\..\..\uC-CPU/cpu_core.c **** *
 896:..\..\..\..\..\..\uC-CPU/cpu_core.c **** *
 897:..\..\..\..\..\..\uC-CPU/cpu_core.c **** *                           (B) time       =  time              +  time
 898:..\..\..\..\..\..\uC-CPU/cpu_core.c **** *                                   total         interrupts           interrupts
 899:..\..\..\..\..\..\uC-CPU/cpu_core.c **** *                                   ovrhd        enabled ovrhd       disabled ovrhd
 900:..\..\..\..\..\..\uC-CPU/cpu_core.c **** *
 901:..\..\..\..\..\..\uC-CPU/cpu_core.c **** *
 902:..\..\..\..\..\..\uC-CPU/cpu_core.c **** *                                   where
 903:..\..\..\..\..\..\uC-CPU/cpu_core.c **** *
 904:..\..\..\..\..\..\uC-CPU/cpu_core.c **** *                                           time                    time interrupts are disabled be
 905:..\..\..\..\..\..\uC-CPU/cpu_core.c **** *                                               interrupts              first critical section ente
 906:..\..\..\..\..\..\uC-CPU/cpu_core.c **** *                                                disabled               last  critical section exit
 907:..\..\..\..\..\..\uC-CPU/cpu_core.c **** *                                           (via application)           minus total overhead time)
 908:..\..\..\..\..\..\uC-CPU/cpu_core.c **** *
 909:..\..\..\..\..\..\uC-CPU/cpu_core.c **** *                                           time                    time when interrupts are disabl
 910:..\..\..\..\..\..\uC-CPU/cpu_core.c **** *                                               interrupts
 911:..\..\..\..\..\..\uC-CPU/cpu_core.c **** *                                                disabled
 912:..\..\..\..\..\..\uC-CPU/cpu_core.c **** *
 913:..\..\..\..\..\..\uC-CPU/cpu_core.c **** *                                           time                    time when interrupts are  enabl
 914:..\..\..\..\..\..\uC-CPU/cpu_core.c **** *                                               interrupts
 915:..\..\..\..\..\..\uC-CPU/cpu_core.c **** *                                                enabled
 916:..\..\..\..\..\..\uC-CPU/cpu_core.c **** *
 917:..\..\..\..\..\..\uC-CPU/cpu_core.c **** *
 918:..\..\..\..\..\..\uC-CPU/cpu_core.c **** *                                           time                    total overhead time to disable/
 919:..\..\..\..\..\..\uC-CPU/cpu_core.c **** *                                               total                   interrupts during critical 
 920:..\..\..\..\..\..\uC-CPU/cpu_core.c **** *                                               ovrhd                   enter & exit
 921:..\..\..\..\..\..\uC-CPU/cpu_core.c **** *
 922:..\..\..\..\..\..\uC-CPU/cpu_core.c **** *                                           time                    total overhead time to disable 
 923:..\..\..\..\..\..\uC-CPU/cpu_core.c **** *                                               interrupts              during critical section ent
 924:..\..\..\..\..\..\uC-CPU/cpu_core.c **** *                                             disabled ovrhd
 925:..\..\..\..\..\..\uC-CPU/cpu_core.c **** *
 926:..\..\..\..\..\..\uC-CPU/cpu_core.c **** *                                           time                    total overhead time to enable  
 927:..\..\..\..\..\..\uC-CPU/cpu_core.c **** *                                               interrupts              during critical section exi
 928:..\..\..\..\..\..\uC-CPU/cpu_core.c **** *                                              enabled ovrhd
 929:..\..\..\..\..\..\uC-CPU/cpu_core.c **** *
 930:..\..\..\..\..\..\uC-CPU/cpu_core.c **** *$PAGE*
ARM GAS  C:\Users\alex\AppData\Local\Temp\ccSBLcnl.s 			page 30


 931:..\..\..\..\..\..\uC-CPU/cpu_core.c **** *
 932:..\..\..\..\..\..\uC-CPU/cpu_core.c **** *                       (2) When interrupts disabled time measurements are enabled :
 933:..\..\..\..\..\..\uC-CPU/cpu_core.c **** *
 934:..\..\..\..\..\..\uC-CPU/cpu_core.c **** *
 935:..\..\..\..\..\..\uC-CPU/cpu_core.c **** *        |                                    |                           |                        
 936:..\..\..\..\..\..\uC-CPU/cpu_core.c **** *        |<----- CRITICAL SECTION ENTER ----->|                           |<------- CRITICAL SECTIO
 937:..\..\..\..\..\..\uC-CPU/cpu_core.c **** *        |                                    |                           |                        
 938:..\..\..\..\..\..\uC-CPU/cpu_core.c **** *
 939:..\..\..\..\..\..\uC-CPU/cpu_core.c **** *                   Time                                                 Time
 940:..\..\..\..\..\..\uC-CPU/cpu_core.c **** *     Disable    Measurement                                          Measurement                  
 941:..\..\..\..\..\..\uC-CPU/cpu_core.c **** *    Interrupts     Start                                                Stop                    In
 942:..\..\..\..\..\..\uC-CPU/cpu_core.c **** *
 943:..\..\..\..\..\..\uC-CPU/cpu_core.c **** *        ||           |                      ||                           ||                       
 944:..\..\..\..\..\..\uC-CPU/cpu_core.c **** *        ||           |                      ||                           ||                       
 945:..\..\..\..\..\..\uC-CPU/cpu_core.c **** *        ||           |        |             ||<------------------------->||               |       
 946:..\..\..\..\..\..\uC-CPU/cpu_core.c **** *        ||       |   |        |<----------->||             |             ||<------------->|       
 947:..\..\..\..\..\..\uC-CPU/cpu_core.c **** *        ||       |   |        |      |      ||             |             ||       |       |       
 948:..\..\..\..\..\..\uC-CPU/cpu_core.c **** *                 |            |      |                     |                      |       |       
 949:..\..\..\..\..\..\uC-CPU/cpu_core.c **** *            interrupts       get     |                   time                     |      get      
 950:..\..\..\..\..\..\uC-CPU/cpu_core.c **** *             disabled    start time  |                       interrupts           |   stop time   
 951:..\..\..\..\..\..\uC-CPU/cpu_core.c **** *                            meas     |                        disabled            |     meas
 952:..\..\..\..\..\..\uC-CPU/cpu_core.c **** *                                   time                  (via application)      time
 953:..\..\..\..\..\..\uC-CPU/cpu_core.c **** *                                       start meas                                   stop meas
 954:..\..\..\..\..\..\uC-CPU/cpu_core.c **** *                                         ovrhd                                        ovrhd
 955:..\..\..\..\..\..\uC-CPU/cpu_core.c **** *
 956:..\..\..\..\..\..\uC-CPU/cpu_core.c **** *
 957:..\..\..\..\..\..\uC-CPU/cpu_core.c **** *                           (A) time            =  [ time       -  time      ]  -  time
 958:..\..\..\..\..\..\uC-CPU/cpu_core.c **** *                                   interrupts     [      stop         start ]         total meas
 959:..\..\..\..\..\..\uC-CPU/cpu_core.c **** *                                    disabled      [      meas         meas  ]           ovrhd
 960:..\..\..\..\..\..\uC-CPU/cpu_core.c **** *                               (via application)
 961:..\..\..\..\..\..\uC-CPU/cpu_core.c **** *
 962:..\..\..\..\..\..\uC-CPU/cpu_core.c **** *
 963:..\..\..\..\..\..\uC-CPU/cpu_core.c **** *                           (B) time            =  time            +  time
 964:..\..\..\..\..\..\uC-CPU/cpu_core.c **** *                                   total meas         start meas         stop meas
 965:..\..\..\..\..\..\uC-CPU/cpu_core.c **** *                                     ovrhd              ovrhd              ovrhd
 966:..\..\..\..\..\..\uC-CPU/cpu_core.c **** *
 967:..\..\..\..\..\..\uC-CPU/cpu_core.c **** *
 968:..\..\..\..\..\..\uC-CPU/cpu_core.c **** *                                   where
 969:..\..\..\..\..\..\uC-CPU/cpu_core.c **** *
 970:..\..\..\..\..\..\uC-CPU/cpu_core.c **** *                                           time                    time interrupts are disabled be
 971:..\..\..\..\..\..\uC-CPU/cpu_core.c **** *                                               interrupts              critical section enter & la
 972:..\..\..\..\..\..\uC-CPU/cpu_core.c **** *                                                disabled               section exit (i.e. minus me
 973:..\..\..\..\..\..\uC-CPU/cpu_core.c **** *                                           (via application)           overhead time; however, thi
 974:..\..\..\..\..\..\uC-CPU/cpu_core.c **** *                                                                       include any overhead time t
 975:..\..\..\..\..\..\uC-CPU/cpu_core.c **** *                                                                       or enable interrupts during
 976:..\..\..\..\..\..\uC-CPU/cpu_core.c **** *                                                                       section enter & exit)
 977:..\..\..\..\..\..\uC-CPU/cpu_core.c **** *
 978:..\..\..\..\..\..\uC-CPU/cpu_core.c **** *                                           time                    time of disable interrupts star
 979:..\..\..\..\..\..\uC-CPU/cpu_core.c **** *                                               start                   measurement (in timer count
 980:..\..\..\..\..\..\uC-CPU/cpu_core.c **** *                                               meas
 981:..\..\..\..\..\..\uC-CPU/cpu_core.c **** *
 982:..\..\..\..\..\..\uC-CPU/cpu_core.c **** *                                           time                    time of disable interrupts stop
 983:..\..\..\..\..\..\uC-CPU/cpu_core.c **** *                                               stop                    measurement (in timer count
 984:..\..\..\..\..\..\uC-CPU/cpu_core.c **** *                                               meas
 985:..\..\..\..\..\..\uC-CPU/cpu_core.c **** *
 986:..\..\..\..\..\..\uC-CPU/cpu_core.c **** *
 987:..\..\..\..\..\..\uC-CPU/cpu_core.c **** *                                           time                    total overhead time to start/st
ARM GAS  C:\Users\alex\AppData\Local\Temp\ccSBLcnl.s 			page 31


 988:..\..\..\..\..\..\uC-CPU/cpu_core.c **** *                                               total meas              interrupts time measurement
 989:..\..\..\..\..\..\uC-CPU/cpu_core.c **** *                                                 ovrhd                 counts)
 990:..\..\..\..\..\..\uC-CPU/cpu_core.c **** *
 991:..\..\..\..\..\..\uC-CPU/cpu_core.c **** *                                           time                    total overhead time after getti
 992:..\..\..\..\..\..\uC-CPU/cpu_core.c **** *                                               start meas              time until end of start mea
 993:..\..\..\..\..\..\uC-CPU/cpu_core.c **** *                                                 ovrhd                 function  (in timer counts)
 994:..\..\..\..\..\..\uC-CPU/cpu_core.c **** *
 995:..\..\..\..\..\..\uC-CPU/cpu_core.c **** *                                           time                    total overhead time from beginn
 996:..\..\..\..\..\..\uC-CPU/cpu_core.c **** *                                               stop meas               measurement function until 
 997:..\..\..\..\..\..\uC-CPU/cpu_core.c **** *                                                 ovrhd                 stop time (in timer counts)
 998:..\..\..\..\..\..\uC-CPU/cpu_core.c **** *
 999:..\..\..\..\..\..\uC-CPU/cpu_core.c **** *
1000:..\..\..\..\..\..\uC-CPU/cpu_core.c **** *$PAGE*
1001:..\..\..\..\..\..\uC-CPU/cpu_core.c **** *                   (b) (1) (A) In order to correctly handle unsigned subtraction overflows of star
1002:..\..\..\..\..\..\uC-CPU/cpu_core.c **** *                               from stop times, CPU timestamp timer count values MUST be returned 
1003:..\..\..\..\..\..\uC-CPU/cpu_core.c **** *                               word-size-configurable 'CPU_TS_TMR' data type.
1004:..\..\..\..\..\..\uC-CPU/cpu_core.c **** *
1005:..\..\..\..\..\..\uC-CPU/cpu_core.c **** *                               See also 'cpu_core.h  FUNCTION PROTOTYPES  CPU_TS_TmrRd()  Note #2a
1006:..\..\..\..\..\..\uC-CPU/cpu_core.c **** *
1007:..\..\..\..\..\..\uC-CPU/cpu_core.c **** *                           (B) Since unsigned subtraction of start times from stop times assumes i
1008:..\..\..\..\..\..\uC-CPU/cpu_core.c **** *                               values, timestamp timer count values MUST increase with each time c
1009:..\..\..\..\..\..\uC-CPU/cpu_core.c **** *
1010:..\..\..\..\..\..\uC-CPU/cpu_core.c **** *                               See also 'cpu_core.h  FUNCTION PROTOTYPES  CPU_TS_TmrRd()  Note #2b
1011:..\..\..\..\..\..\uC-CPU/cpu_core.c **** *
1012:..\..\..\..\..\..\uC-CPU/cpu_core.c **** *                       (2) (A) To expedite & reduce interrupts disabled time measurement overhead;
1013:..\..\..\..\..\..\uC-CPU/cpu_core.c **** *                               subtraction of start times from stop times is performed.
1014:..\..\..\..\..\..\uC-CPU/cpu_core.c **** *
1015:..\..\..\..\..\..\uC-CPU/cpu_core.c **** *                           (B) The final calculations to subtract the interrupts disabled time mea
1016:..\..\..\..\..\..\uC-CPU/cpu_core.c **** *                               overhead is performed asynchronously in appropriate API functions.
1017:..\..\..\..\..\..\uC-CPU/cpu_core.c **** *
1018:..\..\..\..\..\..\uC-CPU/cpu_core.c **** *                               See also 'CPU_IntDisMeasMaxCalc()  Note #1b'.
1019:..\..\..\..\..\..\uC-CPU/cpu_core.c **** ***************************************************************************************************
1020:..\..\..\..\..\..\uC-CPU/cpu_core.c **** */
1021:..\..\..\..\..\..\uC-CPU/cpu_core.c **** 
1022:..\..\..\..\..\..\uC-CPU/cpu_core.c **** #ifdef  CPU_CFG_INT_DIS_MEAS_EN
1023:..\..\..\..\..\..\uC-CPU/cpu_core.c **** void  CPU_IntDisMeasStop (void)
1024:..\..\..\..\..\..\uC-CPU/cpu_core.c **** {
1025:..\..\..\..\..\..\uC-CPU/cpu_core.c ****     CPU_TS_TMR  time_ints_disd_cnts;
1026:..\..\..\..\..\..\uC-CPU/cpu_core.c **** 
1027:..\..\..\..\..\..\uC-CPU/cpu_core.c **** 
1028:..\..\..\..\..\..\uC-CPU/cpu_core.c ****     CPU_IntDisNestCtr--;
1029:..\..\..\..\..\..\uC-CPU/cpu_core.c ****     if (CPU_IntDisNestCtr == 0u) {                                  /* If ints NO longer dis'd,    
1030:..\..\..\..\..\..\uC-CPU/cpu_core.c ****         CPU_IntDisMeasStop_cnts = CPU_TS_TmrRd();                   /* ... get  ints dis'd stop tim
1031:..\..\..\..\..\..\uC-CPU/cpu_core.c ****                                                                     /* ... calc ints dis'd tot  tim
1032:..\..\..\..\..\..\uC-CPU/cpu_core.c ****         time_ints_disd_cnts     = CPU_IntDisMeasStop_cnts -
1033:..\..\..\..\..\..\uC-CPU/cpu_core.c ****                                   CPU_IntDisMeasStart_cnts;
1034:..\..\..\..\..\..\uC-CPU/cpu_core.c ****                                                                     /* Calc max ints dis'd times.  
1035:..\..\..\..\..\..\uC-CPU/cpu_core.c ****         if (CPU_IntDisMeasMaxCur_cnts < time_ints_disd_cnts) {
1036:..\..\..\..\..\..\uC-CPU/cpu_core.c ****             CPU_IntDisMeasMaxCur_cnts = time_ints_disd_cnts;
1037:..\..\..\..\..\..\uC-CPU/cpu_core.c ****         }
1038:..\..\..\..\..\..\uC-CPU/cpu_core.c ****         if (CPU_IntDisMeasMax_cnts    < time_ints_disd_cnts) {
1039:..\..\..\..\..\..\uC-CPU/cpu_core.c ****             CPU_IntDisMeasMax_cnts    = time_ints_disd_cnts;
1040:..\..\..\..\..\..\uC-CPU/cpu_core.c ****         }
1041:..\..\..\..\..\..\uC-CPU/cpu_core.c ****     }
1042:..\..\..\..\..\..\uC-CPU/cpu_core.c **** }
1043:..\..\..\..\..\..\uC-CPU/cpu_core.c **** #endif
1044:..\..\..\..\..\..\uC-CPU/cpu_core.c **** 
ARM GAS  C:\Users\alex\AppData\Local\Temp\ccSBLcnl.s 			page 32


1045:..\..\..\..\..\..\uC-CPU/cpu_core.c **** 
1046:..\..\..\..\..\..\uC-CPU/cpu_core.c **** /*$PAGE*/
1047:..\..\..\..\..\..\uC-CPU/cpu_core.c **** /*
1048:..\..\..\..\..\..\uC-CPU/cpu_core.c **** ***************************************************************************************************
1049:..\..\..\..\..\..\uC-CPU/cpu_core.c **** *                                         CPU_CntLeadZeros()
1050:..\..\..\..\..\..\uC-CPU/cpu_core.c **** *
1051:..\..\..\..\..\..\uC-CPU/cpu_core.c **** * Description : Count the number of contiguous, most-significant, leading zero bits in a data value
1052:..\..\..\..\..\..\uC-CPU/cpu_core.c **** *
1053:..\..\..\..\..\..\uC-CPU/cpu_core.c **** * Argument(s) : val         Data value to count leading zero bits.
1054:..\..\..\..\..\..\uC-CPU/cpu_core.c **** *
1055:..\..\..\..\..\..\uC-CPU/cpu_core.c **** * Return(s)   : Number of contiguous, most-significant, leading zero bits in 'val', if NO error(s).
1056:..\..\..\..\..\..\uC-CPU/cpu_core.c **** *
1057:..\..\..\..\..\..\uC-CPU/cpu_core.c **** *               DEF_INT_CPU_U_MAX_VAL,                                              otherwise.
1058:..\..\..\..\..\..\uC-CPU/cpu_core.c **** *
1059:..\..\..\..\..\..\uC-CPU/cpu_core.c **** * Caller(s)   : CPU_CntTrailZeros(),
1060:..\..\..\..\..\..\uC-CPU/cpu_core.c **** *               Application.
1061:..\..\..\..\..\..\uC-CPU/cpu_core.c **** *
1062:..\..\..\..\..\..\uC-CPU/cpu_core.c **** *               This function is a CPU module application programming interface (API) function & MA
1063:..\..\..\..\..\..\uC-CPU/cpu_core.c **** *               be called by application function(s).
1064:..\..\..\..\..\..\uC-CPU/cpu_core.c **** *
1065:..\..\..\..\..\..\uC-CPU/cpu_core.c **** * Note(s)     : (1) (a) Supports the following data value sizes :
1066:..\..\..\..\..\..\uC-CPU/cpu_core.c **** *
1067:..\..\..\..\..\..\uC-CPU/cpu_core.c **** *                       (1)  8-bits
1068:..\..\..\..\..\..\uC-CPU/cpu_core.c **** *                       (2) 16-bits
1069:..\..\..\..\..\..\uC-CPU/cpu_core.c **** *                       (3) 32-bits
1070:..\..\..\..\..\..\uC-CPU/cpu_core.c **** *                       (4) 64-bits
1071:..\..\..\..\..\..\uC-CPU/cpu_core.c **** *
1072:..\..\..\..\..\..\uC-CPU/cpu_core.c **** *                       See also 'cpu_def.h  CPU WORD CONFIGURATION  Note #1'.
1073:..\..\..\..\..\..\uC-CPU/cpu_core.c **** *
1074:..\..\..\..\..\..\uC-CPU/cpu_core.c **** *                   (b) (1) For  8-bit values :
1075:..\..\..\..\..\..\uC-CPU/cpu_core.c **** *
1076:..\..\..\..\..\..\uC-CPU/cpu_core.c **** *                                  b07  b06  b05  b04  b03  b02  b01  b00    # Leading Zeros
1077:..\..\..\..\..\..\uC-CPU/cpu_core.c **** *                                  ---  ---  ---  ---  ---  ---  ---  ---    ---------------
1078:..\..\..\..\..\..\uC-CPU/cpu_core.c **** *                                   1    x    x    x    x    x    x    x            0
1079:..\..\..\..\..\..\uC-CPU/cpu_core.c **** *                                   0    1    x    x    x    x    x    x            1
1080:..\..\..\..\..\..\uC-CPU/cpu_core.c **** *                                   0    0    1    x    x    x    x    x            2
1081:..\..\..\..\..\..\uC-CPU/cpu_core.c **** *                                   0    0    0    1    x    x    x    x            3
1082:..\..\..\..\..\..\uC-CPU/cpu_core.c **** *                                   0    0    0    0    1    x    x    x            4
1083:..\..\..\..\..\..\uC-CPU/cpu_core.c **** *                                   0    0    0    0    0    1    x    x            5
1084:..\..\..\..\..\..\uC-CPU/cpu_core.c **** *                                   0    0    0    0    0    0    1    x            6
1085:..\..\..\..\..\..\uC-CPU/cpu_core.c **** *                                   0    0    0    0    0    0    0    1            7
1086:..\..\..\..\..\..\uC-CPU/cpu_core.c **** *                                   0    0    0    0    0    0    0    0            8
1087:..\..\..\..\..\..\uC-CPU/cpu_core.c **** *
1088:..\..\..\..\..\..\uC-CPU/cpu_core.c **** *
1089:..\..\..\..\..\..\uC-CPU/cpu_core.c **** *                       (2) For 16-bit values :
1090:..\..\..\..\..\..\uC-CPU/cpu_core.c **** *
1091:..\..\..\..\..\..\uC-CPU/cpu_core.c **** *                             b15  b14  b13  ...  b04  b03  b02  b01  b00    # Leading Zeros
1092:..\..\..\..\..\..\uC-CPU/cpu_core.c **** *                             ---  ---  ---       ---  ---  ---  ---  ---    ---------------
1093:..\..\..\..\..\..\uC-CPU/cpu_core.c **** *                              1    x    x         x    x    x    x    x            0
1094:..\..\..\..\..\..\uC-CPU/cpu_core.c **** *                              0    1    x         x    x    x    x    x            1
1095:..\..\..\..\..\..\uC-CPU/cpu_core.c **** *                              0    0    1         x    x    x    x    x            2
1096:..\..\..\..\..\..\uC-CPU/cpu_core.c **** *                              :    :    :         :    :    :    :    :            :
1097:..\..\..\..\..\..\uC-CPU/cpu_core.c **** *                              :    :    :         :    :    :    :    :            :
1098:..\..\..\..\..\..\uC-CPU/cpu_core.c **** *                              0    0    0         1    x    x    x    x           11
1099:..\..\..\..\..\..\uC-CPU/cpu_core.c **** *                              0    0    0         0    1    x    x    x           12
1100:..\..\..\..\..\..\uC-CPU/cpu_core.c **** *                              0    0    0         0    0    1    x    x           13
1101:..\..\..\..\..\..\uC-CPU/cpu_core.c **** *                              0    0    0         0    0    0    1    x           14
ARM GAS  C:\Users\alex\AppData\Local\Temp\ccSBLcnl.s 			page 33


1102:..\..\..\..\..\..\uC-CPU/cpu_core.c **** *                              0    0    0         0    0    0    0    1           15
1103:..\..\..\..\..\..\uC-CPU/cpu_core.c **** *                              0    0    0         0    0    0    0    0           16
1104:..\..\..\..\..\..\uC-CPU/cpu_core.c **** *
1105:..\..\..\..\..\..\uC-CPU/cpu_core.c **** *$PAGE*
1106:..\..\..\..\..\..\uC-CPU/cpu_core.c **** *                       (3) For 32-bit values :
1107:..\..\..\..\..\..\uC-CPU/cpu_core.c **** *
1108:..\..\..\..\..\..\uC-CPU/cpu_core.c **** *                             b31  b30  b29  ...  b04  b03  b02  b01  b00    # Leading Zeros
1109:..\..\..\..\..\..\uC-CPU/cpu_core.c **** *                             ---  ---  ---       ---  ---  ---  ---  ---    ---------------
1110:..\..\..\..\..\..\uC-CPU/cpu_core.c **** *                              1    x    x         x    x    x    x    x            0
1111:..\..\..\..\..\..\uC-CPU/cpu_core.c **** *                              0    1    x         x    x    x    x    x            1
1112:..\..\..\..\..\..\uC-CPU/cpu_core.c **** *                              0    0    1         x    x    x    x    x            2
1113:..\..\..\..\..\..\uC-CPU/cpu_core.c **** *                              :    :    :         :    :    :    :    :            :
1114:..\..\..\..\..\..\uC-CPU/cpu_core.c **** *                              :    :    :         :    :    :    :    :            :
1115:..\..\..\..\..\..\uC-CPU/cpu_core.c **** *                              0    0    0         1    x    x    x    x           27
1116:..\..\..\..\..\..\uC-CPU/cpu_core.c **** *                              0    0    0         0    1    x    x    x           28
1117:..\..\..\..\..\..\uC-CPU/cpu_core.c **** *                              0    0    0         0    0    1    x    x           29
1118:..\..\..\..\..\..\uC-CPU/cpu_core.c **** *                              0    0    0         0    0    0    1    x           30
1119:..\..\..\..\..\..\uC-CPU/cpu_core.c **** *                              0    0    0         0    0    0    0    1           31
1120:..\..\..\..\..\..\uC-CPU/cpu_core.c **** *                              0    0    0         0    0    0    0    0           32
1121:..\..\..\..\..\..\uC-CPU/cpu_core.c **** *
1122:..\..\..\..\..\..\uC-CPU/cpu_core.c **** *
1123:..\..\..\..\..\..\uC-CPU/cpu_core.c **** *                       (4) For 64-bit values :
1124:..\..\..\..\..\..\uC-CPU/cpu_core.c **** *
1125:..\..\..\..\..\..\uC-CPU/cpu_core.c **** *                             b63  b62  b61  ...  b04  b03  b02  b01  b00    # Leading Zeros
1126:..\..\..\..\..\..\uC-CPU/cpu_core.c **** *                             ---  ---  ---       ---  ---  ---  ---  ---    ---------------
1127:..\..\..\..\..\..\uC-CPU/cpu_core.c **** *                              1    x    x         x    x    x    x    x            0
1128:..\..\..\..\..\..\uC-CPU/cpu_core.c **** *                              0    1    x         x    x    x    x    x            1
1129:..\..\..\..\..\..\uC-CPU/cpu_core.c **** *                              0    0    1         x    x    x    x    x            2
1130:..\..\..\..\..\..\uC-CPU/cpu_core.c **** *                              :    :    :         :    :    :    :    :            :
1131:..\..\..\..\..\..\uC-CPU/cpu_core.c **** *                              :    :    :         :    :    :    :    :            :
1132:..\..\..\..\..\..\uC-CPU/cpu_core.c **** *                              0    0    0         1    x    x    x    x           59
1133:..\..\..\..\..\..\uC-CPU/cpu_core.c **** *                              0    0    0         0    1    x    x    x           60
1134:..\..\..\..\..\..\uC-CPU/cpu_core.c **** *                              0    0    0         0    0    1    x    x           61
1135:..\..\..\..\..\..\uC-CPU/cpu_core.c **** *                              0    0    0         0    0    0    1    x           62
1136:..\..\..\..\..\..\uC-CPU/cpu_core.c **** *                              0    0    0         0    0    0    0    1           63
1137:..\..\..\..\..\..\uC-CPU/cpu_core.c **** *                              0    0    0         0    0    0    0    0           64
1138:..\..\..\..\..\..\uC-CPU/cpu_core.c **** *
1139:..\..\..\..\..\..\uC-CPU/cpu_core.c **** *
1140:..\..\..\..\..\..\uC-CPU/cpu_core.c **** *                       See also 'CPU COUNT LEAD ZEROs LOOKUP TABLE  Note #1'.
1141:..\..\..\..\..\..\uC-CPU/cpu_core.c **** ***************************************************************************************************
1142:..\..\..\..\..\..\uC-CPU/cpu_core.c **** */
1143:..\..\..\..\..\..\uC-CPU/cpu_core.c **** 
1144:..\..\..\..\..\..\uC-CPU/cpu_core.c **** #ifndef   CPU_CFG_LEAD_ZEROS_ASM_PRESENT
1145:..\..\..\..\..\..\uC-CPU/cpu_core.c **** CPU_DATA  CPU_CntLeadZeros (CPU_DATA  val)
1146:..\..\..\..\..\..\uC-CPU/cpu_core.c **** {
1147:..\..\..\..\..\..\uC-CPU/cpu_core.c ****     CPU_DATA  nbr_lead_zeros;
1148:..\..\..\..\..\..\uC-CPU/cpu_core.c **** 
1149:..\..\..\..\..\..\uC-CPU/cpu_core.c **** 
1150:..\..\..\..\..\..\uC-CPU/cpu_core.c **** #if   (CPU_CFG_DATA_SIZE == CPU_WORD_SIZE_08)
1151:..\..\..\..\..\..\uC-CPU/cpu_core.c ****     nbr_lead_zeros = CPU_CntLeadZeros08((CPU_INT08U)val);
1152:..\..\..\..\..\..\uC-CPU/cpu_core.c **** 
1153:..\..\..\..\..\..\uC-CPU/cpu_core.c **** #elif (CPU_CFG_DATA_SIZE == CPU_WORD_SIZE_16)
1154:..\..\..\..\..\..\uC-CPU/cpu_core.c ****     nbr_lead_zeros = CPU_CntLeadZeros16((CPU_INT16U)val);
1155:..\..\..\..\..\..\uC-CPU/cpu_core.c **** 
1156:..\..\..\..\..\..\uC-CPU/cpu_core.c **** #elif (CPU_CFG_DATA_SIZE == CPU_WORD_SIZE_32)
1157:..\..\..\..\..\..\uC-CPU/cpu_core.c ****     nbr_lead_zeros = CPU_CntLeadZeros32((CPU_INT32U)val);
1158:..\..\..\..\..\..\uC-CPU/cpu_core.c **** 
ARM GAS  C:\Users\alex\AppData\Local\Temp\ccSBLcnl.s 			page 34


1159:..\..\..\..\..\..\uC-CPU/cpu_core.c **** #elif (CPU_CFG_DATA_SIZE == CPU_WORD_SIZE_64)
1160:..\..\..\..\..\..\uC-CPU/cpu_core.c ****     nbr_lead_zeros = CPU_CntLeadZeros64((CPU_INT64U)val);
1161:..\..\..\..\..\..\uC-CPU/cpu_core.c **** 
1162:..\..\..\..\..\..\uC-CPU/cpu_core.c **** #else                                                           /* See Note #1a.                   
1163:..\..\..\..\..\..\uC-CPU/cpu_core.c ****     nbr_lead_zeros = DEF_INT_CPU_U_MAX_VAL;
1164:..\..\..\..\..\..\uC-CPU/cpu_core.c **** #endif
1165:..\..\..\..\..\..\uC-CPU/cpu_core.c **** 
1166:..\..\..\..\..\..\uC-CPU/cpu_core.c **** 
1167:..\..\..\..\..\..\uC-CPU/cpu_core.c ****     return (nbr_lead_zeros);
1168:..\..\..\..\..\..\uC-CPU/cpu_core.c **** }
1169:..\..\..\..\..\..\uC-CPU/cpu_core.c **** #endif
1170:..\..\..\..\..\..\uC-CPU/cpu_core.c **** 
1171:..\..\..\..\..\..\uC-CPU/cpu_core.c **** 
1172:..\..\..\..\..\..\uC-CPU/cpu_core.c **** /*$PAGE*/
1173:..\..\..\..\..\..\uC-CPU/cpu_core.c **** /*
1174:..\..\..\..\..\..\uC-CPU/cpu_core.c **** ***************************************************************************************************
1175:..\..\..\..\..\..\uC-CPU/cpu_core.c **** *                                        CPU_CntLeadZeros08()
1176:..\..\..\..\..\..\uC-CPU/cpu_core.c **** *
1177:..\..\..\..\..\..\uC-CPU/cpu_core.c **** * Description : Count the number of contiguous, most-significant, leading zero bits in an 8-bit dat
1178:..\..\..\..\..\..\uC-CPU/cpu_core.c **** *
1179:..\..\..\..\..\..\uC-CPU/cpu_core.c **** * Argument(s) : val         Data value to count leading zero bits.
1180:..\..\..\..\..\..\uC-CPU/cpu_core.c **** *
1181:..\..\..\..\..\..\uC-CPU/cpu_core.c **** * Return(s)   : Number of contiguous, most-significant, leading zero bits in 'val'.
1182:..\..\..\..\..\..\uC-CPU/cpu_core.c **** *
1183:..\..\..\..\..\..\uC-CPU/cpu_core.c **** * Caller(s)   : CPU_CntLeadZeros(),
1184:..\..\..\..\..\..\uC-CPU/cpu_core.c **** *               CPU_CntTrailZeros08(),
1185:..\..\..\..\..\..\uC-CPU/cpu_core.c **** *               Application.
1186:..\..\..\..\..\..\uC-CPU/cpu_core.c **** *
1187:..\..\..\..\..\..\uC-CPU/cpu_core.c **** *               This function is a CPU module application programming interface (API) function & MA
1188:..\..\..\..\..\..\uC-CPU/cpu_core.c **** *               called by application function(s).
1189:..\..\..\..\..\..\uC-CPU/cpu_core.c **** *
1190:..\..\..\..\..\..\uC-CPU/cpu_core.c **** * Note(s)     : (1) Supports  8-bit values :
1191:..\..\..\..\..\..\uC-CPU/cpu_core.c **** *
1192:..\..\..\..\..\..\uC-CPU/cpu_core.c **** *                               b07  b06  b05  b04  b03  b02  b01  b00    # Leading Zeros
1193:..\..\..\..\..\..\uC-CPU/cpu_core.c **** *                               ---  ---  ---  ---  ---  ---  ---  ---    ---------------
1194:..\..\..\..\..\..\uC-CPU/cpu_core.c **** *                                1    x    x    x    x    x    x    x            0
1195:..\..\..\..\..\..\uC-CPU/cpu_core.c **** *                                0    1    x    x    x    x    x    x            1
1196:..\..\..\..\..\..\uC-CPU/cpu_core.c **** *                                0    0    1    x    x    x    x    x            2
1197:..\..\..\..\..\..\uC-CPU/cpu_core.c **** *                                0    0    0    1    x    x    x    x            3
1198:..\..\..\..\..\..\uC-CPU/cpu_core.c **** *                                0    0    0    0    1    x    x    x            4
1199:..\..\..\..\..\..\uC-CPU/cpu_core.c **** *                                0    0    0    0    0    1    x    x            5
1200:..\..\..\..\..\..\uC-CPU/cpu_core.c **** *                                0    0    0    0    0    0    1    x            6
1201:..\..\..\..\..\..\uC-CPU/cpu_core.c **** *                                0    0    0    0    0    0    0    1            7
1202:..\..\..\..\..\..\uC-CPU/cpu_core.c **** *                                0    0    0    0    0    0    0    0            8
1203:..\..\..\..\..\..\uC-CPU/cpu_core.c **** *
1204:..\..\..\..\..\..\uC-CPU/cpu_core.c **** *
1205:..\..\..\..\..\..\uC-CPU/cpu_core.c **** *                   See also 'CPU COUNT LEAD ZEROs LOOKUP TABLE  Note #1'.
1206:..\..\..\..\..\..\uC-CPU/cpu_core.c **** ***************************************************************************************************
1207:..\..\..\..\..\..\uC-CPU/cpu_core.c **** */
1208:..\..\..\..\..\..\uC-CPU/cpu_core.c **** 
1209:..\..\..\..\..\..\uC-CPU/cpu_core.c **** #if (CPU_CFG_DATA_SIZE_MAX >= CPU_WORD_SIZE_08)
1210:..\..\..\..\..\..\uC-CPU/cpu_core.c **** CPU_DATA  CPU_CntLeadZeros08 (CPU_INT08U  val)
1211:..\..\..\..\..\..\uC-CPU/cpu_core.c **** {
 724              		.loc 1 1211 0
 725              		.cfi_startproc
 726              		@ args = 0, pretend = 0, frame = 16
 727              		@ frame_needed = 1, uses_anonymous_args = 0
ARM GAS  C:\Users\alex\AppData\Local\Temp\ccSBLcnl.s 			page 35


 728 0000 80B5     		push	{r7, lr}
 729              		.cfi_def_cfa_offset 8
 730              		.cfi_offset 7, -8
 731              		.cfi_offset 14, -4
 732 0002 84B0     		sub	sp, sp, #16
 733              		.cfi_def_cfa_offset 24
 734 0004 00AF     		add	r7, sp, #0
 735              		.cfi_def_cfa_register 7
 736 0006 0346     		mov	r3, r0
 737 0008 FB71     		strb	r3, [r7, #7]
1212:..\..\..\..\..\..\uC-CPU/cpu_core.c **** #if  (!((defined(CPU_CFG_LEAD_ZEROS_ASM_PRESENT)) && \
1213:..\..\..\..\..\..\uC-CPU/cpu_core.c ****         (CPU_CFG_DATA_SIZE >= CPU_WORD_SIZE_08)))
1214:..\..\..\..\..\..\uC-CPU/cpu_core.c ****     CPU_DATA  ix;
1215:..\..\..\..\..\..\uC-CPU/cpu_core.c **** #endif
1216:..\..\..\..\..\..\uC-CPU/cpu_core.c ****     CPU_DATA  nbr_lead_zeros;
1217:..\..\..\..\..\..\uC-CPU/cpu_core.c **** 
1218:..\..\..\..\..\..\uC-CPU/cpu_core.c ****                                                                                 /* ---------- ASM-O
1219:..\..\..\..\..\..\uC-CPU/cpu_core.c **** #if ((defined(CPU_CFG_LEAD_ZEROS_ASM_PRESENT)) && \
1220:..\..\..\..\..\..\uC-CPU/cpu_core.c ****      (CPU_CFG_DATA_SIZE >= CPU_WORD_SIZE_08))
1221:..\..\..\..\..\..\uC-CPU/cpu_core.c ****     nbr_lead_zeros  =  CPU_CntLeadZeros((CPU_DATA)val);
 738              		.loc 1 1221 0
 739 000a FB79     		ldrb	r3, [r7, #7]	@ zero_extendqisi2
 740 000c 1846     		mov	r0, r3
 741 000e FFF7FEFF 		bl	CPU_CntLeadZeros
 742 0012 F860     		str	r0, [r7, #12]
1222:..\..\..\..\..\..\uC-CPU/cpu_core.c ****     nbr_lead_zeros -= (CPU_CFG_DATA_SIZE - CPU_WORD_SIZE_08) * DEF_OCTET_NBR_BITS;
 743              		.loc 1 1222 0
 744 0014 FB68     		ldr	r3, [r7, #12]
 745 0016 183B     		subs	r3, r3, #24
 746 0018 FB60     		str	r3, [r7, #12]
1223:..\..\..\..\..\..\uC-CPU/cpu_core.c **** 
1224:..\..\..\..\..\..\uC-CPU/cpu_core.c **** 
1225:..\..\..\..\..\..\uC-CPU/cpu_core.c **** #else                                                                           /* ----------- C-OP
1226:..\..\..\..\..\..\uC-CPU/cpu_core.c ****                                                                                 /* Chk bits [07:00]
1227:..\..\..\..\..\..\uC-CPU/cpu_core.c ****                                                                                 /* .. Nbr lead zero
1228:..\..\..\..\..\..\uC-CPU/cpu_core.c ****     ix              = (CPU_DATA)(val >>  0u);                                   /* .. lookup tbl ix
1229:..\..\..\..\..\..\uC-CPU/cpu_core.c ****     nbr_lead_zeros  = (CPU_DATA)(CPU_CntLeadZerosTbl[ix] +  0u);                /* .. plus nbr msb 
1230:..\..\..\..\..\..\uC-CPU/cpu_core.c **** #endif
1231:..\..\..\..\..\..\uC-CPU/cpu_core.c **** 
1232:..\..\..\..\..\..\uC-CPU/cpu_core.c **** 
1233:..\..\..\..\..\..\uC-CPU/cpu_core.c ****     return (nbr_lead_zeros);
 747              		.loc 1 1233 0
 748 001a FB68     		ldr	r3, [r7, #12]
1234:..\..\..\..\..\..\uC-CPU/cpu_core.c **** }
 749              		.loc 1 1234 0
 750 001c 1846     		mov	r0, r3
 751 001e 1037     		adds	r7, r7, #16
 752              		.cfi_def_cfa_offset 8
 753 0020 BD46     		mov	sp, r7
 754              		.cfi_def_cfa_register 13
 755              		@ sp needed
 756 0022 80BD     		pop	{r7, pc}
 757              		.cfi_endproc
 758              	.LFE9:
 759              		.size	CPU_CntLeadZeros08, .-CPU_CntLeadZeros08
 760              		.section	.text.CPU_CntLeadZeros16,"ax",%progbits
 761              		.align	2
ARM GAS  C:\Users\alex\AppData\Local\Temp\ccSBLcnl.s 			page 36


 762              		.global	CPU_CntLeadZeros16
 763              		.thumb
 764              		.thumb_func
 765              		.type	CPU_CntLeadZeros16, %function
 766              	CPU_CntLeadZeros16:
 767              	.LFB10:
1235:..\..\..\..\..\..\uC-CPU/cpu_core.c **** #endif
1236:..\..\..\..\..\..\uC-CPU/cpu_core.c **** 
1237:..\..\..\..\..\..\uC-CPU/cpu_core.c **** 
1238:..\..\..\..\..\..\uC-CPU/cpu_core.c **** /*$PAGE*/
1239:..\..\..\..\..\..\uC-CPU/cpu_core.c **** /*
1240:..\..\..\..\..\..\uC-CPU/cpu_core.c **** ***************************************************************************************************
1241:..\..\..\..\..\..\uC-CPU/cpu_core.c **** *                                        CPU_CntLeadZeros16()
1242:..\..\..\..\..\..\uC-CPU/cpu_core.c **** *
1243:..\..\..\..\..\..\uC-CPU/cpu_core.c **** * Description : Count the number of contiguous, most-significant, leading zero bits in a 16-bit dat
1244:..\..\..\..\..\..\uC-CPU/cpu_core.c **** *
1245:..\..\..\..\..\..\uC-CPU/cpu_core.c **** * Argument(s) : val         Data value to count leading zero bits.
1246:..\..\..\..\..\..\uC-CPU/cpu_core.c **** *
1247:..\..\..\..\..\..\uC-CPU/cpu_core.c **** * Return(s)   : Number of contiguous, most-significant, leading zero bits in 'val'.
1248:..\..\..\..\..\..\uC-CPU/cpu_core.c **** *
1249:..\..\..\..\..\..\uC-CPU/cpu_core.c **** * Caller(s)   : CPU_CntLeadZeros(),
1250:..\..\..\..\..\..\uC-CPU/cpu_core.c **** *               CPU_CntTrailZeros16(),
1251:..\..\..\..\..\..\uC-CPU/cpu_core.c **** *               Application.
1252:..\..\..\..\..\..\uC-CPU/cpu_core.c **** *
1253:..\..\..\..\..\..\uC-CPU/cpu_core.c **** *               This function is a CPU module application programming interface (API) function & MA
1254:..\..\..\..\..\..\uC-CPU/cpu_core.c **** *               called by application function(s).
1255:..\..\..\..\..\..\uC-CPU/cpu_core.c **** *
1256:..\..\..\..\..\..\uC-CPU/cpu_core.c **** * Note(s)     : (1) Supports 16-bit values :
1257:..\..\..\..\..\..\uC-CPU/cpu_core.c **** *
1258:..\..\..\..\..\..\uC-CPU/cpu_core.c **** *                          b15  b14  b13  ...  b04  b03  b02  b01  b00    # Leading Zeros
1259:..\..\..\..\..\..\uC-CPU/cpu_core.c **** *                          ---  ---  ---       ---  ---  ---  ---  ---    ---------------
1260:..\..\..\..\..\..\uC-CPU/cpu_core.c **** *                           1    x    x         x    x    x    x    x            0
1261:..\..\..\..\..\..\uC-CPU/cpu_core.c **** *                           0    1    x         x    x    x    x    x            1
1262:..\..\..\..\..\..\uC-CPU/cpu_core.c **** *                           0    0    1         x    x    x    x    x            2
1263:..\..\..\..\..\..\uC-CPU/cpu_core.c **** *                           :    :    :         :    :    :    :    :            :
1264:..\..\..\..\..\..\uC-CPU/cpu_core.c **** *                           :    :    :         :    :    :    :    :            :
1265:..\..\..\..\..\..\uC-CPU/cpu_core.c **** *                           0    0    0         1    x    x    x    x           11
1266:..\..\..\..\..\..\uC-CPU/cpu_core.c **** *                           0    0    0         0    1    x    x    x           12
1267:..\..\..\..\..\..\uC-CPU/cpu_core.c **** *                           0    0    0         0    0    1    x    x           13
1268:..\..\..\..\..\..\uC-CPU/cpu_core.c **** *                           0    0    0         0    0    0    1    x           14
1269:..\..\..\..\..\..\uC-CPU/cpu_core.c **** *                           0    0    0         0    0    0    0    1           15
1270:..\..\..\..\..\..\uC-CPU/cpu_core.c **** *                           0    0    0         0    0    0    0    0           16
1271:..\..\..\..\..\..\uC-CPU/cpu_core.c **** *
1272:..\..\..\..\..\..\uC-CPU/cpu_core.c **** *
1273:..\..\..\..\..\..\uC-CPU/cpu_core.c **** *                   See also 'CPU COUNT LEAD ZEROs LOOKUP TABLE  Note #1'.
1274:..\..\..\..\..\..\uC-CPU/cpu_core.c **** ***************************************************************************************************
1275:..\..\..\..\..\..\uC-CPU/cpu_core.c **** */
1276:..\..\..\..\..\..\uC-CPU/cpu_core.c **** 
1277:..\..\..\..\..\..\uC-CPU/cpu_core.c **** #if (CPU_CFG_DATA_SIZE_MAX >= CPU_WORD_SIZE_16)
1278:..\..\..\..\..\..\uC-CPU/cpu_core.c **** CPU_DATA  CPU_CntLeadZeros16 (CPU_INT16U  val)
1279:..\..\..\..\..\..\uC-CPU/cpu_core.c **** {
 768              		.loc 1 1279 0
 769              		.cfi_startproc
 770              		@ args = 0, pretend = 0, frame = 16
 771              		@ frame_needed = 1, uses_anonymous_args = 0
 772 0000 80B5     		push	{r7, lr}
 773              		.cfi_def_cfa_offset 8
ARM GAS  C:\Users\alex\AppData\Local\Temp\ccSBLcnl.s 			page 37


 774              		.cfi_offset 7, -8
 775              		.cfi_offset 14, -4
 776 0002 84B0     		sub	sp, sp, #16
 777              		.cfi_def_cfa_offset 24
 778 0004 00AF     		add	r7, sp, #0
 779              		.cfi_def_cfa_register 7
 780 0006 0346     		mov	r3, r0
 781 0008 FB80     		strh	r3, [r7, #6]	@ movhi
1280:..\..\..\..\..\..\uC-CPU/cpu_core.c **** #if  (!((defined(CPU_CFG_LEAD_ZEROS_ASM_PRESENT)) && \
1281:..\..\..\..\..\..\uC-CPU/cpu_core.c ****         (CPU_CFG_DATA_SIZE >= CPU_WORD_SIZE_16)))
1282:..\..\..\..\..\..\uC-CPU/cpu_core.c ****     CPU_DATA  ix;
1283:..\..\..\..\..\..\uC-CPU/cpu_core.c **** #endif
1284:..\..\..\..\..\..\uC-CPU/cpu_core.c ****     CPU_DATA  nbr_lead_zeros;
1285:..\..\..\..\..\..\uC-CPU/cpu_core.c **** 
1286:..\..\..\..\..\..\uC-CPU/cpu_core.c ****                                                                                 /* ---------- ASM-O
1287:..\..\..\..\..\..\uC-CPU/cpu_core.c **** #if ((defined(CPU_CFG_LEAD_ZEROS_ASM_PRESENT)) && \
1288:..\..\..\..\..\..\uC-CPU/cpu_core.c ****      (CPU_CFG_DATA_SIZE >= CPU_WORD_SIZE_16))
1289:..\..\..\..\..\..\uC-CPU/cpu_core.c ****     nbr_lead_zeros  =  CPU_CntLeadZeros((CPU_DATA)val);
 782              		.loc 1 1289 0
 783 000a FB88     		ldrh	r3, [r7, #6]
 784 000c 1846     		mov	r0, r3
 785 000e FFF7FEFF 		bl	CPU_CntLeadZeros
 786 0012 F860     		str	r0, [r7, #12]
1290:..\..\..\..\..\..\uC-CPU/cpu_core.c ****     nbr_lead_zeros -= (CPU_CFG_DATA_SIZE - CPU_WORD_SIZE_16) * DEF_OCTET_NBR_BITS;
 787              		.loc 1 1290 0
 788 0014 FB68     		ldr	r3, [r7, #12]
 789 0016 103B     		subs	r3, r3, #16
 790 0018 FB60     		str	r3, [r7, #12]
1291:..\..\..\..\..\..\uC-CPU/cpu_core.c **** 
1292:..\..\..\..\..\..\uC-CPU/cpu_core.c **** 
1293:..\..\..\..\..\..\uC-CPU/cpu_core.c **** #else                                                                           /* ----------- C-OP
1294:..\..\..\..\..\..\uC-CPU/cpu_core.c ****     if (val > 0x00FFu) {                                                        /* Chk bits [15:08]
1295:..\..\..\..\..\..\uC-CPU/cpu_core.c ****                                                                                 /* .. Nbr lead zero
1296:..\..\..\..\..\..\uC-CPU/cpu_core.c ****         ix             = (CPU_DATA)(val >>  8u);                                /* .. lookup tbl ix
1297:..\..\..\..\..\..\uC-CPU/cpu_core.c ****         nbr_lead_zeros = (CPU_DATA)(CPU_CntLeadZerosTbl[ix] +  0u);             /* .. plus nbr msb 
1298:..\..\..\..\..\..\uC-CPU/cpu_core.c **** 
1299:..\..\..\..\..\..\uC-CPU/cpu_core.c ****     } else {                                                                    /* Chk bits [07:00]
1300:..\..\..\..\..\..\uC-CPU/cpu_core.c ****                                                                                 /* .. Nbr lead zero
1301:..\..\..\..\..\..\uC-CPU/cpu_core.c ****         ix             = (CPU_DATA)(val >>  0u);                                /* .. lookup tbl ix
1302:..\..\..\..\..\..\uC-CPU/cpu_core.c ****         nbr_lead_zeros = (CPU_DATA)(CPU_CntLeadZerosTbl[ix] +  8u);             /* .. plus nbr msb 
1303:..\..\..\..\..\..\uC-CPU/cpu_core.c ****     }
1304:..\..\..\..\..\..\uC-CPU/cpu_core.c **** #endif
1305:..\..\..\..\..\..\uC-CPU/cpu_core.c **** 
1306:..\..\..\..\..\..\uC-CPU/cpu_core.c **** 
1307:..\..\..\..\..\..\uC-CPU/cpu_core.c ****     return (nbr_lead_zeros);
 791              		.loc 1 1307 0
 792 001a FB68     		ldr	r3, [r7, #12]
1308:..\..\..\..\..\..\uC-CPU/cpu_core.c **** }
 793              		.loc 1 1308 0
 794 001c 1846     		mov	r0, r3
 795 001e 1037     		adds	r7, r7, #16
 796              		.cfi_def_cfa_offset 8
 797 0020 BD46     		mov	sp, r7
 798              		.cfi_def_cfa_register 13
 799              		@ sp needed
 800 0022 80BD     		pop	{r7, pc}
 801              		.cfi_endproc
ARM GAS  C:\Users\alex\AppData\Local\Temp\ccSBLcnl.s 			page 38


 802              	.LFE10:
 803              		.size	CPU_CntLeadZeros16, .-CPU_CntLeadZeros16
 804              		.section	.text.CPU_CntLeadZeros32,"ax",%progbits
 805              		.align	2
 806              		.global	CPU_CntLeadZeros32
 807              		.thumb
 808              		.thumb_func
 809              		.type	CPU_CntLeadZeros32, %function
 810              	CPU_CntLeadZeros32:
 811              	.LFB11:
1309:..\..\..\..\..\..\uC-CPU/cpu_core.c **** #endif
1310:..\..\..\..\..\..\uC-CPU/cpu_core.c **** 
1311:..\..\..\..\..\..\uC-CPU/cpu_core.c **** 
1312:..\..\..\..\..\..\uC-CPU/cpu_core.c **** /*$PAGE*/
1313:..\..\..\..\..\..\uC-CPU/cpu_core.c **** /*
1314:..\..\..\..\..\..\uC-CPU/cpu_core.c **** ***************************************************************************************************
1315:..\..\..\..\..\..\uC-CPU/cpu_core.c **** *                                        CPU_CntLeadZeros32()
1316:..\..\..\..\..\..\uC-CPU/cpu_core.c **** *
1317:..\..\..\..\..\..\uC-CPU/cpu_core.c **** * Description : Count the number of contiguous, most-significant, leading zero bits in a 32-bit dat
1318:..\..\..\..\..\..\uC-CPU/cpu_core.c **** *
1319:..\..\..\..\..\..\uC-CPU/cpu_core.c **** * Argument(s) : val         Data value to count leading zero bits.
1320:..\..\..\..\..\..\uC-CPU/cpu_core.c **** *
1321:..\..\..\..\..\..\uC-CPU/cpu_core.c **** * Return(s)   : Number of contiguous, most-significant, leading zero bits in 'val'.
1322:..\..\..\..\..\..\uC-CPU/cpu_core.c **** *
1323:..\..\..\..\..\..\uC-CPU/cpu_core.c **** * Caller(s)   : CPU_CntLeadZeros(),
1324:..\..\..\..\..\..\uC-CPU/cpu_core.c **** *               CPU_CntTrailZeros32(),
1325:..\..\..\..\..\..\uC-CPU/cpu_core.c **** *               Application.
1326:..\..\..\..\..\..\uC-CPU/cpu_core.c **** *
1327:..\..\..\..\..\..\uC-CPU/cpu_core.c **** *               This function is a CPU module application programming interface (API) function & MA
1328:..\..\..\..\..\..\uC-CPU/cpu_core.c **** *               called by application function(s).
1329:..\..\..\..\..\..\uC-CPU/cpu_core.c **** *
1330:..\..\..\..\..\..\uC-CPU/cpu_core.c **** * Note(s)     : (1) Supports 32-bit values :
1331:..\..\..\..\..\..\uC-CPU/cpu_core.c **** *
1332:..\..\..\..\..\..\uC-CPU/cpu_core.c **** *                          b31  b30  b29  ...  b04  b03  b02  b01  b00    # Leading Zeros
1333:..\..\..\..\..\..\uC-CPU/cpu_core.c **** *                          ---  ---  ---       ---  ---  ---  ---  ---    ---------------
1334:..\..\..\..\..\..\uC-CPU/cpu_core.c **** *                           1    x    x         x    x    x    x    x            0
1335:..\..\..\..\..\..\uC-CPU/cpu_core.c **** *                           0    1    x         x    x    x    x    x            1
1336:..\..\..\..\..\..\uC-CPU/cpu_core.c **** *                           0    0    1         x    x    x    x    x            2
1337:..\..\..\..\..\..\uC-CPU/cpu_core.c **** *                           :    :    :         :    :    :    :    :            :
1338:..\..\..\..\..\..\uC-CPU/cpu_core.c **** *                           :    :    :         :    :    :    :    :            :
1339:..\..\..\..\..\..\uC-CPU/cpu_core.c **** *                           0    0    0         1    x    x    x    x           27
1340:..\..\..\..\..\..\uC-CPU/cpu_core.c **** *                           0    0    0         0    1    x    x    x           28
1341:..\..\..\..\..\..\uC-CPU/cpu_core.c **** *                           0    0    0         0    0    1    x    x           29
1342:..\..\..\..\..\..\uC-CPU/cpu_core.c **** *                           0    0    0         0    0    0    1    x           30
1343:..\..\..\..\..\..\uC-CPU/cpu_core.c **** *                           0    0    0         0    0    0    0    1           31
1344:..\..\..\..\..\..\uC-CPU/cpu_core.c **** *                           0    0    0         0    0    0    0    0           32
1345:..\..\..\..\..\..\uC-CPU/cpu_core.c **** *
1346:..\..\..\..\..\..\uC-CPU/cpu_core.c **** *
1347:..\..\..\..\..\..\uC-CPU/cpu_core.c **** *                   See also 'CPU COUNT LEAD ZEROs LOOKUP TABLE  Note #1'.
1348:..\..\..\..\..\..\uC-CPU/cpu_core.c **** ***************************************************************************************************
1349:..\..\..\..\..\..\uC-CPU/cpu_core.c **** */
1350:..\..\..\..\..\..\uC-CPU/cpu_core.c **** 
1351:..\..\..\..\..\..\uC-CPU/cpu_core.c **** #if (CPU_CFG_DATA_SIZE_MAX >= CPU_WORD_SIZE_32)
1352:..\..\..\..\..\..\uC-CPU/cpu_core.c **** CPU_DATA  CPU_CntLeadZeros32 (CPU_INT32U  val)
1353:..\..\..\..\..\..\uC-CPU/cpu_core.c **** {
 812              		.loc 1 1353 0
 813              		.cfi_startproc
ARM GAS  C:\Users\alex\AppData\Local\Temp\ccSBLcnl.s 			page 39


 814              		@ args = 0, pretend = 0, frame = 16
 815              		@ frame_needed = 1, uses_anonymous_args = 0
 816 0000 80B5     		push	{r7, lr}
 817              		.cfi_def_cfa_offset 8
 818              		.cfi_offset 7, -8
 819              		.cfi_offset 14, -4
 820 0002 84B0     		sub	sp, sp, #16
 821              		.cfi_def_cfa_offset 24
 822 0004 00AF     		add	r7, sp, #0
 823              		.cfi_def_cfa_register 7
 824 0006 7860     		str	r0, [r7, #4]
1354:..\..\..\..\..\..\uC-CPU/cpu_core.c **** #if  (!((defined(CPU_CFG_LEAD_ZEROS_ASM_PRESENT)) && \
1355:..\..\..\..\..\..\uC-CPU/cpu_core.c ****         (CPU_CFG_DATA_SIZE >= CPU_WORD_SIZE_32)))
1356:..\..\..\..\..\..\uC-CPU/cpu_core.c ****     CPU_DATA  ix;
1357:..\..\..\..\..\..\uC-CPU/cpu_core.c **** #endif
1358:..\..\..\..\..\..\uC-CPU/cpu_core.c ****     CPU_DATA  nbr_lead_zeros;
1359:..\..\..\..\..\..\uC-CPU/cpu_core.c **** 
1360:..\..\..\..\..\..\uC-CPU/cpu_core.c ****                                                                                 /* ---------- ASM-O
1361:..\..\..\..\..\..\uC-CPU/cpu_core.c **** #if ((defined(CPU_CFG_LEAD_ZEROS_ASM_PRESENT)) && \
1362:..\..\..\..\..\..\uC-CPU/cpu_core.c ****      (CPU_CFG_DATA_SIZE >= CPU_WORD_SIZE_32))
1363:..\..\..\..\..\..\uC-CPU/cpu_core.c ****     nbr_lead_zeros  =  CPU_CntLeadZeros((CPU_DATA)val);
 825              		.loc 1 1363 0
 826 0008 7868     		ldr	r0, [r7, #4]
 827 000a FFF7FEFF 		bl	CPU_CntLeadZeros
 828 000e F860     		str	r0, [r7, #12]
1364:..\..\..\..\..\..\uC-CPU/cpu_core.c ****     nbr_lead_zeros -= (CPU_CFG_DATA_SIZE - CPU_WORD_SIZE_32) * DEF_OCTET_NBR_BITS;
1365:..\..\..\..\..\..\uC-CPU/cpu_core.c **** 
1366:..\..\..\..\..\..\uC-CPU/cpu_core.c **** 
1367:..\..\..\..\..\..\uC-CPU/cpu_core.c **** #else                                                                           /* ----------- C-OP
1368:..\..\..\..\..\..\uC-CPU/cpu_core.c ****     if (val > 0x0000FFFFu) {
1369:..\..\..\..\..\..\uC-CPU/cpu_core.c ****         if (val > 0x00FFFFFFu) {                                                /* Chk bits [31:24]
1370:..\..\..\..\..\..\uC-CPU/cpu_core.c ****                                                                                 /* .. Nbr lead zero
1371:..\..\..\..\..\..\uC-CPU/cpu_core.c ****             ix             = (CPU_DATA)(val >> 24u);                            /* .. lookup tbl ix
1372:..\..\..\..\..\..\uC-CPU/cpu_core.c ****             nbr_lead_zeros = (CPU_DATA)(CPU_CntLeadZerosTbl[ix] +  0u);         /* .. plus nbr msb 
1373:..\..\..\..\..\..\uC-CPU/cpu_core.c **** 
1374:..\..\..\..\..\..\uC-CPU/cpu_core.c ****         } else {                                                                /* Chk bits [23:16]
1375:..\..\..\..\..\..\uC-CPU/cpu_core.c ****                                                                                 /* .. Nbr lead zero
1376:..\..\..\..\..\..\uC-CPU/cpu_core.c ****             ix             = (CPU_DATA)(val >> 16u);                            /* .. lookup tbl ix
1377:..\..\..\..\..\..\uC-CPU/cpu_core.c ****             nbr_lead_zeros = (CPU_DATA)(CPU_CntLeadZerosTbl[ix] +  8u);         /* .. plus nbr msb 
1378:..\..\..\..\..\..\uC-CPU/cpu_core.c ****         }
1379:..\..\..\..\..\..\uC-CPU/cpu_core.c **** 
1380:..\..\..\..\..\..\uC-CPU/cpu_core.c ****     } else {
1381:..\..\..\..\..\..\uC-CPU/cpu_core.c ****         if (val > 0x000000FFu) {                                                /* Chk bits [15:08]
1382:..\..\..\..\..\..\uC-CPU/cpu_core.c ****                                                                                 /* .. Nbr lead zero
1383:..\..\..\..\..\..\uC-CPU/cpu_core.c ****             ix             = (CPU_DATA)(val >>  8u);                            /* .. lookup tbl ix
1384:..\..\..\..\..\..\uC-CPU/cpu_core.c ****             nbr_lead_zeros = (CPU_DATA)(CPU_CntLeadZerosTbl[ix] + 16u);         /* .. plus nbr msb 
1385:..\..\..\..\..\..\uC-CPU/cpu_core.c **** 
1386:..\..\..\..\..\..\uC-CPU/cpu_core.c ****         } else {                                                                /* Chk bits [07:00]
1387:..\..\..\..\..\..\uC-CPU/cpu_core.c ****                                                                                 /* .. Nbr lead zero
1388:..\..\..\..\..\..\uC-CPU/cpu_core.c ****             ix             = (CPU_DATA)(val >>  0u);                            /* .. lookup tbl ix
1389:..\..\..\..\..\..\uC-CPU/cpu_core.c ****             nbr_lead_zeros = (CPU_DATA)(CPU_CntLeadZerosTbl[ix] + 24u);         /* .. plus nbr msb 
1390:..\..\..\..\..\..\uC-CPU/cpu_core.c ****         }
1391:..\..\..\..\..\..\uC-CPU/cpu_core.c ****     }
1392:..\..\..\..\..\..\uC-CPU/cpu_core.c **** #endif
1393:..\..\..\..\..\..\uC-CPU/cpu_core.c **** 
1394:..\..\..\..\..\..\uC-CPU/cpu_core.c **** 
1395:..\..\..\..\..\..\uC-CPU/cpu_core.c ****     return (nbr_lead_zeros);
ARM GAS  C:\Users\alex\AppData\Local\Temp\ccSBLcnl.s 			page 40


 829              		.loc 1 1395 0
 830 0010 FB68     		ldr	r3, [r7, #12]
1396:..\..\..\..\..\..\uC-CPU/cpu_core.c **** }
 831              		.loc 1 1396 0
 832 0012 1846     		mov	r0, r3
 833 0014 1037     		adds	r7, r7, #16
 834              		.cfi_def_cfa_offset 8
 835 0016 BD46     		mov	sp, r7
 836              		.cfi_def_cfa_register 13
 837              		@ sp needed
 838 0018 80BD     		pop	{r7, pc}
 839              		.cfi_endproc
 840              	.LFE11:
 841              		.size	CPU_CntLeadZeros32, .-CPU_CntLeadZeros32
 842 001a 00BF     		.section	.text.CPU_CntLeadZeros64,"ax",%progbits
 843              		.align	2
 844              		.global	CPU_CntLeadZeros64
 845              		.thumb
 846              		.thumb_func
 847              		.type	CPU_CntLeadZeros64, %function
 848              	CPU_CntLeadZeros64:
 849              	.LFB12:
1397:..\..\..\..\..\..\uC-CPU/cpu_core.c **** #endif
1398:..\..\..\..\..\..\uC-CPU/cpu_core.c **** 
1399:..\..\..\..\..\..\uC-CPU/cpu_core.c **** 
1400:..\..\..\..\..\..\uC-CPU/cpu_core.c **** /*$PAGE*/
1401:..\..\..\..\..\..\uC-CPU/cpu_core.c **** /*
1402:..\..\..\..\..\..\uC-CPU/cpu_core.c **** ***************************************************************************************************
1403:..\..\..\..\..\..\uC-CPU/cpu_core.c **** *                                        CPU_CntLeadZeros64()
1404:..\..\..\..\..\..\uC-CPU/cpu_core.c **** *
1405:..\..\..\..\..\..\uC-CPU/cpu_core.c **** * Description : Count the number of contiguous, most-significant, leading zero bits in a 64-bit dat
1406:..\..\..\..\..\..\uC-CPU/cpu_core.c **** *
1407:..\..\..\..\..\..\uC-CPU/cpu_core.c **** * Argument(s) : val         Data value to count leading zero bits.
1408:..\..\..\..\..\..\uC-CPU/cpu_core.c **** *
1409:..\..\..\..\..\..\uC-CPU/cpu_core.c **** * Return(s)   : Number of contiguous, most-significant, leading zero bits in 'val'.
1410:..\..\..\..\..\..\uC-CPU/cpu_core.c **** *
1411:..\..\..\..\..\..\uC-CPU/cpu_core.c **** * Caller(s)   : CPU_CntLeadZeros(),
1412:..\..\..\..\..\..\uC-CPU/cpu_core.c **** *               CPU_CntTrailZeros64(),
1413:..\..\..\..\..\..\uC-CPU/cpu_core.c **** *               Application.
1414:..\..\..\..\..\..\uC-CPU/cpu_core.c **** *
1415:..\..\..\..\..\..\uC-CPU/cpu_core.c **** *               This function is a CPU module application programming interface (API) function & MA
1416:..\..\..\..\..\..\uC-CPU/cpu_core.c **** *               called by application function(s).
1417:..\..\..\..\..\..\uC-CPU/cpu_core.c **** *
1418:..\..\..\..\..\..\uC-CPU/cpu_core.c **** * Note(s)     : (1) Supports 64-bit values :
1419:..\..\..\..\..\..\uC-CPU/cpu_core.c **** *
1420:..\..\..\..\..\..\uC-CPU/cpu_core.c **** *                          b63  b62  b61  ...  b04  b03  b02  b01  b00    # Leading Zeros
1421:..\..\..\..\..\..\uC-CPU/cpu_core.c **** *                          ---  ---  ---       ---  ---  ---  ---  ---    ---------------
1422:..\..\..\..\..\..\uC-CPU/cpu_core.c **** *                           1    x    x         x    x    x    x    x            0
1423:..\..\..\..\..\..\uC-CPU/cpu_core.c **** *                           0    1    x         x    x    x    x    x            1
1424:..\..\..\..\..\..\uC-CPU/cpu_core.c **** *                           0    0    1         x    x    x    x    x            2
1425:..\..\..\..\..\..\uC-CPU/cpu_core.c **** *                           :    :    :         :    :    :    :    :            :
1426:..\..\..\..\..\..\uC-CPU/cpu_core.c **** *                           :    :    :         :    :    :    :    :            :
1427:..\..\..\..\..\..\uC-CPU/cpu_core.c **** *                           0    0    0         1    x    x    x    x           59
1428:..\..\..\..\..\..\uC-CPU/cpu_core.c **** *                           0    0    0         0    1    x    x    x           60
1429:..\..\..\..\..\..\uC-CPU/cpu_core.c **** *                           0    0    0         0    0    1    x    x           61
1430:..\..\..\..\..\..\uC-CPU/cpu_core.c **** *                           0    0    0         0    0    0    1    x           62
1431:..\..\..\..\..\..\uC-CPU/cpu_core.c **** *                           0    0    0         0    0    0    0    1           63
ARM GAS  C:\Users\alex\AppData\Local\Temp\ccSBLcnl.s 			page 41


1432:..\..\..\..\..\..\uC-CPU/cpu_core.c **** *                           0    0    0         0    0    0    0    0           64
1433:..\..\..\..\..\..\uC-CPU/cpu_core.c **** *
1434:..\..\..\..\..\..\uC-CPU/cpu_core.c **** *
1435:..\..\..\..\..\..\uC-CPU/cpu_core.c **** *                   See also 'CPU COUNT LEAD ZEROs LOOKUP TABLE  Note #1'.
1436:..\..\..\..\..\..\uC-CPU/cpu_core.c **** ***************************************************************************************************
1437:..\..\..\..\..\..\uC-CPU/cpu_core.c **** */
1438:..\..\..\..\..\..\uC-CPU/cpu_core.c **** /*$PAGE*/
1439:..\..\..\..\..\..\uC-CPU/cpu_core.c **** #if (CPU_CFG_DATA_SIZE_MAX >= CPU_WORD_SIZE_64)
1440:..\..\..\..\..\..\uC-CPU/cpu_core.c **** CPU_DATA  CPU_CntLeadZeros64 (CPU_INT64U  val)
1441:..\..\..\..\..\..\uC-CPU/cpu_core.c **** {
 850              		.loc 1 1441 0
 851              		.cfi_startproc
 852              		@ args = 0, pretend = 0, frame = 48
 853              		@ frame_needed = 1, uses_anonymous_args = 0
 854              		@ link register save eliminated.
 855 0000 2DE9F00F 		push	{r4, r5, r6, r7, r8, r9, r10, fp}
 856              		.cfi_def_cfa_offset 32
 857              		.cfi_offset 4, -32
 858              		.cfi_offset 5, -28
 859              		.cfi_offset 6, -24
 860              		.cfi_offset 7, -20
 861              		.cfi_offset 8, -16
 862              		.cfi_offset 9, -12
 863              		.cfi_offset 10, -8
 864              		.cfi_offset 11, -4
 865 0004 8CB0     		sub	sp, sp, #48
 866              		.cfi_def_cfa_offset 80
 867 0006 00AF     		add	r7, sp, #0
 868              		.cfi_def_cfa_register 7
 869 0008 C7E90801 		strd	r0, [r7, #32]
1442:..\..\..\..\..\..\uC-CPU/cpu_core.c **** #if  (!((defined(CPU_CFG_LEAD_ZEROS_ASM_PRESENT)) && \
1443:..\..\..\..\..\..\uC-CPU/cpu_core.c ****         (CPU_CFG_DATA_SIZE >= CPU_WORD_SIZE_64)))
1444:..\..\..\..\..\..\uC-CPU/cpu_core.c ****     CPU_DATA  ix;
1445:..\..\..\..\..\..\uC-CPU/cpu_core.c **** #endif
1446:..\..\..\..\..\..\uC-CPU/cpu_core.c ****     CPU_DATA  nbr_lead_zeros;
1447:..\..\..\..\..\..\uC-CPU/cpu_core.c **** 
1448:..\..\..\..\..\..\uC-CPU/cpu_core.c ****                                                                                 /* ---------- ASM-O
1449:..\..\..\..\..\..\uC-CPU/cpu_core.c **** #if ((defined(CPU_CFG_LEAD_ZEROS_ASM_PRESENT)) && \
1450:..\..\..\..\..\..\uC-CPU/cpu_core.c ****      (CPU_CFG_DATA_SIZE >= CPU_WORD_SIZE_64))
1451:..\..\..\..\..\..\uC-CPU/cpu_core.c ****     nbr_lead_zeros  =  CPU_CntLeadZeros((CPU_DATA)val);
1452:..\..\..\..\..\..\uC-CPU/cpu_core.c ****     nbr_lead_zeros -= (CPU_CFG_DATA_SIZE - CPU_WORD_SIZE_64) * DEF_OCTET_NBR_BITS;
1453:..\..\..\..\..\..\uC-CPU/cpu_core.c **** 
1454:..\..\..\..\..\..\uC-CPU/cpu_core.c **** 
1455:..\..\..\..\..\..\uC-CPU/cpu_core.c **** #else                                                                           /* ----------- C-OP
1456:..\..\..\..\..\..\uC-CPU/cpu_core.c ****     if (val > 0x00000000FFFFFFFFu) {
 870              		.loc 1 1456 0
 871 000c D7E90834 		ldrd	r3, [r7, #32]
 872 0010 012C     		cmp	r4, #1
 873 0012 08BF     		it	eq
 874 0014 002B     		cmpeq	r3, #0
 875 0016 55D3     		bcc	.L40
1457:..\..\..\..\..\..\uC-CPU/cpu_core.c ****         if (val > 0x0000FFFFFFFFFFFFu) {
 876              		.loc 1 1457 0
 877 0018 D7E90834 		ldrd	r3, [r7, #32]
 878 001c 4FF0FF31 		mov	r1, #-1
 879 0020 4FF6FF72 		movw	r2, #65535
 880 0024 A242     		cmp	r2, r4
ARM GAS  C:\Users\alex\AppData\Local\Temp\ccSBLcnl.s 			page 42


 881 0026 08BF     		it	eq
 882 0028 9942     		cmpeq	r1, r3
 883 002a 26D2     		bcs	.L41
1458:..\..\..\..\..\..\uC-CPU/cpu_core.c ****             if (val > 0x00FFFFFFFFFFFFFFu) {                                    /* Chk bits [63:56]
 884              		.loc 1 1458 0
 885 002c D7E90834 		ldrd	r3, [r7, #32]
 886 0030 4FF0FF31 		mov	r1, #-1
 887 0034 6FF07F42 		mvn	r2, #-16777216
 888 0038 A242     		cmp	r2, r4
 889 003a 08BF     		it	eq
 890 003c 9942     		cmpeq	r1, r3
 891 003e 0DD2     		bcs	.L42
1459:..\..\..\..\..\..\uC-CPU/cpu_core.c ****                                                                                 /* .. Nbr lead zero
1460:..\..\..\..\..\..\uC-CPU/cpu_core.c ****                 ix             = (CPU_DATA)(val >> 56u);                        /* .. lookup tbl ix
 892              		.loc 1 1460 0
 893 0040 D7E90834 		ldrd	r3, [r7, #32]
 894 0044 230E     		lsrs	r3, r4, #24
 895 0046 BB61     		str	r3, [r7, #24]
 896 0048 0023     		movs	r3, #0
 897 004a FB61     		str	r3, [r7, #28]
 898 004c BB69     		ldr	r3, [r7, #24]
 899 004e BB62     		str	r3, [r7, #40]
1461:..\..\..\..\..\..\uC-CPU/cpu_core.c ****                 nbr_lead_zeros = (CPU_DATA)(CPU_CntLeadZerosTbl[ix] +  0u);     /* .. plus nbr msb 
 900              		.loc 1 1461 0
 901 0050 4A4A     		ldr	r2, .L52
 902 0052 BB6A     		ldr	r3, [r7, #40]
 903 0054 1344     		add	r3, r3, r2
 904 0056 1B78     		ldrb	r3, [r3]	@ zero_extendqisi2
 905 0058 FB62     		str	r3, [r7, #44]
 906 005a 87E0     		b	.L46
 907              	.L42:
1462:..\..\..\..\..\..\uC-CPU/cpu_core.c **** 
1463:..\..\..\..\..\..\uC-CPU/cpu_core.c ****             } else {                                                            /* Chk bits [55:48]
1464:..\..\..\..\..\..\uC-CPU/cpu_core.c ****                                                                                 /* .. Nbr lead zero
1465:..\..\..\..\..\..\uC-CPU/cpu_core.c ****                 ix             = (CPU_DATA)(val >> 48u);                        /* .. lookup tbl ix
 908              		.loc 1 1465 0
 909 005c D7E90834 		ldrd	r3, [r7, #32]
 910 0060 230C     		lsrs	r3, r4, #16
 911 0062 3B61     		str	r3, [r7, #16]
 912 0064 0023     		movs	r3, #0
 913 0066 7B61     		str	r3, [r7, #20]
 914 0068 3B69     		ldr	r3, [r7, #16]
 915 006a BB62     		str	r3, [r7, #40]
1466:..\..\..\..\..\..\uC-CPU/cpu_core.c ****                 nbr_lead_zeros = (CPU_DATA)(CPU_CntLeadZerosTbl[ix] +  8u);     /* .. plus nbr msb 
 916              		.loc 1 1466 0
 917 006c 434A     		ldr	r2, .L52
 918 006e BB6A     		ldr	r3, [r7, #40]
 919 0070 1344     		add	r3, r3, r2
 920 0072 1B78     		ldrb	r3, [r3]	@ zero_extendqisi2
 921 0074 0833     		adds	r3, r3, #8
 922 0076 FB62     		str	r3, [r7, #44]
 923 0078 78E0     		b	.L46
 924              	.L41:
1467:..\..\..\..\..\..\uC-CPU/cpu_core.c ****             }
1468:..\..\..\..\..\..\uC-CPU/cpu_core.c **** 
1469:..\..\..\..\..\..\uC-CPU/cpu_core.c ****         } else {
1470:..\..\..\..\..\..\uC-CPU/cpu_core.c ****             if (val > 0x000000FFFFFFFFFFu) {                                    /* Chk bits [47:40]
ARM GAS  C:\Users\alex\AppData\Local\Temp\ccSBLcnl.s 			page 43


 925              		.loc 1 1470 0
 926 007a D7E90834 		ldrd	r3, [r7, #32]
 927 007e B4F5807F 		cmp	r4, #256
 928 0082 08BF     		it	eq
 929 0084 002B     		cmpeq	r3, #0
 930 0086 0ED3     		bcc	.L45
1471:..\..\..\..\..\..\uC-CPU/cpu_core.c ****                                                                                 /* .. Nbr lead zero
1472:..\..\..\..\..\..\uC-CPU/cpu_core.c ****                 ix             = (CPU_DATA)(val >> 40u);                        /* .. lookup tbl ix
 931              		.loc 1 1472 0
 932 0088 D7E90834 		ldrd	r3, [r7, #32]
 933 008c 230A     		lsrs	r3, r4, #8
 934 008e BB60     		str	r3, [r7, #8]
 935 0090 0023     		movs	r3, #0
 936 0092 FB60     		str	r3, [r7, #12]
 937 0094 BB68     		ldr	r3, [r7, #8]
 938 0096 BB62     		str	r3, [r7, #40]
1473:..\..\..\..\..\..\uC-CPU/cpu_core.c ****                 nbr_lead_zeros = (CPU_DATA)(CPU_CntLeadZerosTbl[ix] + 16u);     /* .. plus nbr msb 
 939              		.loc 1 1473 0
 940 0098 384A     		ldr	r2, .L52
 941 009a BB6A     		ldr	r3, [r7, #40]
 942 009c 1344     		add	r3, r3, r2
 943 009e 1B78     		ldrb	r3, [r3]	@ zero_extendqisi2
 944 00a0 1033     		adds	r3, r3, #16
 945 00a2 FB62     		str	r3, [r7, #44]
 946 00a4 62E0     		b	.L46
 947              	.L45:
1474:..\..\..\..\..\..\uC-CPU/cpu_core.c **** 
1475:..\..\..\..\..\..\uC-CPU/cpu_core.c ****             } else {                                                            /* Chk bits [39:32]
1476:..\..\..\..\..\..\uC-CPU/cpu_core.c ****                                                                                 /* .. Nbr lead zero
1477:..\..\..\..\..\..\uC-CPU/cpu_core.c ****                 ix             = (CPU_DATA)(val >> 32u);                        /* .. lookup tbl ix
 948              		.loc 1 1477 0
 949 00a6 D7E90834 		ldrd	r3, [r7, #32]
 950 00aa 2300     		movs	r3, r4
 951 00ac 3B60     		str	r3, [r7]
 952 00ae 0023     		movs	r3, #0
 953 00b0 7B60     		str	r3, [r7, #4]
 954 00b2 3B68     		ldr	r3, [r7]
 955 00b4 BB62     		str	r3, [r7, #40]
1478:..\..\..\..\..\..\uC-CPU/cpu_core.c ****                 nbr_lead_zeros = (CPU_DATA)(CPU_CntLeadZerosTbl[ix] + 24u);     /* .. plus nbr msb 
 956              		.loc 1 1478 0
 957 00b6 314A     		ldr	r2, .L52
 958 00b8 BB6A     		ldr	r3, [r7, #40]
 959 00ba 1344     		add	r3, r3, r2
 960 00bc 1B78     		ldrb	r3, [r3]	@ zero_extendqisi2
 961 00be 1833     		adds	r3, r3, #24
 962 00c0 FB62     		str	r3, [r7, #44]
 963 00c2 53E0     		b	.L46
 964              	.L40:
1479:..\..\..\..\..\..\uC-CPU/cpu_core.c ****             }
1480:..\..\..\..\..\..\uC-CPU/cpu_core.c ****         }
1481:..\..\..\..\..\..\uC-CPU/cpu_core.c **** 
1482:..\..\..\..\..\..\uC-CPU/cpu_core.c ****     } else {
1483:..\..\..\..\..\..\uC-CPU/cpu_core.c ****         if (val > 0x000000000000FFFFu) {
 965              		.loc 1 1483 0
 966 00c4 D7E90834 		ldrd	r3, [r7, #32]
 967 00c8 4FF6FF71 		movw	r1, #65535
 968 00cc 4FF00002 		mov	r2, #0
ARM GAS  C:\Users\alex\AppData\Local\Temp\ccSBLcnl.s 			page 44


 969 00d0 A242     		cmp	r2, r4
 970 00d2 08BF     		it	eq
 971 00d4 9942     		cmpeq	r1, r3
 972 00d6 2BD2     		bcs	.L47
1484:..\..\..\..\..\..\uC-CPU/cpu_core.c ****             if (val > 0x0000000000FFFFFFu) {                                    /* Chk bits [31:24]
 973              		.loc 1 1484 0
 974 00d8 D7E90834 		ldrd	r3, [r7, #32]
 975 00dc 6FF07F41 		mvn	r1, #-16777216
 976 00e0 4FF00002 		mov	r2, #0
 977 00e4 A242     		cmp	r2, r4
 978 00e6 08BF     		it	eq
 979 00e8 9942     		cmpeq	r1, r3
 980 00ea 10D2     		bcs	.L48
1485:..\..\..\..\..\..\uC-CPU/cpu_core.c ****                                                                                 /* .. Nbr lead zero
1486:..\..\..\..\..\..\uC-CPU/cpu_core.c ****                 ix             = (CPU_DATA)(val >> 24u);                        /* .. lookup tbl ix
 981              		.loc 1 1486 0
 982 00ec D7E90834 		ldrd	r3, [r7, #32]
 983 00f0 4FEA136A 		lsr	r10, r3, #24
 984 00f4 4AEA042A 		orr	r10, r10, r4, lsl #8
 985 00f8 4FEA146B 		lsr	fp, r4, #24
 986 00fc 5346     		mov	r3, r10
 987 00fe BB62     		str	r3, [r7, #40]
1487:..\..\..\..\..\..\uC-CPU/cpu_core.c ****                 nbr_lead_zeros = (CPU_DATA)(CPU_CntLeadZerosTbl[ix] + 32u);     /* .. plus nbr msb 
 988              		.loc 1 1487 0
 989 0100 1E4A     		ldr	r2, .L52
 990 0102 BB6A     		ldr	r3, [r7, #40]
 991 0104 1344     		add	r3, r3, r2
 992 0106 1B78     		ldrb	r3, [r3]	@ zero_extendqisi2
 993 0108 2033     		adds	r3, r3, #32
 994 010a FB62     		str	r3, [r7, #44]
 995 010c 2EE0     		b	.L46
 996              	.L48:
1488:..\..\..\..\..\..\uC-CPU/cpu_core.c **** 
1489:..\..\..\..\..\..\uC-CPU/cpu_core.c ****             } else {                                                            /* Chk bits [23:16]
1490:..\..\..\..\..\..\uC-CPU/cpu_core.c ****                                                                                 /* .. Nbr lead zero
1491:..\..\..\..\..\..\uC-CPU/cpu_core.c ****                 ix             = (CPU_DATA)(val >> 16u);                        /* .. lookup tbl ix
 997              		.loc 1 1491 0
 998 010e D7E90834 		ldrd	r3, [r7, #32]
 999 0112 4FEA1348 		lsr	r8, r3, #16
 1000 0116 48EA0448 		orr	r8, r8, r4, lsl #16
 1001 011a 4FEA1449 		lsr	r9, r4, #16
 1002 011e 4346     		mov	r3, r8
 1003 0120 BB62     		str	r3, [r7, #40]
1492:..\..\..\..\..\..\uC-CPU/cpu_core.c ****                 nbr_lead_zeros = (CPU_DATA)(CPU_CntLeadZerosTbl[ix] + 40u);     /* .. plus nbr msb 
 1004              		.loc 1 1492 0
 1005 0122 164A     		ldr	r2, .L52
 1006 0124 BB6A     		ldr	r3, [r7, #40]
 1007 0126 1344     		add	r3, r3, r2
 1008 0128 1B78     		ldrb	r3, [r3]	@ zero_extendqisi2
 1009 012a 2833     		adds	r3, r3, #40
 1010 012c FB62     		str	r3, [r7, #44]
 1011 012e 1DE0     		b	.L46
 1012              	.L47:
1493:..\..\..\..\..\..\uC-CPU/cpu_core.c ****             }
1494:..\..\..\..\..\..\uC-CPU/cpu_core.c **** 
1495:..\..\..\..\..\..\uC-CPU/cpu_core.c ****         } else {
1496:..\..\..\..\..\..\uC-CPU/cpu_core.c ****             if (val > 0x00000000000000FFu) {                                    /* Chk bits [15:08]
ARM GAS  C:\Users\alex\AppData\Local\Temp\ccSBLcnl.s 			page 45


 1013              		.loc 1 1496 0
 1014 0130 D7E90834 		ldrd	r3, [r7, #32]
 1015 0134 002C     		cmp	r4, #0
 1016 0136 08BF     		it	eq
 1017 0138 B3F5807F 		cmpeq	r3, #256
 1018 013c 0ED3     		bcc	.L50
1497:..\..\..\..\..\..\uC-CPU/cpu_core.c ****                                                                                 /* .. Nbr lead zero
1498:..\..\..\..\..\..\uC-CPU/cpu_core.c ****                 ix             = (CPU_DATA)(val >>  8u);                        /* .. lookup tbl ix
 1019              		.loc 1 1498 0
 1020 013e D7E90834 		ldrd	r3, [r7, #32]
 1021 0142 1D0A     		lsrs	r5, r3, #8
 1022 0144 45EA0465 		orr	r5, r5, r4, lsl #24
 1023 0148 260A     		lsrs	r6, r4, #8
 1024 014a 2B46     		mov	r3, r5
 1025 014c BB62     		str	r3, [r7, #40]
1499:..\..\..\..\..\..\uC-CPU/cpu_core.c ****                 nbr_lead_zeros = (CPU_DATA)(CPU_CntLeadZerosTbl[ix] + 48u);     /* .. plus nbr msb 
 1026              		.loc 1 1499 0
 1027 014e 0B4A     		ldr	r2, .L52
 1028 0150 BB6A     		ldr	r3, [r7, #40]
 1029 0152 1344     		add	r3, r3, r2
 1030 0154 1B78     		ldrb	r3, [r3]	@ zero_extendqisi2
 1031 0156 3033     		adds	r3, r3, #48
 1032 0158 FB62     		str	r3, [r7, #44]
 1033 015a 07E0     		b	.L46
 1034              	.L50:
1500:..\..\..\..\..\..\uC-CPU/cpu_core.c **** 
1501:..\..\..\..\..\..\uC-CPU/cpu_core.c ****             } else {                                                            /* Chk bits [07:00]
1502:..\..\..\..\..\..\uC-CPU/cpu_core.c ****                                                                                 /* .. Nbr lead zero
1503:..\..\..\..\..\..\uC-CPU/cpu_core.c ****                 ix             = (CPU_DATA)(val >>  0u);                        /* .. lookup tbl ix
 1035              		.loc 1 1503 0
 1036 015c 3B6A     		ldr	r3, [r7, #32]
 1037 015e BB62     		str	r3, [r7, #40]
1504:..\..\..\..\..\..\uC-CPU/cpu_core.c ****                 nbr_lead_zeros = (CPU_DATA)(CPU_CntLeadZerosTbl[ix] + 56u);     /* .. plus nbr msb 
 1038              		.loc 1 1504 0
 1039 0160 064A     		ldr	r2, .L52
 1040 0162 BB6A     		ldr	r3, [r7, #40]
 1041 0164 1344     		add	r3, r3, r2
 1042 0166 1B78     		ldrb	r3, [r3]	@ zero_extendqisi2
 1043 0168 3833     		adds	r3, r3, #56
 1044 016a FB62     		str	r3, [r7, #44]
 1045              	.L46:
1505:..\..\..\..\..\..\uC-CPU/cpu_core.c ****             }
1506:..\..\..\..\..\..\uC-CPU/cpu_core.c ****         }
1507:..\..\..\..\..\..\uC-CPU/cpu_core.c ****     }
1508:..\..\..\..\..\..\uC-CPU/cpu_core.c **** #endif
1509:..\..\..\..\..\..\uC-CPU/cpu_core.c **** 
1510:..\..\..\..\..\..\uC-CPU/cpu_core.c **** 
1511:..\..\..\..\..\..\uC-CPU/cpu_core.c ****     return (nbr_lead_zeros);
 1046              		.loc 1 1511 0
 1047 016c FB6A     		ldr	r3, [r7, #44]
1512:..\..\..\..\..\..\uC-CPU/cpu_core.c **** }
 1048              		.loc 1 1512 0
 1049 016e 1846     		mov	r0, r3
 1050 0170 3037     		adds	r7, r7, #48
 1051              		.cfi_def_cfa_offset 32
 1052 0172 BD46     		mov	sp, r7
 1053              		.cfi_def_cfa_register 13
ARM GAS  C:\Users\alex\AppData\Local\Temp\ccSBLcnl.s 			page 46


 1054              		@ sp needed
 1055 0174 BDE8F00F 		pop	{r4, r5, r6, r7, r8, r9, r10, fp}
 1056              		.cfi_restore 11
 1057              		.cfi_restore 10
 1058              		.cfi_restore 9
 1059              		.cfi_restore 8
 1060              		.cfi_restore 7
 1061              		.cfi_restore 6
 1062              		.cfi_restore 5
 1063              		.cfi_restore 4
 1064              		.cfi_def_cfa_offset 0
 1065 0178 7047     		bx	lr
 1066              	.L53:
 1067 017a 00BF     		.align	2
 1068              	.L52:
 1069 017c 00000000 		.word	CPU_CntLeadZerosTbl
 1070              		.cfi_endproc
 1071              	.LFE12:
 1072              		.size	CPU_CntLeadZeros64, .-CPU_CntLeadZeros64
 1073              		.section	.text.CPU_CntTrailZeros08,"ax",%progbits
 1074              		.align	2
 1075              		.global	CPU_CntTrailZeros08
 1076              		.thumb
 1077              		.thumb_func
 1078              		.type	CPU_CntTrailZeros08, %function
 1079              	CPU_CntTrailZeros08:
 1080              	.LFB13:
1513:..\..\..\..\..\..\uC-CPU/cpu_core.c **** #endif
1514:..\..\..\..\..\..\uC-CPU/cpu_core.c **** 
1515:..\..\..\..\..\..\uC-CPU/cpu_core.c **** 
1516:..\..\..\..\..\..\uC-CPU/cpu_core.c **** /*$PAGE*/
1517:..\..\..\..\..\..\uC-CPU/cpu_core.c **** /*
1518:..\..\..\..\..\..\uC-CPU/cpu_core.c **** ***************************************************************************************************
1519:..\..\..\..\..\..\uC-CPU/cpu_core.c **** *                                         CPU_CntTrailZeros()
1520:..\..\..\..\..\..\uC-CPU/cpu_core.c **** *
1521:..\..\..\..\..\..\uC-CPU/cpu_core.c **** * Description : Count the number of contiguous, least-significant, trailing zero bits in a data val
1522:..\..\..\..\..\..\uC-CPU/cpu_core.c **** *
1523:..\..\..\..\..\..\uC-CPU/cpu_core.c **** * Argument(s) : val         Data value to count trailing zero bits.
1524:..\..\..\..\..\..\uC-CPU/cpu_core.c **** *
1525:..\..\..\..\..\..\uC-CPU/cpu_core.c **** * Return(s)   : Number of contiguous, least-significant, trailing zero bits in 'val'.
1526:..\..\..\..\..\..\uC-CPU/cpu_core.c **** *
1527:..\..\..\..\..\..\uC-CPU/cpu_core.c **** * Caller(s)   : Application.
1528:..\..\..\..\..\..\uC-CPU/cpu_core.c **** *
1529:..\..\..\..\..\..\uC-CPU/cpu_core.c **** *               This function is a CPU module application programming interface (API) function & MA
1530:..\..\..\..\..\..\uC-CPU/cpu_core.c **** *               be called by application function(s).
1531:..\..\..\..\..\..\uC-CPU/cpu_core.c **** *
1532:..\..\..\..\..\..\uC-CPU/cpu_core.c **** * Note(s)     : (1) (a) Supports the following data value sizes :
1533:..\..\..\..\..\..\uC-CPU/cpu_core.c **** *
1534:..\..\..\..\..\..\uC-CPU/cpu_core.c **** *                       (1)  8-bits
1535:..\..\..\..\..\..\uC-CPU/cpu_core.c **** *                       (2) 16-bits
1536:..\..\..\..\..\..\uC-CPU/cpu_core.c **** *                       (3) 32-bits
1537:..\..\..\..\..\..\uC-CPU/cpu_core.c **** *                       (4) 64-bits
1538:..\..\..\..\..\..\uC-CPU/cpu_core.c **** *
1539:..\..\..\..\..\..\uC-CPU/cpu_core.c **** *                       See also 'cpu_def.h  CPU WORD CONFIGURATION  Note #1'.
1540:..\..\..\..\..\..\uC-CPU/cpu_core.c **** *
1541:..\..\..\..\..\..\uC-CPU/cpu_core.c **** *                   (b) (1) For  8-bit values :
1542:..\..\..\..\..\..\uC-CPU/cpu_core.c **** *
ARM GAS  C:\Users\alex\AppData\Local\Temp\ccSBLcnl.s 			page 47


1543:..\..\..\..\..\..\uC-CPU/cpu_core.c **** *                                  b07  b06  b05  b04  b03  b02  b01  b00    # Trailing Zeros
1544:..\..\..\..\..\..\uC-CPU/cpu_core.c **** *                                  ---  ---  ---  ---  ---  ---  ---  ---    ----------------
1545:..\..\..\..\..\..\uC-CPU/cpu_core.c **** *                                   x    x    x    x    x    x    x    1            0
1546:..\..\..\..\..\..\uC-CPU/cpu_core.c **** *                                   x    x    x    x    x    x    1    0            1
1547:..\..\..\..\..\..\uC-CPU/cpu_core.c **** *                                   x    x    x    x    x    1    0    0            2
1548:..\..\..\..\..\..\uC-CPU/cpu_core.c **** *                                   x    x    x    x    1    0    0    0            3
1549:..\..\..\..\..\..\uC-CPU/cpu_core.c **** *                                   x    x    x    1    0    0    0    0            4
1550:..\..\..\..\..\..\uC-CPU/cpu_core.c **** *                                   x    x    1    0    0    0    0    0            5
1551:..\..\..\..\..\..\uC-CPU/cpu_core.c **** *                                   x    1    0    0    0    0    0    0            6
1552:..\..\..\..\..\..\uC-CPU/cpu_core.c **** *                                   1    0    0    0    0    0    0    0            7
1553:..\..\..\..\..\..\uC-CPU/cpu_core.c **** *                                   0    0    0    0    0    0    0    0            8
1554:..\..\..\..\..\..\uC-CPU/cpu_core.c **** *
1555:..\..\..\..\..\..\uC-CPU/cpu_core.c **** *
1556:..\..\..\..\..\..\uC-CPU/cpu_core.c **** *                       (2) For 16-bit values :
1557:..\..\..\..\..\..\uC-CPU/cpu_core.c **** *
1558:..\..\..\..\..\..\uC-CPU/cpu_core.c **** *                             b15  b14  b13  b12  b11  ...  b02  b01  b00    # Trailing Zeros
1559:..\..\..\..\..\..\uC-CPU/cpu_core.c **** *                             ---  ---  ---  ---  ---       ---  ---  ---    ----------------
1560:..\..\..\..\..\..\uC-CPU/cpu_core.c **** *                              x    x    x    x    x         x    x    1            0
1561:..\..\..\..\..\..\uC-CPU/cpu_core.c **** *                              x    x    x    x    x         x    1    0            1
1562:..\..\..\..\..\..\uC-CPU/cpu_core.c **** *                              x    x    x    x    x         1    0    0            2
1563:..\..\..\..\..\..\uC-CPU/cpu_core.c **** *                              :    :    :    :    :         :    :    :            :
1564:..\..\..\..\..\..\uC-CPU/cpu_core.c **** *                              :    :    :    :    :         :    :    :            :
1565:..\..\..\..\..\..\uC-CPU/cpu_core.c **** *                              x    x    x    x    1         0    0    0           11
1566:..\..\..\..\..\..\uC-CPU/cpu_core.c **** *                              x    x    x    1    0         0    0    0           12
1567:..\..\..\..\..\..\uC-CPU/cpu_core.c **** *                              x    x    1    0    0         0    0    0           13
1568:..\..\..\..\..\..\uC-CPU/cpu_core.c **** *                              x    1    0    0    0         0    0    0           14
1569:..\..\..\..\..\..\uC-CPU/cpu_core.c **** *                              1    0    0    0    0         0    0    0           15
1570:..\..\..\..\..\..\uC-CPU/cpu_core.c **** *                              0    0    0    0    0         0    0    0           16
1571:..\..\..\..\..\..\uC-CPU/cpu_core.c **** *
1572:..\..\..\..\..\..\uC-CPU/cpu_core.c **** *
1573:..\..\..\..\..\..\uC-CPU/cpu_core.c **** *                       (3) For 32-bit values :
1574:..\..\..\..\..\..\uC-CPU/cpu_core.c **** *
1575:..\..\..\..\..\..\uC-CPU/cpu_core.c **** *                             b31  b30  b29  b28  b27  ...  b02  b01  b00    # Trailing Zeros
1576:..\..\..\..\..\..\uC-CPU/cpu_core.c **** *                             ---  ---  ---  ---  ---       ---  ---  ---    ----------------
1577:..\..\..\..\..\..\uC-CPU/cpu_core.c **** *                              x    x    x    x    x         x    x    1            0
1578:..\..\..\..\..\..\uC-CPU/cpu_core.c **** *                              x    x    x    x    x         x    1    0            1
1579:..\..\..\..\..\..\uC-CPU/cpu_core.c **** *                              x    x    x    x    x         1    0    0            2
1580:..\..\..\..\..\..\uC-CPU/cpu_core.c **** *                              :    :    :    :    :         :    :    :            :
1581:..\..\..\..\..\..\uC-CPU/cpu_core.c **** *                              :    :    :    :    :         :    :    :            :
1582:..\..\..\..\..\..\uC-CPU/cpu_core.c **** *                              x    x    x    x    1         0    0    0           27
1583:..\..\..\..\..\..\uC-CPU/cpu_core.c **** *                              x    x    x    1    0         0    0    0           28
1584:..\..\..\..\..\..\uC-CPU/cpu_core.c **** *                              x    x    1    0    0         0    0    0           29
1585:..\..\..\..\..\..\uC-CPU/cpu_core.c **** *                              x    1    0    0    0         0    0    0           30
1586:..\..\..\..\..\..\uC-CPU/cpu_core.c **** *                              1    0    0    0    0         0    0    0           31
1587:..\..\..\..\..\..\uC-CPU/cpu_core.c **** *                              0    0    0    0    0         0    0    0           32
1588:..\..\..\..\..\..\uC-CPU/cpu_core.c **** *
1589:..\..\..\..\..\..\uC-CPU/cpu_core.c **** *
1590:..\..\..\..\..\..\uC-CPU/cpu_core.c **** *                       (4) For 64-bit values :
1591:..\..\..\..\..\..\uC-CPU/cpu_core.c **** *
1592:..\..\..\..\..\..\uC-CPU/cpu_core.c **** *                             b63  b62  b61  b60  b59  ...  b02  b01  b00    # Trailing Zeros
1593:..\..\..\..\..\..\uC-CPU/cpu_core.c **** *                             ---  ---  ---  ---  ---       ---  ---  ---    ----------------
1594:..\..\..\..\..\..\uC-CPU/cpu_core.c **** *                              x    x    x    x    x         x    x    1            0
1595:..\..\..\..\..\..\uC-CPU/cpu_core.c **** *                              x    x    x    x    x         x    1    0            1
1596:..\..\..\..\..\..\uC-CPU/cpu_core.c **** *                              x    x    x    x    x         1    0    0            2
1597:..\..\..\..\..\..\uC-CPU/cpu_core.c **** *                              :    :    :    :    :         :    :    :            :
1598:..\..\..\..\..\..\uC-CPU/cpu_core.c **** *                              :    :    :    :    :         :    :    :            :
1599:..\..\..\..\..\..\uC-CPU/cpu_core.c **** *                              x    x    x    x    1         0    0    0           59
ARM GAS  C:\Users\alex\AppData\Local\Temp\ccSBLcnl.s 			page 48


1600:..\..\..\..\..\..\uC-CPU/cpu_core.c **** *                              x    x    x    1    0         0    0    0           60
1601:..\..\..\..\..\..\uC-CPU/cpu_core.c **** *                              x    x    1    0    0         0    0    0           61
1602:..\..\..\..\..\..\uC-CPU/cpu_core.c **** *                              x    1    0    0    0         0    0    0           62
1603:..\..\..\..\..\..\uC-CPU/cpu_core.c **** *                              1    0    0    0    0         0    0    0           63
1604:..\..\..\..\..\..\uC-CPU/cpu_core.c **** *                              0    0    0    0    0         0    0    0           64
1605:..\..\..\..\..\..\uC-CPU/cpu_core.c **** *
1606:..\..\..\..\..\..\uC-CPU/cpu_core.c **** *$PAGE*
1607:..\..\..\..\..\..\uC-CPU/cpu_core.c **** *               (2) For non-zero values, the returned number of contiguous, least-significant, trai
1608:..\..\..\..\..\..\uC-CPU/cpu_core.c **** *                   zero bits is also equivalent to the bit position of the least-significant set b
1609:..\..\..\..\..\..\uC-CPU/cpu_core.c **** *
1610:..\..\..\..\..\..\uC-CPU/cpu_core.c **** *               (3) 'val' SHOULD be validated for non-'0' PRIOR to all other counting zero calculat
1611:..\..\..\..\..\..\uC-CPU/cpu_core.c **** *
1612:..\..\..\..\..\..\uC-CPU/cpu_core.c **** *                   (a) CPU_CntTrailZeros()'s final conditional statement calculates 'val's number 
1613:..\..\..\..\..\..\uC-CPU/cpu_core.c **** *                       trailing zeros based on its return data size, 'CPU_CFG_DATA_SIZE', & 'val's
1614:..\..\..\..\..\..\uC-CPU/cpu_core.c **** *                       calculated number of lead zeros ONLY if the initial 'val' is non-'0' :
1615:..\..\..\..\..\..\uC-CPU/cpu_core.c **** *
1616:..\..\..\..\..\..\uC-CPU/cpu_core.c **** *                           if (val != 0u) {
1617:..\..\..\..\..\..\uC-CPU/cpu_core.c **** *                               nbr_trail_zeros = ((CPU_CFG_DATA_SIZE * DEF_OCTET_NBR_BITS) - 1u) -
1618:..\..\..\..\..\..\uC-CPU/cpu_core.c **** *                           } else {
1619:..\..\..\..\..\..\uC-CPU/cpu_core.c **** *                               nbr_trail_zeros = nbr_lead_zeros;
1620:..\..\..\..\..\..\uC-CPU/cpu_core.c **** *                           }
1621:..\..\..\..\..\..\uC-CPU/cpu_core.c **** *
1622:..\..\..\..\..\..\uC-CPU/cpu_core.c **** *                       Therefore, initially validating all non-'0' values avoids having to conditi
1623:..\..\..\..\..\..\uC-CPU/cpu_core.c **** *                       execute the final 'if' statement.
1624:..\..\..\..\..\..\uC-CPU/cpu_core.c **** ***************************************************************************************************
1625:..\..\..\..\..\..\uC-CPU/cpu_core.c **** */
1626:..\..\..\..\..\..\uC-CPU/cpu_core.c **** 
1627:..\..\..\..\..\..\uC-CPU/cpu_core.c **** #ifndef   CPU_CFG_TRAIL_ZEROS_ASM_PRESENT
1628:..\..\..\..\..\..\uC-CPU/cpu_core.c **** CPU_DATA  CPU_CntTrailZeros (CPU_DATA  val)
1629:..\..\..\..\..\..\uC-CPU/cpu_core.c **** {
1630:..\..\..\..\..\..\uC-CPU/cpu_core.c ****     CPU_DATA  val_bit_mask;
1631:..\..\..\..\..\..\uC-CPU/cpu_core.c ****     CPU_DATA  nbr_lead_zeros;
1632:..\..\..\..\..\..\uC-CPU/cpu_core.c ****     CPU_DATA  nbr_trail_zeros;
1633:..\..\..\..\..\..\uC-CPU/cpu_core.c **** 
1634:..\..\..\..\..\..\uC-CPU/cpu_core.c **** 
1635:..\..\..\..\..\..\uC-CPU/cpu_core.c ****     if (val == 0u) {                                            /* Rtn ALL val bits as zero'd (see 
1636:..\..\..\..\..\..\uC-CPU/cpu_core.c ****         return (CPU_CFG_DATA_SIZE * DEF_OCTET_NBR_BITS);
1637:..\..\..\..\..\..\uC-CPU/cpu_core.c ****     }
1638:..\..\..\..\..\..\uC-CPU/cpu_core.c **** 
1639:..\..\..\..\..\..\uC-CPU/cpu_core.c **** 
1640:..\..\..\..\..\..\uC-CPU/cpu_core.c ****     val_bit_mask    = val & ((CPU_DATA)~val + 1u);              /* Zero/clr all bits EXCEPT least-s
1641:..\..\..\..\..\..\uC-CPU/cpu_core.c ****     nbr_lead_zeros  = CPU_CntLeadZeros(val_bit_mask);           /* Cnt  nbr lead  0s.              
1642:..\..\..\..\..\..\uC-CPU/cpu_core.c ****                                                                 /* Calc nbr trail 0s = (nbr val bit
1643:..\..\..\..\..\..\uC-CPU/cpu_core.c ****     nbr_trail_zeros = ((CPU_CFG_DATA_SIZE * DEF_OCTET_NBR_BITS) - 1u) - nbr_lead_zeros;
1644:..\..\..\..\..\..\uC-CPU/cpu_core.c **** 
1645:..\..\..\..\..\..\uC-CPU/cpu_core.c **** 
1646:..\..\..\..\..\..\uC-CPU/cpu_core.c ****     return (nbr_trail_zeros);
1647:..\..\..\..\..\..\uC-CPU/cpu_core.c **** }
1648:..\..\..\..\..\..\uC-CPU/cpu_core.c **** #endif
1649:..\..\..\..\..\..\uC-CPU/cpu_core.c **** 
1650:..\..\..\..\..\..\uC-CPU/cpu_core.c **** 
1651:..\..\..\..\..\..\uC-CPU/cpu_core.c **** /*$PAGE*/
1652:..\..\..\..\..\..\uC-CPU/cpu_core.c **** /*
1653:..\..\..\..\..\..\uC-CPU/cpu_core.c **** ***************************************************************************************************
1654:..\..\..\..\..\..\uC-CPU/cpu_core.c **** *                                        CPU_CntTrailZeros08()
1655:..\..\..\..\..\..\uC-CPU/cpu_core.c **** *
1656:..\..\..\..\..\..\uC-CPU/cpu_core.c **** * Description : Count the number of contiguous, least-significant, trailing zero bits in an 8-bit d
ARM GAS  C:\Users\alex\AppData\Local\Temp\ccSBLcnl.s 			page 49


1657:..\..\..\..\..\..\uC-CPU/cpu_core.c **** *
1658:..\..\..\..\..\..\uC-CPU/cpu_core.c **** * Argument(s) : val         Data value to count trailing zero bits.
1659:..\..\..\..\..\..\uC-CPU/cpu_core.c **** *
1660:..\..\..\..\..\..\uC-CPU/cpu_core.c **** * Return(s)   : Number of contiguous, least-significant, trailing zero bits in 'val'.
1661:..\..\..\..\..\..\uC-CPU/cpu_core.c **** *
1662:..\..\..\..\..\..\uC-CPU/cpu_core.c **** * Caller(s)   : Application.
1663:..\..\..\..\..\..\uC-CPU/cpu_core.c **** *
1664:..\..\..\..\..\..\uC-CPU/cpu_core.c **** *               This function is a CPU module application programming interface (API) function & MA
1665:..\..\..\..\..\..\uC-CPU/cpu_core.c **** *               called by application function(s).
1666:..\..\..\..\..\..\uC-CPU/cpu_core.c **** *
1667:..\..\..\..\..\..\uC-CPU/cpu_core.c **** * Note(s)     : (1) Supports  8-bit values :
1668:..\..\..\..\..\..\uC-CPU/cpu_core.c **** *
1669:..\..\..\..\..\..\uC-CPU/cpu_core.c **** *                               b07  b06  b05  b04  b03  b02  b01  b00    # Trailing Zeros
1670:..\..\..\..\..\..\uC-CPU/cpu_core.c **** *                               ---  ---  ---  ---  ---  ---  ---  ---    ----------------
1671:..\..\..\..\..\..\uC-CPU/cpu_core.c **** *                                x    x    x    x    x    x    x    1            0
1672:..\..\..\..\..\..\uC-CPU/cpu_core.c **** *                                x    x    x    x    x    x    1    0            1
1673:..\..\..\..\..\..\uC-CPU/cpu_core.c **** *                                x    x    x    x    x    1    0    0            2
1674:..\..\..\..\..\..\uC-CPU/cpu_core.c **** *                                x    x    x    x    1    0    0    0            3
1675:..\..\..\..\..\..\uC-CPU/cpu_core.c **** *                                x    x    x    1    0    0    0    0            4
1676:..\..\..\..\..\..\uC-CPU/cpu_core.c **** *                                x    x    1    0    0    0    0    0            5
1677:..\..\..\..\..\..\uC-CPU/cpu_core.c **** *                                x    1    0    0    0    0    0    0            6
1678:..\..\..\..\..\..\uC-CPU/cpu_core.c **** *                                1    0    0    0    0    0    0    0            7
1679:..\..\..\..\..\..\uC-CPU/cpu_core.c **** *                                0    0    0    0    0    0    0    0            8
1680:..\..\..\..\..\..\uC-CPU/cpu_core.c **** *
1681:..\..\..\..\..\..\uC-CPU/cpu_core.c **** *
1682:..\..\..\..\..\..\uC-CPU/cpu_core.c **** *               (2) For non-zero values, the returned number of contiguous, least-significant, trai
1683:..\..\..\..\..\..\uC-CPU/cpu_core.c **** *                   zero bits is also equivalent to the bit position of the least-significant set b
1684:..\..\..\..\..\..\uC-CPU/cpu_core.c **** *
1685:..\..\..\..\..\..\uC-CPU/cpu_core.c **** *               (3) 'val' SHOULD be validated for non-'0' PRIOR to all other counting zero calculat
1686:..\..\..\..\..\..\uC-CPU/cpu_core.c **** *
1687:..\..\..\..\..\..\uC-CPU/cpu_core.c **** *                   (a) For assembly-optimized implementations, CPU_CntTrailZeros() returns 'val's 
1688:..\..\..\..\..\..\uC-CPU/cpu_core.c **** *                       number of trailing zeros via CPU's native data size, 'CPU_CFG_DATA_SIZE'.  
1689:..\..\..\..\..\..\uC-CPU/cpu_core.c **** *                       If the returned number of zeros exceeds CPU_CntTrailZeros08()'s  8-bit retu
1690:..\..\..\..\..\..\uC-CPU/cpu_core.c **** *                       data size, then the returned number of zeros must be offset by the differen
1691:..\..\..\..\..\..\uC-CPU/cpu_core.c **** *                       between CPU_CntTrailZeros()'s  & CPU_CntTrailZeros08()'s return data size :
1692:..\..\..\..\..\..\uC-CPU/cpu_core.c **** *
1693:..\..\..\..\..\..\uC-CPU/cpu_core.c **** *                           nbr_trail_zeros = CPU_CntTrailZeros((CPU_DATA)val);
1694:..\..\..\..\..\..\uC-CPU/cpu_core.c **** *                           if (nbr_trail_zeros >  (CPU_WORD_SIZE_08  * DEF_OCTET_NBR_BITS)) {
1695:..\..\..\..\..\..\uC-CPU/cpu_core.c **** *                               nbr_trail_zeros -= (CPU_CFG_DATA_SIZE - CPU_WORD_SIZE_08) * DEF_OCT
1696:..\..\..\..\..\..\uC-CPU/cpu_core.c **** *                           }
1697:..\..\..\..\..\..\uC-CPU/cpu_core.c **** *
1698:..\..\..\..\..\..\uC-CPU/cpu_core.c **** *                       However, this ONLY occurs for an initial 'val' of '0' since all non-'0'  8-
1699:..\..\..\..\..\..\uC-CPU/cpu_core.c **** *                       values would return a number of trailing zeros less than or equal to  8 bit
1700:..\..\..\..\..\..\uC-CPU/cpu_core.c **** *
1701:..\..\..\..\..\..\uC-CPU/cpu_core.c **** *                       Therefore, initially validating all non-'0' values prior to calling assembl
1702:..\..\..\..\..\..\uC-CPU/cpu_core.c **** *                       optimized CPU_CntTrailZeros() avoids having to offset the number of returne
1703:..\..\..\..\..\..\uC-CPU/cpu_core.c **** *                       trailing zeros by the difference in CPU data size and  8-bit data value bit
1704:..\..\..\..\..\..\uC-CPU/cpu_core.c **** *
1705:..\..\..\..\..\..\uC-CPU/cpu_core.c **** *                   (b) For CPU_CntTrailZeros08()'s C implementation, the final conditional stateme
1706:..\..\..\..\..\..\uC-CPU/cpu_core.c **** *                       calculates 'val's number of trailing zeros based on CPU_CntTrailZeros08()'s
1707:..\..\..\..\..\..\uC-CPU/cpu_core.c **** *                        8-bit return data size & 'val's calculated number of lead zeros ONLY if th
1708:..\..\..\..\..\..\uC-CPU/cpu_core.c **** *                       initial 'val' is non-'0' :
1709:..\..\..\..\..\..\uC-CPU/cpu_core.c **** *
1710:..\..\..\..\..\..\uC-CPU/cpu_core.c **** *                           if (val != 0u) {
1711:..\..\..\..\..\..\uC-CPU/cpu_core.c **** *                               nbr_trail_zeros = ((CPU_WORD_SIZE_08 * DEF_OCTET_NBR_BITS) - 1u) - 
1712:..\..\..\..\..\..\uC-CPU/cpu_core.c **** *                           } else {
1713:..\..\..\..\..\..\uC-CPU/cpu_core.c **** *                               nbr_trail_zeros = nbr_lead_zeros;
ARM GAS  C:\Users\alex\AppData\Local\Temp\ccSBLcnl.s 			page 50


1714:..\..\..\..\..\..\uC-CPU/cpu_core.c **** *                           }
1715:..\..\..\..\..\..\uC-CPU/cpu_core.c **** *
1716:..\..\..\..\..\..\uC-CPU/cpu_core.c **** *                       Therefore, initially validating all non-'0' values avoids having to conditi
1717:..\..\..\..\..\..\uC-CPU/cpu_core.c **** *                       execute the final 'if' statement.
1718:..\..\..\..\..\..\uC-CPU/cpu_core.c **** ***************************************************************************************************
1719:..\..\..\..\..\..\uC-CPU/cpu_core.c **** */
1720:..\..\..\..\..\..\uC-CPU/cpu_core.c **** /*$PAGE*/
1721:..\..\..\..\..\..\uC-CPU/cpu_core.c **** #if (CPU_CFG_DATA_SIZE_MAX >= CPU_WORD_SIZE_08)
1722:..\..\..\..\..\..\uC-CPU/cpu_core.c **** CPU_DATA  CPU_CntTrailZeros08 (CPU_INT08U  val)
1723:..\..\..\..\..\..\uC-CPU/cpu_core.c **** {
 1081              		.loc 1 1723 0
 1082              		.cfi_startproc
 1083              		@ args = 0, pretend = 0, frame = 16
 1084              		@ frame_needed = 1, uses_anonymous_args = 0
 1085 0000 80B5     		push	{r7, lr}
 1086              		.cfi_def_cfa_offset 8
 1087              		.cfi_offset 7, -8
 1088              		.cfi_offset 14, -4
 1089 0002 84B0     		sub	sp, sp, #16
 1090              		.cfi_def_cfa_offset 24
 1091 0004 00AF     		add	r7, sp, #0
 1092              		.cfi_def_cfa_register 7
 1093 0006 0346     		mov	r3, r0
 1094 0008 FB71     		strb	r3, [r7, #7]
1724:..\..\..\..\..\..\uC-CPU/cpu_core.c **** #if  (!((defined(CPU_CFG_TRAIL_ZEROS_ASM_PRESENT)) && \
1725:..\..\..\..\..\..\uC-CPU/cpu_core.c ****         (CPU_CFG_DATA_SIZE >= CPU_WORD_SIZE_08)))
1726:..\..\..\..\..\..\uC-CPU/cpu_core.c ****     CPU_INT08U  val_bit_mask;
1727:..\..\..\..\..\..\uC-CPU/cpu_core.c ****     CPU_DATA    nbr_lead_zeros;
1728:..\..\..\..\..\..\uC-CPU/cpu_core.c **** #endif
1729:..\..\..\..\..\..\uC-CPU/cpu_core.c ****     CPU_DATA    nbr_trail_zeros;
1730:..\..\..\..\..\..\uC-CPU/cpu_core.c **** 
1731:..\..\..\..\..\..\uC-CPU/cpu_core.c **** 
1732:..\..\..\..\..\..\uC-CPU/cpu_core.c ****     if (val == 0u) {                                            /* Rtn ALL val bits as zero'd (see 
 1095              		.loc 1 1732 0
 1096 000a FB79     		ldrb	r3, [r7, #7]	@ zero_extendqisi2
 1097 000c 002B     		cmp	r3, #0
 1098 000e 01D1     		bne	.L55
1733:..\..\..\..\..\..\uC-CPU/cpu_core.c ****         return (CPU_WORD_SIZE_08 * DEF_OCTET_NBR_BITS);
 1099              		.loc 1 1733 0
 1100 0010 0823     		movs	r3, #8
 1101 0012 05E0     		b	.L56
 1102              	.L55:
1734:..\..\..\..\..\..\uC-CPU/cpu_core.c ****     }
1735:..\..\..\..\..\..\uC-CPU/cpu_core.c **** 
1736:..\..\..\..\..\..\uC-CPU/cpu_core.c ****                                                                 /* ------------------ ASM-OPTIMIZED
1737:..\..\..\..\..\..\uC-CPU/cpu_core.c **** #if ((defined(CPU_CFG_TRAIL_ZEROS_ASM_PRESENT)) && \
1738:..\..\..\..\..\..\uC-CPU/cpu_core.c ****      (CPU_CFG_DATA_SIZE >= CPU_WORD_SIZE_08))
1739:..\..\..\..\..\..\uC-CPU/cpu_core.c ****     nbr_trail_zeros = CPU_CntTrailZeros((CPU_DATA)val);
 1103              		.loc 1 1739 0
 1104 0014 FB79     		ldrb	r3, [r7, #7]	@ zero_extendqisi2
 1105 0016 1846     		mov	r0, r3
 1106 0018 FFF7FEFF 		bl	CPU_CntTrailZeros
 1107 001c F860     		str	r0, [r7, #12]
1740:..\..\..\..\..\..\uC-CPU/cpu_core.c **** 
1741:..\..\..\..\..\..\uC-CPU/cpu_core.c **** #else                                                           /* ------------------- C-OPTIMIZED 
1742:..\..\..\..\..\..\uC-CPU/cpu_core.c ****     val_bit_mask    = val & ((CPU_INT08U)~val + 1u);            /* Zero/clr all bits EXCEPT least-s
1743:..\..\..\..\..\..\uC-CPU/cpu_core.c ****     nbr_lead_zeros  = CPU_CntLeadZeros08(val_bit_mask);         /* Cnt  nbr lead  0s.              
ARM GAS  C:\Users\alex\AppData\Local\Temp\ccSBLcnl.s 			page 51


1744:..\..\..\..\..\..\uC-CPU/cpu_core.c ****                                                                 /* Calc nbr trail 0s = (nbr val bit
1745:..\..\..\..\..\..\uC-CPU/cpu_core.c ****     nbr_trail_zeros = ((CPU_WORD_SIZE_08 * DEF_OCTET_NBR_BITS) - 1u) - nbr_lead_zeros;
1746:..\..\..\..\..\..\uC-CPU/cpu_core.c **** #endif
1747:..\..\..\..\..\..\uC-CPU/cpu_core.c **** 
1748:..\..\..\..\..\..\uC-CPU/cpu_core.c **** 
1749:..\..\..\..\..\..\uC-CPU/cpu_core.c ****     return (nbr_trail_zeros);
 1108              		.loc 1 1749 0
 1109 001e FB68     		ldr	r3, [r7, #12]
 1110              	.L56:
1750:..\..\..\..\..\..\uC-CPU/cpu_core.c **** }
 1111              		.loc 1 1750 0
 1112 0020 1846     		mov	r0, r3
 1113 0022 1037     		adds	r7, r7, #16
 1114              		.cfi_def_cfa_offset 8
 1115 0024 BD46     		mov	sp, r7
 1116              		.cfi_def_cfa_register 13
 1117              		@ sp needed
 1118 0026 80BD     		pop	{r7, pc}
 1119              		.cfi_endproc
 1120              	.LFE13:
 1121              		.size	CPU_CntTrailZeros08, .-CPU_CntTrailZeros08
 1122              		.section	.text.CPU_CntTrailZeros16,"ax",%progbits
 1123              		.align	2
 1124              		.global	CPU_CntTrailZeros16
 1125              		.thumb
 1126              		.thumb_func
 1127              		.type	CPU_CntTrailZeros16, %function
 1128              	CPU_CntTrailZeros16:
 1129              	.LFB14:
1751:..\..\..\..\..\..\uC-CPU/cpu_core.c **** #endif
1752:..\..\..\..\..\..\uC-CPU/cpu_core.c **** 
1753:..\..\..\..\..\..\uC-CPU/cpu_core.c **** 
1754:..\..\..\..\..\..\uC-CPU/cpu_core.c **** /*$PAGE*/
1755:..\..\..\..\..\..\uC-CPU/cpu_core.c **** /*
1756:..\..\..\..\..\..\uC-CPU/cpu_core.c **** ***************************************************************************************************
1757:..\..\..\..\..\..\uC-CPU/cpu_core.c **** *                                        CPU_CntTrailZeros16()
1758:..\..\..\..\..\..\uC-CPU/cpu_core.c **** *
1759:..\..\..\..\..\..\uC-CPU/cpu_core.c **** * Description : Count the number of contiguous, least-significant, trailing zero bits in a 16-bit d
1760:..\..\..\..\..\..\uC-CPU/cpu_core.c **** *
1761:..\..\..\..\..\..\uC-CPU/cpu_core.c **** * Argument(s) : val         Data value to count trailing zero bits.
1762:..\..\..\..\..\..\uC-CPU/cpu_core.c **** *
1763:..\..\..\..\..\..\uC-CPU/cpu_core.c **** * Return(s)   : Number of contiguous, least-significant, trailing zero bits in 'val'.
1764:..\..\..\..\..\..\uC-CPU/cpu_core.c **** *
1765:..\..\..\..\..\..\uC-CPU/cpu_core.c **** * Caller(s)   : Application.
1766:..\..\..\..\..\..\uC-CPU/cpu_core.c **** *
1767:..\..\..\..\..\..\uC-CPU/cpu_core.c **** *               This function is a CPU module application programming interface (API) function & MA
1768:..\..\..\..\..\..\uC-CPU/cpu_core.c **** *               called by application function(s).
1769:..\..\..\..\..\..\uC-CPU/cpu_core.c **** *
1770:..\..\..\..\..\..\uC-CPU/cpu_core.c **** * Note(s)     : (1) Supports 16-bit values :
1771:..\..\..\..\..\..\uC-CPU/cpu_core.c **** *
1772:..\..\..\..\..\..\uC-CPU/cpu_core.c **** *                          b15  b14  b13  b12  b11  ...  b02  b01  b00    # Trailing Zeros
1773:..\..\..\..\..\..\uC-CPU/cpu_core.c **** *                          ---  ---  ---  ---  ---       ---  ---  ---    ----------------
1774:..\..\..\..\..\..\uC-CPU/cpu_core.c **** *                           x    x    x    x    x         x    x    1            0
1775:..\..\..\..\..\..\uC-CPU/cpu_core.c **** *                           x    x    x    x    x         x    1    0            1
1776:..\..\..\..\..\..\uC-CPU/cpu_core.c **** *                           x    x    x    x    x         1    0    0            2
1777:..\..\..\..\..\..\uC-CPU/cpu_core.c **** *                           :    :    :    :    :         :    :    :            :
1778:..\..\..\..\..\..\uC-CPU/cpu_core.c **** *                           :    :    :    :    :         :    :    :            :
ARM GAS  C:\Users\alex\AppData\Local\Temp\ccSBLcnl.s 			page 52


1779:..\..\..\..\..\..\uC-CPU/cpu_core.c **** *                           x    x    x    x    1         0    0    0           11
1780:..\..\..\..\..\..\uC-CPU/cpu_core.c **** *                           x    x    x    1    0         0    0    0           12
1781:..\..\..\..\..\..\uC-CPU/cpu_core.c **** *                           x    x    1    0    0         0    0    0           13
1782:..\..\..\..\..\..\uC-CPU/cpu_core.c **** *                           x    1    0    0    0         0    0    0           14
1783:..\..\..\..\..\..\uC-CPU/cpu_core.c **** *                           1    0    0    0    0         0    0    0           15
1784:..\..\..\..\..\..\uC-CPU/cpu_core.c **** *                           0    0    0    0    0         0    0    0           16
1785:..\..\..\..\..\..\uC-CPU/cpu_core.c **** *
1786:..\..\..\..\..\..\uC-CPU/cpu_core.c **** *
1787:..\..\..\..\..\..\uC-CPU/cpu_core.c **** *               (2) For non-zero values, the returned number of contiguous, least-significant, trai
1788:..\..\..\..\..\..\uC-CPU/cpu_core.c **** *                   zero bits is also equivalent to the bit position of the least-significant set b
1789:..\..\..\..\..\..\uC-CPU/cpu_core.c **** *
1790:..\..\..\..\..\..\uC-CPU/cpu_core.c **** *               (3) 'val' SHOULD be validated for non-'0' PRIOR to all other counting zero calculat
1791:..\..\..\..\..\..\uC-CPU/cpu_core.c **** *
1792:..\..\..\..\..\..\uC-CPU/cpu_core.c **** *                   (a) For assembly-optimized implementations, CPU_CntTrailZeros() returns 'val's 
1793:..\..\..\..\..\..\uC-CPU/cpu_core.c **** *                       number of trailing zeros via CPU's native data size, 'CPU_CFG_DATA_SIZE'.  
1794:..\..\..\..\..\..\uC-CPU/cpu_core.c **** *                       If the returned number of zeros exceeds CPU_CntTrailZeros16()'s 16-bit retu
1795:..\..\..\..\..\..\uC-CPU/cpu_core.c **** *                       data size, then the returned number of zeros must be offset by the differen
1796:..\..\..\..\..\..\uC-CPU/cpu_core.c **** *                       between CPU_CntTrailZeros()'s  & CPU_CntTrailZeros16()'s return data size :
1797:..\..\..\..\..\..\uC-CPU/cpu_core.c **** *
1798:..\..\..\..\..\..\uC-CPU/cpu_core.c **** *                           nbr_trail_zeros = CPU_CntTrailZeros((CPU_DATA)val);
1799:..\..\..\..\..\..\uC-CPU/cpu_core.c **** *                           if (nbr_trail_zeros >  (CPU_WORD_SIZE_16  * DEF_OCTET_NBR_BITS)) {
1800:..\..\..\..\..\..\uC-CPU/cpu_core.c **** *                               nbr_trail_zeros -= (CPU_CFG_DATA_SIZE - CPU_WORD_SIZE_16) * DEF_OCT
1801:..\..\..\..\..\..\uC-CPU/cpu_core.c **** *                           }
1802:..\..\..\..\..\..\uC-CPU/cpu_core.c **** *
1803:..\..\..\..\..\..\uC-CPU/cpu_core.c **** *                       However, this ONLY occurs for an initial 'val' of '0' since all non-'0' 16-
1804:..\..\..\..\..\..\uC-CPU/cpu_core.c **** *                       values would return a number of trailing zeros less than or equal to 16 bit
1805:..\..\..\..\..\..\uC-CPU/cpu_core.c **** *
1806:..\..\..\..\..\..\uC-CPU/cpu_core.c **** *                       Therefore, initially validating all non-'0' values prior to calling assembl
1807:..\..\..\..\..\..\uC-CPU/cpu_core.c **** *                       optimized CPU_CntTrailZeros() avoids having to offset the number of returne
1808:..\..\..\..\..\..\uC-CPU/cpu_core.c **** *                       trailing zeros by the difference in CPU data size and 16-bit data value bit
1809:..\..\..\..\..\..\uC-CPU/cpu_core.c **** *
1810:..\..\..\..\..\..\uC-CPU/cpu_core.c **** *                   (b) For CPU_CntTrailZeros16()'s C implementation, the final conditional stateme
1811:..\..\..\..\..\..\uC-CPU/cpu_core.c **** *                       calculates 'val's number of trailing zeros based on CPU_CntTrailZeros16()'s
1812:..\..\..\..\..\..\uC-CPU/cpu_core.c **** *                       16-bit return data size & 'val's calculated number of lead zeros ONLY if th
1813:..\..\..\..\..\..\uC-CPU/cpu_core.c **** *                       initial 'val' is non-'0' :
1814:..\..\..\..\..\..\uC-CPU/cpu_core.c **** *
1815:..\..\..\..\..\..\uC-CPU/cpu_core.c **** *                           if (val != 0u) {
1816:..\..\..\..\..\..\uC-CPU/cpu_core.c **** *                               nbr_trail_zeros = ((CPU_WORD_SIZE_16 * DEF_OCTET_NBR_BITS) - 1u) - 
1817:..\..\..\..\..\..\uC-CPU/cpu_core.c **** *                           } else {
1818:..\..\..\..\..\..\uC-CPU/cpu_core.c **** *                               nbr_trail_zeros = nbr_lead_zeros;
1819:..\..\..\..\..\..\uC-CPU/cpu_core.c **** *                           }
1820:..\..\..\..\..\..\uC-CPU/cpu_core.c **** *
1821:..\..\..\..\..\..\uC-CPU/cpu_core.c **** *                       Therefore, initially validating all non-'0' values avoids having to conditi
1822:..\..\..\..\..\..\uC-CPU/cpu_core.c **** *                       execute the final 'if' statement.
1823:..\..\..\..\..\..\uC-CPU/cpu_core.c **** ***************************************************************************************************
1824:..\..\..\..\..\..\uC-CPU/cpu_core.c **** */
1825:..\..\..\..\..\..\uC-CPU/cpu_core.c **** /*$PAGE*/
1826:..\..\..\..\..\..\uC-CPU/cpu_core.c **** #if (CPU_CFG_DATA_SIZE_MAX >= CPU_WORD_SIZE_16)
1827:..\..\..\..\..\..\uC-CPU/cpu_core.c **** CPU_DATA  CPU_CntTrailZeros16 (CPU_INT16U  val)
1828:..\..\..\..\..\..\uC-CPU/cpu_core.c **** {
 1130              		.loc 1 1828 0
 1131              		.cfi_startproc
 1132              		@ args = 0, pretend = 0, frame = 16
 1133              		@ frame_needed = 1, uses_anonymous_args = 0
 1134 0000 80B5     		push	{r7, lr}
 1135              		.cfi_def_cfa_offset 8
 1136              		.cfi_offset 7, -8
ARM GAS  C:\Users\alex\AppData\Local\Temp\ccSBLcnl.s 			page 53


 1137              		.cfi_offset 14, -4
 1138 0002 84B0     		sub	sp, sp, #16
 1139              		.cfi_def_cfa_offset 24
 1140 0004 00AF     		add	r7, sp, #0
 1141              		.cfi_def_cfa_register 7
 1142 0006 0346     		mov	r3, r0
 1143 0008 FB80     		strh	r3, [r7, #6]	@ movhi
1829:..\..\..\..\..\..\uC-CPU/cpu_core.c **** #if  (!((defined(CPU_CFG_TRAIL_ZEROS_ASM_PRESENT)) && \
1830:..\..\..\..\..\..\uC-CPU/cpu_core.c ****         (CPU_CFG_DATA_SIZE >= CPU_WORD_SIZE_16)))
1831:..\..\..\..\..\..\uC-CPU/cpu_core.c ****     CPU_INT16U  val_bit_mask;
1832:..\..\..\..\..\..\uC-CPU/cpu_core.c ****     CPU_DATA    nbr_lead_zeros;
1833:..\..\..\..\..\..\uC-CPU/cpu_core.c **** #endif
1834:..\..\..\..\..\..\uC-CPU/cpu_core.c ****     CPU_DATA    nbr_trail_zeros;
1835:..\..\..\..\..\..\uC-CPU/cpu_core.c **** 
1836:..\..\..\..\..\..\uC-CPU/cpu_core.c **** 
1837:..\..\..\..\..\..\uC-CPU/cpu_core.c ****     if (val == 0u) {                                            /* Rtn ALL val bits as zero'd (see 
 1144              		.loc 1 1837 0
 1145 000a FB88     		ldrh	r3, [r7, #6]
 1146 000c 002B     		cmp	r3, #0
 1147 000e 01D1     		bne	.L58
1838:..\..\..\..\..\..\uC-CPU/cpu_core.c ****         return (CPU_WORD_SIZE_16 * DEF_OCTET_NBR_BITS);
 1148              		.loc 1 1838 0
 1149 0010 1023     		movs	r3, #16
 1150 0012 05E0     		b	.L59
 1151              	.L58:
1839:..\..\..\..\..\..\uC-CPU/cpu_core.c ****     }
1840:..\..\..\..\..\..\uC-CPU/cpu_core.c **** 
1841:..\..\..\..\..\..\uC-CPU/cpu_core.c ****                                                                 /* ------------------ ASM-OPTIMIZED
1842:..\..\..\..\..\..\uC-CPU/cpu_core.c **** #if ((defined(CPU_CFG_TRAIL_ZEROS_ASM_PRESENT)) && \
1843:..\..\..\..\..\..\uC-CPU/cpu_core.c ****      (CPU_CFG_DATA_SIZE >= CPU_WORD_SIZE_16))
1844:..\..\..\..\..\..\uC-CPU/cpu_core.c ****     nbr_trail_zeros = CPU_CntTrailZeros((CPU_DATA)val);
 1152              		.loc 1 1844 0
 1153 0014 FB88     		ldrh	r3, [r7, #6]
 1154 0016 1846     		mov	r0, r3
 1155 0018 FFF7FEFF 		bl	CPU_CntTrailZeros
 1156 001c F860     		str	r0, [r7, #12]
1845:..\..\..\..\..\..\uC-CPU/cpu_core.c **** 
1846:..\..\..\..\..\..\uC-CPU/cpu_core.c **** #else                                                           /* ------------------- C-OPTIMIZED 
1847:..\..\..\..\..\..\uC-CPU/cpu_core.c ****     val_bit_mask    = val & ((CPU_INT16U)~val + 1u);            /* Zero/clr all bits EXCEPT least-s
1848:..\..\..\..\..\..\uC-CPU/cpu_core.c ****     nbr_lead_zeros  = CPU_CntLeadZeros16(val_bit_mask);         /* Cnt  nbr lead  0s.              
1849:..\..\..\..\..\..\uC-CPU/cpu_core.c ****                                                                 /* Calc nbr trail 0s = (nbr val bit
1850:..\..\..\..\..\..\uC-CPU/cpu_core.c ****     nbr_trail_zeros = ((CPU_WORD_SIZE_16 * DEF_OCTET_NBR_BITS) - 1u) - nbr_lead_zeros;
1851:..\..\..\..\..\..\uC-CPU/cpu_core.c **** #endif
1852:..\..\..\..\..\..\uC-CPU/cpu_core.c **** 
1853:..\..\..\..\..\..\uC-CPU/cpu_core.c **** 
1854:..\..\..\..\..\..\uC-CPU/cpu_core.c ****     return (nbr_trail_zeros);
 1157              		.loc 1 1854 0
 1158 001e FB68     		ldr	r3, [r7, #12]
 1159              	.L59:
1855:..\..\..\..\..\..\uC-CPU/cpu_core.c **** }
 1160              		.loc 1 1855 0
 1161 0020 1846     		mov	r0, r3
 1162 0022 1037     		adds	r7, r7, #16
 1163              		.cfi_def_cfa_offset 8
 1164 0024 BD46     		mov	sp, r7
 1165              		.cfi_def_cfa_register 13
 1166              		@ sp needed
ARM GAS  C:\Users\alex\AppData\Local\Temp\ccSBLcnl.s 			page 54


 1167 0026 80BD     		pop	{r7, pc}
 1168              		.cfi_endproc
 1169              	.LFE14:
 1170              		.size	CPU_CntTrailZeros16, .-CPU_CntTrailZeros16
 1171              		.section	.text.CPU_CntTrailZeros32,"ax",%progbits
 1172              		.align	2
 1173              		.global	CPU_CntTrailZeros32
 1174              		.thumb
 1175              		.thumb_func
 1176              		.type	CPU_CntTrailZeros32, %function
 1177              	CPU_CntTrailZeros32:
 1178              	.LFB15:
1856:..\..\..\..\..\..\uC-CPU/cpu_core.c **** #endif
1857:..\..\..\..\..\..\uC-CPU/cpu_core.c **** 
1858:..\..\..\..\..\..\uC-CPU/cpu_core.c **** 
1859:..\..\..\..\..\..\uC-CPU/cpu_core.c **** /*$PAGE*/
1860:..\..\..\..\..\..\uC-CPU/cpu_core.c **** /*
1861:..\..\..\..\..\..\uC-CPU/cpu_core.c **** ***************************************************************************************************
1862:..\..\..\..\..\..\uC-CPU/cpu_core.c **** *                                        CPU_CntTrailZeros32()
1863:..\..\..\..\..\..\uC-CPU/cpu_core.c **** *
1864:..\..\..\..\..\..\uC-CPU/cpu_core.c **** * Description : Count the number of contiguous, least-significant, trailing zero bits in a 32-bit d
1865:..\..\..\..\..\..\uC-CPU/cpu_core.c **** *
1866:..\..\..\..\..\..\uC-CPU/cpu_core.c **** * Argument(s) : val         Data value to count trailing zero bits.
1867:..\..\..\..\..\..\uC-CPU/cpu_core.c **** *
1868:..\..\..\..\..\..\uC-CPU/cpu_core.c **** * Return(s)   : Number of contiguous, least-significant, trailing zero bits in 'val'.
1869:..\..\..\..\..\..\uC-CPU/cpu_core.c **** *
1870:..\..\..\..\..\..\uC-CPU/cpu_core.c **** * Caller(s)   : Application.
1871:..\..\..\..\..\..\uC-CPU/cpu_core.c **** *
1872:..\..\..\..\..\..\uC-CPU/cpu_core.c **** *               This function is a CPU module application programming interface (API) function & MA
1873:..\..\..\..\..\..\uC-CPU/cpu_core.c **** *               called by application function(s).
1874:..\..\..\..\..\..\uC-CPU/cpu_core.c **** *
1875:..\..\..\..\..\..\uC-CPU/cpu_core.c **** * Note(s)     : (1) Supports 32-bit values :
1876:..\..\..\..\..\..\uC-CPU/cpu_core.c **** *
1877:..\..\..\..\..\..\uC-CPU/cpu_core.c **** *                          b31  b30  b29  b28  b27  ...  b02  b01  b00    # Trailing Zeros
1878:..\..\..\..\..\..\uC-CPU/cpu_core.c **** *                          ---  ---  ---  ---  ---       ---  ---  ---    ----------------
1879:..\..\..\..\..\..\uC-CPU/cpu_core.c **** *                           x    x    x    x    x         x    x    1            0
1880:..\..\..\..\..\..\uC-CPU/cpu_core.c **** *                           x    x    x    x    x         x    1    0            1
1881:..\..\..\..\..\..\uC-CPU/cpu_core.c **** *                           x    x    x    x    x         1    0    0            2
1882:..\..\..\..\..\..\uC-CPU/cpu_core.c **** *                           :    :    :    :    :         :    :    :            :
1883:..\..\..\..\..\..\uC-CPU/cpu_core.c **** *                           :    :    :    :    :         :    :    :            :
1884:..\..\..\..\..\..\uC-CPU/cpu_core.c **** *                           x    x    x    x    1         0    0    0           27
1885:..\..\..\..\..\..\uC-CPU/cpu_core.c **** *                           x    x    x    1    0         0    0    0           28
1886:..\..\..\..\..\..\uC-CPU/cpu_core.c **** *                           x    x    1    0    0         0    0    0           29
1887:..\..\..\..\..\..\uC-CPU/cpu_core.c **** *                           x    1    0    0    0         0    0    0           30
1888:..\..\..\..\..\..\uC-CPU/cpu_core.c **** *                           1    0    0    0    0         0    0    0           31
1889:..\..\..\..\..\..\uC-CPU/cpu_core.c **** *                           0    0    0    0    0         0    0    0           32
1890:..\..\..\..\..\..\uC-CPU/cpu_core.c **** *
1891:..\..\..\..\..\..\uC-CPU/cpu_core.c **** *
1892:..\..\..\..\..\..\uC-CPU/cpu_core.c **** *               (2) For non-zero values, the returned number of contiguous, least-significant, trai
1893:..\..\..\..\..\..\uC-CPU/cpu_core.c **** *                   zero bits is also equivalent to the bit position of the least-significant set b
1894:..\..\..\..\..\..\uC-CPU/cpu_core.c **** *
1895:..\..\..\..\..\..\uC-CPU/cpu_core.c **** *               (3) 'val' SHOULD be validated for non-'0' PRIOR to all other counting zero calculat
1896:..\..\..\..\..\..\uC-CPU/cpu_core.c **** *
1897:..\..\..\..\..\..\uC-CPU/cpu_core.c **** *                   (a) For assembly-optimized implementations, CPU_CntTrailZeros() returns 'val's 
1898:..\..\..\..\..\..\uC-CPU/cpu_core.c **** *                       number of trailing zeros via CPU's native data size, 'CPU_CFG_DATA_SIZE'.  
1899:..\..\..\..\..\..\uC-CPU/cpu_core.c **** *                       If the returned number of zeros exceeds CPU_CntTrailZeros32()'s 32-bit retu
1900:..\..\..\..\..\..\uC-CPU/cpu_core.c **** *                       data size, then the returned number of zeros must be offset by the differen
ARM GAS  C:\Users\alex\AppData\Local\Temp\ccSBLcnl.s 			page 55


1901:..\..\..\..\..\..\uC-CPU/cpu_core.c **** *                       between CPU_CntTrailZeros()'s  & CPU_CntTrailZeros32()'s return data size :
1902:..\..\..\..\..\..\uC-CPU/cpu_core.c **** *
1903:..\..\..\..\..\..\uC-CPU/cpu_core.c **** *                           nbr_trail_zeros = CPU_CntTrailZeros((CPU_DATA)val);
1904:..\..\..\..\..\..\uC-CPU/cpu_core.c **** *                           if (nbr_trail_zeros >  (CPU_WORD_SIZE_32  * DEF_OCTET_NBR_BITS)) {
1905:..\..\..\..\..\..\uC-CPU/cpu_core.c **** *                               nbr_trail_zeros -= (CPU_CFG_DATA_SIZE - CPU_WORD_SIZE_32) * DEF_OCT
1906:..\..\..\..\..\..\uC-CPU/cpu_core.c **** *                           }
1907:..\..\..\..\..\..\uC-CPU/cpu_core.c **** *
1908:..\..\..\..\..\..\uC-CPU/cpu_core.c **** *                       However, this ONLY occurs for an initial 'val' of '0' since all non-'0' 32-
1909:..\..\..\..\..\..\uC-CPU/cpu_core.c **** *                       values would return a number of trailing zeros less than or equal to 32 bit
1910:..\..\..\..\..\..\uC-CPU/cpu_core.c **** *
1911:..\..\..\..\..\..\uC-CPU/cpu_core.c **** *                       Therefore, initially validating all non-'0' values prior to calling assembl
1912:..\..\..\..\..\..\uC-CPU/cpu_core.c **** *                       optimized CPU_CntTrailZeros() avoids having to offset the number of returne
1913:..\..\..\..\..\..\uC-CPU/cpu_core.c **** *                       trailing zeros by the difference in CPU data size and 32-bit data value bit
1914:..\..\..\..\..\..\uC-CPU/cpu_core.c **** *
1915:..\..\..\..\..\..\uC-CPU/cpu_core.c **** *                   (b) For CPU_CntTrailZeros32()'s C implementation, the final conditional stateme
1916:..\..\..\..\..\..\uC-CPU/cpu_core.c **** *                       calculates 'val's number of trailing zeros based on CPU_CntTrailZeros32()'s
1917:..\..\..\..\..\..\uC-CPU/cpu_core.c **** *                       32-bit return data size & 'val's calculated number of lead zeros ONLY if th
1918:..\..\..\..\..\..\uC-CPU/cpu_core.c **** *                       initial 'val' is non-'0' :
1919:..\..\..\..\..\..\uC-CPU/cpu_core.c **** *
1920:..\..\..\..\..\..\uC-CPU/cpu_core.c **** *                           if (val != 0u) {
1921:..\..\..\..\..\..\uC-CPU/cpu_core.c **** *                               nbr_trail_zeros = ((CPU_WORD_SIZE_32 * DEF_OCTET_NBR_BITS) - 1u) - 
1922:..\..\..\..\..\..\uC-CPU/cpu_core.c **** *                           } else {
1923:..\..\..\..\..\..\uC-CPU/cpu_core.c **** *                               nbr_trail_zeros = nbr_lead_zeros;
1924:..\..\..\..\..\..\uC-CPU/cpu_core.c **** *                           }
1925:..\..\..\..\..\..\uC-CPU/cpu_core.c **** *
1926:..\..\..\..\..\..\uC-CPU/cpu_core.c **** *                       Therefore, initially validating all non-'0' values avoids having to conditi
1927:..\..\..\..\..\..\uC-CPU/cpu_core.c **** *                       execute the final 'if' statement.
1928:..\..\..\..\..\..\uC-CPU/cpu_core.c **** ***************************************************************************************************
1929:..\..\..\..\..\..\uC-CPU/cpu_core.c **** */
1930:..\..\..\..\..\..\uC-CPU/cpu_core.c **** /*$PAGE*/
1931:..\..\..\..\..\..\uC-CPU/cpu_core.c **** #if (CPU_CFG_DATA_SIZE_MAX >= CPU_WORD_SIZE_32)
1932:..\..\..\..\..\..\uC-CPU/cpu_core.c **** CPU_DATA  CPU_CntTrailZeros32 (CPU_INT32U  val)
1933:..\..\..\..\..\..\uC-CPU/cpu_core.c **** {
 1179              		.loc 1 1933 0
 1180              		.cfi_startproc
 1181              		@ args = 0, pretend = 0, frame = 16
 1182              		@ frame_needed = 1, uses_anonymous_args = 0
 1183 0000 80B5     		push	{r7, lr}
 1184              		.cfi_def_cfa_offset 8
 1185              		.cfi_offset 7, -8
 1186              		.cfi_offset 14, -4
 1187 0002 84B0     		sub	sp, sp, #16
 1188              		.cfi_def_cfa_offset 24
 1189 0004 00AF     		add	r7, sp, #0
 1190              		.cfi_def_cfa_register 7
 1191 0006 7860     		str	r0, [r7, #4]
1934:..\..\..\..\..\..\uC-CPU/cpu_core.c **** #if  (!((defined(CPU_CFG_TRAIL_ZEROS_ASM_PRESENT)) && \
1935:..\..\..\..\..\..\uC-CPU/cpu_core.c ****         (CPU_CFG_DATA_SIZE >= CPU_WORD_SIZE_32)))
1936:..\..\..\..\..\..\uC-CPU/cpu_core.c ****     CPU_INT32U  val_bit_mask;
1937:..\..\..\..\..\..\uC-CPU/cpu_core.c ****     CPU_DATA    nbr_lead_zeros;
1938:..\..\..\..\..\..\uC-CPU/cpu_core.c **** #endif
1939:..\..\..\..\..\..\uC-CPU/cpu_core.c ****     CPU_DATA    nbr_trail_zeros;
1940:..\..\..\..\..\..\uC-CPU/cpu_core.c **** 
1941:..\..\..\..\..\..\uC-CPU/cpu_core.c **** 
1942:..\..\..\..\..\..\uC-CPU/cpu_core.c ****     if (val == 0u) {                                            /* Rtn ALL val bits as zero'd (see 
 1192              		.loc 1 1942 0
 1193 0008 7B68     		ldr	r3, [r7, #4]
ARM GAS  C:\Users\alex\AppData\Local\Temp\ccSBLcnl.s 			page 56


 1194 000a 002B     		cmp	r3, #0
 1195 000c 01D1     		bne	.L61
1943:..\..\..\..\..\..\uC-CPU/cpu_core.c ****         return (CPU_WORD_SIZE_32 * DEF_OCTET_NBR_BITS);
 1196              		.loc 1 1943 0
 1197 000e 2023     		movs	r3, #32
 1198 0010 04E0     		b	.L62
 1199              	.L61:
1944:..\..\..\..\..\..\uC-CPU/cpu_core.c ****     }
1945:..\..\..\..\..\..\uC-CPU/cpu_core.c **** 
1946:..\..\..\..\..\..\uC-CPU/cpu_core.c ****                                                                 /* ------------------ ASM-OPTIMIZED
1947:..\..\..\..\..\..\uC-CPU/cpu_core.c **** #if ((defined(CPU_CFG_TRAIL_ZEROS_ASM_PRESENT)) && \
1948:..\..\..\..\..\..\uC-CPU/cpu_core.c ****      (CPU_CFG_DATA_SIZE >= CPU_WORD_SIZE_32))
1949:..\..\..\..\..\..\uC-CPU/cpu_core.c ****     nbr_trail_zeros = CPU_CntTrailZeros((CPU_DATA)val);
 1200              		.loc 1 1949 0
 1201 0012 7868     		ldr	r0, [r7, #4]
 1202 0014 FFF7FEFF 		bl	CPU_CntTrailZeros
 1203 0018 F860     		str	r0, [r7, #12]
1950:..\..\..\..\..\..\uC-CPU/cpu_core.c **** 
1951:..\..\..\..\..\..\uC-CPU/cpu_core.c **** #else                                                           /* ------------------- C-OPTIMIZED 
1952:..\..\..\..\..\..\uC-CPU/cpu_core.c ****     val_bit_mask    = val & ((CPU_INT32U)~val + 1u);            /* Zero/clr all bits EXCEPT least-s
1953:..\..\..\..\..\..\uC-CPU/cpu_core.c ****     nbr_lead_zeros  = CPU_CntLeadZeros32(val_bit_mask);         /* Cnt  nbr lead  0s.              
1954:..\..\..\..\..\..\uC-CPU/cpu_core.c ****                                                                 /* Calc nbr trail 0s = (nbr val bit
1955:..\..\..\..\..\..\uC-CPU/cpu_core.c ****     nbr_trail_zeros = ((CPU_WORD_SIZE_32 * DEF_OCTET_NBR_BITS) - 1u) - nbr_lead_zeros;
1956:..\..\..\..\..\..\uC-CPU/cpu_core.c **** #endif
1957:..\..\..\..\..\..\uC-CPU/cpu_core.c **** 
1958:..\..\..\..\..\..\uC-CPU/cpu_core.c **** 
1959:..\..\..\..\..\..\uC-CPU/cpu_core.c ****     return (nbr_trail_zeros);
 1204              		.loc 1 1959 0
 1205 001a FB68     		ldr	r3, [r7, #12]
 1206              	.L62:
1960:..\..\..\..\..\..\uC-CPU/cpu_core.c **** }
 1207              		.loc 1 1960 0
 1208 001c 1846     		mov	r0, r3
 1209 001e 1037     		adds	r7, r7, #16
 1210              		.cfi_def_cfa_offset 8
 1211 0020 BD46     		mov	sp, r7
 1212              		.cfi_def_cfa_register 13
 1213              		@ sp needed
 1214 0022 80BD     		pop	{r7, pc}
 1215              		.cfi_endproc
 1216              	.LFE15:
 1217              		.size	CPU_CntTrailZeros32, .-CPU_CntTrailZeros32
 1218              		.section	.text.CPU_CntTrailZeros64,"ax",%progbits
 1219              		.align	2
 1220              		.global	CPU_CntTrailZeros64
 1221              		.thumb
 1222              		.thumb_func
 1223              		.type	CPU_CntTrailZeros64, %function
 1224              	CPU_CntTrailZeros64:
 1225              	.LFB16:
1961:..\..\..\..\..\..\uC-CPU/cpu_core.c **** #endif
1962:..\..\..\..\..\..\uC-CPU/cpu_core.c **** 
1963:..\..\..\..\..\..\uC-CPU/cpu_core.c **** 
1964:..\..\..\..\..\..\uC-CPU/cpu_core.c **** /*$PAGE*/
1965:..\..\..\..\..\..\uC-CPU/cpu_core.c **** /*
1966:..\..\..\..\..\..\uC-CPU/cpu_core.c **** ***************************************************************************************************
1967:..\..\..\..\..\..\uC-CPU/cpu_core.c **** *                                        CPU_CntTrailZeros64()
ARM GAS  C:\Users\alex\AppData\Local\Temp\ccSBLcnl.s 			page 57


1968:..\..\..\..\..\..\uC-CPU/cpu_core.c **** *
1969:..\..\..\..\..\..\uC-CPU/cpu_core.c **** * Description : Count the number of contiguous, least-significant, trailing zero bits in a 64-bit d
1970:..\..\..\..\..\..\uC-CPU/cpu_core.c **** *
1971:..\..\..\..\..\..\uC-CPU/cpu_core.c **** * Argument(s) : val         Data value to count trailing zero bits.
1972:..\..\..\..\..\..\uC-CPU/cpu_core.c **** *
1973:..\..\..\..\..\..\uC-CPU/cpu_core.c **** * Return(s)   : Number of contiguous, least-significant, trailing zero bits in 'val'.
1974:..\..\..\..\..\..\uC-CPU/cpu_core.c **** *
1975:..\..\..\..\..\..\uC-CPU/cpu_core.c **** * Caller(s)   : Application.
1976:..\..\..\..\..\..\uC-CPU/cpu_core.c **** *
1977:..\..\..\..\..\..\uC-CPU/cpu_core.c **** *               This function is a CPU module application programming interface (API) function & MA
1978:..\..\..\..\..\..\uC-CPU/cpu_core.c **** *               called by application function(s).
1979:..\..\..\..\..\..\uC-CPU/cpu_core.c **** *
1980:..\..\..\..\..\..\uC-CPU/cpu_core.c **** * Note(s)     : (1) Supports 64-bit values :
1981:..\..\..\..\..\..\uC-CPU/cpu_core.c **** *
1982:..\..\..\..\..\..\uC-CPU/cpu_core.c **** *                          b63  b62  b61  b60  b59  ...  b02  b01  b00    # Trailing Zeros
1983:..\..\..\..\..\..\uC-CPU/cpu_core.c **** *                          ---  ---  ---  ---  ---       ---  ---  ---    ----------------
1984:..\..\..\..\..\..\uC-CPU/cpu_core.c **** *                           x    x    x    x    x         x    x    1            0
1985:..\..\..\..\..\..\uC-CPU/cpu_core.c **** *                           x    x    x    x    x         x    1    0            1
1986:..\..\..\..\..\..\uC-CPU/cpu_core.c **** *                           x    x    x    x    x         1    0    0            2
1987:..\..\..\..\..\..\uC-CPU/cpu_core.c **** *                           :    :    :    :    :         :    :    :            :
1988:..\..\..\..\..\..\uC-CPU/cpu_core.c **** *                           :    :    :    :    :         :    :    :            :
1989:..\..\..\..\..\..\uC-CPU/cpu_core.c **** *                           x    x    x    x    1         0    0    0           59
1990:..\..\..\..\..\..\uC-CPU/cpu_core.c **** *                           x    x    x    1    0         0    0    0           60
1991:..\..\..\..\..\..\uC-CPU/cpu_core.c **** *                           x    x    1    0    0         0    0    0           61
1992:..\..\..\..\..\..\uC-CPU/cpu_core.c **** *                           x    1    0    0    0         0    0    0           62
1993:..\..\..\..\..\..\uC-CPU/cpu_core.c **** *                           1    0    0    0    0         0    0    0           63
1994:..\..\..\..\..\..\uC-CPU/cpu_core.c **** *                           0    0    0    0    0         0    0    0           64
1995:..\..\..\..\..\..\uC-CPU/cpu_core.c **** *
1996:..\..\..\..\..\..\uC-CPU/cpu_core.c **** *
1997:..\..\..\..\..\..\uC-CPU/cpu_core.c **** *               (2) For non-zero values, the returned number of contiguous, least-significant, trai
1998:..\..\..\..\..\..\uC-CPU/cpu_core.c **** *                   zero bits is also equivalent to the bit position of the least-significant set b
1999:..\..\..\..\..\..\uC-CPU/cpu_core.c **** *
2000:..\..\..\..\..\..\uC-CPU/cpu_core.c **** *               (3) 'val' SHOULD be validated for non-'0' PRIOR to all other counting zero calculat
2001:..\..\..\..\..\..\uC-CPU/cpu_core.c **** *
2002:..\..\..\..\..\..\uC-CPU/cpu_core.c **** *                   (a) For assembly-optimized implementations, CPU_CntTrailZeros() returns 'val's 
2003:..\..\..\..\..\..\uC-CPU/cpu_core.c **** *                       number of trailing zeros via CPU's native data size, 'CPU_CFG_DATA_SIZE'.  
2004:..\..\..\..\..\..\uC-CPU/cpu_core.c **** *                       If the returned number of zeros exceeds CPU_CntTrailZeros64()'s 64-bit retu
2005:..\..\..\..\..\..\uC-CPU/cpu_core.c **** *                       data size, then the returned number of zeros must be offset by the differen
2006:..\..\..\..\..\..\uC-CPU/cpu_core.c **** *                       between CPU_CntTrailZeros()'s  & CPU_CntTrailZeros64()'s return data size :
2007:..\..\..\..\..\..\uC-CPU/cpu_core.c **** *
2008:..\..\..\..\..\..\uC-CPU/cpu_core.c **** *                           nbr_trail_zeros = CPU_CntTrailZeros((CPU_DATA)val);
2009:..\..\..\..\..\..\uC-CPU/cpu_core.c **** *                           if (nbr_trail_zeros >  (CPU_WORD_SIZE_64  * DEF_OCTET_NBR_BITS)) {
2010:..\..\..\..\..\..\uC-CPU/cpu_core.c **** *                               nbr_trail_zeros -= (CPU_CFG_DATA_SIZE - CPU_WORD_SIZE_64) * DEF_OCT
2011:..\..\..\..\..\..\uC-CPU/cpu_core.c **** *                           }
2012:..\..\..\..\..\..\uC-CPU/cpu_core.c **** *
2013:..\..\..\..\..\..\uC-CPU/cpu_core.c **** *                       However, this ONLY occurs for an initial 'val' of '0' since all non-'0' 64-
2014:..\..\..\..\..\..\uC-CPU/cpu_core.c **** *                       values would return a number of trailing zeros less than or equal to 64 bit
2015:..\..\..\..\..\..\uC-CPU/cpu_core.c **** *
2016:..\..\..\..\..\..\uC-CPU/cpu_core.c **** *                       Therefore, initially validating all non-'0' values prior to calling assembl
2017:..\..\..\..\..\..\uC-CPU/cpu_core.c **** *                       optimized CPU_CntTrailZeros() avoids having to offset the number of returne
2018:..\..\..\..\..\..\uC-CPU/cpu_core.c **** *                       trailing zeros by the difference in CPU data size and 64-bit data value bit
2019:..\..\..\..\..\..\uC-CPU/cpu_core.c **** *
2020:..\..\..\..\..\..\uC-CPU/cpu_core.c **** *                   (b) For CPU_CntTrailZeros64()'s C implementation, the final conditional stateme
2021:..\..\..\..\..\..\uC-CPU/cpu_core.c **** *                       calculates 'val's number of trailing zeros based on CPU_CntTrailZeros64()'s
2022:..\..\..\..\..\..\uC-CPU/cpu_core.c **** *                       64-bit return data size & 'val's calculated number of lead zeros ONLY if th
2023:..\..\..\..\..\..\uC-CPU/cpu_core.c **** *                       initial 'val' is non-'0' :
2024:..\..\..\..\..\..\uC-CPU/cpu_core.c **** *
ARM GAS  C:\Users\alex\AppData\Local\Temp\ccSBLcnl.s 			page 58


2025:..\..\..\..\..\..\uC-CPU/cpu_core.c **** *                           if (val != 0u) {
2026:..\..\..\..\..\..\uC-CPU/cpu_core.c **** *                               nbr_trail_zeros = ((CPU_WORD_SIZE_64 * DEF_OCTET_NBR_BITS) - 1u) - 
2027:..\..\..\..\..\..\uC-CPU/cpu_core.c **** *                           } else {
2028:..\..\..\..\..\..\uC-CPU/cpu_core.c **** *                               nbr_trail_zeros = nbr_lead_zeros;
2029:..\..\..\..\..\..\uC-CPU/cpu_core.c **** *                           }
2030:..\..\..\..\..\..\uC-CPU/cpu_core.c **** *
2031:..\..\..\..\..\..\uC-CPU/cpu_core.c **** *                       Therefore, initially validating all non-'0' values avoids having to conditi
2032:..\..\..\..\..\..\uC-CPU/cpu_core.c **** *                       execute the final 'if' statement.
2033:..\..\..\..\..\..\uC-CPU/cpu_core.c **** ***************************************************************************************************
2034:..\..\..\..\..\..\uC-CPU/cpu_core.c **** */
2035:..\..\..\..\..\..\uC-CPU/cpu_core.c **** /*$PAGE*/
2036:..\..\..\..\..\..\uC-CPU/cpu_core.c **** #if (CPU_CFG_DATA_SIZE_MAX >= CPU_WORD_SIZE_64)
2037:..\..\..\..\..\..\uC-CPU/cpu_core.c **** CPU_DATA  CPU_CntTrailZeros64 (CPU_INT64U  val)
2038:..\..\..\..\..\..\uC-CPU/cpu_core.c **** {
 1226              		.loc 1 2038 0
 1227              		.cfi_startproc
 1228              		@ args = 0, pretend = 0, frame = 24
 1229              		@ frame_needed = 1, uses_anonymous_args = 0
 1230 0000 90B5     		push	{r4, r7, lr}
 1231              		.cfi_def_cfa_offset 12
 1232              		.cfi_offset 4, -12
 1233              		.cfi_offset 7, -8
 1234              		.cfi_offset 14, -4
 1235 0002 87B0     		sub	sp, sp, #28
 1236              		.cfi_def_cfa_offset 40
 1237 0004 00AF     		add	r7, sp, #0
 1238              		.cfi_def_cfa_register 7
 1239 0006 C7E90001 		strd	r0, [r7]
2039:..\..\..\..\..\..\uC-CPU/cpu_core.c **** #if  (!((defined(CPU_CFG_TRAIL_ZEROS_ASM_PRESENT)) && \
2040:..\..\..\..\..\..\uC-CPU/cpu_core.c ****         (CPU_CFG_DATA_SIZE >= CPU_WORD_SIZE_64)))
2041:..\..\..\..\..\..\uC-CPU/cpu_core.c ****     CPU_INT64U  val_bit_mask;
2042:..\..\..\..\..\..\uC-CPU/cpu_core.c ****     CPU_DATA    nbr_lead_zeros;
2043:..\..\..\..\..\..\uC-CPU/cpu_core.c **** #endif
2044:..\..\..\..\..\..\uC-CPU/cpu_core.c ****     CPU_DATA    nbr_trail_zeros;
2045:..\..\..\..\..\..\uC-CPU/cpu_core.c **** 
2046:..\..\..\..\..\..\uC-CPU/cpu_core.c **** 
2047:..\..\..\..\..\..\uC-CPU/cpu_core.c ****     if (val == 0u) {                                            /* Rtn ALL val bits as zero'd (see 
 1240              		.loc 1 2047 0
 1241 000a D7E90034 		ldrd	r3, [r7]
 1242 000e 2343     		orrs	r3, r3, r4
 1243 0010 01D1     		bne	.L64
2048:..\..\..\..\..\..\uC-CPU/cpu_core.c ****         return (CPU_WORD_SIZE_64 * DEF_OCTET_NBR_BITS);
 1244              		.loc 1 2048 0
 1245 0012 4023     		movs	r3, #64
 1246 0014 16E0     		b	.L65
 1247              	.L64:
2049:..\..\..\..\..\..\uC-CPU/cpu_core.c ****     }
2050:..\..\..\..\..\..\uC-CPU/cpu_core.c **** 
2051:..\..\..\..\..\..\uC-CPU/cpu_core.c ****                                                                 /* ------------------ ASM-OPTIMIZED
2052:..\..\..\..\..\..\uC-CPU/cpu_core.c **** #if ((defined(CPU_CFG_TRAIL_ZEROS_ASM_PRESENT)) && \
2053:..\..\..\..\..\..\uC-CPU/cpu_core.c ****      (CPU_CFG_DATA_SIZE >= CPU_WORD_SIZE_64))
2054:..\..\..\..\..\..\uC-CPU/cpu_core.c ****     nbr_trail_zeros = CPU_CntTrailZeros((CPU_DATA)val);
2055:..\..\..\..\..\..\uC-CPU/cpu_core.c **** 
2056:..\..\..\..\..\..\uC-CPU/cpu_core.c **** #else                                                           /* ------------------- C-OPTIMIZED 
2057:..\..\..\..\..\..\uC-CPU/cpu_core.c ****     val_bit_mask    = val & ((CPU_INT64U)~val + 1u);            /* Zero/clr all bits EXCEPT least-s
 1248              		.loc 1 2057 0
 1249 0016 D7E90034 		ldrd	r3, [r7]
ARM GAS  C:\Users\alex\AppData\Local\Temp\ccSBLcnl.s 			page 59


 1250 001a 5942     		rsbs	r1, r3, #0
 1251 001c 64EB4402 		sbc	r2, r4, r4, lsl #1
 1252 0020 D7E90034 		ldrd	r3, [r7]
 1253 0024 03EA0103 		and	r3, r3, r1
 1254 0028 04EA0204 		and	r4, r4, r2
 1255 002c C7E90434 		strd	r3, [r7, #16]
2058:..\..\..\..\..\..\uC-CPU/cpu_core.c ****     nbr_lead_zeros  = CPU_CntLeadZeros64(val_bit_mask);         /* Cnt  nbr lead  0s.              
 1256              		.loc 1 2058 0
 1257 0030 D7E90401 		ldrd	r0, [r7, #16]
 1258 0034 FFF7FEFF 		bl	CPU_CntLeadZeros64
 1259 0038 F860     		str	r0, [r7, #12]
2059:..\..\..\..\..\..\uC-CPU/cpu_core.c ****                                                                 /* Calc nbr trail 0s = (nbr val bit
2060:..\..\..\..\..\..\uC-CPU/cpu_core.c ****     nbr_trail_zeros = ((CPU_WORD_SIZE_64 * DEF_OCTET_NBR_BITS) - 1u) - nbr_lead_zeros;
 1260              		.loc 1 2060 0
 1261 003a FB68     		ldr	r3, [r7, #12]
 1262 003c C3F13F03 		rsb	r3, r3, #63
 1263 0040 BB60     		str	r3, [r7, #8]
2061:..\..\..\..\..\..\uC-CPU/cpu_core.c **** #endif
2062:..\..\..\..\..\..\uC-CPU/cpu_core.c **** 
2063:..\..\..\..\..\..\uC-CPU/cpu_core.c **** 
2064:..\..\..\..\..\..\uC-CPU/cpu_core.c ****     return (nbr_trail_zeros);
 1264              		.loc 1 2064 0
 1265 0042 BB68     		ldr	r3, [r7, #8]
 1266              	.L65:
2065:..\..\..\..\..\..\uC-CPU/cpu_core.c **** }
 1267              		.loc 1 2065 0
 1268 0044 1846     		mov	r0, r3
 1269 0046 1C37     		adds	r7, r7, #28
 1270              		.cfi_def_cfa_offset 12
 1271 0048 BD46     		mov	sp, r7
 1272              		.cfi_def_cfa_register 13
 1273              		@ sp needed
 1274 004a 90BD     		pop	{r4, r7, pc}
 1275              		.cfi_endproc
 1276              	.LFE16:
 1277              		.size	CPU_CntTrailZeros64, .-CPU_CntTrailZeros64
 1278              		.section	.text.CPU_NameInit,"ax",%progbits
 1279              		.align	2
 1280              		.thumb
 1281              		.thumb_func
 1282              		.type	CPU_NameInit, %function
 1283              	CPU_NameInit:
 1284              	.LFB17:
2066:..\..\..\..\..\..\uC-CPU/cpu_core.c **** #endif
2067:..\..\..\..\..\..\uC-CPU/cpu_core.c **** 
2068:..\..\..\..\..\..\uC-CPU/cpu_core.c **** 
2069:..\..\..\..\..\..\uC-CPU/cpu_core.c **** /*$PAGE*/
2070:..\..\..\..\..\..\uC-CPU/cpu_core.c **** /*
2071:..\..\..\..\..\..\uC-CPU/cpu_core.c **** ***************************************************************************************************
2072:..\..\..\..\..\..\uC-CPU/cpu_core.c **** ***************************************************************************************************
2073:..\..\..\..\..\..\uC-CPU/cpu_core.c **** *                                           LOCAL FUNCTIONS
2074:..\..\..\..\..\..\uC-CPU/cpu_core.c **** ***************************************************************************************************
2075:..\..\..\..\..\..\uC-CPU/cpu_core.c **** ***************************************************************************************************
2076:..\..\..\..\..\..\uC-CPU/cpu_core.c **** */
2077:..\..\..\..\..\..\uC-CPU/cpu_core.c **** 
2078:..\..\..\..\..\..\uC-CPU/cpu_core.c **** /*
2079:..\..\..\..\..\..\uC-CPU/cpu_core.c **** ***************************************************************************************************
ARM GAS  C:\Users\alex\AppData\Local\Temp\ccSBLcnl.s 			page 60


2080:..\..\..\..\..\..\uC-CPU/cpu_core.c **** *                                           CPU_NameInit()
2081:..\..\..\..\..\..\uC-CPU/cpu_core.c **** *
2082:..\..\..\..\..\..\uC-CPU/cpu_core.c **** * Description : Initialize CPU Name.
2083:..\..\..\..\..\..\uC-CPU/cpu_core.c **** *
2084:..\..\..\..\..\..\uC-CPU/cpu_core.c **** * Argument(s) : none.
2085:..\..\..\..\..\..\uC-CPU/cpu_core.c **** *
2086:..\..\..\..\..\..\uC-CPU/cpu_core.c **** * Return(s)   : none.
2087:..\..\..\..\..\..\uC-CPU/cpu_core.c **** *
2088:..\..\..\..\..\..\uC-CPU/cpu_core.c **** * Caller(s)   : CPU_Init().
2089:..\..\..\..\..\..\uC-CPU/cpu_core.c **** *
2090:..\..\..\..\..\..\uC-CPU/cpu_core.c **** * Note(s)     : none.
2091:..\..\..\..\..\..\uC-CPU/cpu_core.c **** ***************************************************************************************************
2092:..\..\..\..\..\..\uC-CPU/cpu_core.c **** */
2093:..\..\..\..\..\..\uC-CPU/cpu_core.c **** 
2094:..\..\..\..\..\..\uC-CPU/cpu_core.c **** #if (CPU_CFG_NAME_EN == DEF_ENABLED)
2095:..\..\..\..\..\..\uC-CPU/cpu_core.c **** static  void  CPU_NameInit (void)
2096:..\..\..\..\..\..\uC-CPU/cpu_core.c **** {
 1285              		.loc 1 2096 0
 1286              		.cfi_startproc
 1287              		@ args = 0, pretend = 0, frame = 0
 1288              		@ frame_needed = 1, uses_anonymous_args = 0
 1289 0000 80B5     		push	{r7, lr}
 1290              		.cfi_def_cfa_offset 8
 1291              		.cfi_offset 7, -8
 1292              		.cfi_offset 14, -4
 1293 0002 00AF     		add	r7, sp, #0
 1294              		.cfi_def_cfa_register 7
2097:..\..\..\..\..\..\uC-CPU/cpu_core.c ****     CPU_NameClr();
 1295              		.loc 1 2097 0
 1296 0004 FFF7FEFF 		bl	CPU_NameClr
2098:..\..\..\..\..\..\uC-CPU/cpu_core.c **** }
 1297              		.loc 1 2098 0
 1298 0008 00BF     		nop
 1299 000a 80BD     		pop	{r7, pc}
 1300              		.cfi_endproc
 1301              	.LFE17:
 1302              		.size	CPU_NameInit, .-CPU_NameInit
 1303              		.section	.text.CPU_TS_Init,"ax",%progbits
 1304              		.align	2
 1305              		.thumb
 1306              		.thumb_func
 1307              		.type	CPU_TS_Init, %function
 1308              	CPU_TS_Init:
 1309              	.LFB18:
2099:..\..\..\..\..\..\uC-CPU/cpu_core.c **** #endif
2100:..\..\..\..\..\..\uC-CPU/cpu_core.c **** 
2101:..\..\..\..\..\..\uC-CPU/cpu_core.c **** 
2102:..\..\..\..\..\..\uC-CPU/cpu_core.c **** /*$PAGE*/
2103:..\..\..\..\..\..\uC-CPU/cpu_core.c **** /*
2104:..\..\..\..\..\..\uC-CPU/cpu_core.c **** ***************************************************************************************************
2105:..\..\..\..\..\..\uC-CPU/cpu_core.c **** *                                            CPU_TS_Init()
2106:..\..\..\..\..\..\uC-CPU/cpu_core.c **** *
2107:..\..\..\..\..\..\uC-CPU/cpu_core.c **** * Description : (1) Initialize CPU timestamp :
2108:..\..\..\..\..\..\uC-CPU/cpu_core.c **** *
2109:..\..\..\..\..\..\uC-CPU/cpu_core.c **** *                   (a) Initialize/start CPU timestamp timer                            See Note #1
