ARM GAS  C:\Users\alex\AppData\Local\Temp\ccuGNGzp.s 			page 1


   1              		.syntax unified
   2              		.cpu cortex-m3
   3              		.fpu softvfp
   4              		.eabi_attribute 20, 1
   5              		.eabi_attribute 21, 1
   6              		.eabi_attribute 23, 3
   7              		.eabi_attribute 24, 1
   8              		.eabi_attribute 25, 1
   9              		.eabi_attribute 26, 1
  10              		.eabi_attribute 30, 6
  11              		.eabi_attribute 34, 1
  12              		.eabi_attribute 18, 4
  13              		.thumb
  14              		.syntax unified
  15              		.file	"os_app_hooks.c"
  16              		.text
  17              	.Ltext0:
  18              		.cfi_sections	.debug_frame
  19              		.section	.text.App_OS_SetAllHooks,"ax",%progbits
  20              		.align	2
  21              		.global	App_OS_SetAllHooks
  22              		.thumb
  23              		.thumb_func
  24              		.type	App_OS_SetAllHooks, %function
  25              	App_OS_SetAllHooks:
  26              	.LFB0:
  27              		.file 1 "..\\os_app_hooks.c"
   1:..\os_app_hooks.c **** /*
   2:..\os_app_hooks.c **** ***************************************************************************************************
   3:..\os_app_hooks.c **** *                                                     uC/OS-III
   4:..\os_app_hooks.c **** *                                                The Real-Time Kernel
   5:..\os_app_hooks.c **** *
   6:..\os_app_hooks.c **** *                                  (c) Copyright 2009-2012; Micrium, Inc.; Weston, FL
   7:..\os_app_hooks.c **** *                          All rights reserved.  Protected by international copyright laws.
   8:..\os_app_hooks.c **** *
   9:..\os_app_hooks.c **** *                                                  APPLICATION HOOKS
  10:..\os_app_hooks.c **** *
  11:..\os_app_hooks.c **** * File    : OS_APP_HOOKS.C
  12:..\os_app_hooks.c **** * By      : JJL
  13:..\os_app_hooks.c **** * Version : V3.01.1
  14:..\os_app_hooks.c **** *
  15:..\os_app_hooks.c **** * LICENSING TERMS:
  16:..\os_app_hooks.c **** * ---------------
  17:..\os_app_hooks.c **** *               uC/OS-III is provided in source form to registered licensees ONLY.  It is 
  18:..\os_app_hooks.c **** *               illegal to distribute this source code to any third party unless you receive 
  19:..\os_app_hooks.c **** *               written permission by an authorized Micrium representative.  Knowledge of 
  20:..\os_app_hooks.c **** *               the source code may NOT be used to develop a similar product.
  21:..\os_app_hooks.c **** *
  22:..\os_app_hooks.c **** *               Please help us continue to provide the Embedded community with the finest
  23:..\os_app_hooks.c **** *               software available.  Your honesty is greatly appreciated.
  24:..\os_app_hooks.c **** *
  25:..\os_app_hooks.c **** *               You can contact us at www.micrium.com.
  26:..\os_app_hooks.c **** ***************************************************************************************************
  27:..\os_app_hooks.c **** */
  28:..\os_app_hooks.c **** 
  29:..\os_app_hooks.c **** #include <os.h>
  30:..\os_app_hooks.c **** #include <os_app_hooks.h>
ARM GAS  C:\Users\alex\AppData\Local\Temp\ccuGNGzp.s 			page 2


  31:..\os_app_hooks.c **** 
  32:..\os_app_hooks.c **** /*$PAGE*/
  33:..\os_app_hooks.c **** /*
  34:..\os_app_hooks.c **** ***************************************************************************************************
  35:..\os_app_hooks.c **** *                                              SET ALL APPLICATION HOOKS
  36:..\os_app_hooks.c **** *
  37:..\os_app_hooks.c **** * Description: Set ALL application hooks.
  38:..\os_app_hooks.c **** *
  39:..\os_app_hooks.c **** * Arguments  : none.
  40:..\os_app_hooks.c **** *
  41:..\os_app_hooks.c **** * Note(s)    : none
  42:..\os_app_hooks.c **** ***************************************************************************************************
  43:..\os_app_hooks.c **** */
  44:..\os_app_hooks.c **** 
  45:..\os_app_hooks.c **** void  App_OS_SetAllHooks (void)
  46:..\os_app_hooks.c **** {
  28              		.loc 1 46 0
  29              		.cfi_startproc
  30              		@ args = 0, pretend = 0, frame = 8
  31              		@ frame_needed = 1, uses_anonymous_args = 0
  32 0000 80B5     		push	{r7, lr}
  33              		.cfi_def_cfa_offset 8
  34              		.cfi_offset 7, -8
  35              		.cfi_offset 14, -4
  36 0002 82B0     		sub	sp, sp, #8
  37              		.cfi_def_cfa_offset 16
  38 0004 00AF     		add	r7, sp, #0
  39              		.cfi_def_cfa_register 7
  47:..\os_app_hooks.c **** #if OS_CFG_APP_HOOKS_EN > 0u
  48:..\os_app_hooks.c ****     CPU_SR_ALLOC();
  40              		.loc 1 48 0
  41 0006 0023     		movs	r3, #0
  42 0008 7B60     		str	r3, [r7, #4]
  49:..\os_app_hooks.c **** 
  50:..\os_app_hooks.c **** 
  51:..\os_app_hooks.c ****     CPU_CRITICAL_ENTER();
  43              		.loc 1 51 0
  44 000a FFF7FEFF 		bl	CPU_SR_Save
  45 000e 7860     		str	r0, [r7, #4]
  52:..\os_app_hooks.c ****     OS_AppTaskCreateHookPtr = App_OS_TaskCreateHook;
  46              		.loc 1 52 0
  47 0010 0D4B     		ldr	r3, .L2
  48 0012 0E4A     		ldr	r2, .L2+4
  49 0014 1A60     		str	r2, [r3]
  53:..\os_app_hooks.c ****     OS_AppTaskDelHookPtr    = App_OS_TaskDelHook;
  50              		.loc 1 53 0
  51 0016 0E4B     		ldr	r3, .L2+8
  52 0018 0E4A     		ldr	r2, .L2+12
  53 001a 1A60     		str	r2, [r3]
  54:..\os_app_hooks.c ****     OS_AppTaskReturnHookPtr = App_OS_TaskReturnHook;
  54              		.loc 1 54 0
  55 001c 0E4B     		ldr	r3, .L2+16
  56 001e 0F4A     		ldr	r2, .L2+20
  57 0020 1A60     		str	r2, [r3]
  55:..\os_app_hooks.c **** 
  56:..\os_app_hooks.c ****     OS_AppIdleTaskHookPtr   = App_OS_IdleTaskHook;
  58              		.loc 1 56 0
ARM GAS  C:\Users\alex\AppData\Local\Temp\ccuGNGzp.s 			page 3


  59 0022 0F4B     		ldr	r3, .L2+24
  60 0024 0F4A     		ldr	r2, .L2+28
  61 0026 1A60     		str	r2, [r3]
  57:..\os_app_hooks.c ****     OS_AppStatTaskHookPtr   = App_OS_StatTaskHook;
  62              		.loc 1 57 0
  63 0028 0F4B     		ldr	r3, .L2+32
  64 002a 104A     		ldr	r2, .L2+36
  65 002c 1A60     		str	r2, [r3]
  58:..\os_app_hooks.c ****     OS_AppTaskSwHookPtr     = App_OS_TaskSwHook;
  66              		.loc 1 58 0
  67 002e 104B     		ldr	r3, .L2+40
  68 0030 104A     		ldr	r2, .L2+44
  69 0032 1A60     		str	r2, [r3]
  59:..\os_app_hooks.c ****     OS_AppTimeTickHookPtr   = App_OS_TimeTickHook;
  70              		.loc 1 59 0
  71 0034 104B     		ldr	r3, .L2+48
  72 0036 114A     		ldr	r2, .L2+52
  73 0038 1A60     		str	r2, [r3]
  60:..\os_app_hooks.c ****     CPU_CRITICAL_EXIT();
  74              		.loc 1 60 0
  75 003a 7868     		ldr	r0, [r7, #4]
  76 003c FFF7FEFF 		bl	CPU_SR_Restore
  61:..\os_app_hooks.c **** #endif
  62:..\os_app_hooks.c **** }
  77              		.loc 1 62 0
  78 0040 00BF     		nop
  79 0042 0837     		adds	r7, r7, #8
  80              		.cfi_def_cfa_offset 8
  81 0044 BD46     		mov	sp, r7
  82              		.cfi_def_cfa_register 13
  83              		@ sp needed
  84 0046 80BD     		pop	{r7, pc}
  85              	.L3:
  86              		.align	2
  87              	.L2:
  88 0048 00000000 		.word	OS_AppTaskCreateHookPtr
  89 004c 00000000 		.word	App_OS_TaskCreateHook
  90 0050 00000000 		.word	OS_AppTaskDelHookPtr
  91 0054 00000000 		.word	App_OS_TaskDelHook
  92 0058 00000000 		.word	OS_AppTaskReturnHookPtr
  93 005c 00000000 		.word	App_OS_TaskReturnHook
  94 0060 00000000 		.word	OS_AppIdleTaskHookPtr
  95 0064 00000000 		.word	App_OS_IdleTaskHook
  96 0068 00000000 		.word	OS_AppStatTaskHookPtr
  97 006c 00000000 		.word	App_OS_StatTaskHook
  98 0070 00000000 		.word	OS_AppTaskSwHookPtr
  99 0074 00000000 		.word	App_OS_TaskSwHook
 100 0078 00000000 		.word	OS_AppTimeTickHookPtr
 101 007c 00000000 		.word	App_OS_TimeTickHook
 102              		.cfi_endproc
 103              	.LFE0:
 104              		.size	App_OS_SetAllHooks, .-App_OS_SetAllHooks
 105              		.section	.text.App_OS_ClrAllHooks,"ax",%progbits
 106              		.align	2
 107              		.global	App_OS_ClrAllHooks
 108              		.thumb
 109              		.thumb_func
ARM GAS  C:\Users\alex\AppData\Local\Temp\ccuGNGzp.s 			page 4


 110              		.type	App_OS_ClrAllHooks, %function
 111              	App_OS_ClrAllHooks:
 112              	.LFB1:
  63:..\os_app_hooks.c **** 
  64:..\os_app_hooks.c **** /*$PAGE*/
  65:..\os_app_hooks.c **** /*
  66:..\os_app_hooks.c **** ***************************************************************************************************
  67:..\os_app_hooks.c **** *                                             CLEAR ALL APPLICATION HOOKS
  68:..\os_app_hooks.c **** *
  69:..\os_app_hooks.c **** * Description: Clear ALL application hooks.
  70:..\os_app_hooks.c **** *
  71:..\os_app_hooks.c **** * Arguments  : none.
  72:..\os_app_hooks.c **** *
  73:..\os_app_hooks.c **** * Note(s)    : none
  74:..\os_app_hooks.c **** ***************************************************************************************************
  75:..\os_app_hooks.c **** */
  76:..\os_app_hooks.c **** 
  77:..\os_app_hooks.c **** void  App_OS_ClrAllHooks (void)
  78:..\os_app_hooks.c **** {
 113              		.loc 1 78 0
 114              		.cfi_startproc
 115              		@ args = 0, pretend = 0, frame = 8
 116              		@ frame_needed = 1, uses_anonymous_args = 0
 117 0000 80B5     		push	{r7, lr}
 118              		.cfi_def_cfa_offset 8
 119              		.cfi_offset 7, -8
 120              		.cfi_offset 14, -4
 121 0002 82B0     		sub	sp, sp, #8
 122              		.cfi_def_cfa_offset 16
 123 0004 00AF     		add	r7, sp, #0
 124              		.cfi_def_cfa_register 7
  79:..\os_app_hooks.c **** #if OS_CFG_APP_HOOKS_EN > 0u
  80:..\os_app_hooks.c ****     CPU_SR_ALLOC();
 125              		.loc 1 80 0
 126 0006 0023     		movs	r3, #0
 127 0008 7B60     		str	r3, [r7, #4]
  81:..\os_app_hooks.c **** 
  82:..\os_app_hooks.c **** 
  83:..\os_app_hooks.c ****     CPU_CRITICAL_ENTER();
 128              		.loc 1 83 0
 129 000a FFF7FEFF 		bl	CPU_SR_Save
 130 000e 7860     		str	r0, [r7, #4]
  84:..\os_app_hooks.c ****     OS_AppTaskCreateHookPtr = (OS_APP_HOOK_TCB)0;
 131              		.loc 1 84 0
 132 0010 0D4B     		ldr	r3, .L5
 133 0012 0022     		movs	r2, #0
 134 0014 1A60     		str	r2, [r3]
  85:..\os_app_hooks.c ****     OS_AppTaskDelHookPtr    = (OS_APP_HOOK_TCB)0;
 135              		.loc 1 85 0
 136 0016 0D4B     		ldr	r3, .L5+4
 137 0018 0022     		movs	r2, #0
 138 001a 1A60     		str	r2, [r3]
  86:..\os_app_hooks.c ****     OS_AppTaskReturnHookPtr = (OS_APP_HOOK_TCB)0;
 139              		.loc 1 86 0
 140 001c 0C4B     		ldr	r3, .L5+8
 141 001e 0022     		movs	r2, #0
 142 0020 1A60     		str	r2, [r3]
ARM GAS  C:\Users\alex\AppData\Local\Temp\ccuGNGzp.s 			page 5


  87:..\os_app_hooks.c **** 
  88:..\os_app_hooks.c ****     OS_AppIdleTaskHookPtr   = (OS_APP_HOOK_VOID)0;
 143              		.loc 1 88 0
 144 0022 0C4B     		ldr	r3, .L5+12
 145 0024 0022     		movs	r2, #0
 146 0026 1A60     		str	r2, [r3]
  89:..\os_app_hooks.c ****     OS_AppStatTaskHookPtr   = (OS_APP_HOOK_VOID)0;
 147              		.loc 1 89 0
 148 0028 0B4B     		ldr	r3, .L5+16
 149 002a 0022     		movs	r2, #0
 150 002c 1A60     		str	r2, [r3]
  90:..\os_app_hooks.c ****     OS_AppTaskSwHookPtr     = (OS_APP_HOOK_VOID)0;
 151              		.loc 1 90 0
 152 002e 0B4B     		ldr	r3, .L5+20
 153 0030 0022     		movs	r2, #0
 154 0032 1A60     		str	r2, [r3]
  91:..\os_app_hooks.c ****     OS_AppTimeTickHookPtr   = (OS_APP_HOOK_VOID)0;
 155              		.loc 1 91 0
 156 0034 0A4B     		ldr	r3, .L5+24
 157 0036 0022     		movs	r2, #0
 158 0038 1A60     		str	r2, [r3]
  92:..\os_app_hooks.c ****     CPU_CRITICAL_EXIT();
 159              		.loc 1 92 0
 160 003a 7868     		ldr	r0, [r7, #4]
 161 003c FFF7FEFF 		bl	CPU_SR_Restore
  93:..\os_app_hooks.c **** #endif
  94:..\os_app_hooks.c **** }
 162              		.loc 1 94 0
 163 0040 00BF     		nop
 164 0042 0837     		adds	r7, r7, #8
 165              		.cfi_def_cfa_offset 8
 166 0044 BD46     		mov	sp, r7
 167              		.cfi_def_cfa_register 13
 168              		@ sp needed
 169 0046 80BD     		pop	{r7, pc}
 170              	.L6:
 171              		.align	2
 172              	.L5:
 173 0048 00000000 		.word	OS_AppTaskCreateHookPtr
 174 004c 00000000 		.word	OS_AppTaskDelHookPtr
 175 0050 00000000 		.word	OS_AppTaskReturnHookPtr
 176 0054 00000000 		.word	OS_AppIdleTaskHookPtr
 177 0058 00000000 		.word	OS_AppStatTaskHookPtr
 178 005c 00000000 		.word	OS_AppTaskSwHookPtr
 179 0060 00000000 		.word	OS_AppTimeTickHookPtr
 180              		.cfi_endproc
 181              	.LFE1:
 182              		.size	App_OS_ClrAllHooks, .-App_OS_ClrAllHooks
 183              		.section	.text.App_OS_TaskCreateHook,"ax",%progbits
 184              		.align	2
 185              		.global	App_OS_TaskCreateHook
 186              		.thumb
 187              		.thumb_func
 188              		.type	App_OS_TaskCreateHook, %function
 189              	App_OS_TaskCreateHook:
 190              	.LFB2:
  95:..\os_app_hooks.c **** 
ARM GAS  C:\Users\alex\AppData\Local\Temp\ccuGNGzp.s 			page 6


  96:..\os_app_hooks.c **** /*$PAGE*/
  97:..\os_app_hooks.c **** /*
  98:..\os_app_hooks.c **** ***************************************************************************************************
  99:..\os_app_hooks.c **** *                                            APPLICATION TASK CREATION HOOK
 100:..\os_app_hooks.c **** *
 101:..\os_app_hooks.c **** * Description: This function is called when a task is created.
 102:..\os_app_hooks.c **** *
 103:..\os_app_hooks.c **** * Arguments  : p_tcb   is a pointer to the task control block of the task being created.
 104:..\os_app_hooks.c **** *
 105:..\os_app_hooks.c **** * Note(s)    : none
 106:..\os_app_hooks.c **** ***************************************************************************************************
 107:..\os_app_hooks.c **** */
 108:..\os_app_hooks.c **** 
 109:..\os_app_hooks.c **** void  App_OS_TaskCreateHook (OS_TCB  *p_tcb)
 110:..\os_app_hooks.c **** {
 191              		.loc 1 110 0
 192              		.cfi_startproc
 193              		@ args = 0, pretend = 0, frame = 8
 194              		@ frame_needed = 1, uses_anonymous_args = 0
 195              		@ link register save eliminated.
 196 0000 80B4     		push	{r7}
 197              		.cfi_def_cfa_offset 4
 198              		.cfi_offset 7, -4
 199 0002 83B0     		sub	sp, sp, #12
 200              		.cfi_def_cfa_offset 16
 201 0004 00AF     		add	r7, sp, #0
 202              		.cfi_def_cfa_register 7
 203 0006 7860     		str	r0, [r7, #4]
 111:..\os_app_hooks.c ****     (void)&p_tcb;
 112:..\os_app_hooks.c **** }
 204              		.loc 1 112 0
 205 0008 00BF     		nop
 206 000a 0C37     		adds	r7, r7, #12
 207              		.cfi_def_cfa_offset 4
 208 000c BD46     		mov	sp, r7
 209              		.cfi_def_cfa_register 13
 210              		@ sp needed
 211 000e 80BC     		pop	{r7}
 212              		.cfi_restore 7
 213              		.cfi_def_cfa_offset 0
 214 0010 7047     		bx	lr
 215              		.cfi_endproc
 216              	.LFE2:
 217              		.size	App_OS_TaskCreateHook, .-App_OS_TaskCreateHook
 218 0012 00BF     		.section	.text.App_OS_TaskDelHook,"ax",%progbits
 219              		.align	2
 220              		.global	App_OS_TaskDelHook
 221              		.thumb
 222              		.thumb_func
 223              		.type	App_OS_TaskDelHook, %function
 224              	App_OS_TaskDelHook:
 225              	.LFB3:
 113:..\os_app_hooks.c **** 
 114:..\os_app_hooks.c **** /*$PAGE*/
 115:..\os_app_hooks.c **** /*
 116:..\os_app_hooks.c **** ***************************************************************************************************
 117:..\os_app_hooks.c **** *                                            APPLICATION TASK DELETION HOOK
ARM GAS  C:\Users\alex\AppData\Local\Temp\ccuGNGzp.s 			page 7


 118:..\os_app_hooks.c **** *
 119:..\os_app_hooks.c **** * Description: This function is called when a task is deleted.
 120:..\os_app_hooks.c **** *
 121:..\os_app_hooks.c **** * Arguments  : p_tcb   is a pointer to the task control block of the task being deleted.
 122:..\os_app_hooks.c **** *
 123:..\os_app_hooks.c **** * Note(s)    : none
 124:..\os_app_hooks.c **** ***************************************************************************************************
 125:..\os_app_hooks.c **** */
 126:..\os_app_hooks.c **** 
 127:..\os_app_hooks.c **** void  App_OS_TaskDelHook (OS_TCB  *p_tcb)
 128:..\os_app_hooks.c **** {
 226              		.loc 1 128 0
 227              		.cfi_startproc
 228              		@ args = 0, pretend = 0, frame = 8
 229              		@ frame_needed = 1, uses_anonymous_args = 0
 230              		@ link register save eliminated.
 231 0000 80B4     		push	{r7}
 232              		.cfi_def_cfa_offset 4
 233              		.cfi_offset 7, -4
 234 0002 83B0     		sub	sp, sp, #12
 235              		.cfi_def_cfa_offset 16
 236 0004 00AF     		add	r7, sp, #0
 237              		.cfi_def_cfa_register 7
 238 0006 7860     		str	r0, [r7, #4]
 129:..\os_app_hooks.c ****     (void)&p_tcb;
 130:..\os_app_hooks.c **** }
 239              		.loc 1 130 0
 240 0008 00BF     		nop
 241 000a 0C37     		adds	r7, r7, #12
 242              		.cfi_def_cfa_offset 4
 243 000c BD46     		mov	sp, r7
 244              		.cfi_def_cfa_register 13
 245              		@ sp needed
 246 000e 80BC     		pop	{r7}
 247              		.cfi_restore 7
 248              		.cfi_def_cfa_offset 0
 249 0010 7047     		bx	lr
 250              		.cfi_endproc
 251              	.LFE3:
 252              		.size	App_OS_TaskDelHook, .-App_OS_TaskDelHook
 253 0012 00BF     		.section	.text.App_OS_TaskReturnHook,"ax",%progbits
 254              		.align	2
 255              		.global	App_OS_TaskReturnHook
 256              		.thumb
 257              		.thumb_func
 258              		.type	App_OS_TaskReturnHook, %function
 259              	App_OS_TaskReturnHook:
 260              	.LFB4:
 131:..\os_app_hooks.c **** 
 132:..\os_app_hooks.c **** /*$PAGE*/
 133:..\os_app_hooks.c **** /*
 134:..\os_app_hooks.c **** ***************************************************************************************************
 135:..\os_app_hooks.c **** *                                             APPLICATION TASK RETURN HOOK
 136:..\os_app_hooks.c **** *
 137:..\os_app_hooks.c **** * Description: This function is called if a task accidentally returns.  In other words, a task shou
 138:..\os_app_hooks.c **** *              infinite loop or delete itself when done.
 139:..\os_app_hooks.c **** *
ARM GAS  C:\Users\alex\AppData\Local\Temp\ccuGNGzp.s 			page 8


 140:..\os_app_hooks.c **** * Arguments  : p_tcb     is a pointer to the OS_TCB of the task that is returning.
 141:..\os_app_hooks.c **** *
 142:..\os_app_hooks.c **** * Note(s)    : none
 143:..\os_app_hooks.c **** ***************************************************************************************************
 144:..\os_app_hooks.c **** */
 145:..\os_app_hooks.c **** 
 146:..\os_app_hooks.c **** void  App_OS_TaskReturnHook (OS_TCB  *p_tcb)
 147:..\os_app_hooks.c **** {
 261              		.loc 1 147 0
 262              		.cfi_startproc
 263              		@ args = 0, pretend = 0, frame = 8
 264              		@ frame_needed = 1, uses_anonymous_args = 0
 265              		@ link register save eliminated.
 266 0000 80B4     		push	{r7}
 267              		.cfi_def_cfa_offset 4
 268              		.cfi_offset 7, -4
 269 0002 83B0     		sub	sp, sp, #12
 270              		.cfi_def_cfa_offset 16
 271 0004 00AF     		add	r7, sp, #0
 272              		.cfi_def_cfa_register 7
 273 0006 7860     		str	r0, [r7, #4]
 148:..\os_app_hooks.c ****     (void)&p_tcb;
 149:..\os_app_hooks.c **** }
 274              		.loc 1 149 0
 275 0008 00BF     		nop
 276 000a 0C37     		adds	r7, r7, #12
 277              		.cfi_def_cfa_offset 4
 278 000c BD46     		mov	sp, r7
 279              		.cfi_def_cfa_register 13
 280              		@ sp needed
 281 000e 80BC     		pop	{r7}
 282              		.cfi_restore 7
 283              		.cfi_def_cfa_offset 0
 284 0010 7047     		bx	lr
 285              		.cfi_endproc
 286              	.LFE4:
 287              		.size	App_OS_TaskReturnHook, .-App_OS_TaskReturnHook
 288 0012 00BF     		.section	.text.App_OS_IdleTaskHook,"ax",%progbits
 289              		.align	2
 290              		.global	App_OS_IdleTaskHook
 291              		.thumb
 292              		.thumb_func
 293              		.type	App_OS_IdleTaskHook, %function
 294              	App_OS_IdleTaskHook:
 295              	.LFB5:
 150:..\os_app_hooks.c **** 
 151:..\os_app_hooks.c **** /*$PAGE*/
 152:..\os_app_hooks.c **** /*
 153:..\os_app_hooks.c **** ***************************************************************************************************
 154:..\os_app_hooks.c **** *                                              APPLICATION IDLE TASK HOOK
 155:..\os_app_hooks.c **** *
 156:..\os_app_hooks.c **** * Description: This function is called by the idle task.  This hook has been added to allow you to 
 157:..\os_app_hooks.c **** *              STOP the CPU to conserve power.
 158:..\os_app_hooks.c **** *
 159:..\os_app_hooks.c **** * Arguments  : none
 160:..\os_app_hooks.c **** *
 161:..\os_app_hooks.c **** * Note(s)    : none
ARM GAS  C:\Users\alex\AppData\Local\Temp\ccuGNGzp.s 			page 9


 162:..\os_app_hooks.c **** ***************************************************************************************************
 163:..\os_app_hooks.c **** */
 164:..\os_app_hooks.c **** 
 165:..\os_app_hooks.c **** void  App_OS_IdleTaskHook (void)
 166:..\os_app_hooks.c **** {
 296              		.loc 1 166 0
 297              		.cfi_startproc
 298              		@ args = 0, pretend = 0, frame = 0
 299              		@ frame_needed = 1, uses_anonymous_args = 0
 300              		@ link register save eliminated.
 301 0000 80B4     		push	{r7}
 302              		.cfi_def_cfa_offset 4
 303              		.cfi_offset 7, -4
 304 0002 00AF     		add	r7, sp, #0
 305              		.cfi_def_cfa_register 7
 167:..\os_app_hooks.c **** 
 168:..\os_app_hooks.c **** }
 306              		.loc 1 168 0
 307 0004 00BF     		nop
 308 0006 BD46     		mov	sp, r7
 309              		.cfi_def_cfa_register 13
 310              		@ sp needed
 311 0008 80BC     		pop	{r7}
 312              		.cfi_restore 7
 313              		.cfi_def_cfa_offset 0
 314 000a 7047     		bx	lr
 315              		.cfi_endproc
 316              	.LFE5:
 317              		.size	App_OS_IdleTaskHook, .-App_OS_IdleTaskHook
 318              		.section	.text.App_OS_InitHook,"ax",%progbits
 319              		.align	2
 320              		.global	App_OS_InitHook
 321              		.thumb
 322              		.thumb_func
 323              		.type	App_OS_InitHook, %function
 324              	App_OS_InitHook:
 325              	.LFB6:
 169:..\os_app_hooks.c **** 
 170:..\os_app_hooks.c **** /*$PAGE*/
 171:..\os_app_hooks.c **** /*
 172:..\os_app_hooks.c **** ***************************************************************************************************
 173:..\os_app_hooks.c **** *                                          APPLICATION OS INITIALIZATION HOOK
 174:..\os_app_hooks.c **** *
 175:..\os_app_hooks.c **** * Description: This function is called by OSInit() at the beginning of OSInit().
 176:..\os_app_hooks.c **** *
 177:..\os_app_hooks.c **** * Arguments  : none
 178:..\os_app_hooks.c **** *
 179:..\os_app_hooks.c **** * Note(s)    : none
 180:..\os_app_hooks.c **** ***************************************************************************************************
 181:..\os_app_hooks.c **** */
 182:..\os_app_hooks.c **** 
 183:..\os_app_hooks.c **** void  App_OS_InitHook (void)
 184:..\os_app_hooks.c **** {
 326              		.loc 1 184 0
 327              		.cfi_startproc
 328              		@ args = 0, pretend = 0, frame = 0
 329              		@ frame_needed = 1, uses_anonymous_args = 0
ARM GAS  C:\Users\alex\AppData\Local\Temp\ccuGNGzp.s 			page 10


 330              		@ link register save eliminated.
 331 0000 80B4     		push	{r7}
 332              		.cfi_def_cfa_offset 4
 333              		.cfi_offset 7, -4
 334 0002 00AF     		add	r7, sp, #0
 335              		.cfi_def_cfa_register 7
 185:..\os_app_hooks.c **** 
 186:..\os_app_hooks.c **** }
 336              		.loc 1 186 0
 337 0004 00BF     		nop
 338 0006 BD46     		mov	sp, r7
 339              		.cfi_def_cfa_register 13
 340              		@ sp needed
 341 0008 80BC     		pop	{r7}
 342              		.cfi_restore 7
 343              		.cfi_def_cfa_offset 0
 344 000a 7047     		bx	lr
 345              		.cfi_endproc
 346              	.LFE6:
 347              		.size	App_OS_InitHook, .-App_OS_InitHook
 348              		.section	.text.App_OS_StatTaskHook,"ax",%progbits
 349              		.align	2
 350              		.global	App_OS_StatTaskHook
 351              		.thumb
 352              		.thumb_func
 353              		.type	App_OS_StatTaskHook, %function
 354              	App_OS_StatTaskHook:
 355              	.LFB7:
 187:..\os_app_hooks.c **** 
 188:..\os_app_hooks.c **** /*$PAGE*/
 189:..\os_app_hooks.c **** /*
 190:..\os_app_hooks.c **** ***************************************************************************************************
 191:..\os_app_hooks.c **** *                                           APPLICATION STATISTIC TASK HOOK
 192:..\os_app_hooks.c **** *
 193:..\os_app_hooks.c **** * Description: This function is called every second by uC/OS-III's statistics task.  This allows yo
 194:..\os_app_hooks.c **** *              functionality to the statistics task.
 195:..\os_app_hooks.c **** *
 196:..\os_app_hooks.c **** * Arguments  : none
 197:..\os_app_hooks.c **** *
 198:..\os_app_hooks.c **** * Note(s)    : none
 199:..\os_app_hooks.c **** ***************************************************************************************************
 200:..\os_app_hooks.c **** */
 201:..\os_app_hooks.c **** 
 202:..\os_app_hooks.c **** void  App_OS_StatTaskHook (void)
 203:..\os_app_hooks.c **** {
 356              		.loc 1 203 0
 357              		.cfi_startproc
 358              		@ args = 0, pretend = 0, frame = 0
 359              		@ frame_needed = 1, uses_anonymous_args = 0
 360              		@ link register save eliminated.
 361 0000 80B4     		push	{r7}
 362              		.cfi_def_cfa_offset 4
 363              		.cfi_offset 7, -4
 364 0002 00AF     		add	r7, sp, #0
 365              		.cfi_def_cfa_register 7
 204:..\os_app_hooks.c **** 
 205:..\os_app_hooks.c **** }
ARM GAS  C:\Users\alex\AppData\Local\Temp\ccuGNGzp.s 			page 11


 366              		.loc 1 205 0
 367 0004 00BF     		nop
 368 0006 BD46     		mov	sp, r7
 369              		.cfi_def_cfa_register 13
 370              		@ sp needed
 371 0008 80BC     		pop	{r7}
 372              		.cfi_restore 7
 373              		.cfi_def_cfa_offset 0
 374 000a 7047     		bx	lr
 375              		.cfi_endproc
 376              	.LFE7:
 377              		.size	App_OS_StatTaskHook, .-App_OS_StatTaskHook
 378              		.section	.text.App_OS_TaskSwHook,"ax",%progbits
 379              		.align	2
 380              		.global	App_OS_TaskSwHook
 381              		.thumb
 382              		.thumb_func
 383              		.type	App_OS_TaskSwHook, %function
 384              	App_OS_TaskSwHook:
 385              	.LFB8:
 206:..\os_app_hooks.c **** 
 207:..\os_app_hooks.c **** /*$PAGE*/
 208:..\os_app_hooks.c **** /*
 209:..\os_app_hooks.c **** ***************************************************************************************************
 210:..\os_app_hooks.c **** *                                             APPLICATION TASK SWITCH HOOK
 211:..\os_app_hooks.c **** *
 212:..\os_app_hooks.c **** * Description: This function is called when a task switch is performed.  This allows you to perform
 213:..\os_app_hooks.c **** *              during a context switch.
 214:..\os_app_hooks.c **** *
 215:..\os_app_hooks.c **** * Arguments  : none
 216:..\os_app_hooks.c **** *
 217:..\os_app_hooks.c **** * Note(s)    : 1) Interrupts are disabled during this call.
 218:..\os_app_hooks.c **** *              2) It is assumed that the global pointer 'OSTCBHighRdyPtr' points to the TCB of the 
 219:..\os_app_hooks.c **** *                 'switched in' (i.e. the highest priority task) and, 'OSTCBCurPtr' points to the t
 220:..\os_app_hooks.c **** *                 (i.e. the preempted task).
 221:..\os_app_hooks.c **** ***************************************************************************************************
 222:..\os_app_hooks.c **** */
 223:..\os_app_hooks.c **** 
 224:..\os_app_hooks.c **** void  App_OS_TaskSwHook (void)
 225:..\os_app_hooks.c **** {
 386              		.loc 1 225 0
 387              		.cfi_startproc
 388              		@ args = 0, pretend = 0, frame = 0
 389              		@ frame_needed = 1, uses_anonymous_args = 0
 390              		@ link register save eliminated.
 391 0000 80B4     		push	{r7}
 392              		.cfi_def_cfa_offset 4
 393              		.cfi_offset 7, -4
 394 0002 00AF     		add	r7, sp, #0
 395              		.cfi_def_cfa_register 7
 226:..\os_app_hooks.c **** 
 227:..\os_app_hooks.c **** }
 396              		.loc 1 227 0
 397 0004 00BF     		nop
 398 0006 BD46     		mov	sp, r7
 399              		.cfi_def_cfa_register 13
 400              		@ sp needed
ARM GAS  C:\Users\alex\AppData\Local\Temp\ccuGNGzp.s 			page 12


 401 0008 80BC     		pop	{r7}
 402              		.cfi_restore 7
 403              		.cfi_def_cfa_offset 0
 404 000a 7047     		bx	lr
 405              		.cfi_endproc
 406              	.LFE8:
 407              		.size	App_OS_TaskSwHook, .-App_OS_TaskSwHook
 408              		.section	.text.App_OS_TimeTickHook,"ax",%progbits
 409              		.align	2
 410              		.global	App_OS_TimeTickHook
 411              		.thumb
 412              		.thumb_func
 413              		.type	App_OS_TimeTickHook, %function
 414              	App_OS_TimeTickHook:
 415              	.LFB9:
 228:..\os_app_hooks.c **** 
 229:..\os_app_hooks.c **** /*$PAGE*/
 230:..\os_app_hooks.c **** /*
 231:..\os_app_hooks.c **** ***************************************************************************************************
 232:..\os_app_hooks.c **** *                                                APPLICATION TICK HOOK
 233:..\os_app_hooks.c **** *
 234:..\os_app_hooks.c **** * Description: This function is called every tick.
 235:..\os_app_hooks.c **** *
 236:..\os_app_hooks.c **** * Arguments  : none
 237:..\os_app_hooks.c **** *
 238:..\os_app_hooks.c **** * Note(s)    : 1) This function is assumed to be called from the Tick ISR.
 239:..\os_app_hooks.c **** ***************************************************************************************************
 240:..\os_app_hooks.c **** */
 241:..\os_app_hooks.c **** 
 242:..\os_app_hooks.c **** void  App_OS_TimeTickHook (void)
 243:..\os_app_hooks.c **** {
 416              		.loc 1 243 0
 417              		.cfi_startproc
 418              		@ args = 0, pretend = 0, frame = 0
 419              		@ frame_needed = 1, uses_anonymous_args = 0
 420              		@ link register save eliminated.
 421 0000 80B4     		push	{r7}
 422              		.cfi_def_cfa_offset 4
 423              		.cfi_offset 7, -4
 424 0002 00AF     		add	r7, sp, #0
 425              		.cfi_def_cfa_register 7
 244:..\os_app_hooks.c **** 
 245:..\os_app_hooks.c **** }
 426              		.loc 1 245 0
 427 0004 00BF     		nop
 428 0006 BD46     		mov	sp, r7
 429              		.cfi_def_cfa_register 13
 430              		@ sp needed
 431 0008 80BC     		pop	{r7}
 432              		.cfi_restore 7
 433              		.cfi_def_cfa_offset 0
 434 000a 7047     		bx	lr
 435              		.cfi_endproc
 436              	.LFE9:
 437              		.size	App_OS_TimeTickHook, .-App_OS_TimeTickHook
 438              		.text
 439              	.Letext0:
ARM GAS  C:\Users\alex\AppData\Local\Temp\ccuGNGzp.s 			page 13


 440              		.file 2 "..\\..\\..\\..\\..\\..\\uC-CPU\\ARM-Cortex-M3\\GNU/cpu.h"
 441              		.file 3 "..\\..\\..\\..\\..\\..\\uC-CPU/cpu_core.h"
 442              		.file 4 "..\\..\\..\\..\\..\\..\\uCOS-III\\Source/os_type.h"
 443              		.file 5 "..\\..\\..\\..\\..\\..\\uCOS-III\\Source/os.h"