ARM GAS  C:\Users\alex\AppData\Local\Temp\ccZDE7Za.s 			page 1


   1              		.syntax unified
   2              		.cpu cortex-m3
   3              		.fpu softvfp
   4              		.eabi_attribute 20, 1
   5              		.eabi_attribute 21, 1
   6              		.eabi_attribute 23, 3
   7              		.eabi_attribute 24, 1
   8              		.eabi_attribute 25, 1
   9              		.eabi_attribute 26, 1
  10              		.eabi_attribute 30, 6
  11              		.eabi_attribute 34, 1
  12              		.eabi_attribute 18, 4
  13              		.thumb
  14              		.syntax unified
  15              		.file	"os_mem.c"
  16              		.text
  17              	.Ltext0:
  18              		.cfi_sections	.debug_frame
  19              		.section	.text.OSMemCreate,"ax",%progbits
  20              		.align	2
  21              		.global	OSMemCreate
  22              		.thumb
  23              		.thumb_func
  24              		.type	OSMemCreate, %function
  25              	OSMemCreate:
  26              	.LFB0:
  27              		.file 1 "..\\..\\..\\..\\..\\..\\uCOS-III\\Source\\os_mem.c"
   1:..\..\..\..\..\..\uCOS-III\Source/os_mem.c **** /*
   2:..\..\..\..\..\..\uCOS-III\Source/os_mem.c **** ***************************************************************************************************
   3:..\..\..\..\..\..\uCOS-III\Source/os_mem.c **** *                                                      uC/OS-III
   4:..\..\..\..\..\..\uCOS-III\Source/os_mem.c **** *                                                 The Real-Time Kernel
   5:..\..\..\..\..\..\uCOS-III\Source/os_mem.c **** *
   6:..\..\..\..\..\..\uCOS-III\Source/os_mem.c **** *                                  (c) Copyright 2009-2012; Micrium, Inc.; Weston, FL
   7:..\..\..\..\..\..\uCOS-III\Source/os_mem.c **** *                           All rights reserved.  Protected by international copyright laws.
   8:..\..\..\..\..\..\uCOS-III\Source/os_mem.c **** *
   9:..\..\..\..\..\..\uCOS-III\Source/os_mem.c **** *                                             MEMORY PARTITION MANAGEMENT
  10:..\..\..\..\..\..\uCOS-III\Source/os_mem.c **** *
  11:..\..\..\..\..\..\uCOS-III\Source/os_mem.c **** * File    : OS_MEM.C
  12:..\..\..\..\..\..\uCOS-III\Source/os_mem.c **** * By      : JJL
  13:..\..\..\..\..\..\uCOS-III\Source/os_mem.c **** * Version : V3.03.01
  14:..\..\..\..\..\..\uCOS-III\Source/os_mem.c **** *
  15:..\..\..\..\..\..\uCOS-III\Source/os_mem.c **** * LICENSING TERMS:
  16:..\..\..\..\..\..\uCOS-III\Source/os_mem.c **** * ---------------
  17:..\..\..\..\..\..\uCOS-III\Source/os_mem.c **** *           uC/OS-III is provided in source form for FREE short-term evaluation, for educational us
  18:..\..\..\..\..\..\uCOS-III\Source/os_mem.c **** *           for peaceful research.  If you plan or intend to use uC/OS-III in a commercial applicat
  19:..\..\..\..\..\..\uCOS-III\Source/os_mem.c **** *           product then, you need to contact Micrium to properly license uC/OS-III for its use in 
  20:..\..\..\..\..\..\uCOS-III\Source/os_mem.c **** *           application/product.   We provide ALL the source code for your convenience and to help 
  21:..\..\..\..\..\..\uCOS-III\Source/os_mem.c **** *           experience uC/OS-III.  The fact that the source is provided does NOT mean that you can 
  22:..\..\..\..\..\..\uCOS-III\Source/os_mem.c **** *           it commercially without paying a licensing fee.
  23:..\..\..\..\..\..\uCOS-III\Source/os_mem.c **** *
  24:..\..\..\..\..\..\uCOS-III\Source/os_mem.c **** *           Knowledge of the source code may NOT be used to develop a similar product.
  25:..\..\..\..\..\..\uCOS-III\Source/os_mem.c **** *
  26:..\..\..\..\..\..\uCOS-III\Source/os_mem.c **** *           Please help us continue to provide the embedded community with the finest software avai
  27:..\..\..\..\..\..\uCOS-III\Source/os_mem.c **** *           Your honesty is greatly appreciated.
  28:..\..\..\..\..\..\uCOS-III\Source/os_mem.c **** *
  29:..\..\..\..\..\..\uCOS-III\Source/os_mem.c **** *           You can contact us at www.micrium.com, or by phone at +1 (954) 217-2036.
  30:..\..\..\..\..\..\uCOS-III\Source/os_mem.c **** ***************************************************************************************************
ARM GAS  C:\Users\alex\AppData\Local\Temp\ccZDE7Za.s 			page 2


  31:..\..\..\..\..\..\uCOS-III\Source/os_mem.c **** */
  32:..\..\..\..\..\..\uCOS-III\Source/os_mem.c **** 
  33:..\..\..\..\..\..\uCOS-III\Source/os_mem.c **** #define   MICRIUM_SOURCE
  34:..\..\..\..\..\..\uCOS-III\Source/os_mem.c **** #include  <os.h>
  35:..\..\..\..\..\..\uCOS-III\Source/os_mem.c **** 
  36:..\..\..\..\..\..\uCOS-III\Source/os_mem.c **** #ifdef VSC_INCLUDE_SOURCE_FILE_NAMES
  37:..\..\..\..\..\..\uCOS-III\Source/os_mem.c **** const  CPU_CHAR  *os_mem__c = "$Id: $";
  38:..\..\..\..\..\..\uCOS-III\Source/os_mem.c **** #endif
  39:..\..\..\..\..\..\uCOS-III\Source/os_mem.c **** 
  40:..\..\..\..\..\..\uCOS-III\Source/os_mem.c **** 
  41:..\..\..\..\..\..\uCOS-III\Source/os_mem.c **** #if OS_CFG_MEM_EN > 0u
  42:..\..\..\..\..\..\uCOS-III\Source/os_mem.c **** /*
  43:..\..\..\..\..\..\uCOS-III\Source/os_mem.c **** ***************************************************************************************************
  44:..\..\..\..\..\..\uCOS-III\Source/os_mem.c **** *                                               CREATE A MEMORY PARTITION
  45:..\..\..\..\..\..\uCOS-III\Source/os_mem.c **** *
  46:..\..\..\..\..\..\uCOS-III\Source/os_mem.c **** * Description : Create a fixed-sized memory partition that will be managed by uC/OS-III.
  47:..\..\..\..\..\..\uCOS-III\Source/os_mem.c **** *
  48:..\..\..\..\..\..\uCOS-III\Source/os_mem.c **** * Arguments   : p_mem    is a pointer to a memory partition control block which is allocated in use
  49:..\..\..\..\..\..\uCOS-III\Source/os_mem.c **** *
  50:..\..\..\..\..\..\uCOS-III\Source/os_mem.c **** *               p_name   is a pointer to an ASCII string to provide a name to the memory partition.
  51:..\..\..\..\..\..\uCOS-III\Source/os_mem.c **** *
  52:..\..\..\..\..\..\uCOS-III\Source/os_mem.c **** *               p_addr   is the starting address of the memory partition
  53:..\..\..\..\..\..\uCOS-III\Source/os_mem.c **** *
  54:..\..\..\..\..\..\uCOS-III\Source/os_mem.c **** *               n_blks   is the number of memory blocks to create from the partition.
  55:..\..\..\..\..\..\uCOS-III\Source/os_mem.c **** *
  56:..\..\..\..\..\..\uCOS-III\Source/os_mem.c **** *               blk_size is the size (in bytes) of each block in the memory partition.
  57:..\..\..\..\..\..\uCOS-III\Source/os_mem.c **** *
  58:..\..\..\..\..\..\uCOS-III\Source/os_mem.c **** *               p_err    is a pointer to a variable containing an error message which will be set b
  59:..\..\..\..\..\..\uCOS-III\Source/os_mem.c **** *                        either:
  60:..\..\..\..\..\..\uCOS-III\Source/os_mem.c **** *
  61:..\..\..\..\..\..\uCOS-III\Source/os_mem.c **** *                            OS_ERR_NONE                    if the memory partition has been create
  62:..\..\..\..\..\..\uCOS-III\Source/os_mem.c **** *                            OS_ERR_ILLEGAL_CREATE_RUN_TIME if you are trying to create the memory 
  63:..\..\..\..\..\..\uCOS-III\Source/os_mem.c **** *                                                             called OSSafetyCriticalStart().
  64:..\..\..\..\..\..\uCOS-III\Source/os_mem.c **** *                            OS_ERR_MEM_INVALID_BLKS        user specified an invalid number of blo
  65:..\..\..\..\..\..\uCOS-III\Source/os_mem.c **** *                            OS_ERR_MEM_INVALID_P_ADDR      if you are specifying an invalid addres
  66:..\..\..\..\..\..\uCOS-III\Source/os_mem.c **** *                                                           storage of the partition or, the block 
  67:..\..\..\..\..\..\uCOS-III\Source/os_mem.c **** *                                                           pointer boundary
  68:..\..\..\..\..\..\uCOS-III\Source/os_mem.c **** *                            OS_ERR_MEM_INVALID_SIZE        user specified an invalid block size
  69:..\..\..\..\..\..\uCOS-III\Source/os_mem.c **** *                                                             - must be greater than the size of a 
  70:..\..\..\..\..\..\uCOS-III\Source/os_mem.c **** *                                                             - must be able to hold an integral nu
  71:..\..\..\..\..\..\uCOS-III\Source/os_mem.c **** * Returns    : none
  72:..\..\..\..\..\..\uCOS-III\Source/os_mem.c **** ***************************************************************************************************
  73:..\..\..\..\..\..\uCOS-III\Source/os_mem.c **** */
  74:..\..\..\..\..\..\uCOS-III\Source/os_mem.c **** 
  75:..\..\..\..\..\..\uCOS-III\Source/os_mem.c **** void  OSMemCreate (OS_MEM       *p_mem,
  76:..\..\..\..\..\..\uCOS-III\Source/os_mem.c ****                    CPU_CHAR     *p_name,
  77:..\..\..\..\..\..\uCOS-III\Source/os_mem.c ****                    void         *p_addr,
  78:..\..\..\..\..\..\uCOS-III\Source/os_mem.c ****                    OS_MEM_QTY    n_blks,
  79:..\..\..\..\..\..\uCOS-III\Source/os_mem.c ****                    OS_MEM_SIZE   blk_size,
  80:..\..\..\..\..\..\uCOS-III\Source/os_mem.c ****                    OS_ERR       *p_err)
  81:..\..\..\..\..\..\uCOS-III\Source/os_mem.c **** {
  28              		.loc 1 81 0
  29              		.cfi_startproc
  30              		@ args = 8, pretend = 0, frame = 40
  31              		@ frame_needed = 1, uses_anonymous_args = 0
  32 0000 80B5     		push	{r7, lr}
  33              		.cfi_def_cfa_offset 8
ARM GAS  C:\Users\alex\AppData\Local\Temp\ccZDE7Za.s 			page 3


  34              		.cfi_offset 7, -8
  35              		.cfi_offset 14, -4
  36 0002 8AB0     		sub	sp, sp, #40
  37              		.cfi_def_cfa_offset 48
  38 0004 00AF     		add	r7, sp, #0
  39              		.cfi_def_cfa_register 7
  40 0006 F860     		str	r0, [r7, #12]
  41 0008 B960     		str	r1, [r7, #8]
  42 000a 7A60     		str	r2, [r7, #4]
  43 000c 7B80     		strh	r3, [r7, #2]	@ movhi
  82:..\..\..\..\..\..\uCOS-III\Source/os_mem.c **** #if OS_CFG_ARG_CHK_EN > 0u
  83:..\..\..\..\..\..\uCOS-III\Source/os_mem.c ****     CPU_DATA       align_msk;
  84:..\..\..\..\..\..\uCOS-III\Source/os_mem.c **** #endif
  85:..\..\..\..\..\..\uCOS-III\Source/os_mem.c ****     OS_MEM_QTY     i;
  86:..\..\..\..\..\..\uCOS-III\Source/os_mem.c ****     OS_MEM_QTY     loops;
  87:..\..\..\..\..\..\uCOS-III\Source/os_mem.c ****     CPU_INT08U    *p_blk;
  88:..\..\..\..\..\..\uCOS-III\Source/os_mem.c ****     void         **p_link;
  89:..\..\..\..\..\..\uCOS-III\Source/os_mem.c ****     CPU_SR_ALLOC();
  44              		.loc 1 89 0
  45 000e 0023     		movs	r3, #0
  46 0010 BB61     		str	r3, [r7, #24]
  90:..\..\..\..\..\..\uCOS-III\Source/os_mem.c **** 
  91:..\..\..\..\..\..\uCOS-III\Source/os_mem.c **** 
  92:..\..\..\..\..\..\uCOS-III\Source/os_mem.c **** 
  93:..\..\..\..\..\..\uCOS-III\Source/os_mem.c **** #ifdef OS_SAFETY_CRITICAL
  94:..\..\..\..\..\..\uCOS-III\Source/os_mem.c ****     if (p_err == (OS_ERR *)0) {
  95:..\..\..\..\..\..\uCOS-III\Source/os_mem.c ****         OS_SAFETY_CRITICAL_EXCEPTION();
  96:..\..\..\..\..\..\uCOS-III\Source/os_mem.c ****         return;
  97:..\..\..\..\..\..\uCOS-III\Source/os_mem.c ****     }
  98:..\..\..\..\..\..\uCOS-III\Source/os_mem.c **** #endif
  99:..\..\..\..\..\..\uCOS-III\Source/os_mem.c **** 
 100:..\..\..\..\..\..\uCOS-III\Source/os_mem.c **** #ifdef OS_SAFETY_CRITICAL_IEC61508
 101:..\..\..\..\..\..\uCOS-III\Source/os_mem.c ****     if (OSSafetyCriticalStartFlag == DEF_TRUE) {
 102:..\..\..\..\..\..\uCOS-III\Source/os_mem.c ****        *p_err = OS_ERR_ILLEGAL_CREATE_RUN_TIME;
 103:..\..\..\..\..\..\uCOS-III\Source/os_mem.c ****         return;
 104:..\..\..\..\..\..\uCOS-III\Source/os_mem.c ****     }
 105:..\..\..\..\..\..\uCOS-III\Source/os_mem.c **** #endif
 106:..\..\..\..\..\..\uCOS-III\Source/os_mem.c **** 
 107:..\..\..\..\..\..\uCOS-III\Source/os_mem.c **** #if OS_CFG_CALLED_FROM_ISR_CHK_EN > 0u
 108:..\..\..\..\..\..\uCOS-III\Source/os_mem.c ****     if (OSIntNestingCtr > (OS_NESTING_CTR)0) {              /* Not allowed to call from an ISR     
  47              		.loc 1 108 0
  48 0012 404B     		ldr	r3, .L11
  49 0014 1B78     		ldrb	r3, [r3]	@ zero_extendqisi2
  50 0016 002B     		cmp	r3, #0
  51 0018 04D0     		beq	.L2
 109:..\..\..\..\..\..\uCOS-III\Source/os_mem.c ****        *p_err = OS_ERR_MEM_CREATE_ISR;
  52              		.loc 1 109 0
  53 001a 7B6B     		ldr	r3, [r7, #52]
  54 001c 45F2B962 		movw	r2, #22201
  55 0020 1A80     		strh	r2, [r3]	@ movhi
 110:..\..\..\..\..\..\uCOS-III\Source/os_mem.c ****         return;
  56              		.loc 1 110 0
  57 0022 74E0     		b	.L1
  58              	.L2:
 111:..\..\..\..\..\..\uCOS-III\Source/os_mem.c ****     }
 112:..\..\..\..\..\..\uCOS-III\Source/os_mem.c **** #endif
 113:..\..\..\..\..\..\uCOS-III\Source/os_mem.c **** 
ARM GAS  C:\Users\alex\AppData\Local\Temp\ccZDE7Za.s 			page 4


 114:..\..\..\..\..\..\uCOS-III\Source/os_mem.c **** #if OS_CFG_ARG_CHK_EN > 0u
 115:..\..\..\..\..\..\uCOS-III\Source/os_mem.c ****     if (p_addr == (void *)0) {                              /* Must pass a valid address for the me
  59              		.loc 1 115 0
  60 0024 7B68     		ldr	r3, [r7, #4]
  61 0026 002B     		cmp	r3, #0
  62 0028 04D1     		bne	.L4
 116:..\..\..\..\..\..\uCOS-III\Source/os_mem.c ****        *p_err   = OS_ERR_MEM_INVALID_P_ADDR;
  63              		.loc 1 116 0
  64 002a 7B6B     		ldr	r3, [r7, #52]
  65 002c 45F2BB62 		movw	r2, #22203
  66 0030 1A80     		strh	r2, [r3]	@ movhi
 117:..\..\..\..\..\..\uCOS-III\Source/os_mem.c ****         return;
  67              		.loc 1 117 0
  68 0032 6CE0     		b	.L1
  69              	.L4:
 118:..\..\..\..\..\..\uCOS-III\Source/os_mem.c ****     }
 119:..\..\..\..\..\..\uCOS-III\Source/os_mem.c ****     if (n_blks < (OS_MEM_QTY)2) {                           /* Must have at least 2 blocks per part
  70              		.loc 1 119 0
  71 0034 7B88     		ldrh	r3, [r7, #2]
  72 0036 012B     		cmp	r3, #1
  73 0038 04D8     		bhi	.L5
 120:..\..\..\..\..\..\uCOS-III\Source/os_mem.c ****        *p_err = OS_ERR_MEM_INVALID_BLKS;
  74              		.loc 1 120 0
  75 003a 7B6B     		ldr	r3, [r7, #52]
  76 003c 45F2BC62 		movw	r2, #22204
  77 0040 1A80     		strh	r2, [r3]	@ movhi
 121:..\..\..\..\..\..\uCOS-III\Source/os_mem.c ****         return;
  78              		.loc 1 121 0
  79 0042 64E0     		b	.L1
  80              	.L5:
 122:..\..\..\..\..\..\uCOS-III\Source/os_mem.c ****     }
 123:..\..\..\..\..\..\uCOS-III\Source/os_mem.c ****     if (blk_size < sizeof(void *)) {                        /* Must contain space for at least a po
  81              		.loc 1 123 0
  82 0044 3B8E     		ldrh	r3, [r7, #48]
  83 0046 032B     		cmp	r3, #3
  84 0048 04D8     		bhi	.L6
 124:..\..\..\..\..\..\uCOS-III\Source/os_mem.c ****        *p_err = OS_ERR_MEM_INVALID_SIZE;
  85              		.loc 1 124 0
  86 004a 7B6B     		ldr	r3, [r7, #52]
  87 004c 45F2C162 		movw	r2, #22209
  88 0050 1A80     		strh	r2, [r3]	@ movhi
 125:..\..\..\..\..\..\uCOS-III\Source/os_mem.c ****         return;
  89              		.loc 1 125 0
  90 0052 5CE0     		b	.L1
  91              	.L6:
 126:..\..\..\..\..\..\uCOS-III\Source/os_mem.c ****     }
 127:..\..\..\..\..\..\uCOS-III\Source/os_mem.c ****     align_msk = sizeof(void *) - 1u;
  92              		.loc 1 127 0
  93 0054 0323     		movs	r3, #3
  94 0056 7B61     		str	r3, [r7, #20]
 128:..\..\..\..\..\..\uCOS-III\Source/os_mem.c ****     if (align_msk > 0u) {
  95              		.loc 1 128 0
  96 0058 7B69     		ldr	r3, [r7, #20]
  97 005a 002B     		cmp	r3, #0
  98 005c 13D0     		beq	.L7
 129:..\..\..\..\..\..\uCOS-III\Source/os_mem.c ****         if (((CPU_ADDR)p_addr & align_msk) != 0u){          /* Must be pointer size aligned        
  99              		.loc 1 129 0
ARM GAS  C:\Users\alex\AppData\Local\Temp\ccZDE7Za.s 			page 5


 100 005e 7A68     		ldr	r2, [r7, #4]
 101 0060 7B69     		ldr	r3, [r7, #20]
 102 0062 1340     		ands	r3, r3, r2
 103 0064 002B     		cmp	r3, #0
 104 0066 04D0     		beq	.L8
 130:..\..\..\..\..\..\uCOS-III\Source/os_mem.c ****            *p_err = OS_ERR_MEM_INVALID_P_ADDR;
 105              		.loc 1 130 0
 106 0068 7B6B     		ldr	r3, [r7, #52]
 107 006a 45F2BB62 		movw	r2, #22203
 108 006e 1A80     		strh	r2, [r3]	@ movhi
 131:..\..\..\..\..\..\uCOS-III\Source/os_mem.c ****             return;
 109              		.loc 1 131 0
 110 0070 4DE0     		b	.L1
 111              	.L8:
 132:..\..\..\..\..\..\uCOS-III\Source/os_mem.c ****         }
 133:..\..\..\..\..\..\uCOS-III\Source/os_mem.c ****         if ((blk_size & align_msk) != 0u) {                 /* Block size must be a multiple addres
 112              		.loc 1 133 0
 113 0072 3A8E     		ldrh	r2, [r7, #48]
 114 0074 7B69     		ldr	r3, [r7, #20]
 115 0076 1340     		ands	r3, r3, r2
 116 0078 002B     		cmp	r3, #0
 117 007a 04D0     		beq	.L7
 134:..\..\..\..\..\..\uCOS-III\Source/os_mem.c ****            *p_err = OS_ERR_MEM_INVALID_SIZE;
 118              		.loc 1 134 0
 119 007c 7B6B     		ldr	r3, [r7, #52]
 120 007e 45F2C162 		movw	r2, #22209
 121 0082 1A80     		strh	r2, [r3]	@ movhi
 135:..\..\..\..\..\..\uCOS-III\Source/os_mem.c ****             return;
 122              		.loc 1 135 0
 123 0084 43E0     		b	.L1
 124              	.L7:
 136:..\..\..\..\..\..\uCOS-III\Source/os_mem.c ****         }
 137:..\..\..\..\..\..\uCOS-III\Source/os_mem.c ****     }
 138:..\..\..\..\..\..\uCOS-III\Source/os_mem.c **** #endif
 139:..\..\..\..\..\..\uCOS-III\Source/os_mem.c **** 
 140:..\..\..\..\..\..\uCOS-III\Source/os_mem.c ****     p_link = (void **)p_addr;                               /* Create linked list of free memory bl
 125              		.loc 1 140 0
 126 0086 7B68     		ldr	r3, [r7, #4]
 127 0088 FB61     		str	r3, [r7, #28]
 141:..\..\..\..\..\..\uCOS-III\Source/os_mem.c ****     p_blk  = (CPU_INT08U *)p_addr;
 128              		.loc 1 141 0
 129 008a 7B68     		ldr	r3, [r7, #4]
 130 008c 3B62     		str	r3, [r7, #32]
 142:..\..\..\..\..\..\uCOS-III\Source/os_mem.c ****     loops  = n_blks - 1u;
 131              		.loc 1 142 0
 132 008e 7B88     		ldrh	r3, [r7, #2]	@ movhi
 133 0090 013B     		subs	r3, r3, #1
 134 0092 7B82     		strh	r3, [r7, #18]	@ movhi
 143:..\..\..\..\..\..\uCOS-III\Source/os_mem.c ****     for (i = 0u; i < loops; i++) {
 135              		.loc 1 143 0
 136 0094 0023     		movs	r3, #0
 137 0096 FB84     		strh	r3, [r7, #38]	@ movhi
 138 0098 0BE0     		b	.L9
 139              	.L10:
 144:..\..\..\..\..\..\uCOS-III\Source/os_mem.c ****         p_blk +=  blk_size;
 140              		.loc 1 144 0 discriminator 3
 141 009a 3B8E     		ldrh	r3, [r7, #48]
ARM GAS  C:\Users\alex\AppData\Local\Temp\ccZDE7Za.s 			page 6


 142 009c 3A6A     		ldr	r2, [r7, #32]
 143 009e 1344     		add	r3, r3, r2
 144 00a0 3B62     		str	r3, [r7, #32]
 145:..\..\..\..\..\..\uCOS-III\Source/os_mem.c ****        *p_link = (void  *)p_blk;                            /* Save pointer to NEXT block in CURREN
 145              		.loc 1 145 0 discriminator 3
 146 00a2 FB69     		ldr	r3, [r7, #28]
 147 00a4 3A6A     		ldr	r2, [r7, #32]
 148 00a6 1A60     		str	r2, [r3]
 146:..\..\..\..\..\..\uCOS-III\Source/os_mem.c ****         p_link = (void **)(void *)p_blk;                    /* Position     to NEXT block          
 149              		.loc 1 146 0 discriminator 3
 150 00a8 3B6A     		ldr	r3, [r7, #32]
 151 00aa FB61     		str	r3, [r7, #28]
 143:..\..\..\..\..\..\uCOS-III\Source/os_mem.c ****         p_blk +=  blk_size;
 152              		.loc 1 143 0 discriminator 3
 153 00ac FB8C     		ldrh	r3, [r7, #38]
 154 00ae 0133     		adds	r3, r3, #1
 155 00b0 FB84     		strh	r3, [r7, #38]	@ movhi
 156              	.L9:
 143:..\..\..\..\..\..\uCOS-III\Source/os_mem.c ****         p_blk +=  blk_size;
 157              		.loc 1 143 0 is_stmt 0 discriminator 1
 158 00b2 FA8C     		ldrh	r2, [r7, #38]
 159 00b4 7B8A     		ldrh	r3, [r7, #18]
 160 00b6 9A42     		cmp	r2, r3
 161 00b8 EFD3     		bcc	.L10
 147:..\..\..\..\..\..\uCOS-III\Source/os_mem.c ****     }
 148:..\..\..\..\..\..\uCOS-III\Source/os_mem.c ****    *p_link             = (void *)0;                         /* Last memory block points to NULL    
 162              		.loc 1 148 0 is_stmt 1
 163 00ba FB69     		ldr	r3, [r7, #28]
 164 00bc 0022     		movs	r2, #0
 165 00be 1A60     		str	r2, [r3]
 149:..\..\..\..\..\..\uCOS-III\Source/os_mem.c **** 
 150:..\..\..\..\..\..\uCOS-III\Source/os_mem.c ****     OS_CRITICAL_ENTER();
 166              		.loc 1 150 0
 167 00c0 FFF7FEFF 		bl	CPU_SR_Save
 168 00c4 B861     		str	r0, [r7, #24]
 151:..\..\..\..\..\..\uCOS-III\Source/os_mem.c ****     p_mem->Type        = OS_OBJ_TYPE_MEM;                   /* Set the type of object              
 169              		.loc 1 151 0
 170 00c6 FB68     		ldr	r3, [r7, #12]
 171 00c8 134A     		ldr	r2, .L11+4
 172 00ca 1A60     		str	r2, [r3]
 152:..\..\..\..\..\..\uCOS-III\Source/os_mem.c ****     p_mem->NamePtr     = p_name;                            /* Save name of memory partition       
 173              		.loc 1 152 0
 174 00cc FB68     		ldr	r3, [r7, #12]
 175 00ce BA68     		ldr	r2, [r7, #8]
 176 00d0 9A60     		str	r2, [r3, #8]
 153:..\..\..\..\..\..\uCOS-III\Source/os_mem.c ****     p_mem->AddrPtr     = p_addr;                            /* Store start address of memory partit
 177              		.loc 1 153 0
 178 00d2 FB68     		ldr	r3, [r7, #12]
 179 00d4 7A68     		ldr	r2, [r7, #4]
 180 00d6 5A60     		str	r2, [r3, #4]
 154:..\..\..\..\..\..\uCOS-III\Source/os_mem.c ****     p_mem->FreeListPtr = p_addr;                            /* Initialize pointer to pool of free b
 181              		.loc 1 154 0
 182 00d8 FB68     		ldr	r3, [r7, #12]
 183 00da 7A68     		ldr	r2, [r7, #4]
 184 00dc DA60     		str	r2, [r3, #12]
 155:..\..\..\..\..\..\uCOS-III\Source/os_mem.c ****     p_mem->NbrFree     = n_blks;                            /* Store number of free blocks in MCB  
 185              		.loc 1 155 0
ARM GAS  C:\Users\alex\AppData\Local\Temp\ccZDE7Za.s 			page 7


 186 00de FB68     		ldr	r3, [r7, #12]
 187 00e0 7A88     		ldrh	r2, [r7, #2]	@ movhi
 188 00e2 9A82     		strh	r2, [r3, #20]	@ movhi
 156:..\..\..\..\..\..\uCOS-III\Source/os_mem.c ****     p_mem->NbrMax      = n_blks;
 189              		.loc 1 156 0
 190 00e4 FB68     		ldr	r3, [r7, #12]
 191 00e6 7A88     		ldrh	r2, [r7, #2]	@ movhi
 192 00e8 5A82     		strh	r2, [r3, #18]	@ movhi
 157:..\..\..\..\..\..\uCOS-III\Source/os_mem.c ****     p_mem->BlkSize     = blk_size;                          /* Store block size of each memory bloc
 193              		.loc 1 157 0
 194 00ea FB68     		ldr	r3, [r7, #12]
 195 00ec 3A8E     		ldrh	r2, [r7, #48]	@ movhi
 196 00ee 1A82     		strh	r2, [r3, #16]	@ movhi
 158:..\..\..\..\..\..\uCOS-III\Source/os_mem.c **** 
 159:..\..\..\..\..\..\uCOS-III\Source/os_mem.c **** #if OS_CFG_DBG_EN > 0u
 160:..\..\..\..\..\..\uCOS-III\Source/os_mem.c ****     OS_MemDbgListAdd(p_mem);
 197              		.loc 1 160 0
 198 00f0 F868     		ldr	r0, [r7, #12]
 199 00f2 FFF7FEFF 		bl	OS_MemDbgListAdd
 161:..\..\..\..\..\..\uCOS-III\Source/os_mem.c **** #endif
 162:..\..\..\..\..\..\uCOS-III\Source/os_mem.c **** 
 163:..\..\..\..\..\..\uCOS-III\Source/os_mem.c ****     OSMemQty++;
 200              		.loc 1 163 0
 201 00f6 094B     		ldr	r3, .L11+8
 202 00f8 1B88     		ldrh	r3, [r3]
 203 00fa 0133     		adds	r3, r3, #1
 204 00fc 9AB2     		uxth	r2, r3
 205 00fe 074B     		ldr	r3, .L11+8
 206 0100 1A80     		strh	r2, [r3]	@ movhi
 164:..\..\..\..\..\..\uCOS-III\Source/os_mem.c **** 
 165:..\..\..\..\..\..\uCOS-III\Source/os_mem.c ****     OS_CRITICAL_EXIT_NO_SCHED();
 207              		.loc 1 165 0
 208 0102 B869     		ldr	r0, [r7, #24]
 209 0104 FFF7FEFF 		bl	CPU_SR_Restore
 166:..\..\..\..\..\..\uCOS-III\Source/os_mem.c ****    *p_err = OS_ERR_NONE;
 210              		.loc 1 166 0
 211 0108 7B6B     		ldr	r3, [r7, #52]
 212 010a 0022     		movs	r2, #0
 213 010c 1A80     		strh	r2, [r3]	@ movhi
 214              	.L1:
 167:..\..\..\..\..\..\uCOS-III\Source/os_mem.c **** }
 215              		.loc 1 167 0
 216 010e 2837     		adds	r7, r7, #40
 217              		.cfi_def_cfa_offset 8
 218 0110 BD46     		mov	sp, r7
 219              		.cfi_def_cfa_register 13
 220              		@ sp needed
 221 0112 80BD     		pop	{r7, pc}
 222              	.L12:
 223              		.align	2
 224              	.L11:
 225 0114 00000000 		.word	OSIntNestingCtr
 226 0118 4D454D20 		.word	541934925
 227 011c 00000000 		.word	OSMemQty
 228              		.cfi_endproc
 229              	.LFE0:
 230              		.size	OSMemCreate, .-OSMemCreate
ARM GAS  C:\Users\alex\AppData\Local\Temp\ccZDE7Za.s 			page 8


 231              		.section	.text.OSMemGet,"ax",%progbits
 232              		.align	2
 233              		.global	OSMemGet
 234              		.thumb
 235              		.thumb_func
 236              		.type	OSMemGet, %function
 237              	OSMemGet:
 238              	.LFB1:
 168:..\..\..\..\..\..\uCOS-III\Source/os_mem.c **** 
 169:..\..\..\..\..\..\uCOS-III\Source/os_mem.c **** /*$PAGE*/
 170:..\..\..\..\..\..\uCOS-III\Source/os_mem.c **** /*
 171:..\..\..\..\..\..\uCOS-III\Source/os_mem.c **** ***************************************************************************************************
 172:..\..\..\..\..\..\uCOS-III\Source/os_mem.c **** *                                                  GET A MEMORY BLOCK
 173:..\..\..\..\..\..\uCOS-III\Source/os_mem.c **** *
 174:..\..\..\..\..\..\uCOS-III\Source/os_mem.c **** * Description : Get a memory block from a partition
 175:..\..\..\..\..\..\uCOS-III\Source/os_mem.c **** *
 176:..\..\..\..\..\..\uCOS-III\Source/os_mem.c **** * Arguments   : p_mem   is a pointer to the memory partition control block
 177:..\..\..\..\..\..\uCOS-III\Source/os_mem.c **** *
 178:..\..\..\..\..\..\uCOS-III\Source/os_mem.c **** *               p_err   is a pointer to a variable containing an error message which will be set by
 179:..\..\..\..\..\..\uCOS-III\Source/os_mem.c **** *                       either:
 180:..\..\..\..\..\..\uCOS-III\Source/os_mem.c **** *
 181:..\..\..\..\..\..\uCOS-III\Source/os_mem.c **** *                       OS_ERR_NONE               if the memory partition has been created correctl
 182:..\..\..\..\..\..\uCOS-III\Source/os_mem.c **** *                       OS_ERR_MEM_INVALID_P_MEM  if you passed a NULL pointer for 'p_mem'
 183:..\..\..\..\..\..\uCOS-III\Source/os_mem.c **** *                       OS_ERR_MEM_NO_FREE_BLKS   if there are no more free memory blocks to alloca
 184:..\..\..\..\..\..\uCOS-III\Source/os_mem.c **** *
 185:..\..\..\..\..\..\uCOS-III\Source/os_mem.c **** * Returns     : A pointer to a memory block if no error is detected
 186:..\..\..\..\..\..\uCOS-III\Source/os_mem.c **** *               A pointer to NULL if an error is detected
 187:..\..\..\..\..\..\uCOS-III\Source/os_mem.c **** ***************************************************************************************************
 188:..\..\..\..\..\..\uCOS-III\Source/os_mem.c **** */
 189:..\..\..\..\..\..\uCOS-III\Source/os_mem.c **** 
 190:..\..\..\..\..\..\uCOS-III\Source/os_mem.c **** void  *OSMemGet (OS_MEM  *p_mem,
 191:..\..\..\..\..\..\uCOS-III\Source/os_mem.c ****                  OS_ERR  *p_err)
 192:..\..\..\..\..\..\uCOS-III\Source/os_mem.c **** {
 239              		.loc 1 192 0
 240              		.cfi_startproc
 241              		@ args = 0, pretend = 0, frame = 16
 242              		@ frame_needed = 1, uses_anonymous_args = 0
 243 0000 80B5     		push	{r7, lr}
 244              		.cfi_def_cfa_offset 8
 245              		.cfi_offset 7, -8
 246              		.cfi_offset 14, -4
 247 0002 84B0     		sub	sp, sp, #16
 248              		.cfi_def_cfa_offset 24
 249 0004 00AF     		add	r7, sp, #0
 250              		.cfi_def_cfa_register 7
 251 0006 7860     		str	r0, [r7, #4]
 252 0008 3960     		str	r1, [r7]
 193:..\..\..\..\..\..\uCOS-III\Source/os_mem.c ****     void    *p_blk;
 194:..\..\..\..\..\..\uCOS-III\Source/os_mem.c ****     CPU_SR_ALLOC();
 253              		.loc 1 194 0
 254 000a 0023     		movs	r3, #0
 255 000c FB60     		str	r3, [r7, #12]
 195:..\..\..\..\..\..\uCOS-III\Source/os_mem.c **** 
 196:..\..\..\..\..\..\uCOS-III\Source/os_mem.c **** 
 197:..\..\..\..\..\..\uCOS-III\Source/os_mem.c **** 
 198:..\..\..\..\..\..\uCOS-III\Source/os_mem.c **** #ifdef OS_SAFETY_CRITICAL
 199:..\..\..\..\..\..\uCOS-III\Source/os_mem.c ****     if (p_err == (OS_ERR *)0) {
ARM GAS  C:\Users\alex\AppData\Local\Temp\ccZDE7Za.s 			page 9


 200:..\..\..\..\..\..\uCOS-III\Source/os_mem.c ****         OS_SAFETY_CRITICAL_EXCEPTION();
 201:..\..\..\..\..\..\uCOS-III\Source/os_mem.c ****         return ((void *)0);
 202:..\..\..\..\..\..\uCOS-III\Source/os_mem.c ****     }
 203:..\..\..\..\..\..\uCOS-III\Source/os_mem.c **** #endif
 204:..\..\..\..\..\..\uCOS-III\Source/os_mem.c **** 
 205:..\..\..\..\..\..\uCOS-III\Source/os_mem.c **** #if OS_CFG_ARG_CHK_EN > 0u
 206:..\..\..\..\..\..\uCOS-III\Source/os_mem.c ****     if (p_mem == (OS_MEM *)0) {                             /* Must point to a valid memory partiti
 256              		.loc 1 206 0
 257 000e 7B68     		ldr	r3, [r7, #4]
 258 0010 002B     		cmp	r3, #0
 259 0012 05D1     		bne	.L14
 207:..\..\..\..\..\..\uCOS-III\Source/os_mem.c ****        *p_err  = OS_ERR_MEM_INVALID_P_MEM;
 260              		.loc 1 207 0
 261 0014 3B68     		ldr	r3, [r7]
 262 0016 45F2BF62 		movw	r2, #22207
 263 001a 1A80     		strh	r2, [r3]	@ movhi
 208:..\..\..\..\..\..\uCOS-III\Source/os_mem.c ****         return ((void *)0);
 264              		.loc 1 208 0
 265 001c 0023     		movs	r3, #0
 266 001e 23E0     		b	.L15
 267              	.L14:
 209:..\..\..\..\..\..\uCOS-III\Source/os_mem.c ****     }
 210:..\..\..\..\..\..\uCOS-III\Source/os_mem.c **** #endif
 211:..\..\..\..\..\..\uCOS-III\Source/os_mem.c **** 
 212:..\..\..\..\..\..\uCOS-III\Source/os_mem.c ****     CPU_CRITICAL_ENTER();
 268              		.loc 1 212 0
 269 0020 FFF7FEFF 		bl	CPU_SR_Save
 270 0024 F860     		str	r0, [r7, #12]
 213:..\..\..\..\..\..\uCOS-III\Source/os_mem.c ****     if (p_mem->NbrFree == (OS_MEM_QTY)0) {                  /* See if there are any free memory blo
 271              		.loc 1 213 0
 272 0026 7B68     		ldr	r3, [r7, #4]
 273 0028 9B8A     		ldrh	r3, [r3, #20]
 274 002a 002B     		cmp	r3, #0
 275 002c 08D1     		bne	.L16
 214:..\..\..\..\..\..\uCOS-III\Source/os_mem.c ****         CPU_CRITICAL_EXIT();
 276              		.loc 1 214 0
 277 002e F868     		ldr	r0, [r7, #12]
 278 0030 FFF7FEFF 		bl	CPU_SR_Restore
 215:..\..\..\..\..\..\uCOS-III\Source/os_mem.c ****        *p_err = OS_ERR_MEM_NO_FREE_BLKS;                    /* No,  Notify caller of empty memory p
 279              		.loc 1 215 0
 280 0034 3B68     		ldr	r3, [r7]
 281 0036 45F2C262 		movw	r2, #22210
 282 003a 1A80     		strh	r2, [r3]	@ movhi
 216:..\..\..\..\..\..\uCOS-III\Source/os_mem.c ****         return ((void *)0);                                 /*      Return NULL pointer to caller  
 283              		.loc 1 216 0
 284 003c 0023     		movs	r3, #0
 285 003e 13E0     		b	.L15
 286              	.L16:
 217:..\..\..\..\..\..\uCOS-III\Source/os_mem.c ****     }
 218:..\..\..\..\..\..\uCOS-III\Source/os_mem.c ****     p_blk              = p_mem->FreeListPtr;                /* Yes, point to next free memory block
 287              		.loc 1 218 0
 288 0040 7B68     		ldr	r3, [r7, #4]
 289 0042 DB68     		ldr	r3, [r3, #12]
 290 0044 BB60     		str	r3, [r7, #8]
 219:..\..\..\..\..\..\uCOS-III\Source/os_mem.c ****     p_mem->FreeListPtr = *(void **)p_blk;                   /*      Adjust pointer to new free list
 291              		.loc 1 219 0
 292 0046 BB68     		ldr	r3, [r7, #8]
ARM GAS  C:\Users\alex\AppData\Local\Temp\ccZDE7Za.s 			page 10


 293 0048 1A68     		ldr	r2, [r3]
 294 004a 7B68     		ldr	r3, [r7, #4]
 295 004c DA60     		str	r2, [r3, #12]
 220:..\..\..\..\..\..\uCOS-III\Source/os_mem.c ****     p_mem->NbrFree--;                                       /*      One less memory block in this p
 296              		.loc 1 220 0
 297 004e 7B68     		ldr	r3, [r7, #4]
 298 0050 9B8A     		ldrh	r3, [r3, #20]
 299 0052 013B     		subs	r3, r3, #1
 300 0054 9AB2     		uxth	r2, r3
 301 0056 7B68     		ldr	r3, [r7, #4]
 302 0058 9A82     		strh	r2, [r3, #20]	@ movhi
 221:..\..\..\..\..\..\uCOS-III\Source/os_mem.c ****     CPU_CRITICAL_EXIT();
 303              		.loc 1 221 0
 304 005a F868     		ldr	r0, [r7, #12]
 305 005c FFF7FEFF 		bl	CPU_SR_Restore
 222:..\..\..\..\..\..\uCOS-III\Source/os_mem.c ****    *p_err = OS_ERR_NONE;                                    /*      No error                       
 306              		.loc 1 222 0
 307 0060 3B68     		ldr	r3, [r7]
 308 0062 0022     		movs	r2, #0
 309 0064 1A80     		strh	r2, [r3]	@ movhi
 223:..\..\..\..\..\..\uCOS-III\Source/os_mem.c ****     return (p_blk);                                         /*      Return memory block to caller  
 310              		.loc 1 223 0
 311 0066 BB68     		ldr	r3, [r7, #8]
 312              	.L15:
 224:..\..\..\..\..\..\uCOS-III\Source/os_mem.c **** }
 313              		.loc 1 224 0
 314 0068 1846     		mov	r0, r3
 315 006a 1037     		adds	r7, r7, #16
 316              		.cfi_def_cfa_offset 8
 317 006c BD46     		mov	sp, r7
 318              		.cfi_def_cfa_register 13
 319              		@ sp needed
 320 006e 80BD     		pop	{r7, pc}
 321              		.cfi_endproc
 322              	.LFE1:
 323              		.size	OSMemGet, .-OSMemGet
 324              		.section	.text.OSMemPut,"ax",%progbits
 325              		.align	2
 326              		.global	OSMemPut
 327              		.thumb
 328              		.thumb_func
 329              		.type	OSMemPut, %function
 330              	OSMemPut:
 331              	.LFB2:
 225:..\..\..\..\..\..\uCOS-III\Source/os_mem.c **** 
 226:..\..\..\..\..\..\uCOS-III\Source/os_mem.c **** /*$PAGE*/
 227:..\..\..\..\..\..\uCOS-III\Source/os_mem.c **** /*
 228:..\..\..\..\..\..\uCOS-III\Source/os_mem.c **** ***************************************************************************************************
 229:..\..\..\..\..\..\uCOS-III\Source/os_mem.c **** *                                                 RELEASE A MEMORY BLOCK
 230:..\..\..\..\..\..\uCOS-III\Source/os_mem.c **** *
 231:..\..\..\..\..\..\uCOS-III\Source/os_mem.c **** * Description : Returns a memory block to a partition
 232:..\..\..\..\..\..\uCOS-III\Source/os_mem.c **** *
 233:..\..\..\..\..\..\uCOS-III\Source/os_mem.c **** * Arguments   : p_mem    is a pointer to the memory partition control block
 234:..\..\..\..\..\..\uCOS-III\Source/os_mem.c **** *
 235:..\..\..\..\..\..\uCOS-III\Source/os_mem.c **** *               p_blk    is a pointer to the memory block being released.
 236:..\..\..\..\..\..\uCOS-III\Source/os_mem.c **** *
 237:..\..\..\..\..\..\uCOS-III\Source/os_mem.c **** *               p_err    is a pointer to a variable that will contain an error code returned by thi
ARM GAS  C:\Users\alex\AppData\Local\Temp\ccZDE7Za.s 			page 11


 238:..\..\..\..\..\..\uCOS-III\Source/os_mem.c **** *
 239:..\..\..\..\..\..\uCOS-III\Source/os_mem.c **** *                            OS_ERR_NONE               if the memory block was inserted into the pa
 240:..\..\..\..\..\..\uCOS-III\Source/os_mem.c **** *                            OS_ERR_MEM_FULL           if you are returning a memory block to an al
 241:..\..\..\..\..\..\uCOS-III\Source/os_mem.c **** *                                                      partition (You freed more blocks than you al
 242:..\..\..\..\..\..\uCOS-III\Source/os_mem.c **** *                            OS_ERR_MEM_INVALID_P_BLK  if you passed a NULL pointer for the block t
 243:..\..\..\..\..\..\uCOS-III\Source/os_mem.c **** *                            OS_ERR_MEM_INVALID_P_MEM  if you passed a NULL pointer for 'p_mem'
 244:..\..\..\..\..\..\uCOS-III\Source/os_mem.c **** ***************************************************************************************************
 245:..\..\..\..\..\..\uCOS-III\Source/os_mem.c **** */
 246:..\..\..\..\..\..\uCOS-III\Source/os_mem.c **** 
 247:..\..\..\..\..\..\uCOS-III\Source/os_mem.c **** void  OSMemPut (OS_MEM  *p_mem,
 248:..\..\..\..\..\..\uCOS-III\Source/os_mem.c ****                 void    *p_blk,
 249:..\..\..\..\..\..\uCOS-III\Source/os_mem.c ****                 OS_ERR  *p_err)
 250:..\..\..\..\..\..\uCOS-III\Source/os_mem.c **** {
 332              		.loc 1 250 0
 333              		.cfi_startproc
 334              		@ args = 0, pretend = 0, frame = 24
 335              		@ frame_needed = 1, uses_anonymous_args = 0
 336 0000 80B5     		push	{r7, lr}
 337              		.cfi_def_cfa_offset 8
 338              		.cfi_offset 7, -8
 339              		.cfi_offset 14, -4
 340 0002 86B0     		sub	sp, sp, #24
 341              		.cfi_def_cfa_offset 32
 342 0004 00AF     		add	r7, sp, #0
 343              		.cfi_def_cfa_register 7
 344 0006 F860     		str	r0, [r7, #12]
 345 0008 B960     		str	r1, [r7, #8]
 346 000a 7A60     		str	r2, [r7, #4]
 251:..\..\..\..\..\..\uCOS-III\Source/os_mem.c ****     CPU_SR_ALLOC();
 347              		.loc 1 251 0
 348 000c 0023     		movs	r3, #0
 349 000e 7B61     		str	r3, [r7, #20]
 252:..\..\..\..\..\..\uCOS-III\Source/os_mem.c **** 
 253:..\..\..\..\..\..\uCOS-III\Source/os_mem.c **** 
 254:..\..\..\..\..\..\uCOS-III\Source/os_mem.c **** 
 255:..\..\..\..\..\..\uCOS-III\Source/os_mem.c **** #ifdef OS_SAFETY_CRITICAL
 256:..\..\..\..\..\..\uCOS-III\Source/os_mem.c ****     if (p_err == (OS_ERR *)0) {
 257:..\..\..\..\..\..\uCOS-III\Source/os_mem.c ****         OS_SAFETY_CRITICAL_EXCEPTION();
 258:..\..\..\..\..\..\uCOS-III\Source/os_mem.c ****         return;
 259:..\..\..\..\..\..\uCOS-III\Source/os_mem.c ****     }
 260:..\..\..\..\..\..\uCOS-III\Source/os_mem.c **** #endif
 261:..\..\..\..\..\..\uCOS-III\Source/os_mem.c **** 
 262:..\..\..\..\..\..\uCOS-III\Source/os_mem.c **** #if OS_CFG_ARG_CHK_EN > 0u
 263:..\..\..\..\..\..\uCOS-III\Source/os_mem.c ****     if (p_mem == (OS_MEM *)0) {                             /* Must point to a valid memory partiti
 350              		.loc 1 263 0
 351 0010 FB68     		ldr	r3, [r7, #12]
 352 0012 002B     		cmp	r3, #0
 353 0014 04D1     		bne	.L18
 264:..\..\..\..\..\..\uCOS-III\Source/os_mem.c ****        *p_err  = OS_ERR_MEM_INVALID_P_MEM;
 354              		.loc 1 264 0
 355 0016 7B68     		ldr	r3, [r7, #4]
 356 0018 45F2BF62 		movw	r2, #22207
 357 001c 1A80     		strh	r2, [r3]	@ movhi
 265:..\..\..\..\..\..\uCOS-III\Source/os_mem.c ****         return;
 358              		.loc 1 265 0
 359 001e 2BE0     		b	.L17
 360              	.L18:
ARM GAS  C:\Users\alex\AppData\Local\Temp\ccZDE7Za.s 			page 12


 266:..\..\..\..\..\..\uCOS-III\Source/os_mem.c ****     }
 267:..\..\..\..\..\..\uCOS-III\Source/os_mem.c ****     if (p_blk == (void *)0) {                               /* Must release a valid block          
 361              		.loc 1 267 0
 362 0020 BB68     		ldr	r3, [r7, #8]
 363 0022 002B     		cmp	r3, #0
 364 0024 04D1     		bne	.L20
 268:..\..\..\..\..\..\uCOS-III\Source/os_mem.c ****        *p_err  = OS_ERR_MEM_INVALID_P_BLK;
 365              		.loc 1 268 0
 366 0026 7B68     		ldr	r3, [r7, #4]
 367 0028 45F2BE62 		movw	r2, #22206
 368 002c 1A80     		strh	r2, [r3]	@ movhi
 269:..\..\..\..\..\..\uCOS-III\Source/os_mem.c ****         return;
 369              		.loc 1 269 0
 370 002e 23E0     		b	.L17
 371              	.L20:
 270:..\..\..\..\..\..\uCOS-III\Source/os_mem.c ****     }
 271:..\..\..\..\..\..\uCOS-III\Source/os_mem.c **** #endif
 272:..\..\..\..\..\..\uCOS-III\Source/os_mem.c **** 
 273:..\..\..\..\..\..\uCOS-III\Source/os_mem.c ****     CPU_CRITICAL_ENTER();
 372              		.loc 1 273 0
 373 0030 FFF7FEFF 		bl	CPU_SR_Save
 374 0034 7861     		str	r0, [r7, #20]
 274:..\..\..\..\..\..\uCOS-III\Source/os_mem.c ****     if (p_mem->NbrFree >= p_mem->NbrMax) {                  /* Make sure all blocks not already ret
 375              		.loc 1 274 0
 376 0036 FB68     		ldr	r3, [r7, #12]
 377 0038 9A8A     		ldrh	r2, [r3, #20]
 378 003a FB68     		ldr	r3, [r7, #12]
 379 003c 5B8A     		ldrh	r3, [r3, #18]
 380 003e 9A42     		cmp	r2, r3
 381 0040 07D3     		bcc	.L21
 275:..\..\..\..\..\..\uCOS-III\Source/os_mem.c ****         CPU_CRITICAL_EXIT();
 382              		.loc 1 275 0
 383 0042 7869     		ldr	r0, [r7, #20]
 384 0044 FFF7FEFF 		bl	CPU_SR_Restore
 276:..\..\..\..\..\..\uCOS-III\Source/os_mem.c ****        *p_err = OS_ERR_MEM_FULL;
 385              		.loc 1 276 0
 386 0048 7B68     		ldr	r3, [r7, #4]
 387 004a 45F2BA62 		movw	r2, #22202
 388 004e 1A80     		strh	r2, [r3]	@ movhi
 277:..\..\..\..\..\..\uCOS-III\Source/os_mem.c ****         return;
 389              		.loc 1 277 0
 390 0050 12E0     		b	.L17
 391              	.L21:
 278:..\..\..\..\..\..\uCOS-III\Source/os_mem.c ****     }
 279:..\..\..\..\..\..\uCOS-III\Source/os_mem.c ****     *(void **)p_blk    = p_mem->FreeListPtr;                /* Insert released block into free bloc
 392              		.loc 1 279 0
 393 0052 FB68     		ldr	r3, [r7, #12]
 394 0054 DA68     		ldr	r2, [r3, #12]
 395 0056 BB68     		ldr	r3, [r7, #8]
 396 0058 1A60     		str	r2, [r3]
 280:..\..\..\..\..\..\uCOS-III\Source/os_mem.c ****     p_mem->FreeListPtr = p_blk;
 397              		.loc 1 280 0
 398 005a FB68     		ldr	r3, [r7, #12]
 399 005c BA68     		ldr	r2, [r7, #8]
 400 005e DA60     		str	r2, [r3, #12]
 281:..\..\..\..\..\..\uCOS-III\Source/os_mem.c ****     p_mem->NbrFree++;                                       /* One more memory block in this partit
 401              		.loc 1 281 0
ARM GAS  C:\Users\alex\AppData\Local\Temp\ccZDE7Za.s 			page 13


 402 0060 FB68     		ldr	r3, [r7, #12]
 403 0062 9B8A     		ldrh	r3, [r3, #20]
 404 0064 0133     		adds	r3, r3, #1
 405 0066 9AB2     		uxth	r2, r3
 406 0068 FB68     		ldr	r3, [r7, #12]
 407 006a 9A82     		strh	r2, [r3, #20]	@ movhi
 282:..\..\..\..\..\..\uCOS-III\Source/os_mem.c ****     CPU_CRITICAL_EXIT();
 408              		.loc 1 282 0
 409 006c 7869     		ldr	r0, [r7, #20]
 410 006e FFF7FEFF 		bl	CPU_SR_Restore
 283:..\..\..\..\..\..\uCOS-III\Source/os_mem.c ****    *p_err              = OS_ERR_NONE;                       /* Notify caller that memory block was 
 411              		.loc 1 283 0
 412 0072 7B68     		ldr	r3, [r7, #4]
 413 0074 0022     		movs	r2, #0
 414 0076 1A80     		strh	r2, [r3]	@ movhi
 415              	.L17:
 284:..\..\..\..\..\..\uCOS-III\Source/os_mem.c **** }
 416              		.loc 1 284 0
 417 0078 1837     		adds	r7, r7, #24
 418              		.cfi_def_cfa_offset 8
 419 007a BD46     		mov	sp, r7
 420              		.cfi_def_cfa_register 13
 421              		@ sp needed
 422 007c 80BD     		pop	{r7, pc}
 423              		.cfi_endproc
 424              	.LFE2:
 425              		.size	OSMemPut, .-OSMemPut
 426 007e 00BF     		.section	.text.OS_MemDbgListAdd,"ax",%progbits
 427              		.align	2
 428              		.global	OS_MemDbgListAdd
 429              		.thumb
 430              		.thumb_func
 431              		.type	OS_MemDbgListAdd, %function
 432              	OS_MemDbgListAdd:
 433              	.LFB3:
 285:..\..\..\..\..\..\uCOS-III\Source/os_mem.c **** 
 286:..\..\..\..\..\..\uCOS-III\Source/os_mem.c **** /*$PAGE*/
 287:..\..\..\..\..\..\uCOS-III\Source/os_mem.c **** /*
 288:..\..\..\..\..\..\uCOS-III\Source/os_mem.c **** ***************************************************************************************************
 289:..\..\..\..\..\..\uCOS-III\Source/os_mem.c **** *                                           ADD MEMORY PARTITION TO DEBUG LIST
 290:..\..\..\..\..\..\uCOS-III\Source/os_mem.c **** *
 291:..\..\..\..\..\..\uCOS-III\Source/os_mem.c **** * Description : This function is called by OSMemCreate() to add the memory partition to the debug t
 292:..\..\..\..\..\..\uCOS-III\Source/os_mem.c **** *
 293:..\..\..\..\..\..\uCOS-III\Source/os_mem.c **** * Arguments   : p_mem    Is a pointer to the memory partition
 294:..\..\..\..\..\..\uCOS-III\Source/os_mem.c **** *
 295:..\..\..\..\..\..\uCOS-III\Source/os_mem.c **** * Returns     : none
 296:..\..\..\..\..\..\uCOS-III\Source/os_mem.c **** *
 297:..\..\..\..\..\..\uCOS-III\Source/os_mem.c **** * Note(s)    : This function is INTERNAL to uC/OS-III and your application should not call it.
 298:..\..\..\..\..\..\uCOS-III\Source/os_mem.c **** ***************************************************************************************************
 299:..\..\..\..\..\..\uCOS-III\Source/os_mem.c **** */
 300:..\..\..\..\..\..\uCOS-III\Source/os_mem.c **** 
 301:..\..\..\..\..\..\uCOS-III\Source/os_mem.c **** #if OS_CFG_DBG_EN > 0u
 302:..\..\..\..\..\..\uCOS-III\Source/os_mem.c **** void  OS_MemDbgListAdd (OS_MEM  *p_mem)
 303:..\..\..\..\..\..\uCOS-III\Source/os_mem.c **** {
 434              		.loc 1 303 0
 435              		.cfi_startproc
 436              		@ args = 0, pretend = 0, frame = 8
ARM GAS  C:\Users\alex\AppData\Local\Temp\ccZDE7Za.s 			page 14


 437              		@ frame_needed = 1, uses_anonymous_args = 0
 438              		@ link register save eliminated.
 439 0000 80B4     		push	{r7}
 440              		.cfi_def_cfa_offset 4
 441              		.cfi_offset 7, -4
 442 0002 83B0     		sub	sp, sp, #12
 443              		.cfi_def_cfa_offset 16
 444 0004 00AF     		add	r7, sp, #0
 445              		.cfi_def_cfa_register 7
 446 0006 7860     		str	r0, [r7, #4]
 304:..\..\..\..\..\..\uCOS-III\Source/os_mem.c ****     p_mem->DbgPrevPtr               = (OS_MEM *)0;
 447              		.loc 1 304 0
 448 0008 7B68     		ldr	r3, [r7, #4]
 449 000a 0022     		movs	r2, #0
 450 000c 9A61     		str	r2, [r3, #24]
 305:..\..\..\..\..\..\uCOS-III\Source/os_mem.c ****     if (OSMemDbgListPtr == (OS_MEM *)0) {
 451              		.loc 1 305 0
 452 000e 0C4B     		ldr	r3, .L25
 453 0010 1B68     		ldr	r3, [r3]
 454 0012 002B     		cmp	r3, #0
 455 0014 03D1     		bne	.L23
 306:..\..\..\..\..\..\uCOS-III\Source/os_mem.c ****         p_mem->DbgNextPtr           = (OS_MEM *)0;
 456              		.loc 1 306 0
 457 0016 7B68     		ldr	r3, [r7, #4]
 458 0018 0022     		movs	r2, #0
 459 001a DA61     		str	r2, [r3, #28]
 460 001c 07E0     		b	.L24
 461              	.L23:
 307:..\..\..\..\..\..\uCOS-III\Source/os_mem.c ****     } else {
 308:..\..\..\..\..\..\uCOS-III\Source/os_mem.c ****         p_mem->DbgNextPtr           =  OSMemDbgListPtr;
 462              		.loc 1 308 0
 463 001e 084B     		ldr	r3, .L25
 464 0020 1A68     		ldr	r2, [r3]
 465 0022 7B68     		ldr	r3, [r7, #4]
 466 0024 DA61     		str	r2, [r3, #28]
 309:..\..\..\..\..\..\uCOS-III\Source/os_mem.c ****         OSMemDbgListPtr->DbgPrevPtr =  p_mem;
 467              		.loc 1 309 0
 468 0026 064B     		ldr	r3, .L25
 469 0028 1B68     		ldr	r3, [r3]
 470 002a 7A68     		ldr	r2, [r7, #4]
 471 002c 9A61     		str	r2, [r3, #24]
 472              	.L24:
 310:..\..\..\..\..\..\uCOS-III\Source/os_mem.c ****     }
 311:..\..\..\..\..\..\uCOS-III\Source/os_mem.c ****     OSMemDbgListPtr                 =  p_mem;
 473              		.loc 1 311 0
 474 002e 044A     		ldr	r2, .L25
 475 0030 7B68     		ldr	r3, [r7, #4]
 476 0032 1360     		str	r3, [r2]
 312:..\..\..\..\..\..\uCOS-III\Source/os_mem.c **** }
 477              		.loc 1 312 0
 478 0034 00BF     		nop
 479 0036 0C37     		adds	r7, r7, #12
 480              		.cfi_def_cfa_offset 4
 481 0038 BD46     		mov	sp, r7
 482              		.cfi_def_cfa_register 13
 483              		@ sp needed
 484 003a 80BC     		pop	{r7}
ARM GAS  C:\Users\alex\AppData\Local\Temp\ccZDE7Za.s 			page 15


 485              		.cfi_restore 7
 486              		.cfi_def_cfa_offset 0
 487 003c 7047     		bx	lr
 488              	.L26:
 489 003e 00BF     		.align	2
 490              	.L25:
 491 0040 00000000 		.word	OSMemDbgListPtr
 492              		.cfi_endproc
 493              	.LFE3:
 494              		.size	OS_MemDbgListAdd, .-OS_MemDbgListAdd
 495              		.section	.text.OS_MemInit,"ax",%progbits
 496              		.align	2
 497              		.global	OS_MemInit
 498              		.thumb
 499              		.thumb_func
 500              		.type	OS_MemInit, %function
 501              	OS_MemInit:
 502              	.LFB4:
 313:..\..\..\..\..\..\uCOS-III\Source/os_mem.c **** #endif
 314:..\..\..\..\..\..\uCOS-III\Source/os_mem.c **** 
 315:..\..\..\..\..\..\uCOS-III\Source/os_mem.c **** /*$PAGE*/
 316:..\..\..\..\..\..\uCOS-III\Source/os_mem.c **** /*
 317:..\..\..\..\..\..\uCOS-III\Source/os_mem.c **** ***************************************************************************************************
 318:..\..\..\..\..\..\uCOS-III\Source/os_mem.c **** *                                           INITIALIZE MEMORY PARTITION MANAGER
 319:..\..\..\..\..\..\uCOS-III\Source/os_mem.c **** *
 320:..\..\..\..\..\..\uCOS-III\Source/os_mem.c **** * Description : This function is called by uC/OS-III to initialize the memory partition manager.  Y
 321:..\..\..\..\..\..\uCOS-III\Source/os_mem.c **** *               application MUST NOT call this function.
 322:..\..\..\..\..\..\uCOS-III\Source/os_mem.c **** *
 323:..\..\..\..\..\..\uCOS-III\Source/os_mem.c **** * Arguments   : none
 324:..\..\..\..\..\..\uCOS-III\Source/os_mem.c **** *
 325:..\..\..\..\..\..\uCOS-III\Source/os_mem.c **** * Returns     : none
 326:..\..\..\..\..\..\uCOS-III\Source/os_mem.c **** *
 327:..\..\..\..\..\..\uCOS-III\Source/os_mem.c **** * Note(s)    : This function is INTERNAL to uC/OS-III and your application should not call it.
 328:..\..\..\..\..\..\uCOS-III\Source/os_mem.c **** ***************************************************************************************************
 329:..\..\..\..\..\..\uCOS-III\Source/os_mem.c **** */
 330:..\..\..\..\..\..\uCOS-III\Source/os_mem.c **** 
 331:..\..\..\..\..\..\uCOS-III\Source/os_mem.c **** void  OS_MemInit (OS_ERR  *p_err)
 332:..\..\..\..\..\..\uCOS-III\Source/os_mem.c **** {
 503              		.loc 1 332 0
 504              		.cfi_startproc
 505              		@ args = 0, pretend = 0, frame = 8
 506              		@ frame_needed = 1, uses_anonymous_args = 0
 507              		@ link register save eliminated.
 508 0000 80B4     		push	{r7}
 509              		.cfi_def_cfa_offset 4
 510              		.cfi_offset 7, -4
 511 0002 83B0     		sub	sp, sp, #12
 512              		.cfi_def_cfa_offset 16
 513 0004 00AF     		add	r7, sp, #0
 514              		.cfi_def_cfa_register 7
 515 0006 7860     		str	r0, [r7, #4]
 333:..\..\..\..\..\..\uCOS-III\Source/os_mem.c **** #ifdef OS_SAFETY_CRITICAL
 334:..\..\..\..\..\..\uCOS-III\Source/os_mem.c ****     if (p_err == (OS_ERR *)0) {
 335:..\..\..\..\..\..\uCOS-III\Source/os_mem.c ****         OS_SAFETY_CRITICAL_EXCEPTION();
 336:..\..\..\..\..\..\uCOS-III\Source/os_mem.c ****         return;
 337:..\..\..\..\..\..\uCOS-III\Source/os_mem.c ****     }
 338:..\..\..\..\..\..\uCOS-III\Source/os_mem.c **** #endif
ARM GAS  C:\Users\alex\AppData\Local\Temp\ccZDE7Za.s 			page 16


 339:..\..\..\..\..\..\uCOS-III\Source/os_mem.c **** 
 340:..\..\..\..\..\..\uCOS-III\Source/os_mem.c **** #if OS_CFG_DBG_EN > 0u
 341:..\..\..\..\..\..\uCOS-III\Source/os_mem.c ****     OSMemDbgListPtr = (OS_MEM   *)0;
 516              		.loc 1 341 0
 517 0008 064B     		ldr	r3, .L28
 518 000a 0022     		movs	r2, #0
 519 000c 1A60     		str	r2, [r3]
 342:..\..\..\..\..\..\uCOS-III\Source/os_mem.c **** #endif
 343:..\..\..\..\..\..\uCOS-III\Source/os_mem.c **** 
 344:..\..\..\..\..\..\uCOS-III\Source/os_mem.c ****     OSMemQty        = (OS_OBJ_QTY)0;
 520              		.loc 1 344 0
 521 000e 064B     		ldr	r3, .L28+4
 522 0010 0022     		movs	r2, #0
 523 0012 1A80     		strh	r2, [r3]	@ movhi
 345:..\..\..\..\..\..\uCOS-III\Source/os_mem.c ****    *p_err           = OS_ERR_NONE;
 524              		.loc 1 345 0
 525 0014 7B68     		ldr	r3, [r7, #4]
 526 0016 0022     		movs	r2, #0
 527 0018 1A80     		strh	r2, [r3]	@ movhi
 346:..\..\..\..\..\..\uCOS-III\Source/os_mem.c **** }
 528              		.loc 1 346 0
 529 001a 00BF     		nop
 530 001c 0C37     		adds	r7, r7, #12
 531              		.cfi_def_cfa_offset 4
 532 001e BD46     		mov	sp, r7
 533              		.cfi_def_cfa_register 13
 534              		@ sp needed
 535 0020 80BC     		pop	{r7}
 536              		.cfi_restore 7
 537              		.cfi_def_cfa_offset 0
 538 0022 7047     		bx	lr
 539              	.L29:
 540              		.align	2
 541              	.L28:
 542 0024 00000000 		.word	OSMemDbgListPtr
 543 0028 00000000 		.word	OSMemQty
 544              		.cfi_endproc
 545              	.LFE4:
 546              		.size	OS_MemInit, .-OS_MemInit
 547              		.text
 548              	.Letext0:
 549              		.file 2 "..\\..\\..\\..\\..\\..\\uC-CPU\\ARM-Cortex-M3\\GNU/cpu.h"
 550              		.file 3 "..\\..\\..\\..\\..\\..\\uCOS-III\\Source/os_type.h"
 551              		.file 4 "..\\..\\..\\..\\..\\..\\uCOS-III\\Source/os.h"