ARM GAS  C:\Users\alex\AppData\Local\Temp\cco4xbCY.s 			page 1


   1              		.syntax unified
   2              		.cpu cortex-m3
   3              		.fpu softvfp
   4              		.eabi_attribute 20, 1
   5              		.eabi_attribute 21, 1
   6              		.eabi_attribute 23, 3
   7              		.eabi_attribute 24, 1
   8              		.eabi_attribute 25, 1
   9              		.eabi_attribute 26, 1
  10              		.eabi_attribute 30, 6
  11              		.eabi_attribute 34, 1
  12              		.eabi_attribute 18, 4
  13              		.thumb
  14              		.syntax unified
  15              		.file	"os_msg.c"
  16              		.text
  17              	.Ltext0:
  18              		.cfi_sections	.debug_frame
  19              		.section	.text.OS_MsgPoolInit,"ax",%progbits
  20              		.align	2
  21              		.global	OS_MsgPoolInit
  22              		.thumb
  23              		.thumb_func
  24              		.type	OS_MsgPoolInit, %function
  25              	OS_MsgPoolInit:
  26              	.LFB0:
  27              		.file 1 "..\\..\\..\\..\\..\\..\\uCOS-III\\Source\\os_msg.c"
   1:..\..\..\..\..\..\uCOS-III\Source/os_msg.c **** /*
   2:..\..\..\..\..\..\uCOS-III\Source/os_msg.c **** ***************************************************************************************************
   3:..\..\..\..\..\..\uCOS-III\Source/os_msg.c **** *                                                      uC/OS-III
   4:..\..\..\..\..\..\uCOS-III\Source/os_msg.c **** *                                                 The Real-Time Kernel
   5:..\..\..\..\..\..\uCOS-III\Source/os_msg.c **** *
   6:..\..\..\..\..\..\uCOS-III\Source/os_msg.c **** *                                  (c) Copyright 2009-2012; Micrium, Inc.; Weston, FL
   7:..\..\..\..\..\..\uCOS-III\Source/os_msg.c **** *                           All rights reserved.  Protected by international copyright laws.
   8:..\..\..\..\..\..\uCOS-III\Source/os_msg.c **** *
   9:..\..\..\..\..\..\uCOS-III\Source/os_msg.c **** *                                              MESSAGE HANDLING SERVICES
  10:..\..\..\..\..\..\uCOS-III\Source/os_msg.c **** *
  11:..\..\..\..\..\..\uCOS-III\Source/os_msg.c **** * File    : OS_MSG.C
  12:..\..\..\..\..\..\uCOS-III\Source/os_msg.c **** * By      : JJL
  13:..\..\..\..\..\..\uCOS-III\Source/os_msg.c **** * Version : V3.03.01
  14:..\..\..\..\..\..\uCOS-III\Source/os_msg.c **** *
  15:..\..\..\..\..\..\uCOS-III\Source/os_msg.c **** * LICENSING TERMS:
  16:..\..\..\..\..\..\uCOS-III\Source/os_msg.c **** * ---------------
  17:..\..\..\..\..\..\uCOS-III\Source/os_msg.c **** *           uC/OS-III is provided in source form for FREE short-term evaluation, for educational us
  18:..\..\..\..\..\..\uCOS-III\Source/os_msg.c **** *           for peaceful research.  If you plan or intend to use uC/OS-III in a commercial applicat
  19:..\..\..\..\..\..\uCOS-III\Source/os_msg.c **** *           product then, you need to contact Micrium to properly license uC/OS-III for its use in 
  20:..\..\..\..\..\..\uCOS-III\Source/os_msg.c **** *           application/product.   We provide ALL the source code for your convenience and to help 
  21:..\..\..\..\..\..\uCOS-III\Source/os_msg.c **** *           experience uC/OS-III.  The fact that the source is provided does NOT mean that you can 
  22:..\..\..\..\..\..\uCOS-III\Source/os_msg.c **** *           it commercially without paying a licensing fee.
  23:..\..\..\..\..\..\uCOS-III\Source/os_msg.c **** *
  24:..\..\..\..\..\..\uCOS-III\Source/os_msg.c **** *           Knowledge of the source code may NOT be used to develop a similar product.
  25:..\..\..\..\..\..\uCOS-III\Source/os_msg.c **** *
  26:..\..\..\..\..\..\uCOS-III\Source/os_msg.c **** *           Please help us continue to provide the embedded community with the finest software avai
  27:..\..\..\..\..\..\uCOS-III\Source/os_msg.c **** *           Your honesty is greatly appreciated.
  28:..\..\..\..\..\..\uCOS-III\Source/os_msg.c **** *
  29:..\..\..\..\..\..\uCOS-III\Source/os_msg.c **** *           You can contact us at www.micrium.com, or by phone at +1 (954) 217-2036.
  30:..\..\..\..\..\..\uCOS-III\Source/os_msg.c **** ***************************************************************************************************
ARM GAS  C:\Users\alex\AppData\Local\Temp\cco4xbCY.s 			page 2


  31:..\..\..\..\..\..\uCOS-III\Source/os_msg.c **** */
  32:..\..\..\..\..\..\uCOS-III\Source/os_msg.c **** 
  33:..\..\..\..\..\..\uCOS-III\Source/os_msg.c **** #define  MICRIUM_SOURCE
  34:..\..\..\..\..\..\uCOS-III\Source/os_msg.c **** #include <os.h>
  35:..\..\..\..\..\..\uCOS-III\Source/os_msg.c **** 
  36:..\..\..\..\..\..\uCOS-III\Source/os_msg.c **** #ifdef VSC_INCLUDE_SOURCE_FILE_NAMES
  37:..\..\..\..\..\..\uCOS-III\Source/os_msg.c **** const  CPU_CHAR  *os_msg__c = "$Id: $";
  38:..\..\..\..\..\..\uCOS-III\Source/os_msg.c **** #endif
  39:..\..\..\..\..\..\uCOS-III\Source/os_msg.c **** 
  40:..\..\..\..\..\..\uCOS-III\Source/os_msg.c **** 
  41:..\..\..\..\..\..\uCOS-III\Source/os_msg.c **** #if OS_MSG_EN > 0u
  42:..\..\..\..\..\..\uCOS-III\Source/os_msg.c **** /*$PAGE*/
  43:..\..\..\..\..\..\uCOS-III\Source/os_msg.c **** /*
  44:..\..\..\..\..\..\uCOS-III\Source/os_msg.c **** ***************************************************************************************************
  45:..\..\..\..\..\..\uCOS-III\Source/os_msg.c **** *                                            INITIALIZE THE POOL OF 'OS_MSG'
  46:..\..\..\..\..\..\uCOS-III\Source/os_msg.c **** *
  47:..\..\..\..\..\..\uCOS-III\Source/os_msg.c **** * Description: This function is called by OSInit() to initialize the free list of OS_MSGs.
  48:..\..\..\..\..\..\uCOS-III\Source/os_msg.c **** *
  49:..\..\..\..\..\..\uCOS-III\Source/os_msg.c **** * Argument(s): p_err     is a pointer to a variable that will contain an error code returned by thi
  50:..\..\..\..\..\..\uCOS-III\Source/os_msg.c **** *
  51:..\..\..\..\..\..\uCOS-III\Source/os_msg.c **** *                            OS_ERR_MSG_POOL_NULL_PTR
  52:..\..\..\..\..\..\uCOS-III\Source/os_msg.c **** *                            OS_ERR_MSG_POOL_EMPTY
  53:..\..\..\..\..\..\uCOS-III\Source/os_msg.c **** *                            OS_ERR_NONE
  54:..\..\..\..\..\..\uCOS-III\Source/os_msg.c **** *
  55:..\..\..\..\..\..\uCOS-III\Source/os_msg.c **** * Returns    : none
  56:..\..\..\..\..\..\uCOS-III\Source/os_msg.c **** *
  57:..\..\..\..\..\..\uCOS-III\Source/os_msg.c **** * Note(s)    : 1) This function is INTERNAL to uC/OS-III and your application MUST NOT call it.
  58:..\..\..\..\..\..\uCOS-III\Source/os_msg.c **** ***************************************************************************************************
  59:..\..\..\..\..\..\uCOS-III\Source/os_msg.c **** */
  60:..\..\..\..\..\..\uCOS-III\Source/os_msg.c **** 
  61:..\..\..\..\..\..\uCOS-III\Source/os_msg.c **** void  OS_MsgPoolInit (OS_ERR  *p_err)
  62:..\..\..\..\..\..\uCOS-III\Source/os_msg.c **** {
  28              		.loc 1 62 0
  29              		.cfi_startproc
  30              		@ args = 0, pretend = 0, frame = 24
  31              		@ frame_needed = 1, uses_anonymous_args = 0
  32              		@ link register save eliminated.
  33 0000 80B4     		push	{r7}
  34              		.cfi_def_cfa_offset 4
  35              		.cfi_offset 7, -4
  36 0002 87B0     		sub	sp, sp, #28
  37              		.cfi_def_cfa_offset 32
  38 0004 00AF     		add	r7, sp, #0
  39              		.cfi_def_cfa_register 7
  40 0006 7860     		str	r0, [r7, #4]
  63:..\..\..\..\..\..\uCOS-III\Source/os_msg.c ****     OS_MSG      *p_msg1;
  64:..\..\..\..\..\..\uCOS-III\Source/os_msg.c ****     OS_MSG      *p_msg2;
  65:..\..\..\..\..\..\uCOS-III\Source/os_msg.c ****     OS_MSG_QTY   i;
  66:..\..\..\..\..\..\uCOS-III\Source/os_msg.c ****     OS_MSG_QTY   loops;
  67:..\..\..\..\..\..\uCOS-III\Source/os_msg.c **** 
  68:..\..\..\..\..\..\uCOS-III\Source/os_msg.c **** 
  69:..\..\..\..\..\..\uCOS-III\Source/os_msg.c **** 
  70:..\..\..\..\..\..\uCOS-III\Source/os_msg.c **** #ifdef OS_SAFETY_CRITICAL
  71:..\..\..\..\..\..\uCOS-III\Source/os_msg.c ****     if (p_err == (OS_ERR *)0) {
  72:..\..\..\..\..\..\uCOS-III\Source/os_msg.c ****         OS_SAFETY_CRITICAL_EXCEPTION();
  73:..\..\..\..\..\..\uCOS-III\Source/os_msg.c ****         return;
  74:..\..\..\..\..\..\uCOS-III\Source/os_msg.c ****     }
ARM GAS  C:\Users\alex\AppData\Local\Temp\cco4xbCY.s 			page 3


  75:..\..\..\..\..\..\uCOS-III\Source/os_msg.c **** #endif
  76:..\..\..\..\..\..\uCOS-III\Source/os_msg.c **** 
  77:..\..\..\..\..\..\uCOS-III\Source/os_msg.c **** #if OS_CFG_ARG_CHK_EN > 0u
  78:..\..\..\..\..\..\uCOS-III\Source/os_msg.c ****     if (OSCfg_MsgPoolBasePtr == (OS_MSG *)0) {
  41              		.loc 1 78 0
  42 0008 2D4B     		ldr	r3, .L7
  43 000a 1B68     		ldr	r3, [r3]
  44 000c 002B     		cmp	r3, #0
  45 000e 04D1     		bne	.L2
  79:..\..\..\..\..\..\uCOS-III\Source/os_msg.c ****        *p_err = OS_ERR_MSG_POOL_NULL_PTR;
  46              		.loc 1 79 0
  47 0010 7B68     		ldr	r3, [r7, #4]
  48 0012 45F21E72 		movw	r2, #22302
  49 0016 1A80     		strh	r2, [r3]	@ movhi
  80:..\..\..\..\..\..\uCOS-III\Source/os_msg.c ****         return;
  50              		.loc 1 80 0
  51 0018 4EE0     		b	.L1
  52              	.L2:
  81:..\..\..\..\..\..\uCOS-III\Source/os_msg.c ****     }
  82:..\..\..\..\..\..\uCOS-III\Source/os_msg.c ****     if (OSCfg_MsgPoolSize == (OS_MSG_QTY)0) {
  53              		.loc 1 82 0
  54 001a 2A4B     		ldr	r3, .L7+4
  55 001c 1B88     		ldrh	r3, [r3]
  56 001e 002B     		cmp	r3, #0
  57 0020 04D1     		bne	.L4
  83:..\..\..\..\..\..\uCOS-III\Source/os_msg.c ****        *p_err = OS_ERR_MSG_POOL_EMPTY;
  58              		.loc 1 83 0
  59 0022 7B68     		ldr	r3, [r7, #4]
  60 0024 45F21D72 		movw	r2, #22301
  61 0028 1A80     		strh	r2, [r3]	@ movhi
  84:..\..\..\..\..\..\uCOS-III\Source/os_msg.c ****         return;
  62              		.loc 1 84 0
  63 002a 45E0     		b	.L1
  64              	.L4:
  85:..\..\..\..\..\..\uCOS-III\Source/os_msg.c ****     }
  86:..\..\..\..\..\..\uCOS-III\Source/os_msg.c **** #endif
  87:..\..\..\..\..\..\uCOS-III\Source/os_msg.c **** 
  88:..\..\..\..\..\..\uCOS-III\Source/os_msg.c ****     p_msg1 = OSCfg_MsgPoolBasePtr;
  65              		.loc 1 88 0
  66 002c 244B     		ldr	r3, .L7
  67 002e 1B68     		ldr	r3, [r3]
  68 0030 7B61     		str	r3, [r7, #20]
  89:..\..\..\..\..\..\uCOS-III\Source/os_msg.c ****     p_msg2 = OSCfg_MsgPoolBasePtr;
  69              		.loc 1 89 0
  70 0032 234B     		ldr	r3, .L7
  71 0034 1B68     		ldr	r3, [r3]
  72 0036 3B61     		str	r3, [r7, #16]
  90:..\..\..\..\..\..\uCOS-III\Source/os_msg.c ****     p_msg2++;
  73              		.loc 1 90 0
  74 0038 3B69     		ldr	r3, [r7, #16]
  75 003a 1033     		adds	r3, r3, #16
  76 003c 3B61     		str	r3, [r7, #16]
  91:..\..\..\..\..\..\uCOS-III\Source/os_msg.c ****     loops  = OSCfg_MsgPoolSize - 1u;
  77              		.loc 1 91 0
  78 003e 214B     		ldr	r3, .L7+4
  79 0040 1B88     		ldrh	r3, [r3]
  80 0042 013B     		subs	r3, r3, #1
ARM GAS  C:\Users\alex\AppData\Local\Temp\cco4xbCY.s 			page 4


  81 0044 BB81     		strh	r3, [r7, #12]	@ movhi
  92:..\..\..\..\..\..\uCOS-III\Source/os_msg.c ****     for (i = 0u; i < loops; i++) {                          /* Init. list of free OS_MSGs          
  82              		.loc 1 92 0
  83 0046 0023     		movs	r3, #0
  84 0048 FB81     		strh	r3, [r7, #14]	@ movhi
  85 004a 14E0     		b	.L5
  86              	.L6:
  93:..\..\..\..\..\..\uCOS-III\Source/os_msg.c ****         p_msg1->NextPtr = p_msg2;
  87              		.loc 1 93 0 discriminator 3
  88 004c 7B69     		ldr	r3, [r7, #20]
  89 004e 3A69     		ldr	r2, [r7, #16]
  90 0050 1A60     		str	r2, [r3]
  94:..\..\..\..\..\..\uCOS-III\Source/os_msg.c ****         p_msg1->MsgPtr  = (void      *)0;
  91              		.loc 1 94 0 discriminator 3
  92 0052 7B69     		ldr	r3, [r7, #20]
  93 0054 0022     		movs	r2, #0
  94 0056 5A60     		str	r2, [r3, #4]
  95:..\..\..\..\..\..\uCOS-III\Source/os_msg.c ****         p_msg1->MsgSize = (OS_MSG_SIZE)0u;
  95              		.loc 1 95 0 discriminator 3
  96 0058 7B69     		ldr	r3, [r7, #20]
  97 005a 0022     		movs	r2, #0
  98 005c 1A81     		strh	r2, [r3, #8]	@ movhi
  96:..\..\..\..\..\..\uCOS-III\Source/os_msg.c ****         p_msg1->MsgTS   = (CPU_TS     )0u;
  99              		.loc 1 96 0 discriminator 3
 100 005e 7B69     		ldr	r3, [r7, #20]
 101 0060 0022     		movs	r2, #0
 102 0062 DA60     		str	r2, [r3, #12]
  97:..\..\..\..\..\..\uCOS-III\Source/os_msg.c ****         p_msg1++;
 103              		.loc 1 97 0 discriminator 3
 104 0064 7B69     		ldr	r3, [r7, #20]
 105 0066 1033     		adds	r3, r3, #16
 106 0068 7B61     		str	r3, [r7, #20]
  98:..\..\..\..\..\..\uCOS-III\Source/os_msg.c ****         p_msg2++;
 107              		.loc 1 98 0 discriminator 3
 108 006a 3B69     		ldr	r3, [r7, #16]
 109 006c 1033     		adds	r3, r3, #16
 110 006e 3B61     		str	r3, [r7, #16]
  92:..\..\..\..\..\..\uCOS-III\Source/os_msg.c ****         p_msg1->NextPtr = p_msg2;
 111              		.loc 1 92 0 discriminator 3
 112 0070 FB89     		ldrh	r3, [r7, #14]
 113 0072 0133     		adds	r3, r3, #1
 114 0074 FB81     		strh	r3, [r7, #14]	@ movhi
 115              	.L5:
  92:..\..\..\..\..\..\uCOS-III\Source/os_msg.c ****         p_msg1->NextPtr = p_msg2;
 116              		.loc 1 92 0 is_stmt 0 discriminator 1
 117 0076 FA89     		ldrh	r2, [r7, #14]
 118 0078 BB89     		ldrh	r3, [r7, #12]
 119 007a 9A42     		cmp	r2, r3
 120 007c E6D3     		bcc	.L6
  99:..\..\..\..\..\..\uCOS-III\Source/os_msg.c ****     }
 100:..\..\..\..\..\..\uCOS-III\Source/os_msg.c ****     p_msg1->NextPtr = (OS_MSG    *)0;                       /* Last OS_MSG                         
 121              		.loc 1 100 0 is_stmt 1
 122 007e 7B69     		ldr	r3, [r7, #20]
 123 0080 0022     		movs	r2, #0
 124 0082 1A60     		str	r2, [r3]
 101:..\..\..\..\..\..\uCOS-III\Source/os_msg.c ****     p_msg1->MsgPtr  = (void      *)0;
 125              		.loc 1 101 0
ARM GAS  C:\Users\alex\AppData\Local\Temp\cco4xbCY.s 			page 5


 126 0084 7B69     		ldr	r3, [r7, #20]
 127 0086 0022     		movs	r2, #0
 128 0088 5A60     		str	r2, [r3, #4]
 102:..\..\..\..\..\..\uCOS-III\Source/os_msg.c ****     p_msg1->MsgSize = (OS_MSG_SIZE)0u;
 129              		.loc 1 102 0
 130 008a 7B69     		ldr	r3, [r7, #20]
 131 008c 0022     		movs	r2, #0
 132 008e 1A81     		strh	r2, [r3, #8]	@ movhi
 103:..\..\..\..\..\..\uCOS-III\Source/os_msg.c ****     p_msg1->MsgTS   = (CPU_TS     )0u;
 133              		.loc 1 103 0
 134 0090 7B69     		ldr	r3, [r7, #20]
 135 0092 0022     		movs	r2, #0
 136 0094 DA60     		str	r2, [r3, #12]
 104:..\..\..\..\..\..\uCOS-III\Source/os_msg.c **** 
 105:..\..\..\..\..\..\uCOS-III\Source/os_msg.c ****     OSMsgPool.NextPtr    =  OSCfg_MsgPoolBasePtr;
 137              		.loc 1 105 0
 138 0096 0A4B     		ldr	r3, .L7
 139 0098 1B68     		ldr	r3, [r3]
 140 009a 0B4A     		ldr	r2, .L7+8
 141 009c 1360     		str	r3, [r2]
 106:..\..\..\..\..\..\uCOS-III\Source/os_msg.c ****     OSMsgPool.NbrFree    =  OSCfg_MsgPoolSize;
 142              		.loc 1 106 0
 143 009e 094B     		ldr	r3, .L7+4
 144 00a0 1A88     		ldrh	r2, [r3]
 145 00a2 094B     		ldr	r3, .L7+8
 146 00a4 9A80     		strh	r2, [r3, #4]	@ movhi
 107:..\..\..\..\..\..\uCOS-III\Source/os_msg.c ****     OSMsgPool.NbrUsed    = (OS_MSG_QTY)0;
 147              		.loc 1 107 0
 148 00a6 084B     		ldr	r3, .L7+8
 149 00a8 0022     		movs	r2, #0
 150 00aa DA80     		strh	r2, [r3, #6]	@ movhi
 108:..\..\..\..\..\..\uCOS-III\Source/os_msg.c ****     OSMsgPool.NbrUsedMax = (OS_MSG_QTY)0;
 151              		.loc 1 108 0
 152 00ac 064B     		ldr	r3, .L7+8
 153 00ae 0022     		movs	r2, #0
 154 00b0 1A81     		strh	r2, [r3, #8]	@ movhi
 109:..\..\..\..\..\..\uCOS-III\Source/os_msg.c ****    *p_err                =  OS_ERR_NONE;
 155              		.loc 1 109 0
 156 00b2 7B68     		ldr	r3, [r7, #4]
 157 00b4 0022     		movs	r2, #0
 158 00b6 1A80     		strh	r2, [r3]	@ movhi
 159              	.L1:
 110:..\..\..\..\..\..\uCOS-III\Source/os_msg.c **** }
 160              		.loc 1 110 0
 161 00b8 1C37     		adds	r7, r7, #28
 162              		.cfi_def_cfa_offset 4
 163 00ba BD46     		mov	sp, r7
 164              		.cfi_def_cfa_register 13
 165              		@ sp needed
 166 00bc 80BC     		pop	{r7}
 167              		.cfi_restore 7
 168              		.cfi_def_cfa_offset 0
 169 00be 7047     		bx	lr
 170              	.L8:
 171              		.align	2
 172              	.L7:
 173 00c0 00000000 		.word	OSCfg_MsgPoolBasePtr
ARM GAS  C:\Users\alex\AppData\Local\Temp\cco4xbCY.s 			page 6


 174 00c4 00000000 		.word	OSCfg_MsgPoolSize
 175 00c8 00000000 		.word	OSMsgPool
 176              		.cfi_endproc
 177              	.LFE0:
 178              		.size	OS_MsgPoolInit, .-OS_MsgPoolInit
 179              		.section	.text.OS_MsgQFreeAll,"ax",%progbits
 180              		.align	2
 181              		.global	OS_MsgQFreeAll
 182              		.thumb
 183              		.thumb_func
 184              		.type	OS_MsgQFreeAll, %function
 185              	OS_MsgQFreeAll:
 186              	.LFB1:
 111:..\..\..\..\..\..\uCOS-III\Source/os_msg.c **** 
 112:..\..\..\..\..\..\uCOS-III\Source/os_msg.c **** /*$PAGE*/
 113:..\..\..\..\..\..\uCOS-III\Source/os_msg.c **** /*
 114:..\..\..\..\..\..\uCOS-III\Source/os_msg.c **** ***************************************************************************************************
 115:..\..\..\..\..\..\uCOS-III\Source/os_msg.c **** *                                        RELEASE ALL MESSAGE IN MESSAGE QUEUE
 116:..\..\..\..\..\..\uCOS-III\Source/os_msg.c **** *
 117:..\..\..\..\..\..\uCOS-III\Source/os_msg.c **** * Description: This function returns all the messages in a message queue to the free list.
 118:..\..\..\..\..\..\uCOS-III\Source/os_msg.c **** *
 119:..\..\..\..\..\..\uCOS-III\Source/os_msg.c **** * Arguments  : p_msg_q       is a pointer to the OS_MSG_Q structure containing messages to free.
 120:..\..\..\..\..\..\uCOS-III\Source/os_msg.c **** *              -------
 121:..\..\..\..\..\..\uCOS-III\Source/os_msg.c **** *
 122:..\..\..\..\..\..\uCOS-III\Source/os_msg.c **** * Returns    : the number of OS_MSGs returned to the free list
 123:..\..\..\..\..\..\uCOS-III\Source/os_msg.c **** *
 124:..\..\..\..\..\..\uCOS-III\Source/os_msg.c **** * Note(s)    : 1) This function is INTERNAL to uC/OS-III and your application MUST NOT call it.
 125:..\..\..\..\..\..\uCOS-III\Source/os_msg.c **** ***************************************************************************************************
 126:..\..\..\..\..\..\uCOS-III\Source/os_msg.c **** */
 127:..\..\..\..\..\..\uCOS-III\Source/os_msg.c **** 
 128:..\..\..\..\..\..\uCOS-III\Source/os_msg.c **** OS_MSG_QTY  OS_MsgQFreeAll (OS_MSG_Q  *p_msg_q)
 129:..\..\..\..\..\..\uCOS-III\Source/os_msg.c **** {
 187              		.loc 1 129 0
 188              		.cfi_startproc
 189              		@ args = 0, pretend = 0, frame = 16
 190              		@ frame_needed = 1, uses_anonymous_args = 0
 191              		@ link register save eliminated.
 192 0000 80B4     		push	{r7}
 193              		.cfi_def_cfa_offset 4
 194              		.cfi_offset 7, -4
 195 0002 85B0     		sub	sp, sp, #20
 196              		.cfi_def_cfa_offset 24
 197 0004 00AF     		add	r7, sp, #0
 198              		.cfi_def_cfa_register 7
 199 0006 7860     		str	r0, [r7, #4]
 130:..\..\..\..\..\..\uCOS-III\Source/os_msg.c ****     OS_MSG      *p_msg;
 131:..\..\..\..\..\..\uCOS-III\Source/os_msg.c ****     OS_MSG_QTY   qty;
 132:..\..\..\..\..\..\uCOS-III\Source/os_msg.c **** 
 133:..\..\..\..\..\..\uCOS-III\Source/os_msg.c **** 
 134:..\..\..\..\..\..\uCOS-III\Source/os_msg.c **** 
 135:..\..\..\..\..\..\uCOS-III\Source/os_msg.c ****     qty = p_msg_q->NbrEntries;                              /* Get the number of OS_MSGs being free
 200              		.loc 1 135 0
 201 0008 7B68     		ldr	r3, [r7, #4]
 202 000a 5B89     		ldrh	r3, [r3, #10]	@ movhi
 203 000c FB81     		strh	r3, [r7, #14]	@ movhi
 136:..\..\..\..\..\..\uCOS-III\Source/os_msg.c ****     if (p_msg_q->NbrEntries > (OS_MSG_QTY)0) {
 204              		.loc 1 136 0
ARM GAS  C:\Users\alex\AppData\Local\Temp\cco4xbCY.s 			page 7


 205 000e 7B68     		ldr	r3, [r7, #4]
 206 0010 5B89     		ldrh	r3, [r3, #10]
 207 0012 002B     		cmp	r3, #0
 208 0014 26D0     		beq	.L10
 137:..\..\..\..\..\..\uCOS-III\Source/os_msg.c ****         p_msg                   = p_msg_q->InPtr;           /* Point to end of message chain       
 209              		.loc 1 137 0
 210 0016 7B68     		ldr	r3, [r7, #4]
 211 0018 1B68     		ldr	r3, [r3]
 212 001a BB60     		str	r3, [r7, #8]
 138:..\..\..\..\..\..\uCOS-III\Source/os_msg.c ****         p_msg->NextPtr          = OSMsgPool.NextPtr;
 213              		.loc 1 138 0
 214 001c 144B     		ldr	r3, .L12
 215 001e 1A68     		ldr	r2, [r3]
 216 0020 BB68     		ldr	r3, [r7, #8]
 217 0022 1A60     		str	r2, [r3]
 139:..\..\..\..\..\..\uCOS-III\Source/os_msg.c ****         OSMsgPool.NextPtr       = p_msg_q->OutPtr;          /* Point to beginning of message chain 
 218              		.loc 1 139 0
 219 0024 7B68     		ldr	r3, [r7, #4]
 220 0026 5B68     		ldr	r3, [r3, #4]
 221 0028 114A     		ldr	r2, .L12
 222 002a 1360     		str	r3, [r2]
 140:..\..\..\..\..\..\uCOS-III\Source/os_msg.c ****         OSMsgPool.NbrUsed      -= p_msg_q->NbrEntries;      /* Update statistics for free list of m
 223              		.loc 1 140 0
 224 002c 104B     		ldr	r3, .L12
 225 002e DA88     		ldrh	r2, [r3, #6]
 226 0030 7B68     		ldr	r3, [r7, #4]
 227 0032 5B89     		ldrh	r3, [r3, #10]
 228 0034 D31A     		subs	r3, r2, r3
 229 0036 9AB2     		uxth	r2, r3
 230 0038 0D4B     		ldr	r3, .L12
 231 003a DA80     		strh	r2, [r3, #6]	@ movhi
 141:..\..\..\..\..\..\uCOS-III\Source/os_msg.c ****         OSMsgPool.NbrFree      += p_msg_q->NbrEntries;
 232              		.loc 1 141 0
 233 003c 0C4B     		ldr	r3, .L12
 234 003e 9A88     		ldrh	r2, [r3, #4]
 235 0040 7B68     		ldr	r3, [r7, #4]
 236 0042 5B89     		ldrh	r3, [r3, #10]
 237 0044 1344     		add	r3, r3, r2
 238 0046 9AB2     		uxth	r2, r3
 239 0048 094B     		ldr	r3, .L12
 240 004a 9A80     		strh	r2, [r3, #4]	@ movhi
 142:..\..\..\..\..\..\uCOS-III\Source/os_msg.c ****         p_msg_q->NbrEntries     = (OS_MSG_QTY)0;            /* Flush the message queue             
 241              		.loc 1 142 0
 242 004c 7B68     		ldr	r3, [r7, #4]
 243 004e 0022     		movs	r2, #0
 244 0050 5A81     		strh	r2, [r3, #10]	@ movhi
 143:..\..\..\..\..\..\uCOS-III\Source/os_msg.c ****         p_msg_q->NbrEntriesMax  = (OS_MSG_QTY)0;
 245              		.loc 1 143 0
 246 0052 7B68     		ldr	r3, [r7, #4]
 247 0054 0022     		movs	r2, #0
 248 0056 9A81     		strh	r2, [r3, #12]	@ movhi
 144:..\..\..\..\..\..\uCOS-III\Source/os_msg.c ****         p_msg_q->InPtr          = (OS_MSG   *)0;
 249              		.loc 1 144 0
 250 0058 7B68     		ldr	r3, [r7, #4]
 251 005a 0022     		movs	r2, #0
 252 005c 1A60     		str	r2, [r3]
 145:..\..\..\..\..\..\uCOS-III\Source/os_msg.c ****         p_msg_q->OutPtr         = (OS_MSG   *)0;
ARM GAS  C:\Users\alex\AppData\Local\Temp\cco4xbCY.s 			page 8


 253              		.loc 1 145 0
 254 005e 7B68     		ldr	r3, [r7, #4]
 255 0060 0022     		movs	r2, #0
 256 0062 5A60     		str	r2, [r3, #4]
 257              	.L10:
 146:..\..\..\..\..\..\uCOS-III\Source/os_msg.c ****     }
 147:..\..\..\..\..\..\uCOS-III\Source/os_msg.c ****     return (qty);
 258              		.loc 1 147 0
 259 0064 FB89     		ldrh	r3, [r7, #14]
 148:..\..\..\..\..\..\uCOS-III\Source/os_msg.c **** }
 260              		.loc 1 148 0
 261 0066 1846     		mov	r0, r3
 262 0068 1437     		adds	r7, r7, #20
 263              		.cfi_def_cfa_offset 4
 264 006a BD46     		mov	sp, r7
 265              		.cfi_def_cfa_register 13
 266              		@ sp needed
 267 006c 80BC     		pop	{r7}
 268              		.cfi_restore 7
 269              		.cfi_def_cfa_offset 0
 270 006e 7047     		bx	lr
 271              	.L13:
 272              		.align	2
 273              	.L12:
 274 0070 00000000 		.word	OSMsgPool
 275              		.cfi_endproc
 276              	.LFE1:
 277              		.size	OS_MsgQFreeAll, .-OS_MsgQFreeAll
 278              		.section	.text.OS_MsgQInit,"ax",%progbits
 279              		.align	2
 280              		.global	OS_MsgQInit
 281              		.thumb
 282              		.thumb_func
 283              		.type	OS_MsgQInit, %function
 284              	OS_MsgQInit:
 285              	.LFB2:
 149:..\..\..\..\..\..\uCOS-III\Source/os_msg.c **** 
 150:..\..\..\..\..\..\uCOS-III\Source/os_msg.c **** /*$PAGE*/
 151:..\..\..\..\..\..\uCOS-III\Source/os_msg.c **** /*
 152:..\..\..\..\..\..\uCOS-III\Source/os_msg.c **** ***************************************************************************************************
 153:..\..\..\..\..\..\uCOS-III\Source/os_msg.c **** *                                               INITIALIZE A MESSAGE QUEUE
 154:..\..\..\..\..\..\uCOS-III\Source/os_msg.c **** *
 155:..\..\..\..\..\..\uCOS-III\Source/os_msg.c **** * Description: This function is called to initialize a message queue
 156:..\..\..\..\..\..\uCOS-III\Source/os_msg.c **** *
 157:..\..\..\..\..\..\uCOS-III\Source/os_msg.c **** * Arguments  : p_msg_q      is a pointer to the message queue to initialize
 158:..\..\..\..\..\..\uCOS-III\Source/os_msg.c **** *              -------
 159:..\..\..\..\..\..\uCOS-III\Source/os_msg.c **** *
 160:..\..\..\..\..\..\uCOS-III\Source/os_msg.c **** *              max          is the maximum number of entries that a message queue can have.
 161:..\..\..\..\..\..\uCOS-III\Source/os_msg.c **** *
 162:..\..\..\..\..\..\uCOS-III\Source/os_msg.c **** * Returns    : none
 163:..\..\..\..\..\..\uCOS-III\Source/os_msg.c **** *
 164:..\..\..\..\..\..\uCOS-III\Source/os_msg.c **** * Note(s)    : 1) This function is INTERNAL to uC/OS-III and your application MUST NOT call it.
 165:..\..\..\..\..\..\uCOS-III\Source/os_msg.c **** ***************************************************************************************************
 166:..\..\..\..\..\..\uCOS-III\Source/os_msg.c **** */
 167:..\..\..\..\..\..\uCOS-III\Source/os_msg.c **** 
 168:..\..\..\..\..\..\uCOS-III\Source/os_msg.c **** void  OS_MsgQInit (OS_MSG_Q    *p_msg_q,
 169:..\..\..\..\..\..\uCOS-III\Source/os_msg.c ****                    OS_MSG_QTY   size)
ARM GAS  C:\Users\alex\AppData\Local\Temp\cco4xbCY.s 			page 9


 170:..\..\..\..\..\..\uCOS-III\Source/os_msg.c **** {
 286              		.loc 1 170 0
 287              		.cfi_startproc
 288              		@ args = 0, pretend = 0, frame = 8
 289              		@ frame_needed = 1, uses_anonymous_args = 0
 290              		@ link register save eliminated.
 291 0000 80B4     		push	{r7}
 292              		.cfi_def_cfa_offset 4
 293              		.cfi_offset 7, -4
 294 0002 83B0     		sub	sp, sp, #12
 295              		.cfi_def_cfa_offset 16
 296 0004 00AF     		add	r7, sp, #0
 297              		.cfi_def_cfa_register 7
 298 0006 7860     		str	r0, [r7, #4]
 299 0008 0B46     		mov	r3, r1
 300 000a 7B80     		strh	r3, [r7, #2]	@ movhi
 171:..\..\..\..\..\..\uCOS-III\Source/os_msg.c ****     p_msg_q->NbrEntriesSize = (OS_MSG_QTY)size;
 301              		.loc 1 171 0
 302 000c 7B68     		ldr	r3, [r7, #4]
 303 000e 7A88     		ldrh	r2, [r7, #2]	@ movhi
 304 0010 1A81     		strh	r2, [r3, #8]	@ movhi
 172:..\..\..\..\..\..\uCOS-III\Source/os_msg.c ****     p_msg_q->NbrEntries     = (OS_MSG_QTY)0;
 305              		.loc 1 172 0
 306 0012 7B68     		ldr	r3, [r7, #4]
 307 0014 0022     		movs	r2, #0
 308 0016 5A81     		strh	r2, [r3, #10]	@ movhi
 173:..\..\..\..\..\..\uCOS-III\Source/os_msg.c ****     p_msg_q->NbrEntriesMax  = (OS_MSG_QTY)0;
 309              		.loc 1 173 0
 310 0018 7B68     		ldr	r3, [r7, #4]
 311 001a 0022     		movs	r2, #0
 312 001c 9A81     		strh	r2, [r3, #12]	@ movhi
 174:..\..\..\..\..\..\uCOS-III\Source/os_msg.c ****     p_msg_q->InPtr          = (OS_MSG   *)0;
 313              		.loc 1 174 0
 314 001e 7B68     		ldr	r3, [r7, #4]
 315 0020 0022     		movs	r2, #0
 316 0022 1A60     		str	r2, [r3]
 175:..\..\..\..\..\..\uCOS-III\Source/os_msg.c ****     p_msg_q->OutPtr         = (OS_MSG   *)0;
 317              		.loc 1 175 0
 318 0024 7B68     		ldr	r3, [r7, #4]
 319 0026 0022     		movs	r2, #0
 320 0028 5A60     		str	r2, [r3, #4]
 176:..\..\..\..\..\..\uCOS-III\Source/os_msg.c **** }
 321              		.loc 1 176 0
 322 002a 00BF     		nop
 323 002c 0C37     		adds	r7, r7, #12
 324              		.cfi_def_cfa_offset 4
 325 002e BD46     		mov	sp, r7
 326              		.cfi_def_cfa_register 13
 327              		@ sp needed
 328 0030 80BC     		pop	{r7}
 329              		.cfi_restore 7
 330              		.cfi_def_cfa_offset 0
 331 0032 7047     		bx	lr
 332              		.cfi_endproc
 333              	.LFE2:
 334              		.size	OS_MsgQInit, .-OS_MsgQInit
 335              		.section	.text.OS_MsgQGet,"ax",%progbits
ARM GAS  C:\Users\alex\AppData\Local\Temp\cco4xbCY.s 			page 10


 336              		.align	2
 337              		.global	OS_MsgQGet
 338              		.thumb
 339              		.thumb_func
 340              		.type	OS_MsgQGet, %function
 341              	OS_MsgQGet:
 342              	.LFB3:
 177:..\..\..\..\..\..\uCOS-III\Source/os_msg.c **** 
 178:..\..\..\..\..\..\uCOS-III\Source/os_msg.c **** /*$PAGE*/
 179:..\..\..\..\..\..\uCOS-III\Source/os_msg.c **** /*
 180:..\..\..\..\..\..\uCOS-III\Source/os_msg.c **** ***************************************************************************************************
 181:..\..\..\..\..\..\uCOS-III\Source/os_msg.c **** *                                           RETRIEVE MESSAGE FROM MESSAGE QUEUE
 182:..\..\..\..\..\..\uCOS-III\Source/os_msg.c **** *
 183:..\..\..\..\..\..\uCOS-III\Source/os_msg.c **** * Description: This function retrieves a message from a message queue
 184:..\..\..\..\..\..\uCOS-III\Source/os_msg.c **** *
 185:..\..\..\..\..\..\uCOS-III\Source/os_msg.c **** * Arguments  : p_msg_q     is a pointer to the message queue where we want to extract the message f
 186:..\..\..\..\..\..\uCOS-III\Source/os_msg.c **** *              -------
 187:..\..\..\..\..\..\uCOS-III\Source/os_msg.c **** *
 188:..\..\..\..\..\..\uCOS-III\Source/os_msg.c **** *              p_msg_size  is a pointer to where the size (in bytes) of the message will be placed
 189:..\..\..\..\..\..\uCOS-III\Source/os_msg.c **** *
 190:..\..\..\..\..\..\uCOS-III\Source/os_msg.c **** *              p_ts        is a pointer to where the time stamp will be placed
 191:..\..\..\..\..\..\uCOS-III\Source/os_msg.c **** *
 192:..\..\..\..\..\..\uCOS-III\Source/os_msg.c **** *              p_err       is a pointer to an error code that will be returned from this call.
 193:..\..\..\..\..\..\uCOS-III\Source/os_msg.c **** *
 194:..\..\..\..\..\..\uCOS-III\Source/os_msg.c **** *                              OS_ERR_Q_EMPTY
 195:..\..\..\..\..\..\uCOS-III\Source/os_msg.c **** *                              OS_ERR_NONE
 196:..\..\..\..\..\..\uCOS-III\Source/os_msg.c **** *
 197:..\..\..\..\..\..\uCOS-III\Source/os_msg.c **** * Returns    : The message (a pointer)
 198:..\..\..\..\..\..\uCOS-III\Source/os_msg.c **** *
 199:..\..\..\..\..\..\uCOS-III\Source/os_msg.c **** * Note(s)    : 1) This function is INTERNAL to uC/OS-III and your application MUST NOT call it.
 200:..\..\..\..\..\..\uCOS-III\Source/os_msg.c **** ***************************************************************************************************
 201:..\..\..\..\..\..\uCOS-III\Source/os_msg.c **** */
 202:..\..\..\..\..\..\uCOS-III\Source/os_msg.c **** 
 203:..\..\..\..\..\..\uCOS-III\Source/os_msg.c **** void  *OS_MsgQGet (OS_MSG_Q     *p_msg_q,
 204:..\..\..\..\..\..\uCOS-III\Source/os_msg.c ****                    OS_MSG_SIZE  *p_msg_size,
 205:..\..\..\..\..\..\uCOS-III\Source/os_msg.c ****                    CPU_TS       *p_ts,
 206:..\..\..\..\..\..\uCOS-III\Source/os_msg.c ****                    OS_ERR       *p_err)
 207:..\..\..\..\..\..\uCOS-III\Source/os_msg.c **** {
 343              		.loc 1 207 0
 344              		.cfi_startproc
 345              		@ args = 0, pretend = 0, frame = 24
 346              		@ frame_needed = 1, uses_anonymous_args = 0
 347              		@ link register save eliminated.
 348 0000 80B4     		push	{r7}
 349              		.cfi_def_cfa_offset 4
 350              		.cfi_offset 7, -4
 351 0002 87B0     		sub	sp, sp, #28
 352              		.cfi_def_cfa_offset 32
 353 0004 00AF     		add	r7, sp, #0
 354              		.cfi_def_cfa_register 7
 355 0006 F860     		str	r0, [r7, #12]
 356 0008 B960     		str	r1, [r7, #8]
 357 000a 7A60     		str	r2, [r7, #4]
 358 000c 3B60     		str	r3, [r7]
 208:..\..\..\..\..\..\uCOS-III\Source/os_msg.c ****     OS_MSG  *p_msg;
 209:..\..\..\..\..\..\uCOS-III\Source/os_msg.c ****     void    *p_void;
 210:..\..\..\..\..\..\uCOS-III\Source/os_msg.c **** 
ARM GAS  C:\Users\alex\AppData\Local\Temp\cco4xbCY.s 			page 11


 211:..\..\..\..\..\..\uCOS-III\Source/os_msg.c **** 
 212:..\..\..\..\..\..\uCOS-III\Source/os_msg.c **** 
 213:..\..\..\..\..\..\uCOS-III\Source/os_msg.c **** #ifdef OS_SAFETY_CRITICAL
 214:..\..\..\..\..\..\uCOS-III\Source/os_msg.c ****     if (p_err == (OS_ERR *)0) {
 215:..\..\..\..\..\..\uCOS-III\Source/os_msg.c ****         OS_SAFETY_CRITICAL_EXCEPTION();
 216:..\..\..\..\..\..\uCOS-III\Source/os_msg.c ****         return ((void *)0);
 217:..\..\..\..\..\..\uCOS-III\Source/os_msg.c ****     }
 218:..\..\..\..\..\..\uCOS-III\Source/os_msg.c **** #endif
 219:..\..\..\..\..\..\uCOS-III\Source/os_msg.c **** 
 220:..\..\..\..\..\..\uCOS-III\Source/os_msg.c ****     if (p_msg_q->NbrEntries == (OS_MSG_QTY)0) {             /* Is the queue empty?                 
 359              		.loc 1 220 0
 360 000e FB68     		ldr	r3, [r7, #12]
 361 0010 5B89     		ldrh	r3, [r3, #10]
 362 0012 002B     		cmp	r3, #0
 363 0014 0ED1     		bne	.L16
 221:..\..\..\..\..\..\uCOS-III\Source/os_msg.c ****        *p_msg_size = (OS_MSG_SIZE)0;                        /* Yes                                 
 364              		.loc 1 221 0
 365 0016 BB68     		ldr	r3, [r7, #8]
 366 0018 0022     		movs	r2, #0
 367 001a 1A80     		strh	r2, [r3]	@ movhi
 222:..\..\..\..\..\..\uCOS-III\Source/os_msg.c ****         if (p_ts != (CPU_TS *)0) {
 368              		.loc 1 222 0
 369 001c 7B68     		ldr	r3, [r7, #4]
 370 001e 002B     		cmp	r3, #0
 371 0020 02D0     		beq	.L17
 223:..\..\..\..\..\..\uCOS-III\Source/os_msg.c ****            *p_ts  = (CPU_TS  )0;
 372              		.loc 1 223 0
 373 0022 7B68     		ldr	r3, [r7, #4]
 374 0024 0022     		movs	r2, #0
 375 0026 1A60     		str	r2, [r3]
 376              	.L17:
 224:..\..\..\..\..\..\uCOS-III\Source/os_msg.c ****         }
 225:..\..\..\..\..\..\uCOS-III\Source/os_msg.c ****        *p_err = OS_ERR_Q_EMPTY;
 377              		.loc 1 225 0
 378 0028 3B68     		ldr	r3, [r7]
 379 002a 46F29252 		movw	r2, #26002
 380 002e 1A80     		strh	r2, [r3]	@ movhi
 226:..\..\..\..\..\..\uCOS-III\Source/os_msg.c ****         return ((void *)0);
 381              		.loc 1 226 0
 382 0030 0023     		movs	r3, #0
 383 0032 3CE0     		b	.L18
 384              	.L16:
 227:..\..\..\..\..\..\uCOS-III\Source/os_msg.c ****     }
 228:..\..\..\..\..\..\uCOS-III\Source/os_msg.c **** 
 229:..\..\..\..\..\..\uCOS-III\Source/os_msg.c ****     p_msg           = p_msg_q->OutPtr;                      /* No, get the next message to extract 
 385              		.loc 1 229 0
 386 0034 FB68     		ldr	r3, [r7, #12]
 387 0036 5B68     		ldr	r3, [r3, #4]
 388 0038 7B61     		str	r3, [r7, #20]
 230:..\..\..\..\..\..\uCOS-III\Source/os_msg.c ****     p_void          = p_msg->MsgPtr;
 389              		.loc 1 230 0
 390 003a 7B69     		ldr	r3, [r7, #20]
 391 003c 5B68     		ldr	r3, [r3, #4]
 392 003e 3B61     		str	r3, [r7, #16]
 231:..\..\..\..\..\..\uCOS-III\Source/os_msg.c ****    *p_msg_size      = p_msg->MsgSize;
 393              		.loc 1 231 0
 394 0040 7B69     		ldr	r3, [r7, #20]
ARM GAS  C:\Users\alex\AppData\Local\Temp\cco4xbCY.s 			page 12


 395 0042 1A89     		ldrh	r2, [r3, #8]
 396 0044 BB68     		ldr	r3, [r7, #8]
 397 0046 1A80     		strh	r2, [r3]	@ movhi
 232:..\..\..\..\..\..\uCOS-III\Source/os_msg.c ****     if (p_ts != (CPU_TS *)0) {
 398              		.loc 1 232 0
 399 0048 7B68     		ldr	r3, [r7, #4]
 400 004a 002B     		cmp	r3, #0
 401 004c 03D0     		beq	.L19
 233:..\..\..\..\..\..\uCOS-III\Source/os_msg.c ****        *p_ts  = p_msg->MsgTS;
 402              		.loc 1 233 0
 403 004e 7B69     		ldr	r3, [r7, #20]
 404 0050 DA68     		ldr	r2, [r3, #12]
 405 0052 7B68     		ldr	r3, [r7, #4]
 406 0054 1A60     		str	r2, [r3]
 407              	.L19:
 234:..\..\..\..\..\..\uCOS-III\Source/os_msg.c ****     }
 235:..\..\..\..\..\..\uCOS-III\Source/os_msg.c **** 
 236:..\..\..\..\..\..\uCOS-III\Source/os_msg.c ****     p_msg_q->OutPtr = p_msg->NextPtr;                       /* Point to next message to extract    
 408              		.loc 1 236 0
 409 0056 7B69     		ldr	r3, [r7, #20]
 410 0058 1A68     		ldr	r2, [r3]
 411 005a FB68     		ldr	r3, [r7, #12]
 412 005c 5A60     		str	r2, [r3, #4]
 237:..\..\..\..\..\..\uCOS-III\Source/os_msg.c **** 
 238:..\..\..\..\..\..\uCOS-III\Source/os_msg.c ****     if (p_msg_q->OutPtr == (OS_MSG *)0) {                   /* Are there any more messages in the q
 413              		.loc 1 238 0
 414 005e FB68     		ldr	r3, [r7, #12]
 415 0060 5B68     		ldr	r3, [r3, #4]
 416 0062 002B     		cmp	r3, #0
 417 0064 06D1     		bne	.L20
 239:..\..\..\..\..\..\uCOS-III\Source/os_msg.c ****         p_msg_q->InPtr      = (OS_MSG   *)0;                /* No                                  
 418              		.loc 1 239 0
 419 0066 FB68     		ldr	r3, [r7, #12]
 420 0068 0022     		movs	r2, #0
 421 006a 1A60     		str	r2, [r3]
 240:..\..\..\..\..\..\uCOS-III\Source/os_msg.c ****         p_msg_q->NbrEntries = (OS_MSG_QTY)0;
 422              		.loc 1 240 0
 423 006c FB68     		ldr	r3, [r7, #12]
 424 006e 0022     		movs	r2, #0
 425 0070 5A81     		strh	r2, [r3, #10]	@ movhi
 426 0072 05E0     		b	.L21
 427              	.L20:
 241:..\..\..\..\..\..\uCOS-III\Source/os_msg.c ****     } else {
 242:..\..\..\..\..\..\uCOS-III\Source/os_msg.c ****         p_msg_q->NbrEntries--;                              /* Yes, One less message in the queue  
 428              		.loc 1 242 0
 429 0074 FB68     		ldr	r3, [r7, #12]
 430 0076 5B89     		ldrh	r3, [r3, #10]
 431 0078 013B     		subs	r3, r3, #1
 432 007a 9AB2     		uxth	r2, r3
 433 007c FB68     		ldr	r3, [r7, #12]
 434 007e 5A81     		strh	r2, [r3, #10]	@ movhi
 435              	.L21:
 243:..\..\..\..\..\..\uCOS-III\Source/os_msg.c ****     }
 244:..\..\..\..\..\..\uCOS-III\Source/os_msg.c **** 
 245:..\..\..\..\..\..\uCOS-III\Source/os_msg.c ****     p_msg->NextPtr    = OSMsgPool.NextPtr;                  /* Return message control block to free
 436              		.loc 1 245 0
 437 0080 0D4B     		ldr	r3, .L22
ARM GAS  C:\Users\alex\AppData\Local\Temp\cco4xbCY.s 			page 13


 438 0082 1A68     		ldr	r2, [r3]
 439 0084 7B69     		ldr	r3, [r7, #20]
 440 0086 1A60     		str	r2, [r3]
 246:..\..\..\..\..\..\uCOS-III\Source/os_msg.c ****     OSMsgPool.NextPtr = p_msg;
 441              		.loc 1 246 0
 442 0088 0B4A     		ldr	r2, .L22
 443 008a 7B69     		ldr	r3, [r7, #20]
 444 008c 1360     		str	r3, [r2]
 247:..\..\..\..\..\..\uCOS-III\Source/os_msg.c ****     OSMsgPool.NbrFree++;
 445              		.loc 1 247 0
 446 008e 0A4B     		ldr	r3, .L22
 447 0090 9B88     		ldrh	r3, [r3, #4]
 448 0092 0133     		adds	r3, r3, #1
 449 0094 9AB2     		uxth	r2, r3
 450 0096 084B     		ldr	r3, .L22
 451 0098 9A80     		strh	r2, [r3, #4]	@ movhi
 248:..\..\..\..\..\..\uCOS-III\Source/os_msg.c ****     OSMsgPool.NbrUsed--;
 452              		.loc 1 248 0
 453 009a 074B     		ldr	r3, .L22
 454 009c DB88     		ldrh	r3, [r3, #6]
 455 009e 013B     		subs	r3, r3, #1
 456 00a0 9AB2     		uxth	r2, r3
 457 00a2 054B     		ldr	r3, .L22
 458 00a4 DA80     		strh	r2, [r3, #6]	@ movhi
 249:..\..\..\..\..\..\uCOS-III\Source/os_msg.c **** 
 250:..\..\..\..\..\..\uCOS-III\Source/os_msg.c ****    *p_err             = OS_ERR_NONE;
 459              		.loc 1 250 0
 460 00a6 3B68     		ldr	r3, [r7]
 461 00a8 0022     		movs	r2, #0
 462 00aa 1A80     		strh	r2, [r3]	@ movhi
 251:..\..\..\..\..\..\uCOS-III\Source/os_msg.c ****     return (p_void);
 463              		.loc 1 251 0
 464 00ac 3B69     		ldr	r3, [r7, #16]
 465              	.L18:
 252:..\..\..\..\..\..\uCOS-III\Source/os_msg.c **** }
 466              		.loc 1 252 0
 467 00ae 1846     		mov	r0, r3
 468 00b0 1C37     		adds	r7, r7, #28
 469              		.cfi_def_cfa_offset 4
 470 00b2 BD46     		mov	sp, r7
 471              		.cfi_def_cfa_register 13
 472              		@ sp needed
 473 00b4 80BC     		pop	{r7}
 474              		.cfi_restore 7
 475              		.cfi_def_cfa_offset 0
 476 00b6 7047     		bx	lr
 477              	.L23:
 478              		.align	2
 479              	.L22:
 480 00b8 00000000 		.word	OSMsgPool
 481              		.cfi_endproc
 482              	.LFE3:
 483              		.size	OS_MsgQGet, .-OS_MsgQGet
 484              		.section	.text.OS_MsgQPut,"ax",%progbits
 485              		.align	2
 486              		.global	OS_MsgQPut
 487              		.thumb
ARM GAS  C:\Users\alex\AppData\Local\Temp\cco4xbCY.s 			page 14


 488              		.thumb_func
 489              		.type	OS_MsgQPut, %function
 490              	OS_MsgQPut:
 491              	.LFB4:
 253:..\..\..\..\..\..\uCOS-III\Source/os_msg.c **** 
 254:..\..\..\..\..\..\uCOS-III\Source/os_msg.c **** /*$PAGE*/
 255:..\..\..\..\..\..\uCOS-III\Source/os_msg.c **** /*
 256:..\..\..\..\..\..\uCOS-III\Source/os_msg.c **** ***************************************************************************************************
 257:..\..\..\..\..\..\uCOS-III\Source/os_msg.c **** *                                           DEPOSIT MESSAGE IN MESSAGE QUEUE
 258:..\..\..\..\..\..\uCOS-III\Source/os_msg.c **** *
 259:..\..\..\..\..\..\uCOS-III\Source/os_msg.c **** * Description: This function places a message in a message queue
 260:..\..\..\..\..\..\uCOS-III\Source/os_msg.c **** *
 261:..\..\..\..\..\..\uCOS-III\Source/os_msg.c **** * Arguments  : p_msg_q     is a pointer to the OS_TCB of the task to post the message to
 262:..\..\..\..\..\..\uCOS-III\Source/os_msg.c **** *              -------
 263:..\..\..\..\..\..\uCOS-III\Source/os_msg.c **** *
 264:..\..\..\..\..\..\uCOS-III\Source/os_msg.c **** *              p_void      is a pointer to the message to send.
 265:..\..\..\..\..\..\uCOS-III\Source/os_msg.c **** *
 266:..\..\..\..\..\..\uCOS-III\Source/os_msg.c **** *              msg_size    is the size of the message (in bytes)
 267:..\..\..\..\..\..\uCOS-III\Source/os_msg.c **** *
 268:..\..\..\..\..\..\uCOS-III\Source/os_msg.c **** *              opt         specifies whether the message will be posted in FIFO or LIFO order
 269:..\..\..\..\..\..\uCOS-III\Source/os_msg.c **** *
 270:..\..\..\..\..\..\uCOS-III\Source/os_msg.c **** *                              OS_OPT_POST_FIFO
 271:..\..\..\..\..\..\uCOS-III\Source/os_msg.c **** *                              OS_OPT_POST_LIFO
 272:..\..\..\..\..\..\uCOS-III\Source/os_msg.c **** *
 273:..\..\..\..\..\..\uCOS-III\Source/os_msg.c **** *              ts          is a timestamp as to when the message was posted
 274:..\..\..\..\..\..\uCOS-III\Source/os_msg.c **** *
 275:..\..\..\..\..\..\uCOS-III\Source/os_msg.c **** *              p_err       is a pointer to a variable that will contain an error code returned by t
 276:..\..\..\..\..\..\uCOS-III\Source/os_msg.c **** *
 277:..\..\..\..\..\..\uCOS-III\Source/os_msg.c **** *                              OS_ERR_Q_MAX           if the queue is full
 278:..\..\..\..\..\..\uCOS-III\Source/os_msg.c **** *                              OS_ERR_MSG_POOL_EMPTY  if we no longer have any OS_MSG to use
 279:..\..\..\..\..\..\uCOS-III\Source/os_msg.c **** *                              OS_ERR_NONE            the message was deposited in the queue
 280:..\..\..\..\..\..\uCOS-III\Source/os_msg.c **** *
 281:..\..\..\..\..\..\uCOS-III\Source/os_msg.c **** * Returns    : none
 282:..\..\..\..\..\..\uCOS-III\Source/os_msg.c **** *
 283:..\..\..\..\..\..\uCOS-III\Source/os_msg.c **** * Note(s)    : 1) This function is INTERNAL to uC/OS-III and your application MUST NOT call it.
 284:..\..\..\..\..\..\uCOS-III\Source/os_msg.c **** ***************************************************************************************************
 285:..\..\..\..\..\..\uCOS-III\Source/os_msg.c **** */
 286:..\..\..\..\..\..\uCOS-III\Source/os_msg.c **** 
 287:..\..\..\..\..\..\uCOS-III\Source/os_msg.c **** void  OS_MsgQPut (OS_MSG_Q     *p_msg_q,
 288:..\..\..\..\..\..\uCOS-III\Source/os_msg.c ****                   void         *p_void,
 289:..\..\..\..\..\..\uCOS-III\Source/os_msg.c ****                   OS_MSG_SIZE   msg_size,
 290:..\..\..\..\..\..\uCOS-III\Source/os_msg.c ****                   OS_OPT        opt,
 291:..\..\..\..\..\..\uCOS-III\Source/os_msg.c ****                   CPU_TS        ts,
 292:..\..\..\..\..\..\uCOS-III\Source/os_msg.c ****                   OS_ERR       *p_err)
 293:..\..\..\..\..\..\uCOS-III\Source/os_msg.c **** {
 492              		.loc 1 293 0
 493              		.cfi_startproc
 494              		@ args = 8, pretend = 0, frame = 24
 495              		@ frame_needed = 1, uses_anonymous_args = 0
 496              		@ link register save eliminated.
 497 0000 80B4     		push	{r7}
 498              		.cfi_def_cfa_offset 4
 499              		.cfi_offset 7, -4
 500 0002 87B0     		sub	sp, sp, #28
 501              		.cfi_def_cfa_offset 32
 502 0004 00AF     		add	r7, sp, #0
 503              		.cfi_def_cfa_register 7
ARM GAS  C:\Users\alex\AppData\Local\Temp\cco4xbCY.s 			page 15


 504 0006 F860     		str	r0, [r7, #12]
 505 0008 B960     		str	r1, [r7, #8]
 506 000a 1146     		mov	r1, r2
 507 000c 1A46     		mov	r2, r3
 508 000e 0B46     		mov	r3, r1	@ movhi
 509 0010 FB80     		strh	r3, [r7, #6]	@ movhi
 510 0012 1346     		mov	r3, r2	@ movhi
 511 0014 BB80     		strh	r3, [r7, #4]	@ movhi
 294:..\..\..\..\..\..\uCOS-III\Source/os_msg.c ****     OS_MSG  *p_msg;
 295:..\..\..\..\..\..\uCOS-III\Source/os_msg.c ****     OS_MSG  *p_msg_in;
 296:..\..\..\..\..\..\uCOS-III\Source/os_msg.c **** 
 297:..\..\..\..\..\..\uCOS-III\Source/os_msg.c **** 
 298:..\..\..\..\..\..\uCOS-III\Source/os_msg.c **** 
 299:..\..\..\..\..\..\uCOS-III\Source/os_msg.c **** #ifdef OS_SAFETY_CRITICAL
 300:..\..\..\..\..\..\uCOS-III\Source/os_msg.c ****     if (p_err == (OS_ERR *)0) {
 301:..\..\..\..\..\..\uCOS-III\Source/os_msg.c ****         OS_SAFETY_CRITICAL_EXCEPTION();
 302:..\..\..\..\..\..\uCOS-III\Source/os_msg.c ****         return;
 303:..\..\..\..\..\..\uCOS-III\Source/os_msg.c ****     }
 304:..\..\..\..\..\..\uCOS-III\Source/os_msg.c **** #endif
 305:..\..\..\..\..\..\uCOS-III\Source/os_msg.c **** 
 306:..\..\..\..\..\..\uCOS-III\Source/os_msg.c ****     if (p_msg_q->NbrEntries >= p_msg_q->NbrEntriesSize) {
 512              		.loc 1 306 0
 513 0016 FB68     		ldr	r3, [r7, #12]
 514 0018 5A89     		ldrh	r2, [r3, #10]
 515 001a FB68     		ldr	r3, [r7, #12]
 516 001c 1B89     		ldrh	r3, [r3, #8]
 517 001e 9A42     		cmp	r2, r3
 518 0020 04D3     		bcc	.L25
 307:..\..\..\..\..\..\uCOS-III\Source/os_msg.c ****        *p_err = OS_ERR_Q_MAX;                               /* Message queue cannot accept any more
 519              		.loc 1 307 0
 520 0022 7B6A     		ldr	r3, [r7, #36]
 521 0024 46F29352 		movw	r2, #26003
 522 0028 1A80     		strh	r2, [r3]	@ movhi
 308:..\..\..\..\..\..\uCOS-III\Source/os_msg.c ****         return;
 523              		.loc 1 308 0
 524 002a 6BE0     		b	.L24
 525              	.L25:
 309:..\..\..\..\..\..\uCOS-III\Source/os_msg.c ****     }
 310:..\..\..\..\..\..\uCOS-III\Source/os_msg.c **** 
 311:..\..\..\..\..\..\uCOS-III\Source/os_msg.c ****     if (OSMsgPool.NbrFree == (OS_MSG_QTY)0) {
 526              		.loc 1 311 0
 527 002c 374B     		ldr	r3, .L34
 528 002e 9B88     		ldrh	r3, [r3, #4]
 529 0030 002B     		cmp	r3, #0
 530 0032 04D1     		bne	.L27
 312:..\..\..\..\..\..\uCOS-III\Source/os_msg.c ****        *p_err = OS_ERR_MSG_POOL_EMPTY;                      /* No more OS_MSG to use               
 531              		.loc 1 312 0
 532 0034 7B6A     		ldr	r3, [r7, #36]
 533 0036 45F21D72 		movw	r2, #22301
 534 003a 1A80     		strh	r2, [r3]	@ movhi
 313:..\..\..\..\..\..\uCOS-III\Source/os_msg.c ****         return;
 535              		.loc 1 313 0
 536 003c 62E0     		b	.L24
 537              	.L27:
 314:..\..\..\..\..\..\uCOS-III\Source/os_msg.c ****     }
 315:..\..\..\..\..\..\uCOS-III\Source/os_msg.c **** 
 316:..\..\..\..\..\..\uCOS-III\Source/os_msg.c ****     p_msg             = OSMsgPool.NextPtr;                  /* Remove message control block from fr
ARM GAS  C:\Users\alex\AppData\Local\Temp\cco4xbCY.s 			page 16


 538              		.loc 1 316 0
 539 003e 334B     		ldr	r3, .L34
 540 0040 1B68     		ldr	r3, [r3]
 541 0042 7B61     		str	r3, [r7, #20]
 317:..\..\..\..\..\..\uCOS-III\Source/os_msg.c ****     OSMsgPool.NextPtr = p_msg->NextPtr;
 542              		.loc 1 317 0
 543 0044 7B69     		ldr	r3, [r7, #20]
 544 0046 1B68     		ldr	r3, [r3]
 545 0048 304A     		ldr	r2, .L34
 546 004a 1360     		str	r3, [r2]
 318:..\..\..\..\..\..\uCOS-III\Source/os_msg.c ****     OSMsgPool.NbrFree--;
 547              		.loc 1 318 0
 548 004c 2F4B     		ldr	r3, .L34
 549 004e 9B88     		ldrh	r3, [r3, #4]
 550 0050 013B     		subs	r3, r3, #1
 551 0052 9AB2     		uxth	r2, r3
 552 0054 2D4B     		ldr	r3, .L34
 553 0056 9A80     		strh	r2, [r3, #4]	@ movhi
 319:..\..\..\..\..\..\uCOS-III\Source/os_msg.c ****     OSMsgPool.NbrUsed++;
 554              		.loc 1 319 0
 555 0058 2C4B     		ldr	r3, .L34
 556 005a DB88     		ldrh	r3, [r3, #6]
 557 005c 0133     		adds	r3, r3, #1
 558 005e 9AB2     		uxth	r2, r3
 559 0060 2A4B     		ldr	r3, .L34
 560 0062 DA80     		strh	r2, [r3, #6]	@ movhi
 320:..\..\..\..\..\..\uCOS-III\Source/os_msg.c ****     if (OSMsgPool.NbrUsedMax < OSMsgPool.NbrUsed) {
 561              		.loc 1 320 0
 562 0064 294B     		ldr	r3, .L34
 563 0066 1A89     		ldrh	r2, [r3, #8]
 564 0068 284B     		ldr	r3, .L34
 565 006a DB88     		ldrh	r3, [r3, #6]
 566 006c 9A42     		cmp	r2, r3
 567 006e 03D2     		bcs	.L28
 321:..\..\..\..\..\..\uCOS-III\Source/os_msg.c ****         OSMsgPool.NbrUsedMax = OSMsgPool.NbrUsed;
 568              		.loc 1 321 0
 569 0070 264B     		ldr	r3, .L34
 570 0072 DA88     		ldrh	r2, [r3, #6]
 571 0074 254B     		ldr	r3, .L34
 572 0076 1A81     		strh	r2, [r3, #8]	@ movhi
 573              	.L28:
 322:..\..\..\..\..\..\uCOS-III\Source/os_msg.c ****     }
 323:..\..\..\..\..\..\uCOS-III\Source/os_msg.c **** 
 324:..\..\..\..\..\..\uCOS-III\Source/os_msg.c ****     if (p_msg_q->NbrEntries == (OS_MSG_QTY)0) {             /* Is this first message placed in the 
 574              		.loc 1 324 0
 575 0078 FB68     		ldr	r3, [r7, #12]
 576 007a 5B89     		ldrh	r3, [r3, #10]
 577 007c 002B     		cmp	r3, #0
 578 007e 0CD1     		bne	.L29
 325:..\..\..\..\..\..\uCOS-III\Source/os_msg.c ****         p_msg_q->InPtr         = p_msg;                     /* Yes                                 
 579              		.loc 1 325 0
 580 0080 FB68     		ldr	r3, [r7, #12]
 581 0082 7A69     		ldr	r2, [r7, #20]
 582 0084 1A60     		str	r2, [r3]
 326:..\..\..\..\..\..\uCOS-III\Source/os_msg.c ****         p_msg_q->OutPtr        = p_msg;
 583              		.loc 1 326 0
 584 0086 FB68     		ldr	r3, [r7, #12]
ARM GAS  C:\Users\alex\AppData\Local\Temp\cco4xbCY.s 			page 17


 585 0088 7A69     		ldr	r2, [r7, #20]
 586 008a 5A60     		str	r2, [r3, #4]
 327:..\..\..\..\..\..\uCOS-III\Source/os_msg.c ****         p_msg_q->NbrEntries    = (OS_MSG_QTY)1;
 587              		.loc 1 327 0
 588 008c FB68     		ldr	r3, [r7, #12]
 589 008e 0122     		movs	r2, #1
 590 0090 5A81     		strh	r2, [r3, #10]	@ movhi
 328:..\..\..\..\..\..\uCOS-III\Source/os_msg.c ****         p_msg->NextPtr         = (OS_MSG *)0;
 591              		.loc 1 328 0
 592 0092 7B69     		ldr	r3, [r7, #20]
 593 0094 0022     		movs	r2, #0
 594 0096 1A60     		str	r2, [r3]
 595 0098 1EE0     		b	.L30
 596              	.L29:
 329:..\..\..\..\..\..\uCOS-III\Source/os_msg.c ****     } else {                                                /* No                                  
 330:..\..\..\..\..\..\uCOS-III\Source/os_msg.c ****         if ((opt & OS_OPT_POST_LIFO) == OS_OPT_POST_FIFO) { /* Is it FIFO or LIFO?                 
 597              		.loc 1 330 0
 598 009a BB88     		ldrh	r3, [r7, #4]
 599 009c 03F01003 		and	r3, r3, #16
 600 00a0 002B     		cmp	r3, #0
 601 00a2 0CD1     		bne	.L31
 331:..\..\..\..\..\..\uCOS-III\Source/os_msg.c ****             p_msg_in           = p_msg_q->InPtr;            /* FIFO, add to the head               
 602              		.loc 1 331 0
 603 00a4 FB68     		ldr	r3, [r7, #12]
 604 00a6 1B68     		ldr	r3, [r3]
 605 00a8 3B61     		str	r3, [r7, #16]
 332:..\..\..\..\..\..\uCOS-III\Source/os_msg.c ****             p_msg_in->NextPtr  = p_msg;
 606              		.loc 1 332 0
 607 00aa 3B69     		ldr	r3, [r7, #16]
 608 00ac 7A69     		ldr	r2, [r7, #20]
 609 00ae 1A60     		str	r2, [r3]
 333:..\..\..\..\..\..\uCOS-III\Source/os_msg.c ****             p_msg_q->InPtr     = p_msg;
 610              		.loc 1 333 0
 611 00b0 FB68     		ldr	r3, [r7, #12]
 612 00b2 7A69     		ldr	r2, [r7, #20]
 613 00b4 1A60     		str	r2, [r3]
 334:..\..\..\..\..\..\uCOS-III\Source/os_msg.c ****             p_msg->NextPtr     = (OS_MSG *)0;
 614              		.loc 1 334 0
 615 00b6 7B69     		ldr	r3, [r7, #20]
 616 00b8 0022     		movs	r2, #0
 617 00ba 1A60     		str	r2, [r3]
 618 00bc 06E0     		b	.L32
 619              	.L31:
 335:..\..\..\..\..\..\uCOS-III\Source/os_msg.c ****         } else {
 336:..\..\..\..\..\..\uCOS-III\Source/os_msg.c ****             p_msg->NextPtr     = p_msg_q->OutPtr;           /* LIFO, add to the tail               
 620              		.loc 1 336 0
 621 00be FB68     		ldr	r3, [r7, #12]
 622 00c0 5A68     		ldr	r2, [r3, #4]
 623 00c2 7B69     		ldr	r3, [r7, #20]
 624 00c4 1A60     		str	r2, [r3]
 337:..\..\..\..\..\..\uCOS-III\Source/os_msg.c ****             p_msg_q->OutPtr    = p_msg;
 625              		.loc 1 337 0
 626 00c6 FB68     		ldr	r3, [r7, #12]
 627 00c8 7A69     		ldr	r2, [r7, #20]
 628 00ca 5A60     		str	r2, [r3, #4]
 629              	.L32:
 338:..\..\..\..\..\..\uCOS-III\Source/os_msg.c ****         }
ARM GAS  C:\Users\alex\AppData\Local\Temp\cco4xbCY.s 			page 18


 339:..\..\..\..\..\..\uCOS-III\Source/os_msg.c ****         p_msg_q->NbrEntries++;
 630              		.loc 1 339 0
 631 00cc FB68     		ldr	r3, [r7, #12]
 632 00ce 5B89     		ldrh	r3, [r3, #10]
 633 00d0 0133     		adds	r3, r3, #1
 634 00d2 9AB2     		uxth	r2, r3
 635 00d4 FB68     		ldr	r3, [r7, #12]
 636 00d6 5A81     		strh	r2, [r3, #10]	@ movhi
 637              	.L30:
 340:..\..\..\..\..\..\uCOS-III\Source/os_msg.c ****     }
 341:..\..\..\..\..\..\uCOS-III\Source/os_msg.c ****     if (p_msg_q->NbrEntriesMax < p_msg_q->NbrEntries) {
 638              		.loc 1 341 0
 639 00d8 FB68     		ldr	r3, [r7, #12]
 640 00da 9A89     		ldrh	r2, [r3, #12]
 641 00dc FB68     		ldr	r3, [r7, #12]
 642 00de 5B89     		ldrh	r3, [r3, #10]
 643 00e0 9A42     		cmp	r2, r3
 644 00e2 03D2     		bcs	.L33
 342:..\..\..\..\..\..\uCOS-III\Source/os_msg.c ****         p_msg_q->NbrEntriesMax = p_msg_q->NbrEntries;
 645              		.loc 1 342 0
 646 00e4 FB68     		ldr	r3, [r7, #12]
 647 00e6 5A89     		ldrh	r2, [r3, #10]
 648 00e8 FB68     		ldr	r3, [r7, #12]
 649 00ea 9A81     		strh	r2, [r3, #12]	@ movhi
 650              	.L33:
 343:..\..\..\..\..\..\uCOS-III\Source/os_msg.c ****     }
 344:..\..\..\..\..\..\uCOS-III\Source/os_msg.c ****     p_msg->MsgPtr  = p_void;                                /* Deposit message in the message queue
 651              		.loc 1 344 0
 652 00ec 7B69     		ldr	r3, [r7, #20]
 653 00ee BA68     		ldr	r2, [r7, #8]
 654 00f0 5A60     		str	r2, [r3, #4]
 345:..\..\..\..\..\..\uCOS-III\Source/os_msg.c ****     p_msg->MsgSize = msg_size;
 655              		.loc 1 345 0
 656 00f2 7B69     		ldr	r3, [r7, #20]
 657 00f4 FA88     		ldrh	r2, [r7, #6]	@ movhi
 658 00f6 1A81     		strh	r2, [r3, #8]	@ movhi
 346:..\..\..\..\..\..\uCOS-III\Source/os_msg.c ****     p_msg->MsgTS   = ts;
 659              		.loc 1 346 0
 660 00f8 7B69     		ldr	r3, [r7, #20]
 661 00fa 3A6A     		ldr	r2, [r7, #32]
 662 00fc DA60     		str	r2, [r3, #12]
 347:..\..\..\..\..\..\uCOS-III\Source/os_msg.c ****    *p_err          = OS_ERR_NONE;
 663              		.loc 1 347 0
 664 00fe 7B6A     		ldr	r3, [r7, #36]
 665 0100 0022     		movs	r2, #0
 666 0102 1A80     		strh	r2, [r3]	@ movhi
 667              	.L24:
 348:..\..\..\..\..\..\uCOS-III\Source/os_msg.c **** }
 668              		.loc 1 348 0
 669 0104 1C37     		adds	r7, r7, #28
 670              		.cfi_def_cfa_offset 4
 671 0106 BD46     		mov	sp, r7
 672              		.cfi_def_cfa_register 13
 673              		@ sp needed
 674 0108 80BC     		pop	{r7}
 675              		.cfi_restore 7
 676              		.cfi_def_cfa_offset 0
ARM GAS  C:\Users\alex\AppData\Local\Temp\cco4xbCY.s 			page 19


 677 010a 7047     		bx	lr
 678              	.L35:
 679              		.align	2
 680              	.L34:
 681 010c 00000000 		.word	OSMsgPool
 682              		.cfi_endproc
 683              	.LFE4:
 684              		.size	OS_MsgQPut, .-OS_MsgQPut
 685              		.text
 686              	.Letext0:
 687              		.file 2 "..\\..\\..\\..\\..\\..\\uC-CPU\\ARM-Cortex-M3\\GNU/cpu.h"
 688              		.file 3 "..\\..\\..\\..\\..\\..\\uC-CPU/cpu_core.h"
 689              		.file 4 "..\\..\\..\\..\\..\\..\\uCOS-III\\Source/os_type.h"
 690              		.file 5 "..\\..\\..\\..\\..\\..\\uCOS-III\\Source/os.h"