ARM GAS  C:\Users\alex\AppData\Local\Temp\ccfIfgZ4.s 			page 1


   1              		.syntax unified
   2              		.cpu cortex-m3
   3              		.fpu softvfp
   4              		.eabi_attribute 20, 1
   5              		.eabi_attribute 21, 1
   6              		.eabi_attribute 23, 3
   7              		.eabi_attribute 24, 1
   8              		.eabi_attribute 25, 1
   9              		.eabi_attribute 26, 1
  10              		.eabi_attribute 30, 6
  11              		.eabi_attribute 34, 1
  12              		.eabi_attribute 18, 4
  13              		.thumb
  14              		.syntax unified
  15              		.file	"os_sem.c"
  16              		.text
  17              	.Ltext0:
  18              		.cfi_sections	.debug_frame
  19              		.section	.text.OSSemCreate,"ax",%progbits
  20              		.align	2
  21              		.global	OSSemCreate
  22              		.thumb
  23              		.thumb_func
  24              		.type	OSSemCreate, %function
  25              	OSSemCreate:
  26              	.LFB0:
  27              		.file 1 "..\\..\\..\\..\\..\\..\\uCOS-III\\Source\\os_sem.c"
   1:..\..\..\..\..\..\uCOS-III\Source/os_sem.c **** /*
   2:..\..\..\..\..\..\uCOS-III\Source/os_sem.c **** ***************************************************************************************************
   3:..\..\..\..\..\..\uCOS-III\Source/os_sem.c **** *                                                      uC/OS-III
   4:..\..\..\..\..\..\uCOS-III\Source/os_sem.c **** *                                                 The Real-Time Kernel
   5:..\..\..\..\..\..\uCOS-III\Source/os_sem.c **** *
   6:..\..\..\..\..\..\uCOS-III\Source/os_sem.c **** *                                  (c) Copyright 2009-2012; Micrium, Inc.; Weston, FL
   7:..\..\..\..\..\..\uCOS-III\Source/os_sem.c **** *                           All rights reserved.  Protected by international copyright laws.
   8:..\..\..\..\..\..\uCOS-III\Source/os_sem.c **** *
   9:..\..\..\..\..\..\uCOS-III\Source/os_sem.c **** *                                                 SEMAPHORE MANAGEMENT
  10:..\..\..\..\..\..\uCOS-III\Source/os_sem.c **** *
  11:..\..\..\..\..\..\uCOS-III\Source/os_sem.c **** * File    : OS_SEM.C
  12:..\..\..\..\..\..\uCOS-III\Source/os_sem.c **** * By      : JJL
  13:..\..\..\..\..\..\uCOS-III\Source/os_sem.c **** * Version : V3.03.01
  14:..\..\..\..\..\..\uCOS-III\Source/os_sem.c **** *
  15:..\..\..\..\..\..\uCOS-III\Source/os_sem.c **** * LICENSING TERMS:
  16:..\..\..\..\..\..\uCOS-III\Source/os_sem.c **** * ---------------
  17:..\..\..\..\..\..\uCOS-III\Source/os_sem.c **** *           uC/OS-III is provided in source form for FREE short-term evaluation, for educational us
  18:..\..\..\..\..\..\uCOS-III\Source/os_sem.c **** *           for peaceful research.  If you plan or intend to use uC/OS-III in a commercial applicat
  19:..\..\..\..\..\..\uCOS-III\Source/os_sem.c **** *           product then, you need to contact Micrium to properly license uC/OS-III for its use in 
  20:..\..\..\..\..\..\uCOS-III\Source/os_sem.c **** *           application/product.   We provide ALL the source code for your convenience and to help 
  21:..\..\..\..\..\..\uCOS-III\Source/os_sem.c **** *           experience uC/OS-III.  The fact that the source is provided does NOT mean that you can 
  22:..\..\..\..\..\..\uCOS-III\Source/os_sem.c **** *           it commercially without paying a licensing fee.
  23:..\..\..\..\..\..\uCOS-III\Source/os_sem.c **** *
  24:..\..\..\..\..\..\uCOS-III\Source/os_sem.c **** *           Knowledge of the source code may NOT be used to develop a similar product.
  25:..\..\..\..\..\..\uCOS-III\Source/os_sem.c **** *
  26:..\..\..\..\..\..\uCOS-III\Source/os_sem.c **** *           Please help us continue to provide the embedded community with the finest software avai
  27:..\..\..\..\..\..\uCOS-III\Source/os_sem.c **** *           Your honesty is greatly appreciated.
  28:..\..\..\..\..\..\uCOS-III\Source/os_sem.c **** *
  29:..\..\..\..\..\..\uCOS-III\Source/os_sem.c **** *           You can contact us at www.micrium.com, or by phone at +1 (954) 217-2036.
  30:..\..\..\..\..\..\uCOS-III\Source/os_sem.c **** ***************************************************************************************************
ARM GAS  C:\Users\alex\AppData\Local\Temp\ccfIfgZ4.s 			page 2


  31:..\..\..\..\..\..\uCOS-III\Source/os_sem.c **** */
  32:..\..\..\..\..\..\uCOS-III\Source/os_sem.c **** 
  33:..\..\..\..\..\..\uCOS-III\Source/os_sem.c **** #define  MICRIUM_SOURCE
  34:..\..\..\..\..\..\uCOS-III\Source/os_sem.c **** #include <os.h>
  35:..\..\..\..\..\..\uCOS-III\Source/os_sem.c **** 
  36:..\..\..\..\..\..\uCOS-III\Source/os_sem.c **** #ifdef VSC_INCLUDE_SOURCE_FILE_NAMES
  37:..\..\..\..\..\..\uCOS-III\Source/os_sem.c **** const  CPU_CHAR  *os_sem__c = "$Id: $";
  38:..\..\..\..\..\..\uCOS-III\Source/os_sem.c **** #endif
  39:..\..\..\..\..\..\uCOS-III\Source/os_sem.c **** 
  40:..\..\..\..\..\..\uCOS-III\Source/os_sem.c **** 
  41:..\..\..\..\..\..\uCOS-III\Source/os_sem.c **** #if OS_CFG_SEM_EN > 0u
  42:..\..\..\..\..\..\uCOS-III\Source/os_sem.c **** /*
  43:..\..\..\..\..\..\uCOS-III\Source/os_sem.c **** ***************************************************************************************************
  44:..\..\..\..\..\..\uCOS-III\Source/os_sem.c **** *                                                  CREATE A SEMAPHORE
  45:..\..\..\..\..\..\uCOS-III\Source/os_sem.c **** *
  46:..\..\..\..\..\..\uCOS-III\Source/os_sem.c **** * Description: This function creates a semaphore.
  47:..\..\..\..\..\..\uCOS-III\Source/os_sem.c **** *
  48:..\..\..\..\..\..\uCOS-III\Source/os_sem.c **** * Arguments  : p_sem         is a pointer to the semaphore to initialize.  Your application is resp
  49:..\..\..\..\..\..\uCOS-III\Source/os_sem.c **** *                            allocating storage for the semaphore.
  50:..\..\..\..\..\..\uCOS-III\Source/os_sem.c **** *
  51:..\..\..\..\..\..\uCOS-III\Source/os_sem.c **** *              p_name        is a pointer to the name you would like to give the semaphore.
  52:..\..\..\..\..\..\uCOS-III\Source/os_sem.c **** *
  53:..\..\..\..\..\..\uCOS-III\Source/os_sem.c **** *              cnt           is the initial value for the semaphore.
  54:..\..\..\..\..\..\uCOS-III\Source/os_sem.c **** *                            If used to share resources, you should initialize to the number of res
  55:..\..\..\..\..\..\uCOS-III\Source/os_sem.c **** *                            If used to signal the occurrence of event(s) then you should initializ
  56:..\..\..\..\..\..\uCOS-III\Source/os_sem.c **** *
  57:..\..\..\..\..\..\uCOS-III\Source/os_sem.c **** *              p_err         is a pointer to a variable that will contain an error code returned by
  58:..\..\..\..\..\..\uCOS-III\Source/os_sem.c **** *
  59:..\..\..\..\..\..\uCOS-III\Source/os_sem.c **** *                                OS_ERR_NONE                    if the call was successful
  60:..\..\..\..\..\..\uCOS-III\Source/os_sem.c **** *                                OS_ERR_CREATE_ISR              if you called this function from an
  61:..\..\..\..\..\..\uCOS-III\Source/os_sem.c **** *                                OS_ERR_ILLEGAL_CREATE_RUN_TIME if you are trying to create the sem
  62:..\..\..\..\..\..\uCOS-III\Source/os_sem.c **** *                                                                 called OSSafetyCriticalStart().
  63:..\..\..\..\..\..\uCOS-III\Source/os_sem.c **** *                                OS_ERR_NAME                    if 'p_name' is a NULL pointer
  64:..\..\..\..\..\..\uCOS-III\Source/os_sem.c **** *                                OS_ERR_OBJ_CREATED             if the semaphore has already been c
  65:..\..\..\..\..\..\uCOS-III\Source/os_sem.c **** *                                OS_ERR_OBJ_PTR_NULL            if 'p_sem'  is a NULL pointer
  66:..\..\..\..\..\..\uCOS-III\Source/os_sem.c **** *                                OS_ERR_OBJ_TYPE                if 'p_sem' has already been initial
  67:..\..\..\..\..\..\uCOS-III\Source/os_sem.c **** *                                                               object type
  68:..\..\..\..\..\..\uCOS-III\Source/os_sem.c **** *
  69:..\..\..\..\..\..\uCOS-III\Source/os_sem.c **** * Returns    : none
  70:..\..\..\..\..\..\uCOS-III\Source/os_sem.c **** ***************************************************************************************************
  71:..\..\..\..\..\..\uCOS-III\Source/os_sem.c **** */
  72:..\..\..\..\..\..\uCOS-III\Source/os_sem.c **** 
  73:..\..\..\..\..\..\uCOS-III\Source/os_sem.c **** void  OSSemCreate (OS_SEM      *p_sem,
  74:..\..\..\..\..\..\uCOS-III\Source/os_sem.c ****                    CPU_CHAR    *p_name,
  75:..\..\..\..\..\..\uCOS-III\Source/os_sem.c ****                    OS_SEM_CTR   cnt,
  76:..\..\..\..\..\..\uCOS-III\Source/os_sem.c ****                    OS_ERR      *p_err)
  77:..\..\..\..\..\..\uCOS-III\Source/os_sem.c **** {
  28              		.loc 1 77 0
  29              		.cfi_startproc
  30              		@ args = 0, pretend = 0, frame = 24
  31              		@ frame_needed = 1, uses_anonymous_args = 0
  32 0000 80B5     		push	{r7, lr}
  33              		.cfi_def_cfa_offset 8
  34              		.cfi_offset 7, -8
  35              		.cfi_offset 14, -4
  36 0002 86B0     		sub	sp, sp, #24
  37              		.cfi_def_cfa_offset 32
ARM GAS  C:\Users\alex\AppData\Local\Temp\ccfIfgZ4.s 			page 3


  38 0004 00AF     		add	r7, sp, #0
  39              		.cfi_def_cfa_register 7
  40 0006 F860     		str	r0, [r7, #12]
  41 0008 B960     		str	r1, [r7, #8]
  42 000a 7A60     		str	r2, [r7, #4]
  43 000c 3B60     		str	r3, [r7]
  78:..\..\..\..\..\..\uCOS-III\Source/os_sem.c ****     CPU_SR_ALLOC();
  44              		.loc 1 78 0
  45 000e 0023     		movs	r3, #0
  46 0010 7B61     		str	r3, [r7, #20]
  79:..\..\..\..\..\..\uCOS-III\Source/os_sem.c **** 
  80:..\..\..\..\..\..\uCOS-III\Source/os_sem.c **** 
  81:..\..\..\..\..\..\uCOS-III\Source/os_sem.c **** 
  82:..\..\..\..\..\..\uCOS-III\Source/os_sem.c **** #ifdef OS_SAFETY_CRITICAL
  83:..\..\..\..\..\..\uCOS-III\Source/os_sem.c ****     if (p_err == (OS_ERR *)0) {
  84:..\..\..\..\..\..\uCOS-III\Source/os_sem.c ****         OS_SAFETY_CRITICAL_EXCEPTION();
  85:..\..\..\..\..\..\uCOS-III\Source/os_sem.c ****         return;
  86:..\..\..\..\..\..\uCOS-III\Source/os_sem.c ****     }
  87:..\..\..\..\..\..\uCOS-III\Source/os_sem.c **** #endif
  88:..\..\..\..\..\..\uCOS-III\Source/os_sem.c **** 
  89:..\..\..\..\..\..\uCOS-III\Source/os_sem.c **** #ifdef OS_SAFETY_CRITICAL_IEC61508
  90:..\..\..\..\..\..\uCOS-III\Source/os_sem.c ****     if (OSSafetyCriticalStartFlag == DEF_TRUE) {
  91:..\..\..\..\..\..\uCOS-III\Source/os_sem.c ****        *p_err = OS_ERR_ILLEGAL_CREATE_RUN_TIME;
  92:..\..\..\..\..\..\uCOS-III\Source/os_sem.c ****         return;
  93:..\..\..\..\..\..\uCOS-III\Source/os_sem.c ****     }
  94:..\..\..\..\..\..\uCOS-III\Source/os_sem.c **** #endif
  95:..\..\..\..\..\..\uCOS-III\Source/os_sem.c **** 
  96:..\..\..\..\..\..\uCOS-III\Source/os_sem.c **** #if OS_CFG_CALLED_FROM_ISR_CHK_EN > 0u
  97:..\..\..\..\..\..\uCOS-III\Source/os_sem.c ****     if (OSIntNestingCtr > (OS_NESTING_CTR)0) {              /* Not allowed to be called from an ISR
  47              		.loc 1 97 0
  48 0012 1B4B     		ldr	r3, .L5
  49 0014 1B78     		ldrb	r3, [r3]	@ zero_extendqisi2
  50 0016 002B     		cmp	r3, #0
  51 0018 04D0     		beq	.L2
  98:..\..\..\..\..\..\uCOS-III\Source/os_sem.c ****        *p_err = OS_ERR_CREATE_ISR;
  52              		.loc 1 98 0
  53 001a 3B68     		ldr	r3, [r7]
  54 001c 42F6E162 		movw	r2, #12001
  55 0020 1A80     		strh	r2, [r3]	@ movhi
  99:..\..\..\..\..\..\uCOS-III\Source/os_sem.c ****         return;
  56              		.loc 1 99 0
  57 0022 2AE0     		b	.L1
  58              	.L2:
 100:..\..\..\..\..\..\uCOS-III\Source/os_sem.c ****     }
 101:..\..\..\..\..\..\uCOS-III\Source/os_sem.c **** #endif
 102:..\..\..\..\..\..\uCOS-III\Source/os_sem.c **** 
 103:..\..\..\..\..\..\uCOS-III\Source/os_sem.c **** #if OS_CFG_ARG_CHK_EN > 0u
 104:..\..\..\..\..\..\uCOS-III\Source/os_sem.c ****     if (p_sem == (OS_SEM *)0) {                             /* Validate 'p_sem'                    
  59              		.loc 1 104 0
  60 0024 FB68     		ldr	r3, [r7, #12]
  61 0026 002B     		cmp	r3, #0
  62 0028 04D1     		bne	.L4
 105:..\..\..\..\..\..\uCOS-III\Source/os_sem.c ****        *p_err = OS_ERR_OBJ_PTR_NULL;
  63              		.loc 1 105 0
  64 002a 3B68     		ldr	r3, [r7]
  65 002c 45F6C352 		movw	r2, #24003
  66 0030 1A80     		strh	r2, [r3]	@ movhi
ARM GAS  C:\Users\alex\AppData\Local\Temp\ccfIfgZ4.s 			page 4


 106:..\..\..\..\..\..\uCOS-III\Source/os_sem.c ****         return;
  67              		.loc 1 106 0
  68 0032 22E0     		b	.L1
  69              	.L4:
 107:..\..\..\..\..\..\uCOS-III\Source/os_sem.c ****     }
 108:..\..\..\..\..\..\uCOS-III\Source/os_sem.c **** #endif
 109:..\..\..\..\..\..\uCOS-III\Source/os_sem.c **** 
 110:..\..\..\..\..\..\uCOS-III\Source/os_sem.c ****     OS_CRITICAL_ENTER();
  70              		.loc 1 110 0
  71 0034 FFF7FEFF 		bl	CPU_SR_Save
  72 0038 7861     		str	r0, [r7, #20]
 111:..\..\..\..\..\..\uCOS-III\Source/os_sem.c ****     p_sem->Type    = OS_OBJ_TYPE_SEM;                       /* Mark the data structure as a semapho
  73              		.loc 1 111 0
  74 003a FB68     		ldr	r3, [r7, #12]
  75 003c 114A     		ldr	r2, .L5+4
  76 003e 1A60     		str	r2, [r3]
 112:..\..\..\..\..\..\uCOS-III\Source/os_sem.c ****     p_sem->Ctr     = cnt;                                   /* Set semaphore value                 
  77              		.loc 1 112 0
  78 0040 FB68     		ldr	r3, [r7, #12]
  79 0042 7A68     		ldr	r2, [r7, #4]
  80 0044 1A62     		str	r2, [r3, #32]
 113:..\..\..\..\..\..\uCOS-III\Source/os_sem.c ****     p_sem->TS      = (CPU_TS)0;
  81              		.loc 1 113 0
  82 0046 FB68     		ldr	r3, [r7, #12]
  83 0048 0022     		movs	r2, #0
  84 004a 5A62     		str	r2, [r3, #36]
 114:..\..\..\..\..\..\uCOS-III\Source/os_sem.c ****     p_sem->NamePtr = p_name;                                /* Save the name of the semaphore      
  85              		.loc 1 114 0
  86 004c FB68     		ldr	r3, [r7, #12]
  87 004e BA68     		ldr	r2, [r7, #8]
  88 0050 5A60     		str	r2, [r3, #4]
 115:..\..\..\..\..\..\uCOS-III\Source/os_sem.c ****     OS_PendListInit(&p_sem->PendList);                      /* Initialize the waiting list         
  89              		.loc 1 115 0
  90 0052 FB68     		ldr	r3, [r7, #12]
  91 0054 0833     		adds	r3, r3, #8
  92 0056 1846     		mov	r0, r3
  93 0058 FFF7FEFF 		bl	OS_PendListInit
 116:..\..\..\..\..\..\uCOS-III\Source/os_sem.c **** 
 117:..\..\..\..\..\..\uCOS-III\Source/os_sem.c **** #if OS_CFG_DBG_EN > 0u
 118:..\..\..\..\..\..\uCOS-III\Source/os_sem.c ****     OS_SemDbgListAdd(p_sem);
  94              		.loc 1 118 0
  95 005c F868     		ldr	r0, [r7, #12]
  96 005e FFF7FEFF 		bl	OS_SemDbgListAdd
 119:..\..\..\..\..\..\uCOS-III\Source/os_sem.c **** #endif
 120:..\..\..\..\..\..\uCOS-III\Source/os_sem.c ****     OSSemQty++;
  97              		.loc 1 120 0
  98 0062 094B     		ldr	r3, .L5+8
  99 0064 1B88     		ldrh	r3, [r3]
 100 0066 0133     		adds	r3, r3, #1
 101 0068 9AB2     		uxth	r2, r3
 102 006a 074B     		ldr	r3, .L5+8
 103 006c 1A80     		strh	r2, [r3]	@ movhi
 121:..\..\..\..\..\..\uCOS-III\Source/os_sem.c **** 
 122:..\..\..\..\..\..\uCOS-III\Source/os_sem.c ****     OS_CRITICAL_EXIT_NO_SCHED();
 104              		.loc 1 122 0
 105 006e 7869     		ldr	r0, [r7, #20]
 106 0070 FFF7FEFF 		bl	CPU_SR_Restore
ARM GAS  C:\Users\alex\AppData\Local\Temp\ccfIfgZ4.s 			page 5


 123:..\..\..\..\..\..\uCOS-III\Source/os_sem.c ****    *p_err = OS_ERR_NONE;
 107              		.loc 1 123 0
 108 0074 3B68     		ldr	r3, [r7]
 109 0076 0022     		movs	r2, #0
 110 0078 1A80     		strh	r2, [r3]	@ movhi
 111              	.L1:
 124:..\..\..\..\..\..\uCOS-III\Source/os_sem.c **** }
 112              		.loc 1 124 0
 113 007a 1837     		adds	r7, r7, #24
 114              		.cfi_def_cfa_offset 8
 115 007c BD46     		mov	sp, r7
 116              		.cfi_def_cfa_register 13
 117              		@ sp needed
 118 007e 80BD     		pop	{r7, pc}
 119              	.L6:
 120              		.align	2
 121              	.L5:
 122 0080 00000000 		.word	OSIntNestingCtr
 123 0084 53454D41 		.word	1095583059
 124 0088 00000000 		.word	OSSemQty
 125              		.cfi_endproc
 126              	.LFE0:
 127              		.size	OSSemCreate, .-OSSemCreate
 128              		.section	.text.OSSemDel,"ax",%progbits
 129              		.align	2
 130              		.global	OSSemDel
 131              		.thumb
 132              		.thumb_func
 133              		.type	OSSemDel, %function
 134              	OSSemDel:
 135              	.LFB1:
 125:..\..\..\..\..\..\uCOS-III\Source/os_sem.c **** 
 126:..\..\..\..\..\..\uCOS-III\Source/os_sem.c **** /*$PAGE*/
 127:..\..\..\..\..\..\uCOS-III\Source/os_sem.c **** /*
 128:..\..\..\..\..\..\uCOS-III\Source/os_sem.c **** ***************************************************************************************************
 129:..\..\..\..\..\..\uCOS-III\Source/os_sem.c **** *                                                  DELETE A SEMAPHORE
 130:..\..\..\..\..\..\uCOS-III\Source/os_sem.c **** *
 131:..\..\..\..\..\..\uCOS-III\Source/os_sem.c **** * Description: This function deletes a semaphore.
 132:..\..\..\..\..\..\uCOS-III\Source/os_sem.c **** *
 133:..\..\..\..\..\..\uCOS-III\Source/os_sem.c **** * Arguments  : p_sem         is a pointer to the semaphore to delete
 134:..\..\..\..\..\..\uCOS-III\Source/os_sem.c **** *
 135:..\..\..\..\..\..\uCOS-III\Source/os_sem.c **** *              opt           determines delete options as follows:
 136:..\..\..\..\..\..\uCOS-III\Source/os_sem.c **** *
 137:..\..\..\..\..\..\uCOS-III\Source/os_sem.c **** *                                OS_OPT_DEL_NO_PEND          Delete semaphore ONLY if no task pendi
 138:..\..\..\..\..\..\uCOS-III\Source/os_sem.c **** *                                OS_OPT_DEL_ALWAYS           Deletes the semaphore even if tasks ar
 139:..\..\..\..\..\..\uCOS-III\Source/os_sem.c **** *                                                            In this case, all the tasks pending wi
 140:..\..\..\..\..\..\uCOS-III\Source/os_sem.c **** *
 141:..\..\..\..\..\..\uCOS-III\Source/os_sem.c **** *              p_err         is a pointer to a variable that will contain an error code returned by
 142:..\..\..\..\..\..\uCOS-III\Source/os_sem.c **** *
 143:..\..\..\..\..\..\uCOS-III\Source/os_sem.c **** *                                OS_ERR_NONE                 The call was successful and the semaph
 144:..\..\..\..\..\..\uCOS-III\Source/os_sem.c **** *                                OS_ERR_DEL_ISR              If you attempted to delete the semapho
 145:..\..\..\..\..\..\uCOS-III\Source/os_sem.c **** *                                OS_ERR_OBJ_PTR_NULL         If 'p_sem' is a NULL pointer.
 146:..\..\..\..\..\..\uCOS-III\Source/os_sem.c **** *                                OS_ERR_OBJ_TYPE             If 'p_sem' is not pointing at a semaph
 147:..\..\..\..\..\..\uCOS-III\Source/os_sem.c **** *                                OS_ERR_OPT_INVALID          An invalid option was specified
 148:..\..\..\..\..\..\uCOS-III\Source/os_sem.c **** *                                OS_ERR_TASK_WAITING         One or more tasks were waiting on the 
 149:..\..\..\..\..\..\uCOS-III\Source/os_sem.c **** *
 150:..\..\..\..\..\..\uCOS-III\Source/os_sem.c **** * Returns    : == 0          if no tasks were waiting on the semaphore, or upon error.
ARM GAS  C:\Users\alex\AppData\Local\Temp\ccfIfgZ4.s 			page 6


 151:..\..\..\..\..\..\uCOS-III\Source/os_sem.c **** *              >  0          if one or more tasks waiting on the semaphore are now readied and info
 152:..\..\..\..\..\..\uCOS-III\Source/os_sem.c **** *
 153:..\..\..\..\..\..\uCOS-III\Source/os_sem.c **** * Note(s)    : 1) This function must be used with care.  Tasks that would normally expect the prese
 154:..\..\..\..\..\..\uCOS-III\Source/os_sem.c **** *                 MUST check the return code of OSSemPend().
 155:..\..\..\..\..\..\uCOS-III\Source/os_sem.c **** *              2) OSSemAccept() callers will not know that the intended semaphore has been deleted.
 156:..\..\..\..\..\..\uCOS-III\Source/os_sem.c **** *              3) Because ALL tasks pending on the semaphore will be readied, you MUST be careful i
 157:..\..\..\..\..\..\uCOS-III\Source/os_sem.c **** *                 the semaphore is used for mutual exclusion because the resource(s) will no longer
 158:..\..\..\..\..\..\uCOS-III\Source/os_sem.c **** *                 semaphore.
 159:..\..\..\..\..\..\uCOS-III\Source/os_sem.c **** ***************************************************************************************************
 160:..\..\..\..\..\..\uCOS-III\Source/os_sem.c **** */
 161:..\..\..\..\..\..\uCOS-III\Source/os_sem.c **** 
 162:..\..\..\..\..\..\uCOS-III\Source/os_sem.c **** #if OS_CFG_SEM_DEL_EN > 0u
 163:..\..\..\..\..\..\uCOS-III\Source/os_sem.c **** OS_OBJ_QTY  OSSemDel (OS_SEM  *p_sem,
 164:..\..\..\..\..\..\uCOS-III\Source/os_sem.c ****                       OS_OPT   opt,
 165:..\..\..\..\..\..\uCOS-III\Source/os_sem.c ****                       OS_ERR  *p_err)
 166:..\..\..\..\..\..\uCOS-III\Source/os_sem.c **** {
 136              		.loc 1 166 0
 137              		.cfi_startproc
 138              		@ args = 0, pretend = 0, frame = 48
 139              		@ frame_needed = 1, uses_anonymous_args = 0
 140 0000 80B5     		push	{r7, lr}
 141              		.cfi_def_cfa_offset 8
 142              		.cfi_offset 7, -8
 143              		.cfi_offset 14, -4
 144 0002 8CB0     		sub	sp, sp, #48
 145              		.cfi_def_cfa_offset 56
 146 0004 00AF     		add	r7, sp, #0
 147              		.cfi_def_cfa_register 7
 148 0006 F860     		str	r0, [r7, #12]
 149 0008 0B46     		mov	r3, r1
 150 000a 7A60     		str	r2, [r7, #4]
 151 000c 7B81     		strh	r3, [r7, #10]	@ movhi
 167:..\..\..\..\..\..\uCOS-III\Source/os_sem.c ****     OS_OBJ_QTY     cnt;
 168:..\..\..\..\..\..\uCOS-III\Source/os_sem.c ****     OS_OBJ_QTY     nbr_tasks;
 169:..\..\..\..\..\..\uCOS-III\Source/os_sem.c ****     OS_PEND_DATA  *p_pend_data;
 170:..\..\..\..\..\..\uCOS-III\Source/os_sem.c ****     OS_PEND_LIST  *p_pend_list;
 171:..\..\..\..\..\..\uCOS-III\Source/os_sem.c ****     OS_TCB        *p_tcb;
 172:..\..\..\..\..\..\uCOS-III\Source/os_sem.c ****     CPU_TS         ts;
 173:..\..\..\..\..\..\uCOS-III\Source/os_sem.c ****     CPU_SR_ALLOC();
 152              		.loc 1 173 0
 153 000e 0023     		movs	r3, #0
 154 0010 BB62     		str	r3, [r7, #40]
 174:..\..\..\..\..\..\uCOS-III\Source/os_sem.c **** 
 175:..\..\..\..\..\..\uCOS-III\Source/os_sem.c **** 
 176:..\..\..\..\..\..\uCOS-III\Source/os_sem.c **** 
 177:..\..\..\..\..\..\uCOS-III\Source/os_sem.c **** #ifdef OS_SAFETY_CRITICAL
 178:..\..\..\..\..\..\uCOS-III\Source/os_sem.c ****     if (p_err == (OS_ERR *)0) {
 179:..\..\..\..\..\..\uCOS-III\Source/os_sem.c ****         OS_SAFETY_CRITICAL_EXCEPTION();
 180:..\..\..\..\..\..\uCOS-III\Source/os_sem.c ****         return ((OS_OBJ_QTY)0);
 181:..\..\..\..\..\..\uCOS-III\Source/os_sem.c ****     }
 182:..\..\..\..\..\..\uCOS-III\Source/os_sem.c **** #endif
 183:..\..\..\..\..\..\uCOS-III\Source/os_sem.c **** 
 184:..\..\..\..\..\..\uCOS-III\Source/os_sem.c **** #if OS_CFG_CALLED_FROM_ISR_CHK_EN > 0u
 185:..\..\..\..\..\..\uCOS-III\Source/os_sem.c ****     if (OSIntNestingCtr > (OS_NESTING_CTR)0) {              /* Not allowed to delete a semaphore fr
 155              		.loc 1 185 0
 156 0012 424B     		ldr	r3, .L25
 157 0014 1B78     		ldrb	r3, [r3]	@ zero_extendqisi2
ARM GAS  C:\Users\alex\AppData\Local\Temp\ccfIfgZ4.s 			page 7


 158 0016 002B     		cmp	r3, #0
 159 0018 05D0     		beq	.L8
 186:..\..\..\..\..\..\uCOS-III\Source/os_sem.c ****        *p_err = OS_ERR_DEL_ISR;
 160              		.loc 1 186 0
 161 001a 7B68     		ldr	r3, [r7, #4]
 162 001c 43F2C922 		movw	r2, #13001
 163 0020 1A80     		strh	r2, [r3]	@ movhi
 187:..\..\..\..\..\..\uCOS-III\Source/os_sem.c ****         return ((OS_OBJ_QTY)0);
 164              		.loc 1 187 0
 165 0022 0023     		movs	r3, #0
 166 0024 75E0     		b	.L9
 167              	.L8:
 188:..\..\..\..\..\..\uCOS-III\Source/os_sem.c ****     }
 189:..\..\..\..\..\..\uCOS-III\Source/os_sem.c **** #endif
 190:..\..\..\..\..\..\uCOS-III\Source/os_sem.c **** 
 191:..\..\..\..\..\..\uCOS-III\Source/os_sem.c **** #if OS_CFG_ARG_CHK_EN > 0u
 192:..\..\..\..\..\..\uCOS-III\Source/os_sem.c ****     if (p_sem == (OS_SEM *)0) {                             /* Validate 'p_sem'                    
 168              		.loc 1 192 0
 169 0026 FB68     		ldr	r3, [r7, #12]
 170 0028 002B     		cmp	r3, #0
 171 002a 05D1     		bne	.L10
 193:..\..\..\..\..\..\uCOS-III\Source/os_sem.c ****        *p_err = OS_ERR_OBJ_PTR_NULL;
 172              		.loc 1 193 0
 173 002c 7B68     		ldr	r3, [r7, #4]
 174 002e 45F6C352 		movw	r2, #24003
 175 0032 1A80     		strh	r2, [r3]	@ movhi
 194:..\..\..\..\..\..\uCOS-III\Source/os_sem.c ****         return ((OS_OBJ_QTY)0);
 176              		.loc 1 194 0
 177 0034 0023     		movs	r3, #0
 178 0036 6CE0     		b	.L9
 179              	.L10:
 195:..\..\..\..\..\..\uCOS-III\Source/os_sem.c ****     }
 196:..\..\..\..\..\..\uCOS-III\Source/os_sem.c ****     switch (opt) {                                          /* Validate 'opt'                      
 180              		.loc 1 196 0
 181 0038 7B89     		ldrh	r3, [r7, #10]
 182 003a 0033     		adds	r3, r3, #0
 183 003c 012B     		cmp	r3, #1
 184 003e 05D9     		bls	.L24
 197:..\..\..\..\..\..\uCOS-III\Source/os_sem.c ****         case OS_OPT_DEL_NO_PEND:
 198:..\..\..\..\..\..\uCOS-III\Source/os_sem.c ****         case OS_OPT_DEL_ALWAYS:
 199:..\..\..\..\..\..\uCOS-III\Source/os_sem.c ****              break;
 200:..\..\..\..\..\..\uCOS-III\Source/os_sem.c **** 
 201:..\..\..\..\..\..\uCOS-III\Source/os_sem.c ****         default:
 202:..\..\..\..\..\..\uCOS-III\Source/os_sem.c ****             *p_err = OS_ERR_OPT_INVALID;
 185              		.loc 1 202 0
 186 0040 7B68     		ldr	r3, [r7, #4]
 187 0042 45F62562 		movw	r2, #24101
 188 0046 1A80     		strh	r2, [r3]	@ movhi
 203:..\..\..\..\..\..\uCOS-III\Source/os_sem.c ****              return ((OS_OBJ_QTY)0);
 189              		.loc 1 203 0
 190 0048 0023     		movs	r3, #0
 191 004a 62E0     		b	.L9
 192              	.L24:
 199:..\..\..\..\..\..\uCOS-III\Source/os_sem.c **** 
 193              		.loc 1 199 0
 194 004c 00BF     		nop
 204:..\..\..\..\..\..\uCOS-III\Source/os_sem.c ****     }
ARM GAS  C:\Users\alex\AppData\Local\Temp\ccfIfgZ4.s 			page 8


 205:..\..\..\..\..\..\uCOS-III\Source/os_sem.c **** #endif
 206:..\..\..\..\..\..\uCOS-III\Source/os_sem.c **** 
 207:..\..\..\..\..\..\uCOS-III\Source/os_sem.c **** #if OS_CFG_OBJ_TYPE_CHK_EN > 0u
 208:..\..\..\..\..\..\uCOS-III\Source/os_sem.c ****     if (p_sem->Type != OS_OBJ_TYPE_SEM) {                   /* Make sure semaphore was created     
 209:..\..\..\..\..\..\uCOS-III\Source/os_sem.c ****        *p_err = OS_ERR_OBJ_TYPE;
 210:..\..\..\..\..\..\uCOS-III\Source/os_sem.c ****         return ((OS_OBJ_QTY)0);
 211:..\..\..\..\..\..\uCOS-III\Source/os_sem.c ****     }
 212:..\..\..\..\..\..\uCOS-III\Source/os_sem.c **** #endif
 213:..\..\..\..\..\..\uCOS-III\Source/os_sem.c **** 
 214:..\..\..\..\..\..\uCOS-III\Source/os_sem.c ****     CPU_CRITICAL_ENTER();
 195              		.loc 1 214 0
 196 004e FFF7FEFF 		bl	CPU_SR_Save
 197 0052 B862     		str	r0, [r7, #40]
 215:..\..\..\..\..\..\uCOS-III\Source/os_sem.c ****     p_pend_list = &p_sem->PendList;
 198              		.loc 1 215 0
 199 0054 FB68     		ldr	r3, [r7, #12]
 200 0056 0833     		adds	r3, r3, #8
 201 0058 7B62     		str	r3, [r7, #36]
 216:..\..\..\..\..\..\uCOS-III\Source/os_sem.c ****     cnt         = p_pend_list->NbrEntries;
 202              		.loc 1 216 0
 203 005a 7B6A     		ldr	r3, [r7, #36]
 204 005c 1B89     		ldrh	r3, [r3, #8]	@ movhi
 205 005e FB85     		strh	r3, [r7, #46]	@ movhi
 217:..\..\..\..\..\..\uCOS-III\Source/os_sem.c ****     nbr_tasks   = cnt;
 206              		.loc 1 217 0
 207 0060 FB8D     		ldrh	r3, [r7, #46]	@ movhi
 208 0062 7B84     		strh	r3, [r7, #34]	@ movhi
 218:..\..\..\..\..\..\uCOS-III\Source/os_sem.c ****     switch (opt) {
 209              		.loc 1 218 0
 210 0064 7B89     		ldrh	r3, [r7, #10]
 211 0066 002B     		cmp	r3, #0
 212 0068 02D0     		beq	.L15
 213 006a 012B     		cmp	r3, #1
 214 006c 1ED0     		beq	.L16
 215 006e 47E0     		b	.L23
 216              	.L15:
 219:..\..\..\..\..\..\uCOS-III\Source/os_sem.c ****         case OS_OPT_DEL_NO_PEND:                            /* Delete semaphore only if no task wai
 220:..\..\..\..\..\..\uCOS-III\Source/os_sem.c ****              if (nbr_tasks == (OS_OBJ_QTY)0) {
 217              		.loc 1 220 0
 218 0070 7B8C     		ldrh	r3, [r7, #34]
 219 0072 002B     		cmp	r3, #0
 220 0074 12D1     		bne	.L17
 221:..\..\..\..\..\..\uCOS-III\Source/os_sem.c **** #if OS_CFG_DBG_EN > 0u
 222:..\..\..\..\..\..\uCOS-III\Source/os_sem.c ****                  OS_SemDbgListRemove(p_sem);
 221              		.loc 1 222 0
 222 0076 F868     		ldr	r0, [r7, #12]
 223 0078 FFF7FEFF 		bl	OS_SemDbgListRemove
 223:..\..\..\..\..\..\uCOS-III\Source/os_sem.c **** #endif
 224:..\..\..\..\..\..\uCOS-III\Source/os_sem.c ****                  OSSemQty--;
 224              		.loc 1 224 0
 225 007c 284B     		ldr	r3, .L25+4
 226 007e 1B88     		ldrh	r3, [r3]
 227 0080 013B     		subs	r3, r3, #1
 228 0082 9AB2     		uxth	r2, r3
 229 0084 264B     		ldr	r3, .L25+4
 230 0086 1A80     		strh	r2, [r3]	@ movhi
 225:..\..\..\..\..\..\uCOS-III\Source/os_sem.c ****                  OS_SemClr(p_sem);
ARM GAS  C:\Users\alex\AppData\Local\Temp\ccfIfgZ4.s 			page 9


 231              		.loc 1 225 0
 232 0088 F868     		ldr	r0, [r7, #12]
 233 008a FFF7FEFF 		bl	OS_SemClr
 226:..\..\..\..\..\..\uCOS-III\Source/os_sem.c ****                  CPU_CRITICAL_EXIT();
 234              		.loc 1 226 0
 235 008e B86A     		ldr	r0, [r7, #40]
 236 0090 FFF7FEFF 		bl	CPU_SR_Restore
 227:..\..\..\..\..\..\uCOS-III\Source/os_sem.c ****                 *p_err = OS_ERR_NONE;
 237              		.loc 1 227 0
 238 0094 7B68     		ldr	r3, [r7, #4]
 239 0096 0022     		movs	r2, #0
 240 0098 1A80     		strh	r2, [r3]	@ movhi
 228:..\..\..\..\..\..\uCOS-III\Source/os_sem.c ****              } else {
 229:..\..\..\..\..\..\uCOS-III\Source/os_sem.c ****                  CPU_CRITICAL_EXIT();
 230:..\..\..\..\..\..\uCOS-III\Source/os_sem.c ****                 *p_err = OS_ERR_TASK_WAITING;
 231:..\..\..\..\..\..\uCOS-III\Source/os_sem.c ****              }
 232:..\..\..\..\..\..\uCOS-III\Source/os_sem.c ****              break;
 241              		.loc 1 232 0
 242 009a 39E0     		b	.L19
 243              	.L17:
 229:..\..\..\..\..\..\uCOS-III\Source/os_sem.c ****                 *p_err = OS_ERR_TASK_WAITING;
 244              		.loc 1 229 0
 245 009c B86A     		ldr	r0, [r7, #40]
 246 009e FFF7FEFF 		bl	CPU_SR_Restore
 230:..\..\..\..\..\..\uCOS-III\Source/os_sem.c ****              }
 247              		.loc 1 230 0
 248 00a2 7B68     		ldr	r3, [r7, #4]
 249 00a4 47F25F12 		movw	r2, #29023
 250 00a8 1A80     		strh	r2, [r3]	@ movhi
 251              		.loc 1 232 0
 252 00aa 31E0     		b	.L19
 253              	.L16:
 233:..\..\..\..\..\..\uCOS-III\Source/os_sem.c **** 
 234:..\..\..\..\..\..\uCOS-III\Source/os_sem.c ****         case OS_OPT_DEL_ALWAYS:                             /* Always delete the semaphore         
 235:..\..\..\..\..\..\uCOS-III\Source/os_sem.c ****              OS_CRITICAL_ENTER_CPU_EXIT();
 236:..\..\..\..\..\..\uCOS-III\Source/os_sem.c ****              ts = OS_TS_GET();                              /* Get local time stamp so all tasks ge
 254              		.loc 1 236 0
 255 00ac FFF7FEFF 		bl	CPU_TS_TmrRd
 256 00b0 F861     		str	r0, [r7, #28]
 237:..\..\..\..\..\..\uCOS-III\Source/os_sem.c ****              while (cnt > 0u) {                             /* Remove all tasks on the pend list   
 257              		.loc 1 237 0
 258 00b2 0DE0     		b	.L20
 259              	.L21:
 238:..\..\..\..\..\..\uCOS-III\Source/os_sem.c ****                  p_pend_data = p_pend_list->HeadPtr;
 260              		.loc 1 238 0
 261 00b4 7B6A     		ldr	r3, [r7, #36]
 262 00b6 1B68     		ldr	r3, [r3]
 263 00b8 BB61     		str	r3, [r7, #24]
 239:..\..\..\..\..\..\uCOS-III\Source/os_sem.c ****                  p_tcb       = p_pend_data->TCBPtr;
 264              		.loc 1 239 0
 265 00ba BB69     		ldr	r3, [r7, #24]
 266 00bc 9B68     		ldr	r3, [r3, #8]
 267 00be 7B61     		str	r3, [r7, #20]
 240:..\..\..\..\..\..\uCOS-III\Source/os_sem.c ****                  OS_PendObjDel((OS_PEND_OBJ *)((void *)p_sem),
 268              		.loc 1 240 0
 269 00c0 FA69     		ldr	r2, [r7, #28]
 270 00c2 7969     		ldr	r1, [r7, #20]
ARM GAS  C:\Users\alex\AppData\Local\Temp\ccfIfgZ4.s 			page 10


 271 00c4 F868     		ldr	r0, [r7, #12]
 272 00c6 FFF7FEFF 		bl	OS_PendObjDel
 241:..\..\..\..\..\..\uCOS-III\Source/os_sem.c ****                                p_tcb,
 242:..\..\..\..\..\..\uCOS-III\Source/os_sem.c ****                                ts);
 243:..\..\..\..\..\..\uCOS-III\Source/os_sem.c ****                  cnt--;
 273              		.loc 1 243 0
 274 00ca FB8D     		ldrh	r3, [r7, #46]
 275 00cc 013B     		subs	r3, r3, #1
 276 00ce FB85     		strh	r3, [r7, #46]	@ movhi
 277              	.L20:
 237:..\..\..\..\..\..\uCOS-III\Source/os_sem.c ****                  p_pend_data = p_pend_list->HeadPtr;
 278              		.loc 1 237 0
 279 00d0 FB8D     		ldrh	r3, [r7, #46]
 280 00d2 002B     		cmp	r3, #0
 281 00d4 EED1     		bne	.L21
 244:..\..\..\..\..\..\uCOS-III\Source/os_sem.c ****              }
 245:..\..\..\..\..\..\uCOS-III\Source/os_sem.c **** #if OS_CFG_DBG_EN > 0u
 246:..\..\..\..\..\..\uCOS-III\Source/os_sem.c ****              OS_SemDbgListRemove(p_sem);
 282              		.loc 1 246 0
 283 00d6 F868     		ldr	r0, [r7, #12]
 284 00d8 FFF7FEFF 		bl	OS_SemDbgListRemove
 247:..\..\..\..\..\..\uCOS-III\Source/os_sem.c **** #endif
 248:..\..\..\..\..\..\uCOS-III\Source/os_sem.c ****              OSSemQty--;
 285              		.loc 1 248 0
 286 00dc 104B     		ldr	r3, .L25+4
 287 00de 1B88     		ldrh	r3, [r3]
 288 00e0 013B     		subs	r3, r3, #1
 289 00e2 9AB2     		uxth	r2, r3
 290 00e4 0E4B     		ldr	r3, .L25+4
 291 00e6 1A80     		strh	r2, [r3]	@ movhi
 249:..\..\..\..\..\..\uCOS-III\Source/os_sem.c ****              OS_SemClr(p_sem);
 292              		.loc 1 249 0
 293 00e8 F868     		ldr	r0, [r7, #12]
 294 00ea FFF7FEFF 		bl	OS_SemClr
 250:..\..\..\..\..\..\uCOS-III\Source/os_sem.c ****              OS_CRITICAL_EXIT_NO_SCHED();
 295              		.loc 1 250 0
 296 00ee B86A     		ldr	r0, [r7, #40]
 297 00f0 FFF7FEFF 		bl	CPU_SR_Restore
 251:..\..\..\..\..\..\uCOS-III\Source/os_sem.c ****              OSSched();                                     /* Find highest priority task ready to 
 298              		.loc 1 251 0
 299 00f4 FFF7FEFF 		bl	OSSched
 252:..\..\..\..\..\..\uCOS-III\Source/os_sem.c ****             *p_err = OS_ERR_NONE;
 300              		.loc 1 252 0
 301 00f8 7B68     		ldr	r3, [r7, #4]
 302 00fa 0022     		movs	r2, #0
 303 00fc 1A80     		strh	r2, [r3]	@ movhi
 253:..\..\..\..\..\..\uCOS-III\Source/os_sem.c ****              break;
 304              		.loc 1 253 0
 305 00fe 07E0     		b	.L19
 306              	.L23:
 254:..\..\..\..\..\..\uCOS-III\Source/os_sem.c **** 
 255:..\..\..\..\..\..\uCOS-III\Source/os_sem.c ****         default:
 256:..\..\..\..\..\..\uCOS-III\Source/os_sem.c ****              CPU_CRITICAL_EXIT();
 307              		.loc 1 256 0
 308 0100 B86A     		ldr	r0, [r7, #40]
 309 0102 FFF7FEFF 		bl	CPU_SR_Restore
 257:..\..\..\..\..\..\uCOS-III\Source/os_sem.c ****             *p_err = OS_ERR_OPT_INVALID;
ARM GAS  C:\Users\alex\AppData\Local\Temp\ccfIfgZ4.s 			page 11


 310              		.loc 1 257 0
 311 0106 7B68     		ldr	r3, [r7, #4]
 312 0108 45F62562 		movw	r2, #24101
 313 010c 1A80     		strh	r2, [r3]	@ movhi
 258:..\..\..\..\..\..\uCOS-III\Source/os_sem.c ****              break;
 314              		.loc 1 258 0
 315 010e 00BF     		nop
 316              	.L19:
 259:..\..\..\..\..\..\uCOS-III\Source/os_sem.c ****     }
 260:..\..\..\..\..\..\uCOS-III\Source/os_sem.c ****     return ((OS_OBJ_QTY)nbr_tasks);
 317              		.loc 1 260 0
 318 0110 7B8C     		ldrh	r3, [r7, #34]
 319              	.L9:
 261:..\..\..\..\..\..\uCOS-III\Source/os_sem.c **** }
 320              		.loc 1 261 0
 321 0112 1846     		mov	r0, r3
 322 0114 3037     		adds	r7, r7, #48
 323              		.cfi_def_cfa_offset 8
 324 0116 BD46     		mov	sp, r7
 325              		.cfi_def_cfa_register 13
 326              		@ sp needed
 327 0118 80BD     		pop	{r7, pc}
 328              	.L26:
 329 011a 00BF     		.align	2
 330              	.L25:
 331 011c 00000000 		.word	OSIntNestingCtr
 332 0120 00000000 		.word	OSSemQty
 333              		.cfi_endproc
 334              	.LFE1:
 335              		.size	OSSemDel, .-OSSemDel
 336              		.section	.text.OSSemPend,"ax",%progbits
 337              		.align	2
 338              		.global	OSSemPend
 339              		.thumb
 340              		.thumb_func
 341              		.type	OSSemPend, %function
 342              	OSSemPend:
 343              	.LFB2:
 262:..\..\..\..\..\..\uCOS-III\Source/os_sem.c **** #endif
 263:..\..\..\..\..\..\uCOS-III\Source/os_sem.c **** 
 264:..\..\..\..\..\..\uCOS-III\Source/os_sem.c **** /*$PAGE*/
 265:..\..\..\..\..\..\uCOS-III\Source/os_sem.c **** /*
 266:..\..\..\..\..\..\uCOS-III\Source/os_sem.c **** ***************************************************************************************************
 267:..\..\..\..\..\..\uCOS-III\Source/os_sem.c **** *                                                  PEND ON SEMAPHORE
 268:..\..\..\..\..\..\uCOS-III\Source/os_sem.c **** *
 269:..\..\..\..\..\..\uCOS-III\Source/os_sem.c **** * Description: This function waits for a semaphore.
 270:..\..\..\..\..\..\uCOS-III\Source/os_sem.c **** *
 271:..\..\..\..\..\..\uCOS-III\Source/os_sem.c **** * Arguments  : p_sem         is a pointer to the semaphore
 272:..\..\..\..\..\..\uCOS-III\Source/os_sem.c **** *
 273:..\..\..\..\..\..\uCOS-III\Source/os_sem.c **** *              timeout       is an optional timeout period (in clock ticks).  If non-zero, your tas
 274:..\..\..\..\..\..\uCOS-III\Source/os_sem.c **** *                            resource up to the amount of time (in 'ticks') specified by this argum
 275:..\..\..\..\..\..\uCOS-III\Source/os_sem.c **** *                            0, however, your task will wait forever at the specified semaphore or,
 276:..\..\..\..\..\..\uCOS-III\Source/os_sem.c **** *                            becomes available (or the event occurs).
 277:..\..\..\..\..\..\uCOS-III\Source/os_sem.c **** *
 278:..\..\..\..\..\..\uCOS-III\Source/os_sem.c **** *              opt           determines whether the user wants to block if the semaphore is not ava
 279:..\..\..\..\..\..\uCOS-III\Source/os_sem.c **** *
 280:..\..\..\..\..\..\uCOS-III\Source/os_sem.c **** *                                OS_OPT_PEND_BLOCKING
ARM GAS  C:\Users\alex\AppData\Local\Temp\ccfIfgZ4.s 			page 12


 281:..\..\..\..\..\..\uCOS-III\Source/os_sem.c **** *                                OS_OPT_PEND_NON_BLOCKING
 282:..\..\..\..\..\..\uCOS-III\Source/os_sem.c **** *
 283:..\..\..\..\..\..\uCOS-III\Source/os_sem.c **** *              p_ts          is a pointer to a variable that will receive the timestamp of when the
 284:..\..\..\..\..\..\uCOS-III\Source/os_sem.c **** *                            or pend aborted or the semaphore deleted.  If you pass a NULL pointer 
 285:..\..\..\..\..\..\uCOS-III\Source/os_sem.c **** *                            then you will not get the timestamp.  In other words, passing a NULL p
 286:..\..\..\..\..\..\uCOS-III\Source/os_sem.c **** *                            and indicates that you don't need the timestamp.
 287:..\..\..\..\..\..\uCOS-III\Source/os_sem.c **** *
 288:..\..\..\..\..\..\uCOS-III\Source/os_sem.c **** *              p_err         is a pointer to a variable that will contain an error code returned by
 289:..\..\..\..\..\..\uCOS-III\Source/os_sem.c **** *
 290:..\..\..\..\..\..\uCOS-III\Source/os_sem.c **** *                                OS_ERR_NONE               The call was successful and your task ow
 291:..\..\..\..\..\..\uCOS-III\Source/os_sem.c **** *                                                          or, the event you are waiting for occurr
 292:..\..\..\..\..\..\uCOS-III\Source/os_sem.c **** *                                OS_ERR_OBJ_DEL            If 'p_sem' was deleted
 293:..\..\..\..\..\..\uCOS-III\Source/os_sem.c **** *                                OS_ERR_OBJ_PTR_NULL       If 'p_sem' is a NULL pointer.
 294:..\..\..\..\..\..\uCOS-III\Source/os_sem.c **** *                                OS_ERR_OBJ_TYPE           If 'p_sem' is not pointing at a semaphor
 295:..\..\..\..\..\..\uCOS-III\Source/os_sem.c **** *                                OS_ERR_OPT_INVALID        If you specified an invalid value for 'o
 296:..\..\..\..\..\..\uCOS-III\Source/os_sem.c **** *                                OS_ERR_PEND_ABORT         If the pend was aborted by another task
 297:..\..\..\..\..\..\uCOS-III\Source/os_sem.c **** *                                OS_ERR_PEND_ISR           If you called this function from an ISR 
 298:..\..\..\..\..\..\uCOS-III\Source/os_sem.c **** *                                                          would lead to a suspension.
 299:..\..\..\..\..\..\uCOS-III\Source/os_sem.c **** *                                OS_ERR_PEND_WOULD_BLOCK   If you specified non-blocking but the se
 300:..\..\..\..\..\..\uCOS-III\Source/os_sem.c **** *                                                          available.
 301:..\..\..\..\..\..\uCOS-III\Source/os_sem.c **** *                                OS_ERR_SCHED_LOCKED       If you called this function when the sch
 302:..\..\..\..\..\..\uCOS-III\Source/os_sem.c **** *                                OS_ERR_STATUS_INVALID     Pend status is invalid
 303:..\..\..\..\..\..\uCOS-III\Source/os_sem.c **** *                                OS_ERR_TIMEOUT            The semaphore was not received within th
 304:..\..\..\..\..\..\uCOS-III\Source/os_sem.c **** *                                                          timeout.
 305:..\..\..\..\..\..\uCOS-III\Source/os_sem.c **** *
 306:..\..\..\..\..\..\uCOS-III\Source/os_sem.c **** *
 307:..\..\..\..\..\..\uCOS-III\Source/os_sem.c **** * Returns    : The current value of the semaphore counter or 0 if not available.
 308:..\..\..\..\..\..\uCOS-III\Source/os_sem.c **** ***************************************************************************************************
 309:..\..\..\..\..\..\uCOS-III\Source/os_sem.c **** */
 310:..\..\..\..\..\..\uCOS-III\Source/os_sem.c **** 
 311:..\..\..\..\..\..\uCOS-III\Source/os_sem.c **** OS_SEM_CTR  OSSemPend (OS_SEM   *p_sem,
 312:..\..\..\..\..\..\uCOS-III\Source/os_sem.c ****                        OS_TICK   timeout,
 313:..\..\..\..\..\..\uCOS-III\Source/os_sem.c ****                        OS_OPT    opt,
 314:..\..\..\..\..\..\uCOS-III\Source/os_sem.c ****                        CPU_TS   *p_ts,
 315:..\..\..\..\..\..\uCOS-III\Source/os_sem.c ****                        OS_ERR   *p_err)
 316:..\..\..\..\..\..\uCOS-III\Source/os_sem.c **** {
 344              		.loc 1 316 0
 345              		.cfi_startproc
 346              		@ args = 4, pretend = 0, frame = 56
 347              		@ frame_needed = 1, uses_anonymous_args = 0
 348 0000 80B5     		push	{r7, lr}
 349              		.cfi_def_cfa_offset 8
 350              		.cfi_offset 7, -8
 351              		.cfi_offset 14, -4
 352 0002 8EB0     		sub	sp, sp, #56
 353              		.cfi_def_cfa_offset 64
 354 0004 00AF     		add	r7, sp, #0
 355              		.cfi_def_cfa_register 7
 356 0006 F860     		str	r0, [r7, #12]
 357 0008 B960     		str	r1, [r7, #8]
 358 000a 3B60     		str	r3, [r7]
 359 000c 1346     		mov	r3, r2	@ movhi
 360 000e FB80     		strh	r3, [r7, #6]	@ movhi
 317:..\..\..\..\..\..\uCOS-III\Source/os_sem.c ****     OS_SEM_CTR    ctr;
 318:..\..\..\..\..\..\uCOS-III\Source/os_sem.c ****     OS_PEND_DATA  pend_data;
 319:..\..\..\..\..\..\uCOS-III\Source/os_sem.c ****     CPU_SR_ALLOC();
 361              		.loc 1 319 0
ARM GAS  C:\Users\alex\AppData\Local\Temp\ccfIfgZ4.s 			page 13


 362 0010 0023     		movs	r3, #0
 363 0012 7B63     		str	r3, [r7, #52]
 320:..\..\..\..\..\..\uCOS-III\Source/os_sem.c **** 
 321:..\..\..\..\..\..\uCOS-III\Source/os_sem.c **** 
 322:..\..\..\..\..\..\uCOS-III\Source/os_sem.c **** 
 323:..\..\..\..\..\..\uCOS-III\Source/os_sem.c **** #ifdef OS_SAFETY_CRITICAL
 324:..\..\..\..\..\..\uCOS-III\Source/os_sem.c ****     if (p_err == (OS_ERR *)0) {
 325:..\..\..\..\..\..\uCOS-III\Source/os_sem.c ****         OS_SAFETY_CRITICAL_EXCEPTION();
 326:..\..\..\..\..\..\uCOS-III\Source/os_sem.c ****         return ((OS_SEM_CTR)0);
 327:..\..\..\..\..\..\uCOS-III\Source/os_sem.c ****     }
 328:..\..\..\..\..\..\uCOS-III\Source/os_sem.c **** #endif
 329:..\..\..\..\..\..\uCOS-III\Source/os_sem.c **** 
 330:..\..\..\..\..\..\uCOS-III\Source/os_sem.c **** #if OS_CFG_CALLED_FROM_ISR_CHK_EN > 0u
 331:..\..\..\..\..\..\uCOS-III\Source/os_sem.c ****     if (OSIntNestingCtr > (OS_NESTING_CTR)0) {              /* Not allowed to call from an ISR     
 364              		.loc 1 331 0
 365 0014 634B     		ldr	r3, .L52
 366 0016 1B78     		ldrb	r3, [r3]	@ zero_extendqisi2
 367 0018 002B     		cmp	r3, #0
 368 001a 05D0     		beq	.L28
 332:..\..\..\..\..\..\uCOS-III\Source/os_sem.c ****        *p_err = OS_ERR_PEND_ISR;
 369              		.loc 1 332 0
 370 001c 3B6C     		ldr	r3, [r7, #64]
 371 001e 46F2AE12 		movw	r2, #25006
 372 0022 1A80     		strh	r2, [r3]	@ movhi
 333:..\..\..\..\..\..\uCOS-III\Source/os_sem.c ****         return ((OS_SEM_CTR)0);
 373              		.loc 1 333 0
 374 0024 0023     		movs	r3, #0
 375 0026 B8E0     		b	.L50
 376              	.L28:
 334:..\..\..\..\..\..\uCOS-III\Source/os_sem.c ****     }
 335:..\..\..\..\..\..\uCOS-III\Source/os_sem.c **** #endif
 336:..\..\..\..\..\..\uCOS-III\Source/os_sem.c **** 
 337:..\..\..\..\..\..\uCOS-III\Source/os_sem.c **** #if OS_CFG_ARG_CHK_EN > 0u
 338:..\..\..\..\..\..\uCOS-III\Source/os_sem.c ****     if (p_sem == (OS_SEM *)0) {                             /* Validate 'p_sem'                    
 377              		.loc 1 338 0
 378 0028 FB68     		ldr	r3, [r7, #12]
 379 002a 002B     		cmp	r3, #0
 380 002c 05D1     		bne	.L30
 339:..\..\..\..\..\..\uCOS-III\Source/os_sem.c ****        *p_err = OS_ERR_OBJ_PTR_NULL;
 381              		.loc 1 339 0
 382 002e 3B6C     		ldr	r3, [r7, #64]
 383 0030 45F6C352 		movw	r2, #24003
 384 0034 1A80     		strh	r2, [r3]	@ movhi
 340:..\..\..\..\..\..\uCOS-III\Source/os_sem.c ****         return ((OS_SEM_CTR)0);
 385              		.loc 1 340 0
 386 0036 0023     		movs	r3, #0
 387 0038 AFE0     		b	.L50
 388              	.L30:
 341:..\..\..\..\..\..\uCOS-III\Source/os_sem.c ****     }
 342:..\..\..\..\..\..\uCOS-III\Source/os_sem.c ****     switch (opt) {                                          /* Validate 'opt'                      
 389              		.loc 1 342 0
 390 003a FB88     		ldrh	r3, [r7, #6]
 391 003c 002B     		cmp	r3, #0
 392 003e 08D0     		beq	.L51
 393 0040 B3F5004F 		cmp	r3, #32768
 394 0044 05D0     		beq	.L51
 343:..\..\..\..\..\..\uCOS-III\Source/os_sem.c ****         case OS_OPT_PEND_BLOCKING:
ARM GAS  C:\Users\alex\AppData\Local\Temp\ccfIfgZ4.s 			page 14


 344:..\..\..\..\..\..\uCOS-III\Source/os_sem.c ****         case OS_OPT_PEND_NON_BLOCKING:
 345:..\..\..\..\..\..\uCOS-III\Source/os_sem.c ****              break;
 346:..\..\..\..\..\..\uCOS-III\Source/os_sem.c **** 
 347:..\..\..\..\..\..\uCOS-III\Source/os_sem.c ****         default:
 348:..\..\..\..\..\..\uCOS-III\Source/os_sem.c ****             *p_err = OS_ERR_OPT_INVALID;
 395              		.loc 1 348 0
 396 0046 3B6C     		ldr	r3, [r7, #64]
 397 0048 45F62562 		movw	r2, #24101
 398 004c 1A80     		strh	r2, [r3]	@ movhi
 349:..\..\..\..\..\..\uCOS-III\Source/os_sem.c ****              return ((OS_SEM_CTR)0);
 399              		.loc 1 349 0
 400 004e 0023     		movs	r3, #0
 401 0050 A3E0     		b	.L50
 402              	.L51:
 345:..\..\..\..\..\..\uCOS-III\Source/os_sem.c **** 
 403              		.loc 1 345 0
 404 0052 00BF     		nop
 350:..\..\..\..\..\..\uCOS-III\Source/os_sem.c ****     }
 351:..\..\..\..\..\..\uCOS-III\Source/os_sem.c **** #endif
 352:..\..\..\..\..\..\uCOS-III\Source/os_sem.c **** 
 353:..\..\..\..\..\..\uCOS-III\Source/os_sem.c **** #if OS_CFG_OBJ_TYPE_CHK_EN > 0u
 354:..\..\..\..\..\..\uCOS-III\Source/os_sem.c ****     if (p_sem->Type != OS_OBJ_TYPE_SEM) {                   /* Make sure semaphore was created     
 355:..\..\..\..\..\..\uCOS-III\Source/os_sem.c ****        *p_err = OS_ERR_OBJ_TYPE;
 356:..\..\..\..\..\..\uCOS-III\Source/os_sem.c ****         return ((OS_SEM_CTR)0);
 357:..\..\..\..\..\..\uCOS-III\Source/os_sem.c ****     }
 358:..\..\..\..\..\..\uCOS-III\Source/os_sem.c **** #endif
 359:..\..\..\..\..\..\uCOS-III\Source/os_sem.c **** 
 360:..\..\..\..\..\..\uCOS-III\Source/os_sem.c ****     if (p_ts != (CPU_TS *)0) {
 405              		.loc 1 360 0
 406 0054 3B68     		ldr	r3, [r7]
 407 0056 002B     		cmp	r3, #0
 408 0058 02D0     		beq	.L34
 361:..\..\..\..\..\..\uCOS-III\Source/os_sem.c ****        *p_ts  = (CPU_TS)0;                                  /* Initialize the returned timestamp   
 409              		.loc 1 361 0
 410 005a 3B68     		ldr	r3, [r7]
 411 005c 0022     		movs	r2, #0
 412 005e 1A60     		str	r2, [r3]
 413              	.L34:
 362:..\..\..\..\..\..\uCOS-III\Source/os_sem.c ****     }
 363:..\..\..\..\..\..\uCOS-III\Source/os_sem.c ****     CPU_CRITICAL_ENTER();
 414              		.loc 1 363 0
 415 0060 FFF7FEFF 		bl	CPU_SR_Save
 416 0064 7863     		str	r0, [r7, #52]
 364:..\..\..\..\..\..\uCOS-III\Source/os_sem.c ****     if (p_sem->Ctr > (OS_SEM_CTR)0) {                       /* Resource available?                 
 417              		.loc 1 364 0
 418 0066 FB68     		ldr	r3, [r7, #12]
 419 0068 1B6A     		ldr	r3, [r3, #32]
 420 006a 002B     		cmp	r3, #0
 421 006c 16D0     		beq	.L35
 365:..\..\..\..\..\..\uCOS-III\Source/os_sem.c ****         p_sem->Ctr--;                                       /* Yes, caller may proceed             
 422              		.loc 1 365 0
 423 006e FB68     		ldr	r3, [r7, #12]
 424 0070 1B6A     		ldr	r3, [r3, #32]
 425 0072 5A1E     		subs	r2, r3, #1
 426 0074 FB68     		ldr	r3, [r7, #12]
 427 0076 1A62     		str	r2, [r3, #32]
 366:..\..\..\..\..\..\uCOS-III\Source/os_sem.c ****         if (p_ts != (CPU_TS *)0) {
ARM GAS  C:\Users\alex\AppData\Local\Temp\ccfIfgZ4.s 			page 15


 428              		.loc 1 366 0
 429 0078 3B68     		ldr	r3, [r7]
 430 007a 002B     		cmp	r3, #0
 431 007c 03D0     		beq	.L36
 367:..\..\..\..\..\..\uCOS-III\Source/os_sem.c ****            *p_ts  = p_sem->TS;                              /*      get timestamp of last post     
 432              		.loc 1 367 0
 433 007e FB68     		ldr	r3, [r7, #12]
 434 0080 5A6A     		ldr	r2, [r3, #36]
 435 0082 3B68     		ldr	r3, [r7]
 436 0084 1A60     		str	r2, [r3]
 437              	.L36:
 368:..\..\..\..\..\..\uCOS-III\Source/os_sem.c ****         }
 369:..\..\..\..\..\..\uCOS-III\Source/os_sem.c ****         ctr   = p_sem->Ctr;
 438              		.loc 1 369 0
 439 0086 FB68     		ldr	r3, [r7, #12]
 440 0088 1B6A     		ldr	r3, [r3, #32]
 441 008a 3B63     		str	r3, [r7, #48]
 370:..\..\..\..\..\..\uCOS-III\Source/os_sem.c ****         CPU_CRITICAL_EXIT();
 442              		.loc 1 370 0
 443 008c 786B     		ldr	r0, [r7, #52]
 444 008e FFF7FEFF 		bl	CPU_SR_Restore
 371:..\..\..\..\..\..\uCOS-III\Source/os_sem.c ****        *p_err = OS_ERR_NONE;
 445              		.loc 1 371 0
 446 0092 3B6C     		ldr	r3, [r7, #64]
 447 0094 0022     		movs	r2, #0
 448 0096 1A80     		strh	r2, [r3]	@ movhi
 372:..\..\..\..\..\..\uCOS-III\Source/os_sem.c ****         return (ctr);
 449              		.loc 1 372 0
 450 0098 3B6B     		ldr	r3, [r7, #48]
 451 009a 7EE0     		b	.L50
 452              	.L35:
 373:..\..\..\..\..\..\uCOS-III\Source/os_sem.c ****     }
 374:..\..\..\..\..\..\uCOS-III\Source/os_sem.c **** 
 375:..\..\..\..\..\..\uCOS-III\Source/os_sem.c ****     if ((opt & OS_OPT_PEND_NON_BLOCKING) != (OS_OPT)0) {    /* Caller wants to block if not availab
 453              		.loc 1 375 0
 454 009c B7F90630 		ldrsh	r3, [r7, #6]
 455 00a0 002B     		cmp	r3, #0
 456 00a2 0BDA     		bge	.L37
 376:..\..\..\..\..\..\uCOS-III\Source/os_sem.c ****         ctr   = p_sem->Ctr;                                 /* No                                  
 457              		.loc 1 376 0
 458 00a4 FB68     		ldr	r3, [r7, #12]
 459 00a6 1B6A     		ldr	r3, [r3, #32]
 460 00a8 3B63     		str	r3, [r7, #48]
 377:..\..\..\..\..\..\uCOS-III\Source/os_sem.c ****         CPU_CRITICAL_EXIT();
 461              		.loc 1 377 0
 462 00aa 786B     		ldr	r0, [r7, #52]
 463 00ac FFF7FEFF 		bl	CPU_SR_Restore
 378:..\..\..\..\..\..\uCOS-III\Source/os_sem.c ****        *p_err = OS_ERR_PEND_WOULD_BLOCK;
 464              		.loc 1 378 0
 465 00b0 3B6C     		ldr	r3, [r7, #64]
 466 00b2 46F2B012 		movw	r2, #25008
 467 00b6 1A80     		strh	r2, [r3]	@ movhi
 379:..\..\..\..\..\..\uCOS-III\Source/os_sem.c ****         return (ctr);
 468              		.loc 1 379 0
 469 00b8 3B6B     		ldr	r3, [r7, #48]
 470 00ba 6EE0     		b	.L50
 471              	.L37:
ARM GAS  C:\Users\alex\AppData\Local\Temp\ccfIfgZ4.s 			page 16


 380:..\..\..\..\..\..\uCOS-III\Source/os_sem.c ****     } else {                                                /* Yes                                 
 381:..\..\..\..\..\..\uCOS-III\Source/os_sem.c ****         if (OSSchedLockNestingCtr > (OS_NESTING_CTR)0) {    /* Can't pend when the scheduler is loc
 472              		.loc 1 381 0
 473 00bc 3A4B     		ldr	r3, .L52+4
 474 00be 1B78     		ldrb	r3, [r3]	@ zero_extendqisi2
 475 00c0 002B     		cmp	r3, #0
 476 00c2 08D0     		beq	.L38
 382:..\..\..\..\..\..\uCOS-III\Source/os_sem.c ****             CPU_CRITICAL_EXIT();
 477              		.loc 1 382 0
 478 00c4 786B     		ldr	r0, [r7, #52]
 479 00c6 FFF7FEFF 		bl	CPU_SR_Restore
 383:..\..\..\..\..\..\uCOS-III\Source/os_sem.c ****            *p_err = OS_ERR_SCHED_LOCKED;
 480              		.loc 1 383 0
 481 00ca 3B6C     		ldr	r3, [r7, #64]
 482 00cc 46F66352 		movw	r2, #28003
 483 00d0 1A80     		strh	r2, [r3]	@ movhi
 384:..\..\..\..\..\..\uCOS-III\Source/os_sem.c ****             return ((OS_SEM_CTR)0);
 484              		.loc 1 384 0
 485 00d2 0023     		movs	r3, #0
 486 00d4 61E0     		b	.L50
 487              	.L38:
 385:..\..\..\..\..\..\uCOS-III\Source/os_sem.c ****         }
 386:..\..\..\..\..\..\uCOS-III\Source/os_sem.c ****     }
 387:..\..\..\..\..\..\uCOS-III\Source/os_sem.c ****                                                             /* Lock the scheduler/re-enable interru
 388:..\..\..\..\..\..\uCOS-III\Source/os_sem.c ****     OS_CRITICAL_ENTER_CPU_EXIT();
 389:..\..\..\..\..\..\uCOS-III\Source/os_sem.c ****     OS_Pend(&pend_data,                                     /* Block task pending on Semaphore     
 488              		.loc 1 389 0
 489 00d6 07F11000 		add	r0, r7, #16
 490 00da BB68     		ldr	r3, [r7, #8]
 491 00dc 0622     		movs	r2, #6
 492 00de F968     		ldr	r1, [r7, #12]
 493 00e0 FFF7FEFF 		bl	OS_Pend
 390:..\..\..\..\..\..\uCOS-III\Source/os_sem.c ****             (OS_PEND_OBJ *)((void *)p_sem),
 391:..\..\..\..\..\..\uCOS-III\Source/os_sem.c ****             OS_TASK_PEND_ON_SEM,
 392:..\..\..\..\..\..\uCOS-III\Source/os_sem.c ****             timeout);
 393:..\..\..\..\..\..\uCOS-III\Source/os_sem.c **** 
 394:..\..\..\..\..\..\uCOS-III\Source/os_sem.c ****     OS_CRITICAL_EXIT_NO_SCHED();
 494              		.loc 1 394 0
 495 00e4 786B     		ldr	r0, [r7, #52]
 496 00e6 FFF7FEFF 		bl	CPU_SR_Restore
 395:..\..\..\..\..\..\uCOS-III\Source/os_sem.c **** 
 396:..\..\..\..\..\..\uCOS-III\Source/os_sem.c ****     OSSched();                                              /* Find the next highest priority task 
 497              		.loc 1 396 0
 498 00ea FFF7FEFF 		bl	OSSched
 397:..\..\..\..\..\..\uCOS-III\Source/os_sem.c **** 
 398:..\..\..\..\..\..\uCOS-III\Source/os_sem.c ****     CPU_CRITICAL_ENTER();
 499              		.loc 1 398 0
 500 00ee FFF7FEFF 		bl	CPU_SR_Save
 501 00f2 7863     		str	r0, [r7, #52]
 399:..\..\..\..\..\..\uCOS-III\Source/os_sem.c ****     switch (OSTCBCurPtr->PendStatus) {
 502              		.loc 1 399 0
 503 00f4 2D4B     		ldr	r3, .L52+8
 504 00f6 1B68     		ldr	r3, [r3]
 505 00f8 93F83530 		ldrb	r3, [r3, #53]	@ zero_extendqisi2
 506 00fc 032B     		cmp	r3, #3
 507 00fe 3CD8     		bhi	.L39
 508 0100 01A2     		adr	r2, .L41
ARM GAS  C:\Users\alex\AppData\Local\Temp\ccfIfgZ4.s 			page 17


 509 0102 52F823F0 		ldr	pc, [r2, r3, lsl #2]
 510 0106 00BF     		.p2align 2
 511              	.L41:
 512 0108 19010000 		.word	.L40+1
 513 010c 31010000 		.word	.L42+1
 514 0110 61010000 		.word	.L43+1
 515 0114 4B010000 		.word	.L44+1
 516              		.p2align 1
 517              	.L40:
 400:..\..\..\..\..\..\uCOS-III\Source/os_sem.c ****         case OS_STATUS_PEND_OK:                             /* We got the semaphore                
 401:..\..\..\..\..\..\uCOS-III\Source/os_sem.c ****              if (p_ts != (CPU_TS *)0) {
 518              		.loc 1 401 0
 519 0118 3B68     		ldr	r3, [r7]
 520 011a 002B     		cmp	r3, #0
 521 011c 04D0     		beq	.L45
 402:..\..\..\..\..\..\uCOS-III\Source/os_sem.c ****                 *p_ts  =  OSTCBCurPtr->TS;
 522              		.loc 1 402 0
 523 011e 234B     		ldr	r3, .L52+8
 524 0120 1B68     		ldr	r3, [r3]
 525 0122 1A6C     		ldr	r2, [r3, #64]
 526 0124 3B68     		ldr	r3, [r7]
 527 0126 1A60     		str	r2, [r3]
 528              	.L45:
 403:..\..\..\..\..\..\uCOS-III\Source/os_sem.c ****              }
 404:..\..\..\..\..\..\uCOS-III\Source/os_sem.c ****             *p_err = OS_ERR_NONE;
 529              		.loc 1 404 0
 530 0128 3B6C     		ldr	r3, [r7, #64]
 531 012a 0022     		movs	r2, #0
 532 012c 1A80     		strh	r2, [r3]	@ movhi
 405:..\..\..\..\..\..\uCOS-III\Source/os_sem.c ****              break;
 533              		.loc 1 405 0
 534 012e 2DE0     		b	.L46
 535              	.L42:
 406:..\..\..\..\..\..\uCOS-III\Source/os_sem.c **** 
 407:..\..\..\..\..\..\uCOS-III\Source/os_sem.c ****         case OS_STATUS_PEND_ABORT:                          /* Indicate that we aborted            
 408:..\..\..\..\..\..\uCOS-III\Source/os_sem.c ****              if (p_ts != (CPU_TS *)0) {
 536              		.loc 1 408 0
 537 0130 3B68     		ldr	r3, [r7]
 538 0132 002B     		cmp	r3, #0
 539 0134 04D0     		beq	.L47
 409:..\..\..\..\..\..\uCOS-III\Source/os_sem.c ****                 *p_ts  =  OSTCBCurPtr->TS;
 540              		.loc 1 409 0
 541 0136 1D4B     		ldr	r3, .L52+8
 542 0138 1B68     		ldr	r3, [r3]
 543 013a 1A6C     		ldr	r2, [r3, #64]
 544 013c 3B68     		ldr	r3, [r7]
 545 013e 1A60     		str	r2, [r3]
 546              	.L47:
 410:..\..\..\..\..\..\uCOS-III\Source/os_sem.c ****              }
 411:..\..\..\..\..\..\uCOS-III\Source/os_sem.c ****             *p_err = OS_ERR_PEND_ABORT;
 547              		.loc 1 411 0
 548 0140 3B6C     		ldr	r3, [r7, #64]
 549 0142 46F2A912 		movw	r2, #25001
 550 0146 1A80     		strh	r2, [r3]	@ movhi
 412:..\..\..\..\..\..\uCOS-III\Source/os_sem.c ****              break;
 551              		.loc 1 412 0
 552 0148 20E0     		b	.L46
ARM GAS  C:\Users\alex\AppData\Local\Temp\ccfIfgZ4.s 			page 18


 553              	.L44:
 413:..\..\..\..\..\..\uCOS-III\Source/os_sem.c **** 
 414:..\..\..\..\..\..\uCOS-III\Source/os_sem.c ****         case OS_STATUS_PEND_TIMEOUT:                        /* Indicate that we didn't get semaphor
 415:..\..\..\..\..\..\uCOS-III\Source/os_sem.c ****              if (p_ts != (CPU_TS *)0) {
 554              		.loc 1 415 0
 555 014a 3B68     		ldr	r3, [r7]
 556 014c 002B     		cmp	r3, #0
 557 014e 02D0     		beq	.L48
 416:..\..\..\..\..\..\uCOS-III\Source/os_sem.c ****                 *p_ts  = (CPU_TS  )0;
 558              		.loc 1 416 0
 559 0150 3B68     		ldr	r3, [r7]
 560 0152 0022     		movs	r2, #0
 561 0154 1A60     		str	r2, [r3]
 562              	.L48:
 417:..\..\..\..\..\..\uCOS-III\Source/os_sem.c ****              }
 418:..\..\..\..\..\..\uCOS-III\Source/os_sem.c ****             *p_err = OS_ERR_TIMEOUT;
 563              		.loc 1 418 0
 564 0156 3B6C     		ldr	r3, [r7, #64]
 565 0158 47F2D922 		movw	r2, #29401
 566 015c 1A80     		strh	r2, [r3]	@ movhi
 419:..\..\..\..\..\..\uCOS-III\Source/os_sem.c ****              break;
 567              		.loc 1 419 0
 568 015e 15E0     		b	.L46
 569              	.L43:
 420:..\..\..\..\..\..\uCOS-III\Source/os_sem.c **** 
 421:..\..\..\..\..\..\uCOS-III\Source/os_sem.c ****         case OS_STATUS_PEND_DEL:                            /* Indicate that object pended on has b
 422:..\..\..\..\..\..\uCOS-III\Source/os_sem.c ****              if (p_ts != (CPU_TS *)0) {
 570              		.loc 1 422 0
 571 0160 3B68     		ldr	r3, [r7]
 572 0162 002B     		cmp	r3, #0
 573 0164 04D0     		beq	.L49
 423:..\..\..\..\..\..\uCOS-III\Source/os_sem.c ****                 *p_ts  =  OSTCBCurPtr->TS;
 574              		.loc 1 423 0
 575 0166 114B     		ldr	r3, .L52+8
 576 0168 1B68     		ldr	r3, [r3]
 577 016a 1A6C     		ldr	r2, [r3, #64]
 578 016c 3B68     		ldr	r3, [r7]
 579 016e 1A60     		str	r2, [r3]
 580              	.L49:
 424:..\..\..\..\..\..\uCOS-III\Source/os_sem.c ****              }
 425:..\..\..\..\..\..\uCOS-III\Source/os_sem.c ****             *p_err = OS_ERR_OBJ_DEL;
 581              		.loc 1 425 0
 582 0170 3B6C     		ldr	r3, [r7, #64]
 583 0172 45F6C252 		movw	r2, #24002
 584 0176 1A80     		strh	r2, [r3]	@ movhi
 426:..\..\..\..\..\..\uCOS-III\Source/os_sem.c ****              break;
 585              		.loc 1 426 0
 586 0178 08E0     		b	.L46
 587              	.L39:
 427:..\..\..\..\..\..\uCOS-III\Source/os_sem.c **** 
 428:..\..\..\..\..\..\uCOS-III\Source/os_sem.c ****         default:
 429:..\..\..\..\..\..\uCOS-III\Source/os_sem.c ****             *p_err = OS_ERR_STATUS_INVALID;
 588              		.loc 1 429 0
 589 017a 3B6C     		ldr	r3, [r7, #64]
 590 017c 46F62E62 		movw	r2, #28206
 591 0180 1A80     		strh	r2, [r3]	@ movhi
 430:..\..\..\..\..\..\uCOS-III\Source/os_sem.c ****              CPU_CRITICAL_EXIT();
ARM GAS  C:\Users\alex\AppData\Local\Temp\ccfIfgZ4.s 			page 19


 592              		.loc 1 430 0
 593 0182 786B     		ldr	r0, [r7, #52]
 594 0184 FFF7FEFF 		bl	CPU_SR_Restore
 431:..\..\..\..\..\..\uCOS-III\Source/os_sem.c ****              return ((OS_SEM_CTR)0);
 595              		.loc 1 431 0
 596 0188 0023     		movs	r3, #0
 597 018a 06E0     		b	.L50
 598              	.L46:
 432:..\..\..\..\..\..\uCOS-III\Source/os_sem.c ****     }
 433:..\..\..\..\..\..\uCOS-III\Source/os_sem.c ****     ctr = p_sem->Ctr;
 599              		.loc 1 433 0
 600 018c FB68     		ldr	r3, [r7, #12]
 601 018e 1B6A     		ldr	r3, [r3, #32]
 602 0190 3B63     		str	r3, [r7, #48]
 434:..\..\..\..\..\..\uCOS-III\Source/os_sem.c ****     CPU_CRITICAL_EXIT();
 603              		.loc 1 434 0
 604 0192 786B     		ldr	r0, [r7, #52]
 605 0194 FFF7FEFF 		bl	CPU_SR_Restore
 435:..\..\..\..\..\..\uCOS-III\Source/os_sem.c ****     return (ctr);
 606              		.loc 1 435 0
 607 0198 3B6B     		ldr	r3, [r7, #48]
 608              	.L50:
 436:..\..\..\..\..\..\uCOS-III\Source/os_sem.c **** }
 609              		.loc 1 436 0 discriminator 1
 610 019a 1846     		mov	r0, r3
 611 019c 3837     		adds	r7, r7, #56
 612              		.cfi_def_cfa_offset 8
 613 019e BD46     		mov	sp, r7
 614              		.cfi_def_cfa_register 13
 615              		@ sp needed
 616 01a0 80BD     		pop	{r7, pc}
 617              	.L53:
 618 01a2 00BF     		.align	2
 619              	.L52:
 620 01a4 00000000 		.word	OSIntNestingCtr
 621 01a8 00000000 		.word	OSSchedLockNestingCtr
 622 01ac 00000000 		.word	OSTCBCurPtr
 623              		.cfi_endproc
 624              	.LFE2:
 625              		.size	OSSemPend, .-OSSemPend
 626              		.section	.text.OSSemPendAbort,"ax",%progbits
 627              		.align	2
 628              		.global	OSSemPendAbort
 629              		.thumb
 630              		.thumb_func
 631              		.type	OSSemPendAbort, %function
 632              	OSSemPendAbort:
 633              	.LFB3:
 437:..\..\..\..\..\..\uCOS-III\Source/os_sem.c **** 
 438:..\..\..\..\..\..\uCOS-III\Source/os_sem.c **** /*$PAGE*/
 439:..\..\..\..\..\..\uCOS-III\Source/os_sem.c **** /*
 440:..\..\..\..\..\..\uCOS-III\Source/os_sem.c **** ***************************************************************************************************
 441:..\..\..\..\..\..\uCOS-III\Source/os_sem.c **** *                                             ABORT WAITING ON A SEMAPHORE
 442:..\..\..\..\..\..\uCOS-III\Source/os_sem.c **** *
 443:..\..\..\..\..\..\uCOS-III\Source/os_sem.c **** * Description: This function aborts & readies any tasks currently waiting on a semaphore.  This fun
 444:..\..\..\..\..\..\uCOS-III\Source/os_sem.c **** *              to fault-abort the wait on the semaphore, rather than to normally signal the semapho
 445:..\..\..\..\..\..\uCOS-III\Source/os_sem.c **** *
ARM GAS  C:\Users\alex\AppData\Local\Temp\ccfIfgZ4.s 			page 20


 446:..\..\..\..\..\..\uCOS-III\Source/os_sem.c **** * Arguments  : p_sem     is a pointer to the semaphore
 447:..\..\..\..\..\..\uCOS-III\Source/os_sem.c **** *
 448:..\..\..\..\..\..\uCOS-III\Source/os_sem.c **** *              opt       determines the type of ABORT performed:
 449:..\..\..\..\..\..\uCOS-III\Source/os_sem.c **** *
 450:..\..\..\..\..\..\uCOS-III\Source/os_sem.c **** *                            OS_OPT_PEND_ABORT_1          ABORT wait for a single task (HPT) waitin
 451:..\..\..\..\..\..\uCOS-III\Source/os_sem.c **** *                            OS_OPT_PEND_ABORT_ALL        ABORT wait for ALL tasks that are  waitin
 452:..\..\..\..\..\..\uCOS-III\Source/os_sem.c **** *                            OS_OPT_POST_NO_SCHED         Do not call the scheduler
 453:..\..\..\..\..\..\uCOS-III\Source/os_sem.c **** *
 454:..\..\..\..\..\..\uCOS-III\Source/os_sem.c **** *              p_err     is a pointer to a variable that will contain an error code returned by thi
 455:..\..\..\..\..\..\uCOS-III\Source/os_sem.c **** *
 456:..\..\..\..\..\..\uCOS-III\Source/os_sem.c **** *                            OS_ERR_NONE                  At least one task waiting on the semaphor
 457:..\..\..\..\..\..\uCOS-III\Source/os_sem.c **** *                                                         informed of the aborted wait; check retur
 458:..\..\..\..\..\..\uCOS-III\Source/os_sem.c **** *                                                         number of tasks whose wait on the semapho
 459:..\..\..\..\..\..\uCOS-III\Source/os_sem.c **** *                            OS_ERR_OBJ_PTR_NULL          If 'p_sem' is a NULL pointer.
 460:..\..\..\..\..\..\uCOS-III\Source/os_sem.c **** *                            OS_ERR_OBJ_TYPE              If 'p_sem' is not pointing at a semaphore
 461:..\..\..\..\..\..\uCOS-III\Source/os_sem.c **** *                            OS_ERR_OPT_INVALID           If you specified an invalid option
 462:..\..\..\..\..\..\uCOS-III\Source/os_sem.c **** *                            OS_ERR_PEND_ABORT_ISR        If you called this function from an ISR
 463:..\..\..\..\..\..\uCOS-III\Source/os_sem.c **** *                            OS_ERR_PEND_ABORT_NONE       No task were pending
 464:..\..\..\..\..\..\uCOS-III\Source/os_sem.c **** *
 465:..\..\..\..\..\..\uCOS-III\Source/os_sem.c **** * Returns    : == 0          if no tasks were waiting on the semaphore, or upon error.
 466:..\..\..\..\..\..\uCOS-III\Source/os_sem.c **** *              >  0          if one or more tasks waiting on the semaphore are now readied and info
 467:..\..\..\..\..\..\uCOS-III\Source/os_sem.c **** ***************************************************************************************************
 468:..\..\..\..\..\..\uCOS-III\Source/os_sem.c **** */
 469:..\..\..\..\..\..\uCOS-III\Source/os_sem.c **** 
 470:..\..\..\..\..\..\uCOS-III\Source/os_sem.c **** #if OS_CFG_SEM_PEND_ABORT_EN > 0u
 471:..\..\..\..\..\..\uCOS-III\Source/os_sem.c **** OS_OBJ_QTY  OSSemPendAbort (OS_SEM  *p_sem,
 472:..\..\..\..\..\..\uCOS-III\Source/os_sem.c ****                             OS_OPT   opt,
 473:..\..\..\..\..\..\uCOS-III\Source/os_sem.c ****                             OS_ERR  *p_err)
 474:..\..\..\..\..\..\uCOS-III\Source/os_sem.c **** {
 634              		.loc 1 474 0
 635              		.cfi_startproc
 636              		@ args = 0, pretend = 0, frame = 40
 637              		@ frame_needed = 1, uses_anonymous_args = 0
 638 0000 80B5     		push	{r7, lr}
 639              		.cfi_def_cfa_offset 8
 640              		.cfi_offset 7, -8
 641              		.cfi_offset 14, -4
 642 0002 8AB0     		sub	sp, sp, #40
 643              		.cfi_def_cfa_offset 48
 644 0004 00AF     		add	r7, sp, #0
 645              		.cfi_def_cfa_register 7
 646 0006 F860     		str	r0, [r7, #12]
 647 0008 0B46     		mov	r3, r1
 648 000a 7A60     		str	r2, [r7, #4]
 649 000c 7B81     		strh	r3, [r7, #10]	@ movhi
 475:..\..\..\..\..\..\uCOS-III\Source/os_sem.c ****     OS_PEND_LIST  *p_pend_list;
 476:..\..\..\..\..\..\uCOS-III\Source/os_sem.c ****     OS_TCB        *p_tcb;
 477:..\..\..\..\..\..\uCOS-III\Source/os_sem.c ****     CPU_TS         ts;
 478:..\..\..\..\..\..\uCOS-III\Source/os_sem.c ****     OS_OBJ_QTY     nbr_tasks;
 479:..\..\..\..\..\..\uCOS-III\Source/os_sem.c ****     CPU_SR_ALLOC();
 650              		.loc 1 479 0
 651 000e 0023     		movs	r3, #0
 652 0010 3B62     		str	r3, [r7, #32]
 480:..\..\..\..\..\..\uCOS-III\Source/os_sem.c **** 
 481:..\..\..\..\..\..\uCOS-III\Source/os_sem.c **** 
 482:..\..\..\..\..\..\uCOS-III\Source/os_sem.c **** 
 483:..\..\..\..\..\..\uCOS-III\Source/os_sem.c **** #ifdef OS_SAFETY_CRITICAL
ARM GAS  C:\Users\alex\AppData\Local\Temp\ccfIfgZ4.s 			page 21


 484:..\..\..\..\..\..\uCOS-III\Source/os_sem.c ****     if (p_err == (OS_ERR *)0) {
 485:..\..\..\..\..\..\uCOS-III\Source/os_sem.c ****         OS_SAFETY_CRITICAL_EXCEPTION();
 486:..\..\..\..\..\..\uCOS-III\Source/os_sem.c ****         return ((OS_OBJ_QTY)0u);
 487:..\..\..\..\..\..\uCOS-III\Source/os_sem.c ****     }
 488:..\..\..\..\..\..\uCOS-III\Source/os_sem.c **** #endif
 489:..\..\..\..\..\..\uCOS-III\Source/os_sem.c **** 
 490:..\..\..\..\..\..\uCOS-III\Source/os_sem.c **** #if OS_CFG_CALLED_FROM_ISR_CHK_EN > 0u
 491:..\..\..\..\..\..\uCOS-III\Source/os_sem.c ****     if (OSIntNestingCtr > (OS_NESTING_CTR)0u) {             /* Not allowed to Pend Abort from an IS
 653              		.loc 1 491 0
 654 0012 354B     		ldr	r3, .L69
 655 0014 1B78     		ldrb	r3, [r3]	@ zero_extendqisi2
 656 0016 002B     		cmp	r3, #0
 657 0018 05D0     		beq	.L55
 492:..\..\..\..\..\..\uCOS-III\Source/os_sem.c ****        *p_err =  OS_ERR_PEND_ABORT_ISR;
 658              		.loc 1 492 0
 659 001a 7B68     		ldr	r3, [r7, #4]
 660 001c 46F2AA12 		movw	r2, #25002
 661 0020 1A80     		strh	r2, [r3]	@ movhi
 493:..\..\..\..\..\..\uCOS-III\Source/os_sem.c ****         return ((OS_OBJ_QTY)0u);
 662              		.loc 1 493 0
 663 0022 0023     		movs	r3, #0
 664 0024 5BE0     		b	.L56
 665              	.L55:
 494:..\..\..\..\..\..\uCOS-III\Source/os_sem.c ****     }
 495:..\..\..\..\..\..\uCOS-III\Source/os_sem.c **** #endif
 496:..\..\..\..\..\..\uCOS-III\Source/os_sem.c **** 
 497:..\..\..\..\..\..\uCOS-III\Source/os_sem.c **** #if OS_CFG_ARG_CHK_EN > 0u
 498:..\..\..\..\..\..\uCOS-III\Source/os_sem.c ****     if (p_sem == (OS_SEM *)0) {                             /* Validate 'p_sem'                    
 666              		.loc 1 498 0
 667 0026 FB68     		ldr	r3, [r7, #12]
 668 0028 002B     		cmp	r3, #0
 669 002a 05D1     		bne	.L57
 499:..\..\..\..\..\..\uCOS-III\Source/os_sem.c ****        *p_err =  OS_ERR_OBJ_PTR_NULL;
 670              		.loc 1 499 0
 671 002c 7B68     		ldr	r3, [r7, #4]
 672 002e 45F6C352 		movw	r2, #24003
 673 0032 1A80     		strh	r2, [r3]	@ movhi
 500:..\..\..\..\..\..\uCOS-III\Source/os_sem.c ****         return ((OS_OBJ_QTY)0u);
 674              		.loc 1 500 0
 675 0034 0023     		movs	r3, #0
 676 0036 52E0     		b	.L56
 677              	.L57:
 501:..\..\..\..\..\..\uCOS-III\Source/os_sem.c ****     }
 502:..\..\..\..\..\..\uCOS-III\Source/os_sem.c ****     switch (opt) {                                          /* Validate 'opt'                      
 678              		.loc 1 502 0
 679 0038 7B89     		ldrh	r3, [r7, #10]
 680 003a B3F5807F 		cmp	r3, #256
 681 003e 11D0     		beq	.L67
 682 0040 B3F5807F 		cmp	r3, #256
 683 0044 02DC     		bgt	.L60
 684 0046 002B     		cmp	r3, #0
 685 0048 0CD0     		beq	.L67
 686 004a 05E0     		b	.L58
 687              	.L60:
 688 004c B3F5004F 		cmp	r3, #32768
 689 0050 08D0     		beq	.L67
 690 0052 B3F5014F 		cmp	r3, #33024
ARM GAS  C:\Users\alex\AppData\Local\Temp\ccfIfgZ4.s 			page 22


 691 0056 05D0     		beq	.L67
 692              	.L58:
 503:..\..\..\..\..\..\uCOS-III\Source/os_sem.c ****         case OS_OPT_PEND_ABORT_1:
 504:..\..\..\..\..\..\uCOS-III\Source/os_sem.c ****         case OS_OPT_PEND_ABORT_ALL:
 505:..\..\..\..\..\..\uCOS-III\Source/os_sem.c ****         case OS_OPT_PEND_ABORT_1   | OS_OPT_POST_NO_SCHED:
 506:..\..\..\..\..\..\uCOS-III\Source/os_sem.c ****         case OS_OPT_PEND_ABORT_ALL | OS_OPT_POST_NO_SCHED:
 507:..\..\..\..\..\..\uCOS-III\Source/os_sem.c ****              break;
 508:..\..\..\..\..\..\uCOS-III\Source/os_sem.c **** 
 509:..\..\..\..\..\..\uCOS-III\Source/os_sem.c ****         default:
 510:..\..\..\..\..\..\uCOS-III\Source/os_sem.c ****             *p_err =  OS_ERR_OPT_INVALID;
 693              		.loc 1 510 0
 694 0058 7B68     		ldr	r3, [r7, #4]
 695 005a 45F62562 		movw	r2, #24101
 696 005e 1A80     		strh	r2, [r3]	@ movhi
 511:..\..\..\..\..\..\uCOS-III\Source/os_sem.c ****              return ((OS_OBJ_QTY)0u);
 697              		.loc 1 511 0
 698 0060 0023     		movs	r3, #0
 699 0062 3CE0     		b	.L56
 700              	.L67:
 507:..\..\..\..\..\..\uCOS-III\Source/os_sem.c **** 
 701              		.loc 1 507 0
 702 0064 00BF     		nop
 512:..\..\..\..\..\..\uCOS-III\Source/os_sem.c ****     }
 513:..\..\..\..\..\..\uCOS-III\Source/os_sem.c **** #endif
 514:..\..\..\..\..\..\uCOS-III\Source/os_sem.c **** 
 515:..\..\..\..\..\..\uCOS-III\Source/os_sem.c **** #if OS_CFG_OBJ_TYPE_CHK_EN > 0u
 516:..\..\..\..\..\..\uCOS-III\Source/os_sem.c ****     if (p_sem->Type != OS_OBJ_TYPE_SEM) {                   /* Make sure semaphore was created     
 517:..\..\..\..\..\..\uCOS-III\Source/os_sem.c ****        *p_err =  OS_ERR_OBJ_TYPE;
 518:..\..\..\..\..\..\uCOS-III\Source/os_sem.c ****         return ((OS_OBJ_QTY)0u);
 519:..\..\..\..\..\..\uCOS-III\Source/os_sem.c ****     }
 520:..\..\..\..\..\..\uCOS-III\Source/os_sem.c **** #endif
 521:..\..\..\..\..\..\uCOS-III\Source/os_sem.c **** 
 522:..\..\..\..\..\..\uCOS-III\Source/os_sem.c ****     CPU_CRITICAL_ENTER();
 703              		.loc 1 522 0
 704 0066 FFF7FEFF 		bl	CPU_SR_Save
 705 006a 3862     		str	r0, [r7, #32]
 523:..\..\..\..\..\..\uCOS-III\Source/os_sem.c ****     p_pend_list = &p_sem->PendList;
 706              		.loc 1 523 0
 707 006c FB68     		ldr	r3, [r7, #12]
 708 006e 0833     		adds	r3, r3, #8
 709 0070 FB61     		str	r3, [r7, #28]
 524:..\..\..\..\..\..\uCOS-III\Source/os_sem.c ****     if (p_pend_list->NbrEntries == (OS_OBJ_QTY)0u) {        /* Any task waiting on semaphore?      
 710              		.loc 1 524 0
 711 0072 FB69     		ldr	r3, [r7, #28]
 712 0074 1B89     		ldrh	r3, [r3, #8]
 713 0076 002B     		cmp	r3, #0
 714 0078 08D1     		bne	.L62
 525:..\..\..\..\..\..\uCOS-III\Source/os_sem.c ****         CPU_CRITICAL_EXIT();                                /* No                                  
 715              		.loc 1 525 0
 716 007a 386A     		ldr	r0, [r7, #32]
 717 007c FFF7FEFF 		bl	CPU_SR_Restore
 526:..\..\..\..\..\..\uCOS-III\Source/os_sem.c ****        *p_err =  OS_ERR_PEND_ABORT_NONE;
 718              		.loc 1 526 0
 719 0080 7B68     		ldr	r3, [r7, #4]
 720 0082 46F2AB12 		movw	r2, #25003
 721 0086 1A80     		strh	r2, [r3]	@ movhi
 527:..\..\..\..\..\..\uCOS-III\Source/os_sem.c ****         return ((OS_OBJ_QTY)0u);
ARM GAS  C:\Users\alex\AppData\Local\Temp\ccfIfgZ4.s 			page 23


 722              		.loc 1 527 0
 723 0088 0023     		movs	r3, #0
 724 008a 28E0     		b	.L56
 725              	.L62:
 528:..\..\..\..\..\..\uCOS-III\Source/os_sem.c ****     }
 529:..\..\..\..\..\..\uCOS-III\Source/os_sem.c **** 
 530:..\..\..\..\..\..\uCOS-III\Source/os_sem.c ****     OS_CRITICAL_ENTER_CPU_EXIT();
 531:..\..\..\..\..\..\uCOS-III\Source/os_sem.c ****     nbr_tasks = 0u;
 726              		.loc 1 531 0
 727 008c 0023     		movs	r3, #0
 728 008e FB84     		strh	r3, [r7, #38]	@ movhi
 532:..\..\..\..\..\..\uCOS-III\Source/os_sem.c ****     ts        = OS_TS_GET();                                /* Get local time stamp so all tasks ge
 729              		.loc 1 532 0
 730 0090 FFF7FEFF 		bl	CPU_TS_TmrRd
 731 0094 B861     		str	r0, [r7, #24]
 533:..\..\..\..\..\..\uCOS-III\Source/os_sem.c ****     while (p_pend_list->NbrEntries > (OS_OBJ_QTY)0u) {
 732              		.loc 1 533 0
 733 0096 0FE0     		b	.L63
 734              	.L65:
 534:..\..\..\..\..\..\uCOS-III\Source/os_sem.c ****         p_tcb = p_pend_list->HeadPtr->TCBPtr;
 735              		.loc 1 534 0
 736 0098 FB69     		ldr	r3, [r7, #28]
 737 009a 1B68     		ldr	r3, [r3]
 738 009c 9B68     		ldr	r3, [r3, #8]
 739 009e 7B61     		str	r3, [r7, #20]
 535:..\..\..\..\..\..\uCOS-III\Source/os_sem.c ****         OS_PendAbort((OS_PEND_OBJ *)((void *)p_sem),
 740              		.loc 1 535 0
 741 00a0 BA69     		ldr	r2, [r7, #24]
 742 00a2 7969     		ldr	r1, [r7, #20]
 743 00a4 F868     		ldr	r0, [r7, #12]
 744 00a6 FFF7FEFF 		bl	OS_PendAbort
 536:..\..\..\..\..\..\uCOS-III\Source/os_sem.c ****                      p_tcb,
 537:..\..\..\..\..\..\uCOS-III\Source/os_sem.c ****                      ts);
 538:..\..\..\..\..\..\uCOS-III\Source/os_sem.c ****         nbr_tasks++;
 745              		.loc 1 538 0
 746 00aa FB8C     		ldrh	r3, [r7, #38]
 747 00ac 0133     		adds	r3, r3, #1
 748 00ae FB84     		strh	r3, [r7, #38]	@ movhi
 539:..\..\..\..\..\..\uCOS-III\Source/os_sem.c ****         if (opt != OS_OPT_PEND_ABORT_ALL) {                 /* Pend abort all tasks waiting?       
 749              		.loc 1 539 0
 750 00b0 7B89     		ldrh	r3, [r7, #10]
 751 00b2 B3F5807F 		cmp	r3, #256
 752 00b6 04D1     		bne	.L68
 753              	.L63:
 533:..\..\..\..\..\..\uCOS-III\Source/os_sem.c ****         p_tcb = p_pend_list->HeadPtr->TCBPtr;
 754              		.loc 1 533 0
 755 00b8 FB69     		ldr	r3, [r7, #28]
 756 00ba 1B89     		ldrh	r3, [r3, #8]
 757 00bc 002B     		cmp	r3, #0
 758 00be EBD1     		bne	.L65
 759 00c0 00E0     		b	.L64
 760              	.L68:
 540:..\..\..\..\..\..\uCOS-III\Source/os_sem.c ****             break;                                          /* No                                  
 761              		.loc 1 540 0
 762 00c2 00BF     		nop
 763              	.L64:
 541:..\..\..\..\..\..\uCOS-III\Source/os_sem.c ****         }
ARM GAS  C:\Users\alex\AppData\Local\Temp\ccfIfgZ4.s 			page 24


 542:..\..\..\..\..\..\uCOS-III\Source/os_sem.c ****     }
 543:..\..\..\..\..\..\uCOS-III\Source/os_sem.c ****     OS_CRITICAL_EXIT_NO_SCHED();
 764              		.loc 1 543 0
 765 00c4 386A     		ldr	r0, [r7, #32]
 766 00c6 FFF7FEFF 		bl	CPU_SR_Restore
 544:..\..\..\..\..\..\uCOS-III\Source/os_sem.c **** 
 545:..\..\..\..\..\..\uCOS-III\Source/os_sem.c ****     if ((opt & OS_OPT_POST_NO_SCHED) == (OS_OPT)0u) {
 767              		.loc 1 545 0
 768 00ca B7F90A30 		ldrsh	r3, [r7, #10]
 769 00ce 002B     		cmp	r3, #0
 770 00d0 01DB     		blt	.L66
 546:..\..\..\..\..\..\uCOS-III\Source/os_sem.c ****         OSSched();                                          /* Run the scheduler                   
 771              		.loc 1 546 0
 772 00d2 FFF7FEFF 		bl	OSSched
 773              	.L66:
 547:..\..\..\..\..\..\uCOS-III\Source/os_sem.c ****     }
 548:..\..\..\..\..\..\uCOS-III\Source/os_sem.c **** 
 549:..\..\..\..\..\..\uCOS-III\Source/os_sem.c ****    *p_err = OS_ERR_NONE;
 774              		.loc 1 549 0
 775 00d6 7B68     		ldr	r3, [r7, #4]
 776 00d8 0022     		movs	r2, #0
 777 00da 1A80     		strh	r2, [r3]	@ movhi
 550:..\..\..\..\..\..\uCOS-III\Source/os_sem.c ****     return (nbr_tasks);
 778              		.loc 1 550 0
 779 00dc FB8C     		ldrh	r3, [r7, #38]
 780              	.L56:
 551:..\..\..\..\..\..\uCOS-III\Source/os_sem.c **** }
 781              		.loc 1 551 0
 782 00de 1846     		mov	r0, r3
 783 00e0 2837     		adds	r7, r7, #40
 784              		.cfi_def_cfa_offset 8
 785 00e2 BD46     		mov	sp, r7
 786              		.cfi_def_cfa_register 13
 787              		@ sp needed
 788 00e4 80BD     		pop	{r7, pc}
 789              	.L70:
 790 00e6 00BF     		.align	2
 791              	.L69:
 792 00e8 00000000 		.word	OSIntNestingCtr
 793              		.cfi_endproc
 794              	.LFE3:
 795              		.size	OSSemPendAbort, .-OSSemPendAbort
 796              		.section	.text.OSSemPost,"ax",%progbits
 797              		.align	2
 798              		.global	OSSemPost
 799              		.thumb
 800              		.thumb_func
 801              		.type	OSSemPost, %function
 802              	OSSemPost:
 803              	.LFB4:
 552:..\..\..\..\..\..\uCOS-III\Source/os_sem.c **** #endif
 553:..\..\..\..\..\..\uCOS-III\Source/os_sem.c **** 
 554:..\..\..\..\..\..\uCOS-III\Source/os_sem.c **** /*$PAGE*/
 555:..\..\..\..\..\..\uCOS-III\Source/os_sem.c **** /*
 556:..\..\..\..\..\..\uCOS-III\Source/os_sem.c **** ***************************************************************************************************
 557:..\..\..\..\..\..\uCOS-III\Source/os_sem.c **** *                                                 POST TO A SEMAPHORE
 558:..\..\..\..\..\..\uCOS-III\Source/os_sem.c **** *
ARM GAS  C:\Users\alex\AppData\Local\Temp\ccfIfgZ4.s 			page 25


 559:..\..\..\..\..\..\uCOS-III\Source/os_sem.c **** * Description: This function signals a semaphore
 560:..\..\..\..\..\..\uCOS-III\Source/os_sem.c **** *
 561:..\..\..\..\..\..\uCOS-III\Source/os_sem.c **** * Arguments  : p_sem    is a pointer to the semaphore
 562:..\..\..\..\..\..\uCOS-III\Source/os_sem.c **** *
 563:..\..\..\..\..\..\uCOS-III\Source/os_sem.c **** *              opt      determines the type of POST performed:
 564:..\..\..\..\..\..\uCOS-III\Source/os_sem.c **** *
 565:..\..\..\..\..\..\uCOS-III\Source/os_sem.c **** *                           OS_OPT_POST_1            POST and ready only the highest priority task 
 566:..\..\..\..\..\..\uCOS-III\Source/os_sem.c **** *                                                    (if tasks are waiting).
 567:..\..\..\..\..\..\uCOS-III\Source/os_sem.c **** *                           OS_OPT_POST_ALL          POST to ALL tasks that are waiting on the sema
 568:..\..\..\..\..\..\uCOS-III\Source/os_sem.c **** *
 569:..\..\..\..\..\..\uCOS-III\Source/os_sem.c **** *                           OS_OPT_POST_NO_SCHED     Do not call the scheduler
 570:..\..\..\..\..\..\uCOS-III\Source/os_sem.c **** *
 571:..\..\..\..\..\..\uCOS-III\Source/os_sem.c **** *                           Note(s): 1) OS_OPT_POST_NO_SCHED can be added with one of the other opt
 572:..\..\..\..\..\..\uCOS-III\Source/os_sem.c **** *
 573:..\..\..\..\..\..\uCOS-III\Source/os_sem.c **** *              p_err    is a pointer to a variable that will contain an error code returned by this
 574:..\..\..\..\..\..\uCOS-III\Source/os_sem.c **** *
 575:..\..\..\..\..\..\uCOS-III\Source/os_sem.c **** *                           OS_ERR_NONE          The call was successful and the semaphore was sign
 576:..\..\..\..\..\..\uCOS-III\Source/os_sem.c **** *                           OS_ERR_OBJ_PTR_NULL  If 'p_sem' is a NULL pointer.
 577:..\..\..\..\..\..\uCOS-III\Source/os_sem.c **** *                           OS_ERR_OBJ_TYPE      If 'p_sem' is not pointing at a semaphore
 578:..\..\..\..\..\..\uCOS-III\Source/os_sem.c **** *                           OS_ERR_SEM_OVF       If the post would cause the semaphore count to ove
 579:..\..\..\..\..\..\uCOS-III\Source/os_sem.c **** *
 580:..\..\..\..\..\..\uCOS-III\Source/os_sem.c **** * Returns    : The current value of the semaphore counter or 0 upon error.
 581:..\..\..\..\..\..\uCOS-III\Source/os_sem.c **** ***************************************************************************************************
 582:..\..\..\..\..\..\uCOS-III\Source/os_sem.c **** */
 583:..\..\..\..\..\..\uCOS-III\Source/os_sem.c **** 
 584:..\..\..\..\..\..\uCOS-III\Source/os_sem.c **** OS_SEM_CTR  OSSemPost (OS_SEM  *p_sem,
 585:..\..\..\..\..\..\uCOS-III\Source/os_sem.c ****                        OS_OPT   opt,
 586:..\..\..\..\..\..\uCOS-III\Source/os_sem.c ****                        OS_ERR  *p_err)
 587:..\..\..\..\..\..\uCOS-III\Source/os_sem.c **** {
 804              		.loc 1 587 0
 805              		.cfi_startproc
 806              		@ args = 0, pretend = 0, frame = 24
 807              		@ frame_needed = 1, uses_anonymous_args = 0
 808 0000 80B5     		push	{r7, lr}
 809              		.cfi_def_cfa_offset 8
 810              		.cfi_offset 7, -8
 811              		.cfi_offset 14, -4
 812 0002 86B0     		sub	sp, sp, #24
 813              		.cfi_def_cfa_offset 32
 814 0004 00AF     		add	r7, sp, #0
 815              		.cfi_def_cfa_register 7
 816 0006 F860     		str	r0, [r7, #12]
 817 0008 0B46     		mov	r3, r1
 818 000a 7A60     		str	r2, [r7, #4]
 819 000c 7B81     		strh	r3, [r7, #10]	@ movhi
 588:..\..\..\..\..\..\uCOS-III\Source/os_sem.c ****     OS_SEM_CTR  ctr;
 589:..\..\..\..\..\..\uCOS-III\Source/os_sem.c ****     CPU_TS      ts;
 590:..\..\..\..\..\..\uCOS-III\Source/os_sem.c **** 
 591:..\..\..\..\..\..\uCOS-III\Source/os_sem.c **** 
 592:..\..\..\..\..\..\uCOS-III\Source/os_sem.c **** 
 593:..\..\..\..\..\..\uCOS-III\Source/os_sem.c **** #ifdef OS_SAFETY_CRITICAL
 594:..\..\..\..\..\..\uCOS-III\Source/os_sem.c ****     if (p_err == (OS_ERR *)0) {
 595:..\..\..\..\..\..\uCOS-III\Source/os_sem.c ****         OS_SAFETY_CRITICAL_EXCEPTION();
 596:..\..\..\..\..\..\uCOS-III\Source/os_sem.c ****         return ((OS_SEM_CTR)0);
 597:..\..\..\..\..\..\uCOS-III\Source/os_sem.c ****     }
 598:..\..\..\..\..\..\uCOS-III\Source/os_sem.c **** #endif
 599:..\..\..\..\..\..\uCOS-III\Source/os_sem.c **** 
ARM GAS  C:\Users\alex\AppData\Local\Temp\ccfIfgZ4.s 			page 26


 600:..\..\..\..\..\..\uCOS-III\Source/os_sem.c **** #if OS_CFG_ARG_CHK_EN > 0u
 601:..\..\..\..\..\..\uCOS-III\Source/os_sem.c ****     if (p_sem == (OS_SEM *)0) {                             /* Validate 'p_sem'                    
 820              		.loc 1 601 0
 821 000e FB68     		ldr	r3, [r7, #12]
 822 0010 002B     		cmp	r3, #0
 823 0012 05D1     		bne	.L72
 602:..\..\..\..\..\..\uCOS-III\Source/os_sem.c ****        *p_err  = OS_ERR_OBJ_PTR_NULL;
 824              		.loc 1 602 0
 825 0014 7B68     		ldr	r3, [r7, #4]
 826 0016 45F6C352 		movw	r2, #24003
 827 001a 1A80     		strh	r2, [r3]	@ movhi
 603:..\..\..\..\..\..\uCOS-III\Source/os_sem.c ****         return ((OS_SEM_CTR)0);
 828              		.loc 1 603 0
 829 001c 0023     		movs	r3, #0
 830 001e 21E0     		b	.L73
 831              	.L72:
 604:..\..\..\..\..\..\uCOS-III\Source/os_sem.c ****     }
 605:..\..\..\..\..\..\uCOS-III\Source/os_sem.c ****     switch (opt) {                                          /* Validate 'opt'                      
 832              		.loc 1 605 0
 833 0020 7B89     		ldrh	r3, [r7, #10]
 834 0022 B3F5007F 		cmp	r3, #512
 835 0026 11D0     		beq	.L78
 836 0028 B3F5007F 		cmp	r3, #512
 837 002c 02DC     		bgt	.L76
 838 002e 002B     		cmp	r3, #0
 839 0030 0CD0     		beq	.L78
 840 0032 05E0     		b	.L74
 841              	.L76:
 842 0034 B3F5004F 		cmp	r3, #32768
 843 0038 08D0     		beq	.L78
 844 003a B3F5024F 		cmp	r3, #33280
 845 003e 05D0     		beq	.L78
 846              	.L74:
 606:..\..\..\..\..\..\uCOS-III\Source/os_sem.c ****         case OS_OPT_POST_1:
 607:..\..\..\..\..\..\uCOS-III\Source/os_sem.c ****         case OS_OPT_POST_ALL:
 608:..\..\..\..\..\..\uCOS-III\Source/os_sem.c ****         case OS_OPT_POST_1   | OS_OPT_POST_NO_SCHED:
 609:..\..\..\..\..\..\uCOS-III\Source/os_sem.c ****         case OS_OPT_POST_ALL | OS_OPT_POST_NO_SCHED:
 610:..\..\..\..\..\..\uCOS-III\Source/os_sem.c ****              break;
 611:..\..\..\..\..\..\uCOS-III\Source/os_sem.c **** 
 612:..\..\..\..\..\..\uCOS-III\Source/os_sem.c ****         default:
 613:..\..\..\..\..\..\uCOS-III\Source/os_sem.c ****             *p_err =  OS_ERR_OPT_INVALID;
 847              		.loc 1 613 0
 848 0040 7B68     		ldr	r3, [r7, #4]
 849 0042 45F62562 		movw	r2, #24101
 850 0046 1A80     		strh	r2, [r3]	@ movhi
 614:..\..\..\..\..\..\uCOS-III\Source/os_sem.c ****              return ((OS_SEM_CTR)0u);
 851              		.loc 1 614 0
 852 0048 0023     		movs	r3, #0
 853 004a 0BE0     		b	.L73
 854              	.L78:
 610:..\..\..\..\..\..\uCOS-III\Source/os_sem.c **** 
 855              		.loc 1 610 0
 856 004c 00BF     		nop
 615:..\..\..\..\..\..\uCOS-III\Source/os_sem.c ****     }
 616:..\..\..\..\..\..\uCOS-III\Source/os_sem.c **** #endif
 617:..\..\..\..\..\..\uCOS-III\Source/os_sem.c **** 
 618:..\..\..\..\..\..\uCOS-III\Source/os_sem.c **** #if OS_CFG_OBJ_TYPE_CHK_EN > 0u
ARM GAS  C:\Users\alex\AppData\Local\Temp\ccfIfgZ4.s 			page 27


 619:..\..\..\..\..\..\uCOS-III\Source/os_sem.c ****     if (p_sem->Type != OS_OBJ_TYPE_SEM) {                   /* Make sure semaphore was created     
 620:..\..\..\..\..\..\uCOS-III\Source/os_sem.c ****        *p_err = OS_ERR_OBJ_TYPE;
 621:..\..\..\..\..\..\uCOS-III\Source/os_sem.c ****         return ((OS_SEM_CTR)0);
 622:..\..\..\..\..\..\uCOS-III\Source/os_sem.c ****     }
 623:..\..\..\..\..\..\uCOS-III\Source/os_sem.c **** #endif
 624:..\..\..\..\..\..\uCOS-III\Source/os_sem.c **** 
 625:..\..\..\..\..\..\uCOS-III\Source/os_sem.c ****     ts = OS_TS_GET();                                       /* Get timestamp                       
 857              		.loc 1 625 0
 858 004e FFF7FEFF 		bl	CPU_TS_TmrRd
 859 0052 7861     		str	r0, [r7, #20]
 626:..\..\..\..\..\..\uCOS-III\Source/os_sem.c **** 
 627:..\..\..\..\..\..\uCOS-III\Source/os_sem.c **** #if OS_CFG_ISR_POST_DEFERRED_EN > 0u
 628:..\..\..\..\..\..\uCOS-III\Source/os_sem.c ****     if (OSIntNestingCtr > (OS_NESTING_CTR)0) {              /* See if called from an ISR           
 629:..\..\..\..\..\..\uCOS-III\Source/os_sem.c ****         OS_IntQPost((OS_OBJ_TYPE)OS_OBJ_TYPE_SEM,           /* Post to ISR queue                   
 630:..\..\..\..\..\..\uCOS-III\Source/os_sem.c ****                     (void      *)p_sem,
 631:..\..\..\..\..\..\uCOS-III\Source/os_sem.c ****                     (void      *)0,
 632:..\..\..\..\..\..\uCOS-III\Source/os_sem.c ****                     (OS_MSG_SIZE)0,
 633:..\..\..\..\..\..\uCOS-III\Source/os_sem.c ****                     (OS_FLAGS   )0,
 634:..\..\..\..\..\..\uCOS-III\Source/os_sem.c ****                     (OS_OPT     )opt,
 635:..\..\..\..\..\..\uCOS-III\Source/os_sem.c ****                     (CPU_TS     )ts,
 636:..\..\..\..\..\..\uCOS-III\Source/os_sem.c ****                     (OS_ERR    *)p_err);
 637:..\..\..\..\..\..\uCOS-III\Source/os_sem.c ****         return ((OS_SEM_CTR)0);
 638:..\..\..\..\..\..\uCOS-III\Source/os_sem.c ****     }
 639:..\..\..\..\..\..\uCOS-III\Source/os_sem.c **** #endif
 640:..\..\..\..\..\..\uCOS-III\Source/os_sem.c **** 
 641:..\..\..\..\..\..\uCOS-III\Source/os_sem.c ****     ctr = OS_SemPost(p_sem,                                 /* Post to semaphore                   
 860              		.loc 1 641 0
 861 0054 7989     		ldrh	r1, [r7, #10]
 862 0056 7B68     		ldr	r3, [r7, #4]
 863 0058 7A69     		ldr	r2, [r7, #20]
 864 005a F868     		ldr	r0, [r7, #12]
 865 005c FFF7FEFF 		bl	OS_SemPost
 866 0060 3861     		str	r0, [r7, #16]
 642:..\..\..\..\..\..\uCOS-III\Source/os_sem.c ****                      opt,
 643:..\..\..\..\..\..\uCOS-III\Source/os_sem.c ****                      ts,
 644:..\..\..\..\..\..\uCOS-III\Source/os_sem.c ****                      p_err);
 645:..\..\..\..\..\..\uCOS-III\Source/os_sem.c **** 
 646:..\..\..\..\..\..\uCOS-III\Source/os_sem.c ****     return (ctr);
 867              		.loc 1 646 0
 868 0062 3B69     		ldr	r3, [r7, #16]
 869              	.L73:
 647:..\..\..\..\..\..\uCOS-III\Source/os_sem.c **** }
 870              		.loc 1 647 0
 871 0064 1846     		mov	r0, r3
 872 0066 1837     		adds	r7, r7, #24
 873              		.cfi_def_cfa_offset 8
 874 0068 BD46     		mov	sp, r7
 875              		.cfi_def_cfa_register 13
 876              		@ sp needed
 877 006a 80BD     		pop	{r7, pc}
 878              		.cfi_endproc
 879              	.LFE4:
 880              		.size	OSSemPost, .-OSSemPost
 881              		.section	.text.OSSemSet,"ax",%progbits
 882              		.align	2
 883              		.global	OSSemSet
 884              		.thumb
ARM GAS  C:\Users\alex\AppData\Local\Temp\ccfIfgZ4.s 			page 28


 885              		.thumb_func
 886              		.type	OSSemSet, %function
 887              	OSSemSet:
 888              	.LFB5:
 648:..\..\..\..\..\..\uCOS-III\Source/os_sem.c **** 
 649:..\..\..\..\..\..\uCOS-III\Source/os_sem.c **** /*$PAGE*/
 650:..\..\..\..\..\..\uCOS-III\Source/os_sem.c **** /*
 651:..\..\..\..\..\..\uCOS-III\Source/os_sem.c **** ***************************************************************************************************
 652:..\..\..\..\..\..\uCOS-III\Source/os_sem.c **** *                                                    SET SEMAPHORE
 653:..\..\..\..\..\..\uCOS-III\Source/os_sem.c **** *
 654:..\..\..\..\..\..\uCOS-III\Source/os_sem.c **** * Description: This function sets the semaphore count to the value specified as an argument.  Typic
 655:..\..\..\..\..\..\uCOS-III\Source/os_sem.c **** *              would be 0 but of course, we can set the semaphore to any value.
 656:..\..\..\..\..\..\uCOS-III\Source/os_sem.c **** *
 657:..\..\..\..\..\..\uCOS-III\Source/os_sem.c **** *              You would typically use this function when a semaphore is used as a signaling mechan
 658:..\..\..\..\..\..\uCOS-III\Source/os_sem.c **** *              and, you want to reset the count value.
 659:..\..\..\..\..\..\uCOS-III\Source/os_sem.c **** *
 660:..\..\..\..\..\..\uCOS-III\Source/os_sem.c **** * Arguments  : p_sem     is a pointer to the semaphore
 661:..\..\..\..\..\..\uCOS-III\Source/os_sem.c **** *
 662:..\..\..\..\..\..\uCOS-III\Source/os_sem.c **** *              cnt       is the new value for the semaphore count.  You would pass 0 to reset the s
 663:..\..\..\..\..\..\uCOS-III\Source/os_sem.c **** *
 664:..\..\..\..\..\..\uCOS-III\Source/os_sem.c **** *              p_err     is a pointer to a variable that will contain an error code returned by thi
 665:..\..\..\..\..\..\uCOS-III\Source/os_sem.c **** *
 666:..\..\..\..\..\..\uCOS-III\Source/os_sem.c **** *                            OS_ERR_NONE           The call was successful and the semaphore value 
 667:..\..\..\..\..\..\uCOS-III\Source/os_sem.c **** *                            OS_ERR_OBJ_PTR_NULL   If 'p_sem' is a NULL pointer.
 668:..\..\..\..\..\..\uCOS-III\Source/os_sem.c **** *                            OS_ERR_OBJ_TYPE       If 'p_sem' is not pointing to a semaphore.
 669:..\..\..\..\..\..\uCOS-III\Source/os_sem.c **** *                            OS_ERR_TASK_WAITING   If tasks are waiting on the semaphore.
 670:..\..\..\..\..\..\uCOS-III\Source/os_sem.c **** *
 671:..\..\..\..\..\..\uCOS-III\Source/os_sem.c **** * Returns    : None
 672:..\..\..\..\..\..\uCOS-III\Source/os_sem.c **** ***************************************************************************************************
 673:..\..\..\..\..\..\uCOS-III\Source/os_sem.c **** */
 674:..\..\..\..\..\..\uCOS-III\Source/os_sem.c **** 
 675:..\..\..\..\..\..\uCOS-III\Source/os_sem.c **** #if OS_CFG_SEM_SET_EN > 0u
 676:..\..\..\..\..\..\uCOS-III\Source/os_sem.c **** void  OSSemSet (OS_SEM      *p_sem,
 677:..\..\..\..\..\..\uCOS-III\Source/os_sem.c ****                 OS_SEM_CTR   cnt,
 678:..\..\..\..\..\..\uCOS-III\Source/os_sem.c ****                 OS_ERR      *p_err)
 679:..\..\..\..\..\..\uCOS-III\Source/os_sem.c **** {
 889              		.loc 1 679 0
 890              		.cfi_startproc
 891              		@ args = 0, pretend = 0, frame = 24
 892              		@ frame_needed = 1, uses_anonymous_args = 0
 893 0000 80B5     		push	{r7, lr}
 894              		.cfi_def_cfa_offset 8
 895              		.cfi_offset 7, -8
 896              		.cfi_offset 14, -4
 897 0002 86B0     		sub	sp, sp, #24
 898              		.cfi_def_cfa_offset 32
 899 0004 00AF     		add	r7, sp, #0
 900              		.cfi_def_cfa_register 7
 901 0006 F860     		str	r0, [r7, #12]
 902 0008 B960     		str	r1, [r7, #8]
 903 000a 7A60     		str	r2, [r7, #4]
 680:..\..\..\..\..\..\uCOS-III\Source/os_sem.c ****     OS_PEND_LIST  *p_pend_list;
 681:..\..\..\..\..\..\uCOS-III\Source/os_sem.c ****     CPU_SR_ALLOC();
 904              		.loc 1 681 0
 905 000c 0023     		movs	r3, #0
 906 000e 7B61     		str	r3, [r7, #20]
 682:..\..\..\..\..\..\uCOS-III\Source/os_sem.c **** 
ARM GAS  C:\Users\alex\AppData\Local\Temp\ccfIfgZ4.s 			page 29


 683:..\..\..\..\..\..\uCOS-III\Source/os_sem.c **** 
 684:..\..\..\..\..\..\uCOS-III\Source/os_sem.c **** 
 685:..\..\..\..\..\..\uCOS-III\Source/os_sem.c **** #ifdef OS_SAFETY_CRITICAL
 686:..\..\..\..\..\..\uCOS-III\Source/os_sem.c ****     if (p_err == (OS_ERR *)0) {
 687:..\..\..\..\..\..\uCOS-III\Source/os_sem.c ****         OS_SAFETY_CRITICAL_EXCEPTION();
 688:..\..\..\..\..\..\uCOS-III\Source/os_sem.c ****         return;
 689:..\..\..\..\..\..\uCOS-III\Source/os_sem.c ****     }
 690:..\..\..\..\..\..\uCOS-III\Source/os_sem.c **** #endif
 691:..\..\..\..\..\..\uCOS-III\Source/os_sem.c **** 
 692:..\..\..\..\..\..\uCOS-III\Source/os_sem.c **** #if OS_CFG_CALLED_FROM_ISR_CHK_EN > 0u
 693:..\..\..\..\..\..\uCOS-III\Source/os_sem.c ****     if (OSIntNestingCtr > (OS_NESTING_CTR)0) {              /* Can't call this function from an ISR
 907              		.loc 1 693 0
 908 0010 194B     		ldr	r3, .L86
 909 0012 1B78     		ldrb	r3, [r3]	@ zero_extendqisi2
 910 0014 002B     		cmp	r3, #0
 911 0016 04D0     		beq	.L80
 694:..\..\..\..\..\..\uCOS-III\Source/os_sem.c ****        *p_err = OS_ERR_SET_ISR;
 912              		.loc 1 694 0
 913 0018 7B68     		ldr	r3, [r7, #4]
 914 001a 46F6C652 		movw	r2, #28102
 915 001e 1A80     		strh	r2, [r3]	@ movhi
 695:..\..\..\..\..\..\uCOS-III\Source/os_sem.c ****         return;
 916              		.loc 1 695 0
 917 0020 27E0     		b	.L79
 918              	.L80:
 696:..\..\..\..\..\..\uCOS-III\Source/os_sem.c ****     }
 697:..\..\..\..\..\..\uCOS-III\Source/os_sem.c **** #endif
 698:..\..\..\..\..\..\uCOS-III\Source/os_sem.c **** 
 699:..\..\..\..\..\..\uCOS-III\Source/os_sem.c **** #if OS_CFG_ARG_CHK_EN > 0u
 700:..\..\..\..\..\..\uCOS-III\Source/os_sem.c ****     if (p_sem == (OS_SEM *)0) {                             /* Validate 'p_sem'                    
 919              		.loc 1 700 0
 920 0022 FB68     		ldr	r3, [r7, #12]
 921 0024 002B     		cmp	r3, #0
 922 0026 04D1     		bne	.L82
 701:..\..\..\..\..\..\uCOS-III\Source/os_sem.c ****        *p_err = OS_ERR_OBJ_PTR_NULL;
 923              		.loc 1 701 0
 924 0028 7B68     		ldr	r3, [r7, #4]
 925 002a 45F6C352 		movw	r2, #24003
 926 002e 1A80     		strh	r2, [r3]	@ movhi
 702:..\..\..\..\..\..\uCOS-III\Source/os_sem.c ****         return;
 927              		.loc 1 702 0
 928 0030 1FE0     		b	.L79
 929              	.L82:
 703:..\..\..\..\..\..\uCOS-III\Source/os_sem.c ****     }
 704:..\..\..\..\..\..\uCOS-III\Source/os_sem.c **** #endif
 705:..\..\..\..\..\..\uCOS-III\Source/os_sem.c **** 
 706:..\..\..\..\..\..\uCOS-III\Source/os_sem.c **** #if OS_CFG_OBJ_TYPE_CHK_EN > 0u
 707:..\..\..\..\..\..\uCOS-III\Source/os_sem.c ****     if (p_sem->Type != OS_OBJ_TYPE_SEM) {                   /* Make sure semaphore was created     
 708:..\..\..\..\..\..\uCOS-III\Source/os_sem.c ****        *p_err = OS_ERR_OBJ_TYPE;
 709:..\..\..\..\..\..\uCOS-III\Source/os_sem.c ****         return;
 710:..\..\..\..\..\..\uCOS-III\Source/os_sem.c ****     }
 711:..\..\..\..\..\..\uCOS-III\Source/os_sem.c **** #endif
 712:..\..\..\..\..\..\uCOS-III\Source/os_sem.c **** 
 713:..\..\..\..\..\..\uCOS-III\Source/os_sem.c ****    *p_err = OS_ERR_NONE;
 930              		.loc 1 713 0
 931 0032 7B68     		ldr	r3, [r7, #4]
 932 0034 0022     		movs	r2, #0
ARM GAS  C:\Users\alex\AppData\Local\Temp\ccfIfgZ4.s 			page 30


 933 0036 1A80     		strh	r2, [r3]	@ movhi
 714:..\..\..\..\..\..\uCOS-III\Source/os_sem.c ****     CPU_CRITICAL_ENTER();
 934              		.loc 1 714 0
 935 0038 FFF7FEFF 		bl	CPU_SR_Save
 936 003c 7861     		str	r0, [r7, #20]
 715:..\..\..\..\..\..\uCOS-III\Source/os_sem.c ****     if (p_sem->Ctr > (OS_SEM_CTR)0) {                       /* See if semaphore already has a count
 937              		.loc 1 715 0
 938 003e FB68     		ldr	r3, [r7, #12]
 939 0040 1B6A     		ldr	r3, [r3, #32]
 940 0042 002B     		cmp	r3, #0
 941 0044 03D0     		beq	.L83
 716:..\..\..\..\..\..\uCOS-III\Source/os_sem.c ****         p_sem->Ctr = cnt;                                   /* Yes, set it to the new value specifi
 942              		.loc 1 716 0
 943 0046 FB68     		ldr	r3, [r7, #12]
 944 0048 BA68     		ldr	r2, [r7, #8]
 945 004a 1A62     		str	r2, [r3, #32]
 946 004c 0EE0     		b	.L84
 947              	.L83:
 717:..\..\..\..\..\..\uCOS-III\Source/os_sem.c ****     } else {
 718:..\..\..\..\..\..\uCOS-III\Source/os_sem.c ****         p_pend_list = &p_sem->PendList;                     /* No                                  
 948              		.loc 1 718 0
 949 004e FB68     		ldr	r3, [r7, #12]
 950 0050 0833     		adds	r3, r3, #8
 951 0052 3B61     		str	r3, [r7, #16]
 719:..\..\..\..\..\..\uCOS-III\Source/os_sem.c ****         if (p_pend_list->NbrEntries == (OS_OBJ_QTY)0) {     /*      See if task(s) waiting?        
 952              		.loc 1 719 0
 953 0054 3B69     		ldr	r3, [r7, #16]
 954 0056 1B89     		ldrh	r3, [r3, #8]
 955 0058 002B     		cmp	r3, #0
 956 005a 03D1     		bne	.L85
 720:..\..\..\..\..\..\uCOS-III\Source/os_sem.c ****             p_sem->Ctr = cnt;                               /*      No, OK to set the value        
 957              		.loc 1 720 0
 958 005c FB68     		ldr	r3, [r7, #12]
 959 005e BA68     		ldr	r2, [r7, #8]
 960 0060 1A62     		str	r2, [r3, #32]
 961 0062 03E0     		b	.L84
 962              	.L85:
 721:..\..\..\..\..\..\uCOS-III\Source/os_sem.c ****         } else {
 722:..\..\..\..\..\..\uCOS-III\Source/os_sem.c ****            *p_err      = OS_ERR_TASK_WAITING;
 963              		.loc 1 722 0
 964 0064 7B68     		ldr	r3, [r7, #4]
 965 0066 47F25F12 		movw	r2, #29023
 966 006a 1A80     		strh	r2, [r3]	@ movhi
 967              	.L84:
 723:..\..\..\..\..\..\uCOS-III\Source/os_sem.c ****         }
 724:..\..\..\..\..\..\uCOS-III\Source/os_sem.c ****     }
 725:..\..\..\..\..\..\uCOS-III\Source/os_sem.c ****     CPU_CRITICAL_EXIT();
 968              		.loc 1 725 0
 969 006c 7869     		ldr	r0, [r7, #20]
 970 006e FFF7FEFF 		bl	CPU_SR_Restore
 971              	.L79:
 726:..\..\..\..\..\..\uCOS-III\Source/os_sem.c **** }
 972              		.loc 1 726 0
 973 0072 1837     		adds	r7, r7, #24
 974              		.cfi_def_cfa_offset 8
 975 0074 BD46     		mov	sp, r7
 976              		.cfi_def_cfa_register 13
ARM GAS  C:\Users\alex\AppData\Local\Temp\ccfIfgZ4.s 			page 31


 977              		@ sp needed
 978 0076 80BD     		pop	{r7, pc}
 979              	.L87:
 980              		.align	2
 981              	.L86:
 982 0078 00000000 		.word	OSIntNestingCtr
 983              		.cfi_endproc
 984              	.LFE5:
 985              		.size	OSSemSet, .-OSSemSet
 986              		.section	.rodata
 987              		.align	2
 988              	.LC0:
 989 0000 3F53454D 		.ascii	"?SEM\000"
 989      00
 990              		.section	.text.OS_SemClr,"ax",%progbits
 991              		.align	2
 992              		.global	OS_SemClr
 993              		.thumb
 994              		.thumb_func
 995              		.type	OS_SemClr, %function
 996              	OS_SemClr:
 997              	.LFB6:
 727:..\..\..\..\..\..\uCOS-III\Source/os_sem.c **** #endif
 728:..\..\..\..\..\..\uCOS-III\Source/os_sem.c **** 
 729:..\..\..\..\..\..\uCOS-III\Source/os_sem.c **** /*$PAGE*/
 730:..\..\..\..\..\..\uCOS-III\Source/os_sem.c **** /*
 731:..\..\..\..\..\..\uCOS-III\Source/os_sem.c **** ***************************************************************************************************
 732:..\..\..\..\..\..\uCOS-III\Source/os_sem.c **** *                                           CLEAR THE CONTENTS OF A SEMAPHORE
 733:..\..\..\..\..\..\uCOS-III\Source/os_sem.c **** *
 734:..\..\..\..\..\..\uCOS-III\Source/os_sem.c **** * Description: This function is called by OSSemDel() to clear the contents of a semaphore
 735:..\..\..\..\..\..\uCOS-III\Source/os_sem.c **** *
 736:..\..\..\..\..\..\uCOS-III\Source/os_sem.c **** 
 737:..\..\..\..\..\..\uCOS-III\Source/os_sem.c **** * Argument(s): p_sem      is a pointer to the semaphore to clear
 738:..\..\..\..\..\..\uCOS-III\Source/os_sem.c **** *              -----
 739:..\..\..\..\..\..\uCOS-III\Source/os_sem.c **** *
 740:..\..\..\..\..\..\uCOS-III\Source/os_sem.c **** * Returns    : none
 741:..\..\..\..\..\..\uCOS-III\Source/os_sem.c **** *
 742:..\..\..\..\..\..\uCOS-III\Source/os_sem.c **** * Note(s)    : 1) This function is INTERNAL to uC/OS-III and your application MUST NOT call it.
 743:..\..\..\..\..\..\uCOS-III\Source/os_sem.c **** ***************************************************************************************************
 744:..\..\..\..\..\..\uCOS-III\Source/os_sem.c **** */
 745:..\..\..\..\..\..\uCOS-III\Source/os_sem.c **** 
 746:..\..\..\..\..\..\uCOS-III\Source/os_sem.c **** void  OS_SemClr (OS_SEM  *p_sem)
 747:..\..\..\..\..\..\uCOS-III\Source/os_sem.c **** {
 998              		.loc 1 747 0
 999              		.cfi_startproc
 1000              		@ args = 0, pretend = 0, frame = 8
 1001              		@ frame_needed = 1, uses_anonymous_args = 0
 1002 0000 80B5     		push	{r7, lr}
 1003              		.cfi_def_cfa_offset 8
 1004              		.cfi_offset 7, -8
 1005              		.cfi_offset 14, -4
 1006 0002 82B0     		sub	sp, sp, #8
 1007              		.cfi_def_cfa_offset 16
 1008 0004 00AF     		add	r7, sp, #0
 1009              		.cfi_def_cfa_register 7
 1010 0006 7860     		str	r0, [r7, #4]
 748:..\..\..\..\..\..\uCOS-III\Source/os_sem.c ****     p_sem->Type    = OS_OBJ_TYPE_NONE;                      /* Mark the data structure as a NONE   
ARM GAS  C:\Users\alex\AppData\Local\Temp\ccfIfgZ4.s 			page 32


 1011              		.loc 1 748 0
 1012 0008 7B68     		ldr	r3, [r7, #4]
 1013 000a 0A4A     		ldr	r2, .L89
 1014 000c 1A60     		str	r2, [r3]
 749:..\..\..\..\..\..\uCOS-III\Source/os_sem.c ****     p_sem->Ctr     = (OS_SEM_CTR)0;                         /* Set semaphore value                 
 1015              		.loc 1 749 0
 1016 000e 7B68     		ldr	r3, [r7, #4]
 1017 0010 0022     		movs	r2, #0
 1018 0012 1A62     		str	r2, [r3, #32]
 750:..\..\..\..\..\..\uCOS-III\Source/os_sem.c ****     p_sem->TS      = (CPU_TS    )0;                         /* Clear the time stamp                
 1019              		.loc 1 750 0
 1020 0014 7B68     		ldr	r3, [r7, #4]
 1021 0016 0022     		movs	r2, #0
 1022 0018 5A62     		str	r2, [r3, #36]
 751:..\..\..\..\..\..\uCOS-III\Source/os_sem.c ****     p_sem->NamePtr = (CPU_CHAR *)((void *)"?SEM");
 1023              		.loc 1 751 0
 1024 001a 7B68     		ldr	r3, [r7, #4]
 1025 001c 064A     		ldr	r2, .L89+4
 1026 001e 5A60     		str	r2, [r3, #4]
 752:..\..\..\..\..\..\uCOS-III\Source/os_sem.c ****     OS_PendListInit(&p_sem->PendList);                      /* Initialize the waiting list         
 1027              		.loc 1 752 0
 1028 0020 7B68     		ldr	r3, [r7, #4]
 1029 0022 0833     		adds	r3, r3, #8
 1030 0024 1846     		mov	r0, r3
 1031 0026 FFF7FEFF 		bl	OS_PendListInit
 753:..\..\..\..\..\..\uCOS-III\Source/os_sem.c **** }
 1032              		.loc 1 753 0
 1033 002a 00BF     		nop
 1034 002c 0837     		adds	r7, r7, #8
 1035              		.cfi_def_cfa_offset 8
 1036 002e BD46     		mov	sp, r7
 1037              		.cfi_def_cfa_register 13
 1038              		@ sp needed
 1039 0030 80BD     		pop	{r7, pc}
 1040              	.L90:
 1041 0032 00BF     		.align	2
 1042              	.L89:
 1043 0034 4E4F4E45 		.word	1162760014
 1044 0038 00000000 		.word	.LC0
 1045              		.cfi_endproc
 1046              	.LFE6:
 1047              		.size	OS_SemClr, .-OS_SemClr
 1048              		.section	.rodata
 1049 0005 000000   		.align	2
 1050              	.LC1:
 1051 0008 2000     		.ascii	" \000"
 1052              		.section	.text.OS_SemDbgListAdd,"ax",%progbits
 1053              		.align	2
 1054              		.global	OS_SemDbgListAdd
 1055              		.thumb
 1056              		.thumb_func
 1057              		.type	OS_SemDbgListAdd, %function
 1058              	OS_SemDbgListAdd:
 1059              	.LFB7:
 754:..\..\..\..\..\..\uCOS-III\Source/os_sem.c **** 
 755:..\..\..\..\..\..\uCOS-III\Source/os_sem.c **** /*$PAGE*/
 756:..\..\..\..\..\..\uCOS-III\Source/os_sem.c **** /*
ARM GAS  C:\Users\alex\AppData\Local\Temp\ccfIfgZ4.s 			page 33


 757:..\..\..\..\..\..\uCOS-III\Source/os_sem.c **** ***************************************************************************************************
 758:..\..\..\..\..\..\uCOS-III\Source/os_sem.c **** *                                        ADD/REMOVE SEMAPHORE TO/FROM DEBUG LIST
 759:..\..\..\..\..\..\uCOS-III\Source/os_sem.c **** *
 760:..\..\..\..\..\..\uCOS-III\Source/os_sem.c **** * Description: These functions are called by uC/OS-III to add or remove a semaphore to/from the deb
 761:..\..\..\..\..\..\uCOS-III\Source/os_sem.c **** *
 762:..\..\..\..\..\..\uCOS-III\Source/os_sem.c **** * Arguments  : p_sem     is a pointer to the semaphore to add/remove
 763:..\..\..\..\..\..\uCOS-III\Source/os_sem.c **** *
 764:..\..\..\..\..\..\uCOS-III\Source/os_sem.c **** * Returns    : none
 765:..\..\..\..\..\..\uCOS-III\Source/os_sem.c **** *
 766:..\..\..\..\..\..\uCOS-III\Source/os_sem.c **** * Note(s)    : These functions are INTERNAL to uC/OS-III and your application should not call it.
 767:..\..\..\..\..\..\uCOS-III\Source/os_sem.c **** ***************************************************************************************************
 768:..\..\..\..\..\..\uCOS-III\Source/os_sem.c **** */
 769:..\..\..\..\..\..\uCOS-III\Source/os_sem.c **** 
 770:..\..\..\..\..\..\uCOS-III\Source/os_sem.c **** 
 771:..\..\..\..\..\..\uCOS-III\Source/os_sem.c **** #if OS_CFG_DBG_EN > 0u
 772:..\..\..\..\..\..\uCOS-III\Source/os_sem.c **** void  OS_SemDbgListAdd (OS_SEM  *p_sem)
 773:..\..\..\..\..\..\uCOS-III\Source/os_sem.c **** {
 1060              		.loc 1 773 0
 1061              		.cfi_startproc
 1062              		@ args = 0, pretend = 0, frame = 8
 1063              		@ frame_needed = 1, uses_anonymous_args = 0
 1064              		@ link register save eliminated.
 1065 0000 80B4     		push	{r7}
 1066              		.cfi_def_cfa_offset 4
 1067              		.cfi_offset 7, -4
 1068 0002 83B0     		sub	sp, sp, #12
 1069              		.cfi_def_cfa_offset 16
 1070 0004 00AF     		add	r7, sp, #0
 1071              		.cfi_def_cfa_register 7
 1072 0006 7860     		str	r0, [r7, #4]
 774:..\..\..\..\..\..\uCOS-III\Source/os_sem.c ****     p_sem->DbgNamePtr               = (CPU_CHAR *)((void *)" ");
 1073              		.loc 1 774 0
 1074 0008 7B68     		ldr	r3, [r7, #4]
 1075 000a 0E4A     		ldr	r2, .L94
 1076 000c DA61     		str	r2, [r3, #28]
 775:..\..\..\..\..\..\uCOS-III\Source/os_sem.c ****     p_sem->DbgPrevPtr               = (OS_SEM   *)0;
 1077              		.loc 1 775 0
 1078 000e 7B68     		ldr	r3, [r7, #4]
 1079 0010 0022     		movs	r2, #0
 1080 0012 5A61     		str	r2, [r3, #20]
 776:..\..\..\..\..\..\uCOS-III\Source/os_sem.c ****     if (OSSemDbgListPtr == (OS_SEM *)0) {
 1081              		.loc 1 776 0
 1082 0014 0C4B     		ldr	r3, .L94+4
 1083 0016 1B68     		ldr	r3, [r3]
 1084 0018 002B     		cmp	r3, #0
 1085 001a 03D1     		bne	.L92
 777:..\..\..\..\..\..\uCOS-III\Source/os_sem.c ****         p_sem->DbgNextPtr           = (OS_SEM   *)0;
 1086              		.loc 1 777 0
 1087 001c 7B68     		ldr	r3, [r7, #4]
 1088 001e 0022     		movs	r2, #0
 1089 0020 9A61     		str	r2, [r3, #24]
 1090 0022 07E0     		b	.L93
 1091              	.L92:
 778:..\..\..\..\..\..\uCOS-III\Source/os_sem.c ****     } else {
 779:..\..\..\..\..\..\uCOS-III\Source/os_sem.c ****         p_sem->DbgNextPtr           =  OSSemDbgListPtr;
 1092              		.loc 1 779 0
 1093 0024 084B     		ldr	r3, .L94+4
ARM GAS  C:\Users\alex\AppData\Local\Temp\ccfIfgZ4.s 			page 34


 1094 0026 1A68     		ldr	r2, [r3]
 1095 0028 7B68     		ldr	r3, [r7, #4]
 1096 002a 9A61     		str	r2, [r3, #24]
 780:..\..\..\..\..\..\uCOS-III\Source/os_sem.c ****         OSSemDbgListPtr->DbgPrevPtr =  p_sem;
 1097              		.loc 1 780 0
 1098 002c 064B     		ldr	r3, .L94+4
 1099 002e 1B68     		ldr	r3, [r3]
 1100 0030 7A68     		ldr	r2, [r7, #4]
 1101 0032 5A61     		str	r2, [r3, #20]
 1102              	.L93:
 781:..\..\..\..\..\..\uCOS-III\Source/os_sem.c ****     }
 782:..\..\..\..\..\..\uCOS-III\Source/os_sem.c ****     OSSemDbgListPtr                 =  p_sem;
 1103              		.loc 1 782 0
 1104 0034 044A     		ldr	r2, .L94+4
 1105 0036 7B68     		ldr	r3, [r7, #4]
 1106 0038 1360     		str	r3, [r2]
 783:..\..\..\..\..\..\uCOS-III\Source/os_sem.c **** }
 1107              		.loc 1 783 0
 1108 003a 00BF     		nop
 1109 003c 0C37     		adds	r7, r7, #12
 1110              		.cfi_def_cfa_offset 4
 1111 003e BD46     		mov	sp, r7
 1112              		.cfi_def_cfa_register 13
 1113              		@ sp needed
 1114 0040 80BC     		pop	{r7}
 1115              		.cfi_restore 7
 1116              		.cfi_def_cfa_offset 0
 1117 0042 7047     		bx	lr
 1118              	.L95:
 1119              		.align	2
 1120              	.L94:
 1121 0044 08000000 		.word	.LC1
 1122 0048 00000000 		.word	OSSemDbgListPtr
 1123              		.cfi_endproc
 1124              	.LFE7:
 1125              		.size	OS_SemDbgListAdd, .-OS_SemDbgListAdd
 1126              		.section	.text.OS_SemDbgListRemove,"ax",%progbits
 1127              		.align	2
 1128              		.global	OS_SemDbgListRemove
 1129              		.thumb
 1130              		.thumb_func
 1131              		.type	OS_SemDbgListRemove, %function
 1132              	OS_SemDbgListRemove:
 1133              	.LFB8:
 784:..\..\..\..\..\..\uCOS-III\Source/os_sem.c **** 
 785:..\..\..\..\..\..\uCOS-III\Source/os_sem.c **** 
 786:..\..\..\..\..\..\uCOS-III\Source/os_sem.c **** 
 787:..\..\..\..\..\..\uCOS-III\Source/os_sem.c **** void  OS_SemDbgListRemove (OS_SEM  *p_sem)
 788:..\..\..\..\..\..\uCOS-III\Source/os_sem.c **** {
 1134              		.loc 1 788 0
 1135              		.cfi_startproc
 1136              		@ args = 0, pretend = 0, frame = 16
 1137              		@ frame_needed = 1, uses_anonymous_args = 0
 1138              		@ link register save eliminated.
 1139 0000 80B4     		push	{r7}
 1140              		.cfi_def_cfa_offset 4
 1141              		.cfi_offset 7, -4
ARM GAS  C:\Users\alex\AppData\Local\Temp\ccfIfgZ4.s 			page 35


 1142 0002 85B0     		sub	sp, sp, #20
 1143              		.cfi_def_cfa_offset 24
 1144 0004 00AF     		add	r7, sp, #0
 1145              		.cfi_def_cfa_register 7
 1146 0006 7860     		str	r0, [r7, #4]
 789:..\..\..\..\..\..\uCOS-III\Source/os_sem.c ****     OS_SEM  *p_sem_next;
 790:..\..\..\..\..\..\uCOS-III\Source/os_sem.c ****     OS_SEM  *p_sem_prev;
 791:..\..\..\..\..\..\uCOS-III\Source/os_sem.c **** 
 792:..\..\..\..\..\..\uCOS-III\Source/os_sem.c **** 
 793:..\..\..\..\..\..\uCOS-III\Source/os_sem.c ****     p_sem_prev = p_sem->DbgPrevPtr;
 1147              		.loc 1 793 0
 1148 0008 7B68     		ldr	r3, [r7, #4]
 1149 000a 5B69     		ldr	r3, [r3, #20]
 1150 000c FB60     		str	r3, [r7, #12]
 794:..\..\..\..\..\..\uCOS-III\Source/os_sem.c ****     p_sem_next = p_sem->DbgNextPtr;
 1151              		.loc 1 794 0
 1152 000e 7B68     		ldr	r3, [r7, #4]
 1153 0010 9B69     		ldr	r3, [r3, #24]
 1154 0012 BB60     		str	r3, [r7, #8]
 795:..\..\..\..\..\..\uCOS-III\Source/os_sem.c **** 
 796:..\..\..\..\..\..\uCOS-III\Source/os_sem.c ****     if (p_sem_prev == (OS_SEM *)0) {
 1155              		.loc 1 796 0
 1156 0014 FB68     		ldr	r3, [r7, #12]
 1157 0016 002B     		cmp	r3, #0
 1158 0018 0CD1     		bne	.L97
 797:..\..\..\..\..\..\uCOS-III\Source/os_sem.c ****         OSSemDbgListPtr = p_sem_next;
 1159              		.loc 1 797 0
 1160 001a 144A     		ldr	r2, .L102
 1161 001c BB68     		ldr	r3, [r7, #8]
 1162 001e 1360     		str	r3, [r2]
 798:..\..\..\..\..\..\uCOS-III\Source/os_sem.c ****         if (p_sem_next != (OS_SEM *)0) {
 1163              		.loc 1 798 0
 1164 0020 BB68     		ldr	r3, [r7, #8]
 1165 0022 002B     		cmp	r3, #0
 1166 0024 02D0     		beq	.L98
 799:..\..\..\..\..\..\uCOS-III\Source/os_sem.c ****             p_sem_next->DbgPrevPtr = (OS_SEM *)0;
 1167              		.loc 1 799 0
 1168 0026 BB68     		ldr	r3, [r7, #8]
 1169 0028 0022     		movs	r2, #0
 1170 002a 5A61     		str	r2, [r3, #20]
 1171              	.L98:
 800:..\..\..\..\..\..\uCOS-III\Source/os_sem.c ****         }
 801:..\..\..\..\..\..\uCOS-III\Source/os_sem.c ****         p_sem->DbgNextPtr = (OS_SEM *)0;
 1172              		.loc 1 801 0
 1173 002c 7B68     		ldr	r3, [r7, #4]
 1174 002e 0022     		movs	r2, #0
 1175 0030 9A61     		str	r2, [r3, #24]
 802:..\..\..\..\..\..\uCOS-III\Source/os_sem.c **** 
 803:..\..\..\..\..\..\uCOS-III\Source/os_sem.c ****     } else if (p_sem_next == (OS_SEM *)0) {
 804:..\..\..\..\..\..\uCOS-III\Source/os_sem.c ****         p_sem_prev->DbgNextPtr = (OS_SEM *)0;
 805:..\..\..\..\..\..\uCOS-III\Source/os_sem.c ****         p_sem->DbgPrevPtr      = (OS_SEM *)0;
 806:..\..\..\..\..\..\uCOS-III\Source/os_sem.c **** 
 807:..\..\..\..\..\..\uCOS-III\Source/os_sem.c ****     } else {
 808:..\..\..\..\..\..\uCOS-III\Source/os_sem.c ****         p_sem_prev->DbgNextPtr =  p_sem_next;
 809:..\..\..\..\..\..\uCOS-III\Source/os_sem.c ****         p_sem_next->DbgPrevPtr =  p_sem_prev;
 810:..\..\..\..\..\..\uCOS-III\Source/os_sem.c ****         p_sem->DbgNextPtr      = (OS_SEM *)0;
 811:..\..\..\..\..\..\uCOS-III\Source/os_sem.c ****         p_sem->DbgPrevPtr      = (OS_SEM *)0;
ARM GAS  C:\Users\alex\AppData\Local\Temp\ccfIfgZ4.s 			page 36


 812:..\..\..\..\..\..\uCOS-III\Source/os_sem.c ****     }
 813:..\..\..\..\..\..\uCOS-III\Source/os_sem.c **** }
 1176              		.loc 1 813 0
 1177 0032 15E0     		b	.L101
 1178              	.L97:
 803:..\..\..\..\..\..\uCOS-III\Source/os_sem.c ****         p_sem_prev->DbgNextPtr = (OS_SEM *)0;
 1179              		.loc 1 803 0
 1180 0034 BB68     		ldr	r3, [r7, #8]
 1181 0036 002B     		cmp	r3, #0
 1182 0038 06D1     		bne	.L100
 804:..\..\..\..\..\..\uCOS-III\Source/os_sem.c ****         p_sem->DbgPrevPtr      = (OS_SEM *)0;
 1183              		.loc 1 804 0
 1184 003a FB68     		ldr	r3, [r7, #12]
 1185 003c 0022     		movs	r2, #0
 1186 003e 9A61     		str	r2, [r3, #24]
 805:..\..\..\..\..\..\uCOS-III\Source/os_sem.c **** 
 1187              		.loc 1 805 0
 1188 0040 7B68     		ldr	r3, [r7, #4]
 1189 0042 0022     		movs	r2, #0
 1190 0044 5A61     		str	r2, [r3, #20]
 1191              		.loc 1 813 0
 1192 0046 0BE0     		b	.L101
 1193              	.L100:
 808:..\..\..\..\..\..\uCOS-III\Source/os_sem.c ****         p_sem_next->DbgPrevPtr =  p_sem_prev;
 1194              		.loc 1 808 0
 1195 0048 FB68     		ldr	r3, [r7, #12]
 1196 004a BA68     		ldr	r2, [r7, #8]
 1197 004c 9A61     		str	r2, [r3, #24]
 809:..\..\..\..\..\..\uCOS-III\Source/os_sem.c ****         p_sem->DbgNextPtr      = (OS_SEM *)0;
 1198              		.loc 1 809 0
 1199 004e BB68     		ldr	r3, [r7, #8]
 1200 0050 FA68     		ldr	r2, [r7, #12]
 1201 0052 5A61     		str	r2, [r3, #20]
 810:..\..\..\..\..\..\uCOS-III\Source/os_sem.c ****         p_sem->DbgPrevPtr      = (OS_SEM *)0;
 1202              		.loc 1 810 0
 1203 0054 7B68     		ldr	r3, [r7, #4]
 1204 0056 0022     		movs	r2, #0
 1205 0058 9A61     		str	r2, [r3, #24]
 811:..\..\..\..\..\..\uCOS-III\Source/os_sem.c ****     }
 1206              		.loc 1 811 0
 1207 005a 7B68     		ldr	r3, [r7, #4]
 1208 005c 0022     		movs	r2, #0
 1209 005e 5A61     		str	r2, [r3, #20]
 1210              	.L101:
 1211              		.loc 1 813 0
 1212 0060 00BF     		nop
 1213 0062 1437     		adds	r7, r7, #20
 1214              		.cfi_def_cfa_offset 4
 1215 0064 BD46     		mov	sp, r7
 1216              		.cfi_def_cfa_register 13
 1217              		@ sp needed
 1218 0066 80BC     		pop	{r7}
 1219              		.cfi_restore 7
 1220              		.cfi_def_cfa_offset 0
 1221 0068 7047     		bx	lr
 1222              	.L103:
 1223 006a 00BF     		.align	2
ARM GAS  C:\Users\alex\AppData\Local\Temp\ccfIfgZ4.s 			page 37


 1224              	.L102:
 1225 006c 00000000 		.word	OSSemDbgListPtr
 1226              		.cfi_endproc
 1227              	.LFE8:
 1228              		.size	OS_SemDbgListRemove, .-OS_SemDbgListRemove
 1229              		.section	.text.OS_SemInit,"ax",%progbits
 1230              		.align	2
 1231              		.global	OS_SemInit
 1232              		.thumb
 1233              		.thumb_func
 1234              		.type	OS_SemInit, %function
 1235              	OS_SemInit:
 1236              	.LFB9:
 814:..\..\..\..\..\..\uCOS-III\Source/os_sem.c **** #endif
 815:..\..\..\..\..\..\uCOS-III\Source/os_sem.c **** 
 816:..\..\..\..\..\..\uCOS-III\Source/os_sem.c **** /*$PAGE*/
 817:..\..\..\..\..\..\uCOS-III\Source/os_sem.c **** /*
 818:..\..\..\..\..\..\uCOS-III\Source/os_sem.c **** ***************************************************************************************************
 819:..\..\..\..\..\..\uCOS-III\Source/os_sem.c **** *                                                SEMAPHORE INITIALIZATION
 820:..\..\..\..\..\..\uCOS-III\Source/os_sem.c **** *
 821:..\..\..\..\..\..\uCOS-III\Source/os_sem.c **** * Description: This function is called by OSInit() to initialize the semaphore management.
 822:..\..\..\..\..\..\uCOS-III\Source/os_sem.c **** *
 823:..\..\..\..\..\..\uCOS-III\Source/os_sem.c **** 
 824:..\..\..\..\..\..\uCOS-III\Source/os_sem.c **** * Argument(s): p_err        is a pointer to a variable that will contain an error code returned by 
 825:..\..\..\..\..\..\uCOS-III\Source/os_sem.c **** *
 826:..\..\..\..\..\..\uCOS-III\Source/os_sem.c **** *                                OS_ERR_NONE     the call was successful
 827:..\..\..\..\..\..\uCOS-III\Source/os_sem.c **** *
 828:..\..\..\..\..\..\uCOS-III\Source/os_sem.c **** * Returns    : none
 829:..\..\..\..\..\..\uCOS-III\Source/os_sem.c **** *
 830:..\..\..\..\..\..\uCOS-III\Source/os_sem.c **** * Note(s)    : 1) This function is INTERNAL to uC/OS-III and your application MUST NOT call it.
 831:..\..\..\..\..\..\uCOS-III\Source/os_sem.c **** ***************************************************************************************************
 832:..\..\..\..\..\..\uCOS-III\Source/os_sem.c **** */
 833:..\..\..\..\..\..\uCOS-III\Source/os_sem.c **** 
 834:..\..\..\..\..\..\uCOS-III\Source/os_sem.c **** void  OS_SemInit (OS_ERR  *p_err)
 835:..\..\..\..\..\..\uCOS-III\Source/os_sem.c **** {
 1237              		.loc 1 835 0
 1238              		.cfi_startproc
 1239              		@ args = 0, pretend = 0, frame = 8
 1240              		@ frame_needed = 1, uses_anonymous_args = 0
 1241              		@ link register save eliminated.
 1242 0000 80B4     		push	{r7}
 1243              		.cfi_def_cfa_offset 4
 1244              		.cfi_offset 7, -4
 1245 0002 83B0     		sub	sp, sp, #12
 1246              		.cfi_def_cfa_offset 16
 1247 0004 00AF     		add	r7, sp, #0
 1248              		.cfi_def_cfa_register 7
 1249 0006 7860     		str	r0, [r7, #4]
 836:..\..\..\..\..\..\uCOS-III\Source/os_sem.c **** #ifdef OS_SAFETY_CRITICAL
 837:..\..\..\..\..\..\uCOS-III\Source/os_sem.c ****     if (p_err == (OS_ERR *)0) {
 838:..\..\..\..\..\..\uCOS-III\Source/os_sem.c ****         OS_SAFETY_CRITICAL_EXCEPTION();
 839:..\..\..\..\..\..\uCOS-III\Source/os_sem.c ****         return;
 840:..\..\..\..\..\..\uCOS-III\Source/os_sem.c ****     }
 841:..\..\..\..\..\..\uCOS-III\Source/os_sem.c **** #endif
 842:..\..\..\..\..\..\uCOS-III\Source/os_sem.c **** 
 843:..\..\..\..\..\..\uCOS-III\Source/os_sem.c **** #if OS_CFG_DBG_EN > 0u
 844:..\..\..\..\..\..\uCOS-III\Source/os_sem.c ****     OSSemDbgListPtr = (OS_SEM *)0;
ARM GAS  C:\Users\alex\AppData\Local\Temp\ccfIfgZ4.s 			page 38


 1250              		.loc 1 844 0
 1251 0008 064B     		ldr	r3, .L105
 1252 000a 0022     		movs	r2, #0
 1253 000c 1A60     		str	r2, [r3]
 845:..\..\..\..\..\..\uCOS-III\Source/os_sem.c **** #endif
 846:..\..\..\..\..\..\uCOS-III\Source/os_sem.c **** 
 847:..\..\..\..\..\..\uCOS-III\Source/os_sem.c ****     OSSemQty        = (OS_OBJ_QTY)0;
 1254              		.loc 1 847 0
 1255 000e 064B     		ldr	r3, .L105+4
 1256 0010 0022     		movs	r2, #0
 1257 0012 1A80     		strh	r2, [r3]	@ movhi
 848:..\..\..\..\..\..\uCOS-III\Source/os_sem.c ****    *p_err           = OS_ERR_NONE;
 1258              		.loc 1 848 0
 1259 0014 7B68     		ldr	r3, [r7, #4]
 1260 0016 0022     		movs	r2, #0
 1261 0018 1A80     		strh	r2, [r3]	@ movhi
 849:..\..\..\..\..\..\uCOS-III\Source/os_sem.c **** }
 1262              		.loc 1 849 0
 1263 001a 00BF     		nop
 1264 001c 0C37     		adds	r7, r7, #12
 1265              		.cfi_def_cfa_offset 4
 1266 001e BD46     		mov	sp, r7
 1267              		.cfi_def_cfa_register 13
 1268              		@ sp needed
 1269 0020 80BC     		pop	{r7}
 1270              		.cfi_restore 7
 1271              		.cfi_def_cfa_offset 0
 1272 0022 7047     		bx	lr
 1273              	.L106:
 1274              		.align	2
 1275              	.L105:
 1276 0024 00000000 		.word	OSSemDbgListPtr
 1277 0028 00000000 		.word	OSSemQty
 1278              		.cfi_endproc
 1279              	.LFE9:
 1280              		.size	OS_SemInit, .-OS_SemInit
 1281              		.section	.text.OS_SemPost,"ax",%progbits
 1282              		.align	2
 1283              		.global	OS_SemPost
 1284              		.thumb
 1285              		.thumb_func
 1286              		.type	OS_SemPost, %function
 1287              	OS_SemPost:
 1288              	.LFB10:
 850:..\..\..\..\..\..\uCOS-III\Source/os_sem.c **** 
 851:..\..\..\..\..\..\uCOS-III\Source/os_sem.c **** /*$PAGE*/
 852:..\..\..\..\..\..\uCOS-III\Source/os_sem.c **** /*
 853:..\..\..\..\..\..\uCOS-III\Source/os_sem.c **** ***************************************************************************************************
 854:..\..\..\..\..\..\uCOS-III\Source/os_sem.c **** *                                                 POST TO A SEMAPHORE
 855:..\..\..\..\..\..\uCOS-III\Source/os_sem.c **** *
 856:..\..\..\..\..\..\uCOS-III\Source/os_sem.c **** * Description: This function signals a semaphore
 857:..\..\..\..\..\..\uCOS-III\Source/os_sem.c **** *
 858:..\..\..\..\..\..\uCOS-III\Source/os_sem.c **** * Arguments  : p_sem    is a pointer to the semaphore
 859:..\..\..\..\..\..\uCOS-III\Source/os_sem.c **** *
 860:..\..\..\..\..\..\uCOS-III\Source/os_sem.c **** *              opt      determines the type of POST performed:
 861:..\..\..\..\..\..\uCOS-III\Source/os_sem.c **** *
 862:..\..\..\..\..\..\uCOS-III\Source/os_sem.c **** *                           OS_OPT_POST_1            POST to a single waiting task
ARM GAS  C:\Users\alex\AppData\Local\Temp\ccfIfgZ4.s 			page 39


 863:..\..\..\..\..\..\uCOS-III\Source/os_sem.c **** *                           OS_OPT_POST_ALL          POST to ALL tasks that are waiting on the sema
 864:..\..\..\..\..\..\uCOS-III\Source/os_sem.c **** *
 865:..\..\..\..\..\..\uCOS-III\Source/os_sem.c **** *                           OS_OPT_POST_NO_SCHED     Do not call the scheduler
 866:..\..\..\..\..\..\uCOS-III\Source/os_sem.c **** *
 867:..\..\..\..\..\..\uCOS-III\Source/os_sem.c **** *                           Note(s): 1) OS_OPT_POST_NO_SCHED can be added with one of the other opt
 868:..\..\..\..\..\..\uCOS-III\Source/os_sem.c **** *
 869:..\..\..\..\..\..\uCOS-III\Source/os_sem.c **** *              ts       is a timestamp indicating when the post occurred.
 870:..\..\..\..\..\..\uCOS-III\Source/os_sem.c **** *
 871:..\..\..\..\..\..\uCOS-III\Source/os_sem.c **** *              p_err    is a pointer to a variable that will contain an error code returned by this
 872:..\..\..\..\..\..\uCOS-III\Source/os_sem.c **** *
 873:..\..\..\..\..\..\uCOS-III\Source/os_sem.c **** *                           OS_ERR_NONE          The call was successful and the semaphore was sign
 874:..\..\..\..\..\..\uCOS-III\Source/os_sem.c **** *                           OS_ERR_OBJ_PTR_NULL  If 'p_sem' is a NULL pointer.
 875:..\..\..\..\..\..\uCOS-III\Source/os_sem.c **** *                           OS_ERR_OBJ_TYPE      If 'p_sem' is not pointing at a semaphore
 876:..\..\..\..\..\..\uCOS-III\Source/os_sem.c **** *                           OS_ERR_SEM_OVF       If the post would cause the semaphore count to ove
 877:..\..\..\..\..\..\uCOS-III\Source/os_sem.c **** *
 878:..\..\..\..\..\..\uCOS-III\Source/os_sem.c **** * Returns    : The current value of the semaphore counter or 0 upon error.
 879:..\..\..\..\..\..\uCOS-III\Source/os_sem.c **** *
 880:..\..\..\..\..\..\uCOS-III\Source/os_sem.c **** * Note(s)    : This function is INTERNAL to uC/OS-III and your application should not call it.
 881:..\..\..\..\..\..\uCOS-III\Source/os_sem.c **** ***************************************************************************************************
 882:..\..\..\..\..\..\uCOS-III\Source/os_sem.c **** */
 883:..\..\..\..\..\..\uCOS-III\Source/os_sem.c **** 
 884:..\..\..\..\..\..\uCOS-III\Source/os_sem.c **** OS_SEM_CTR  OS_SemPost (OS_SEM  *p_sem,
 885:..\..\..\..\..\..\uCOS-III\Source/os_sem.c ****                         OS_OPT   opt,
 886:..\..\..\..\..\..\uCOS-III\Source/os_sem.c ****                         CPU_TS   ts,
 887:..\..\..\..\..\..\uCOS-III\Source/os_sem.c ****                         OS_ERR  *p_err)
 888:..\..\..\..\..\..\uCOS-III\Source/os_sem.c **** {
 1289              		.loc 1 888 0
 1290              		.cfi_startproc
 1291              		@ args = 0, pretend = 0, frame = 48
 1292              		@ frame_needed = 1, uses_anonymous_args = 0
 1293 0000 80B5     		push	{r7, lr}
 1294              		.cfi_def_cfa_offset 8
 1295              		.cfi_offset 7, -8
 1296              		.cfi_offset 14, -4
 1297 0002 8EB0     		sub	sp, sp, #56
 1298              		.cfi_def_cfa_offset 64
 1299 0004 02AF     		add	r7, sp, #8
 1300              		.cfi_def_cfa 7, 56
 1301 0006 F860     		str	r0, [r7, #12]
 1302 0008 7A60     		str	r2, [r7, #4]
 1303 000a 3B60     		str	r3, [r7]
 1304 000c 0B46     		mov	r3, r1	@ movhi
 1305 000e 7B81     		strh	r3, [r7, #10]	@ movhi
 889:..\..\..\..\..\..\uCOS-III\Source/os_sem.c ****     OS_OBJ_QTY     cnt;
 890:..\..\..\..\..\..\uCOS-III\Source/os_sem.c ****     OS_SEM_CTR     ctr;
 891:..\..\..\..\..\..\uCOS-III\Source/os_sem.c ****     OS_PEND_LIST  *p_pend_list;
 892:..\..\..\..\..\..\uCOS-III\Source/os_sem.c ****     OS_PEND_DATA  *p_pend_data;
 893:..\..\..\..\..\..\uCOS-III\Source/os_sem.c ****     OS_PEND_DATA  *p_pend_data_next;
 894:..\..\..\..\..\..\uCOS-III\Source/os_sem.c ****     OS_TCB        *p_tcb;
 895:..\..\..\..\..\..\uCOS-III\Source/os_sem.c ****     CPU_SR_ALLOC();
 1306              		.loc 1 895 0
 1307 0010 0023     		movs	r3, #0
 1308 0012 7B62     		str	r3, [r7, #36]
 896:..\..\..\..\..\..\uCOS-III\Source/os_sem.c **** 
 897:..\..\..\..\..\..\uCOS-III\Source/os_sem.c **** 
 898:..\..\..\..\..\..\uCOS-III\Source/os_sem.c **** 
 899:..\..\..\..\..\..\uCOS-III\Source/os_sem.c ****     CPU_CRITICAL_ENTER();
ARM GAS  C:\Users\alex\AppData\Local\Temp\ccfIfgZ4.s 			page 40


 1309              		.loc 1 899 0
 1310 0014 FFF7FEFF 		bl	CPU_SR_Save
 1311 0018 7862     		str	r0, [r7, #36]
 900:..\..\..\..\..\..\uCOS-III\Source/os_sem.c ****     p_pend_list = &p_sem->PendList;
 1312              		.loc 1 900 0
 1313 001a FB68     		ldr	r3, [r7, #12]
 1314 001c 0833     		adds	r3, r3, #8
 1315 001e 3B62     		str	r3, [r7, #32]
 901:..\..\..\..\..\..\uCOS-III\Source/os_sem.c ****     if (p_pend_list->NbrEntries == (OS_OBJ_QTY)0) {         /* Any task waiting on semaphore?      
 1316              		.loc 1 901 0
 1317 0020 3B6A     		ldr	r3, [r7, #32]
 1318 0022 1B89     		ldrh	r3, [r3, #8]
 1319 0024 002B     		cmp	r3, #0
 1320 0026 21D1     		bne	.L108
 902:..\..\..\..\..\..\uCOS-III\Source/os_sem.c ****         switch (sizeof(OS_SEM_CTR)) {
 903:..\..\..\..\..\..\uCOS-III\Source/os_sem.c ****             case 1u:
 904:..\..\..\..\..\..\uCOS-III\Source/os_sem.c ****                  if (p_sem->Ctr == DEF_INT_08U_MAX_VAL) {
 905:..\..\..\..\..\..\uCOS-III\Source/os_sem.c ****                      CPU_CRITICAL_EXIT();
 906:..\..\..\..\..\..\uCOS-III\Source/os_sem.c ****                     *p_err = OS_ERR_SEM_OVF;
 907:..\..\..\..\..\..\uCOS-III\Source/os_sem.c ****                      return ((OS_SEM_CTR)0);
 908:..\..\..\..\..\..\uCOS-III\Source/os_sem.c ****                  }
 909:..\..\..\..\..\..\uCOS-III\Source/os_sem.c ****                  break;
 910:..\..\..\..\..\..\uCOS-III\Source/os_sem.c **** 
 911:..\..\..\..\..\..\uCOS-III\Source/os_sem.c ****             case 2u:
 912:..\..\..\..\..\..\uCOS-III\Source/os_sem.c ****                  if (p_sem->Ctr == DEF_INT_16U_MAX_VAL) {
 913:..\..\..\..\..\..\uCOS-III\Source/os_sem.c ****                      CPU_CRITICAL_EXIT();
 914:..\..\..\..\..\..\uCOS-III\Source/os_sem.c ****                     *p_err = OS_ERR_SEM_OVF;
 915:..\..\..\..\..\..\uCOS-III\Source/os_sem.c ****                      return ((OS_SEM_CTR)0);
 916:..\..\..\..\..\..\uCOS-III\Source/os_sem.c ****                  }
 917:..\..\..\..\..\..\uCOS-III\Source/os_sem.c ****                  break;
 918:..\..\..\..\..\..\uCOS-III\Source/os_sem.c **** 
 919:..\..\..\..\..\..\uCOS-III\Source/os_sem.c ****             case 4u:
 920:..\..\..\..\..\..\uCOS-III\Source/os_sem.c ****                  if (p_sem->Ctr == DEF_INT_32U_MAX_VAL) {
 1321              		.loc 1 920 0
 1322 0028 FB68     		ldr	r3, [r7, #12]
 1323 002a 1B6A     		ldr	r3, [r3, #32]
 1324 002c B3F1FF3F 		cmp	r3, #-1
 1325 0030 08D1     		bne	.L117
 921:..\..\..\..\..\..\uCOS-III\Source/os_sem.c ****                      CPU_CRITICAL_EXIT();
 1326              		.loc 1 921 0
 1327 0032 786A     		ldr	r0, [r7, #36]
 1328 0034 FFF7FEFF 		bl	CPU_SR_Restore
 922:..\..\..\..\..\..\uCOS-III\Source/os_sem.c ****                     *p_err = OS_ERR_SEM_OVF;
 1329              		.loc 1 922 0
 1330 0038 3B68     		ldr	r3, [r7]
 1331 003a 46F6C552 		movw	r2, #28101
 1332 003e 1A80     		strh	r2, [r3]	@ movhi
 923:..\..\..\..\..\..\uCOS-III\Source/os_sem.c ****                      return ((OS_SEM_CTR)0);
 1333              		.loc 1 923 0
 1334 0040 0023     		movs	r3, #0
 1335 0042 48E0     		b	.L110
 1336              	.L117:
 924:..\..\..\..\..\..\uCOS-III\Source/os_sem.c ****                  }
 925:..\..\..\..\..\..\uCOS-III\Source/os_sem.c ****                  break;
 1337              		.loc 1 925 0
 1338 0044 00BF     		nop
 926:..\..\..\..\..\..\uCOS-III\Source/os_sem.c **** 
ARM GAS  C:\Users\alex\AppData\Local\Temp\ccfIfgZ4.s 			page 41


 927:..\..\..\..\..\..\uCOS-III\Source/os_sem.c ****             default:
 928:..\..\..\..\..\..\uCOS-III\Source/os_sem.c ****                  break;
 929:..\..\..\..\..\..\uCOS-III\Source/os_sem.c ****         }
 930:..\..\..\..\..\..\uCOS-III\Source/os_sem.c ****         p_sem->Ctr++;                                       /* No                                  
 1339              		.loc 1 930 0
 1340 0046 FB68     		ldr	r3, [r7, #12]
 1341 0048 1B6A     		ldr	r3, [r3, #32]
 1342 004a 5A1C     		adds	r2, r3, #1
 1343 004c FB68     		ldr	r3, [r7, #12]
 1344 004e 1A62     		str	r2, [r3, #32]
 931:..\..\..\..\..\..\uCOS-III\Source/os_sem.c ****         ctr       = p_sem->Ctr;
 1345              		.loc 1 931 0
 1346 0050 FB68     		ldr	r3, [r7, #12]
 1347 0052 1B6A     		ldr	r3, [r3, #32]
 1348 0054 7B61     		str	r3, [r7, #20]
 932:..\..\..\..\..\..\uCOS-III\Source/os_sem.c ****         p_sem->TS = ts;                                     /* Save timestamp in semaphore control 
 1349              		.loc 1 932 0
 1350 0056 FB68     		ldr	r3, [r7, #12]
 1351 0058 7A68     		ldr	r2, [r7, #4]
 1352 005a 5A62     		str	r2, [r3, #36]
 933:..\..\..\..\..\..\uCOS-III\Source/os_sem.c ****         CPU_CRITICAL_EXIT();
 1353              		.loc 1 933 0
 1354 005c 786A     		ldr	r0, [r7, #36]
 1355 005e FFF7FEFF 		bl	CPU_SR_Restore
 934:..\..\..\..\..\..\uCOS-III\Source/os_sem.c ****        *p_err     = OS_ERR_NONE;
 1356              		.loc 1 934 0
 1357 0062 3B68     		ldr	r3, [r7]
 1358 0064 0022     		movs	r2, #0
 1359 0066 1A80     		strh	r2, [r3]	@ movhi
 935:..\..\..\..\..\..\uCOS-III\Source/os_sem.c ****         return (ctr);
 1360              		.loc 1 935 0
 1361 0068 7B69     		ldr	r3, [r7, #20]
 1362 006a 34E0     		b	.L110
 1363              	.L108:
 936:..\..\..\..\..\..\uCOS-III\Source/os_sem.c ****     }
 937:..\..\..\..\..\..\uCOS-III\Source/os_sem.c **** 
 938:..\..\..\..\..\..\uCOS-III\Source/os_sem.c ****     OS_CRITICAL_ENTER_CPU_EXIT();
 939:..\..\..\..\..\..\uCOS-III\Source/os_sem.c ****     if ((opt & OS_OPT_POST_ALL) != (OS_OPT)0) {             /* Post message to all tasks waiting?  
 1364              		.loc 1 939 0
 1365 006c 7B89     		ldrh	r3, [r7, #10]
 1366 006e 03F40073 		and	r3, r3, #512
 1367 0072 002B     		cmp	r3, #0
 1368 0074 03D0     		beq	.L111
 940:..\..\..\..\..\..\uCOS-III\Source/os_sem.c ****         cnt = p_pend_list->NbrEntries;                      /* Yes                                 
 1369              		.loc 1 940 0
 1370 0076 3B6A     		ldr	r3, [r7, #32]
 1371 0078 1B89     		ldrh	r3, [r3, #8]	@ movhi
 1372 007a FB85     		strh	r3, [r7, #46]	@ movhi
 1373 007c 01E0     		b	.L112
 1374              	.L111:
 941:..\..\..\..\..\..\uCOS-III\Source/os_sem.c ****     } else {
 942:..\..\..\..\..\..\uCOS-III\Source/os_sem.c ****         cnt = (OS_OBJ_QTY)1;                                /* No                                  
 1375              		.loc 1 942 0
 1376 007e 0123     		movs	r3, #1
 1377 0080 FB85     		strh	r3, [r7, #46]	@ movhi
 1378              	.L112:
 943:..\..\..\..\..\..\uCOS-III\Source/os_sem.c ****     }
ARM GAS  C:\Users\alex\AppData\Local\Temp\ccfIfgZ4.s 			page 42


 944:..\..\..\..\..\..\uCOS-III\Source/os_sem.c ****     p_pend_data = p_pend_list->HeadPtr;
 1379              		.loc 1 944 0
 1380 0082 3B6A     		ldr	r3, [r7, #32]
 1381 0084 1B68     		ldr	r3, [r3]
 1382 0086 BB62     		str	r3, [r7, #40]
 945:..\..\..\..\..\..\uCOS-III\Source/os_sem.c ****     while (cnt > 0u) {
 1383              		.loc 1 945 0
 1384 0088 12E0     		b	.L113
 1385              	.L114:
 946:..\..\..\..\..\..\uCOS-III\Source/os_sem.c ****         p_tcb            = p_pend_data->TCBPtr;
 1386              		.loc 1 946 0
 1387 008a BB6A     		ldr	r3, [r7, #40]
 1388 008c 9B68     		ldr	r3, [r3, #8]
 1389 008e FB61     		str	r3, [r7, #28]
 947:..\..\..\..\..\..\uCOS-III\Source/os_sem.c ****         p_pend_data_next = p_pend_data->NextPtr;
 1390              		.loc 1 947 0
 1391 0090 BB6A     		ldr	r3, [r7, #40]
 1392 0092 5B68     		ldr	r3, [r3, #4]
 1393 0094 BB61     		str	r3, [r7, #24]
 948:..\..\..\..\..\..\uCOS-III\Source/os_sem.c ****         OS_Post((OS_PEND_OBJ *)((void *)p_sem),
 1394              		.loc 1 948 0
 1395 0096 7B68     		ldr	r3, [r7, #4]
 1396 0098 0093     		str	r3, [sp]
 1397 009a 0023     		movs	r3, #0
 1398 009c 0022     		movs	r2, #0
 1399 009e F969     		ldr	r1, [r7, #28]
 1400 00a0 F868     		ldr	r0, [r7, #12]
 1401 00a2 FFF7FEFF 		bl	OS_Post
 949:..\..\..\..\..\..\uCOS-III\Source/os_sem.c ****                 p_tcb,
 950:..\..\..\..\..\..\uCOS-III\Source/os_sem.c ****                 (void      *)0,
 951:..\..\..\..\..\..\uCOS-III\Source/os_sem.c ****                 (OS_MSG_SIZE)0,
 952:..\..\..\..\..\..\uCOS-III\Source/os_sem.c ****                 ts);
 953:..\..\..\..\..\..\uCOS-III\Source/os_sem.c ****         p_pend_data = p_pend_data_next;
 1402              		.loc 1 953 0
 1403 00a6 BB69     		ldr	r3, [r7, #24]
 1404 00a8 BB62     		str	r3, [r7, #40]
 954:..\..\..\..\..\..\uCOS-III\Source/os_sem.c ****         cnt--;
 1405              		.loc 1 954 0
 1406 00aa FB8D     		ldrh	r3, [r7, #46]
 1407 00ac 013B     		subs	r3, r3, #1
 1408 00ae FB85     		strh	r3, [r7, #46]	@ movhi
 1409              	.L113:
 945:..\..\..\..\..\..\uCOS-III\Source/os_sem.c ****         p_tcb            = p_pend_data->TCBPtr;
 1410              		.loc 1 945 0
 1411 00b0 FB8D     		ldrh	r3, [r7, #46]
 1412 00b2 002B     		cmp	r3, #0
 1413 00b4 E9D1     		bne	.L114
 955:..\..\..\..\..\..\uCOS-III\Source/os_sem.c ****     }
 956:..\..\..\..\..\..\uCOS-III\Source/os_sem.c ****     ctr = p_sem->Ctr;
 1414              		.loc 1 956 0
 1415 00b6 FB68     		ldr	r3, [r7, #12]
 1416 00b8 1B6A     		ldr	r3, [r3, #32]
 1417 00ba 7B61     		str	r3, [r7, #20]
 957:..\..\..\..\..\..\uCOS-III\Source/os_sem.c ****     OS_CRITICAL_EXIT_NO_SCHED();
 1418              		.loc 1 957 0
 1419 00bc 786A     		ldr	r0, [r7, #36]
 1420 00be FFF7FEFF 		bl	CPU_SR_Restore
ARM GAS  C:\Users\alex\AppData\Local\Temp\ccfIfgZ4.s 			page 43


 958:..\..\..\..\..\..\uCOS-III\Source/os_sem.c ****     if ((opt & OS_OPT_POST_NO_SCHED) == (OS_OPT)0) {
 1421              		.loc 1 958 0
 1422 00c2 B7F90A30 		ldrsh	r3, [r7, #10]
 1423 00c6 002B     		cmp	r3, #0
 1424 00c8 01DB     		blt	.L115
 959:..\..\..\..\..\..\uCOS-III\Source/os_sem.c ****         OSSched();                                          /* Run the scheduler                   
 1425              		.loc 1 959 0
 1426 00ca FFF7FEFF 		bl	OSSched
 1427              	.L115:
 960:..\..\..\..\..\..\uCOS-III\Source/os_sem.c ****     }
 961:..\..\..\..\..\..\uCOS-III\Source/os_sem.c ****    *p_err = OS_ERR_NONE;
 1428              		.loc 1 961 0
 1429 00ce 3B68     		ldr	r3, [r7]
 1430 00d0 0022     		movs	r2, #0
 1431 00d2 1A80     		strh	r2, [r3]	@ movhi
 962:..\..\..\..\..\..\uCOS-III\Source/os_sem.c ****     return (ctr);
 1432              		.loc 1 962 0
 1433 00d4 7B69     		ldr	r3, [r7, #20]
 1434              	.L110:
 963:..\..\..\..\..\..\uCOS-III\Source/os_sem.c **** }
 1435              		.loc 1 963 0
 1436 00d6 1846     		mov	r0, r3
 1437 00d8 3037     		adds	r7, r7, #48
 1438              		.cfi_def_cfa_offset 8
 1439 00da BD46     		mov	sp, r7
 1440              		.cfi_def_cfa_register 13
 1441              		@ sp needed
 1442 00dc 80BD     		pop	{r7, pc}
 1443              		.cfi_endproc
 1444              	.LFE10:
 1445              		.size	OS_SemPost, .-OS_SemPost
 1446 00de 00BF     		.text
 1447              	.Letext0:
 1448              		.file 2 "..\\..\\..\\..\\..\\..\\uC-CPU\\ARM-Cortex-M3\\GNU/cpu.h"
 1449              		.file 3 "..\\..\\..\\..\\..\\..\\uC-CPU/cpu_core.h"
 1450              		.file 4 "..\\..\\..\\..\\..\\..\\uCOS-III\\Source/os_type.h"
 1451              		.file 5 "..\\..\\..\\..\\..\\..\\uCOS-III\\Source/os.h"