ARM GAS  C:\Users\alex\AppData\Local\Temp\ccfIfgZ4.s 			page 1


   1              		.syntax unified
   2              		.cpu cortex-m3
   3              		.fpu softvfp
   4              		.eabi_attribute 20, 1
   5              		.eabi_attribute 21, 1
   6              		.eabi_attribute 23, 3
   7              		.eabi_attribute 24, 1
   8              		.eabi_attribute 25, 1
   9              		.eabi_attribute 26, 1
  10              		.eabi_attribute 30, 6
  11              		.eabi_attribute 34, 1
  12              		.eabi_attribute 18, 4
  13              		.thumb
  14              		.syntax unified
  15              		.file	"os_sem.c"
  16              		.text
  17              	.Ltext0:
  18              		.cfi_sections	.debug_frame
  19              		.section	.text.OSSemCreate,"ax",%progbits
  20              		.align	2
  21              		.global	OSSemCreate
  22              		.thumb
  23              		.thumb_func
  24              		.type	OSSemCreate, %function
  25              	OSSemCreate:
  26              	.LFB0:
  27              		.file 1 "..\\..\\..\\..\\..\\..\\uCOS-III\\Source\\os_sem.c"
   1:..\..\..\..\..\..\uCOS-III\Source/os_sem.c **** /*
   2:..\..\..\..\..\..\uCOS-III\Source/os_sem.c **** ***************************************************************************************************
   3:..\..\..\..\..\..\uCOS-III\Source/os_sem.c **** *                                                      uC/OS-III
   4:..\..\..\..\..\..\uCOS-III\Source/os_sem.c **** *                                                 The Real-Time Kernel
   5:..\..\..\..\..\..\uCOS-III\Source/os_sem.c **** *
   6:..\..\..\..\..\..\uCOS-III\Source/os_sem.c **** *                                  (c) Copyright 2009-2012; Micrium, Inc.; Weston, FL
   7:..\..\..\..\..\..\uCOS-III\Source/os_sem.c **** *                           All rights reserved.  Protected by international copyright laws.
   8:..\..\..\..\..\..\uCOS-III\Source/os_sem.c **** *
   9:..\..\..\..\..\..\uCOS-III\Source/os_sem.c **** *                                                 SEMAPHORE MANAGEMENT
  10:..\..\..\..\..\..\uCOS-III\Source/os_sem.c **** *
  11:..\..\..\..\..\..\uCOS-III\Source/os_sem.c **** * File    : OS_SEM.C
  12:..\..\..\..\..\..\uCOS-III\Source/os_sem.c **** * By      : JJL
  13:..\..\..\..\..\..\uCOS-III\Source/os_sem.c **** * Version : V3.03.01
  14:..\..\..\..\..\..\uCOS-III\Source/os_sem.c **** *
  15:..\..\..\..\..\..\uCOS-III\Source/os_sem.c **** * LICENSING TERMS:
  16:..\..\..\..\..\..\uCOS-III\Source/os_sem.c **** * ---------------
  17:..\..\..\..\..\..\uCOS-III\Source/os_sem.c **** *           uC/OS-III is provided in source form for FREE short-term evaluation, for educational us
  18:..\..\..\..\..\..\uCOS-III\Source/os_sem.c **** *           for peaceful research.  If you plan or intend to use uC/OS-III in a commercial applicat
  19:..\..\..\..\..\..\uCOS-III\Source/os_sem.c **** *           product then, you need to contact Micrium to properly license uC/OS-III for its use in 
  20:..\..\..\..\..\..\uCOS-III\Source/os_sem.c **** *           application/product.   We provide ALL the source code for your convenience and to help 
  21:..\..\..\..\..\..\uCOS-III\Source/os_sem.c **** *           experience uC/OS-III.  The fact that the source is provided does NOT mean that you can 
  22:..\..\..\..\..\..\uCOS-III\Source/os_sem.c **** *           it commercially without paying a licensing fee.
  23:..\..\..\..\..\..\uCOS-III\Source/os_sem.c **** *
  24:..\..\..\..\..\..\uCOS-III\Source/os_sem.c **** *           Knowledge of the source code may NOT be used to develop a similar product.
  25:..\..\..\..\..\..\uCOS-III\Source/os_sem.c **** *
  26:..\..\..\..\..\..\uCOS-III\Source/os_sem.c **** *           Please help us continue to provide the embedded community with the finest software avai
  27:..\..\..\..\..\..\uCOS-III\Source/os_sem.c **** *           Your honesty is greatly appreciated.
  28:..\..\..\..\..\..\uCOS-III\Source/os_sem.c **** *
  29:..\..\..\..\..\..\uCOS-III\Source/os_sem.c **** *           You can contact us at www.micrium.com, or by phone at +1 (954) 217-2036.
  30:..\..\..\..\..\..\uCOS-III\Source/os_sem.c **** ***************************************************************************************************
ARM GAS  C:\Users\alex\AppData\Local\Temp\ccfIfgZ4.s 			page 2


  31:..\..\..\..\..\..\uCOS-III\Source/os_sem.c **** */
  32:..\..\..\..\..\..\uCOS-III\Source/os_sem.c **** 
  33:..\..\..\..\..\..\uCOS-III\Source/os_sem.c **** #define  MICRIUM_SOURCE
  34:..\..\..\..\..\..\uCOS-III\Source/os_sem.c **** #include <os.h>
  35:..\..\..\..\..\..\uCOS-III\Source/os_sem.c **** 
  36:..\..\..\..\..\..\uCOS-III\Source/os_sem.c **** #ifdef VSC_INCLUDE_SOURCE_FILE_NAMES
  37:..\..\..\..\..\..\uCOS-III\Source/os_sem.c **** const  CPU_CHAR  *os_sem__c = "$Id: $";
  38:..\..\..\..\..\..\uCOS-III\Source/os_sem.c **** #endif
  39:..\..\..\..\..\..\uCOS-III\Source/os_sem.c **** 
  40:..\..\..\..\..\..\uCOS-III\Source/os_sem.c **** 
  41:..\..\..\..\..\..\uCOS-III\Source/os_sem.c **** #if OS_CFG_SEM_EN > 0u
  42:..\..\..\..\..\..\uCOS-III\Source/os_sem.c **** /*
  43:..\..\..\..\..\..\uCOS-III\Source/os_sem.c **** ***************************************************************************************************
  44:..\..\..\..\..\..\uCOS-III\Source/os_sem.c **** *                                                  CREATE A SEMAPHORE
  45:..\..\..\..\..\..\uCOS-III\Source/os_sem.c **** *
  46:..\..\..\..\..\..\uCOS-III\Source/os_sem.c **** * Description: This function creates a semaphore.
  47:..\..\..\..\..\..\uCOS-III\Source/os_sem.c **** *
  48:..\..\..\..\..\..\uCOS-III\Source/os_sem.c **** * Arguments  : p_sem         is a pointer to the semaphore to initialize.  Your application is resp
  49:..\..\..\..\..\..\uCOS-III\Source/os_sem.c **** *                            allocating storage for the semaphore.
  50:..\..\..\..\..\..\uCOS-III\Source/os_sem.c **** *
  51:..\..\..\..\..\..\uCOS-III\Source/os_sem.c **** *              p_name        is a pointer to the name you would like to give the semaphore.
  52:..\..\..\..\..\..\uCOS-III\Source/os_sem.c **** *
  53:..\..\..\..\..\..\uCOS-III\Source/os_sem.c **** *              cnt           is the initial value for the semaphore.
  54:..\..\..\..\..\..\uCOS-III\Source/os_sem.c **** *                            If used to share resources, you should initialize to the number of res
  55:..\..\..\..\..\..\uCOS-III\Source/os_sem.c **** *                            If used to signal the occurrence of event(s) then you should initializ
  56:..\..\..\..\..\..\uCOS-III\Source/os_sem.c **** *
  57:..\..\..\..\..\..\uCOS-III\Source/os_sem.c **** *              p_err         is a pointer to a variable that will contain an error code returned by
  58:..\..\..\..\..\..\uCOS-III\Source/os_sem.c **** *
  59:..\..\..\..\..\..\uCOS-III\Source/os_sem.c **** *                                OS_ERR_NONE                    if the call was successful
  60:..\..\..\..\..\..\uCOS-III\Source/os_sem.c **** *                                OS_ERR_CREATE_ISR              if you called this function from an
  61:..\..\..\..\..\..\uCOS-III\Source/os_sem.c **** *                                OS_ERR_ILLEGAL_CREATE_RUN_TIME if you are trying to create the sem
  62:..\..\..\..\..\..\uCOS-III\Source/os_sem.c **** *                                                                 called OSSafetyCriticalStart().
  63:..\..\..\..\..\..\uCOS-III\Source/os_sem.c **** *                                OS_ERR_NAME                    if 'p_name' is a NULL pointer
  64:..\..\..\..\..\..\uCOS-III\Source/os_sem.c **** *                                OS_ERR_OBJ_CREATED             if the semaphore has already been c
  65:..\..\..\..\..\..\uCOS-III\Source/os_sem.c **** *                                OS_ERR_OBJ_PTR_NULL            if 'p_sem'  is a NULL pointer
  66:..\..\..\..\..\..\uCOS-III\Source/os_sem.c **** *                                OS_ERR_OBJ_TYPE                if 'p_sem' has already been initial
  67:..\..\..\..\..\..\uCOS-III\Source/os_sem.c **** *                                                               object type
  68:..\..\..\..\..\..\uCOS-III\Source/os_sem.c **** *
  69:..\..\..\..\..\..\uCOS-III\Source/os_sem.c **** * Returns    : none
  70:..\..\..\..\..\..\uCOS-III\Source/os_sem.c **** ***************************************************************************************************
  71:..\..\..\..\..\..\uCOS-III\Source/os_sem.c **** */
  72:..\..\..\..\..\..\uCOS-III\Source/os_sem.c **** 
  73:..\..\..\..\..\..\uCOS-III\Source/os_sem.c **** void  OSSemCreate (OS_SEM      *p_sem,
  74:..\..\..\..\..\..\uCOS-III\Source/os_sem.c ****                    CPU_CHAR    *p_name,
  75:..\..\..\..\..\..\uCOS-III\Source/os_sem.c ****                    OS_SEM_CTR   cnt,
  76:..\..\..\..\..\..\uCOS-III\Source/os_sem.c ****                    OS_ERR      *p_err)
  77:..\..\..\..\..\..\uCOS-III\Source/os_sem.c **** {
  28              		.loc 1 77 0
  29              		.cfi_startproc
  30              		@ args = 0, pretend = 0, frame = 24
  31              		@ frame_needed = 1, uses_anonymous_args = 0
  32 0000 80B5     		push	{r7, lr}
  33              		.cfi_def_cfa_offset 8
  34              		.cfi_offset 7, -8
  35              		.cfi_offset 14, -4
  36 0002 86B0     		sub	sp, sp, #24
  37              		.cfi_def_cfa_offset 32
ARM GAS  C:\Users\alex\AppData\Local\Temp\ccfIfgZ4.s 			page 3


  38 0004 00AF     		add	r7, sp, #0
  39              		.cfi_def_cfa_register 7
  40 0006 F860     		str	r0, [r7, #12]
  41 0008 B960     		str	r1, [r7, #8]
  42 000a 7A60     		str	r2, [r7, #4]
  43 000c 3B60     		str	r3, [r7]
  78:..\..\..\..\..\..\uCOS-III\Source/os_sem.c ****     CPU_SR_ALLOC();
  44              		.loc 1 78 0
  45 000e 0023     		movs	r3, #0
  46 0010 7B61     		str	r3, [r7, #20]
  79:..\..\..\..\..\..\uCOS-III\Source/os_sem.c **** 
  80:..\..\..\..\..\..\uCOS-III\Source/os_sem.c **** 
  81:..\..\..\..\..\..\uCOS-III\Source/os_sem.c **** 
  82:..\..\..\..\..\..\uCOS-III\Source/os_sem.c **** #ifdef OS_SAFETY_CRITICAL
  83:..\..\..\..\..\..\uCOS-III\Source/os_sem.c ****     if (p_err == (OS_ERR *)0) {
  84:..\..\..\..\..\..\uCOS-III\Source/os_sem.c ****         OS_SAFETY_CRITICAL_EXCEPTION();
  85:..\..\..\..\..\..\uCOS-III\Source/os_sem.c ****         return;
  86:..\..\..\..\..\..\uCOS-III\Source/os_sem.c ****     }
  87:..\..\..\..\..\..\uCOS-III\Source/os_sem.c **** #endif
  88:..\..\..\..\..\..\uCOS-III\Source/os_sem.c **** 
  89:..\..\..\..\..\..\uCOS-III\Source/os_sem.c **** #ifdef OS_SAFETY_CRITICAL_IEC61508
  90:..\..\..\..\..\..\uCOS-III\Source/os_sem.c ****     if (OSSafetyCriticalStartFlag == DEF_TRUE) {
  91:..\..\..\..\..\..\uCOS-III\Source/os_sem.c ****        *p_err = OS_ERR_ILLEGAL_CREATE_RUN_TIME;
  92:..\..\..\..\..\..\uCOS-III\Source/os_sem.c ****         return;
  93:..\..\..\..\..\..\uCOS-III\Source/os_sem.c ****     }
  94:..\..\..\..\..\..\uCOS-III\Source/os_sem.c **** #endif
  95:..\..\..\..\..\..\uCOS-III\Source/os_sem.c **** 
  96:..\..\..\..\..\..\uCOS-III\Source/os_sem.c **** #if OS_CFG_CALLED_FROM_ISR_CHK_EN > 0u
  97:..\..\..\..\..\..\uCOS-III\Source/os_sem.c ****     if (OSIntNestingCtr > (OS_NESTING_CTR)0) {              /* Not allowed to be called from an ISR
  47              		.loc 1 97 0
  48 0012 1B4B     		ldr	r3, .L5
  49 0014 1B78     		ldrb	r3, [r3]	@ zero_extendqisi2
  50 0016 002B     		cmp	r3, #0
  51 0018 04D0     		beq	.L2
  98:..\..\..\..\..\..\uCOS-III\Source/os_sem.c ****        *p_err = OS_ERR_CREATE_ISR;
  52              		.loc 1 98 0
  53 001a 3B68     		ldr	r3, [r7]
  54 001c 42F6E162 		movw	r2, #12001
  55 0020 1A80     		strh	r2, [r3]	@ movhi
  99:..\..\..\..\..\..\uCOS-III\Source/os_sem.c ****         return;
  56              		.loc 1 99 0
  57 0022 2AE0     		b	.L1
  58              	.L2:
 100:..\..\..\..\..\..\uCOS-III\Source/os_sem.c ****     }
 101:..\..\..\..\..\..\uCOS-III\Source/os_sem.c **** #endif
 102:..\..\..\..\..\..\uCOS-III\Source/os_sem.c **** 
 103:..\..\..\..\..\..\uCOS-III\Source/os_sem.c **** #if OS_CFG_ARG_CHK_EN > 0u
 104:..\..\..\..\..\..\uCOS-III\Source/os_sem.c ****     if (p_sem == (OS_SEM *)0) {                             /* Validate 'p_sem'                    
  59              		.loc 1 104 0
  60 0024 FB68     		ldr	r3, [r7, #12]
  61 0026 002B     		cmp	r3, #0
  62 0028 04D1     		bne	.L4
 105:..\..\..\..\..\..\uCOS-III\Source/os_sem.c ****        *p_err = OS_ERR_OBJ_PTR_NULL;
  63              		.loc 1 105 0
  64 002a 3B68     		ldr	r3, [r7]
  65 002c 45F6C352 		movw	r2, #24003
  66 0030 1A80     		strh	r2, [r3]	@ movhi
ARM GAS  C:\Users\alex\AppData\Local\Temp\ccfIfgZ4.s 			page 4


 106:..\..\..\..\..\..\uCOS-III\Source/os_sem.c ****         return;
  67              		.loc 1 106 0
  68 0032 22E0     		b	.L1
  69              	.L4:
 107:..\..\..\..\..\..\uCOS-III\Source/os_sem.c ****     }
 108:..\..\..\..\..\..\uCOS-III\Source/os_sem.c **** #endif
 109:..\..\..\..\..\..\uCOS-III\Source/os_sem.c **** 
 110:..\..\..\..\..\..\uCOS-III\Source/os_sem.c ****     OS_CRITICAL_ENTER();
  70              		.loc 1 110 0
  71 0034 FFF7FEFF 		bl	CPU_SR_Save
  72 0038 7861     		str	r0, [r7, #20]
 111:..\..\..\..\..\..\uCOS-III\Source/os_sem.c ****     p_sem->Type    = OS_OBJ_TYPE_SEM;                       /* Mark the data structure as a semapho
  73              		.loc 1 111 0
  74 003a FB68     		ldr	r3, [r7, #12]
  75 003c 114A     		ldr	r2, .L5+4
  76 003e 1A60     		str	r2, [r3]
 112:..\..\..\..\..\..\uCOS-III\Source/os_sem.c ****     p_sem->Ctr     = cnt;                                   /* Set semaphore value                 
  77              		.loc 1 112 0
  78 0040 FB68     		ldr	r3, [r7, #12]
  79 0042 7A68     		ldr	r2, [r7, #4]
  80 0044 1A62     		str	r2, [r3, #32]
 113:..\..\..\..\..\..\uCOS-III\Source/os_sem.c ****     p_sem->TS      = (CPU_TS)0;
  81              		.loc 1 113 0
  82 0046 FB68     		ldr	r3, [r7, #12]
  83 0048 0022     		movs	r2, #0
  84 004a 5A62     		str	r2, [r3, #36]
 114:..\..\..\..\..\..\uCOS-III\Source/os_sem.c ****     p_sem->NamePtr = p_name;                                /* Save the name of the semaphore      
  85              		.loc 1 114 0
  86 004c FB68     		ldr	r3, [r7, #12]
  87 004e BA68     		ldr	r2, [r7, #8]
  88 0050 5A60     		str	r2, [r3, #4]
 115:..\..\..\..\..\..\uCOS-III\Source/os_sem.c ****     OS_PendListInit(&p_sem->PendList);                      /* Initialize the waiting list         
  89              		.loc 1 115 0
  90 0052 FB68     		ldr	r3, [r7, #12]
  91 0054 0833     		adds	r3, r3, #8
  92 0056 1846     		mov	r0, r3
  93 0058 FFF7FEFF 		bl	OS_PendListInit
 116:..\..\..\..\..\..\uCOS-III\Source/os_sem.c **** 
 117:..\..\..\..\..\..\uCOS-III\Source/os_sem.c **** #if OS_CFG_DBG_EN > 0u
 118:..\..\..\..\..\..\uCOS-III\Source/os_sem.c ****     OS_SemDbgListAdd(p_sem);
  94              		.loc 1 118 0
  95 005c F868     		ldr	r0, [r7, #12]
  96 005e FFF7FEFF 		bl	OS_SemDbgListAdd
 119:..\..\..\..\..\..\uCOS-III\Source/os_sem.c **** #endif
 120:..\..\..\..\..\..\uCOS-III\Source/os_sem.c ****     OSSemQty++;
  97              		.loc 1 120 0
  98 0062 094B     		ldr	r3, .L5+8
  99 0064 1B88     		ldrh	r3, [r3]
 100 0066 0133     		adds	r3, r3, #1
 101 0068 9AB2     		uxth	r2, r3
 102 006a 074B     		ldr	r3, .L5+8
 103 006c 1A80     		strh	r2, [r3]	@ movhi
 121:..\..\..\..\..\..\uCOS-III\Source/os_sem.c **** 
 122:..\..\..\..\..\..\uCOS-III\Source/os_sem.c ****     OS_CRITICAL_EXIT_NO_SCHED();
 104              		.loc 1 122 0
 105 006e 7869     		ldr	r0, [r7, #20]
 106 0070 FFF7FEFF 		bl	CPU_SR_Restore
ARM GAS  C:\Users\alex\AppData\Local\Temp\ccfIfgZ4.s 			page 5


 123:..\..\..\..\..\..\uCOS-III\Source/os_sem.c ****    *p_err = OS_ERR_NONE;
 107              		.loc 1 123 0
 108 0074 3B68     		ldr	r3, [r7]
 109 0076 0022     		movs	r2, #0
 110 0078 1A80     		strh	r2, [r3]	@ movhi
 111              	.L1:
 124:..\..\..\..\..\..\uCOS-III\Source/os_sem.c **** }
 112              		.loc 1 124 0
 113 007a 1837     		adds	r7, r7, #24
 114              		.cfi_def_cfa_offset 8
 115 007c BD46     		mov	sp, r7
 116              		.cfi_def_cfa_register 13
 117              		@ sp needed
 118 007e 80BD     		pop	{r7, pc}
 119              	.L6:
 120              		.align	2
 121              	.L5:
 122 0080 00000000 		.word	OSIntNestingCtr
 123 0084 53454D41 		.word	1095583059
 124 0088 00000000 		.word	OSSemQty
 125              		.cfi_endproc
 126              	.LFE0:
 127              		.size	OSSemCreate, .-OSSemCreate
 128              		.section	.text.OSSemDel,"ax",%progbits
 129              		.align	2
 130              		.global	OSSemDel
 131              		.thumb
 132              		.thumb_func
 133              		.type	OSSemDel, %function
 134              	OSSemDel:
 135              	.LFB1:
 125:..\..\..\..\..\..\uCOS-III\Source/os_sem.c **** 
 126:..\..\..\..\..\..\uCOS-III\Source/os_sem.c **** /*$PAGE*/
 127:..\..\..\..\..\..\uCOS-III\Source/os_sem.c **** /*
 128:..\..\..\..\..\..\uCOS-III\Source/os_sem.c **** ***************************************************************************************************
 129:..\..\..\..\..\..\uCOS-III\Source/os_sem.c **** *                                                  DELETE A SEMAPHORE
 130:..\..\..\..\..\..\uCOS-III\Source/os_sem.c **** *
 131:..\..\..\..\..\..\uCOS-III\Source/os_sem.c **** * Description: This function deletes a semaphore.
 132:..\..\..\..\..\..\uCOS-III\Source/os_sem.c **** *
 133:..\..\..\..\..\..\uCOS-III\Source/os_sem.c **** * Arguments  : p_sem         is a pointer to the semaphore to delete
 134:..\..\..\..\..\..\uCOS-III\Source/os_sem.c **** *
 135:..\..\..\..\..\..\uCOS-III\Source/os_sem.c **** *              opt           determines delete options as follows:
 136:..\..\..\..\..\..\uCOS-III\Source/os_sem.c **** *
 137:..\..\..\..\..\..\uCOS-III\Source/os_sem.c **** *                                OS_OPT_DEL_NO_PEND          Delete semaphore ONLY if no task pendi
 138:..\..\..\..\..\..\uCOS-III\Source/os_sem.c **** *                                OS_OPT_DEL_ALWAYS           Deletes the semaphore even if tasks ar
 139:..\..\..\..\..\..\uCOS-III\Source/os_sem.c **** *                                                            In this case, all the tasks pending wi
 140:..\..\..\..\..\..\uCOS-III\Source/os_sem.c **** *
 141:..\..\..\..\..\..\uCOS-III\Source/os_sem.c **** *              p_err         is a pointer to a variable that will contain an error code returned by
 142:..\..\..\..\..\..\uCOS-III\Source/os_sem.c **** *
 143:..\..\..\..\..\..\uCOS-III\Source/os_sem.c **** *                                OS_ERR_NONE                 The call was successful and the semaph
 144:..\..\..\..\..\..\uCOS-III\Source/os_sem.c **** *                                OS_ERR_DEL_ISR              If you attempted to delete the semapho
 145:..\..\..\..\..\..\uCOS-III\Source/os_sem.c **** *                                OS_ERR_OBJ_PTR_NULL         If 'p_sem' is a NULL pointer.
 146:..\..\..\..\..\..\uCOS-III\Source/os_sem.c **** *                                OS_ERR_OBJ_TYPE             If 'p_sem' is not pointing at a semaph
 147:..\..\..\..\..\..\uCOS-III\Source/os_sem.c **** *                                OS_ERR_OPT_INVALID          An invalid option was specified
 148:..\..\..\..\..\..\uCOS-III\Source/os_sem.c **** *                                OS_ERR_TASK_WAITING         One or more tasks were waiting on the 
 149:..\..\..\..\..\..\uCOS-III\Source/os_sem.c **** *
 150:..\..\..\..\..\..\uCOS-III\Source/os_sem.c **** * Returns    : == 0          if no tasks were waiting on the semaphore, or upon error.
ARM GAS  C:\Users\alex\AppData\Local\Temp\ccfIfgZ4.s 			page 6


 151:..\..\..\..\..\..\uCOS-III\Source/os_sem.c **** *              >  0          if one or more tasks waiting on the semaphore are now readied and info
 152:..\..\..\..\..\..\uCOS-III\Source/os_sem.c **** *
 153:..\..\..\..\..\..\uCOS-III\Source/os_sem.c **** * Note(s)    : 1) This function must be used with care.  Tasks that would normally expect the prese
 154:..\..\..\..\..\..\uCOS-III\Source/os_sem.c **** *                 MUST check the return code of OSSemPend().
 155:..\..\..\..\..\..\uCOS-III\Source/os_sem.c **** *              2) OSSemAccept() callers will not know that the intended semaphore has been deleted.
 156:..\..\..\..\..\..\uCOS-III\Source/os_sem.c **** *              3) Because ALL tasks pending on the semaphore will be readied, you MUST be careful i
 157:..\..\..\..\..\..\uCOS-III\Source/os_sem.c **** *                 the semaphore is used for mutual exclusion because the resource(s) will no longer
 158:..\..\..\..\..\..\uCOS-III\Source/os_sem.c **** *                 semaphore.
 159:..\..\..\..\..\..\uCOS-III\Source/os_sem.c **** ***************************************************************************************************
 160:..\..\..\..\..\..\uCOS-III\Source/os_sem.c **** */
 161:..\..\..\..\..\..\uCOS-III\Source/os_sem.c **** 
 162:..\..\..\..\..\..\uCOS-III\Source/os_sem.c **** #if OS_CFG_SEM_DEL_EN > 0u
 163:..\..\..\..\..\..\uCOS-III\Source/os_sem.c **** OS_OBJ_QTY  OSSemDel (OS_SEM  *p_sem,
 164:..\..\..\..\..\..\uCOS-III\Source/os_sem.c ****                       OS_OPT   opt,
 165:..\..\..\..\..\..\uCOS-III\Source/os_sem.c ****                       OS_ERR  *p_err)
 166:..\..\..\..\..\..\uCOS-III\Source/os_sem.c **** {
 136              		.loc 1 166 0
 137              		.cfi_startproc
 138              		@ args = 0, pretend = 0, frame = 48
 139              		@ frame_needed = 1, uses_anonymous_args = 0
 140 0000 80B5     		push	{r7, lr}
 141              		.cfi_def_cfa_offset 8
 142              		.cfi_offset 7, -8
 143              		.cfi_offset 14, -4
 144 0002 8CB0     		sub	sp, sp, #48
 145              		.cfi_def_cfa_offset 56
 146 0004 00AF     		add	r7, sp, #0
 147              		.cfi_def_cfa_register 7
 148 0006 F860     		str	r0, [r7, #12]
 149 0008 0B46     		mov	r3, r1
 150 000a 7A60     		str	r2, [r7, #4]
 151 000c 7B81     		strh	r3, [r7, #10]	@ movhi
 167:..\..\..\..\..\..\uCOS-III\Source/os_sem.c ****     OS_OBJ_QTY     cnt;
 168:..\..\..\..\..\..\uCOS-III\Source/os_sem.c ****     OS_OBJ_QTY     nbr_tasks;
 169:..\..\..\..\..\..\uCOS-III\Source/os_sem.c ****     OS_PEND_DATA  *p_pend_data;
 170:..\..\..\..\..\..\uCOS-III\Source/os_sem.c ****     OS_PEND_LIST  *p_pend_list;
 171:..\..\..\..\..\..\uCOS-III\Source/os_sem.c ****     OS_TCB        *p_tcb;
 172:..\..\..\..\..\..\uCOS-III\Source/os_sem.c ****     CPU_TS         ts;
 173:..\..\..\..\..\..\uCOS-III\Source/os_sem.c ****     CPU_SR_ALLOC();
 152              		.loc 1 173 0
 153 000e 0023     		movs	r3, #0
 154 0010 BB62     		str	r3, [r7, #40]
 174:..\..\..\..\..\..\uCOS-III\Source/os_sem.c **** 
 175:..\..\..\..\..\..\uCOS-III\Source/os_sem.c **** 
 176:..\..\..\..\..\..\uCOS-III\Source/os_sem.c **** 
 177:..\..\..\..\..\..\uCOS-III\Source/os_sem.c **** #ifdef OS_SAFETY_CRITICAL
 178:..\..\..\..\..\..\uCOS-III\Source/os_sem.c ****     if (p_err == (OS_ERR *)0) {
 179:..\..\..\..\..\..\uCOS-III\Source/os_sem.c ****         OS_SAFETY_CRITICAL_EXCEPTION();
 180:..\..\..\..\..\..\uCOS-III\Source/os_sem.c ****         return ((OS_OBJ_QTY)0);
 181:..\..\..\..\..\..\uCOS-III\Source/os_sem.c ****     }
 182:..\..\..\..\..\..\uCOS-III\Source/os_sem.c **** #endif
 183:..\..\..\..\..\..\uCOS-III\Source/os_sem.c **** 
 184:..\..\..\..\..\..\uCOS-III\Source/os_sem.c **** #if OS_CFG_CALLED_FROM_ISR_CHK_EN > 0u
 185:..\..\..\..\..\..\uCOS-III\Source/os_sem.c ****     if (OSIntNestingCtr > (OS_NESTING_CTR)0) {              /* Not allowed to delete a semaphore fr
 155              		.loc 1 185 0
 156 0012 424B     		ldr	r3, .L25
 157 0014 1B78     		ldrb	r3, [r3]	@ zero_extendqisi2
ARM GAS  C:\Users\alex\AppData\Local\Temp\ccfIfgZ4.s 			page 7


 158 0016 002B     		cmp	r3, #0
 159 0018 05D0     		beq	.L8
 186:..\..\..\..\..\..\uCOS-III\Source/os_sem.c ****        *p_err = OS_ERR_DEL_ISR;
 160              		.loc 1 186 0
 161 001a 7B68     		ldr	r3, [r7, #4]
 162 001c 43F2C922 		movw	r2, #13001
 163 0020 1A80     		strh	r2, [r3]	@ movhi
 187:..\..\..\..\..\..\uCOS-III\Source/os_sem.c ****         return ((OS_OBJ_QTY)0);
 164              		.loc 1 187 0
 165 0022 0023     		movs	r3, #0
 166 0024 75E0     		b	.L9
 167              	.L8:
 188:..\..\..\..\..\..\uCOS-III\Source/os_sem.c ****     }
 189:..\..\..\..\..\..\uCOS-III\Source/os_sem.c **** #endif
 190:..\..\..\..\..\..\uCOS-III\Source/os_sem.c **** 
 191:..\..\..\..\..\..\uCOS-III\Source/os_sem.c **** #if OS_CFG_ARG_CHK_EN > 0u
 192:..\..\..\..\..\..\uCOS-III\Source/os_sem.c ****     if (p_sem == (OS_SEM *)0) {                             /* Validate 'p_sem'                    
 168              		.loc 1 192 0
 169 0026 FB68     		ldr	r3, [r7, #12]
 170 0028 002B     		cmp	r3, #0
 171 002a 05D1     		bne	.L10
 193:..\..\..\..\..\..\uCOS-III\Source/os_sem.c ****        *p_err = OS_ERR_OBJ_PTR_NULL;
 172              		.loc 1 193 0
 173 002c 7B68     		ldr	r3, [r7, #4]
 174 002e 45F6C352 		movw	r2, #24003
 175 0032 1A80     		strh	r2, [r3]	@ movhi
 194:..\..\..\..\..\..\uCOS-III\Source/os_sem.c ****         return ((OS_OBJ_QTY)0);
 176              		.loc 1 194 0
 177 0034 0023     		movs	r3, #0
 178 0036 6CE0     		b	.L9
 179              	.L10:
 195:..\..\..\..\..\..\uCOS-III\Source/os_sem.c ****     }
 196:..\..\..\..\..\..\uCOS-III\Source/os_sem.c ****     switch (opt) {                                          /* Validate 'opt'                      
 180              		.loc 1 196 0
 181 0038 7B89     		ldrh	r3, [r7, #10]
 182 003a 0033     		adds	r3, r3, #0
 183 003c 012B     		cmp	r3, #1
 184 003e 05D9     		bls	.L24
 197:..\..\..\..\..\..\uCOS-III\Source/os_sem.c ****         case OS_OPT_DEL_NO_PEND:
 198:..\..\..\..\..\..\uCOS-III\Source/os_sem.c ****         case OS_OPT_DEL_ALWAYS:
 199:..\..\..\..\..\..\uCOS-III\Source/os_sem.c ****              break;
 200:..\..\..\..\..\..\uCOS-III\Source/os_sem.c **** 
 201:..\..\..\..\..\..\uCOS-III\Source/os_sem.c ****         default:
 202:..\..\..\..\..\..\uCOS-III\Source/os_sem.c ****             *p_err = OS_ERR_OPT_INVALID;
 185              		.loc 1 202 0
 186 0040 7B68     		ldr	r3, [r7, #4]
 187 0042 45F62562 		movw	r2, #24101
 188 0046 1A80     		strh	r2, [r3]	@ movhi
 203:..\..\..\..\..\..\uCOS-III\Source/os_sem.c ****              return ((OS_OBJ_QTY)0);
 189              		.loc 1 203 0
 190 0048 0023     		movs	r3, #0
 191 004a 62E0     		b	.L9
 192              	.L24:
 199:..\..\..\..\..\..\uCOS-III\Source/os_sem.c **** 
 193              		.loc 1 199 0
 194 004c 00BF     		nop
 204:..\..\..\..\..\..\uCOS-III\Source/os_sem.c ****     }
ARM GAS  C:\Users\alex\AppData\Local\Temp\ccfIfgZ4.s 			page 8


 205:..\..\..\..\..\..\uCOS-III\Source/os_sem.c **** #endif
 206:..\..\..\..\..\..\uCOS-III\Source/os_sem.c **** 
 207:..\..\..\..\..\..\uCOS-III\Source/os_sem.c **** #if OS_CFG_OBJ_TYPE_CHK_EN > 0u
 208:..\..\..\..\..\..\uCOS-III\Source/os_sem.c ****     if (p_sem->Type != OS_OBJ_TYPE_SEM) {                   /* Make sure semaphore was created     
 209:..\..\..\..\..\..\uCOS-III\Source/os_sem.c ****        *p_err = OS_ERR_OBJ_TYPE;
 210:..\..\..\..\..\..\uCOS-III\Source/os_sem.c ****         return ((OS_OBJ_QTY)0);
 211:..\..\..\..\..\..\uCOS-III\Source/os_sem.c ****     }
 212:..\..\..\..\..\..\uCOS-III\Source/os_sem.c **** #endif
 213:..\..\..\..\..\..\uCOS-III\Source/os_sem.c **** 
 214:..\..\..\..\..\..\uCOS-III\Source/os_sem.c ****     CPU_CRITICAL_ENTER();
 195              		.loc 1 214 0
 196 004e FFF7FEFF 		bl	CPU_SR_Save
 197 0052 B862     		str	r0, [r7, #40]
 215:..\..\..\..\..\..\uCOS-III\Source/os_sem.c ****     p_pend_list = &p_sem->PendList;
 198              		.loc 1 215 0
 199 0054 FB68     		ldr	r3, [r7, #12]
 200 0056 0833     		adds	r3, r3, #8
 201 0058 7B62     		str	r3, [r7, #36]
 216:..\..\..\..\..\..\uCOS-III\Source/os_sem.c ****     cnt         = p_pend_list->NbrEntries;
 202              		.loc 1 216 0
 203 005a 7B6A     		ldr	r3, [r7, #36]
 204 005c 1B89     		ldrh	r3, [r3, #8]	@ movhi
 205 005e FB85     		strh	r3, [r7, #46]	@ movhi
 217:..\..\..\..\..\..\uCOS-III\Source/os_sem.c ****     nbr_tasks   = cnt;
 206              		.loc 1 217 0
 207 0060 FB8D     		ldrh	r3, [r7, #46]	@ movhi
 208 0062 7B84     		strh	r3, [r7, #34]	@ movhi
 218:..\..\..\..\..\..\uCOS-III\Source/os_sem.c ****     switch (opt) {
 209              		.loc 1 218 0
 210 0064 7B89     		ldrh	r3, [r7, #10]
 211 0066 002B     		cmp	r3, #0
 212 0068 02D0     		beq	.L15
 213 006a 012B     		cmp	r3, #1
 214 006c 1ED0     		beq	.L16
 215 006e 47E0     		b	.L23
 216              	.L15:
 219:..\..\..\..\..\..\uCOS-III\Source/os_sem.c ****         case OS_OPT_DEL_NO_PEND:                            /* Delete semaphore only if no task wai
 220:..\..\..\..\..\..\uCOS-III\Source/os_sem.c ****              if (nbr_tasks == (OS_OBJ_QTY)0) {
 217              		.loc 1 220 0
 218 0070 7B8C     		ldrh	r3, [r7, #34]
 219 0072 002B     		cmp	r3, #0
 220 0074 12D1     		bne	.L17
 221:..\..\..\..\..\..\uCOS-III\Source/os_sem.c **** #if OS_CFG_DBG_EN > 0u
 222:..\..\..\..\..\..\uCOS-III\Source/os_sem.c ****                  OS_SemDbgListRemove(p_sem);
 221              		.loc 1 222 0
 222 0076 F868     		ldr	r0, [r7, #12]
 223 0078 FFF7FEFF 		bl	OS_SemDbgListRemove
 223:..\..\..\..\..\..\uCOS-III\Source/os_sem.c **** #endif
 224:..\..\..\..\..\..\uCOS-III\Source/os_sem.c ****                  OSSemQty--;
 224              		.loc 1 224 0
 225 007c 284B     		ldr	r3, .L25+4
 226 007e 1B88     		ldrh	r3, [r3]
 227 0080 013B     		subs	r3, r3, #1
 228 0082 9AB2     		uxth	r2, r3
 229 0084 264B     		ldr	r3, .L25+4
 230 0086 1A80     		strh	r2, [r3]	@ movhi
 225:..\..\..\..\..\..\uCOS-III\Source/os_sem.c ****                  OS_SemClr(p_sem);
ARM GAS  C:\Users\alex\AppData\Local\Temp\ccfIfgZ4.s 			page 9


 231              		.loc 1 225 0
 232 0088 F868     		ldr	r0, [r7, #12]
 233 008a FFF7FEFF 		bl	OS_SemClr
 226:..\..\..\..\..\..\uCOS-III\Source/os_sem.c ****                  CPU_CRITICAL_EXIT();
 234              		.loc 1 226 0
 235 008e B86A     		ldr	r0, [r7, #40]
 236 0090 FFF7FEFF 		bl	CPU_SR_Restore
 227:..\..\..\..\..\..\uCOS-III\Source/os_sem.c ****                 *p_err = OS_ERR_NONE;
 237              		.loc 1 227 0
 238 0094 7B68     		ldr	r3, [r7, #4]
 239 0096 0022     		movs	r2, #0
 240 0098 1A80     		strh	r2, [r3]	@ movhi
 228:..\..\..\..\..\..\uCOS-III\Source/os_sem.c ****              } else {
 229:..\..\..\..\..\..\uCOS-III\Source/os_sem.c ****                  CPU_CRITICAL_EXIT();
 230:..\..\..\..\..\..\uCOS-III\Source/os_sem.c ****                 *p_err = OS_ERR_TASK_WAITING;
 231:..\..\..\..\..\..\uCOS-III\Source/os_sem.c ****              }
 232:..\..\..\..\..\..\uCOS-III\Source/os_sem.c ****              break;
 241              		.loc 1 232 0
 242 009a 39E0     		b	.L19
 243              	.L17:
 229:..\..\..\..\..\..\uCOS-III\Source/os_sem.c ****                 *p_err = OS_ERR_TASK_WAITING;
 244              		.loc 1 229 0
 245 009c B86A     		ldr	r0, [r7, #40]
 246 009e FFF7FEFF 		bl	CPU_SR_Restore
 230:..\..\..\..\..\..\uCOS-III\Source/os_sem.c ****              }
 247              		.loc 1 230 0
 248 00a2 7B68     		ldr	r3, [r7, #4]
 249 00a4 47F25F12 		movw	r2, #29023
 250 00a8 1A80     		strh	r2, [r3]	@ movhi
 251              		.loc 1 232 0
 252 00aa 31E0     		b	.L19
 253              	.L16:
 233:..\..\..\..\..\..\uCOS-III\Source/os_sem.c **** 
 234:..\..\..\..\..\..\uCOS-III\Source/os_sem.c ****         case OS_OPT_DEL_ALWAYS:                             /* Always delete the semaphore         
 235:..\..\..\..\..\..\uCOS-III\Source/os_sem.c ****              OS_CRITICAL_ENTER_CPU_EXIT();
 236:..\..\..\..\..\..\uCOS-III\Source/os_sem.c ****              ts = OS_TS_GET();                              /* Get local time stamp so all tasks ge
 254              		.loc 1 236 0
 255 00ac FFF7FEFF 		bl	CPU_TS_TmrRd
 256 00b0 F861     		str	r0, [r7, #28]
 237:..\..\..\..\..\..\uCOS-III\Source/os_sem.c ****              while (cnt > 0u) {                             /* Remove all tasks on the pend list   
 257              		.loc 1 237 0
 258 00b2 0DE0     		b	.L20
 259              	.L21:
 238:..\..\..\..\..\..\uCOS-III\Source/os_sem.c ****                  p_pend_data = p_pend_list->HeadPtr;
 260              		.loc 1 238 0
 261 00b4 7B6A     		ldr	r3, [r7, #36]
 262 00b6 1B68     		ldr	r3, [r3]
 263 00b8 BB61     		str	r3, [r7, #24]
 239:..\..\..\..\..\..\uCOS-III\Source/os_sem.c ****                  p_tcb       = p_pend_data->TCBPtr;
 264              		.loc 1 239 0
 265 00ba BB69     		ldr	r3, [r7, #24]
 266 00bc 9B68     		ldr	r3, [r3, #8]
 267 00be 7B61     		str	r3, [r7, #20]
 240:..\..\..\..\..\..\uCOS-III\Source/os_sem.c ****                  OS_PendObjDel((OS_PEND_OBJ *)((void *)p_sem),
 268              		.loc 1 240 0
 269 00c0 FA69     		ldr	r2, [r7, #28]
 270 00c2 7969     		ldr	r1, [r7, #20]
ARM GAS  C:\Users\alex\AppData\Local\Temp\ccfIfgZ4.s 			page 10


 271 00c4 F868     		ldr	r0, [r7, #12]
 272 00c6 FFF7FEFF 		bl	OS_PendObjDel
 241:..\..\..\..\..\..\uCOS-III\Source/os_sem.c ****                                p_tcb,
 242:..\..\..\..\..\..\uCOS-III\Source/os_sem.c ****                                ts);
 243:..\..\..\..\..\..\uCOS-III\Source/os_sem.c ****                  cnt--;
 273              		.loc 1 243 0
 274 00ca FB8D     		ldrh	r3, [r7, #46]
 275 00cc 013B     		subs	r3, r3, #1
 276 00ce FB85     		strh	r3, [r7, #46]	@ movhi
 277              	.L20:
 237:..\..\..\..\..\..\uCOS-III\Source/os_sem.c ****                  p_pend_data = p_pend_list->HeadPtr;
 278              		.loc 1 237 0
 279 00d0 FB8D     		ldrh	r3, [r7, #46]
 280 00d2 002B     		cmp	r3, #0
 281 00d4 EED1     		bne	.L21
 244:..\..\..\..\..\..\uCOS-III\Source/os_sem.c ****              }
 245:..\..\..\..\..\..\uCOS-III\Source/os_sem.c **** #if OS_CFG_DBG_EN > 0u
 246:..\..\..\..\..\..\uCOS-III\Source/os_sem.c ****              OS_SemDbgListRemove(p_sem);
 282              		.loc 1 246 0
 283 00d6 F868     		ldr	r0, [r7, #12]
 284 00d8 FFF7FEFF 		bl	OS_SemDbgListRemove
 247:..\..\..\..\..\..\uCOS-III\Source/os_sem.c **** #endif
 248:..\..\..\..\..\..\uCOS-III\Source/os_sem.c ****              OSSemQty--;
 285              		.loc 1 248 0
 286 00dc 104B     		ldr	r3, .L25+4
 287 00de 1B88     		ldrh	r3, [r3]
 288 00e0 013B     		subs	r3, r3, #1
 289 00e2 9AB2     		uxth	r2, r3
 290 00e4 0E4B     		ldr	r3, .L25+4
 291 00e6 1A80     		strh	r2, [r3]	@ movhi
 249:..\..\..\..\..\..\uCOS-III\Source/os_sem.c ****              OS_SemClr(p_sem);
 292              		.loc 1 249 0
 293 00e8 F868     		ldr	r0, [r7, #12]
 294 00ea FFF7FEFF 		bl	OS_SemClr
 250:..\..\..\..\..\..\uCOS-III\Source/os_sem.c ****              OS_CRITICAL_EXIT_NO_SCHED();
 295              		.loc 1 250 0
 296 00ee B86A     		ldr	r0, [r7, #40]
 297 00f0 FFF7FEFF 		bl	CPU_SR_Restore
 251:..\..\..\..\..\..\uCOS-III\Source/os_sem.c ****              OSSched();                                     /* Find highest priority task ready to 
 298              		.loc 1 251 0
 299 00f4 FFF7FEFF 		bl	OSSched
 252:..\..\..\..\..\..\uCOS-III\Source/os_sem.c ****             *p_err = OS_ERR_NONE;
 300              		.loc 1 252 0
 301 00f8 7B68     		ldr	r3, [r7, #4]
 302 00fa 0022     		movs	r2, #0
 303 00fc 1A80     		strh	r2, [r3]	@ movhi
 253:..\..\..\..\..\..\uCOS-III\Source/os_sem.c ****              break;
 304              		.loc 1 253 0
 305 00fe 07E0     		b	.L19
 306              	.L23:
 254:..\..\..\..\..\..\uCOS-III\Source/os_sem.c **** 
 255:..\..\..\..\..\..\uCOS-III\Source/os_sem.c ****         default:
 256:..\..\..\..\..\..\uCOS-III\Source/os_sem.c ****              CPU_CRITICAL_EXIT();
 307              		.loc 1 256 0
 308 0100 B86A     		ldr	r0, [r7, #40]
 309 0102 FFF7FEFF 		bl	CPU_SR_Restore
 257:..\..\..\..\..\..\uCOS-III\Source/os_sem.c ****             *p_err = OS_ERR_OPT_INVALID;
ARM GAS  C:\Users\alex\AppData\Local\Temp\ccfIfgZ4.s 			page 11


 310              		.loc 1 257 0
 311 0106 7B68     		ldr	r3, [r7, #4]
 312 0108 45F62562 		movw	r2, #24101
 313 010c 1A80     		strh	r2, [r3]	@ movhi
 258:..\..\..\..\..\..\uCOS-III\Source/os_sem.c ****              break;
 314              		.loc 1 258 0
 315 010e 00BF     		nop
 316              	.L19:
 259:..\..\..\..\..\..\uCOS-III\Source/os_sem.c ****     }
 260:..\..\..\..\..\..\uCOS-III\Source/os_sem.c ****     return ((OS_OBJ_QTY)nbr_tasks);
 317              		.loc 1 260 0
 318 0110 7B8C     		ldrh	r3, [r7, #34]
 319              	.L9:
 261:..\..\..\..\..\..\uCOS-III\Source/os_sem.c **** }
 320              		.loc 1 261 0
 321 0112 1846     		mov	r0, r3
 322 0114 3037     		adds	r7, r7, #48
 323              		.cfi_def_cfa_offset 8
 324 0116 BD46     		mov	sp, r7
 325              		.cfi_def_cfa_register 13
 326              		@ sp needed
 327 0118 80BD     		pop	{r7, pc}
 328              	.L26:
 329 011a 00BF     		.align	2
 330              	.L25:
 331 011c 00000000 		.word	OSIntNestingCtr
 332 0120 00000000 		.word	OSSemQty
 333              		.cfi_endproc
 334              	.LFE1:
 335              		.size	OSSemDel, .-OSSemDel
 336              		.section	.text.OSSemPend,"ax",%progbits
 337              		.align	2
 338              		.global	OSSemPend
 339              		.thumb
 340              		.thumb_func
 341              		.type	OSSemPend, %function
 342              	OSSemPend:
 343              	.LFB2:
 262:..\..\..\..\..\..\uCOS-III\Source/os_sem.c **** #endif
 263:..\..\..\..\..\..\uCOS-III\Source/os_sem.c **** 
 264:..\..\..\..\..\..\uCOS-III\Source/os_sem.c **** /*$PAGE*/
 265:..\..\..\..\..\..\uCOS-III\Source/os_sem.c **** /*
 266:..\..\..\..\..\..\uCOS-III\Source/os_sem.c **** ***************************************************************************************************
 267:..\..\..\..\..\..\uCOS-III\Source/os_sem.c **** *                                                  PEND ON SEMAPHORE
 268:..\..\..\..\..\..\uCOS-III\Source/os_sem.c **** *
 269:..\..\..\..\..\..\uCOS-III\Source/os_sem.c **** * Description: This function waits for a semaphore.
 270:..\..\..\..\..\..\uCOS-III\Source/os_sem.c **** *
 271:..\..\..\..\..\..\uCOS-III\Source/os_sem.c **** * Arguments  : p_sem         is a pointer to the semaphore
 272:..\..\..\..\..\..\uCOS-III\Source/os_sem.c **** *
 273:..\..\..\..\..\..\uCOS-III\Source/os_sem.c **** *              timeout       is an optional timeout period (in clock ticks).  If non-zero, your tas
 274:..\..\..\..\..\..\uCOS-III\Source/os_sem.c **** *                            resource up to the amount of time (in 'ticks') specified by this argum
 275:..\..\..\..\..\..\uCOS-III\Source/os_sem.c **** *                            0, however, your task will wait forever at the specified semaphore or,
 276:..\..\..\..\..\..\uCOS-III\Source/os_sem.c **** *                            becomes available (or the event occurs).
 277:..\..\..\..\..\..\uCOS-III\Source/os_sem.c **** *
 278:..\..\..\..\..\..\uCOS-III\Source/os_sem.c **** *              opt           determines whether the user wants to block if the semaphore is not ava
 279:..\..\..\..\..\..\uCOS-III\Source/os_sem.c **** *
 280:..\..\..\..\..\..\uCOS-III\Source/os_sem.c **** *                                OS_OPT_PEND_BLOCKING
ARM GAS  C:\Users\alex\AppData\Local\Temp\ccfIfgZ4.s 			page 12


 281:..\..\..\..\..\..\uCOS-III\Source/os_sem.c **** *                                OS_OPT_PEND_NON_BLOCKING
 282:..\..\..\..\..\..\uCOS-III\Source/os_sem.c **** *
 283:..\..\..\..\..\..\uCOS-III\Source/os_sem.c **** *              p_ts          is a pointer to a variable that will receive the timestamp of when the
 284:..\..\..\..\..\..\uCOS-III\Source/os_sem.c **** *                            or pend aborted or the semaphore deleted.  If you pass a NULL pointer 
 285:..\..\..\..\..\..\uCOS-III\Source/os_sem.c **** *                            then you will not get the timestamp.  In other words, passing a NULL p
 286:..\..\..\..\..\..\uCOS-III\Source/os_sem.c **** *                            and indicates that you don't need the timestamp.
 287:..\..\..\..\..\..\uCOS-III\Source/os_sem.c **** *
 288:..\..\..\..\..\..\uCOS-III\Source/os_sem.c **** *              p_err         is a pointer to a variable that will contain an error code returned by
 289:..\..\..\..\..\..\uCOS-III\Source/os_sem.c **** *
 290:..\..\..\..\..\..\uCOS-III\Source/os_sem.c **** *                                OS_ERR_NONE               The call was successful and your task ow
 291:..\..\..\..\..\..\uCOS-III\Source/os_sem.c **** *                                                          or, the event you are waiting for occurr
 292:..\..\..\..\..\..\uCOS-III\Source/os_sem.c **** *                                OS_ERR_OBJ_DEL            If 'p_sem' was deleted
 293:..\..\..\..\..\..\uCOS-III\Source/os_sem.c **** *                                OS_ERR_OBJ_PTR_NULL       If 'p_sem' is a NULL pointer.
 294:..\..\..\..\..\..\uCOS-III\Source/os_sem.c **** *                                OS_ERR_OBJ_TYPE           If 'p_sem' is not pointing at a semaphor
 295:..\..\..\..\..\..\uCOS-III\Source/os_sem.c **** *                                OS_ERR_OPT_INVALID        If you specified an invalid value for 'o
 296:..\..\..\..\..\..\uCOS-III\Source/os_sem.c **** *                                OS_ERR_PEND_ABORT         If the pend was aborted by another task
 297:..\..\..\..\..\..\uCOS-III\Source/os_sem.c **** *                                OS_ERR_PEND_ISR           If you called this function from an ISR 
 298:..\..\..\..\..\..\uCOS-III\Source/os_sem.c **** *                                                          would lead to a suspension.
 299:..\..\..\..\..\..\uCOS-III\Source/os_sem.c **** *                                OS_ERR_PEND_WOULD_BLOCK   If you specified non-blocking but the se
 300:..\..\..\..\..\..\uCOS-III\Source/os_sem.c **** *                                                          available.
 301:..\..\..\..\..\..\uCOS-III\Source/os_sem.c **** *                                OS_ERR_SCHED_LOCKED       If you called this function when the sch
 302:..\..\..\..\..\..\uCOS-III\Source/os_sem.c **** *                                OS_ERR_STATUS_INVALID     Pend status is invalid
 303:..\..\..\..\..\..\uCOS-III\Source/os_sem.c **** *                                OS_ERR_TIMEOUT            The semaphore was not received within th
 304:..\..\..\..\..\..\uCOS-III\Source/os_sem.c **** *                                                          timeout.
 305:..\..\..\..\..\..\uCOS-III\Source/os_sem.c **** *
 306:..\..\..\..\..\..\uCOS-III\Source/os_sem.c **** *
 307:..\..\..\..\..\..\uCOS-III\Source/os_sem.c **** * Returns    : The current value of the semaphore counter or 0 if not available.
 308:..\..\..\..\..\..\uCOS-III\Source/os_sem.c **** ***************************************************************************************************
 309:..\..\..\..\..\..\uCOS-III\Source/os_sem.c **** */
 310:..\..\..\..\..\..\uCOS-III\Source/os_sem.c **** 
 311:..\..\..\..\..\..\uCOS-III\Source/os_sem.c **** OS_SEM_CTR  OSSemPend (OS_SEM   *p_sem,
 312:..\..\..\..\..\..\uCOS-III\Source/os_sem.c ****                        OS_TICK   timeout,
 313:..\..\..\..\..\..\uCOS-III\Source/os_sem.c ****                        OS_OPT    opt,
 314:..\..\..\..\..\..\uCOS-III\Source/os_sem.c ****                        CPU_TS   *p_ts,
 315:..\..\..\..\..\..\uCOS-III\Source/os_sem.c ****                        OS_ERR   *p_err)
 316:..\..\..\..\..\..\uCOS-III\Source/os_sem.c **** {
 344              		.loc 1 316 0
 345              		.cfi_startproc
 346              		@ args = 4, pretend = 0, frame = 56
 347              		@ frame_needed = 1, uses_anonymous_args = 0
 348 0000 80B5     		push	{r7, lr}
 349              		.cfi_def_cfa_offset 8
 350              		.cfi_offset 7, -8
 351              		.cfi_offset 14, -4
 352 0002 8EB0     		sub	sp, sp, #56
 353              		.cfi_def_cfa_offset 64
 354 0004 00AF     		add	r7, sp, #0
 355              		.cfi_def_cfa_register 7
 356 0006 F860     		str	r0, [r7, #12]
 357 0008 B960     		str	r1, [r7, #8]
 358 000a 3B60     		str	r3, [r7]
 359 000c 1346     		mov	r3, r2	@ movhi
 360 000e FB80     		strh	r3, [r7, #6]	@ movhi
 317:..\..\..\..\..\..\uCOS-III\Source/os_sem.c ****     OS_SEM_CTR    ctr;
 318:..\..\..\..\..\..\uCOS-III\Source/os_sem.c ****     OS_PEND_DATA  pend_data;
 319:..\..\..\..\..\..\uCOS-III\Source/os_sem.c ****     CPU_SR_ALLOC();
 361              		.loc 1 319 0
ARM GAS  C:\Users\alex\AppData\Local\Temp\ccfIfgZ4.s 			page 13


 362 0010 0023     		movs	r3, #0
 363 0012 7B63     		str	r3, [r7, #52]
 320:..\..\..\..\..\..\uCOS-III\Source/os_sem.c **** 
 321:..\..\..\..\..\..\uCOS-III\Source/os_sem.c **** 
 322:..\..\..\..\..\..\uCOS-III\Source/os_sem.c **** 
 323:..\..\..\..\..\..\uCOS-III\Source/os_sem.c **** #ifdef OS_SAFETY_CRITICAL
 324:..\..\..\..\..\..\uCOS-III\Source/os_sem.c ****     if (p_err == (OS_ERR *)0) {
 325:..\..\..\..\..\..\uCOS-III\Source/os_sem.c ****         OS_SAFETY_CRITICAL_EXCEPTION();
 326:..\..\..\..\..\..\uCOS-III\Source/os_sem.c ****         return ((OS_SEM_CTR)0);
 327:..\..\..\..\..\..\uCOS-III\Source/os_sem.c ****     }
 328:..\..\..\..\..\..\uCOS-III\Source/os_sem.c **** #endif
 329:..\..\..\..\..\..\uCOS-III\Source/os_sem.c **** 
 330:..\..\..\..\..\..\uCOS-III\Source/os_sem.c **** #if OS_CFG_CALLED_FROM_ISR_CHK_EN > 0u
 331:..\..\..\..\..\..\uCOS-III\Source/os_sem.c ****     if (OSIntNestingCtr > (OS_NESTING_CTR)0) {              /* Not allowed to call from an ISR     
 364              		.loc 1 331 0
 365 0014 634B     		ldr	r3, .L52
 366 0016 1B78     		ldrb	r3, [r3]	@ zero_extendqisi2
 367 0018 002B     		cmp	r3, #0
 368 001a 05D0     		beq	.L28
 332:..\..\..\..\..\..\uCOS-III\Source/os_sem.c ****        *p_err = OS_ERR_PEND_ISR;
 369              		.loc 1 332 0
 370 001c 3B6C     		ldr	r3, [r7, #64]
 371 001e 46F2AE12 		movw	r2, #25006
 372 0022 1A80     		strh	r2, [r3]	@ movhi
 333:..\..\..\..\..\..\uCOS-III\Source/os_sem.c ****         return ((OS_SEM_CTR)0);
 373              		.loc 1 333 0
 374 0024 0023     		movs	r3, #0
 375 0026 B8E0     		b	.L50
 376              	.L28:
 334:..\..\..\..\..\..\uCOS-III\Source/os_sem.c ****     }
 335:..\..\..\..\..\..\uCOS-III\Source/os_sem.c **** #endif
 336:..\..\..\..\..\..\uCOS-III\Source/os_sem.c **** 
 337:..\..\..\..\..\..\uCOS-III\Source/os_sem.c **** #if OS_CFG_ARG_CHK_EN > 0u
 338:..\..\..\..\..\..\uCOS-III\Source/os_sem.c ****     if (p_sem == (OS_SEM *)0) {                             /* Validate 'p_sem'                    
 377              		.loc 1 338 0
 378 0028 FB68     		ldr	r3, [r7, #12]
 379 002a 002B     		cmp	r3, #0
 380 002c 05D1     		bne	.L30
 339:..\..\..\..\..\..\uCOS-III\Source/os_sem.c ****        *p_err = OS_ERR_OBJ_PTR_NULL;
 381              		.loc 1 339 0
 382 002e 3B6C     		ldr	r3, [r7, #64]
 383 0030 45F6C352 		movw	r2, #24003
 384 0034 1A80     		strh	r2, [r3]	@ movhi
 340:..\..\..\..\..\..\uCOS-III\Source/os_sem.c ****         return ((OS_SEM_CTR)0);
 385              		.loc 1 340 0
 386 0036 0023     		movs	r3, #0
 387 0038 AFE0     		b	.L50
 388              	.L30:
 341:..\..\..\..\..\..\uCOS-III\Source/os_sem.c ****     }
 342:..\..\..\..\..\..\uCOS-III\Source/os_sem.c ****     switch (opt) {                                          /* Validate 'opt'                      
 389              		.loc 1 342 0
 390 003a FB88     		ldrh	r3, [r7, #6]
 391 003c 002B     		cmp	r3, #0
 392 003e 08D0     		beq	.L51
 393 0040 B3F5004F 		cmp	r3, #32768
 394 0044 05D0     		beq	.L51
 343:..\..\..\..\..\..\uCOS-III\Source/os_sem.c ****         case OS_OPT_PEND_BLOCKING:
ARM GAS  C:\Users\alex\AppData\Local\Temp\ccfIfgZ4.s 			page 14


 344:..\..\..\..\..\..\uCOS-III\Source/os_sem.c ****         case OS_OPT_PEND_NON_BLOCKING:
 345:..\..\..\..\..\..\uCOS-III\Source/os_sem.c ****              break;
 346:..\..\..\..\..\..\uCOS-III\Source/os_sem.c **** 
 347:..\..\..\..\..\..\uCOS-III\Source/os_sem.c ****         default:
 348:..\..\..\..\..\..\uCOS-III\Source/os_sem.c ****             *p_err = OS_ERR_OPT_INVALID;
 395              		.loc 1 348 0
 396 0046 3B6C     		ldr	r3, [r7, #64]
 397 0048 45F62562 		movw	r2, #24101
 398 004c 1A80     		strh	r2, [r3]	@ movhi
 349:..\..\..\..\..\..\uCOS-III\Source/os_sem.c ****              return ((OS_SEM_CTR)0);
 399              		.loc 1 349 0
 400 004e 0023     		movs	r3, #0
 401 0050 A3E0     		b	.L50
 402              	.L51:
 345:..\..\..\..\..\..\uCOS-III\Source/os_sem.c **** 
 403              		.loc 1 345 0
 404 0052 00BF     		nop
 350:..\..\..\..\..\..\uCOS-III\Source/os_sem.c ****     }
 351:..\..\..\..\..\..\uCOS-III\Source/os_sem.c **** #endif
 352:..\..\..\..\..\..\uCOS-III\Source/os_sem.c **** 
 353:..\..\..\..\..\..\uCOS-III\Source/os_sem.c **** #if OS_CFG_OBJ_TYPE_CHK_EN > 0u
 354:..\..\..\..\..\..\uCOS-III\Source/os_sem.c ****     if (p_sem->Type != OS_OBJ_TYPE_SEM) {                   /* Make sure semaphore was created     
 355:..\..\..\..\..\..\uCOS-III\Source/os_sem.c ****        *p_err = OS_ERR_OBJ_TYPE;
 356:..\..\..\..\..\..\uCOS-III\Source/os_sem.c ****         return ((OS_SEM_CTR)0);
 357:..\..\..\..\..\..\uCOS-III\Source/os_sem.c ****     }
 358:..\..\..\..\..\..\uCOS-III\Source/os_sem.c **** #endif
 359:..\..\..\..\..\..\uCOS-III\Source/os_sem.c **** 
 360:..\..\..\..\..\..\uCOS-III\Source/os_sem.c ****     if (p_ts != (CPU_TS *)0) {
 405              		.loc 1 360 0
 406 0054 3B68     		ldr	r3, [r7]
 407 0056 002B     		cmp	r3, #0
 408 0058 02D0     		beq	.L34
 361:..\..\..\..\..\..\uCOS-III\Source/os_sem.c ****        *p_ts  = (CPU_TS)0;                                  /* Initialize the returned timestamp   
 409              		.loc 1 361 0
 410 005a 3B68     		ldr	r3, [r7]
 411 005c 0022     		movs	r2, #0
 412 005e 1A60     		str	r2, [r3]
 413              	.L34:
 362:..\..\..\..\..\..\uCOS-III\Source/os_sem.c ****     }
 363:..\..\..\..\..\..\uCOS-III\Source/os_sem.c ****     CPU_CRITICAL_ENTER();
 414              		.loc 1 363 0
 415 0060 FFF7FEFF 		bl	CPU_SR_Save
 416 0064 7863     		str	r0, [r7, #52]
 364:..\..\..\..\..\..\uCOS-III\Source/os_sem.c ****     if (p_sem->Ctr > (OS_SEM_CTR)0) {                       /* Resource available?                 
 417              		.loc 1 364 0
 418 0066 FB68     		ldr	r3, [r7, #12]
 419 0068 1B6A     		ldr	r3, [r3, #32]
 420 006a 002B     		cmp	r3, #0
 421 006c 16D0     		beq	.L35
 365:..\..\..\..\..\..\uCOS-III\Source/os_sem.c ****         p_sem->Ctr--;                                       /* Yes, caller may proceed             
 422              		.loc 1 365 0
 423 006e FB68     		ldr	r3, [r7, #12]
 424 0070 1B6A     		ldr	r3, [r3, #32]
 425 0072 5A1E     		subs	r2, r3, #1
 426 0074 FB68     		ldr	r3, [r7, #12]
 427 0076 1A62     		str	r2, [r3, #32]
 366:..\..\..\..\..\..\uCOS-III\Source/os_sem.c ****         if (p_ts != (CPU_TS *)0) {
ARM GAS  C:\Users\alex\AppData\Local\Temp\ccfIfgZ4.s 			page 15


 428              		.loc 1 366 0
 429 0078 3B68     		ldr	r3, [r7]
 430 007a 002B     		cmp	r3, #0
 431 007c 03D0     		beq	.L36
 367:..\..\..\..\..\..\uCOS-III\Source/os_sem.c ****            *p_ts  = p_sem->TS;                              /*      get timestamp of last post     
 432              		.loc 1 367 0
 433 007e FB68     		ldr	r3, [r7, #12]
 434 0080 5A6A     		ldr	r2, [r3, #36]
 435 0082 3B68     		ldr	r3, [r7]
 436 0084 1A60     		str	r2, [r3]
 437              	.L36:
 368:..\..\..\..\..\..\uCOS-III\Source/os_sem.c ****         }
 369:..\..\..\..\..\..\uCOS-III\Source/os_sem.c ****         ctr   = p_sem->Ctr;
 438              		.loc 1 369 0
 439 0086 FB68     		ldr	r3, [r7, #12]
 440 0088 1B6A     		ldr	r3, [r3, #32]
 441 008a 3B63     		str	r3, [r7, #48]
 370:..\..\..\..\..\..\uCOS-III\Source/os_sem.c ****         CPU_CRITICAL_EXIT();
 442              		.loc 1 370 0
 443 008c 786B     		ldr	r0, [r7, #52]
 444 008e FFF7FEFF 		bl	CPU_SR_Restore
 371:..\..\..\..\..\..\uCOS-III\Source/os_sem.c ****        *p_err = OS_ERR_NONE;
 445              		.loc 1 371 0
 446 0092 3B6C     		ldr	r3, [r7, #64]
 447 0094 0022     		movs	r2, #0
 448 0096 1A80     		strh	r2, [r3]	@ movhi
 372:..\..\..\..\..\..\uCOS-III\Source/os_sem.c ****         return (ctr);
 449              		.loc 1 372 0
 450 0098 3B6B     		ldr	r3, [r7, #48]
 451 009a 7EE0     		b	.L50
 452              	.L35:
 373:..\..\..\..\..\..\uCOS-III\Source/os_sem.c ****     }
 374:..\..\..\..\..\..\uCOS-III\Source/os_sem.c **** 
 375:..\..\..\..\..\..\uCOS-III\Source/os_sem.c ****     if ((opt & OS_OPT_PEND_NON_BLOCKING) != (OS_OPT)0) {    /* Caller wants to block if not availab
 453              		.loc 1 375 0
 454 009c B7F90630 		ldrsh	r3, [r7, #6]
 455 00a0 002B     		cmp	r3, #0
 456 00a2 0BDA     		bge	.L37
 376:..\..\..\..\..\..\uCOS-III\Source/os_sem.c ****         ctr   = p_sem->Ctr;                                 /* No                                  
 457              		.loc 1 376 0
 458 00a4 FB68     		ldr	r3, [r7, #12]
 459 00a6 1B6A     		ldr	r3, [r3, #32]
 460 00a8 3B63     		str	r3, [r7, #48]
 377:..\..\..\..\..\..\uCOS-III\Source/os_sem.c ****         CPU_CRITICAL_EXIT();
 461              		.loc 1 377 0
 462 00aa 786B     		ldr	r0, [r7, #52]
 463 00ac FFF7FEFF 		bl	CPU_SR_Restore
 378:..\..\..\..\..\..\uCOS-III\Source/os_sem.c ****        *p_err = OS_ERR_PEND_WOULD_BLOCK;
 464              		.loc 1 378 0
 465 00b0 3B6C     		ldr	r3, [r7, #64]
 466 00b2 46F2B012 		movw	r2, #25008
 467 00b6 1A80     		strh	r2, [r3]	@ movhi
 379:..\..\..\..\..\..\uCOS-III\Source/os_sem.c ****         return (ctr);
 468              		.loc 1 379 0
 469 00b8 3B6B     		ldr	r3, [r7, #48]
 470 00ba 6EE0     		b	.L50
 471              	.L37:
ARM GAS  C:\Users\alex\AppData\Local\Temp\ccfIfgZ4.s 			page 16


 380:..\..\..\..\..\..\uCOS-III\Source/os_sem.c ****     } else {                                                /* Yes                                 
 381:..\..\..\..\..\..\uCOS-III\Source/os_sem.c ****         if (OSSchedLockNestingCtr > (OS_NESTING_CTR)0) {    /* Can't pend when the scheduler is loc
 472              		.loc 1 381 0
 473 00bc 3A4B     		ldr	r3, .L52+4
 474 00be 1B78     		ldrb	r3, [r3]	@ zero_extendqisi2
 475 00c0 002B     		cmp	r3, #0
 476 00c2 08D0     		beq	.L38
 382:..\..\..\..\..\..\uCOS-III\Source/os_sem.c ****             CPU_CRITICAL_EXIT();
 477              		.loc 1 382 0
 478 00c4 786B     		ldr	r0, [r7, #52]
 479 00c6 FFF7FEFF 		bl	CPU_SR_Restore
 383:..\..\..\..\..\..\uCOS-III\Source/os_sem.c ****            *p_err = OS_ERR_SCHED_LOCKED;
 480              		.loc 1 383 0
 481 00ca 3B6C     		ldr	r3, [r7, #64]
 482 00cc 46F66352 		movw	r2, #28003
 483 00d0 1A80     		strh	r2, [r3]	@ movhi
 384:..\..\..\..\..\..\uCOS-III\Source/os_sem.c ****             return ((OS_SEM_CTR)0);
 484              		.loc 1 384 0
 485 00d2 0023     		movs	r3, #0
 486 00d4 61E0     		b	.L50
 487              	.L38:
 385:..\..\..\..\..\..\uCOS-III\Source/os_sem.c ****         }
 386:..\..\..\..\..\..\uCOS-III\Source/os_sem.c ****     }
 387:..\..\..\..\..\..\uCOS-III\Source/os_sem.c ****                                                             /* Lock the scheduler/re-enable interru
 388:..\..\..\..\..\..\uCOS-III\Source/os_sem.c ****     OS_CRITICAL_ENTER_CPU_EXIT();
 389:..\..\..\..\..\..\uCOS-III\Source/os_sem.c ****     OS_Pend(&pend_data,                                     /* Block task pending on Semaphore     
 488              		.loc 1 389 0
 489 00d6 07F11000 		add	r0, r7, #16
 490 00da BB68     		ldr	r3, [r7, #8]
 491 00dc 0622     		movs	r2, #6
 492 00de F968     		ldr	r1, [r7, #12]
 493 00e0 FFF7FEFF 		bl	OS_Pend
 390:..\..\..\..\..\..\uCOS-III\Source/os_sem.c ****             (OS_PEND_OBJ *)((void *)p_sem),
 391:..\..\..\..\..\..\uCOS-III\Source/os_sem.c ****             OS_TASK_PEND_ON_SEM,
 392:..\..\..\..\..\..\uCOS-III\Source/os_sem.c ****             timeout);
 393:..\..\..\..\..\..\uCOS-III\Source/os_sem.c **** 
 394:..\..\..\..\..\..\uCOS-III\Source/os_sem.c ****     OS_CRITICAL_EXIT_NO_SCHED();
 494              		.loc 1 394 0
 495 00e4 786B     		ldr	r0, [r7, #52]
 496 00e6 FFF7FEFF 		bl	CPU_SR_Restore
 395:..\..\..\..\..\..\uCOS-III\Source/os_sem.c **** 
 396:..\..\..\..\..\..\uCOS-III\Source/os_sem.c ****     OSSched();                                              /* Find the next highest priority task 
 497              		.loc 1 396 0
 498 00ea FFF7FEFF 		bl	OSSched
 397:..\..\..\..\..\..\uCOS-III\Source/os_sem.c **** 
 398:..\..\..\..\..\..\uCOS-III\Source/os_sem.c ****     CPU_CRITICAL_ENTER();
 499              		.loc 1 398 0
 500 00ee FFF7FEFF 		bl	CPU_SR_Save
 501 00f2 7863     		str	r0, [r7, #52]
 399:..\..\..\..\..\..\uCOS-III\Source/os_sem.c ****     switch (OSTCBCurPtr->PendStatus) {
 502              		.loc 1 399 0
 503 00f4 2D4B     		ldr	r3, .L52+8
 504 00f6 1B68     		ldr	r3, [r3]
 505 00f8 93F83530 		ldrb	r3, [r3, #53]	@ zero_extendqisi2
 506 00fc 032B     		cmp	r3, #3
 507 00fe 3CD8     		bhi	.L39
 508 0100 01A2     		adr	r2, .L41
ARM GAS  C:\Users\alex\AppData\Local\Temp\ccfIfgZ4.s 			page 17


 509 0102 52F823F0 		ldr	pc, [r2, r3, lsl #2]
 510 0106 00BF     		.p2align 2
 511              	.L41:
 512 0108 19010000 		.word	.L40+1
 513 010c 31010000 		.word	.L42+1
 514 0110 61010000 		.word	.L43+1
 515 0114 4B010000 		.word	.L44+1
 516              		.p2align 1
 517              	.L40:
 400:..\..\..\..\..\..\uCOS-III\Source/os_sem.c ****         case OS_STATUS_PEND_OK:                             /* We got the semaphore                
 401:..\..\..\..\..\..\uCOS-III\Source/os_sem.c ****              if (p_ts != (CPU_TS *)0) {
 518              		.loc 1 401 0
 519 0118 3B68     		ldr	r3, [r7]
 520 011a 002B     		cmp	r3, #0
 521 011c 04D0     		beq	.L45
 402:..\..\..\..\..\..\uCOS-III\Source/os_sem.c ****                 *p_ts  =  OSTCBCurPtr->TS;
 522              		.loc 1 402 0
 523 011e 234B     		ldr	r3, .L52+8
 524 0120 1B68     		ldr	r3, [r3]
 525 0122 1A6C     		ldr	r2, [r3, #64]
 526 0124 3B68     		ldr	r3, [r7]
 527 0126 1A60     		str	r2, [r3]
 528              	.L45:
 403:..\..\..\..\..\..\uCOS-III\Source/os_sem.c ****              }
 404:..\..\..\..\..\..\uCOS-III\Source/os_sem.c ****             *p_err = OS_ERR_NONE;
 529              		.loc 1 404 0
 530 0128 3B6C     		ldr	r3, [r7, #64]
 531 012a 0022     		movs	r2, #0
 532 012c 1A80     		strh	r2, [r3]	@ movhi
 405:..\..\..\..\..\..\uCOS-III\Source/os_sem.c ****              break;
 533              		.loc 1 405 0
 534 012e 2DE0     		b	.L46
 535              	.L42:
 406:..\..\..\..\..\..\uCOS-III\Source/os_sem.c **** 
 407:..\..\..\..\..\..\uCOS-III\Source/os_sem.c ****         case OS_STATUS_PEND_ABORT:                          /* Indicate that we aborted            
 408:..\..\..\..\..\..\uCOS-III\Source/os_sem.c ****              if (p_ts != (CPU_TS *)0) {
 536              		.loc 1 408 0
 537 0130 3B68     		ldr	r3, [r7]
 538 0132 002B     		cmp	r3, #0
 539 0134 04D0     		beq	.L47
 409:..\..\..\..\..\..\uCOS-III\Source/os_sem.c ****                 *p_ts  =  OSTCBCurPtr->TS;
 540              		.loc 1 409 0
 541 0136 1D4B     		ldr	r3, .L52+8
 542 0138 1B68     		ldr	r3, [r3]
 543 013a 1A6C     		ldr	r2, [r3, #64]
 544 013c 3B68     		ldr	r3, [r7]
 545 013e 1A60     		str	r2, [r3]
 546              	.L47:
 410:..\..\..\..\..\..\uCOS-III\Source/os_sem.c ****              }
 411:..\..\..\..\..\..\uCOS-III\Source/os_sem.c ****             *p_err = OS_ERR_PEND_ABORT;
 547              		.loc 1 411 0
 548 0140 3B6C     		ldr	r3, [r7, #64]
 549 0142 46F2A912 		movw	r2, #25001
 550 0146 1A80     		strh	r2, [r3]	@ movhi
 412:..\..\..\..\..\..\uCOS-III\Source/os_sem.c ****              break;
 551              		.loc 1 412 0
 552 0148 20E0     		b	.L46
ARM GAS  C:\Users\alex\AppData\Local\Temp\ccfIfgZ4.s 			page 18


 553              	.L44:
 413:..\..\..\..\..\..\uCOS-III\Source/os_sem.c **** 
 414:..\..\..\..\..\..\uCOS-III\Source/os_sem.c ****         case OS_STATUS_PEND_TIMEOUT:                        /* Indicate that we didn't get semaphor
 415:..\..\..\..\..\..\uCOS-III\Source/os_sem.c ****              if (p_ts != (CPU_TS *)0) {
 554              		.loc 1 415 0
 555 014a 3B68     		ldr	r3, [r7]
 556 014c 002B     		cmp	r3, #0
 557 014e 02D0     		beq	.L48
 416:..\..\..\..\..\..\uCOS-III\Source/os_sem.c ****                 *p_ts  = (CPU_TS  )0;
 558              		.loc 1 416 0
 559 0150 3B68     		ldr	r3, [r7]
 560 0152 0022     		movs	r2, #0
 561 0154 1A60     		str	r2, [r3]
 562              	.L48:
 417:..\..\..\..\..\..\uCOS-III\Source/os_sem.c ****              }
 418:..\..\..\..\..\..\uCOS-III\Source/os_sem.c ****             *p_err = OS_ERR_TIMEOUT;
 563              		.loc 1 418 0
 564 0156 3B6C     		ldr	r3, [r7, #64]
 565 0158 47F2D922 		movw	r2, #29401
 566 015c 1A80     		strh	r2, [r3]	@ movhi
 419:..\..\..\..\..\..\uCOS-III\Source/os_sem.c ****              break;
 567              		.loc 1 419 0
 568 015e 15E0     		b	.L46
 569              	.L43:
 420:..\..\..\..\..\..\uCOS-III\Source/os_sem.c **** 
 421:..\..\..\..\..\..\uCOS-III\Source/os_sem.c ****         case OS_STATUS_PEND_DEL:                            /* Indicate that object pended on has b
 422:..\..\..\..\..\..\uCOS-III\Source/os_sem.c ****              if (p_ts != (CPU_TS *)0) {
 570              		.loc 1 422 0
 571 0160 3B68     		ldr	r3, [r7]
 572 0162 002B     		cmp	r3, #0
 573 0164 04D0     		beq	.L49
 423:..\..\..\..\..\..\uCOS-III\Source/os_sem.c ****                 *p_ts  =  OSTCBCurPtr->TS;
 574              		.loc 1 423 0
 575 0166 114B     		ldr	r3, .L52+8
 576 0168 1B68     		ldr	r3, [r3]
 577 016a 1A6C     		ldr	r2, [r3, #64]
 578 016c 3B68     		ldr	r3, [r7]
 579 016e 1A60     		str	r2, [r3]
 580              	.L49:
 424:..\..\..\..\..\..\uCOS-III\Source/os_sem.c ****              }
 425:..\..\..\..\..\..\uCOS-III\Source/os_sem.c ****             *p_err = OS_ERR_OBJ_DEL;
 581              		.loc 1 425 0
 582 0170 3B6C     		ldr	r3, [r7, #64]
 583 0172 45F6C252 		movw	r2, #24002
 584 0176 1A80     		strh	r2, [r3]	@ movhi
 426:..\..\..\..\..\..\uCOS-III\Source/os_sem.c ****              break;
 585              		.loc 1 426 0
 586 0178 08E0     		b	.L46
 587              	.L39:
 427:..\..\..\..\..\..\uCOS-III\Source/os_sem.c **** 
 428:..\..\..\..\..\..\uCOS-III\Source/os_sem.c ****         default:
 429:..\..\..\..\..\..\uCOS-III\Source/os_sem.c ****             *p_err = OS_ERR_STATUS_INVALID;
 588              		.loc 1 429 0
 589 017a 3B6C     		ldr	r3, [r7, #64]
 590 017c 46F62E62 		movw	r2, #28206
 591 0180 1A80     		strh	r2, [r3]	@ movhi
 430:..\..\..\..\..\..\uCOS-III\Source/os_sem.c ****              CPU_CRITICAL_EXIT();
ARM GAS  C:\Users\alex\AppData\Local\Temp\ccfIfgZ4.s 			page 19


 592              		.loc 1 430 0
 593 0182 786B     		ldr	r0, [r7, #52]
 594 0184 FFF7FEFF 		bl	CPU_SR_Restore
 431:..\..\..\..\..\..\uCOS-III\Source/os_sem.c ****              return ((OS_SEM_CTR)0);
 595              		.loc 1 431 0
 596 0188 0023     		movs	r3, #0
 597 018a 06E0     		b	.L50
 598              	.L46:
 432:..\..\..\..\..\..\uCOS-III\Source/os_sem.c ****     }
 433:..\..\..\..\..\..\uCOS-III\Source/os_sem.c ****     ctr = p_sem->Ctr;
 599              		.loc 1 433 0
 600 018c FB68     		ldr	r3, [r7, #12]
 601 018e 1B6A     		ldr	r3, [r3, #32]
 602 0190 3B63     		str	r3, [r7, #48]
 434:..\..\..\..\..\..\uCOS-III\Source/os_sem.c ****     CPU_CRITICAL_EXIT();
 603              		.loc 1 434 0
 604 0192 786B     		ldr	r0, [r7, #52]
 605 0194 FFF7FEFF 		bl	CPU_SR_Restore
 435:..\..\..\..\..\..\uCOS-III\Source/os_sem.c ****     return (ctr);
 606              		.loc 1 435 0
 607 0198 3B6B     		ldr	r3, [r7, #48]
 608              	.L50:
 436:..\..\..\..\..\..\uCOS-III\Source/os_sem.c **** }
 609              		.loc 1 436 0 discriminator 1
 610 019a 1846     		mov	r0, r3
 611 019c 3837     		adds	r7, r7, #56
 612              		.cfi_def_cfa_offset 8
 613 019e BD46     		mov	sp, r7
 614              		.cfi_def_cfa_register 13
 615              		@ sp needed
 616 01a0 80BD     		pop	{r7, pc}
 617              	.L53:
 618 01a2 00BF     		.align	2
 619              	.L52:
 620 01a4 00000000 		.word	OSIntNestingCtr
 621 01a8 00000000 		.word	OSSchedLockNestingCtr
 622 01ac 00000000 		.word	OSTCBCurPtr
 623              		.cfi_endproc
 624              	.LFE2:
 625              		.size	OSSemPend, .-OSSemPend
 626              		.section	.text.OSSemPendAbort,"ax",%progbits
 627              		.align	2
 628              		.global	OSSemPendAbort
 629              		.thumb
 630              		.thumb_func
 631              		.type	OSSemPendAbort, %function
 632              	OSSemPendAbort:
 633              	.LFB3:
 437:..\..\..\..\..\..\uCOS-III\Source/os_sem.c **** 
 438:..\..\..\..\..\..\uCOS-III\Source/os_sem.c **** /*$PAGE*/
 439:..\..\..\..\..\..\uCOS-III\Source/os_sem.c **** /*
 440:..\..\..\..\..\..\uCOS-III\Source/os_sem.c **** ***************************************************************************************************
 441:..\..\..\..\..\..\uCOS-III\Source/os_sem.c **** *                                             ABORT WAITING ON A SEMAPHORE
 442:..\..\..\..\..\..\uCOS-III\Source/os_sem.c **** *
 443:..\..\..\..\..\..\uCOS-III\Source/os_sem.c **** * Description: This function aborts & readies any tasks currently waiting on a semaphore.  This fun
 444:..\..\..\..\..\..\uCOS-III\Source/os_sem.c **** *              to fault-abort the wait on the semaphore, rather than to normally signal the semapho
 445:..\..\..\..\..\..\uCOS-III\Source/os_sem.c **** *
ARM GAS  C:\Users\alex\AppData\Local\Temp\ccfIfgZ4.s 			page 20


 446:..\..\..\..\..\..\uCOS-III\Source/os_sem.c **** * Arguments  : p_sem     is a pointer to the semaphore
 447:..\..\..\..\..\..\uCOS-III\Source/os_sem.c **** *
 448:..\..\..\..\..\..\uCOS-III\Source/os_sem.c **** *              opt       determines the type of ABORT performed:
 449:..\..\..\..\..\..\uCOS-III\Source/os_sem.c **** *
 450:..\..\..\..\..\..\uCOS-III\Source/os_sem.c **** *                            OS_OPT_PEND_ABORT_1          ABORT wait for a single task (HPT) waitin
 451:..\..\..\..\..\..\uCOS-III\Source/os_sem.c **** *                            OS_OPT_PEND_ABORT_ALL        ABORT wait for ALL tasks that are  waitin
 452:..\..\..\..\..\..\uCOS-III\Source/os_sem.c **** *                            OS_OPT_POST_NO_SCHED         Do not call the scheduler
 453:..\..\..\..\..\..\uCOS-III\Source/os_sem.c **** *
 454:..\..\..\..\..\..\uCOS-III\Source/os_sem.c **** *              p_err     is a pointer to a variable that will contain an error code returned by thi
 455:..\..\..\..\..\..\uCOS-III\Source/os_sem.c **** *
 456:..\..\..\..\..\..\uCOS-III\Source/os_sem.c **** *                            OS_ERR_NONE                  At least one task waiting on the semaphor
 457:..\..\..\..\..\..\uCOS-III\Source/os_sem.c **** *                                                         informed of the aborted wait; check retur
 458:..\..\..\..\..\..\uCOS-III\Source/os_sem.c **** *                                                         number of tasks whose wait on the semapho
 459:..\..\..\..\..\..\uCOS-III\Source/os_sem.c **** *                            OS_ERR_OBJ_PTR_NULL          If 'p_sem' is a NULL pointer.
 460:..\..\..\..\..\..\uCOS-III\Source/os_sem.c **** *                            OS_ERR_OBJ_TYPE              If 'p_sem' is not pointing at a semaphore
 461:..\..\..\..\..\..\uCOS-III\Source/os_sem.c **** *                            OS_ERR_OPT_INVALID           If you specified an invalid option
 462:..\..\..\..\..\..\uCOS-III\Source/os_sem.c **** *                            OS_ERR_PEND_ABORT_ISR        If you called this function from an ISR
 463:..\..\..\..\..\..\uCOS-III\Source/os_sem.c **** *                            OS_ERR_PEND_ABORT_NONE       No task were pending
 464:..\..\..\..\..\..\uCOS-III\Source/os_sem.c **** *
 465:..\..\..\..\..\..\uCOS-III\Source/os_sem.c **** * Returns    : == 0          if no tasks were waiting on the semaphore, or upon error.
 466:..\..\..\..\..\..\uCOS-III\Source/os_sem.c **** *              >  0          if one or more tasks waiting on the semaphore are now readied and info
 467:..\..\..\..\..\..\uCOS-III\Source/os_sem.c **** ***************************************************************************************************
 468:..\..\..\..\..\..\uCOS-III\Source/os_sem.c **** */
 469:..\..\..\..\..\..\uCOS-III\Source/os_sem.c **** 
 470:..\..\..\..\..\..\uCOS-III\Source/os_sem.c **** #if OS_CFG_SEM_PEND_ABORT_EN > 0u
 471:..\..\..\..\..\..\uCOS-III\Source/os_sem.c **** OS_OBJ_QTY  OSSemPendAbort (OS_SEM  *p_sem,
 472:..\..\..\..\..\..\uCOS-III\Source/os_sem.c ****                             OS_OPT   opt,
 473:..\..\..\..\..\..\uCOS-III\Source/os_sem.c ****                             OS_ERR  *p_err)
 474:..\..\..\..\..\..\uCOS-III\Source/os_sem.c **** {
 634              		.loc 1 474 0
 635              		.cfi_startproc
 636              		@ args = 0, pretend = 0, frame = 40
 637              		@ frame_needed = 1, uses_anonymous_args = 0
 638 0000 80B5     		push	{r7, lr}
 639              		.cfi_def_cfa_offset 8
 640              		.cfi_offset 7, -8
 641              		.cfi_offset 14, -4
 642 0002 8AB0     		sub	sp, sp, #40
 643              		.cfi_def_cfa_offset 48
 644 0004 00AF     		add	r7, sp, #0
 645              		.cfi_def_cfa_register 7
 646 0006 F860     		str	r0, [r7, #12]
 647 0008 0B46     		mov	r3, r1
 648 000a 7A60     		str	r2, [r7, #4]
 649 000c 7B81     		strh	r3, [r7, #10]	@ movhi
 475:..\..\..\..\..\..\uCOS-III\Source/os_sem.c ****     OS_PEND_LIST  *p_pend_list;
 476:..\..\..\..\..\..\uCOS-III\Source/os_sem.c ****     OS_TCB        *p_tcb;
 477:..\..\..\..\..\..\uCOS-III\Source/os_sem.c ****     CPU_TS         ts;
 478:..\..\..\..\..\..\uCOS-III\Source/os_sem.c ****     OS_OBJ_QTY     nbr_tasks;
 479:..\..\..\..\..\..\uCOS-III\Source/os_sem.c ****     CPU_SR_ALLOC();
 650              		.loc 1 479 0
 651 000e 0023     		movs	r3, #0
 652 0010 3B62     		str	r3, [r7, #32]
 480:..\..\..\..\..\..\uCOS-III\Source/os_sem.c **** 
 481:..\..\..\..\..\..\uCOS-III\Source/os_sem.c **** 
 482:..\..\..\..\..\..\uCOS-III\Source/os_sem.c **** 
 483:..\..\..\..\..\..\uCOS-III\Source/os_sem.c **** #ifdef OS_SAFETY_CRITICAL
ARM GAS  C:\Users\alex\AppData\Local\Temp\ccfIfgZ4.s 			page 21


 484:..\..\..\..\..\..\uCOS-III\Source/os_sem.c ****     if (p_err == (OS_ERR *)0) {
 485:..\..\..\..\..\..\uCOS-III\Source/os_sem.c ****         OS_SAFETY_CRITICAL_EXCEPTION();
 486:..\..\..\..\..\..\uCOS-III\Source/os_sem.c ****         return ((OS_OBJ_QTY)0u);
 487:..\..\..\..\..\..\uCOS-III\Source/os_sem.c ****     }
 488:..\..\..\..\..\..\uCOS-III\Source/os_sem.c **** #endif
 489:..\..\..\..\..\..\uCOS-III\Source/os_sem.c **** 
 490:..\..\..\..\..\..\uCOS-III\Source/os_sem.c **** #if OS_CFG_CALLED_FROM_ISR_CHK_EN > 0u
 491:..\..\..\..\..\..\uCOS-III\Source/os_sem.c ****     if (OSIntNestingCtr > (OS_NESTING_CTR)0u) {             /* Not allowed to Pend Abort from an IS
 653              		.loc 1 491 0
 654 0012 354B     		ldr	r3, .L69
 655 0014 1B78     		ldrb	r3, [r3]	@ zero_extendqisi2
 656 0016 002B     		cmp	r3, #0
 657 0018 05D0     		beq	.L55
 492:..\..\..\..\..\..\uCOS-III\Source/os_sem.c ****        *p_err =  OS_ERR_PEND_ABORT_ISR;
 658              		.loc 1 492 0
 659 001a 7B68     		ldr	r3, [r7, #4]
 660 001c 46F2AA12 		movw	r2, #25002
 661 0020 1A80     		strh	r2, [r3]	@ movhi
 493:..\..\..\..\..\..\uCOS-III\Source/os_sem.c ****         return ((OS_OBJ_QTY)0u);
 662              		.loc 1 493 0
 663 0022 0023     		movs	r3, #0
 664 0024 5BE0     		b	.L56
 665              	.L55:
 494:..\..\..\..\..\..\uCOS-III\Source/os_sem.c ****     }
 495:..\..\..\..\..\..\uCOS-III\Source/os_sem.c **** #endif
 496:..\..\..\..\..\..\uCOS-III\Source/os_sem.c **** 
 497:..\..\..\..\..\..\uCOS-III\Source/os_sem.c **** #if OS_CFG_ARG_CHK_EN > 0u
 498:..\..\..\..\..\..\uCOS-III\Source/os_sem.c ****     if (p_sem == (OS_SEM *)0) {                             /* Validate 'p_sem'                    
 666              		.loc 1 498 0
 667 0026 FB68     		ldr	r3, [r7, #12]
 668 0028 002B     		cmp	r3, #0
 669 002a 05D1     		bne	.L57
 499:..\..\..\..\..\..\uCOS-III\Source/os_sem.c ****        *p_err =  OS_ERR_OBJ_PTR_NULL;
 670              		.loc 1 499 0
 671 002c 7B68     		ldr	r3, [r7, #4]
 672 002e 45F6C352 		movw	r2, #24003
 673 0032 1A80     		strh	r2, [r3]	@ movhi
 500:..\..\..\..\..\..\uCOS-III\Source/os_sem.c ****         return ((OS_OBJ_QTY)0u);
 674              		.loc 1 500 0
 675 0034 0023     		movs	r3, #0
 676 0036 52E0     		b	.L56
 677              	.L57:
 501:..\..\..\..\..\..\uCOS-III\Source/os_sem.c ****     }
 502:..\..\..\..\..\..\uCOS-III\Source/os_sem.c ****     switch (opt) {                                          /* Validate 'opt'                      
 678              		.loc 1 502 0
 679 0038 7B89     		ldrh	r3, [r7, #10]
 680 003a B3F5807F 		cmp	r3, #256
 681 003e 11D0     		beq	.L67
 682 0040 B3F5807F 		cmp	r3, #256
 683 0044 02DC     		bgt	.L60
 684 0046 002B     		cmp	r3, #0
 685 0048 0CD0     		beq	.L67
 686 004a 05E0     		b	.L58
 687              	.L60:
 688 004c B3F5004F 		cmp	r3, #32768
 689 0050 08D0     		beq	.L67
 690 0052 B3F5014F 		cmp	r3, #33024
ARM GAS  C:\Users\alex\AppData\Local\Temp\ccfIfgZ4.s 			page 22


 691 0056 05D0     		beq	.L67
 692              	.L58:
 503:..\..\..\..\..\..\uCOS-III\Source/os_sem.c ****         case OS_OPT_PEND_ABORT_1:
 504:..\..\..\..\..\..\uCOS-III\Source/os_sem.c ****         case OS_OPT_PEND_ABORT_ALL:
 505:..\..\..\..\..\..\uCOS-III\Source/os_sem.c ****         case OS_OPT_PEND_ABORT_1   | OS_OPT_POST_NO_SCHED:
 506:..\..\..\..\..\..\uCOS-III\Source/os_sem.c ****         case OS_OPT_PEND_ABORT_ALL | OS_OPT_POST_NO_SCHED:
 507:..\..\..\..\..\..\uCOS-III\Source/os_sem.c ****              break;
 508:..\..\..\..\..\..\uCOS-III\Source/os_sem.c **** 
 509:..\..\..\..\..\..\uCOS-III\Source/os_sem.c ****         default:
 510:..\..\..\..\..\..\uCOS-III\Source/os_sem.c ****             *p_err =  OS_ERR_OPT_INVALID;
 693              		.loc 1 510 0
 694 0058 7B68     		ldr	r3, [r7, #4]
 695 005a 45F62562 		movw	r2, #24101
 696 005e 1A80     		strh	r2, [r3]	@ movhi
 511:..\..\..\..\..\..\uCOS-III\Source/os_sem.c ****              return ((OS_OBJ_QTY)0u);
 697              		.loc 1 511 0
 698 0060 0023     		movs	r3, #0
 699 0062 3CE0     		b	.L56
 700              	.L67:
 507:..\..\..\..\..\..\uCOS-III\Source/os_sem.c **** 
 701              		.loc 1 507 0
 702 0064 00BF     		nop
 512:..\..\..\..\..\..\uCOS-III\Source/os_sem.c ****     }
 513:..\..\..\..\..\..\uCOS-III\Source/os_sem.c **** #endif
 514:..\..\..\..\..\..\uCOS-III\Source/os_sem.c **** 
 515:..\..\..\..\..\..\uCOS-III\Source/os_sem.c **** #if OS_CFG_OBJ_TYPE_CHK_EN > 0u
 516:..\..\..\..\..\..\uCOS-III\Source/os_sem.c ****     if (p_sem->Type != OS_OBJ_TYPE_SEM) {                   /* Make sure semaphore was created     
 517:..\..\..\..\..\..\uCOS-III\Source/os_sem.c ****        *p_err =  OS_ERR_OBJ_TYPE;
 518:..\..\..\..\..\..\uCOS-III\Source/os_sem.c ****         return ((OS_OBJ_QTY)0u);
 519:..\..\..\..\..\..\uCOS-III\Source/os_sem.c ****     }
 520:..\..\..\..\..\..\uCOS-III\Source/os_sem.c **** #endif
 521:..\..\..\..\..\..\uCOS-III\Source/os_sem.c **** 
 522:..\..\..\..\..\..\uCOS-III\Source/os_sem.c ****     CPU_CRITICAL_ENTER();
 703              		.loc 1 522 0
 704 0066 FFF7FEFF 		bl	CPU_SR_Save
 705 006a 3862     		str	r0, [r7, #32]
 523:..\..\..\..\..\..\uCOS-III\Source/os_sem.c ****     p_pend_list = &p_sem->PendList;
 706              		.loc 1 523 0
 707 006c FB68     		ldr	r3, [r7, #12]
 708 006e 0833     		adds	r3, r3, #8
 709 0070 FB61     		str	r3, [r7, #28]
 524:..\..\..\..\..\..\uCOS-III\Source/os_sem.c ****     if (p_pend_list->NbrEntries == (OS_OBJ_QTY)0u) {        /* Any task waiting on semaphore?      
 710              		.loc 1 524 0
 711 0072 FB69     		ldr	r3, [r7, #28]
 712 0074 1B89     		ldrh	r3, [r3, #8]
 713 0076 002B     		cmp	r3, #0
 714 0078 08D1     		bne	.L62
 525:..\..\..\..\..\..\uCOS-III\Source/os_sem.c ****         CPU_CRITICAL_EXIT();                                /* No                                  
 715              		.loc 1 525 0
 716 007a 386A     		ldr	r0, [r7, #32]
 717 007c FFF7FEFF 		bl	CPU_SR_Restore
 526:..\..\..\..\..\..\uCOS-III\Source/os_sem.c ****        *p_err =  OS_ERR_PEND_ABORT_NONE;
 718              		.loc 1 526 0
 719 0080 7B68     		ldr	r3, [r7, #4]
 720 0082 46F2AB12 		movw	r2, #25003
 721 0086 1A80     		strh	r2, [r3]	@ movhi
 527:..\..\..\..\..\..\uCOS-III\Source/os_sem.c ****         return ((OS_OBJ_QTY)0u);
ARM GAS  C:\Users\alex\AppData\Local\Temp\ccfIfgZ4.s 			page 23


 722              		.loc 1 527 0
 723 0088 0023     		movs	r3, #0
 724 008a 28E0     		b	.L56
 725              	.L62:
 528:..\..\..\..\..\..\uCOS-III\Source/os_sem.c ****     }
 529:..\..\..\..\..\..\uCOS-III\Source/os_sem.c **** 
 530:..\..\..\..\..\..\uCOS-III\Source/os_sem.c ****     OS_CRITICAL_ENTER_CPU_EXIT();
 531:..\..\..\..\..\..\uCOS-III\Source/os_sem.c ****     nbr_tasks = 0u;
 726              		.loc 1 531 0
 727 008c 0023     		movs	r3, #0
 728 008e FB84     		strh	r3, [r7, #38]	@ movhi
 532:..\..\..\..\..\..\uCOS-III\Source/os_sem.c ****     ts        = OS_TS_GET();                                /* Get local time stamp so all tasks ge
 729              		.loc 1 532 0
 730 0090 FFF7FEFF 		bl	CPU_TS_TmrRd
 731 0094 B861     		str	r0, [r7, #24]
 533:..\..\..\..\..\..\uCOS-III\Source/os_sem.c ****     while (p_pend_list->NbrEntries > (OS_OBJ_QTY)0u) {
 732              		.loc 1 533 0
 733 0096 0FE0     		b	.L63
 734              	.L65:
 534:..\..\..\..\..\..\uCOS-III\Source/os_sem.c ****         p_tcb = p_pend_list->HeadPtr->TCBPtr;
 735              		.loc 1 534 0
 736 0098 FB69     		ldr	r3, [r7, #28]
 737 009a 1B68     		ldr	r3, [r3]
 738 009c 9B68     		ldr	r3, [r3, #8]
 739 009e 7B61     		str	r3, [r7, #20]
 535:..\..\..\..\..\..\uCOS-III\Source/os_sem.c ****         OS_PendAbort((OS_PEND_OBJ *)((void *)p_sem),
 740              		.loc 1 535 0
 741 00a0 BA69     		ldr	r2, [r7, #24]
 742 00a2 7969     		ldr	r1, [r7, #20]
 743 00a4 F868     		ldr	r0, [r7, #12]
 744 00a6 FFF7FEFF 		bl	OS_PendAbort
 536:..\..\..\..\..\..\uCOS-III\Source/os_sem.c ****                      p_tcb,
 537:..\..\..\..\..\..\uCOS-III\Source/os_sem.c ****                      ts);
 538:..\..\..\..\..\..\uCOS-III\Source/os_sem.c ****         nbr_tasks++;
 745              		.loc 1 538 0
 746 00aa FB8C     		ldrh	r3, [r7, #38]
 747 00ac 0133     		adds	r3, r3, #1
 748 00ae FB84     		strh	r3, [r7, #38]	@ movhi
 539:..\..\..\..\..\..\uCOS-III\Source/os_sem.c ****         if (opt != OS_OPT_PEND_ABORT_ALL) {                 /* Pend abort all tasks waiting?       
 749              		.loc 1 539 0
 750 00b0 7B89     		ldrh	r3, [r7, #10]
 751 00b2 B3F5807F 		cmp	r3, #256
 752 00b6 04D1     		bne	.L68
 753              	.L63:
 533:..\..\..\..\..\..\uCOS-III\Source/os_sem.c ****         p_tcb = p_pend_list->HeadPtr->TCBPtr;
 754              		.loc 1 533 0
 755 00b8 FB69     		ldr	r3, [r7, #28]
 756 00ba 1B89     		ldrh	r3, [r3, #8]
 757 00bc 002B     		cmp	r3, #0
 758 00be EBD1     		bne	.L65
 759 00c0 00E0     		b	.L64
 760              	.L68:
 540:..\..\..\..\..\..\uCOS-III\Source/os_sem.c ****             break;                                          /* No                                  
 761              		.loc 1 540 0
 762 00c2 00BF     		nop
 763              	.L64:
 541:..\..\..\..\..\..\uCOS-III\Source/os_sem.c ****         }
ARM GAS  C:\Users\alex\AppData\Local\Temp\ccfIfgZ4.s 			page 24


 542:..\..\..\..\..\..\uCOS-III\Source/os_sem.c ****     }
 543:..\..\..\..\..\..\uCOS-III\Source/os_sem.c ****     OS_CRITICAL_EXIT_NO_SCHED();
 764              		.loc 1 543 0
 765 00c4 386A     		ldr	r0, [r7, #32]
 766 00c6 FFF7FEFF 		bl	CPU_SR_Restore
 544:..\..\..\..\..\..\uCOS-III\Source/os_sem.c **** 
 545:..\..\..\..\..\..\uCOS-III\Source/os_sem.c ****     if ((opt & OS_OPT_POST_NO_SCHED) == (OS_OPT)0u) {
 767              		.loc 1 545 0
 768 00ca B7F90A30 		ldrsh	r3, [r7, #10]
 769 00ce 002B     		cmp	r3, #0
 770 00d0 01DB     		blt	.L66
 546:..\..\..\..\..\..\uCOS-III\Source/os_sem.c ****         OSSched();                                          /* Run the scheduler                   
 771              		.loc 1 546 0
 772 00d2 FFF7FEFF 		bl	OSSched
 773              	.L66:
 547:..\..\..\..\..\..\uCOS-III\Source/os_sem.c ****     }
 548:..\..\..\..\..\..\uCOS-III\Source/os_sem.c **** 
 549:..\..\..\..\..\..\uCOS-III\Source/os_sem.c ****    *p_err = OS_ERR_NONE;
 774              		.loc 1 549 0
 775 00d6 7B68     		ldr	r3, [r7, #4]
 776 00d8 0022     		movs	r2, #0
 777 00da 1A80     		strh	r2, [r3]	@ movhi
 550:..\..\..\..\..\..\uCOS-III\Source/os_sem.c ****     return (nbr_tasks);
 778              		.loc 1 550 0
 779 00dc FB8C     		ldrh	r3, [r7, #38]
 780              	.L56:
 551:..\..\..\..\..\..\uCOS-III\Source/os_sem.c **** }
 781              		.loc 1 551 0
 782 00de 1846     		mov	r0, r3
 783 00e0 2837     		adds	r7, r7, #40
 784              		.cfi_def_cfa_offset 8
 785 00e2 BD46     		mov	sp, r7
 786              		.cfi_def_cfa_register 13
 787              		@ sp needed
 788 00e4 80BD     		pop	{r7, pc}
 789              	.L70:
 790 00e6 00BF     		.align	2
 791              	.L69:
 792 00e8 00000000 		.word	OSIntNestingCtr
 793              		.cfi_endproc
 794              	.LFE3:
 795              		.size	OSSemPendAbort, .-OSSemPendAbort
 796              		.section	.text.OSSemPost,"ax",%progbits
 797              		.align	2
 798              		.global	OSSemPost
 799              		.thumb
 800              		.thumb_func
 801              		.type	OSSemPost, %function
 802              	OSSemPost:
 803              	.LFB4:
 552:..\..\..\..\..\..\uCOS-III\Source/os_sem.c **** #endif
 553:..\..\..\..\..\..\uCOS-III\Source/os_sem.c **** 
 554:..\..\..\..\..\..\uCOS-III\Source/os_sem.c **** /*$PAGE*/
 555:..\..\..\..\..\..\uCOS-III\Source/os_sem.c **** /*
 556:..\..\..\..\..\..\uCOS-III\Source/os_sem.c **** ***************************************************************************************************
 557:..\..\..\..\..\..\uCOS-III\Source/os_sem.c **** *                                                 POST TO A SEMAPHORE
 558:..\..\..\..\..\..\uCOS-III\Source/os_sem.c **** *
ARM GAS  C:\Users\alex\AppData\Local\Temp\ccfIfgZ4.s 			page 25


 559:..\..\..\..\..\..\uCOS-III\Source/os_sem.c **** * Description: This function signals a semaphore
 560:..\..\..\..\..\..\uCOS-III\Source/os_sem.c **** *
 561:..\..\..\..\..\..\uCOS-III\Source/os_sem.c **** * Arguments  : p_sem    is a pointer to the semaphore
 562:..\..\..\..\..\..\uCOS-III\Source/os_sem.c **** *
 563:..\..\..\..\..\..\uCOS-III\Source/os_sem.c **** *              opt      determines the type of POST performed:
 564:..\..\..\..\..\..\uCOS-III\Source/os_sem.c **** *
 565:..\..\..\..\..\..\uCOS-III\Source/os_sem.c **** *                           OS_OPT_POST_1            POST and ready only the highest priority task 
 566:..\..\..\..\..\..\uCOS-III\Source/os_sem.c **** *                                                    (if tasks are waiting).
 567:..\..\..\..\..\..\uCOS-III\Source/os_sem.c **** *                           OS_OPT_POST_ALL          POST to ALL tasks that are waiting on the sema
 568:..\..\..\..\..\..\uCOS-III\Source/os_sem.c **** *
 569:..\..\..\..\..\..\uCOS-III\Source/os_sem.c **** *                           OS_OPT_POST_NO_SCHED     Do not call the scheduler
 570:..\..\..\..\..\..\uCOS-III\Source/os_sem.c **** *
 571:..\..\..\..\..\..\uCOS-III\Source/os_sem.c **** *                           Note(s): 1) OS_OPT_POST_NO_SCHED can be added with one of the other opt
 572:..\..\..\..\..\..\uCOS-III\Source/os_sem.c **** *
 573:..\..\..\..\..\..\uCOS-III\Source/os_sem.c **** *              p_err    is a pointer to a variable that will contain an error code returned by this
 574:..\..\..\..\..\..\uCOS-III\Source/os_sem.c **** *
 575:..\..\..\..\..\..\uCOS-III\Source/os_sem.c **** *                           OS_ERR_NONE          The call was successful and the semaphore was sign
 576:..\..\..\..\..\..\uCOS-III\Source/os_sem.c **** *                           OS_ERR_OBJ_PTR_NULL  If 'p_sem' is a NULL pointer.
 577:..\..\..\..\..\..\uCOS-III\Source/os_sem.c **** *                           OS_ERR_OBJ_TYPE      If 'p_sem' is not pointing at a semaphore
 578:..\..\..\..\..\..\uCOS-III\Source/os_sem.c **** *                           OS_ERR_SEM_OVF       If the post would cause the semaphore count to ove
 579:..\..\..\..\..\..\uCOS-III\Source/os_sem.c **** *
 580:..\..\..\..\..\..\uCOS-III\Source/os_sem.c **** * Returns    : The current value of the semaphore counter or 0 upon error.
 581:..\..\..\..\..\..\uCOS-III\Source/os_sem.c **** ***************************************************************************************************
 582:..\..\..\..\..\..\uCOS-III\Source/os_sem.c **** */
 583:..\..\..\..\..\..\uCOS-III\Source/os_sem.c **** 
 584:..\..\..\..\..\..\uCOS-III\Source/os_sem.c **** OS_SEM_CTR  OSSemPost (OS_SEM  *p_sem,
 585:..\..\..\..\..\..\uCOS-III\Source/os_sem.c ****                        OS_OPT   opt,
 586:..\..\..\..\..\..\uCOS-III\Source/os_sem.c ****                        OS_ERR  *p_err)
 587:..\..\..\..\..\..\uCOS-III\Source/os_sem.c **** {
 804              		.loc 1 587 0
 805              		.cfi_startproc
 806              		@ args = 0, pretend = 0, frame = 24
 807              		@ frame_needed = 1, uses_anonymous_args = 0
 808 0000 80B5     		push	{r7, lr}
 809              		.cfi_def_cfa_offset 8
 810              		.cfi_offset 7, -8
 811              		.cfi_offset 14, -4
 812 0002 86B0     		sub	sp, sp, #24
 813              		.cfi_def_cfa_offset 32
 814 0004 00AF     		add	r7, sp, #0
 815              		.cfi_def_cfa_register 7
 816 0006 F860     		str	r0, [r7, #12]
 817 0008 0B46     		mov	r3, r1
 818 000a 7A60     		str	r2, [r7, #4]
 819 000c 7B81     		strh	r3, [r7, #10]	@ movhi
 588:..\..\..\..\..\..\uCOS-III\Source/os_sem.c ****     OS_SEM_CTR  ctr;
 589:..\..\..\..\..\..\uCOS-III\Source/os_sem.c ****     CPU_TS      ts;
 590:..\..\..\..\..\..\uCOS-III\Source/os_sem.c **** 
 591:..\..\..\..\..\..\uCOS-III\Source/os_sem.c **** 
 592:..\..\..\..\..\..\uCOS-III\Source/os_sem.c **** 
 593:..\..\..\..\..\..\uCOS-III\Source/os_sem.c **** #ifdef OS_SAFETY_CRITICAL
 594:..\..\..\..\..\..\uCOS-III\Source/os_sem.c ****     if (p_err == (OS_ERR *)0) {
 595:..\..\..\..\..\..\uCOS-III\Source/os_sem.c ****         OS_SAFETY_CRITICAL_EXCEPTION();
 596:..\..\..\..\..\..\uCOS-III\Source/os_sem.c ****         return ((OS_SEM_CTR)0);
 597:..\..\..\..\..\..\uCOS-III\Source/os_sem.c ****     }
 598:..\..\..\..\..\..\uCOS-III\Source/os_sem.c **** #endif
 599:..\..\..\..\..\..\uCOS-III\Source/os_sem.c **** 
ARM GAS  C:\Users\alex\AppData\Local\Temp\ccfIfgZ4.s 			page 26


 600:..\..\..\..\..\..\uCOS-III\Source/os_sem.c **** #if OS_CFG_ARG_CHK_EN > 0u
 601:..\..\..\..\..\..\uCOS-III\Source/os_sem.c ****     if (p_sem == (OS_SEM *)0) {                             /* Validate 'p_sem'                    
 820              		.loc 1 601 0
 821 000e FB68     		ldr	r3, [r7, #12]
 822 0010 002B     		cmp	r3, #0
 823 0012 05D1     		bne	.L72
 602:..\..\..\..\..\..\uCOS-III\Source/os_sem.c ****        *p_err  = OS_ERR_OBJ_PTR_NULL;
 824              		.loc 1 602 0
 825 0014 7B68     		ldr	r3, [r7, #4]
 826 0016 45F6C352 		movw	r2, #24003
 827 001a 1A80     		strh	r2, [r3]	@ movhi
 603:..\..\..\..\..\..\uCOS-III\Source/os_sem.c ****         return ((OS_SEM_CTR)0);
 828              		.loc 1 603 0
 829 001c 0023     		movs	r3, #0
 830 001e 21E0     		b	.L73
 831              	.L72:
 604:..\..\..\..\..\..\uCOS-III\Source/os_sem.c ****     }
 605:..\..\..\..\..\..\uCOS-III\Source/os_sem.c ****     switch (opt) {                                          /* Validate 'opt'                      
 832              		.loc 1 605 0
 833 0020 7B89     		ldrh	r3, [r7, #10]
 834 0022 B3F5007F 		cmp	r3, #512
 835 0026 11D0     		beq	.L78
 836 0028 B3F5007F 		cmp	r3, #512
 837 002c 02DC     		bgt	.L76
 838 002e 002B     		cmp	r3, #0
 839 0030 0CD0     		beq	.L78
 840 0032 05E0     		b	.L74
 841              	.L76:
 842 0034 B3F5004F 		cmp	r3, #32768
 843 0038 08D0     		beq	.L78
 844 003a B3F5024F 		cmp	r3, #33280
 845 003e 05D0     		beq	.L78
 846              	.L74:
 606:..\..\..\..\..\..\uCOS-III\Source/os_sem.c ****         case OS_OPT_POST_1:
 607:..\..\..\..\..\..\uCOS-III\Source/os_sem.c ****         case OS_OPT_POST_ALL:
 608:..\..\..\..\..\..\uCOS-III\Source/os_sem.c ****         case OS_OPT_POST_1   | OS_OPT_POST_NO_SCHED:
 609:..\..\..\..\..\..\uCOS-III\Source/os_sem.c ****         case OS_OPT_POST_ALL | OS_OPT_POST_NO_SCHED:
 610:..\..\..\..\..\..\uCOS-III\Source/os_sem.c ****              break;
 611:..\..\..\..\..\..\uCOS-III\Source/os_sem.c **** 
 612:..\..\..\..\..\..\uCOS-III\Source/os_sem.c ****         default:
 613:..\..\..\..\..\..\uCOS-III\Source/os_sem.c ****             *p_err =  OS_ERR_OPT_INVALID;
 847              		.loc 1 613 0
 848 0040 7B68     		ldr	r3, [r7, #4]
 849 0042 45F62562 		movw	r2, #24101
 850 0046 1A80     		strh	r2, [r3]	@ movhi
 614:..\..\..\..\..\..\uCOS-III\Source/os_sem.c ****              return ((OS_SEM_CTR)0u);
 851              		.loc 1 614 0
 852 0048 0023     		movs	r3, #0
 853 004a 0BE0     		b	.L73
 854              	.L78:
 610:..\..\..\..\..\..\uCOS-III\Source/os_sem.c **** 
 855              		.loc 1 610 0
 856 004c 00BF     		nop
 615:..\..\..\..\..\..\uCOS-III\Source/os_sem.c ****     }
 616:..\..\..\..\..\..\uCOS-III\Source/os_sem.c **** #endif
 617:..\..\..\..\..\..\uCOS-III\Source/os_sem.c **** 
 618:..\..\..\..\..\..\uCOS-III\Source/os_sem.c **** #if OS_CFG_OBJ_TYPE_CHK_EN > 0u
ARM GAS  C:\Users\alex\AppData\Local\Temp\ccfIfgZ4.s 			page 27


 619:..\..\..\..\..\..\uCOS-III\Source/os_sem.c ****     if (p_sem->Type != OS_OBJ_TYPE_SEM) {                   /* Make sure semaphore was created     
 620:..\..\..\..\..\..\uCOS-III\Source/os_sem.c ****        *p_err = OS_ERR_OBJ_TYPE;
 621:..\..\..\..\..\..\uCOS-III\Source/os_sem.c ****         return ((OS_SEM_CTR)0);
 622:..\..\..\..\..\..\uCOS-III\Source/os_sem.c ****     }
 623:..\..\..\..\..\..\uCOS-III\Source/os_sem.c **** #endif
 624:..\..\..\..\..\..\uCOS-III\Source/os_sem.c **** 
 625:..\..\..\..\..\..\uCOS-III\Source/os_sem.c ****     ts = OS_TS_GET();                                       /* Get timestamp                       
 857              		.loc 1 625 0
 858 004e FFF7FEFF 		bl	CPU_TS_TmrRd
 859 0052 7861     		str	r0, [r7, #20]
 626:..\..\..\..\..\..\uCOS-III\Source/os_sem.c **** 
 627:..\..\..\..\..\..\uCOS-III\Source/os_sem.c **** #if OS_CFG_ISR_POST_DEFERRED_EN > 0u
 628:..\..\..\..\..\..\uCOS-III\Source/os_sem.c ****     if (OSIntNestingCtr > (OS_NESTING_CTR)0) {              /* See if called from an ISR           
 629:..\..\..\..\..\..\uCOS-III\Source/os_sem.c ****         OS_IntQPost((OS_OBJ_TYPE)OS_OBJ_TYPE_SEM,           /* Post to ISR queue                   
 630:..\..\..\..\..\..\uCOS-III\Source/os_sem.c ****                     (void      *)p_sem,
 631:..\..\..\..\..\..\uCOS-III\Source/os_sem.c ****                     (void      *)0,
 632:..\..\..\..\..\..\uCOS-III\Source/os_sem.c ****                     (OS_MSG_SIZE)0,
 633:..\..\..\..\..\..\uCOS-III\Source/os_sem.c ****                     (OS_FLAGS   )0,
 634:..\..\..\..\..\..\uCOS-III\Source/os_sem.c ****                     (OS_OPT     )opt,
 635:..\..\..\..\..\..\uCOS-III\Source/os_sem.c ****                     (CPU_TS     )ts,
 636:..\..\..\..\..\..\uCOS-III\Source/os_sem.c ****                     (OS_ERR    *)p_err);
 637:..\..\..\..\..\..\uCOS-III\Source/os_sem.c ****         return ((OS_SEM_CTR)0);
 638:..\..\..\..\..\..\uCOS-III\Source/os_sem.c ****     }
 639:..\..\..\..\..\..\uCOS-III\Source/os_sem.c **** #endif
 640:..\..\..\..\..\..\uCOS-III\Source/os_sem.c **** 
 641:..\..\..\..\..\..\uCOS-III\Source/os_sem.c ****     ctr = OS_SemPost(p_sem,                                 /* Post to semaphore                   
 860              		.loc 1 641 0
 861 0054 7989     		ldrh	r1, [r7, #10]
 862 0056 7B68     		ldr	r3, [r7, #4]
 863 0058 7A69     		ldr	r2, [r7, #20]
 864 005a F868     		ldr	r0, [r7, #12]
 865 005c FFF7FEFF 		bl	OS_SemPost
 866 0060 3861     		str	r0, [r7, #16]
 642:..\..\..\..\..\..\uCOS-III\Source/os_sem.c ****                      opt,
 643:..\..\..\..\..\..\uCOS-III\Source/os_sem.c ****                      ts,
 644:..\..\..\..\..\..\uCOS-III\Source/os_sem.c ****                      p_err);
 645:..\..\..\..\..\..\uCOS-III\Source/os_sem.c **** 
 646:..\..\..\..\..\..\uCOS-III\Source/os_sem.c ****     return (ctr);
 867              		.loc 1 646 0
 868 0062 3B69     		ldr	r3, [r7, #16]
 869              	.L73:
 647:..\..\..\..\..\..\uCOS-III\Source/os_sem.c **** }
 870              		.loc 1 647 0
 871 0064 1846     		mov	r0, r3
 872 0066 1837     		adds	r7, r7, #24
 873              		.cfi_def_cfa_offset 8
 874 0068 BD46     		mov	sp, r7
 875              		.cfi_def_cfa_register 13
 876              		@ sp needed
 877 006a 80BD     		pop	{r7, pc}
 878              		.cfi_endproc
 879              	.LFE4:
 880              		.size	OSSemPost, .-OSSemPost
 881              		.section	.text.OSSemSet,"ax",%progbits
 882              		.align	2
 883              		.global	OSSemSet
 884              		.thumb
ARM GAS  C:\Users\alex\AppData\Local\Temp\ccfIfgZ4.s 			page 28


 885              		.thumb_func
 886              		.type	OSSemSet, %function
 887              	OSSemSet:
 888              	.LFB5:
 648:..\..\..\..\..\..\uCOS-III\Source/os_sem.c **** 
 649:..\..\..\..\..\..\uCOS-III\Source/os_sem.c **** /*$PAGE*/
 650:..\..\..\..\..\..\uCOS-III\Source/os_sem.c **** /*
 651:..\..\..\..\..\..\uCOS-III\Source/os_sem.c **** ***************************************************************************************************
 652:..\..\..\..\..\..\uCOS-III\Source/os_sem.c **** *                                                    SET SEMAPHORE
 653:..\..\..\..\..\..\uCOS-III\Source/os_sem.c **** *
 654:..\..\..\..\..\..\uCOS-III\Source/os_sem.c **** * Description: This function sets the semaphore count to the value specified as an argument.  Typic
 655:..\..\..\..\..\..\uCOS-III\Source/os_sem.c **** *              would be 0 but of course, we can set the semaphore to any value.
 656:..\..\..\..\..\..\uCOS-III\Source/os_sem.c **** *
 657:..\..\..\..\..\..\uCOS-III\Source/os_sem.c **** *              You would typically use this function when a semaphore is used as a signaling mechan
 658:..\..\..\..\..\..\uCOS-III\Source/os_sem.c **** *              and, you want to reset the count value.
 659:..\..\..\..\..\..\uCOS-III\Source/os_sem.c **** *
 660:..\..\..\..\..\..\uCOS-III\Source/os_sem.c **** * Arguments  : p_sem     is a pointer to the semaphore
 661:..\..\..\..\..\..\uCOS-III\Source/os_sem.c **** *
 662:..\..\..\..\..\..\uCOS-III\Source/os_sem.c **** *              cnt       is the new value for the semaphore count.  You would pass 0 to reset the s
 663:..\..\..\..\..\..\uCOS-III\Source/os_sem.c **** *
 664:..\..\..\..\..\..\uCOS-III\Source/os_sem.c **** *              p_err     is a pointer to a variable that will contain an error code returned by thi
 665:..\..\..\..\..\..\uCOS-III\Source/os_sem.c **** *
 666:..\..\..\..\..\..\uCOS-III\Source/os_sem.c **** *                            OS_ERR_NONE           The call was successful and the semaphore value 
 667:..\..\..\..\..\..\uCOS-III\Source/os_sem.c **** *                            OS_ERR_OBJ_PTR_NULL   If 'p_sem' is a NULL pointer.
 668:..\..\..\..\..\..\uCOS-III\Source/os_sem.c **** *                            OS_ERR_OBJ_TYPE       If 'p_sem' is not pointing to a semaphore.
 669:..\..\..\..\..\..\uCOS-III\Source/os_sem.c **** *                            OS_ERR_TASK_WAITING   If tasks are waiting on the semaphore.
 670:..\..\..\..\..\..\uCOS-III\Source/os_sem.c **** *
 671:..\..\..\..\..\..\uCOS-III\Source/os_sem.c **** * Returns    : None
 672:..\..\..\..\..\..\uCOS-III\Source/os_sem.c **** ***************************************************************************************************
 673:..\..\..\..\..\..\uCOS-III\Source/os_sem.c **** */
 674:..\..\..\..\..\..\uCOS-III\Source/os_sem.c **** 
 675:..\..\..\..\..\..\uCOS-III\Source/os_sem.c **** #if OS_CFG_SEM_SET_EN > 0u
 676:..\..\..\..\..\..\uCOS-III\Source/os_sem.c **** void  OSSemSet (OS_SEM      *p_sem,
 677:..\..\..\..\..\..\uCOS-III\Source/os_sem.c ****                 OS_SEM_CTR   cnt,
 678:..\..\..\..\..\..\uCOS-III\Source/os_sem.c ****                 OS_ERR      *p_err)
 679:..\..\..\..\..\..\uCOS-III\Source/os_sem.c **** {
 889              		.loc 1 679 0
 890              		.cfi_startproc
 891              		@ args = 0, pretend = 0, frame = 24
 892              		@ frame_needed = 1, uses_anonymous_args = 0
 893 0000 80B5     		push	{r7, lr}
 894              		.cfi_def_cfa_offset 8
 895              		.cfi_offset 7, -8
 896              		.cfi_offset 14, -4
 897 0002 86B0     		sub	sp, sp, #24
 898              		.cfi_def_cfa_offset 32
 899 0004 00AF     		add	r7, sp, #0
 900              		.cfi_def_cfa_register 7
 901 0006 F860     		str	r0, [r7, #12]
 902 0008 B960     		str	r1, [r7, #8]
 903 000a 7A60     		str	r2, [r7, #4]
 680:..\..\..\..\..\..\uCOS-III\Source/os_sem.c ****     OS_PEND_LIST  *p_pend_list;
 681:..\..\..\..\..\..\uCOS-III\Source/os_sem.c ****     CPU_SR_ALLOC();
 904              		.loc 1 681 0
 905 000c 0023     		movs	r3, #0
 906 000e 7B61     		str	r3, [r7, #20]
 682:..\..\..\..\..\..\uCOS-III\Source/os_sem.c **** 
ARM GAS  C:\Users\alex\AppData\Local\Temp\ccfIfgZ4.s 			page 29


 683:..\..\..\..\..\..\uCOS-III\Source/os_sem.c **** 
 684:..\..\..\..\..\..\uCOS-III\Source/os_sem.c **** 
 685:..\..\..\..\..\..\uCOS-III\Source/os_sem.c **** #ifdef OS_SAFETY_CRITICAL
 686:..\..\..\..\..\..\uCOS-III\Source/os_sem.c ****     if (p_err == (OS_ERR *)0) {
 687:..\..\..\..\..\..\uCOS-III\Source/os_sem.c ****         OS_SAFETY_CRITICAL_EXCEPTION();
 688:..\..\..\..\..\..\uCOS-III\Source/os_sem.c ****         return;
 689:..\..\..\..\..\..\uCOS-III\Source/os_sem.c ****     }
 690:..\..\..\..\..\..\uCOS-III\Source/os_sem.c **** #endif
 691:..\..\..\..\..\..\uCOS-III\Source/os_sem.c **** 
 692:..\..\..\..\..\..\uCOS-III\Source/os_sem.c **** #if OS_CFG_CALLED_FROM_ISR_CHK_EN > 0u
 693:..\..\..\..\..\..\uCOS-III\Source/os_sem.c ****     if (OSIntNestingCtr > (OS_NESTING_CTR)0) {              /* Can't call this function from an ISR
 907              		.loc 1 693 0
 908 0010 194B     		ldr	r3, .L86
 909 0012 1B78     		ldrb	r3, [r3]	@ zero_extendqisi2
 910 0014 002B     		cmp	r3, #0
 911 0016 04D0     		beq	.L80
 694:..\..\..\..\..\..\uCOS-III\Source/os_sem.c ****        *p_err = OS_ERR_SET_ISR;
 912              		.loc 1 694 0
 913 0018 7B68     		ldr	r3, [r7, #4]
 914 001a 46F6C652 		movw	r2, #28102
 915 001e 1A80     		strh	r2, [r3]	@ movhi
 695:..\..\..\..\..\..\uCOS-III\Source/os_sem.c ****         return;
 916              		.loc 1 695 0
 917 0020 27E0     		b	.L79
 918              	.L80:
 696:..\..\..\..\..\..\uCOS-III\Source/os_sem.c ****     }
 697:..\..\..\..\..\..\uCOS-III\Source/os_sem.c **** #endif
 698:..\..\..\..\..\..\uCOS-III\Source/os_sem.c **** 
 699:..\..\..\..\..\..\uCOS-III\Source/os_sem.c **** #if OS_CFG_ARG_CHK_EN > 0u
 700:..\..\..\..\..\..\uCOS-III\Source/os_sem.c ****     if (p_sem == (OS_SEM *)0) {                             /* Validate 'p_sem'                    
 919              		.loc 1 700 0
 920 0022 FB68     		ldr	r3, [r7, #12]
 921 0024 002B     		cmp	r3, #0
 922 0026 04D1     		bne	.L82
 701:..\..\..\..\..\..\uCOS-III\Source/os_sem.c ****        *p_err = OS_ERR_OBJ_PTR_NULL;
 923              		.loc 1 701 0
 924 0028 7B68     		ldr	r3, [r7, #4]
 925 002a 45F6C352 		movw	r2, #24003
 926 002e 1A80     		strh	r2, [r3]	@ movhi
 702:..\..\..\..\..\..\uCOS-III\Source/os_sem.c ****         return;
 927              		.loc 1 702 0
 928 0030 1FE0     		b	.L79
 929              	.L82:
 703:..\..\..\..\..\..\uCOS-III\Source/os_sem.c ****     }
 704:..\..\..\..\..\..\uCOS-III\Source/os_sem.c **** #endif
 705:..\..\..\..\..\..\uCOS-III\Source/os_sem.c **** 
 706:..\..\..\..\..\..\uCOS-III\Source/os_sem.c **** #if OS_CFG_OBJ_TYPE_CHK_EN > 0u
 707:..\..\..\..\..\..\uCOS-III\Source/os_sem.c ****     if (p_sem->Type != OS_OBJ_TYPE_SEM) {                   /* Make sure semaphore was created     
 708:..\..\..\..\..\..\uCOS-III\Source/os_sem.c ****        *p_err = OS_ERR_OBJ_TYPE;
 709:..\..\..\..\..\..\uCOS-III\Source/os_sem.c ****         return;
 710:..\..\..\..\..\..\uCOS-III\Source/os_sem.c ****     }
 711:..\..\..\..\..\..\uCOS-III\Source/os_sem.c **** #endif
 712:..\..\..\..\..\..\uCOS-III\Source/os_sem.c **** 
 713:..\..\..\..\..\..\uCOS-III\Source/os_sem.c ****    *p_err = OS_ERR_NONE;
 930              		.loc 1 713 0
 931 0032 7B68     		ldr	r3, [r7, #4]
 932 0034 0022     		movs	r2, #0
ARM GAS  C:\Users\alex\AppData\Local\Temp\ccfIfgZ4.s 			page 30


 933 0036 1A80     		strh	r2, [r3]	@ movhi
 714:..\..\..\..\..\..\uCOS-III\Source/os_sem.c ****     CPU_CRITICAL_ENTER();
 934              		.loc 1 714 0
 935 0038 FFF7FEFF 		bl	CPU_SR_Save
 936 003c 7861     		str	r0, [r7, #20]
 715:..\..\..\..\..\..\uCOS-III\Source/os_sem.c ****     if (p_sem->Ctr > (OS_SEM_CTR)0) {                       /* See if semaphore already has a count
 937              		.loc 1 715 0
 938 003e FB68     		ldr	r3, [r7, #12]
 939 0040 1B6A     		ldr	r3, [r3, #32]
 940 0042 002B     		cmp	r3, #0
 941 0044 03D0     		beq	.L83
 716:..\..\..\..\..\..\uCOS-III\Source/os_sem.c ****         p_sem->Ctr = cnt;                                   /* Yes, set it to the new value specifi
 942              		.loc 1 716 0
 943 0046 FB68     		ldr	r3, [r7, #12]
 944 0048 BA68     		ldr	r2, [r7, #8]
 945 004a 1A62     		str	r2, [r3, #32]
 946 004c 0EE0     		b	.L84
 947              	.L83:
 717:..\..\..\..\..\..\uCOS-III\Source/os_sem.c ****     } else {
 718:..\..\..\..\..\..\uCOS-III\Source/os_sem.c ****         p_pend_list = &p_sem->PendList;                     /* No                                  
 948              		.loc 1 718 0
 949 004e FB68     		ldr	r3, [r7, #12]
 950 0050 0833     		adds	r3, r3, #8
 951 0052 3B61     		str	r3, [r7, #16]
 719:..\..\..\..\..\..\uCOS-III\Source/os_sem.c ****         if (p_pend_list->NbrEntries == (OS_OBJ_QTY)0) {     /*      See if task(s) waiting?        
 952              		.loc 1 719 0
 953 0054 3B69     		ldr	r3, [r7, #16]
 954 0056 1B89     		ldrh	r3, [r3, #8]
 955 0058 002B     		cmp	r3, #0
 956 005a 03D1     		bne	.L85
 720:..\..\..\..\..\..\uCOS-III\Source/os_sem.c ****             p_sem->Ctr = cnt;                               /*      No, OK to set the value        
 957              		.loc 1 720 0
 958 005c FB68     		ldr	r3, [r7, #12]
 959 005e BA68     		ldr	r2, [r7, #8]
 960 0060 1A62     		str	r2, [r3, #32]
 961 0062 03E0     		b	.L84
 962              	.L85:
 721:..\..\..\..\..\..\uCOS-III\Source/os_sem.c ****         } else {
 722:..\..\..\..\..\..\uCOS-III\Source/os_sem.c ****            *p_err      = OS_ERR_TASK_WAITING;
 963              		.loc 1 722 0
 964 0064 7B68     		ldr	r3, [r7, #4]
 965 0066 47F25F12 		movw	r2, #29023
 966 006a 1A80     		strh	r2, [r3]	@ movhi
 967              	.L84:
 723:..\..\..\..\..\..\uCOS-III\Source/os_sem.c ****         }
 724:..\..\..\..\..\..\uCOS-III\Source/os_sem.c ****     }
 725:..\..\..\..\..\..\uCOS-III\Source/os_sem.c ****     CPU_CRITICAL_EXIT();
 968              		.loc 1 725 0
 969 006c 7869     		ldr	r0, [r7, #20]
 970 006e FFF7FEFF 		bl	CPU_SR_Restore
 971              	.L79:
 726:..\..\..\..\..\..\uCOS-III\Source/os_sem.c **** }
 972              		.loc 1 726 0
 973 0072 1837     		adds	r7, r7, #24
 974              		.cfi_def_cfa_offset 8
 975 0074 BD46     		mov	sp, r7
 976              		.cfi_def_cfa_register 13
ARM GAS  C:\Users\alex\AppData\Local\Temp\ccfIfgZ4.s 			page 31


 977              		@ sp needed
 978 0076 80BD     		pop	{r7, pc}
 979              	.L87:
 980              		.align	2
 981              	.L86:
 982 0078 00000000 		.word	OSIntNestingCtr
 983              		.cfi_endproc
 984              	.LFE5:
 985              		.size	OSSemSet, .-OSSemSet
 986              		.section	.rodata
 987              		.align	2
 988              	.LC0:
 989 0000 3F53454D 		.ascii	"?SEM\000"
 989      00
 990              		.section	.text.OS_SemClr,"ax",%progbits
 991              		.align	2
 992              		.global	OS_SemClr
 993              		.thumb
 994              		.thumb_func
 995              		.type	OS_SemClr, %function
 996              	OS_SemClr:
 997              	.LFB6:
 727:..\..\..\..\..\..\uCOS-III\Source/os_sem.c **** #endif
 728:..\..\..\..\..\..\uCOS-III\Source/os_sem.c **** 
 729:..\..\..\..\..\..\uCOS-III\Source/os_sem.c **** /*$PAGE*/
 730:..\..\..\..\..\..\uCOS-III\Source/os_sem.c **** /*
 731:..\..\..\..\..\..\uCOS-III\Source/os_sem.c **** ***************************************************************************************************
 732:..\..\..\..\..\..\uCOS-III\Source/os_sem.c **** *                                           CLEAR THE CONTENTS OF A SEMAPHORE
 733:..\..\..\..\..\..\uCOS-III\Source/os_sem.c **** *
 734:..\..\..\..\..\..\uCOS-III\Source/os_sem.c **** * Description: This function is called by OSSemDel() to clear the contents of a semaphore
 735:..\..\..\..\..\..\uCOS-III\Source/os_sem.c **** *
 736:..\..\..\..\..\..\uCOS-III\Source/os_sem.c **** 
 737:..\..\..\..\..\..\uCOS-III\Source/os_sem.c **** * Argument(s): p_sem      is a pointer to the semaphore to clear
 738:..\..\..\..\..\..\uCOS-III\Source/os_sem.c **** *              -----
 739:..\..\..\..\..\..\uCOS-III\Source/os_sem.c **** *
 740:..\..\..\..\..\..\uCOS-III\Source/os_sem.c **** * Returns    : none
 741:..\..\..\..\..\..\uCOS-III\Source/os_sem.c **** *
 742:..\..\..\..\..\..\uCOS-III\Source/os_sem.c **** * Note(s)    : 1) This function is INTERNAL to uC/OS-III and your application MUST NOT call it.
 743:..\..\..\..\..\..\uCOS-III\Source/os_sem.c **** ***************************************************************************************************
 744:..\..\..\..\..\..\uCOS-III\Source/os_sem.c **** */
 745:..\..\..\..\..\..\uCOS-III\Source/os_sem.c **** 
 746:..\..\..\..\..\..\uCOS-III\Source/os_sem.c **** void  OS_SemClr (OS_SEM  *p_sem)
 747:..\..\..\..\..\..\uCOS-III\Source/os_sem.c **** {
 998              		.loc 1 747 0
 999              		.cfi_startproc
 1000              		@ args = 0, pretend = 0, frame = 8
 1001              		@ frame_needed = 1, uses_anonymous_args = 0
 1002 0000 80B5     		push	{r7, lr}
 1003              		.cfi_def_cfa_offset 8
 1004              		.cfi_offset 7, -8
 1005              		.cfi_offset 14, -4
 1006 0002 82B0     		sub	sp, sp, #8
 1007              		.cfi_def_cfa_offset 16
 1008 0004 00AF     		add	r7, sp, #0
 1009              		.cfi_def_cfa_register 7
 1010 0006 7860     		str	r0, [r7, #4]
 748:..\..\..\..\..\..\uCOS-III\Source/os_sem.c ****     p_sem->Type    = OS_OBJ_TYPE_NONE;                      /* Mark the data structure as a NONE   
ARM GAS  C:\Users\alex\AppData\Local\Temp\ccfIfgZ4.s 			page 32


 1011              		.loc 1 748 0
 1012 0008 7B68     		ldr	r3, [r7, #4]
 1013 000a 0A4A     		ldr	r2, .L89
 1014 000c 1A60     		str	r2, [r3]
 749:..\..\..\..\..\..\uCOS-III\Source/os_sem.c ****     p_sem->Ctr     = (OS_SEM_CTR)0;                         /* Set semaphore value                 
 1015              		.loc 1 749 0
 1016 000e 7B68     		ldr	r3, [r7, #4]
 1017 0010 0022     		movs	r2, #0
 1018 0012 1A62     		str	r2, [r3, #32]
 750:..\..\..\..\..\..\uCOS-III\Source/os_sem.c ****     p_sem->TS      = (CPU_TS    )0;                         /* Clear the time stamp                
 1019              		.loc 1 750 0
 1020 0014 7B68     		ldr	r3, [r7, #4]
 1021 0016 0022     		movs	r2, #0
 1022 0018 5A62     		str	r2, [r3, #36]
 751:..\..\..\..\..\..\uCOS-III\Source/os_sem.c ****     p_sem->NamePtr = (CPU_CHAR *)((void *)"?SEM");
 1023              		.loc 1 751 0
 1024 001a 7B68     		ldr	r3, [r7, #4]
 1025 001c 064A     		ldr	r2, .L89+4
 1026 001e 5A60     		str	r2, [r3, #4]
 752:..\..\..\..\..\..\uCOS-III\Source/os_sem.c ****     OS_PendListInit(&p_sem->PendList);                      /* Initialize the waiting list         
 1027              		.loc 1 752 0
 1028 0020 7B68     		ldr	r3, [r7, #4]
 1029 0022 0833     		adds	r3, r3, #8
 1030 0024 1846     		mov	r0, r3
 1031 0026 FFF7FEFF 		bl	OS_PendListInit
 753:..\..\..\..\..\..\uCOS-III\Source/os_sem.c **** }
 1032              		.loc 1 753 0
 1033 002a 00BF     		nop
 1034 002c 0837     		adds	r7, r7, #8
 1035              		.cfi_def_cfa_offset 8
 1036 002e BD46     		mov	sp, r7
 1037              		.cfi_def_cfa_register 13
 1038              		@ sp needed
 1039 0030 80BD     		pop	{r7, pc}
 1040              	.L90:
 1041 0032 00BF     		.align	2
 1042              	.L89:
 1043 0034 4E4F4E45 		.word	1162760014
 1044 0038 00000000 		.word	.LC0
 1045              		.cfi_endproc
 1046              	.LFE6:
 1047              		.size	OS_SemClr, .-OS_SemClr
 1048              		.section	.rodata
 1049 0005 000000   		.align	2
 1050              	.LC1:
 1051 0008 2000     		.ascii	" \000"
 1052              		.section	.text.OS_SemDbgListAdd,"ax",%progbits
 1053              		.align	2
 1054              		.global	OS_SemDbgListAdd
 1055              		.thumb
 1056              		.thumb_func
 1057              		.type	OS_SemDbgListAdd, %function
 1058              	OS_SemDbgListAdd:
 1059              	.LFB7:
 754:..\..\..\..\..\..\uCOS-III\Source/os_sem.c **** 
 755:..\..\..\..\..\..\uCOS-III\Source/os_sem.c **** /*$PAGE*/
 756:..\..\..\..\..\..\uCOS-III\Source/os_sem.c **** /*
ARM GAS  C:\Users\alex\AppData\Local\Temp\ccfIfgZ4.s 			page 33


 757:..\..\..\..\..\..\uCOS-III\Source/os_sem.c **** ***************************************************************************************************
 758:..\..\..\..\..\..\uCOS-III\Source/os_sem.c **** *                                        ADD/REMOVE SEMAPHORE TO/FROM DEBUG LIST
 759:..\..\..\..\..\..\uCOS-III\Source/os_sem.c **** *
 760:..\..\..\..\..\..\uCOS-III\Source/os_sem.c **** * Description: These functions are called by uC/OS-III to add or remove a semaphore to/from the deb
 761:..\..\..\..\..\..\uCOS-III\Source/os_sem.c **** *
 762:..\..\..\..\..\..\uCOS-III\Source/os_sem.c **** * Arguments  : p_sem     is a pointer to the semaphore to add/remove
 763:..\..\..\..\..\..\uCOS-III\Source/os_sem.c **** *
 764:..\..\..\..\..\..\uCOS-III\Source/os_sem.c **** * Returns    : none
 765:..\..\..\..\..\..\uCOS-III\Source/os_sem.c **** *
 766:..\..\..\..\..\..\uCOS-III\Source/os_sem.c **** * Note(s)    : These functions are INTERNAL to uC/OS-III and your application should not call it.
 767:..\..\..\..\..\..\uCOS-III\Source/os_sem.c **** ***************************************************************************************************
 768:..\..\..\..\..\..\uCOS-III\Source/os_sem.c **** */
 769:..\..\..\..\..\..\uCOS-III\Source/os_sem.c **** 
 770:..\..\..\..\..\..\uCOS-III\Source/os_sem.c **** 
 771:..\..\..\..\..\..\uCOS-III\Source/os_sem.c **** #if OS_CFG_DBG_EN > 0u
 772:..\..\..\..\..\..\uCOS-III\Source/os_sem.c **** void  OS_SemDbgListAdd (OS_SEM  *p_sem)
 773:..\..\..\..\..\..\uCOS-III\Source/os_sem.c **** {
 1060              		.loc 1 773 0
 1061              		.cfi_startproc
 1062              		@ args = 0, pretend = 0, frame = 8
 1063              		@ frame_needed = 1, uses_anonymous_args = 0
 1064              		@ link register save eliminated.
 1065 0000 80B4     		push	{r7}
 1066              		.cfi_def_cfa_offset 4
 1067              		.cfi_offset 7, -4
 1068 0002 83B0     		sub	sp, sp, #12
 1069              		.cfi_def_cfa_offset 16
 1070 0004 00AF     		add	r7, sp, #0
 1071              		.cfi_def_cfa_register 7
 1072 0006 7860     		str	r0, [r7, #4]
 774:..\..\..\..\..\..\uCOS-III\Source/os_sem.c ****     p_sem->DbgNamePtr               = (CPU_CHAR *)((void *)" ");
 1073              		.loc 1 774 0
 1074 0008 7B68     		ldr	r3, [r7, #4]
 1075 000a 0E4A     		ldr	r2, .L94
 1076 000c DA61     		str	r2, [r3, #28]
 775:..\..\..\..\..\..\uCOS-III\Source/os_sem.c ****     p_sem->DbgPrevPtr               = (OS_SEM   *)0;
 1077              		.loc 1 775 0
 1078 000e 7B68     		ldr	r3, [r7, #4]
 1079 0010 0022     		movs	r2, #0
 1080 0012 5A61     		str	r2, [r3, #20]
 776:..\..\..\..\..\..\uCOS-III\Source/os_sem.c ****     if (OSSemDbgListPtr == (OS_SEM *)0) {
 1081              		.loc 1 776 0
 1082 0014 0C4B     		ldr	r3, .L94+4
 1083 0016 1B68     		ldr	r3, [r3]
 1084 0018 002B     		cmp	r3, #0
 1085 001a 03D1     		bne	.L92
 777:..\..\..\..\..\..\uCOS-III\Source/os_sem.c ****         p_sem->DbgNextPtr           = (OS_SEM   *)0;
 1086              		.loc 1 777 0
 1087 001c 7B68     		ldr	r3, [r7, #4]
 1088 001e 0022     		movs	r2, #0
 1089 0020 9A61     		str	r2, [r3, #24]
 1090 0022 07E0     		b	.L93
 1091              	.L92:
 778:..\..\..\..\..\..\uCOS-III\Source/os_sem.c ****     } else {
 779:..\..\..\..\..\..\uCOS-III\Source/os_sem.c ****         p_sem->DbgNextPtr           =  OSSemDbgListPtr;
 1092              		.loc 1 779 0
 1093 0024 084B     		ldr	r3, .L94+4
ARM GAS  C:\Users\alex\AppData\Local\Temp\ccfIfgZ4.s 			page 34


 1094 0026 1A68     		ldr	r2, [r3]
 1095 0028 7B68     		ldr	r3, [r7, #4]
 1096 002a 9A61     		str	r2, [r3, #24]
 780:..\..\..\..\..\..\uCOS-III\Source/os_sem.c ****         OSSemDbgListPtr->DbgPrevPtr =  p_sem;
 1097              		.loc 1 780 0
 1098 002c 064B     		ldr	r3, .L94+4
 1099 002e 1B68     		ldr	r3, [r3]
 1100 0030 7A68     		ldr	r2, [r7, #4]
 1101 0032 5A61     		str	r2, [r3, #20]
 1102              	.L93:
 781:..\..\..\..\..\..\uCOS-III\Source/os_sem.c ****     }
 782:..\..\..\..\..\..\uCOS-III\Source/os_sem.c ****     OSSemDbgListPtr                 =  p_sem;
 1103              		.loc 1 782 0
 1104 0034 044A     		ldr	r2, .L94+4
 1105 0036 7B68     		ldr	r3, [r7, #4]
 1106 0038 1360     		str	r3, [r2]
 783:..\..\..\..\..\..\uCOS-III\Source/os_sem.c **** }
 1107              		.loc 1 783 0
 1108 003a 00BF     		nop
 1109 003c 0C37     		adds	r7, r7, #12
 1110              		.cfi_def_cfa_offset 4
 1111 003e BD46     		mov	sp, r7
 1112              		.cfi_def_cfa_register 13
 1113              		@ sp needed
 1114 0040 80BC     		pop	{r7}
 1115              		.cfi_restore 7
 1116              		.cfi_def_cfa_offset 0
 1117 0042 7047     		bx	lr
 1118              	.L95:
 1119              		.align	2
 1120              	.L94:
 1121 0044 08000000 		.word	.LC1
 1122 0048 00000000 		.word	OSSemDbgListPtr
 1123              		.cfi_endproc
 1124              	.LFE7:
 1125              		.size	OS_SemDbgListAdd, .-OS_SemDbgListAdd
 1126              		.section	.text.OS_SemDbgListRemove,"ax",%progbits
 1127              		.align	2
 1128              		.global	OS_SemDbgListRemove
 1129              		.thumb
 1130              		.thumb_func
 1131              		.type	OS_SemDbgListRemove, %function
 1132              	OS_SemDbgListRemove:
 1133              	.LFB8:
 784:..\..\..\..\..\..\uCOS-III\Source/os_sem.c **** 
 785:..\..\..\..\..\..\uCOS-III\Source/os_sem.c **** 
 786:..\..\..\..\..\..\uCOS-III\Source/os_sem.c **** 
 787:..\..\..\..\..\..\uCOS-III\Source/os_sem.c **** void  OS_SemDbgListRemove (OS_SEM  *p_sem)
 788:..\..\..\..\..\..\uCOS-III\Source/os_sem.c **** {
 1134              		.loc 1 788 0
 1135              		.cfi_startproc
 1136              		@ args = 0, pretend = 0, frame = 16
 1137              		@ frame_needed = 1, uses_anonymous_args = 0
 1138              		@ link register save eliminated.
 1139 0000 80B4     		push	{r7}
 1140              		.cfi_def_cfa_offset 4
 1141              		.cfi_offset 7, -4
ARM GAS  C:\Users\alex\AppData\Local\Temp\ccfIfgZ4.s 			page 35


 1142 0002 85B0     		sub	sp, sp, #20
 1143              		.cfi_def_cfa_offset 24
 1144 0004 00AF     		add	r7, sp, #0
 1145              		.cfi_def_cfa_register 7
 1146 0006 7860     		str	r0, [r7, #4]
 789:..\..\..\..\..\..\uCOS-III\Source/os_sem.c ****     OS_SEM  *p_sem_next;
 790:..\..\..\..\..\..\uCOS-III\Source/os_sem.c ****     OS_SEM  *p_sem_prev;
 791:..\..\..\..\..\..\uCOS-III\Source/os_sem.c **** 
 792:..\..\..\..\..\..\uCOS-III\Source/os_sem.c **** 
 793:..\..\..\..\..\..\uCOS-III\Source/os_sem.c ****     p_sem_prev = p_sem->DbgPrevPtr;
 1147              		.loc 1 793 0
 1148 0008 7B68     		ldr	r3, [r7, #4]
 1149 000a 5B69     		ldr	r3, [r3, #20]
 1150 000c FB60     		str	r3, [r7, #12]
 794:..\..\..\..\..\..\uCOS-III\Source/os_sem.c ****     p_sem_next = p_sem->DbgNextPtr;
 1151              		.loc 1 794 0
 1152 000e 7B68     		ldr	r3, [r7, #4]
 1153 0010 9B69     		ldr	r3, [r3, #24]
 1154 0012 BB60     		str	r3, [r7, #8]
 795:..\..\..\..\..\..\uCOS-III\Source/os_sem.c **** 
 796:..\..\..\..\..\..\uCOS-III\Source/os_sem.c ****     if (p_sem_prev == (OS_SEM *)0) {
 1155              		.loc 1 796 0
 1156 0014 FB68     		ldr	r3, [r7, #12]
 1157 0016 002B     		cmp	r3, #0
 1158 0018 0CD1     		bne	.L97
 797:..\..\..\..\..\..\uCOS-III\Source/os_sem.c ****         OSSemDbgListPtr = p_sem_next;
 1159              		.loc 1 797 0
 1160 001a 144A     		ldr	r2, .L102
 1161 001c BB68     		ldr	r3, [r7, #8]
 1162 001e 1360     		str	r3, [r2]
 798:..\..\..\..\..\..\uCOS-III\Source/os_sem.c ****         if (p_sem_next != (OS_SEM *)0) {
 1163              		.loc 1 798 0
 1164 0020 BB68     		ldr	r3, [r7, #8]
 1165 0022 002B     		cmp	r3, #0
 1166 0024 02D0     		beq	.L98
 799:..\..\..\..\..\..\uCOS-III\Source/os_sem.c ****             p_sem_next->DbgPrevPtr = (OS_SEM *)0;
 1167              		.loc 1 799 0
 1168 0026 BB68     		ldr	r3, [r7, #8]
 1169 0028 0022     		movs	r2, #0
 1170 002a 5A61     		str	r2, [r3, #20]
 1171              	.L98:
 800:..\..\..\..\..\..\uCOS-III\Source/os_sem.c ****         }
 801:..\..\..\..\..\..\uCOS-III\Source/os_sem.c ****         p_sem->DbgNextPtr = (OS_SEM *)0;
 1172              		.loc 1 801 0
 1173 002c 7B68     		ldr	r3, [r7, #4]
 1174 002e 0022     		movs	r2, #0
 1175 0030 9A61     		str	r2, [r3, #24]
 802:..\..\..\..\..\..\uCOS-III\Source/os_sem.c **** 
 803:..\..\..\..\..\..\uCOS-III\Source/os_sem.c ****     } else if (p_sem_next == (OS_SEM *)0) {
 804:..\..\..\..\..\..\uCOS-III\Source/os_sem.c ****         p_sem_prev->DbgNextPtr = (OS_SEM *)0;
 805:..\..\..\..\..\..\uCOS-III\Source/os_sem.c ****         p_sem->DbgPrevPtr      = (OS_SEM *)0;
 806:..\..\..\..\..\..\uCOS-III\Source/os_sem.c **** 
 807:..\..\..\..\..\..\uCOS-III\Source/os_sem.c ****     } else {
 808:..\..\..\..\..\..\uCOS-III\Source/os_sem.c ****         p_sem_prev->DbgNextPtr =  p_sem_next;
 809:..\..\..\..\..\..\uCOS-III\Source/os_sem.c ****         p_sem_next->DbgPrevPtr =  p_sem_prev;
 810:..\..\..\..\..\..\uCOS-III\Source/os_sem.c ****         p_sem->DbgNextPtr      = (OS_SEM *)0;
 811:..\..\..\..\..\..\uCOS-III\Source/os_sem.c ****         p_sem->DbgPrevPtr      = (OS_SEM *)0;
ARM GAS  C:\Users\alex\AppData\Local\Temp\ccfIfgZ4.s 			page 36


 812:..\..\..\..\..\..\uCOS-III\Source/os_sem.c ****     }
 813:..\..\..\..\..\..\uCOS-III\Source/os_sem.c **** }
 1176              		.loc 1 813 0
 1177 0032 15E0     		b	.L101
 1178              	.L97:
 803:..\..\..\..\..\..\uCOS-III\Source/os_sem.c ****         p_sem_prev->DbgNextPtr = (OS_SEM *)0;
 1179              		.loc 1 803 0
 1180 0034 BB68     		ldr	r3, [r7, #8]
 1181 0036 002B     		cmp	r3, #0
 1182 0038 06D1     		bne	.L100
 804:..\..\..\..\..\..\uCOS-III\Source/os_sem.c ****         p_sem->DbgPrevPtr      = (OS_SEM *)0;
 1183              		.loc 1 804 0
 1184 003a FB68     		ldr	r3, [r7, #12]
 1185 003c 0022     		movs	r2, #0
 1186 003e 9A61     		str	r2, [r3, #24]
 805:..\..\..\..\..\..\uCOS-III\Source/os_sem.c **** 
 1187              		.loc 1 805 0
 1188 0040 7B68     		ldr	r3, [r7, #4]
 1189 0042 0022     		movs	r2, #0
 1190 0044 5A61     		str	r2, [r3, #20]
 1191              		.loc 1 813 0
 1192 0046 0BE0     		b	.L101
 1193              	.L100:
 808:..\..\..\..\..\..\uCOS-III\Source/os_sem.c ****         p_sem_next->DbgPrevPtr =  p_sem_prev;
 1194              		.loc 1 808 0
 1195 0048 FB68     		ldr	r3, [r7, #12]
 1196 004a BA68     		ldr	r2, [r7, #8]
 1197 004c 9A61     		str	r2, [r3, #24]
 809:..\..\..\..\..\..\uCOS-III\Source/os_sem.c ****         p_sem->DbgNextPtr      = (OS_SEM *)0;
 1198              		.loc 1 809 0
 1199 004e BB68     		ldr	r3, [r7, #8]
 1200 0050 FA68     		ldr	r2, [r7, #12]
 1201 0052 5A61     		str	r2, [r3, #20]
 810:..\..\..\..\..\..\uCOS-III\Source/os_sem.c ****         p_sem->DbgPrevPtr      = (OS_SEM *)0;
 1202              		.loc 1 810 0
 1203 0054 7B68     		ldr	r3, [r7, #4]
 1204 0056 0022     		movs	r2, #0
 1205 0058 9A61     		str	r2, [r3, #24]
 811:..\..\..\..\..\..\uCOS-III\Source/os_sem.c ****     }
 1206              		.loc 1 811 0
 1207 005a 7B68     		ldr	r3, [r7, #4]
 1208 005c 0022     		movs	r2, #0
 1209 005e 5A61     		str	r2, [r3, #20]
 1210              	.L101:
 1211              		.loc 1 813 0
 1212 0060 00BF     		nop
 1213 0062 1437     		adds	r7, r7, #20
 1214              		.cfi_def_cfa_offset 4
 1215 0064 BD46     		mov	sp, r7
 1216              		.cfi_def_cfa_register 13
 1217              		@ sp needed
 1218 0066 80BC     		pop	{r7}
 1219              		.cfi_restore 7
 1220              		.cfi_def_cfa_offset 0
 1221 0068 7047     		bx	lr
 1222              	.L103:
 1223 006a 00BF     		.align	2
ARM GAS  C:\Users\alex\AppData\Local\Temp\ccfIfgZ4.s 			page 37


 1224              	.L102:
 1225 006c 00000000 		.word	OSSemDbgListPtr
 1226              		.cfi_endproc
 1227              	.LFE8:
 1228              		.size	OS_SemDbgListRemove, .-OS_SemDbgListRemove
 1229              		.section	.text.OS_SemInit,"ax",%progbits
 1230              		.align	2
 1231              		.global	OS_SemInit
 1232              		.thumb
 1233              		.thumb_func
 1234              		.type	OS_SemInit, %function
 1235              	OS_SemInit:
 1236              	.LFB9:
 814:..\..\..\..\..\..\uCOS-III\Source/os_sem.c **** #endif
 815:..\..\..\..\..\..\uCOS-III\Source/os_sem.c **** 
 816:..\..\..\..\..\..\uCOS-III\Source/os_sem.c **** /*$PAGE*/
 817:..\..\..\..\..\..\uCOS-III\Source/os_sem.c **** /*
 818:..\..\..\..\..\..\uCOS-III\Source/os_sem.c **** ***************************************************************************************************
 819:..\..\..\..\..\..\uCOS-III\Source/os_sem.c **** *                                                SEMAPHORE INITIALIZATION
 820:..\..\..\..\..\..\uCOS-III\Source/os_sem.c **** *
 821:..\..\..\..\..\..\uCOS-III\Source/os_sem.c **** * Description: This function is called by OSInit() to initialize the semaphore management.
 822:..\..\..\..\..\..\uCOS-III\Source/os_sem.c **** *
 823:..\..\..\..\..\..\uCOS-III\Source/os_sem.c **** 
 824:..\..\..\..\..\..\uCOS-III\Source/os_sem.c **** * Argument(s): p_err        is a pointer to a variable that will contain an error code returned by 
 825:..\..\..\..\..\..\uCOS-III\Source/os_sem.c **** *
 826:..\..\..\..\..\..\uCOS-III\Source/os_sem.c **** *                                OS_ERR_NONE     the call was successful
 827:..\..\..\..\..\..\uCOS-III\Source/os_sem.c **** *
 828:..\..\..\..\..\..\uCOS-III\Source/os_sem.c **** * Returns    : none
 829:..\..\..\..\..\..\uCOS-III\Source/os_sem.c **** *
 830:..\..\..\..\..\..\uCOS-III\Source/os_sem.c **** * Note(s)    : 1) This function is INTERNAL to uC/OS-III and your application MUST NOT call it.
 831:..\..\..\..\..\..\uCOS-III\Source/os_sem.c **** ***************************************************************************************************
 832:..\..\..\..\..\..\uCOS-III\Source/os_sem.c **** */
 833:..\..\..\..\..\..\uCOS-III\Source/os_sem.c **** 
 834:..\..\..\..\..\..\uCOS-III\Source/os_sem.c **** void  OS_SemInit (OS_ERR  *p_err)
 835:..\..\..\..\..\..\uCOS-III\Source/os_sem.c **** {
 1237              		.loc 1 835 0
 1238              		.cfi_startproc
 1239              		@ args = 0, pretend = 0, frame = 8
 1240              		@ frame_needed = 1, uses_anonymous_args = 0
 1241              		@ link register save eliminated.
 1242 0000 80B4     		push	{r7}
 1243              		.cfi_def_cfa_offset 4
 1244              		.cfi_offset 7, -4
 1245 0002 83B0     		sub	sp, sp, #12
 1246              		.cfi_def_cfa_offset 16
 1247 0004 00AF     		add	r7, sp, #0
 1248              		.cfi_def_cfa_register 7
 1249 0006 7860     		str	r0, [r7, #4]
 836:..\..\..\..\..\..\uCOS-III\Source/os_sem.c **** #ifdef OS_SAFETY_CRITICAL
 837:..\..\..\..\..\..\uCOS-III\Source/os_sem.c ****     if (p_err == (OS_ERR *)0) {
 838:..\..\..\..\..\..\uCOS-III\Source/os_sem.c ****         OS_SAFETY_CRITICAL_EXCEPTION();
 839:..\..\..\..\..\..\uCOS-III\Source/os_sem.c ****         return;
 840:..\..\..\..\..\..\uCOS-III\Source/os_sem.c ****     }
 841:..\..\..\..\..\..\uCOS-III\Source/os_sem.c **** #endif
 842:..\..\..\..\..\..\uCOS-III\Source/os_sem.c **** 
 843:..\..\..\..\..\..\uCOS-III\Source/os_sem.c **** #if OS_CFG_DBG_EN > 0u
 844:..\..\..\..\..\..\uCOS-III\Source/os_sem.c ****     OSSemDbgListPtr = (OS_SEM *)0;
ARM GAS  C:\Users\alex\AppData\Local\Temp\ccfIfgZ4.s 			page 38


 1250              		.loc 1 844 0
 1251 0008 064B     		ldr	r3, .L105
 1252 000a 0022     		movs	r2, #0
 1253 000c 1A60     		str	r2, [r3]
 845:..\..\..\..\..\..\uCOS-III\Source/os_sem.c **** #endif
 846:..\..\..\..\..\..\uCOS-III\Source/os_sem.c **** 
 847:..\..\..\..\..\..\uCOS-III\Source/os_sem.c ****     OSSemQty        = (OS_OBJ_QTY)0;
 1254              		.loc 1 847 0
 1255 000e 064B     		ldr	r3, .L105+4
 1256 0010 0022     		movs	r2, #0
 1257 0012 1A80     		strh	r2, [r3]	@ movhi
 848:..\..\..\..\..\..\uCOS-III\Source/os_sem.c ****    *p_err           = OS_ERR_NONE;
 1258              		.loc 1 848 0
 1259 0014 7B68     		ldr	r3, [r7, #4]
 1260 0016 0022     		movs	r2, #0
 1261 0018 1A80     		strh	r2, [r3]	@ movhi
 849:..\..\..\..\..\..\uCOS-III\Source/os_sem.c **** }
 1262              		.loc 1 849 0
 1263 001a 00BF     		nop
 1264 001c 0C37     		adds	r7, r7, #12
 1265              		.cfi_def_cfa_offset 4
 1266 001e BD46     		mov	sp, r7
 1267              		.cfi_def_cfa_register 13
 1268              		@ sp needed
 1269 0020 80BC     		pop	{r7}
 1270              		.cfi_restore 7
 1271              		.cfi_def_cfa_offset 0
 1272 0022 7047     		bx	lr
 1273              	.L106:
 1274              		.align	2
 1275              	.L105:
 1276 0024 00000000 		.word	OSSemDbgListPtr
 1277 0028 00000000 		.word	OSSemQty
 1278              		.cfi_endproc
 1279              	.LFE9:
 1280              		.size	OS_SemInit, .-OS_SemInit
 1281              		.section	.text.OS_SemPost,"ax",%progbits
 1282              		.align	2
 1283              		.global	OS_SemPost
 1284              		.thumb
 1285              		.thumb_func
 1286              		.type	OS_SemPost, %function
 1287              	OS_SemPost:
 1288              	.LFB10:
 850:..\..\..\..\..\..\uCOS-III\Source/os_sem.c **** 
 851:..\..\..\..\..\..\uCOS-III\Source/os_sem.c **** /*$PAGE*/
 852:..\..\..\..\..\..\uCOS-III\Source/os_sem.c **** /*
 853:..\..\..\..\..\..\uCOS-III\Source/os_sem.c **** ***************************************************************************************************
 854:..\..\..\..\..\..\uCOS-III\Source/os_sem.c **** *                                                 POST TO A SEMAPHORE
 855:..\..\..\..\..\..\uCOS-III\Source/os_sem.c **** *
 856:..\..\..\..\..\..\uCOS-III\Source/os_sem.c **** * Description: This function signals a semaphore
 857:..\..\..\..\..\..\uCOS-III\Source/os_sem.c **** *
 858:..\..\..\..\..\..\uCOS-III\Source/os_sem.c **** * Arguments  : p_sem    is a pointer to the semaphore
 859:..\..\..\..\..\..\uCOS-III\Source/os_sem.c **** *
 860:..\..\..\..\..\..\uCOS-III\Source/os_sem.c **** *              opt      determines the type of POST performed:
 861:..\..\..\..\..\..\uCOS-III\Source/os_sem.c **** *
 862:..\..\..\..\..\..\uCOS-III\Source/os_sem.c **** *                           OS_OPT_POST_1            POST to a single waiting task
ARM GAS  C:\Users\alex\AppData\Local\Temp\ccfIfgZ4.s 			page 39


 863:..\..\..\..\..\..\uCOS-III\Source/os_sem.c **** *                           OS_OPT_POST_ALL          POST to ALL tasks that are waiting on the sema
 864:..\..\..\..\..\..\uCOS-III\Source/os_sem.c **** *
 865:..\..\..\..\..\..\uCOS-III\Source/os_sem.c **** *                           OS_OPT_POST_NO_SCHED     Do not call the scheduler
 866:..\..\..\..\..\..\uCOS-III\Source/os_sem.c **** *
 867:..\..\..\..\..\..\uCOS-III\Source/os_sem.c **** *                           Note(s): 1) OS_OPT_POST_NO_SCHED can be added with one of the other opt
 868:..\..\..\..\..\..\uCOS-III\Source/os_sem.c **** *
 869:..\..\..\..\..\..\uCOS-III\Source/os_sem.c **** *              ts       is a timestamp indicating when the post occurred.
 870:..\..\..\..\..\..\uCOS-III\Source/os_sem.c **** *
 871:..\..\..\..\..\..\uCOS-III\Source/os_sem.c **** *              p_err    is a pointer to a variable that will contain an error code returned by this
 872:..\..\..\..\..\..\uCOS-III\Source/os_sem.c **** *
 873:..\..\..\..\..\..\uCOS-III\Source/os_sem.c **** *                           OS_ERR_NONE          The call was successful and the semaphore was sign
 874:..\..\..\..\..\..\uCOS-III\Source/os_sem.c **** *                           OS_ERR_OBJ_PTR_NULL  If 'p_sem' is a NULL pointer.
 875:..\..\..\..\..\..\uCOS-III\Source/os_sem.c **** *                           OS_ERR_OBJ_TYPE      If 'p_sem' is not pointing at a semaphore
 876:..\..\..\..\..\..\uCOS-III\Source/os_sem.c **** *                           OS_ERR_SEM_OVF       If the post would cause the semaphore count to ove
 877:..\..\..\..\..\..\uCOS-III\Source/os_sem.c **** *
 878:..\..\..\..\..\..\uCOS-III\Source/os_sem.c **** * Returns    : The current value of the semaphore counter or 0 upon error.
 879:..\..\..\..\..\..\uCOS-III\Source/os_sem.c **** *
 880:..\..\..\..\..\..\uCOS-III\Source/os_sem.c **** * Note(s)    : This function is INTERNAL to uC/OS-III and your application should not call it.
 881:..\..\..\..\..\..\uCOS-III\Source/os_sem.c **** ***************************************************************************************************
 882:..\..\..\..\..\..\uCOS-III\Source/os_sem.c **** */
 883:..\..\..\..\..\..\uCOS-III\Source/os_sem.c **** 
 884:..\..\..\..\..\..\uCOS-III\Source/os_sem.c **** OS_SEM_CTR  OS_SemPost (OS_SEM  *p_sem,
 885:..\..\..\..\..\..\uCOS-III\Source/os_sem.c ****                         OS_OPT   opt,
 886:..\..\..\..\..\..\uCOS-III\Source/os_sem.c ****                         CPU_TS   ts,
 887:..\..\..\..\..\..\uCOS-III\Source/os_sem.c ****                         OS_ERR  *p_err)
 888:..\..\..\..\..\..\uCOS-III\Source/os_sem.c **** {
 1289              		.loc 1 888 0
 1290              		.cfi_startproc
 1291              		@ args = 0, pretend = 0, frame = 48
 1292              		@ frame_needed = 1, uses_anonymous_args = 0
 1293 0000 80B5     		push	{r7, lr}
 1294              		.cfi_def_cfa_offset 8
 1295              		.cfi_offset 7, -8
 1296              		.cfi_offset 14, -4
 1297 0002 8EB0     		sub	sp, sp, #56
 1298              		.cfi_def_cfa_offset 64
 1299 0004 02AF     		add	r7, sp, #8
 1300              		.cfi_def_cfa 7, 56
 1301 0006 F860     		str	r0, [r7, #12]
 1302 0008 7A60     		str	r2, [r7, #4]
 1303 000a 3B60     		str	r3, [r7]
 1304 000c 0B46     		mov	r3, r1	@ movhi
 1305 000e 7B81     		strh	r3, [r7, #10]	@ movhi
 889:..\..\..\..\..\..\uCOS-III\Source/os_sem.c ****     OS_OBJ_QTY     cnt;
 890:..\..\..\..\..\..\uCOS-III\Source/os_sem.c ****     OS_SEM_CTR     ctr;
 891:..\..\..\..\..\..\uCOS-III\Source/os_sem.c ****     OS_PEND_LIST  *p_pend_list;
 892:..\..\..\..\..\..\uCOS-III\Source/os_sem.c ****     OS_PEND_DATA  *p_pend_data;
 893:..\..\..\..\..\..\uCOS-III\Source/os_sem.c ****     OS_PEND_DATA  *p_pend_data_next;
 894:..\..\..\..\..\..\uCOS-III\Source/os_sem.c ****     OS_TCB        *p_tcb;
 895:..\..\..\..\..\..\uCOS-III\Source/os_sem.c ****     CPU_SR_ALLOC();
 1306              		.loc 1 895 0
 1307 0010 0023     		movs	r3, #0
 1308 0012 7B62     		str	r3, [r7, #36]
 896:..\..\..\..\..\..\uCOS-III\Source/os_sem.c **** 
 897:..\..\..\..\..\..\uCOS-III\Source/os_sem.c **** 
 898:..\..\..\..\..\..\uCOS-III\Source/os_sem.c **** 
 899:..\..\..\..\..\..\uCOS-III\Source/os_sem.c ****     CPU_CRITICAL_ENTER();
ARM GAS  C:\Users\alex\AppData\Local\Temp\ccfIfgZ4.s 			page 40


 1309              		.loc 1 899 0
 1310 0014 FFF7FEFF 		bl	CPU_SR_Save
 1311 0018 7862     		str	r0, [r7, #36]
 900:..\..\..\..\..\..\uCOS-III\Source/os_sem.c ****     p_pend_list = &p_sem->PendList;
 1312              		.loc 1 900 0
 1313 001a FB68     		ldr	r3, [r7, #12]
 1314 001c 0833     		adds	r3, r3, #8
 1315 001e 3B62     		str	r3, [r7, #32]
 901:..\..\..\..\..\..\uCOS-III\Source/os_sem.c ****     if (p_pend_list->NbrEntries == (OS_OBJ_QTY)0) {         /* Any task waiting on semaphore?      
 1316              		.loc 1 901 0
 1317 0020 3B6A     		ldr	r3, [r7, #32]
 1318 0022 1B89     		ldrh	r3, [r3, #8]
 1319 0024 002B     		cmp	r3, #0
 1320 0026 21D1     		bne	.L108
 902:..\..\..\..\..\..\uCOS-III\Source/os_sem.c ****         switch (sizeof(OS_SEM_CTR)) {
 903:..\..\..\..\..\..\uCOS-III\Source/os_sem.c ****             case 1u:
 904:..\..\..\..\..\..\uCOS-III\Source/os_sem.c ****                  if (p_sem->Ctr == DEF_INT_08U_MAX_VAL) {
 905:..\..\..\..\..\..\uCOS-III\Source/os_sem.c ****                      CPU_CRITICAL_EXIT();
 906:..\..\..\..\..\..\uCOS-III\Source/os_sem.c ****                     *p_err = OS_ERR_SEM_OVF;
 907:..\..\..\..\..\..\uCOS-III\Source/os_sem.c ****                      return ((OS_SEM_CTR)0);
 908:..\..\..\..\..\..\uCOS-III\Source/os_sem.c ****                  }
 909:..\..\..\..\..\..\uCOS-III\Source/os_sem.c ****                  break;
 910:..\..\..\..\..\..\uCOS-III\Source/os_sem.c **** 
 911:..\..\..\..\..\..\uCOS-III\Source/os_sem.c ****             case 2u:
 912:..\..\..\..\..\..\uCOS-III\Source/os_sem.c ****                  if (p_sem->Ctr == DEF_INT_16U_MAX_VAL) {
 913:..\..\..\..\..\..\uCOS-III\Source/os_sem.c ****                      CPU_CRITICAL_EXIT();
 914:..\..\..\..\..\..\uCOS-III\Source/os_sem.c ****                     *p_err = OS_ERR_SEM_OVF;
 915:..\..\..\..\..\..\uCOS-III\Source/os_sem.c ****                      return ((OS_SEM_CTR)0);
 916:..\..\..\..\..\..\uCOS-III\Source/os_sem.c ****                  }
 917:..\..\..\..\..\..\uCOS-III\Source/os_sem.c ****                  break;
 918:..\..\..\..\..\..\uCOS-III\Source/os_sem.c **** 
 919:..\..\..\..\..\..\uCOS-III\Source/os_sem.c ****             case 4u:
 920:..\..\..\..\..\..\uCOS-III\Source/os_sem.c ****                  if (p_sem->Ctr == DEF_INT_32U_MAX_VAL) {
 1321              		.loc 1 920 0
 1322 0028 FB68     		ldr	r3, [r7, #12]
 1323 002a 1B6A     		ldr	r3, [r3, #32]
 1324 002c B3F1FF3F 		cmp	r3, #-1
 1325 0030 08D1     		bne	.L117
 921:..\..\..\..\..\..\uCOS-III\Source/os_sem.c ****                      CPU_CRITICAL_EXIT();
 1326              		.loc 1 921 0
 1327 0032 786A     		ldr	r0, [r7, #36]
 1328 0034 FFF7FEFF 		bl	CPU_SR_Restore
 922:..\..\..\..\..\..\uCOS-III\Source/os_sem.c ****                     *p_err = OS_ERR_SEM_OVF;
 1329              		.loc 1 922 0
 1330 0038 3B68     		ldr	r3, [r7]
 1331 003a 46F6C552 		movw	r2, #28101
 1332 003e 1A80     		strh	r2, [r3]	@ movhi
 923:..\..\..\..\..\..\uCOS-III\Source/os_sem.c ****                      return ((OS_SEM_CTR)0);
 1333              		.loc 1 923 0
 1334 0040 0023     		movs	r3, #0
 1335 0042 48E0     		b	.L110
 1336              	.L117:
 924:..\..\..\..\..\..\uCOS-III\Source/os_sem.c ****                  }
 925:..\..\..\..\..\..\uCOS-III\Source/os_sem.c ****                  break;
 1337              		.loc 1 925 0
 1338 0044 00BF     		nop
 926:..\..\..\..\..\..\uCOS-III\Source/os_sem.c **** 
ARM GAS  C:\Users\alex\AppData\Local\Temp\ccfIfgZ4.s 			page 41


 927:..\..\..\..\..\..\uCOS-III\Source/os_sem.c ****             default:
 928:..\..\..\..\..\..\uCOS-III\Source/os_sem.c ****                  break;
 929:..\..\..\..\..\..\uCOS-III\Source/os_sem.c ****         }
 930:..\..\..\..\..\..\uCOS-III\Source/os_sem.c ****         p_sem->Ctr++;                                       /* No                                  
 1339              		.loc 1 930 0
 1340 0046 FB68     		ldr	r3, [r7, #12]
 1341 0048 1B6A     		ldr	r3, [r3, #32]
 1342 004a 5A1C     		adds	r2, r3, #1
 1343 004c FB68     		ldr	r3, [r7, #12]
 1344 004e 1A62     		str	r2, [r3, #32]
 931:..\..\..\..\..\..\uCOS-III\Source/os_sem.c ****         ctr       = p_sem->Ctr;
 1345              		.loc 1 931 0
 1346 0050 FB68     		ldr	r3, [r7, #12]
 1347 0052 1B6A     		ldr	r3, [r3, #32]
 1348 0054 7B61     		str	r3, [r7, #20]
 932:..\..\..\..\..\..\uCOS-III\Source/os_sem.c ****         p_sem->TS = ts;                                     /* Save timestamp in semaphore control 
 1349              		.loc 1 932 0
 1350 0056 FB68     		ldr	r3, [r7, #12]
 1351 0058 7A68     		ldr	r2, [r7, #4]
 1352 005a 5A62     		str	r2, [r3, #36]
 933:..\..\..\..\..\..\uCOS-III\Source/os_sem.c ****         CPU_CRITICAL_EXIT();
 1353              		.loc 1 933 0
 1354 005c 786A     		ldr	r0, [r7, #36]
 1355 005e FFF7FEFF 		bl	CPU_SR_Restore
 934:..\..\..\..\..\..\uCOS-III\Source/os_sem.c ****        *p_err     = OS_ERR_NONE;
 1356              		.loc 1 934 0
 1357 0062 3B68     		ldr	r3, [r7]
 1358 0064 0022     		movs	r2, #0
 1359 0066 1A80     		strh	r2, [r3]	@ movhi
 935:..\..\..\..\..\..\uCOS-III\Source/os_sem.c ****         return (ctr);
 1360              		.loc 1 935 0
 1361 0068 7B69     		ldr	r3, [r7, #20]
 1362 006a 34E0     		b	.L110
 1363              	.L108:
 936:..\..\..\..\..\..\uCOS-III\Source/os_sem.c ****     }
 937:..\..\..\..\..\..\uCOS-III\Source/os_sem.c **** 
 938:..\..\..\..\..\..\uCOS-III\Source/os_sem.c ****     OS_CRITICAL_ENTER_CPU_EXIT();
 939:..\..\..\..\..\..\uCOS-III\Source/os_sem.c ****     if ((opt & OS_OPT_POST_ALL) != (OS_OPT)0) {             /* Post message to all tasks waiting?  
 1364              		.loc 1 939 0
 1365 006c 7B89     		ldrh	r3, [r7, #10]
 1366 006e 03F40073 		and	r3, r3, #512
 1367 0072 002B     		cmp	r3, #0
 1368 0074 03D0     		beq	.L111
 940:..\..\..\..\..\..\uCOS-III\Source/os_sem.c ****         cnt = p_pend_list->NbrEntries;                      /* Yes                                 
 1369              		.loc 1 940 0
 1370 0076 3B6A     		ldr	r3, [r7, #32]
 1371 0078 1B89     		ldrh	r3, [r3, #8]	@ movhi
 1372 007a FB85     		strh	r3, [r7, #46]	@ movhi
 1373 007c 01E0     		b	.L112
 1374              	.L111:
 941:..\..\..\..\..\..\uCOS-III\Source/os_sem.c ****     } else {
 942:..\..\..\..\..\..\uCOS-III\Source/os_sem.c ****         cnt = (OS_OBJ_QTY)1;                                /* No                                  
 1375              		.loc 1 942 0
 1376 007e 0123     		movs	r3, #1
 1377 0080 FB85     		strh	r3, [r7, #46]	@ movhi
 1378              	.L112:
 943:..\..\..\..\..\..\uCOS-III\Source/os_sem.c ****     }
ARM GAS  C:\Users\alex\AppData\Local\Temp\ccfIfgZ4.s 			page 42


 944:..\..\..\..\..\..\uCOS-III\Source/os_sem.c ****     p_pend_data = p_pend_list->HeadPtr;
 1379              		.loc 1 944 0
 1380 0082 3B6A     		ldr	r3, [r7, #32]
 1381 0084 1B68     		ldr	r3, [r3]
 1382 0086 BB62     		str	r3, [r7, #40]
 945:..\..\..\..\..\..\uCOS-III\Source/os_sem.c ****     while (cnt > 0u) {
 1383              		.loc 1 945 0
 1384 0088 12E0     		b	.L113
 1385              	.L114:
 946:..\..\..\..\..\..\uCOS-III\Source/os_sem.c ****         p_tcb            = p_pend_data->TCBPtr;
 1386              		.loc 1 946 0
 1387 008a BB6A     		ldr	r3, [r7, #40]
 1388 008c 9B68     		ldr	r3, [r3, #8]
 1389 008e FB61     		str	r3, [r7, #28]
 947:..\..\..\..\..\..\uCOS-III\Source/os_sem.c ****         p_pend_data_next = p_pend_data->NextPtr;
 1390              		.loc 1 947 0
 1391 0090 BB6A     		ldr	r3, [r7, #40]
 1392 0092 5B68     		ldr	r3, [r3, #4]
 1393 0094 BB61     		str	r3, [r7, #24]
 948:..\..\..\..\..\..\uCOS-III\Source/os_sem.c ****         OS_Post((OS_PEND_OBJ *)((void *)p_sem),
 1394              		.loc 1 948 0
 1395 0096 7B68     		ldr	r3, [r7, #4]
 1396 0098 0093     		str	r3, [sp]
 1397 009a 0023     		movs	r3, #0
 1398 009c 0022     		movs	r2, #0
 1399 009e F969     		ldr	r1, [r7, #28]
 1400 00a0 F868     		ldr	r0, [r7, #12]
 1401 00a2 FFF7FEFF 		bl	OS_Post
 949:..\..\..\..\..\..\uCOS-III\Source/os_sem.c ****                 p_tcb,
 950:..\..\..\..\..\..\uCOS-III\Source/os_sem.c ****                 (void      *)0,
 951:..\..\..\..\..\..\uCOS-III\Source/os_sem.c ****                 (OS_MSG_SIZE)0,
 952:..\..\..\..\..\..\uCOS-III\Source/os_sem.c ****                 ts);
 953:..\..\..\..\..\..\uCOS-III\Source/os_sem.c ****         p_pend_data = p_pend_data_next;
 1402              		.loc 1 953 0
 1403 00a6 BB69     		ldr	r3, [r7, #24]
 1404 00a8 BB62     		str	r3, [r7, #40]
 954:..\..\..\..\..\..\uCOS-III\Source/os_sem.c ****         cnt--;
 1405              		.loc 1 954 0
 1406 00aa FB8D     		ldrh	r3, [r7, #46]
 1407 00ac 013B     		subs	r3, r3, #1
 1408 00ae FB85     		strh	r3, [r7, #46]	@ movhi
 1409              	.L113:
 945:..\..\..\..\..\..\uCOS-III\Source/os_sem.c ****         p_tcb            = p_pend_data->TCBPtr;
 1410              		.loc 1 945 0
 1411 00b0 FB8D     		ldrh	r3, [r7, #46]
 1412 00b2 002B     		cmp	r3, #0
 1413 00b4 E9D1     		bne	.L114
 955:..\..\..\..\..\..\uCOS-III\Source/os_sem.c ****     }
 956:..\..\..\..\..\..\uCOS-III\Source/os_sem.c ****     ctr = p_sem->Ctr;
 1414              		.loc 1 956 0
 1415 00b6 FB68     		ldr	r3, [r7, #12]
 1416 00b8 1B6A     		ldr	r3, [r3, #32]
 1417 00ba 7B61     		str	r3, [r7, #20]
 957:..\..\..\..\..\..\uCOS-III\Source/os_sem.c ****     OS_CRITICAL_EXIT_NO_SCHED();
 1418              		.loc 1 957 0
 1419 00bc 786A     		ldr	r0, [r7, #36]
 1420 00be FFF7FEFF 		bl	CPU_SR_Restore
ARM GAS  C:\Users\alex\AppData\Local\Temp\ccfIfgZ4.s 			page 43


 958:..\..\..\..\..\..\uCOS-III\Source/os_sem.c ****     if ((opt & OS_OPT_POST_NO_SCHED) == (OS_OPT)0) {
 1421              		.loc 1 958 0
 1422 00c2 B7F90A30 		ldrsh	r3, [r7, #10]
 1423 00c6 002B     		cmp	r3, #0
 1424 00c8 01DB     		blt	.L115
 959:..\..\..\..\..\..\uCOS-III\Source/os_sem.c ****         OSSched();                                          /* Run the scheduler                   
 1425              		.loc 1 959 0
 1426 00ca FFF7FEFF 		bl	OSSched
 1427              	.L115:
 960:..\..\..\..\..\..\uCOS-III\Source/os_sem.c ****     }
 961:..\..\..\..\..\..\uCOS-III\Source/os_sem.c ****    *p_err = OS_ERR_NONE;
 1428              		.loc 1 961 0
 1429 00ce 3B68     		ldr	r3, [r7]
 1430 00d0 0022     		movs	r2, #0
 1431 00d2 1A80     		strh	r2, [r3]	@ movhi
 962:..\..\..\..\..\..\uCOS-III\Source/os_sem.c ****     return (ctr);
 1432              		.loc 1 962 0
 1433 00d4 7B69     		ldr	r3, [r7, #20]
 1434              	.L110:
 963:..\..\..\..\..\..\uCOS-III\Source/os_sem.c **** }
 1435              		.loc 1 963 0
 1436 00d6 1846     		mov	r0, r3
 1437 00d8 3037     		adds	r7, r7, #48
 1438              		.cfi_def_cfa_offset 8
 1439 00da BD46     		mov	sp, r7
 1440              		.cfi_def_cfa_register 13
 1441              		@ sp needed
 1442 00dc 80BD     		pop	{r7, pc}
 1443              		.cfi_endproc
 1444              	.LFE10:
 1445              		.size	OS_SemPost, .-OS_SemPost
 1446 00de 00BF     		.text
 1447              	.Letext0:
 1448              		.file 2 "..\\..\\..\\..\\..\\..\\uC-CPU\\ARM-Cortex-M3\\GNU/cpu.h"
 1449              		.file 3 "..\\..\\..\\..\\..\\..\\uC-CPU/cpu_core.h"
 1450              		.file 4 "..\\..\\..\\..\\..\\..\\uCOS-III\\Source/os_type.h"
 1451              		.file 5 "..\\..\\..\\..\\..\\..\\uCOS-III\\Source/os.h"
 1452              		.section	.debug_info,"",%progbits
 1453              	.Ldebug_info0:
 1454 0000 6E100000 		.4byte	0x106e
 1455 0004 0400     		.2byte	0x4
 1456 0006 00000000 		.4byte	.Ldebug_abbrev0
 1457 000a 04       		.byte	0x4
 1458 000b 01       		.uleb128 0x1
 1459 000c 9A020000 		.4byte	.LASF312
 1460 0010 0C       		.byte	0xc
 1461 0011 64000000 		.4byte	.LASF313
 1462 0015 68070000 		.4byte	.LASF314
 1463 0019 00000000 		.4byte	.Ldebug_ranges0+0
 1464 001d 00000000 		.4byte	0
 1465 0021 00000000 		.4byte	.Ldebug_line0
 1466 0025 02       		.uleb128 0x2
 1467 0026 E2070000 		.4byte	.LASF2
 1468 002a 02       		.byte	0x2
 1469 002b 76       		.byte	0x76
 1470 002c 30000000 		.4byte	0x30
 1471 0030 03       		.uleb128 0x3
ARM GAS  C:\Users\alex\AppData\Local\Temp\ccfIfgZ4.s 			page 44


 1472 0031 01       		.byte	0x1
 1473 0032 08       		.byte	0x8
 1474 0033 5C090000 		.4byte	.LASF0
 1475 0037 03       		.uleb128 0x3
 1476 0038 01       		.byte	0x1
 1477 0039 08       		.byte	0x8
 1478 003a 52100000 		.4byte	.LASF1
 1479 003e 02       		.uleb128 0x2
 1480 003f 51060000 		.4byte	.LASF3
 1481 0043 02       		.byte	0x2
 1482 0044 78       		.byte	0x78
 1483 0045 37000000 		.4byte	0x37
 1484 0049 03       		.uleb128 0x3
 1485 004a 01       		.byte	0x1
 1486 004b 06       		.byte	0x6
 1487 004c 93110000 		.4byte	.LASF4
 1488 0050 02       		.uleb128 0x2
 1489 0051 EF0A0000 		.4byte	.LASF5
 1490 0055 02       		.byte	0x2
 1491 0056 7A       		.byte	0x7a
 1492 0057 5B000000 		.4byte	0x5b
 1493 005b 03       		.uleb128 0x3
 1494 005c 02       		.byte	0x2
 1495 005d 07       		.byte	0x7
 1496 005e B9110000 		.4byte	.LASF6
 1497 0062 03       		.uleb128 0x3
 1498 0063 02       		.byte	0x2
 1499 0064 05       		.byte	0x5
 1500 0065 E60D0000 		.4byte	.LASF7
 1501 0069 02       		.uleb128 0x2
 1502 006a D5010000 		.4byte	.LASF8
 1503 006e 02       		.byte	0x2
 1504 006f 7C       		.byte	0x7c
 1505 0070 74000000 		.4byte	0x74
 1506 0074 03       		.uleb128 0x3
 1507 0075 04       		.byte	0x4
 1508 0076 07       		.byte	0x7
 1509 0077 250F0000 		.4byte	.LASF9
 1510 007b 04       		.uleb128 0x4
 1511 007c 04       		.byte	0x4
 1512 007d 05       		.byte	0x5
 1513 007e 696E7400 		.ascii	"int\000"
 1514 0082 03       		.uleb128 0x3
 1515 0083 08       		.byte	0x8
 1516 0084 07       		.byte	0x7
 1517 0085 93050000 		.4byte	.LASF10
 1518 0089 03       		.uleb128 0x3
 1519 008a 08       		.byte	0x8
 1520 008b 05       		.byte	0x5
 1521 008c 6F0A0000 		.4byte	.LASF11
 1522 0090 03       		.uleb128 0x3
 1523 0091 04       		.byte	0x4
 1524 0092 04       		.byte	0x4
 1525 0093 F0040000 		.4byte	.LASF12
 1526 0097 03       		.uleb128 0x3
 1527 0098 08       		.byte	0x8
 1528 0099 04       		.byte	0x4
ARM GAS  C:\Users\alex\AppData\Local\Temp\ccfIfgZ4.s 			page 45


 1529 009a 38120000 		.4byte	.LASF13
 1530 009e 05       		.uleb128 0x5
 1531 009f 04       		.byte	0x4
 1532 00a0 A4000000 		.4byte	0xa4
 1533 00a4 06       		.uleb128 0x6
 1534 00a5 AF000000 		.4byte	0xaf
 1535 00a9 07       		.uleb128 0x7
 1536 00aa AF000000 		.4byte	0xaf
 1537 00ae 00       		.byte	0
 1538 00af 08       		.uleb128 0x8
 1539 00b0 04       		.byte	0x4
 1540 00b1 02       		.uleb128 0x2
 1541 00b2 BE0F0000 		.4byte	.LASF14
 1542 00b6 02       		.byte	0x2
 1543 00b7 B5       		.byte	0xb5
 1544 00b8 69000000 		.4byte	0x69
 1545 00bc 02       		.uleb128 0x2
 1546 00bd AE130000 		.4byte	.LASF15
 1547 00c1 02       		.byte	0x2
 1548 00c2 D9       		.byte	0xd9
 1549 00c3 69000000 		.4byte	0x69
 1550 00c7 02       		.uleb128 0x2
 1551 00c8 0D080000 		.4byte	.LASF16
 1552 00cc 02       		.byte	0x2
 1553 00cd DA       		.byte	0xda
 1554 00ce B1000000 		.4byte	0xb1
 1555 00d2 09       		.uleb128 0x9
 1556 00d3 A1090000 		.4byte	.LASF17
 1557 00d7 02       		.byte	0x2
 1558 00d8 2901     		.2byte	0x129
 1559 00da 69000000 		.4byte	0x69
 1560 00de 02       		.uleb128 0x2
 1561 00df B60B0000 		.4byte	.LASF18
 1562 00e3 03       		.byte	0x3
 1563 00e4 C4       		.byte	0xc4
 1564 00e5 69000000 		.4byte	0x69
 1565 00e9 02       		.uleb128 0x2
 1566 00ea 680A0000 		.4byte	.LASF19
 1567 00ee 03       		.byte	0x3
 1568 00ef C7       		.byte	0xc7
 1569 00f0 DE000000 		.4byte	0xde
 1570 00f4 02       		.uleb128 0x2
 1571 00f5 AB010000 		.4byte	.LASF20
 1572 00f9 04       		.byte	0x4
 1573 00fa 30       		.byte	0x30
 1574 00fb 50000000 		.4byte	0x50
 1575 00ff 02       		.uleb128 0x2
 1576 0100 22000000 		.4byte	.LASF21
 1577 0104 04       		.byte	0x4
 1578 0105 34       		.byte	0x34
 1579 0106 69000000 		.4byte	0x69
 1580 010a 02       		.uleb128 0x2
 1581 010b 04100000 		.4byte	.LASF22
 1582 010f 04       		.byte	0x4
 1583 0110 36       		.byte	0x36
 1584 0111 69000000 		.4byte	0x69
 1585 0115 02       		.uleb128 0x2
ARM GAS  C:\Users\alex\AppData\Local\Temp\ccfIfgZ4.s 			page 46


 1586 0116 CC110000 		.4byte	.LASF23
 1587 011a 04       		.byte	0x4
 1588 011b 38       		.byte	0x38
 1589 011c 69000000 		.4byte	0x69
 1590 0120 02       		.uleb128 0x2
 1591 0121 1A080000 		.4byte	.LASF24
 1592 0125 04       		.byte	0x4
 1593 0126 3F       		.byte	0x3f
 1594 0127 50000000 		.4byte	0x50
 1595 012b 02       		.uleb128 0x2
 1596 012c 22070000 		.4byte	.LASF25
 1597 0130 04       		.byte	0x4
 1598 0131 40       		.byte	0x40
 1599 0132 50000000 		.4byte	0x50
 1600 0136 02       		.uleb128 0x2
 1601 0137 790E0000 		.4byte	.LASF26
 1602 013b 04       		.byte	0x4
 1603 013c 42       		.byte	0x42
 1604 013d 3E000000 		.4byte	0x3e
 1605 0141 02       		.uleb128 0x2
 1606 0142 8F020000 		.4byte	.LASF27
 1607 0146 04       		.byte	0x4
 1608 0147 44       		.byte	0x44
 1609 0148 50000000 		.4byte	0x50
 1610 014c 02       		.uleb128 0x2
 1611 014d 70090000 		.4byte	.LASF28
 1612 0151 04       		.byte	0x4
 1613 0152 45       		.byte	0x45
 1614 0153 69000000 		.4byte	0x69
 1615 0157 02       		.uleb128 0x2
 1616 0158 A6100000 		.4byte	.LASF29
 1617 015c 04       		.byte	0x4
 1618 015d 47       		.byte	0x47
 1619 015e 50000000 		.4byte	0x50
 1620 0162 02       		.uleb128 0x2
 1621 0163 E8040000 		.4byte	.LASF30
 1622 0167 04       		.byte	0x4
 1623 0168 49       		.byte	0x49
 1624 0169 3E000000 		.4byte	0x3e
 1625 016d 02       		.uleb128 0x2
 1626 016e B9060000 		.4byte	.LASF31
 1627 0172 04       		.byte	0x4
 1628 0173 4F       		.byte	0x4f
 1629 0174 69000000 		.4byte	0x69
 1630 0178 02       		.uleb128 0x2
 1631 0179 EC0B0000 		.4byte	.LASF32
 1632 017d 04       		.byte	0x4
 1633 017e 52       		.byte	0x52
 1634 017f 69000000 		.4byte	0x69
 1635 0183 02       		.uleb128 0x2
 1636 0184 95100000 		.4byte	.LASF33
 1637 0188 04       		.byte	0x4
 1638 0189 54       		.byte	0x54
 1639 018a 3E000000 		.4byte	0x3e
 1640 018e 02       		.uleb128 0x2
 1641 018f DA060000 		.4byte	.LASF34
 1642 0193 04       		.byte	0x4
ARM GAS  C:\Users\alex\AppData\Local\Temp\ccfIfgZ4.s 			page 47


 1643 0194 56       		.byte	0x56
 1644 0195 3E000000 		.4byte	0x3e
 1645 0199 02       		.uleb128 0x2
 1646 019a 620B0000 		.4byte	.LASF35
 1647 019e 04       		.byte	0x4
 1648 019f 58       		.byte	0x58
 1649 01a0 69000000 		.4byte	0x69
 1650 01a4 0A       		.uleb128 0xa
 1651 01a5 6F010000 		.4byte	.LASF315
 1652 01a9 02       		.byte	0x2
 1653 01aa 5B000000 		.4byte	0x5b
 1654 01ae 05       		.byte	0x5
 1655 01af A501     		.2byte	0x1a5
 1656 01b1 1C060000 		.4byte	0x61c
 1657 01b5 0B       		.uleb128 0xb
 1658 01b6 F5110000 		.4byte	.LASF36
 1659 01ba 00       		.byte	0
 1660 01bb 0C       		.uleb128 0xc
 1661 01bc 5B000000 		.4byte	.LASF37
 1662 01c0 1027     		.2byte	0x2710
 1663 01c2 0C       		.uleb128 0xc
 1664 01c3 8D030000 		.4byte	.LASF38
 1665 01c7 1127     		.2byte	0x2711
 1666 01c9 0C       		.uleb128 0xc
 1667 01ca 15100000 		.4byte	.LASF39
 1668 01ce F82A     		.2byte	0x2af8
 1669 01d0 0C       		.uleb128 0xc
 1670 01d1 8F000000 		.4byte	.LASF40
 1671 01d5 E02E     		.2byte	0x2ee0
 1672 01d7 0C       		.uleb128 0xc
 1673 01d8 93010000 		.4byte	.LASF41
 1674 01dc E12E     		.2byte	0x2ee1
 1675 01de 0C       		.uleb128 0xc
 1676 01df 98000000 		.4byte	.LASF42
 1677 01e3 C832     		.2byte	0x32c8
 1678 01e5 0C       		.uleb128 0xc
 1679 01e6 2C090000 		.4byte	.LASF43
 1680 01ea C932     		.2byte	0x32c9
 1681 01ec 0C       		.uleb128 0xc
 1682 01ed A1000000 		.4byte	.LASF44
 1683 01f1 B036     		.2byte	0x36b0
 1684 01f3 0C       		.uleb128 0xc
 1685 01f4 AA000000 		.4byte	.LASF45
 1686 01f8 983A     		.2byte	0x3a98
 1687 01fa 0C       		.uleb128 0xc
 1688 01fb A5110000 		.4byte	.LASF46
 1689 01ff 993A     		.2byte	0x3a99
 1690 0201 0C       		.uleb128 0xc
 1691 0202 9C080000 		.4byte	.LASF47
 1692 0206 FD3A     		.2byte	0x3afd
 1693 0208 0C       		.uleb128 0xc
 1694 0209 730F0000 		.4byte	.LASF48
 1695 020d FE3A     		.2byte	0x3afe
 1696 020f 0C       		.uleb128 0xc
 1697 0210 7D0A0000 		.4byte	.LASF49
 1698 0214 FF3A     		.2byte	0x3aff
 1699 0216 0C       		.uleb128 0xc
ARM GAS  C:\Users\alex\AppData\Local\Temp\ccfIfgZ4.s 			page 48


 1700 0217 22120000 		.4byte	.LASF50
 1701 021b 003B     		.2byte	0x3b00
 1702 021d 0C       		.uleb128 0xc
 1703 021e B3000000 		.4byte	.LASF51
 1704 0222 803E     		.2byte	0x3e80
 1705 0224 0C       		.uleb128 0xc
 1706 0225 BC000000 		.4byte	.LASF52
 1707 0229 6842     		.2byte	0x4268
 1708 022b 0C       		.uleb128 0xc
 1709 022c C5000000 		.4byte	.LASF53
 1710 0230 5046     		.2byte	0x4650
 1711 0232 0C       		.uleb128 0xc
 1712 0233 87040000 		.4byte	.LASF54
 1713 0237 5146     		.2byte	0x4651
 1714 0239 0C       		.uleb128 0xc
 1715 023a 61030000 		.4byte	.LASF55
 1716 023e 5246     		.2byte	0x4652
 1717 0240 0C       		.uleb128 0xc
 1718 0241 52040000 		.4byte	.LASF56
 1719 0245 5346     		.2byte	0x4653
 1720 0247 0C       		.uleb128 0xc
 1721 0248 81010000 		.4byte	.LASF57
 1722 024c 5446     		.2byte	0x4654
 1723 024e 0C       		.uleb128 0xc
 1724 024f 41110000 		.4byte	.LASF58
 1725 0253 5546     		.2byte	0x4655
 1726 0255 0C       		.uleb128 0xc
 1727 0256 B10C0000 		.4byte	.LASF59
 1728 025a 5646     		.2byte	0x4656
 1729 025c 0C       		.uleb128 0xc
 1730 025d CE000000 		.4byte	.LASF60
 1731 0261 384A     		.2byte	0x4a38
 1732 0263 0C       		.uleb128 0xc
 1733 0264 D7000000 		.4byte	.LASF61
 1734 0268 204E     		.2byte	0x4e20
 1735 026a 0C       		.uleb128 0xc
 1736 026b E0000000 		.4byte	.LASF62
 1737 026f 0852     		.2byte	0x5208
 1738 0271 0C       		.uleb128 0xc
 1739 0272 B60D0000 		.4byte	.LASF63
 1740 0276 0952     		.2byte	0x5209
 1741 0278 0C       		.uleb128 0xc
 1742 0279 E9000000 		.4byte	.LASF64
 1743 027d F055     		.2byte	0x55f0
 1744 027f 0C       		.uleb128 0xc
 1745 0280 B9100000 		.4byte	.LASF65
 1746 0284 B956     		.2byte	0x56b9
 1747 0286 0C       		.uleb128 0xc
 1748 0287 6A0B0000 		.4byte	.LASF66
 1749 028b BA56     		.2byte	0x56ba
 1750 028d 0C       		.uleb128 0xc
 1751 028e 960D0000 		.4byte	.LASF67
 1752 0292 BB56     		.2byte	0x56bb
 1753 0294 0C       		.uleb128 0xc
 1754 0295 B5080000 		.4byte	.LASF68
 1755 0299 BC56     		.2byte	0x56bc
 1756 029b 0C       		.uleb128 0xc
ARM GAS  C:\Users\alex\AppData\Local\Temp\ccfIfgZ4.s 			page 49


 1757 029c 160B0000 		.4byte	.LASF69
 1758 02a0 BD56     		.2byte	0x56bd
 1759 02a2 0C       		.uleb128 0xc
 1760 02a3 7D0D0000 		.4byte	.LASF70
 1761 02a7 BE56     		.2byte	0x56be
 1762 02a9 0C       		.uleb128 0xc
 1763 02aa 9D0B0000 		.4byte	.LASF71
 1764 02ae BF56     		.2byte	0x56bf
 1765 02b0 0C       		.uleb128 0xc
 1766 02b1 31050000 		.4byte	.LASF72
 1767 02b5 C056     		.2byte	0x56c0
 1768 02b7 0C       		.uleb128 0xc
 1769 02b8 B4120000 		.4byte	.LASF73
 1770 02bc C156     		.2byte	0x56c1
 1771 02be 0C       		.uleb128 0xc
 1772 02bf 96130000 		.4byte	.LASF74
 1773 02c3 C256     		.2byte	0x56c2
 1774 02c5 0C       		.uleb128 0xc
 1775 02c6 FB0D0000 		.4byte	.LASF75
 1776 02ca 1D57     		.2byte	0x571d
 1777 02cc 0C       		.uleb128 0xc
 1778 02cd 600E0000 		.4byte	.LASF76
 1779 02d1 1E57     		.2byte	0x571e
 1780 02d3 0C       		.uleb128 0xc
 1781 02d4 0B070000 		.4byte	.LASF77
 1782 02d8 8157     		.2byte	0x5781
 1783 02da 0C       		.uleb128 0xc
 1784 02db 3A0F0000 		.4byte	.LASF78
 1785 02df 8257     		.2byte	0x5782
 1786 02e1 0C       		.uleb128 0xc
 1787 02e2 B7030000 		.4byte	.LASF79
 1788 02e6 8357     		.2byte	0x5783
 1789 02e8 0C       		.uleb128 0xc
 1790 02e9 F2000000 		.4byte	.LASF80
 1791 02ed D859     		.2byte	0x59d8
 1792 02ef 0C       		.uleb128 0xc
 1793 02f0 C0060000 		.4byte	.LASF81
 1794 02f4 D959     		.2byte	0x59d9
 1795 02f6 0C       		.uleb128 0xc
 1796 02f7 0B050000 		.4byte	.LASF82
 1797 02fb DA59     		.2byte	0x59da
 1798 02fd 0C       		.uleb128 0xc
 1799 02fe FB000000 		.4byte	.LASF83
 1800 0302 C05D     		.2byte	0x5dc0
 1801 0304 0C       		.uleb128 0xc
 1802 0305 1E040000 		.4byte	.LASF84
 1803 0309 C15D     		.2byte	0x5dc1
 1804 030b 0C       		.uleb128 0xc
 1805 030c 590A0000 		.4byte	.LASF85
 1806 0310 C25D     		.2byte	0x5dc2
 1807 0312 0C       		.uleb128 0xc
 1808 0313 2E0B0000 		.4byte	.LASF86
 1809 0317 C35D     		.2byte	0x5dc3
 1810 0319 0C       		.uleb128 0xc
 1811 031a C80E0000 		.4byte	.LASF87
 1812 031e C45D     		.2byte	0x5dc4
 1813 0320 0C       		.uleb128 0xc
ARM GAS  C:\Users\alex\AppData\Local\Temp\ccfIfgZ4.s 			page 50


 1814 0321 8E090000 		.4byte	.LASF88
 1815 0325 255E     		.2byte	0x5e25
 1816 0327 0C       		.uleb128 0xc
 1817 0328 2E0D0000 		.4byte	.LASF89
 1818 032c 895E     		.2byte	0x5e89
 1819 032e 0C       		.uleb128 0xc
 1820 032f 25080000 		.4byte	.LASF90
 1821 0333 8A5E     		.2byte	0x5e8a
 1822 0335 0C       		.uleb128 0xc
 1823 0336 04010000 		.4byte	.LASF91
 1824 033a A861     		.2byte	0x61a8
 1825 033c 0C       		.uleb128 0xc
 1826 033d 3F120000 		.4byte	.LASF92
 1827 0341 A961     		.2byte	0x61a9
 1828 0343 0C       		.uleb128 0xc
 1829 0344 A80F0000 		.4byte	.LASF93
 1830 0348 AA61     		.2byte	0x61aa
 1831 034a 0C       		.uleb128 0xc
 1832 034b 0E0F0000 		.4byte	.LASF94
 1833 034f AB61     		.2byte	0x61ab
 1834 0351 0C       		.uleb128 0xc
 1835 0352 D80A0000 		.4byte	.LASF95
 1836 0356 AC61     		.2byte	0x61ac
 1837 0358 0C       		.uleb128 0xc
 1838 0359 7E120000 		.4byte	.LASF96
 1839 035d AD61     		.2byte	0x61ad
 1840 035f 0C       		.uleb128 0xc
 1841 0360 EE100000 		.4byte	.LASF97
 1842 0364 AE61     		.2byte	0x61ae
 1843 0366 0C       		.uleb128 0xc
 1844 0367 7C020000 		.4byte	.LASF98
 1845 036b AF61     		.2byte	0x61af
 1846 036d 0C       		.uleb128 0xc
 1847 036e 1F020000 		.4byte	.LASF99
 1848 0372 B061     		.2byte	0x61b0
 1849 0374 0C       		.uleb128 0xc
 1850 0375 F6040000 		.4byte	.LASF100
 1851 0379 0D62     		.2byte	0x620d
 1852 037b 0C       		.uleb128 0xc
 1853 037c C70F0000 		.4byte	.LASF101
 1854 0380 0E62     		.2byte	0x620e
 1855 0382 0C       		.uleb128 0xc
 1856 0383 7B130000 		.4byte	.LASF102
 1857 0387 7162     		.2byte	0x6271
 1858 0389 0C       		.uleb128 0xc
 1859 038a 72120000 		.4byte	.LASF103
 1860 038e 7262     		.2byte	0x6272
 1861 0390 0C       		.uleb128 0xc
 1862 0391 07000000 		.4byte	.LASF104
 1863 0395 7362     		.2byte	0x6273
 1864 0397 0C       		.uleb128 0xc
 1865 0398 FE0C0000 		.4byte	.LASF105
 1866 039c D562     		.2byte	0x62d5
 1867 039e 0C       		.uleb128 0xc
 1868 039f 0D010000 		.4byte	.LASF106
 1869 03a3 9065     		.2byte	0x6590
 1870 03a5 0C       		.uleb128 0xc
ARM GAS  C:\Users\alex\AppData\Local\Temp\ccfIfgZ4.s 			page 51


 1871 03a6 33110000 		.4byte	.LASF107
 1872 03aa 9165     		.2byte	0x6591
 1873 03ac 0C       		.uleb128 0xc
 1874 03ad 89060000 		.4byte	.LASF108
 1875 03b1 9265     		.2byte	0x6592
 1876 03b3 0C       		.uleb128 0xc
 1877 03b4 3B090000 		.4byte	.LASF109
 1878 03b8 9365     		.2byte	0x6593
 1879 03ba 0C       		.uleb128 0xc
 1880 03bb AD0A0000 		.4byte	.LASF110
 1881 03bf 9465     		.2byte	0x6594
 1882 03c1 0C       		.uleb128 0xc
 1883 03c2 16010000 		.4byte	.LASF111
 1884 03c6 7869     		.2byte	0x6978
 1885 03c8 0C       		.uleb128 0xc
 1886 03c9 420B0000 		.4byte	.LASF112
 1887 03cd 7969     		.2byte	0x6979
 1888 03cf 0C       		.uleb128 0xc
 1889 03d0 680D0000 		.4byte	.LASF113
 1890 03d4 7A69     		.2byte	0x697a
 1891 03d6 0C       		.uleb128 0xc
 1892 03d7 FA0A0000 		.4byte	.LASF114
 1893 03db 7B69     		.2byte	0x697b
 1894 03dd 0C       		.uleb128 0xc
 1895 03de 1F010000 		.4byte	.LASF115
 1896 03e2 606D     		.2byte	0x6d60
 1897 03e4 0C       		.uleb128 0xc
 1898 03e5 A8090000 		.4byte	.LASF116
 1899 03e9 616D     		.2byte	0x6d61
 1900 03eb 0C       		.uleb128 0xc
 1901 03ec 16090000 		.4byte	.LASF117
 1902 03f0 626D     		.2byte	0x6d62
 1903 03f2 0C       		.uleb128 0xc
 1904 03f3 0E120000 		.4byte	.LASF118
 1905 03f7 636D     		.2byte	0x6d63
 1906 03f9 0C       		.uleb128 0xc
 1907 03fa 5A120000 		.4byte	.LASF119
 1908 03fe 646D     		.2byte	0x6d64
 1909 0400 0C       		.uleb128 0xc
 1910 0401 110E0000 		.4byte	.LASF120
 1911 0405 656D     		.2byte	0x6d65
 1912 0407 0C       		.uleb128 0xc
 1913 0408 04130000 		.4byte	.LASF121
 1914 040c C56D     		.2byte	0x6dc5
 1915 040e 0C       		.uleb128 0xc
 1916 040f E2120000 		.4byte	.LASF122
 1917 0413 C66D     		.2byte	0x6dc6
 1918 0415 0C       		.uleb128 0xc
 1919 0416 66020000 		.4byte	.LASF123
 1920 041a 296E     		.2byte	0x6e29
 1921 041c 0C       		.uleb128 0xc
 1922 041d EF090000 		.4byte	.LASF124
 1923 0421 2A6E     		.2byte	0x6e2a
 1924 0423 0C       		.uleb128 0xc
 1925 0424 84080000 		.4byte	.LASF125
 1926 0428 2B6E     		.2byte	0x6e2b
 1927 042a 0C       		.uleb128 0xc
ARM GAS  C:\Users\alex\AppData\Local\Temp\ccfIfgZ4.s 			page 52


 1928 042b 560F0000 		.4byte	.LASF126
 1929 042f 2C6E     		.2byte	0x6e2c
 1930 0431 0C       		.uleb128 0xc
 1931 0432 110D0000 		.4byte	.LASF127
 1932 0436 2D6E     		.2byte	0x6e2d
 1933 0438 0C       		.uleb128 0xc
 1934 0439 CF100000 		.4byte	.LASF128
 1935 043d 2E6E     		.2byte	0x6e2e
 1936 043f 0C       		.uleb128 0xc
 1937 0440 EC010000 		.4byte	.LASF129
 1938 0444 2F6E     		.2byte	0x6e2f
 1939 0446 0C       		.uleb128 0xc
 1940 0447 27100000 		.4byte	.LASF130
 1941 044b 306E     		.2byte	0x6e30
 1942 044d 0C       		.uleb128 0xc
 1943 044e EB0F0000 		.4byte	.LASF131
 1944 0452 316E     		.2byte	0x6e31
 1945 0454 0C       		.uleb128 0xc
 1946 0455 28010000 		.4byte	.LASF132
 1947 0459 4871     		.2byte	0x7148
 1948 045b 0C       		.uleb128 0xc
 1949 045c 40020000 		.4byte	.LASF133
 1950 0460 4971     		.2byte	0x7149
 1951 0462 0C       		.uleb128 0xc
 1952 0463 F6070000 		.4byte	.LASF134
 1953 0467 4A71     		.2byte	0x714a
 1954 0469 0C       		.uleb128 0xc
 1955 046a 76110000 		.4byte	.LASF135
 1956 046e 4B71     		.2byte	0x714b
 1957 0470 0C       		.uleb128 0xc
 1958 0471 13130000 		.4byte	.LASF136
 1959 0475 4C71     		.2byte	0x714c
 1960 0477 0C       		.uleb128 0xc
 1961 0478 12060000 		.4byte	.LASF137
 1962 047c 4D71     		.2byte	0x714d
 1963 047e 0C       		.uleb128 0xc
 1964 047f DE0C0000 		.4byte	.LASF138
 1965 0483 4E71     		.2byte	0x714e
 1966 0485 0C       		.uleb128 0xc
 1967 0486 5D0C0000 		.4byte	.LASF139
 1968 048a 4F71     		.2byte	0x714f
 1969 048c 0C       		.uleb128 0xc
 1970 048d 7A0B0000 		.4byte	.LASF140
 1971 0491 5071     		.2byte	0x7150
 1972 0493 0C       		.uleb128 0xc
 1973 0494 42030000 		.4byte	.LASF141
 1974 0498 5171     		.2byte	0x7151
 1975 049a 0C       		.uleb128 0xc
 1976 049b 360C0000 		.4byte	.LASF142
 1977 049f 5271     		.2byte	0x7152
 1978 04a1 0C       		.uleb128 0xc
 1979 04a2 28030000 		.4byte	.LASF143
 1980 04a6 5371     		.2byte	0x7153
 1981 04a8 0C       		.uleb128 0xc
 1982 04a9 60100000 		.4byte	.LASF144
 1983 04ad 5471     		.2byte	0x7154
 1984 04af 0C       		.uleb128 0xc
ARM GAS  C:\Users\alex\AppData\Local\Temp\ccfIfgZ4.s 			page 53


 1985 04b0 08020000 		.4byte	.LASF145
 1986 04b4 5571     		.2byte	0x7155
 1987 04b6 0C       		.uleb128 0xc
 1988 04b7 D0040000 		.4byte	.LASF146
 1989 04bb 5671     		.2byte	0x7156
 1990 04bd 0C       		.uleb128 0xc
 1991 04be 9B0E0000 		.4byte	.LASF147
 1992 04c2 5771     		.2byte	0x7157
 1993 04c4 0C       		.uleb128 0xc
 1994 04c5 AA050000 		.4byte	.LASF148
 1995 04c9 5871     		.2byte	0x7158
 1996 04cb 0C       		.uleb128 0xc
 1997 04cc CE0D0000 		.4byte	.LASF149
 1998 04d0 5971     		.2byte	0x7159
 1999 04d2 0C       		.uleb128 0xc
 2000 04d3 CC120000 		.4byte	.LASF150
 2001 04d7 5A71     		.2byte	0x715a
 2002 04d9 0C       		.uleb128 0xc
 2003 04da 39040000 		.4byte	.LASF151
 2004 04de 5B71     		.2byte	0x715b
 2005 04e0 0C       		.uleb128 0xc
 2006 04e1 F2050000 		.4byte	.LASF152
 2007 04e5 5C71     		.2byte	0x715c
 2008 04e7 0C       		.uleb128 0xc
 2009 04e8 9F030000 		.4byte	.LASF153
 2010 04ec 5D71     		.2byte	0x715d
 2011 04ee 0C       		.uleb128 0xc
 2012 04ef 8E0C0000 		.4byte	.LASF154
 2013 04f3 5E71     		.2byte	0x715e
 2014 04f5 0C       		.uleb128 0xc
 2015 04f6 79030000 		.4byte	.LASF155
 2016 04fa 5F71     		.2byte	0x715f
 2017 04fc 0C       		.uleb128 0xc
 2018 04fd 63060000 		.4byte	.LASF156
 2019 0501 AD71     		.2byte	0x71ad
 2020 0503 0C       		.uleb128 0xc
 2021 0504 7D050000 		.4byte	.LASF157
 2022 0508 C071     		.2byte	0x71c0
 2023 050a 0C       		.uleb128 0xc
 2024 050b CF0C0000 		.4byte	.LASF158
 2025 050f C171     		.2byte	0x71c1
 2026 0511 0C       		.uleb128 0xc
 2027 0512 DC110000 		.4byte	.LASF159
 2028 0516 C271     		.2byte	0x71c2
 2029 0518 0C       		.uleb128 0xc
 2030 0519 7C090000 		.4byte	.LASF160
 2031 051d C371     		.2byte	0x71c3
 2032 051f 0C       		.uleb128 0xc
 2033 0520 EE060000 		.4byte	.LASF161
 2034 0524 C471     		.2byte	0x71c4
 2035 0526 0C       		.uleb128 0xc
 2036 0527 62130000 		.4byte	.LASF162
 2037 052b 1172     		.2byte	0x7211
 2038 052d 0C       		.uleb128 0xc
 2039 052e 480E0000 		.4byte	.LASF163
 2040 0532 1272     		.2byte	0x7212
 2041 0534 0C       		.uleb128 0xc
ARM GAS  C:\Users\alex\AppData\Local\Temp\ccfIfgZ4.s 			page 54


 2042 0535 B8010000 		.4byte	.LASF164
 2043 0539 1372     		.2byte	0x7213
 2044 053b 0C       		.uleb128 0xc
 2045 053c 130C0000 		.4byte	.LASF165
 2046 0540 1472     		.2byte	0x7214
 2047 0542 0C       		.uleb128 0xc
 2048 0543 D70F0000 		.4byte	.LASF166
 2049 0547 7572     		.2byte	0x7275
 2050 0549 0C       		.uleb128 0xc
 2051 054a 47130000 		.4byte	.LASF167
 2052 054e 7672     		.2byte	0x7276
 2053 0550 0C       		.uleb128 0xc
 2054 0551 28130000 		.4byte	.LASF168
 2055 0555 7772     		.2byte	0x7277
 2056 0557 0C       		.uleb128 0xc
 2057 0558 2E070000 		.4byte	.LASF169
 2058 055c 7872     		.2byte	0x7278
 2059 055e 0C       		.uleb128 0xc
 2060 055f 3F000000 		.4byte	.LASF170
 2061 0563 7972     		.2byte	0x7279
 2062 0565 0C       		.uleb128 0xc
 2063 0566 5A110000 		.4byte	.LASF171
 2064 056a 7A72     		.2byte	0x727a
 2065 056c 0C       		.uleb128 0xc
 2066 056d 98060000 		.4byte	.LASF172
 2067 0571 7B72     		.2byte	0x727b
 2068 0573 0C       		.uleb128 0xc
 2069 0574 080A0000 		.4byte	.LASF173
 2070 0578 7C72     		.2byte	0x727c
 2071 057a 0C       		.uleb128 0xc
 2072 057b 540D0000 		.4byte	.LASF174
 2073 057f 7D72     		.2byte	0x727d
 2074 0581 0C       		.uleb128 0xc
 2075 0582 5A080000 		.4byte	.LASF175
 2076 0586 7E72     		.2byte	0x727e
 2077 0588 0C       		.uleb128 0xc
 2078 0589 86100000 		.4byte	.LASF176
 2079 058d D972     		.2byte	0x72d9
 2080 058f 0C       		.uleb128 0xc
 2081 0590 69050000 		.4byte	.LASF177
 2082 0594 3D73     		.2byte	0x733d
 2083 0596 0C       		.uleb128 0xc
 2084 0597 FE080000 		.4byte	.LASF178
 2085 059b 3E73     		.2byte	0x733e
 2086 059d 0C       		.uleb128 0xc
 2087 059e B0040000 		.4byte	.LASF179
 2088 05a2 3F73     		.2byte	0x733f
 2089 05a4 0C       		.uleb128 0xc
 2090 05a5 55010000 		.4byte	.LASF180
 2091 05a9 4073     		.2byte	0x7340
 2092 05ab 0C       		.uleb128 0xc
 2093 05ac E1030000 		.4byte	.LASF181
 2094 05b0 4173     		.2byte	0x7341
 2095 05b2 0C       		.uleb128 0xc
 2096 05b3 D2050000 		.4byte	.LASF182
 2097 05b7 4273     		.2byte	0x7342
 2098 05b9 0C       		.uleb128 0xc
ARM GAS  C:\Users\alex\AppData\Local\Temp\ccfIfgZ4.s 			page 55


 2099 05ba 30000000 		.4byte	.LASF183
 2100 05be 4373     		.2byte	0x7343
 2101 05c0 0C       		.uleb128 0xc
 2102 05c1 52050000 		.4byte	.LASF184
 2103 05c5 4473     		.2byte	0x7344
 2104 05c7 0C       		.uleb128 0xc
 2105 05c8 53070000 		.4byte	.LASF185
 2106 05cc 4573     		.2byte	0x7345
 2107 05ce 0C       		.uleb128 0xc
 2108 05cf 710C0000 		.4byte	.LASF186
 2109 05d3 4673     		.2byte	0x7346
 2110 05d5 0C       		.uleb128 0xc
 2111 05d6 3A060000 		.4byte	.LASF187
 2112 05da 4773     		.2byte	0x7347
 2113 05dc 0C       		.uleb128 0xc
 2114 05dd F70B0000 		.4byte	.LASF188
 2115 05e1 4873     		.2byte	0x7348
 2116 05e3 0C       		.uleb128 0xc
 2117 05e4 3F100000 		.4byte	.LASF189
 2118 05e8 4973     		.2byte	0x7349
 2119 05ea 0C       		.uleb128 0xc
 2120 05eb 31010000 		.4byte	.LASF190
 2121 05ef 3075     		.2byte	0x7530
 2122 05f1 0C       		.uleb128 0xc
 2123 05f2 3A010000 		.4byte	.LASF191
 2124 05f6 1879     		.2byte	0x7918
 2125 05f8 0C       		.uleb128 0xc
 2126 05f9 43010000 		.4byte	.LASF192
 2127 05fd 007D     		.2byte	0x7d00
 2128 05ff 0C       		.uleb128 0xc
 2129 0600 4C010000 		.4byte	.LASF193
 2130 0604 E880     		.2byte	0x80e8
 2131 0606 0C       		.uleb128 0xc
 2132 0607 E5100000 		.4byte	.LASF194
 2133 060b D084     		.2byte	0x84d0
 2134 060d 0C       		.uleb128 0xc
 2135 060e 480A0000 		.4byte	.LASF195
 2136 0612 D184     		.2byte	0x84d1
 2137 0614 0C       		.uleb128 0xc
 2138 0615 FE100000 		.4byte	.LASF196
 2139 0619 B888     		.2byte	0x88b8
 2140 061b 00       		.byte	0
 2141 061c 09       		.uleb128 0x9
 2142 061d 1B000000 		.4byte	.LASF197
 2143 0621 05       		.byte	0x5
 2144 0622 7202     		.2byte	0x272
 2145 0624 A4010000 		.4byte	0x1a4
 2146 0628 09       		.uleb128 0x9
 2147 0629 F0080000 		.4byte	.LASF198
 2148 062d 05       		.byte	0x5
 2149 062e 8202     		.2byte	0x282
 2150 0630 34060000 		.4byte	0x634
 2151 0634 0D       		.uleb128 0xd
 2152 0635 5C060000 		.4byte	.LASF204
 2153 0639 10       		.byte	0x10
 2154 063a 05       		.byte	0x5
 2155 063b 4003     		.2byte	0x340
ARM GAS  C:\Users\alex\AppData\Local\Temp\ccfIfgZ4.s 			page 56


 2156 063d 76060000 		.4byte	0x676
 2157 0641 0E       		.uleb128 0xe
 2158 0642 260D0000 		.4byte	.LASF199
 2159 0646 05       		.byte	0x5
 2160 0647 4103     		.2byte	0x341
 2161 0649 920B0000 		.4byte	0xb92
 2162 064d 00       		.byte	0
 2163 064e 0E       		.uleb128 0xe
 2164 064f D5110000 		.4byte	.LASF200
 2165 0653 05       		.byte	0x5
 2166 0654 4203     		.2byte	0x342
 2167 0656 AF000000 		.4byte	0xaf
 2168 065a 04       		.byte	0x4
 2169 065b 0E       		.uleb128 0xe
 2170 065c 320F0000 		.4byte	.LASF201
 2171 0660 05       		.byte	0x5
 2172 0661 4303     		.2byte	0x343
 2173 0663 2B010000 		.4byte	0x12b
 2174 0667 08       		.byte	0x8
 2175 0668 0E       		.uleb128 0xe
 2176 0669 9F110000 		.4byte	.LASF202
 2177 066d 05       		.byte	0x5
 2178 066e 4403     		.2byte	0x344
 2179 0670 E9000000 		.4byte	0xe9
 2180 0674 0C       		.byte	0xc
 2181 0675 00       		.byte	0
 2182 0676 09       		.uleb128 0x9
 2183 0677 3A0A0000 		.4byte	.LASF203
 2184 067b 05       		.byte	0x5
 2185 067c 8402     		.2byte	0x284
 2186 067e 82060000 		.4byte	0x682
 2187 0682 0D       		.uleb128 0xd
 2188 0683 8D130000 		.4byte	.LASF205
 2189 0687 10       		.byte	0x10
 2190 0688 05       		.byte	0x5
 2191 0689 5303     		.2byte	0x353
 2192 068b D1060000 		.4byte	0x6d1
 2193 068f 0E       		.uleb128 0xe
 2194 0690 EE0E0000 		.4byte	.LASF206
 2195 0694 05       		.byte	0x5
 2196 0695 5403     		.2byte	0x354
 2197 0697 920B0000 		.4byte	0xb92
 2198 069b 00       		.byte	0
 2199 069c 0E       		.uleb128 0xe
 2200 069d 1F110000 		.4byte	.LASF207
 2201 06a1 05       		.byte	0x5
 2202 06a2 5503     		.2byte	0x355
 2203 06a4 920B0000 		.4byte	0xb92
 2204 06a8 04       		.byte	0x4
 2205 06a9 0E       		.uleb128 0xe
 2206 06aa 4B080000 		.4byte	.LASF208
 2207 06ae 05       		.byte	0x5
 2208 06af 5603     		.2byte	0x356
 2209 06b1 20010000 		.4byte	0x120
 2210 06b5 08       		.byte	0x8
 2211 06b6 0E       		.uleb128 0xe
 2212 06b7 76010000 		.4byte	.LASF209
ARM GAS  C:\Users\alex\AppData\Local\Temp\ccfIfgZ4.s 			page 57


 2213 06bb 05       		.byte	0x5
 2214 06bc 5703     		.2byte	0x357
 2215 06be 20010000 		.4byte	0x120
 2216 06c2 0A       		.byte	0xa
 2217 06c3 0E       		.uleb128 0xe
 2218 06c4 99120000 		.4byte	.LASF210
 2219 06c8 05       		.byte	0x5
 2220 06c9 5803     		.2byte	0x358
 2221 06cb 20010000 		.4byte	0x120
 2222 06cf 0C       		.byte	0xc
 2223 06d0 00       		.byte	0
 2224 06d1 09       		.uleb128 0x9
 2225 06d2 880E0000 		.4byte	.LASF211
 2226 06d6 05       		.byte	0x5
 2227 06d7 8C02     		.2byte	0x28c
 2228 06d9 DD060000 		.4byte	0x6dd
 2229 06dd 0D       		.uleb128 0xd
 2230 06de 070F0000 		.4byte	.LASF212
 2231 06e2 28       		.byte	0x28
 2232 06e3 05       		.byte	0x5
 2233 06e4 9503     		.2byte	0x395
 2234 06e6 52070000 		.4byte	0x752
 2235 06ea 0E       		.uleb128 0xe
 2236 06eb 430A0000 		.4byte	.LASF213
 2237 06ef 05       		.byte	0x5
 2238 06f0 9703     		.2byte	0x397
 2239 06f2 4C010000 		.4byte	0x14c
 2240 06f6 00       		.byte	0
 2241 06f7 0E       		.uleb128 0xe
 2242 06f8 270A0000 		.4byte	.LASF214
 2243 06fc 05       		.byte	0x5
 2244 06fd 9803     		.2byte	0x398
 2245 06ff 8C0B0000 		.4byte	0xb8c
 2246 0703 04       		.byte	0x4
 2247 0704 0E       		.uleb128 0xe
 2248 0705 BF0E0000 		.4byte	.LASF215
 2249 0709 05       		.byte	0x5
 2250 070a 9903     		.2byte	0x399
 2251 070c D10A0000 		.4byte	0xad1
 2252 0710 08       		.byte	0x8
 2253 0711 0E       		.uleb128 0xe
 2254 0712 56030000 		.4byte	.LASF216
 2255 0716 05       		.byte	0x5
 2256 0717 9B03     		.2byte	0x39b
 2257 0719 980B0000 		.4byte	0xb98
 2258 071d 14       		.byte	0x14
 2259 071e 0E       		.uleb128 0xe
 2260 071f 6E030000 		.4byte	.LASF217
 2261 0723 05       		.byte	0x5
 2262 0724 9C03     		.2byte	0x39c
 2263 0726 980B0000 		.4byte	0xb98
 2264 072a 18       		.byte	0x18
 2265 072b 0E       		.uleb128 0xe
 2266 072c 14110000 		.4byte	.LASF218
 2267 0730 05       		.byte	0x5
 2268 0731 9D03     		.2byte	0x39d
 2269 0733 8C0B0000 		.4byte	0xb8c
ARM GAS  C:\Users\alex\AppData\Local\Temp\ccfIfgZ4.s 			page 58


 2270 0737 1C       		.byte	0x1c
 2271 0738 0F       		.uleb128 0xf
 2272 0739 43747200 		.ascii	"Ctr\000"
 2273 073d 05       		.byte	0x5
 2274 073e A003     		.2byte	0x3a0
 2275 0740 78010000 		.4byte	0x178
 2276 0744 20       		.byte	0x20
 2277 0745 0F       		.uleb128 0xf
 2278 0746 545300   		.ascii	"TS\000"
 2279 0749 05       		.byte	0x5
 2280 074a A103     		.2byte	0x3a1
 2281 074c E9000000 		.4byte	0xe9
 2282 0750 24       		.byte	0x24
 2283 0751 00       		.byte	0
 2284 0752 09       		.uleb128 0x9
 2285 0753 AD100000 		.4byte	.LASF219
 2286 0757 05       		.byte	0x5
 2287 0758 8E02     		.2byte	0x28e
 2288 075a 9E000000 		.4byte	0x9e
 2289 075e 09       		.uleb128 0x9
 2290 075f 0E100000 		.4byte	.LASF220
 2291 0763 05       		.byte	0x5
 2292 0764 9002     		.2byte	0x290
 2293 0766 6A070000 		.4byte	0x76a
 2294 076a 0D       		.uleb128 0xd
 2295 076b 00000000 		.4byte	.LASF221
 2296 076f C0       		.byte	0xc0
 2297 0770 05       		.byte	0x5
 2298 0771 AB03     		.2byte	0x3ab
 2299 0773 0E0A0000 		.4byte	0xa0e
 2300 0777 0E       		.uleb128 0xe
 2301 0778 920A0000 		.4byte	.LASF222
 2302 077c 05       		.byte	0x5
 2303 077d AC03     		.2byte	0x3ac
 2304 077f 9E0B0000 		.4byte	0xb9e
 2305 0783 00       		.byte	0
 2306 0784 0E       		.uleb128 0xe
 2307 0785 870F0000 		.4byte	.LASF223
 2308 0789 05       		.byte	0x5
 2309 078a AE03     		.2byte	0x3ae
 2310 078c AF000000 		.4byte	0xaf
 2311 0790 04       		.byte	0x4
 2312 0791 0E       		.uleb128 0xe
 2313 0792 CA0B0000 		.4byte	.LASF224
 2314 0796 05       		.byte	0x5
 2315 0797 B003     		.2byte	0x3b0
 2316 0799 9E0B0000 		.4byte	0xb9e
 2317 079d 08       		.byte	0x8
 2318 079e 0E       		.uleb128 0xe
 2319 079f 260D0000 		.4byte	.LASF199
 2320 07a3 05       		.byte	0x5
 2321 07a4 B203     		.2byte	0x3b2
 2322 07a6 7A0B0000 		.4byte	0xb7a
 2323 07aa 0C       		.byte	0xc
 2324 07ab 0E       		.uleb128 0xe
 2325 07ac 54090000 		.4byte	.LASF225
 2326 07b0 05       		.byte	0x5
ARM GAS  C:\Users\alex\AppData\Local\Temp\ccfIfgZ4.s 			page 59


 2327 07b1 B303     		.2byte	0x3b3
 2328 07b3 7A0B0000 		.4byte	0xb7a
 2329 07b7 10       		.byte	0x10
 2330 07b8 0E       		.uleb128 0xe
 2331 07b9 2A0C0000 		.4byte	.LASF226
 2332 07bd 05       		.byte	0x5
 2333 07be B503     		.2byte	0x3b5
 2334 07c0 7A0B0000 		.4byte	0xb7a
 2335 07c4 14       		.byte	0x14
 2336 07c5 0E       		.uleb128 0xe
 2337 07c6 6F080000 		.4byte	.LASF227
 2338 07ca 05       		.byte	0x5
 2339 07cb B603     		.2byte	0x3b6
 2340 07cd 7A0B0000 		.4byte	0xb7a
 2341 07d1 18       		.byte	0x18
 2342 07d2 0E       		.uleb128 0xe
 2343 07d3 07110000 		.4byte	.LASF228
 2344 07d7 05       		.byte	0x5
 2345 07d8 B803     		.2byte	0x3b8
 2346 07da A40B0000 		.4byte	0xba4
 2347 07de 1C       		.byte	0x1c
 2348 07df 0E       		.uleb128 0xe
 2349 07e0 270A0000 		.4byte	.LASF214
 2350 07e4 05       		.byte	0x5
 2351 07e5 BA03     		.2byte	0x3ba
 2352 07e7 8C0B0000 		.4byte	0xb8c
 2353 07eb 20       		.byte	0x20
 2354 07ec 0E       		.uleb128 0xe
 2355 07ed 7E060000 		.4byte	.LASF229
 2356 07f1 05       		.byte	0x5
 2357 07f2 BC03     		.2byte	0x3bc
 2358 07f4 9E0B0000 		.4byte	0xb9e
 2359 07f8 24       		.byte	0x24
 2360 07f9 0E       		.uleb128 0xe
 2361 07fa E1090000 		.4byte	.LASF230
 2362 07fe 05       		.byte	0x5
 2363 07ff C203     		.2byte	0x3c2
 2364 0801 52070000 		.4byte	0x752
 2365 0805 28       		.byte	0x28
 2366 0806 0E       		.uleb128 0xe
 2367 0807 26110000 		.4byte	.LASF231
 2368 080b 05       		.byte	0x5
 2369 080c C303     		.2byte	0x3c3
 2370 080e AF000000 		.4byte	0xaf
 2371 0812 2C       		.byte	0x2c
 2372 0813 0E       		.uleb128 0xe
 2373 0814 D80E0000 		.4byte	.LASF232
 2374 0818 05       		.byte	0x5
 2375 0819 C503     		.2byte	0x3c5
 2376 081b 800B0000 		.4byte	0xb80
 2377 081f 30       		.byte	0x30
 2378 0820 0E       		.uleb128 0xe
 2379 0821 FA030000 		.4byte	.LASF233
 2380 0825 05       		.byte	0x5
 2381 0826 C603     		.2byte	0x3c6
 2382 0828 83010000 		.4byte	0x183
 2383 082c 34       		.byte	0x34
ARM GAS  C:\Users\alex\AppData\Local\Temp\ccfIfgZ4.s 			page 60


 2384 082d 0E       		.uleb128 0xe
 2385 082e 2F0A0000 		.4byte	.LASF234
 2386 0832 05       		.byte	0x5
 2387 0833 C703     		.2byte	0x3c7
 2388 0835 8E010000 		.4byte	0x18e
 2389 0839 35       		.byte	0x35
 2390 083a 0E       		.uleb128 0xe
 2391 083b E4060000 		.4byte	.LASF235
 2392 083f 05       		.byte	0x5
 2393 0840 C903     		.2byte	0x3c9
 2394 0842 83010000 		.4byte	0x183
 2395 0846 36       		.byte	0x36
 2396 0847 0E       		.uleb128 0xe
 2397 0848 33120000 		.4byte	.LASF236
 2398 084c 05       		.byte	0x5
 2399 084d CA03     		.2byte	0x3ca
 2400 084f 62010000 		.4byte	0x162
 2401 0853 37       		.byte	0x37
 2402 0854 0E       		.uleb128 0xe
 2403 0855 76060000 		.4byte	.LASF237
 2404 0859 05       		.byte	0x5
 2405 085a CB03     		.2byte	0x3cb
 2406 085c C7000000 		.4byte	0xc7
 2407 0860 38       		.byte	0x38
 2408 0861 0F       		.uleb128 0xf
 2409 0862 4F707400 		.ascii	"Opt\000"
 2410 0866 05       		.byte	0x5
 2411 0867 CC03     		.2byte	0x3cc
 2412 0869 57010000 		.4byte	0x157
 2413 086d 3C       		.byte	0x3c
 2414 086e 0E       		.uleb128 0xe
 2415 086f 0B040000 		.4byte	.LASF238
 2416 0873 05       		.byte	0x5
 2417 0874 CE03     		.2byte	0x3ce
 2418 0876 41010000 		.4byte	0x141
 2419 087a 3E       		.byte	0x3e
 2420 087b 0F       		.uleb128 0xf
 2421 087c 545300   		.ascii	"TS\000"
 2422 087f 05       		.byte	0x5
 2423 0880 D003     		.2byte	0x3d0
 2424 0882 E9000000 		.4byte	0xe9
 2425 0886 40       		.byte	0x40
 2426 0887 0E       		.uleb128 0xe
 2427 0888 E70E0000 		.4byte	.LASF239
 2428 088c 05       		.byte	0x5
 2429 088d D203     		.2byte	0x3d2
 2430 088f 78010000 		.4byte	0x178
 2431 0893 44       		.byte	0x44
 2432 0894 0E       		.uleb128 0xe
 2433 0895 3F080000 		.4byte	.LASF240
 2434 0899 05       		.byte	0x5
 2435 089a D503     		.2byte	0x3d5
 2436 089c 99010000 		.4byte	0x199
 2437 08a0 48       		.byte	0x48
 2438 08a1 0E       		.uleb128 0xe
 2439 08a2 64040000 		.4byte	.LASF241
 2440 08a6 05       		.byte	0x5
ARM GAS  C:\Users\alex\AppData\Local\Temp\ccfIfgZ4.s 			page 61


 2441 08a7 D603     		.2byte	0x3d6
 2442 08a9 99010000 		.4byte	0x199
 2443 08ad 4C       		.byte	0x4c
 2444 08ae 0E       		.uleb128 0xe
 2445 08af F40E0000 		.4byte	.LASF242
 2446 08b3 05       		.byte	0x5
 2447 08b4 D703     		.2byte	0x3d7
 2448 08b6 99010000 		.4byte	0x199
 2449 08ba 50       		.byte	0x50
 2450 08bb 0E       		.uleb128 0xe
 2451 08bc 3C130000 		.4byte	.LASF243
 2452 08c0 05       		.byte	0x5
 2453 08c1 D903     		.2byte	0x3d9
 2454 08c3 99010000 		.4byte	0x199
 2455 08c7 54       		.byte	0x54
 2456 08c8 0E       		.uleb128 0xe
 2457 08c9 CC060000 		.4byte	.LASF244
 2458 08cd 05       		.byte	0x5
 2459 08ce DA03     		.2byte	0x3da
 2460 08d0 99010000 		.4byte	0x199
 2461 08d4 58       		.byte	0x58
 2462 08d5 0E       		.uleb128 0xe
 2463 08d6 D5110000 		.4byte	.LASF200
 2464 08da 05       		.byte	0x5
 2465 08db DD03     		.2byte	0x3dd
 2466 08dd AF000000 		.4byte	0xaf
 2467 08e1 5C       		.byte	0x5c
 2468 08e2 0E       		.uleb128 0xe
 2469 08e3 320F0000 		.4byte	.LASF201
 2470 08e7 05       		.byte	0x5
 2471 08e8 DE03     		.2byte	0x3de
 2472 08ea 2B010000 		.4byte	0x12b
 2473 08ee 60       		.byte	0x60
 2474 08ef 0E       		.uleb128 0xe
 2475 08f0 DC090000 		.4byte	.LASF245
 2476 08f4 05       		.byte	0x5
 2477 08f5 E203     		.2byte	0x3e2
 2478 08f7 76060000 		.4byte	0x676
 2479 08fb 64       		.byte	0x64
 2480 08fc 0E       		.uleb128 0xe
 2481 08fd E3080000 		.4byte	.LASF246
 2482 0901 05       		.byte	0x5
 2483 0902 E403     		.2byte	0x3e4
 2484 0904 E9000000 		.4byte	0xe9
 2485 0908 74       		.byte	0x74
 2486 0909 0E       		.uleb128 0xe
 2487 090a D3080000 		.4byte	.LASF247
 2488 090e 05       		.byte	0x5
 2489 090f E503     		.2byte	0x3e5
 2490 0911 E9000000 		.4byte	0xe9
 2491 0915 78       		.byte	0x78
 2492 0916 0E       		.uleb128 0xe
 2493 0917 FD120000 		.4byte	.LASF248
 2494 091b 05       		.byte	0x5
 2495 091c EA03     		.2byte	0x3ea
 2496 091e AA0B0000 		.4byte	0xbaa
 2497 0922 7C       		.byte	0x7c
ARM GAS  C:\Users\alex\AppData\Local\Temp\ccfIfgZ4.s 			page 62


 2498 0923 0E       		.uleb128 0xe
 2499 0924 A6040000 		.4byte	.LASF249
 2500 0928 05       		.byte	0x5
 2501 0929 EE03     		.2byte	0x3ee
 2502 092b 15010000 		.4byte	0x115
 2503 092f 80       		.byte	0x80
 2504 0930 0E       		.uleb128 0xe
 2505 0931 7B080000 		.4byte	.LASF250
 2506 0935 05       		.byte	0x5
 2507 0936 EF03     		.2byte	0x3ef
 2508 0938 15010000 		.4byte	0x115
 2509 093c 84       		.byte	0x84
 2510 093d 0E       		.uleb128 0xe
 2511 093e FF010000 		.4byte	.LASF251
 2512 0942 05       		.byte	0x5
 2513 0943 F003     		.2byte	0x3f0
 2514 0945 57010000 		.4byte	0x157
 2515 0949 88       		.byte	0x88
 2516 094a 0E       		.uleb128 0xe
 2517 094b BF0B0000 		.4byte	.LASF252
 2518 094f 05       		.byte	0x5
 2519 0950 F403     		.2byte	0x3f4
 2520 0952 36010000 		.4byte	0x136
 2521 0956 8A       		.byte	0x8a
 2522 0957 0E       		.uleb128 0xe
 2523 0958 51120000 		.4byte	.LASF253
 2524 095c 05       		.byte	0x5
 2525 095d F803     		.2byte	0x3f8
 2526 095f F4000000 		.4byte	0xf4
 2527 0963 8C       		.byte	0x8c
 2528 0964 0E       		.uleb128 0xe
 2529 0965 B30E0000 		.4byte	.LASF254
 2530 0969 05       		.byte	0x5
 2531 096a F903     		.2byte	0x3f9
 2532 096c F4000000 		.4byte	0xf4
 2533 0970 8E       		.byte	0x8e
 2534 0971 0E       		.uleb128 0xe
 2535 0972 C7040000 		.4byte	.LASF255
 2536 0976 05       		.byte	0x5
 2537 0977 FA03     		.2byte	0x3fa
 2538 0979 FF000000 		.4byte	0xff
 2539 097d 90       		.byte	0x90
 2540 097e 0E       		.uleb128 0xe
 2541 097f E00B0000 		.4byte	.LASF256
 2542 0983 05       		.byte	0x5
 2543 0984 FB03     		.2byte	0x3fb
 2544 0986 E9000000 		.4byte	0xe9
 2545 098a 94       		.byte	0x94
 2546 098b 0E       		.uleb128 0xe
 2547 098c BB0A0000 		.4byte	.LASF257
 2548 0990 05       		.byte	0x5
 2549 0991 FC03     		.2byte	0x3fc
 2550 0993 E9000000 		.4byte	0xe9
 2551 0997 98       		.byte	0x98
 2552 0998 0E       		.uleb128 0xe
 2553 0999 F1120000 		.4byte	.LASF258
 2554 099d 05       		.byte	0x5
ARM GAS  C:\Users\alex\AppData\Local\Temp\ccfIfgZ4.s 			page 63


 2555 099e FD03     		.2byte	0x3fd
 2556 09a0 0A010000 		.4byte	0x10a
 2557 09a4 9C       		.byte	0x9c
 2558 09a5 0E       		.uleb128 0xe
 2559 09a6 380E0000 		.4byte	.LASF259
 2560 09aa 05       		.byte	0x5
 2561 09ab FE03     		.2byte	0x3fe
 2562 09ad 0A010000 		.4byte	0x10a
 2563 09b1 A0       		.byte	0xa0
 2564 09b2 0E       		.uleb128 0xe
 2565 09b3 F20C0000 		.4byte	.LASF260
 2566 09b7 05       		.byte	0x5
 2567 09b8 0004     		.2byte	0x400
 2568 09ba E9000000 		.4byte	0xe9
 2569 09be A4       		.byte	0xa4
 2570 09bf 0E       		.uleb128 0xe
 2571 09c0 290E0000 		.4byte	.LASF261
 2572 09c4 05       		.byte	0x5
 2573 09c5 0104     		.2byte	0x401
 2574 09c7 E9000000 		.4byte	0xe9
 2575 09cb A8       		.byte	0xa8
 2576 09cc 0E       		.uleb128 0xe
 2577 09cd CA050000 		.4byte	.LASF262
 2578 09d1 05       		.byte	0x5
 2579 09d2 0504     		.2byte	0x405
 2580 09d4 C7000000 		.4byte	0xc7
 2581 09d8 AC       		.byte	0xac
 2582 09d9 0E       		.uleb128 0xe
 2583 09da 37080000 		.4byte	.LASF263
 2584 09de 05       		.byte	0x5
 2585 09df 0604     		.2byte	0x406
 2586 09e1 C7000000 		.4byte	0xc7
 2587 09e5 B0       		.byte	0xb0
 2588 09e6 0E       		.uleb128 0xe
 2589 09e7 56030000 		.4byte	.LASF216
 2590 09eb 05       		.byte	0x5
 2591 09ec 1104     		.2byte	0x411
 2592 09ee 7A0B0000 		.4byte	0xb7a
 2593 09f2 B4       		.byte	0xb4
 2594 09f3 0E       		.uleb128 0xe
 2595 09f4 6E030000 		.4byte	.LASF217
 2596 09f8 05       		.byte	0x5
 2597 09f9 1204     		.2byte	0x412
 2598 09fb 7A0B0000 		.4byte	0xb7a
 2599 09ff B8       		.byte	0xb8
 2600 0a00 0E       		.uleb128 0xe
 2601 0a01 14110000 		.4byte	.LASF218
 2602 0a05 05       		.byte	0x5
 2603 0a06 1304     		.2byte	0x413
 2604 0a08 8C0B0000 		.4byte	0xb8c
 2605 0a0c BC       		.byte	0xbc
 2606 0a0d 00       		.byte	0
 2607 0a0e 09       		.uleb128 0x9
 2608 0a0f 23050000 		.4byte	.LASF264
 2609 0a13 05       		.byte	0x5
 2610 0a14 9E02     		.2byte	0x29e
 2611 0a16 1A0A0000 		.4byte	0xa1a
ARM GAS  C:\Users\alex\AppData\Local\Temp\ccfIfgZ4.s 			page 64


 2612 0a1a 0D       		.uleb128 0xd
 2613 0a1b 990A0000 		.4byte	.LASF265
 2614 0a1f 08       		.byte	0x8
 2615 0a20 05       		.byte	0x5
 2616 0a21 1E04     		.2byte	0x41e
 2617 0a23 4F0A0000 		.4byte	0xa4f
 2618 0a27 0E       		.uleb128 0xe
 2619 0a28 4D0F0000 		.4byte	.LASF266
 2620 0a2c 05       		.byte	0x5
 2621 0a2d 1F04     		.2byte	0x41f
 2622 0a2f 7A0B0000 		.4byte	0xb7a
 2623 0a33 00       		.byte	0
 2624 0a34 0E       		.uleb128 0xe
 2625 0a35 76010000 		.4byte	.LASF209
 2626 0a39 05       		.byte	0x5
 2627 0a3a 2004     		.2byte	0x420
 2628 0a3c 41010000 		.4byte	0x141
 2629 0a40 04       		.byte	0x4
 2630 0a41 0E       		.uleb128 0xe
 2631 0a42 99120000 		.4byte	.LASF210
 2632 0a46 05       		.byte	0x5
 2633 0a47 2104     		.2byte	0x421
 2634 0a49 41010000 		.4byte	0x141
 2635 0a4d 06       		.byte	0x6
 2636 0a4e 00       		.byte	0
 2637 0a4f 09       		.uleb128 0x9
 2638 0a50 E5050000 		.4byte	.LASF267
 2639 0a54 05       		.byte	0x5
 2640 0a55 A502     		.2byte	0x2a5
 2641 0a57 5B0A0000 		.4byte	0xa5b
 2642 0a5b 0D       		.uleb128 0xd
 2643 0a5c 01120000 		.4byte	.LASF268
 2644 0a60 20       		.byte	0x20
 2645 0a61 05       		.byte	0x5
 2646 0a62 DD02     		.2byte	0x2dd
 2647 0a64 D10A0000 		.4byte	0xad1
 2648 0a68 0E       		.uleb128 0xe
 2649 0a69 54090000 		.4byte	.LASF225
 2650 0a6d 05       		.byte	0x5
 2651 0a6e DE02     		.2byte	0x2de
 2652 0a70 800B0000 		.4byte	0xb80
 2653 0a74 00       		.byte	0
 2654 0a75 0E       		.uleb128 0xe
 2655 0a76 260D0000 		.4byte	.LASF199
 2656 0a7a 05       		.byte	0x5
 2657 0a7b DF02     		.2byte	0x2df
 2658 0a7d 800B0000 		.4byte	0xb80
 2659 0a81 04       		.byte	0x4
 2660 0a82 0E       		.uleb128 0xe
 2661 0a83 D10A0000 		.4byte	.LASF269
 2662 0a87 05       		.byte	0x5
 2663 0a88 E002     		.2byte	0x2e0
 2664 0a8a 7A0B0000 		.4byte	0xb7a
 2665 0a8e 08       		.byte	0x8
 2666 0a8f 0E       		.uleb128 0xe
 2667 0a90 8E120000 		.4byte	.LASF270
 2668 0a94 05       		.byte	0x5
ARM GAS  C:\Users\alex\AppData\Local\Temp\ccfIfgZ4.s 			page 65


 2669 0a95 E102     		.2byte	0x2e1
 2670 0a97 860B0000 		.4byte	0xb86
 2671 0a9b 0C       		.byte	0xc
 2672 0a9c 0E       		.uleb128 0xe
 2673 0a9d A70C0000 		.4byte	.LASF271
 2674 0aa1 05       		.byte	0x5
 2675 0aa2 E202     		.2byte	0x2e2
 2676 0aa4 860B0000 		.4byte	0xb86
 2677 0aa8 10       		.byte	0x10
 2678 0aa9 0E       		.uleb128 0xe
 2679 0aaa 71040000 		.4byte	.LASF272
 2680 0aae 05       		.byte	0x5
 2681 0aaf E302     		.2byte	0x2e3
 2682 0ab1 AF000000 		.4byte	0xaf
 2683 0ab5 14       		.byte	0x14
 2684 0ab6 0E       		.uleb128 0xe
 2685 0ab7 F00D0000 		.4byte	.LASF273
 2686 0abb 05       		.byte	0x5
 2687 0abc E402     		.2byte	0x2e4
 2688 0abe 2B010000 		.4byte	0x12b
 2689 0ac2 18       		.byte	0x18
 2690 0ac3 0E       		.uleb128 0xe
 2691 0ac4 B00D0000 		.4byte	.LASF274
 2692 0ac8 05       		.byte	0x5
 2693 0ac9 E502     		.2byte	0x2e5
 2694 0acb E9000000 		.4byte	0xe9
 2695 0acf 1C       		.byte	0x1c
 2696 0ad0 00       		.byte	0
 2697 0ad1 09       		.uleb128 0x9
 2698 0ad2 86110000 		.4byte	.LASF275
 2699 0ad6 05       		.byte	0x5
 2700 0ad7 A602     		.2byte	0x2a6
 2701 0ad9 DD0A0000 		.4byte	0xadd
 2702 0add 0D       		.uleb128 0xd
 2703 0ade A7120000 		.4byte	.LASF276
 2704 0ae2 0C       		.byte	0xc
 2705 0ae3 05       		.byte	0x5
 2706 0ae4 E902     		.2byte	0x2e9
 2707 0ae6 120B0000 		.4byte	0xb12
 2708 0aea 0E       		.uleb128 0xe
 2709 0aeb FF0E0000 		.4byte	.LASF277
 2710 0aef 05       		.byte	0x5
 2711 0af0 EA02     		.2byte	0x2ea
 2712 0af2 800B0000 		.4byte	0xb80
 2713 0af6 00       		.byte	0
 2714 0af7 0E       		.uleb128 0xe
 2715 0af8 31040000 		.4byte	.LASF278
 2716 0afc 05       		.byte	0x5
 2717 0afd EB02     		.2byte	0x2eb
 2718 0aff 800B0000 		.4byte	0xb80
 2719 0b03 04       		.byte	0x4
 2720 0b04 0E       		.uleb128 0xe
 2721 0b05 76010000 		.4byte	.LASF209
 2722 0b09 05       		.byte	0x5
 2723 0b0a EC02     		.2byte	0x2ec
 2724 0b0c 41010000 		.4byte	0x141
 2725 0b10 08       		.byte	0x8
ARM GAS  C:\Users\alex\AppData\Local\Temp\ccfIfgZ4.s 			page 66


 2726 0b11 00       		.byte	0
 2727 0b12 09       		.uleb128 0x9
 2728 0b13 8F0E0000 		.4byte	.LASF279
 2729 0b17 05       		.byte	0x5
 2730 0b18 A702     		.2byte	0x2a7
 2731 0b1a 1E0B0000 		.4byte	0xb1e
 2732 0b1e 0D       		.uleb128 0xd
 2733 0b1f 7B040000 		.4byte	.LASF280
 2734 0b23 20       		.byte	0x20
 2735 0b24 05       		.byte	0x5
 2736 0b25 FF02     		.2byte	0x2ff
 2737 0b27 7A0B0000 		.4byte	0xb7a
 2738 0b2b 0E       		.uleb128 0xe
 2739 0b2c 430A0000 		.4byte	.LASF213
 2740 0b30 05       		.byte	0x5
 2741 0b31 0003     		.2byte	0x300
 2742 0b33 4C010000 		.4byte	0x14c
 2743 0b37 00       		.byte	0
 2744 0b38 0E       		.uleb128 0xe
 2745 0b39 270A0000 		.4byte	.LASF214
 2746 0b3d 05       		.byte	0x5
 2747 0b3e 0103     		.2byte	0x301
 2748 0b40 8C0B0000 		.4byte	0xb8c
 2749 0b44 04       		.byte	0x4
 2750 0b45 0E       		.uleb128 0xe
 2751 0b46 BF0E0000 		.4byte	.LASF215
 2752 0b4a 05       		.byte	0x5
 2753 0b4b 0203     		.2byte	0x302
 2754 0b4d D10A0000 		.4byte	0xad1
 2755 0b51 08       		.byte	0x8
 2756 0b52 0E       		.uleb128 0xe
 2757 0b53 56030000 		.4byte	.LASF216
 2758 0b57 05       		.byte	0x5
 2759 0b58 0403     		.2byte	0x304
 2760 0b5a AF000000 		.4byte	0xaf
 2761 0b5e 14       		.byte	0x14
 2762 0b5f 0E       		.uleb128 0xe
 2763 0b60 6E030000 		.4byte	.LASF217
 2764 0b64 05       		.byte	0x5
 2765 0b65 0503     		.2byte	0x305
 2766 0b67 AF000000 		.4byte	0xaf
 2767 0b6b 18       		.byte	0x18
 2768 0b6c 0E       		.uleb128 0xe
 2769 0b6d 14110000 		.4byte	.LASF218
 2770 0b71 05       		.byte	0x5
 2771 0b72 0603     		.2byte	0x306
 2772 0b74 8C0B0000 		.4byte	0xb8c
 2773 0b78 1C       		.byte	0x1c
 2774 0b79 00       		.byte	0
 2775 0b7a 05       		.uleb128 0x5
 2776 0b7b 04       		.byte	0x4
 2777 0b7c 5E070000 		.4byte	0x75e
 2778 0b80 05       		.uleb128 0x5
 2779 0b81 04       		.byte	0x4
 2780 0b82 4F0A0000 		.4byte	0xa4f
 2781 0b86 05       		.uleb128 0x5
 2782 0b87 04       		.byte	0x4
ARM GAS  C:\Users\alex\AppData\Local\Temp\ccfIfgZ4.s 			page 67


 2783 0b88 120B0000 		.4byte	0xb12
 2784 0b8c 05       		.uleb128 0x5
 2785 0b8d 04       		.byte	0x4
 2786 0b8e 25000000 		.4byte	0x25
 2787 0b92 05       		.uleb128 0x5
 2788 0b93 04       		.byte	0x4
 2789 0b94 28060000 		.4byte	0x628
 2790 0b98 05       		.uleb128 0x5
 2791 0b99 04       		.byte	0x4
 2792 0b9a D1060000 		.4byte	0x6d1
 2793 0b9e 05       		.uleb128 0x5
 2794 0b9f 04       		.byte	0x4
 2795 0ba0 BC000000 		.4byte	0xbc
 2796 0ba4 05       		.uleb128 0x5
 2797 0ba5 04       		.byte	0x4
 2798 0ba6 0E0A0000 		.4byte	0xa0e
 2799 0baa 10       		.uleb128 0x10
 2800 0bab 6D010000 		.4byte	0x16d
 2801 0baf BA0B0000 		.4byte	0xbba
 2802 0bb3 11       		.uleb128 0x11
 2803 0bb4 BA0B0000 		.4byte	0xbba
 2804 0bb8 00       		.byte	0
 2805 0bb9 00       		.byte	0
 2806 0bba 03       		.uleb128 0x3
 2807 0bbb 04       		.byte	0x4
 2808 0bbc 07       		.byte	0x7
 2809 0bbd 9F0F0000 		.4byte	.LASF281
 2810 0bc1 12       		.uleb128 0x12
 2811 0bc2 BE050000 		.4byte	.LASF297
 2812 0bc6 01       		.byte	0x1
 2813 0bc7 49       		.byte	0x49
 2814 0bc8 00000000 		.4byte	.LFB0
 2815 0bcc 8C000000 		.4byte	.LFE0-.LFB0
 2816 0bd0 01       		.uleb128 0x1
 2817 0bd1 9C       		.byte	0x9c
 2818 0bd2 1D0C0000 		.4byte	0xc1d
 2819 0bd6 13       		.uleb128 0x13
 2820 0bd7 A5010000 		.4byte	.LASF282
 2821 0bdb 01       		.byte	0x1
 2822 0bdc 49       		.byte	0x49
 2823 0bdd 980B0000 		.4byte	0xb98
 2824 0be1 02       		.uleb128 0x2
 2825 0be2 91       		.byte	0x91
 2826 0be3 6C       		.sleb128 -20
 2827 0be4 13       		.uleb128 0x13
 2828 0be5 F7080000 		.4byte	.LASF283
 2829 0be9 01       		.byte	0x1
 2830 0bea 4A       		.byte	0x4a
 2831 0beb 8C0B0000 		.4byte	0xb8c
 2832 0bef 02       		.uleb128 0x2
 2833 0bf0 91       		.byte	0x91
 2834 0bf1 68       		.sleb128 -24
 2835 0bf2 14       		.uleb128 0x14
 2836 0bf3 636E7400 		.ascii	"cnt\000"
 2837 0bf7 01       		.byte	0x1
 2838 0bf8 4B       		.byte	0x4b
 2839 0bf9 78010000 		.4byte	0x178
ARM GAS  C:\Users\alex\AppData\Local\Temp\ccfIfgZ4.s 			page 68


 2840 0bfd 02       		.uleb128 0x2
 2841 0bfe 91       		.byte	0x91
 2842 0bff 64       		.sleb128 -28
 2843 0c00 13       		.uleb128 0x13
 2844 0c01 CD080000 		.4byte	.LASF284
 2845 0c05 01       		.byte	0x1
 2846 0c06 4C       		.byte	0x4c
 2847 0c07 1D0C0000 		.4byte	0xc1d
 2848 0c0b 02       		.uleb128 0x2
 2849 0c0c 91       		.byte	0x91
 2850 0c0d 60       		.sleb128 -32
 2851 0c0e 15       		.uleb128 0x15
 2852 0c0f 4B050000 		.4byte	.LASF285
 2853 0c13 01       		.byte	0x1
 2854 0c14 4E       		.byte	0x4e
 2855 0c15 D2000000 		.4byte	0xd2
 2856 0c19 02       		.uleb128 0x2
 2857 0c1a 91       		.byte	0x91
 2858 0c1b 74       		.sleb128 -12
 2859 0c1c 00       		.byte	0
 2860 0c1d 05       		.uleb128 0x5
 2861 0c1e 04       		.byte	0x4
 2862 0c1f 1C060000 		.4byte	0x61c
 2863 0c23 16       		.uleb128 0x16
 2864 0c24 37020000 		.4byte	.LASF290
 2865 0c28 01       		.byte	0x1
 2866 0c29 A3       		.byte	0xa3
 2867 0c2a 41010000 		.4byte	0x141
 2868 0c2e 00000000 		.4byte	.LFB1
 2869 0c32 24010000 		.4byte	.LFE1-.LFB1
 2870 0c36 01       		.uleb128 0x1
 2871 0c37 9C       		.byte	0x9c
 2872 0c38 C80C0000 		.4byte	0xcc8
 2873 0c3c 13       		.uleb128 0x13
 2874 0c3d A5010000 		.4byte	.LASF282
 2875 0c41 01       		.byte	0x1
 2876 0c42 A3       		.byte	0xa3
 2877 0c43 980B0000 		.4byte	0xb98
 2878 0c47 02       		.uleb128 0x2
 2879 0c48 91       		.byte	0x91
 2880 0c49 54       		.sleb128 -44
 2881 0c4a 14       		.uleb128 0x14
 2882 0c4b 6F707400 		.ascii	"opt\000"
 2883 0c4f 01       		.byte	0x1
 2884 0c50 A4       		.byte	0xa4
 2885 0c51 57010000 		.4byte	0x157
 2886 0c55 02       		.uleb128 0x2
 2887 0c56 91       		.byte	0x91
 2888 0c57 52       		.sleb128 -46
 2889 0c58 13       		.uleb128 0x13
 2890 0c59 CD080000 		.4byte	.LASF284
 2891 0c5d 01       		.byte	0x1
 2892 0c5e A5       		.byte	0xa5
 2893 0c5f 1D0C0000 		.4byte	0xc1d
 2894 0c63 02       		.uleb128 0x2
 2895 0c64 91       		.byte	0x91
 2896 0c65 4C       		.sleb128 -52
ARM GAS  C:\Users\alex\AppData\Local\Temp\ccfIfgZ4.s 			page 69


 2897 0c66 17       		.uleb128 0x17
 2898 0c67 636E7400 		.ascii	"cnt\000"
 2899 0c6b 01       		.byte	0x1
 2900 0c6c A7       		.byte	0xa7
 2901 0c6d 41010000 		.4byte	0x141
 2902 0c71 02       		.uleb128 0x2
 2903 0c72 91       		.byte	0x91
 2904 0c73 76       		.sleb128 -10
 2905 0c74 15       		.uleb128 0x15
 2906 0c75 580B0000 		.4byte	.LASF286
 2907 0c79 01       		.byte	0x1
 2908 0c7a A8       		.byte	0xa8
 2909 0c7b 41010000 		.4byte	0x141
 2910 0c7f 02       		.uleb128 0x2
 2911 0c80 91       		.byte	0x91
 2912 0c81 6A       		.sleb128 -22
 2913 0c82 15       		.uleb128 0x15
 2914 0c83 48090000 		.4byte	.LASF287
 2915 0c87 01       		.byte	0x1
 2916 0c88 A9       		.byte	0xa9
 2917 0c89 800B0000 		.4byte	0xb80
 2918 0c8d 02       		.uleb128 0x2
 2919 0c8e 91       		.byte	0x91
 2920 0c8f 60       		.sleb128 -32
 2921 0c90 15       		.uleb128 0x15
 2922 0c91 D5030000 		.4byte	.LASF288
 2923 0c95 01       		.byte	0x1
 2924 0c96 AA       		.byte	0xaa
 2925 0c97 C80C0000 		.4byte	0xcc8
 2926 0c9b 02       		.uleb128 0x2
 2927 0c9c 91       		.byte	0x91
 2928 0c9d 6C       		.sleb128 -20
 2929 0c9e 15       		.uleb128 0x15
 2930 0c9f A70A0000 		.4byte	.LASF289
 2931 0ca3 01       		.byte	0x1
 2932 0ca4 AB       		.byte	0xab
 2933 0ca5 7A0B0000 		.4byte	0xb7a
 2934 0ca9 02       		.uleb128 0x2
 2935 0caa 91       		.byte	0x91
 2936 0cab 5C       		.sleb128 -36
 2937 0cac 17       		.uleb128 0x17
 2938 0cad 747300   		.ascii	"ts\000"
 2939 0cb0 01       		.byte	0x1
 2940 0cb1 AC       		.byte	0xac
 2941 0cb2 E9000000 		.4byte	0xe9
 2942 0cb6 02       		.uleb128 0x2
 2943 0cb7 91       		.byte	0x91
 2944 0cb8 64       		.sleb128 -28
 2945 0cb9 15       		.uleb128 0x15
 2946 0cba 4B050000 		.4byte	.LASF285
 2947 0cbe 01       		.byte	0x1
 2948 0cbf AD       		.byte	0xad
 2949 0cc0 D2000000 		.4byte	0xd2
 2950 0cc4 02       		.uleb128 0x2
 2951 0cc5 91       		.byte	0x91
 2952 0cc6 70       		.sleb128 -16
 2953 0cc7 00       		.byte	0
ARM GAS  C:\Users\alex\AppData\Local\Temp\ccfIfgZ4.s 			page 70


 2954 0cc8 05       		.uleb128 0x5
 2955 0cc9 04       		.byte	0x4
 2956 0cca D10A0000 		.4byte	0xad1
 2957 0cce 18       		.uleb128 0x18
 2958 0ccf 5C020000 		.4byte	.LASF291
 2959 0cd3 01       		.byte	0x1
 2960 0cd4 3701     		.2byte	0x137
 2961 0cd6 78010000 		.4byte	0x178
 2962 0cda 00000000 		.4byte	.LFB2
 2963 0cde B0010000 		.4byte	.LFE2-.LFB2
 2964 0ce2 01       		.uleb128 0x1
 2965 0ce3 9C       		.byte	0x9c
 2966 0ce4 610D0000 		.4byte	0xd61
 2967 0ce8 19       		.uleb128 0x19
 2968 0ce9 A5010000 		.4byte	.LASF282
 2969 0ced 01       		.byte	0x1
 2970 0cee 3701     		.2byte	0x137
 2971 0cf0 980B0000 		.4byte	0xb98
 2972 0cf4 02       		.uleb128 0x2
 2973 0cf5 91       		.byte	0x91
 2974 0cf6 4C       		.sleb128 -52
 2975 0cf7 19       		.uleb128 0x19
 2976 0cf8 9E100000 		.4byte	.LASF292
 2977 0cfc 01       		.byte	0x1
 2978 0cfd 3801     		.2byte	0x138
 2979 0cff 99010000 		.4byte	0x199
 2980 0d03 02       		.uleb128 0x2
 2981 0d04 91       		.byte	0x91
 2982 0d05 48       		.sleb128 -56
 2983 0d06 1A       		.uleb128 0x1a
 2984 0d07 6F707400 		.ascii	"opt\000"
 2985 0d0b 01       		.byte	0x1
 2986 0d0c 3901     		.2byte	0x139
 2987 0d0e 57010000 		.4byte	0x157
 2988 0d12 02       		.uleb128 0x2
 2989 0d13 91       		.byte	0x91
 2990 0d14 46       		.sleb128 -58
 2991 0d15 19       		.uleb128 0x19
 2992 0d16 890C0000 		.4byte	.LASF293
 2993 0d1a 01       		.byte	0x1
 2994 0d1b 3A01     		.2byte	0x13a
 2995 0d1d 610D0000 		.4byte	0xd61
 2996 0d21 02       		.uleb128 0x2
 2997 0d22 91       		.byte	0x91
 2998 0d23 40       		.sleb128 -64
 2999 0d24 19       		.uleb128 0x19
 3000 0d25 CD080000 		.4byte	.LASF284
 3001 0d29 01       		.byte	0x1
 3002 0d2a 3B01     		.2byte	0x13b
 3003 0d2c 1D0C0000 		.4byte	0xc1d
 3004 0d30 02       		.uleb128 0x2
 3005 0d31 91       		.byte	0x91
 3006 0d32 00       		.sleb128 0
 3007 0d33 1B       		.uleb128 0x1b
 3008 0d34 63747200 		.ascii	"ctr\000"
 3009 0d38 01       		.byte	0x1
 3010 0d39 3D01     		.2byte	0x13d
ARM GAS  C:\Users\alex\AppData\Local\Temp\ccfIfgZ4.s 			page 71


 3011 0d3b 78010000 		.4byte	0x178
 3012 0d3f 02       		.uleb128 0x2
 3013 0d40 91       		.byte	0x91
 3014 0d41 70       		.sleb128 -16
 3015 0d42 1C       		.uleb128 0x1c
 3016 0d43 C70A0000 		.4byte	.LASF294
 3017 0d47 01       		.byte	0x1
 3018 0d48 3E01     		.2byte	0x13e
 3019 0d4a 4F0A0000 		.4byte	0xa4f
 3020 0d4e 02       		.uleb128 0x2
 3021 0d4f 91       		.byte	0x91
 3022 0d50 50       		.sleb128 -48
 3023 0d51 1C       		.uleb128 0x1c
 3024 0d52 4B050000 		.4byte	.LASF285
 3025 0d56 01       		.byte	0x1
 3026 0d57 3F01     		.2byte	0x13f
 3027 0d59 D2000000 		.4byte	0xd2
 3028 0d5d 02       		.uleb128 0x2
 3029 0d5e 91       		.byte	0x91
 3030 0d5f 74       		.sleb128 -12
 3031 0d60 00       		.byte	0
 3032 0d61 05       		.uleb128 0x5
 3033 0d62 04       		.byte	0x4
 3034 0d63 E9000000 		.4byte	0xe9
 3035 0d67 18       		.uleb128 0x18
 3036 0d68 61090000 		.4byte	.LASF295
 3037 0d6c 01       		.byte	0x1
 3038 0d6d D701     		.2byte	0x1d7
 3039 0d6f 41010000 		.4byte	0x141
 3040 0d73 00000000 		.4byte	.LFB3
 3041 0d77 EC000000 		.4byte	.LFE3-.LFB3
 3042 0d7b 01       		.uleb128 0x1
 3043 0d7c 9C       		.byte	0x9c
 3044 0d7d F90D0000 		.4byte	0xdf9
 3045 0d81 19       		.uleb128 0x19
 3046 0d82 A5010000 		.4byte	.LASF282
 3047 0d86 01       		.byte	0x1
 3048 0d87 D701     		.2byte	0x1d7
 3049 0d89 980B0000 		.4byte	0xb98
 3050 0d8d 02       		.uleb128 0x2
 3051 0d8e 91       		.byte	0x91
 3052 0d8f 5C       		.sleb128 -36
 3053 0d90 1A       		.uleb128 0x1a
 3054 0d91 6F707400 		.ascii	"opt\000"
 3055 0d95 01       		.byte	0x1
 3056 0d96 D801     		.2byte	0x1d8
 3057 0d98 57010000 		.4byte	0x157
 3058 0d9c 02       		.uleb128 0x2
 3059 0d9d 91       		.byte	0x91
 3060 0d9e 5A       		.sleb128 -38
 3061 0d9f 19       		.uleb128 0x19
 3062 0da0 CD080000 		.4byte	.LASF284
 3063 0da4 01       		.byte	0x1
 3064 0da5 D901     		.2byte	0x1d9
 3065 0da7 1D0C0000 		.4byte	0xc1d
 3066 0dab 02       		.uleb128 0x2
 3067 0dac 91       		.byte	0x91
ARM GAS  C:\Users\alex\AppData\Local\Temp\ccfIfgZ4.s 			page 72


 3068 0dad 54       		.sleb128 -44
 3069 0dae 1C       		.uleb128 0x1c
 3070 0daf D5030000 		.4byte	.LASF288
 3071 0db3 01       		.byte	0x1
 3072 0db4 DB01     		.2byte	0x1db
 3073 0db6 C80C0000 		.4byte	0xcc8
 3074 0dba 02       		.uleb128 0x2
 3075 0dbb 91       		.byte	0x91
 3076 0dbc 6C       		.sleb128 -20
 3077 0dbd 1C       		.uleb128 0x1c
 3078 0dbe A70A0000 		.4byte	.LASF289
 3079 0dc2 01       		.byte	0x1
 3080 0dc3 DC01     		.2byte	0x1dc
 3081 0dc5 7A0B0000 		.4byte	0xb7a
 3082 0dc9 02       		.uleb128 0x2
 3083 0dca 91       		.byte	0x91
 3084 0dcb 64       		.sleb128 -28
 3085 0dcc 1B       		.uleb128 0x1b
 3086 0dcd 747300   		.ascii	"ts\000"
 3087 0dd0 01       		.byte	0x1
 3088 0dd1 DD01     		.2byte	0x1dd
 3089 0dd3 E9000000 		.4byte	0xe9
 3090 0dd7 02       		.uleb128 0x2
 3091 0dd8 91       		.byte	0x91
 3092 0dd9 68       		.sleb128 -24
 3093 0dda 1C       		.uleb128 0x1c
 3094 0ddb 580B0000 		.4byte	.LASF286
 3095 0ddf 01       		.byte	0x1
 3096 0de0 DE01     		.2byte	0x1de
 3097 0de2 41010000 		.4byte	0x141
 3098 0de6 02       		.uleb128 0x2
 3099 0de7 91       		.byte	0x91
 3100 0de8 76       		.sleb128 -10
 3101 0de9 1C       		.uleb128 0x1c
 3102 0dea 4B050000 		.4byte	.LASF285
 3103 0dee 01       		.byte	0x1
 3104 0def DF01     		.2byte	0x1df
 3105 0df1 D2000000 		.4byte	0xd2
 3106 0df5 02       		.uleb128 0x2
 3107 0df6 91       		.byte	0x91
 3108 0df7 70       		.sleb128 -16
 3109 0df8 00       		.byte	0
 3110 0df9 18       		.uleb128 0x18
 3111 0dfa 01040000 		.4byte	.LASF296
 3112 0dfe 01       		.byte	0x1
 3113 0dff 4802     		.2byte	0x248
 3114 0e01 78010000 		.4byte	0x178
 3115 0e05 00000000 		.4byte	.LFB4
 3116 0e09 6C000000 		.4byte	.LFE4-.LFB4
 3117 0e0d 01       		.uleb128 0x1
 3118 0e0e 9C       		.byte	0x9c
 3119 0e0f 5E0E0000 		.4byte	0xe5e
 3120 0e13 19       		.uleb128 0x19
 3121 0e14 A5010000 		.4byte	.LASF282
 3122 0e18 01       		.byte	0x1
 3123 0e19 4802     		.2byte	0x248
 3124 0e1b 980B0000 		.4byte	0xb98
ARM GAS  C:\Users\alex\AppData\Local\Temp\ccfIfgZ4.s 			page 73


 3125 0e1f 02       		.uleb128 0x2
 3126 0e20 91       		.byte	0x91
 3127 0e21 6C       		.sleb128 -20
 3128 0e22 1A       		.uleb128 0x1a
 3129 0e23 6F707400 		.ascii	"opt\000"
 3130 0e27 01       		.byte	0x1
 3131 0e28 4902     		.2byte	0x249
 3132 0e2a 57010000 		.4byte	0x157
 3133 0e2e 02       		.uleb128 0x2
 3134 0e2f 91       		.byte	0x91
 3135 0e30 6A       		.sleb128 -22
 3136 0e31 19       		.uleb128 0x19
 3137 0e32 CD080000 		.4byte	.LASF284
 3138 0e36 01       		.byte	0x1
 3139 0e37 4A02     		.2byte	0x24a
 3140 0e39 1D0C0000 		.4byte	0xc1d
 3141 0e3d 02       		.uleb128 0x2
 3142 0e3e 91       		.byte	0x91
 3143 0e3f 64       		.sleb128 -28
 3144 0e40 1B       		.uleb128 0x1b
 3145 0e41 63747200 		.ascii	"ctr\000"
 3146 0e45 01       		.byte	0x1
 3147 0e46 4C02     		.2byte	0x24c
 3148 0e48 78010000 		.4byte	0x178
 3149 0e4c 02       		.uleb128 0x2
 3150 0e4d 91       		.byte	0x91
 3151 0e4e 70       		.sleb128 -16
 3152 0e4f 1B       		.uleb128 0x1b
 3153 0e50 747300   		.ascii	"ts\000"
 3154 0e53 01       		.byte	0x1
 3155 0e54 4D02     		.2byte	0x24d
 3156 0e56 E9000000 		.4byte	0xe9
 3157 0e5a 02       		.uleb128 0x2
 3158 0e5b 91       		.byte	0x91
 3159 0e5c 74       		.sleb128 -12
 3160 0e5d 00       		.byte	0
 3161 0e5e 1D       		.uleb128 0x1d
 3162 0e5f 1E100000 		.4byte	.LASF298
 3163 0e63 01       		.byte	0x1
 3164 0e64 A402     		.2byte	0x2a4
 3165 0e66 00000000 		.4byte	.LFB5
 3166 0e6a 7C000000 		.4byte	.LFE5-.LFB5
 3167 0e6e 01       		.uleb128 0x1
 3168 0e6f 9C       		.byte	0x9c
 3169 0e70 C00E0000 		.4byte	0xec0
 3170 0e74 19       		.uleb128 0x19
 3171 0e75 A5010000 		.4byte	.LASF282
 3172 0e79 01       		.byte	0x1
 3173 0e7a A402     		.2byte	0x2a4
 3174 0e7c 980B0000 		.4byte	0xb98
 3175 0e80 02       		.uleb128 0x2
 3176 0e81 91       		.byte	0x91
 3177 0e82 6C       		.sleb128 -20
 3178 0e83 1A       		.uleb128 0x1a
 3179 0e84 636E7400 		.ascii	"cnt\000"
 3180 0e88 01       		.byte	0x1
 3181 0e89 A502     		.2byte	0x2a5
ARM GAS  C:\Users\alex\AppData\Local\Temp\ccfIfgZ4.s 			page 74


 3182 0e8b 78010000 		.4byte	0x178
 3183 0e8f 02       		.uleb128 0x2
 3184 0e90 91       		.byte	0x91
 3185 0e91 68       		.sleb128 -24
 3186 0e92 19       		.uleb128 0x19
 3187 0e93 CD080000 		.4byte	.LASF284
 3188 0e97 01       		.byte	0x1
 3189 0e98 A602     		.2byte	0x2a6
 3190 0e9a 1D0C0000 		.4byte	0xc1d
 3191 0e9e 02       		.uleb128 0x2
 3192 0e9f 91       		.byte	0x91
 3193 0ea0 64       		.sleb128 -28
 3194 0ea1 1C       		.uleb128 0x1c
 3195 0ea2 D5030000 		.4byte	.LASF288
 3196 0ea6 01       		.byte	0x1
 3197 0ea7 A802     		.2byte	0x2a8
 3198 0ea9 C80C0000 		.4byte	0xcc8
 3199 0ead 02       		.uleb128 0x2
 3200 0eae 91       		.byte	0x91
 3201 0eaf 70       		.sleb128 -16
 3202 0eb0 1C       		.uleb128 0x1c
 3203 0eb1 4B050000 		.4byte	.LASF285
 3204 0eb5 01       		.byte	0x1
 3205 0eb6 A902     		.2byte	0x2a9
 3206 0eb8 D2000000 		.4byte	0xd2
 3207 0ebc 02       		.uleb128 0x2
 3208 0ebd 91       		.byte	0x91
 3209 0ebe 74       		.sleb128 -12
 3210 0ebf 00       		.byte	0
 3211 0ec0 1D       		.uleb128 0x1d
 3212 0ec1 D60B0000 		.4byte	.LASF299
 3213 0ec5 01       		.byte	0x1
 3214 0ec6 EA02     		.2byte	0x2ea
 3215 0ec8 00000000 		.4byte	.LFB6
 3216 0ecc 3C000000 		.4byte	.LFE6-.LFB6
 3217 0ed0 01       		.uleb128 0x1
 3218 0ed1 9C       		.byte	0x9c
 3219 0ed2 E60E0000 		.4byte	0xee6
 3220 0ed6 19       		.uleb128 0x19
 3221 0ed7 A5010000 		.4byte	.LASF282
 3222 0edb 01       		.byte	0x1
 3223 0edc EA02     		.2byte	0x2ea
 3224 0ede 980B0000 		.4byte	0xb98
 3225 0ee2 02       		.uleb128 0x2
 3226 0ee3 91       		.byte	0x91
 3227 0ee4 74       		.sleb128 -12
 3228 0ee5 00       		.byte	0
 3229 0ee6 1E       		.uleb128 0x1e
 3230 0ee7 8E0F0000 		.4byte	.LASF300
 3231 0eeb 01       		.byte	0x1
 3232 0eec 0403     		.2byte	0x304
 3233 0eee 00000000 		.4byte	.LFB7
 3234 0ef2 4C000000 		.4byte	.LFE7-.LFB7
 3235 0ef6 01       		.uleb128 0x1
 3236 0ef7 9C       		.byte	0x9c
 3237 0ef8 0C0F0000 		.4byte	0xf0c
 3238 0efc 19       		.uleb128 0x19
ARM GAS  C:\Users\alex\AppData\Local\Temp\ccfIfgZ4.s 			page 75


 3239 0efd A5010000 		.4byte	.LASF282
 3240 0f01 01       		.byte	0x1
 3241 0f02 0403     		.2byte	0x304
 3242 0f04 980B0000 		.4byte	0xb98
 3243 0f08 02       		.uleb128 0x2
 3244 0f09 91       		.byte	0x91
 3245 0f0a 74       		.sleb128 -12
 3246 0f0b 00       		.byte	0
 3247 0f0c 1E       		.uleb128 0x1e
 3248 0f0d C8090000 		.4byte	.LASF301
 3249 0f11 01       		.byte	0x1
 3250 0f12 1303     		.2byte	0x313
 3251 0f14 00000000 		.4byte	.LFB8
 3252 0f18 70000000 		.4byte	.LFE8-.LFB8
 3253 0f1c 01       		.uleb128 0x1
 3254 0f1d 9C       		.byte	0x9c
 3255 0f1e 500F0000 		.4byte	0xf50
 3256 0f22 19       		.uleb128 0x19
 3257 0f23 A5010000 		.4byte	.LASF282
 3258 0f27 01       		.byte	0x1
 3259 0f28 1303     		.2byte	0x313
 3260 0f2a 980B0000 		.4byte	0xb98
 3261 0f2e 02       		.uleb128 0x2
 3262 0f2f 91       		.byte	0x91
 3263 0f30 6C       		.sleb128 -20
 3264 0f31 1C       		.uleb128 0x1c
 3265 0f32 EB070000 		.4byte	.LASF302
 3266 0f36 01       		.byte	0x1
 3267 0f37 1503     		.2byte	0x315
 3268 0f39 980B0000 		.4byte	0xb98
 3269 0f3d 02       		.uleb128 0x2
 3270 0f3e 91       		.byte	0x91
 3271 0f3f 70       		.sleb128 -16
 3272 0f40 1C       		.uleb128 0x1c
 3273 0f41 920B0000 		.4byte	.LASF303
 3274 0f45 01       		.byte	0x1
 3275 0f46 1603     		.2byte	0x316
 3276 0f48 980B0000 		.4byte	0xb98
 3277 0f4c 02       		.uleb128 0x2
 3278 0f4d 91       		.byte	0x91
 3279 0f4e 74       		.sleb128 -12
 3280 0f4f 00       		.byte	0
 3281 0f50 1E       		.uleb128 0x1e
 3282 0f51 1C0A0000 		.4byte	.LASF304
 3283 0f55 01       		.byte	0x1
 3284 0f56 4203     		.2byte	0x342
 3285 0f58 00000000 		.4byte	.LFB9
 3286 0f5c 2C000000 		.4byte	.LFE9-.LFB9
 3287 0f60 01       		.uleb128 0x1
 3288 0f61 9C       		.byte	0x9c
 3289 0f62 760F0000 		.4byte	0xf76
 3290 0f66 19       		.uleb128 0x19
 3291 0f67 CD080000 		.4byte	.LASF284
 3292 0f6b 01       		.byte	0x1
 3293 0f6c 4203     		.2byte	0x342
 3294 0f6e 1D0C0000 		.4byte	0xc1d
 3295 0f72 02       		.uleb128 0x2
ARM GAS  C:\Users\alex\AppData\Local\Temp\ccfIfgZ4.s 			page 76


 3296 0f73 91       		.byte	0x91
 3297 0f74 74       		.sleb128 -12
 3298 0f75 00       		.byte	0
 3299 0f76 18       		.uleb128 0x18
 3300 0f77 48070000 		.4byte	.LASF305
 3301 0f7b 01       		.byte	0x1
 3302 0f7c 7403     		.2byte	0x374
 3303 0f7e 78010000 		.4byte	0x178
 3304 0f82 00000000 		.4byte	.LFB10
 3305 0f86 DE000000 		.4byte	.LFE10-.LFB10
 3306 0f8a 01       		.uleb128 0x1
 3307 0f8b 9C       		.byte	0x9c
 3308 0f8c 35100000 		.4byte	0x1035
 3309 0f90 19       		.uleb128 0x19
 3310 0f91 A5010000 		.4byte	.LASF282
 3311 0f95 01       		.byte	0x1
 3312 0f96 7403     		.2byte	0x374
 3313 0f98 980B0000 		.4byte	0xb98
 3314 0f9c 02       		.uleb128 0x2
 3315 0f9d 91       		.byte	0x91
 3316 0f9e 54       		.sleb128 -44
 3317 0f9f 1A       		.uleb128 0x1a
 3318 0fa0 6F707400 		.ascii	"opt\000"
 3319 0fa4 01       		.byte	0x1
 3320 0fa5 7503     		.2byte	0x375
 3321 0fa7 57010000 		.4byte	0x157
 3322 0fab 02       		.uleb128 0x2
 3323 0fac 91       		.byte	0x91
 3324 0fad 52       		.sleb128 -46
 3325 0fae 1A       		.uleb128 0x1a
 3326 0faf 747300   		.ascii	"ts\000"
 3327 0fb2 01       		.byte	0x1
 3328 0fb3 7603     		.2byte	0x376
 3329 0fb5 E9000000 		.4byte	0xe9
 3330 0fb9 02       		.uleb128 0x2
 3331 0fba 91       		.byte	0x91
 3332 0fbb 4C       		.sleb128 -52
 3333 0fbc 19       		.uleb128 0x19
 3334 0fbd CD080000 		.4byte	.LASF284
 3335 0fc1 01       		.byte	0x1
 3336 0fc2 7703     		.2byte	0x377
 3337 0fc4 1D0C0000 		.4byte	0xc1d
 3338 0fc8 02       		.uleb128 0x2
 3339 0fc9 91       		.byte	0x91
 3340 0fca 48       		.sleb128 -56
 3341 0fcb 1B       		.uleb128 0x1b
 3342 0fcc 636E7400 		.ascii	"cnt\000"
 3343 0fd0 01       		.byte	0x1
 3344 0fd1 7903     		.2byte	0x379
 3345 0fd3 41010000 		.4byte	0x141
 3346 0fd7 02       		.uleb128 0x2
 3347 0fd8 91       		.byte	0x91
 3348 0fd9 76       		.sleb128 -10
 3349 0fda 1B       		.uleb128 0x1b
 3350 0fdb 63747200 		.ascii	"ctr\000"
 3351 0fdf 01       		.byte	0x1
 3352 0fe0 7A03     		.2byte	0x37a
ARM GAS  C:\Users\alex\AppData\Local\Temp\ccfIfgZ4.s 			page 77


 3353 0fe2 78010000 		.4byte	0x178
 3354 0fe6 02       		.uleb128 0x2
 3355 0fe7 91       		.byte	0x91
 3356 0fe8 5C       		.sleb128 -36
 3357 0fe9 1C       		.uleb128 0x1c
 3358 0fea D5030000 		.4byte	.LASF288
 3359 0fee 01       		.byte	0x1
 3360 0fef 7B03     		.2byte	0x37b
 3361 0ff1 C80C0000 		.4byte	0xcc8
 3362 0ff5 02       		.uleb128 0x2
 3363 0ff6 91       		.byte	0x91
 3364 0ff7 68       		.sleb128 -24
 3365 0ff8 1C       		.uleb128 0x1c
 3366 0ff9 48090000 		.4byte	.LASF287
 3367 0ffd 01       		.byte	0x1
 3368 0ffe 7C03     		.2byte	0x37c
 3369 1000 800B0000 		.4byte	0xb80
 3370 1004 02       		.uleb128 0x2
 3371 1005 91       		.byte	0x91
 3372 1006 70       		.sleb128 -16
 3373 1007 1C       		.uleb128 0x1c
 3374 1008 4C0C0000 		.4byte	.LASF306
 3375 100c 01       		.byte	0x1
 3376 100d 7D03     		.2byte	0x37d
 3377 100f 800B0000 		.4byte	0xb80
 3378 1013 02       		.uleb128 0x2
 3379 1014 91       		.byte	0x91
 3380 1015 60       		.sleb128 -32
 3381 1016 1C       		.uleb128 0x1c
 3382 1017 A70A0000 		.4byte	.LASF289
 3383 101b 01       		.byte	0x1
 3384 101c 7E03     		.2byte	0x37e
 3385 101e 7A0B0000 		.4byte	0xb7a
 3386 1022 02       		.uleb128 0x2
 3387 1023 91       		.byte	0x91
 3388 1024 64       		.sleb128 -28
 3389 1025 1C       		.uleb128 0x1c
 3390 1026 4B050000 		.4byte	.LASF285
 3391 102a 01       		.byte	0x1
 3392 102b 7F03     		.2byte	0x37f
 3393 102d D2000000 		.4byte	0xd2
 3394 1031 02       		.uleb128 0x2
 3395 1032 91       		.byte	0x91
 3396 1033 6C       		.sleb128 -20
 3397 1034 00       		.byte	0
 3398 1035 1F       		.uleb128 0x1f
 3399 1036 440D0000 		.4byte	.LASF307
 3400 103a 05       		.byte	0x5
 3401 103b 5F04     		.2byte	0x45f
 3402 103d 36010000 		.4byte	0x136
 3403 1041 1F       		.uleb128 0x1f
 3404 1042 70100000 		.4byte	.LASF308
 3405 1046 05       		.byte	0x5
 3406 1047 AD04     		.2byte	0x4ad
 3407 1049 36010000 		.4byte	0x136
 3408 104d 1F       		.uleb128 0x1f
 3409 104e 2A060000 		.4byte	.LASF309
ARM GAS  C:\Users\alex\AppData\Local\Temp\ccfIfgZ4.s 			page 78


 3410 1052 05       		.byte	0x5
 3411 1053 B504     		.2byte	0x4b5
 3412 1055 980B0000 		.4byte	0xb98
 3413 1059 1F       		.uleb128 0x1f
 3414 105a CC030000 		.4byte	.LASF310
 3415 105e 05       		.byte	0x5
 3416 105f B704     		.2byte	0x4b7
 3417 1061 41010000 		.4byte	0x141
 3418 1065 1F       		.uleb128 0x1f
 3419 1066 E0010000 		.4byte	.LASF311
 3420 106a 05       		.byte	0x5
 3421 106b E504     		.2byte	0x4e5
 3422 106d 7A0B0000 		.4byte	0xb7a
 3423 1071 00       		.byte	0
 3424              		.section	.debug_abbrev,"",%progbits
 3425              	.Ldebug_abbrev0:
 3426 0000 01       		.uleb128 0x1
 3427 0001 11       		.uleb128 0x11
 3428 0002 01       		.byte	0x1
 3429 0003 25       		.uleb128 0x25
 3430 0004 0E       		.uleb128 0xe
 3431 0005 13       		.uleb128 0x13
 3432 0006 0B       		.uleb128 0xb
 3433 0007 03       		.uleb128 0x3
 3434 0008 0E       		.uleb128 0xe
 3435 0009 1B       		.uleb128 0x1b
 3436 000a 0E       		.uleb128 0xe
 3437 000b 55       		.uleb128 0x55
 3438 000c 17       		.uleb128 0x17
 3439 000d 11       		.uleb128 0x11
 3440 000e 01       		.uleb128 0x1
 3441 000f 10       		.uleb128 0x10
 3442 0010 17       		.uleb128 0x17
 3443 0011 00       		.byte	0
 3444 0012 00       		.byte	0
 3445 0013 02       		.uleb128 0x2
 3446 0014 16       		.uleb128 0x16
 3447 0015 00       		.byte	0
 3448 0016 03       		.uleb128 0x3
 3449 0017 0E       		.uleb128 0xe
 3450 0018 3A       		.uleb128 0x3a
 3451 0019 0B       		.uleb128 0xb
 3452 001a 3B       		.uleb128 0x3b
 3453 001b 0B       		.uleb128 0xb
 3454 001c 49       		.uleb128 0x49
 3455 001d 13       		.uleb128 0x13
 3456 001e 00       		.byte	0
 3457 001f 00       		.byte	0
 3458 0020 03       		.uleb128 0x3
 3459 0021 24       		.uleb128 0x24
 3460 0022 00       		.byte	0
 3461 0023 0B       		.uleb128 0xb
 3462 0024 0B       		.uleb128 0xb
 3463 0025 3E       		.uleb128 0x3e
 3464 0026 0B       		.uleb128 0xb
 3465 0027 03       		.uleb128 0x3
 3466 0028 0E       		.uleb128 0xe
ARM GAS  C:\Users\alex\AppData\Local\Temp\ccfIfgZ4.s 			page 79


 3467 0029 00       		.byte	0
 3468 002a 00       		.byte	0
 3469 002b 04       		.uleb128 0x4
 3470 002c 24       		.uleb128 0x24
 3471 002d 00       		.byte	0
 3472 002e 0B       		.uleb128 0xb
 3473 002f 0B       		.uleb128 0xb
 3474 0030 3E       		.uleb128 0x3e
 3475 0031 0B       		.uleb128 0xb
 3476 0032 03       		.uleb128 0x3
 3477 0033 08       		.uleb128 0x8
 3478 0034 00       		.byte	0
 3479 0035 00       		.byte	0
 3480 0036 05       		.uleb128 0x5
 3481 0037 0F       		.uleb128 0xf
 3482 0038 00       		.byte	0
 3483 0039 0B       		.uleb128 0xb
 3484 003a 0B       		.uleb128 0xb
 3485 003b 49       		.uleb128 0x49
 3486 003c 13       		.uleb128 0x13
 3487 003d 00       		.byte	0
 3488 003e 00       		.byte	0
 3489 003f 06       		.uleb128 0x6
 3490 0040 15       		.uleb128 0x15
 3491 0041 01       		.byte	0x1
 3492 0042 27       		.uleb128 0x27
 3493 0043 19       		.uleb128 0x19
 3494 0044 01       		.uleb128 0x1
 3495 0045 13       		.uleb128 0x13
 3496 0046 00       		.byte	0
 3497 0047 00       		.byte	0
 3498 0048 07       		.uleb128 0x7
 3499 0049 05       		.uleb128 0x5
 3500 004a 00       		.byte	0
 3501 004b 49       		.uleb128 0x49
 3502 004c 13       		.uleb128 0x13
 3503 004d 00       		.byte	0
 3504 004e 00       		.byte	0
 3505 004f 08       		.uleb128 0x8
 3506 0050 0F       		.uleb128 0xf
 3507 0051 00       		.byte	0
 3508 0052 0B       		.uleb128 0xb
 3509 0053 0B       		.uleb128 0xb
 3510 0054 00       		.byte	0
 3511 0055 00       		.byte	0
 3512 0056 09       		.uleb128 0x9
 3513 0057 16       		.uleb128 0x16
 3514 0058 00       		.byte	0
 3515 0059 03       		.uleb128 0x3
 3516 005a 0E       		.uleb128 0xe
 3517 005b 3A       		.uleb128 0x3a
 3518 005c 0B       		.uleb128 0xb
 3519 005d 3B       		.uleb128 0x3b
 3520 005e 05       		.uleb128 0x5
 3521 005f 49       		.uleb128 0x49
 3522 0060 13       		.uleb128 0x13
 3523 0061 00       		.byte	0
ARM GAS  C:\Users\alex\AppData\Local\Temp\ccfIfgZ4.s 			page 80


 3524 0062 00       		.byte	0
 3525 0063 0A       		.uleb128 0xa
 3526 0064 04       		.uleb128 0x4
 3527 0065 01       		.byte	0x1
 3528 0066 03       		.uleb128 0x3
 3529 0067 0E       		.uleb128 0xe
 3530 0068 0B       		.uleb128 0xb
 3531 0069 0B       		.uleb128 0xb
 3532 006a 49       		.uleb128 0x49
 3533 006b 13       		.uleb128 0x13
 3534 006c 3A       		.uleb128 0x3a
 3535 006d 0B       		.uleb128 0xb
 3536 006e 3B       		.uleb128 0x3b
 3537 006f 05       		.uleb128 0x5
 3538 0070 01       		.uleb128 0x1
 3539 0071 13       		.uleb128 0x13
 3540 0072 00       		.byte	0
 3541 0073 00       		.byte	0
 3542 0074 0B       		.uleb128 0xb
 3543 0075 28       		.uleb128 0x28
 3544 0076 00       		.byte	0
 3545 0077 03       		.uleb128 0x3
 3546 0078 0E       		.uleb128 0xe
 3547 0079 1C       		.uleb128 0x1c
 3548 007a 0B       		.uleb128 0xb
 3549 007b 00       		.byte	0
 3550 007c 00       		.byte	0
 3551 007d 0C       		.uleb128 0xc
 3552 007e 28       		.uleb128 0x28
 3553 007f 00       		.byte	0
 3554 0080 03       		.uleb128 0x3
 3555 0081 0E       		.uleb128 0xe
 3556 0082 1C       		.uleb128 0x1c
 3557 0083 05       		.uleb128 0x5
 3558 0084 00       		.byte	0
 3559 0085 00       		.byte	0
 3560 0086 0D       		.uleb128 0xd
 3561 0087 13       		.uleb128 0x13
 3562 0088 01       		.byte	0x1
 3563 0089 03       		.uleb128 0x3
 3564 008a 0E       		.uleb128 0xe
 3565 008b 0B       		.uleb128 0xb
 3566 008c 0B       		.uleb128 0xb
 3567 008d 3A       		.uleb128 0x3a
 3568 008e 0B       		.uleb128 0xb
 3569 008f 3B       		.uleb128 0x3b
 3570 0090 05       		.uleb128 0x5
 3571 0091 01       		.uleb128 0x1
 3572 0092 13       		.uleb128 0x13
 3573 0093 00       		.byte	0
 3574 0094 00       		.byte	0
 3575 0095 0E       		.uleb128 0xe
 3576 0096 0D       		.uleb128 0xd
 3577 0097 00       		.byte	0
 3578 0098 03       		.uleb128 0x3
 3579 0099 0E       		.uleb128 0xe
 3580 009a 3A       		.uleb128 0x3a
ARM GAS  C:\Users\alex\AppData\Local\Temp\ccfIfgZ4.s 			page 81


 3581 009b 0B       		.uleb128 0xb
 3582 009c 3B       		.uleb128 0x3b
 3583 009d 05       		.uleb128 0x5
 3584 009e 49       		.uleb128 0x49
 3585 009f 13       		.uleb128 0x13
 3586 00a0 38       		.uleb128 0x38
 3587 00a1 0B       		.uleb128 0xb
 3588 00a2 00       		.byte	0
 3589 00a3 00       		.byte	0
 3590 00a4 0F       		.uleb128 0xf
 3591 00a5 0D       		.uleb128 0xd
 3592 00a6 00       		.byte	0
 3593 00a7 03       		.uleb128 0x3
 3594 00a8 08       		.uleb128 0x8
 3595 00a9 3A       		.uleb128 0x3a
 3596 00aa 0B       		.uleb128 0xb
 3597 00ab 3B       		.uleb128 0x3b
 3598 00ac 05       		.uleb128 0x5
 3599 00ad 49       		.uleb128 0x49
 3600 00ae 13       		.uleb128 0x13
 3601 00af 38       		.uleb128 0x38
 3602 00b0 0B       		.uleb128 0xb
 3603 00b1 00       		.byte	0
 3604 00b2 00       		.byte	0
 3605 00b3 10       		.uleb128 0x10
 3606 00b4 01       		.uleb128 0x1
 3607 00b5 01       		.byte	0x1
 3608 00b6 49       		.uleb128 0x49
 3609 00b7 13       		.uleb128 0x13
 3610 00b8 01       		.uleb128 0x1
 3611 00b9 13       		.uleb128 0x13
 3612 00ba 00       		.byte	0
 3613 00bb 00       		.byte	0
 3614 00bc 11       		.uleb128 0x11
 3615 00bd 21       		.uleb128 0x21
 3616 00be 00       		.byte	0
 3617 00bf 49       		.uleb128 0x49
 3618 00c0 13       		.uleb128 0x13
 3619 00c1 2F       		.uleb128 0x2f
 3620 00c2 0B       		.uleb128 0xb
 3621 00c3 00       		.byte	0
 3622 00c4 00       		.byte	0
 3623 00c5 12       		.uleb128 0x12
 3624 00c6 2E       		.uleb128 0x2e
 3625 00c7 01       		.byte	0x1
 3626 00c8 3F       		.uleb128 0x3f
 3627 00c9 19       		.uleb128 0x19
 3628 00ca 03       		.uleb128 0x3
 3629 00cb 0E       		.uleb128 0xe
 3630 00cc 3A       		.uleb128 0x3a
 3631 00cd 0B       		.uleb128 0xb
 3632 00ce 3B       		.uleb128 0x3b
 3633 00cf 0B       		.uleb128 0xb
 3634 00d0 27       		.uleb128 0x27
 3635 00d1 19       		.uleb128 0x19
 3636 00d2 11       		.uleb128 0x11
 3637 00d3 01       		.uleb128 0x1
ARM GAS  C:\Users\alex\AppData\Local\Temp\ccfIfgZ4.s 			page 82


 3638 00d4 12       		.uleb128 0x12
 3639 00d5 06       		.uleb128 0x6
 3640 00d6 40       		.uleb128 0x40
 3641 00d7 18       		.uleb128 0x18
 3642 00d8 9642     		.uleb128 0x2116
 3643 00da 19       		.uleb128 0x19
 3644 00db 01       		.uleb128 0x1
 3645 00dc 13       		.uleb128 0x13
 3646 00dd 00       		.byte	0
 3647 00de 00       		.byte	0
 3648 00df 13       		.uleb128 0x13
 3649 00e0 05       		.uleb128 0x5
 3650 00e1 00       		.byte	0
 3651 00e2 03       		.uleb128 0x3
 3652 00e3 0E       		.uleb128 0xe
 3653 00e4 3A       		.uleb128 0x3a
 3654 00e5 0B       		.uleb128 0xb
 3655 00e6 3B       		.uleb128 0x3b
 3656 00e7 0B       		.uleb128 0xb
 3657 00e8 49       		.uleb128 0x49
 3658 00e9 13       		.uleb128 0x13
 3659 00ea 02       		.uleb128 0x2
 3660 00eb 18       		.uleb128 0x18
 3661 00ec 00       		.byte	0
 3662 00ed 00       		.byte	0
 3663 00ee 14       		.uleb128 0x14
 3664 00ef 05       		.uleb128 0x5
 3665 00f0 00       		.byte	0
 3666 00f1 03       		.uleb128 0x3
 3667 00f2 08       		.uleb128 0x8
 3668 00f3 3A       		.uleb128 0x3a
 3669 00f4 0B       		.uleb128 0xb
 3670 00f5 3B       		.uleb128 0x3b
 3671 00f6 0B       		.uleb128 0xb
 3672 00f7 49       		.uleb128 0x49
 3673 00f8 13       		.uleb128 0x13
 3674 00f9 02       		.uleb128 0x2
 3675 00fa 18       		.uleb128 0x18
 3676 00fb 00       		.byte	0
 3677 00fc 00       		.byte	0
 3678 00fd 15       		.uleb128 0x15
 3679 00fe 34       		.uleb128 0x34
 3680 00ff 00       		.byte	0
 3681 0100 03       		.uleb128 0x3
 3682 0101 0E       		.uleb128 0xe
 3683 0102 3A       		.uleb128 0x3a
 3684 0103 0B       		.uleb128 0xb
 3685 0104 3B       		.uleb128 0x3b
 3686 0105 0B       		.uleb128 0xb
 3687 0106 49       		.uleb128 0x49
 3688 0107 13       		.uleb128 0x13
 3689 0108 02       		.uleb128 0x2
 3690 0109 18       		.uleb128 0x18
 3691 010a 00       		.byte	0
 3692 010b 00       		.byte	0
 3693 010c 16       		.uleb128 0x16
 3694 010d 2E       		.uleb128 0x2e
ARM GAS  C:\Users\alex\AppData\Local\Temp\ccfIfgZ4.s 			page 83


 3695 010e 01       		.byte	0x1
 3696 010f 3F       		.uleb128 0x3f
 3697 0110 19       		.uleb128 0x19
 3698 0111 03       		.uleb128 0x3
 3699 0112 0E       		.uleb128 0xe
 3700 0113 3A       		.uleb128 0x3a
 3701 0114 0B       		.uleb128 0xb
 3702 0115 3B       		.uleb128 0x3b
 3703 0116 0B       		.uleb128 0xb
 3704 0117 27       		.uleb128 0x27
 3705 0118 19       		.uleb128 0x19
 3706 0119 49       		.uleb128 0x49
 3707 011a 13       		.uleb128 0x13
 3708 011b 11       		.uleb128 0x11
 3709 011c 01       		.uleb128 0x1
 3710 011d 12       		.uleb128 0x12
 3711 011e 06       		.uleb128 0x6
 3712 011f 40       		.uleb128 0x40
 3713 0120 18       		.uleb128 0x18
 3714 0121 9642     		.uleb128 0x2116
 3715 0123 19       		.uleb128 0x19
 3716 0124 01       		.uleb128 0x1
 3717 0125 13       		.uleb128 0x13
 3718 0126 00       		.byte	0
 3719 0127 00       		.byte	0
 3720 0128 17       		.uleb128 0x17
 3721 0129 34       		.uleb128 0x34
 3722 012a 00       		.byte	0
 3723 012b 03       		.uleb128 0x3
 3724 012c 08       		.uleb128 0x8
 3725 012d 3A       		.uleb128 0x3a
 3726 012e 0B       		.uleb128 0xb
 3727 012f 3B       		.uleb128 0x3b
 3728 0130 0B       		.uleb128 0xb
 3729 0131 49       		.uleb128 0x49
 3730 0132 13       		.uleb128 0x13
 3731 0133 02       		.uleb128 0x2
 3732 0134 18       		.uleb128 0x18
 3733 0135 00       		.byte	0
 3734 0136 00       		.byte	0
 3735 0137 18       		.uleb128 0x18
 3736 0138 2E       		.uleb128 0x2e
 3737 0139 01       		.byte	0x1
 3738 013a 3F       		.uleb128 0x3f
 3739 013b 19       		.uleb128 0x19
 3740 013c 03       		.uleb128 0x3
 3741 013d 0E       		.uleb128 0xe
 3742 013e 3A       		.uleb128 0x3a
 3743 013f 0B       		.uleb128 0xb
 3744 0140 3B       		.uleb128 0x3b
 3745 0141 05       		.uleb128 0x5
 3746 0142 27       		.uleb128 0x27
 3747 0143 19       		.uleb128 0x19
 3748 0144 49       		.uleb128 0x49
 3749 0145 13       		.uleb128 0x13
 3750 0146 11       		.uleb128 0x11
 3751 0147 01       		.uleb128 0x1
ARM GAS  C:\Users\alex\AppData\Local\Temp\ccfIfgZ4.s 			page 84


 3752 0148 12       		.uleb128 0x12
 3753 0149 06       		.uleb128 0x6
 3754 014a 40       		.uleb128 0x40
 3755 014b 18       		.uleb128 0x18
 3756 014c 9642     		.uleb128 0x2116
 3757 014e 19       		.uleb128 0x19
 3758 014f 01       		.uleb128 0x1
 3759 0150 13       		.uleb128 0x13
 3760 0151 00       		.byte	0
 3761 0152 00       		.byte	0
 3762 0153 19       		.uleb128 0x19
 3763 0154 05       		.uleb128 0x5
 3764 0155 00       		.byte	0
 3765 0156 03       		.uleb128 0x3
 3766 0157 0E       		.uleb128 0xe
 3767 0158 3A       		.uleb128 0x3a
 3768 0159 0B       		.uleb128 0xb
 3769 015a 3B       		.uleb128 0x3b
 3770 015b 05       		.uleb128 0x5
 3771 015c 49       		.uleb128 0x49
 3772 015d 13       		.uleb128 0x13
 3773 015e 02       		.uleb128 0x2
 3774 015f 18       		.uleb128 0x18
 3775 0160 00       		.byte	0
 3776 0161 00       		.byte	0
 3777 0162 1A       		.uleb128 0x1a
 3778 0163 05       		.uleb128 0x5
 3779 0164 00       		.byte	0
 3780 0165 03       		.uleb128 0x3
 3781 0166 08       		.uleb128 0x8
 3782 0167 3A       		.uleb128 0x3a
 3783 0168 0B       		.uleb128 0xb
 3784 0169 3B       		.uleb128 0x3b
 3785 016a 05       		.uleb128 0x5
 3786 016b 49       		.uleb128 0x49
 3787 016c 13       		.uleb128 0x13
 3788 016d 02       		.uleb128 0x2
 3789 016e 18       		.uleb128 0x18
 3790 016f 00       		.byte	0
 3791 0170 00       		.byte	0
 3792 0171 1B       		.uleb128 0x1b
 3793 0172 34       		.uleb128 0x34
 3794 0173 00       		.byte	0
 3795 0174 03       		.uleb128 0x3
 3796 0175 08       		.uleb128 0x8
 3797 0176 3A       		.uleb128 0x3a
 3798 0177 0B       		.uleb128 0xb
 3799 0178 3B       		.uleb128 0x3b
 3800 0179 05       		.uleb128 0x5
 3801 017a 49       		.uleb128 0x49
 3802 017b 13       		.uleb128 0x13
 3803 017c 02       		.uleb128 0x2
 3804 017d 18       		.uleb128 0x18
 3805 017e 00       		.byte	0
 3806 017f 00       		.byte	0
 3807 0180 1C       		.uleb128 0x1c
 3808 0181 34       		.uleb128 0x34
ARM GAS  C:\Users\alex\AppData\Local\Temp\ccfIfgZ4.s 			page 85


 3809 0182 00       		.byte	0
 3810 0183 03       		.uleb128 0x3
 3811 0184 0E       		.uleb128 0xe
 3812 0185 3A       		.uleb128 0x3a
 3813 0186 0B       		.uleb128 0xb
 3814 0187 3B       		.uleb128 0x3b
 3815 0188 05       		.uleb128 0x5
 3816 0189 49       		.uleb128 0x49
 3817 018a 13       		.uleb128 0x13
 3818 018b 02       		.uleb128 0x2
 3819 018c 18       		.uleb128 0x18
 3820 018d 00       		.byte	0
 3821 018e 00       		.byte	0
 3822 018f 1D       		.uleb128 0x1d
 3823 0190 2E       		.uleb128 0x2e
 3824 0191 01       		.byte	0x1
 3825 0192 3F       		.uleb128 0x3f
 3826 0193 19       		.uleb128 0x19
 3827 0194 03       		.uleb128 0x3
 3828 0195 0E       		.uleb128 0xe
 3829 0196 3A       		.uleb128 0x3a
 3830 0197 0B       		.uleb128 0xb
 3831 0198 3B       		.uleb128 0x3b
 3832 0199 05       		.uleb128 0x5
 3833 019a 27       		.uleb128 0x27
 3834 019b 19       		.uleb128 0x19
 3835 019c 11       		.uleb128 0x11
 3836 019d 01       		.uleb128 0x1
 3837 019e 12       		.uleb128 0x12
 3838 019f 06       		.uleb128 0x6
 3839 01a0 40       		.uleb128 0x40
 3840 01a1 18       		.uleb128 0x18
 3841 01a2 9642     		.uleb128 0x2116
 3842 01a4 19       		.uleb128 0x19
 3843 01a5 01       		.uleb128 0x1
 3844 01a6 13       		.uleb128 0x13
 3845 01a7 00       		.byte	0
 3846 01a8 00       		.byte	0
 3847 01a9 1E       		.uleb128 0x1e
 3848 01aa 2E       		.uleb128 0x2e
 3849 01ab 01       		.byte	0x1
 3850 01ac 3F       		.uleb128 0x3f
 3851 01ad 19       		.uleb128 0x19
 3852 01ae 03       		.uleb128 0x3
 3853 01af 0E       		.uleb128 0xe
 3854 01b0 3A       		.uleb128 0x3a
 3855 01b1 0B       		.uleb128 0xb
 3856 01b2 3B       		.uleb128 0x3b
 3857 01b3 05       		.uleb128 0x5
 3858 01b4 27       		.uleb128 0x27
 3859 01b5 19       		.uleb128 0x19
 3860 01b6 11       		.uleb128 0x11
 3861 01b7 01       		.uleb128 0x1
 3862 01b8 12       		.uleb128 0x12
 3863 01b9 06       		.uleb128 0x6
 3864 01ba 40       		.uleb128 0x40
 3865 01bb 18       		.uleb128 0x18
ARM GAS  C:\Users\alex\AppData\Local\Temp\ccfIfgZ4.s 			page 86


 3866 01bc 9742     		.uleb128 0x2117
 3867 01be 19       		.uleb128 0x19
 3868 01bf 01       		.uleb128 0x1
 3869 01c0 13       		.uleb128 0x13
 3870 01c1 00       		.byte	0
 3871 01c2 00       		.byte	0
 3872 01c3 1F       		.uleb128 0x1f
 3873 01c4 34       		.uleb128 0x34
 3874 01c5 00       		.byte	0
 3875 01c6 03       		.uleb128 0x3
 3876 01c7 0E       		.uleb128 0xe
 3877 01c8 3A       		.uleb128 0x3a
 3878 01c9 0B       		.uleb128 0xb
 3879 01ca 3B       		.uleb128 0x3b
 3880 01cb 05       		.uleb128 0x5
 3881 01cc 49       		.uleb128 0x49
 3882 01cd 13       		.uleb128 0x13
 3883 01ce 3F       		.uleb128 0x3f
 3884 01cf 19       		.uleb128 0x19
 3885 01d0 3C       		.uleb128 0x3c
 3886 01d1 19       		.uleb128 0x19
 3887 01d2 00       		.byte	0
 3888 01d3 00       		.byte	0
 3889 01d4 00       		.byte	0
 3890              		.section	.debug_aranges,"",%progbits
 3891 0000 6C000000 		.4byte	0x6c
 3892 0004 0200     		.2byte	0x2
 3893 0006 00000000 		.4byte	.Ldebug_info0
 3894 000a 04       		.byte	0x4
 3895 000b 00       		.byte	0
 3896 000c 0000     		.2byte	0
 3897 000e 0000     		.2byte	0
 3898 0010 00000000 		.4byte	.LFB0
 3899 0014 8C000000 		.4byte	.LFE0-.LFB0
 3900 0018 00000000 		.4byte	.LFB1
 3901 001c 24010000 		.4byte	.LFE1-.LFB1
 3902 0020 00000000 		.4byte	.LFB2
 3903 0024 B0010000 		.4byte	.LFE2-.LFB2
 3904 0028 00000000 		.4byte	.LFB3
 3905 002c EC000000 		.4byte	.LFE3-.LFB3
 3906 0030 00000000 		.4byte	.LFB4
 3907 0034 6C000000 		.4byte	.LFE4-.LFB4
 3908 0038 00000000 		.4byte	.LFB5
 3909 003c 7C000000 		.4byte	.LFE5-.LFB5
 3910 0040 00000000 		.4byte	.LFB6
 3911 0044 3C000000 		.4byte	.LFE6-.LFB6
 3912 0048 00000000 		.4byte	.LFB7
 3913 004c 4C000000 		.4byte	.LFE7-.LFB7
 3914 0050 00000000 		.4byte	.LFB8
 3915 0054 70000000 		.4byte	.LFE8-.LFB8
 3916 0058 00000000 		.4byte	.LFB9
 3917 005c 2C000000 		.4byte	.LFE9-.LFB9
 3918 0060 00000000 		.4byte	.LFB10
 3919 0064 DE000000 		.4byte	.LFE10-.LFB10
 3920 0068 00000000 		.4byte	0
 3921 006c 00000000 		.4byte	0
 3922              		.section	.debug_ranges,"",%progbits
ARM GAS  C:\Users\alex\AppData\Local\Temp\ccfIfgZ4.s 			page 87


 3923              	.Ldebug_ranges0:
 3924 0000 00000000 		.4byte	.LFB0
 3925 0004 8C000000 		.4byte	.LFE0
 3926 0008 00000000 		.4byte	.LFB1
 3927 000c 24010000 		.4byte	.LFE1
 3928 0010 00000000 		.4byte	.LFB2
 3929 0014 B0010000 		.4byte	.LFE2
 3930 0018 00000000 		.4byte	.LFB3
 3931 001c EC000000 		.4byte	.LFE3
 3932 0020 00000000 		.4byte	.LFB4
 3933 0024 6C000000 		.4byte	.LFE4
 3934 0028 00000000 		.4byte	.LFB5
 3935 002c 7C000000 		.4byte	.LFE5
 3936 0030 00000000 		.4byte	.LFB6
 3937 0034 3C000000 		.4byte	.LFE6
 3938 0038 00000000 		.4byte	.LFB7
 3939 003c 4C000000 		.4byte	.LFE7
 3940 0040 00000000 		.4byte	.LFB8
 3941 0044 70000000 		.4byte	.LFE8
 3942 0048 00000000 		.4byte	.LFB9
 3943 004c 2C000000 		.4byte	.LFE9
 3944 0050 00000000 		.4byte	.LFB10
 3945 0054 DE000000 		.4byte	.LFE10
 3946 0058 00000000 		.4byte	0
 3947 005c 00000000 		.4byte	0
 3948              		.section	.debug_line,"",%progbits
 3949              	.Ldebug_line0:
 3950 0000 90020000 		.section	.debug_str,"MS",%progbits,1
 3950      0200B100 
 3950      00000201 
 3950      FB0E0D00 
 3950      01010101 
 3951              	.LASF221:
 3952 0000 6F735F74 		.ascii	"os_tcb\000"
 3952      636200
 3953              	.LASF104:
 3954 0007 4F535F45 		.ascii	"OS_ERR_PRIO_INVALID\000"
 3954      52525F50 
 3954      52494F5F 
 3954      494E5641 
 3954      4C494400 
 3955              	.LASF197:
 3956 001b 4F535F45 		.ascii	"OS_ERR\000"
 3956      525200
 3957              	.LASF21:
 3958 0022 4F535F43 		.ascii	"OS_CTX_SW_CTR\000"
 3958      54585F53 
 3958      575F4354 
 3958      5200
 3959              	.LASF183:
 3960 0030 4F535F45 		.ascii	"OS_ERR_TMR_ISR\000"
 3960      52525F54 
 3960      4D525F49 
 3960      535200
 3961              	.LASF170:
 3962 003f 4F535F45 		.ascii	"OS_ERR_TIME_INVALID_MINUTES\000"
 3962      52525F54 
ARM GAS  C:\Users\alex\AppData\Local\Temp\ccfIfgZ4.s 			page 88


 3962      494D455F 
 3962      494E5641 
 3962      4C49445F 
 3963              	.LASF37:
 3964 005b 4F535F45 		.ascii	"OS_ERR_A\000"
 3964      52525F41 
 3964      00
 3965              	.LASF313:
 3966 0064 2E2E5C2E 		.ascii	"..\\..\\..\\..\\..\\..\\uCOS-III\\Source\\os_sem.c\000"
 3966      2E5C2E2E 
 3966      5C2E2E5C 
 3966      2E2E5C2E 
 3966      2E5C7543 
 3967              	.LASF40:
 3968 008f 4F535F45 		.ascii	"OS_ERR_C\000"
 3968      52525F43 
 3968      00
 3969              	.LASF42:
 3970 0098 4F535F45 		.ascii	"OS_ERR_D\000"
 3970      52525F44 
 3970      00
 3971              	.LASF44:
 3972 00a1 4F535F45 		.ascii	"OS_ERR_E\000"
 3972      52525F45 
 3972      00
 3973              	.LASF45:
 3974 00aa 4F535F45 		.ascii	"OS_ERR_F\000"
 3974      52525F46 
 3974      00
 3975              	.LASF51:
 3976 00b3 4F535F45 		.ascii	"OS_ERR_G\000"
 3976      52525F47 
 3976      00
 3977              	.LASF52:
 3978 00bc 4F535F45 		.ascii	"OS_ERR_H\000"
 3978      52525F48 
 3978      00
 3979              	.LASF53:
 3980 00c5 4F535F45 		.ascii	"OS_ERR_I\000"
 3980      52525F49 
 3980      00
 3981              	.LASF60:
 3982 00ce 4F535F45 		.ascii	"OS_ERR_J\000"
 3982      52525F4A 
 3982      00
 3983              	.LASF61:
 3984 00d7 4F535F45 		.ascii	"OS_ERR_K\000"
 3984      52525F4B 
 3984      00
 3985              	.LASF62:
 3986 00e0 4F535F45 		.ascii	"OS_ERR_L\000"
 3986      52525F4C 
 3986      00
 3987              	.LASF64:
 3988 00e9 4F535F45 		.ascii	"OS_ERR_M\000"
 3988      52525F4D 
 3988      00
ARM GAS  C:\Users\alex\AppData\Local\Temp\ccfIfgZ4.s 			page 89


 3989              	.LASF80:
 3990 00f2 4F535F45 		.ascii	"OS_ERR_N\000"
 3990      52525F4E 
 3990      00
 3991              	.LASF83:
 3992 00fb 4F535F45 		.ascii	"OS_ERR_O\000"
 3992      52525F4F 
 3992      00
 3993              	.LASF91:
 3994 0104 4F535F45 		.ascii	"OS_ERR_P\000"
 3994      52525F50 
 3994      00
 3995              	.LASF106:
 3996 010d 4F535F45 		.ascii	"OS_ERR_Q\000"
 3996      52525F51 
 3996      00
 3997              	.LASF111:
 3998 0116 4F535F45 		.ascii	"OS_ERR_R\000"
 3998      52525F52 
 3998      00
 3999              	.LASF115:
 4000 011f 4F535F45 		.ascii	"OS_ERR_S\000"
 4000      52525F53 
 4000      00
 4001              	.LASF132:
 4002 0128 4F535F45 		.ascii	"OS_ERR_T\000"
 4002      52525F54 
 4002      00
 4003              	.LASF190:
 4004 0131 4F535F45 		.ascii	"OS_ERR_U\000"
 4004      52525F55 
 4004      00
 4005              	.LASF191:
 4006 013a 4F535F45 		.ascii	"OS_ERR_V\000"
 4006      52525F56 
 4006      00
 4007              	.LASF192:
 4008 0143 4F535F45 		.ascii	"OS_ERR_W\000"
 4008      52525F57 
 4008      00
 4009              	.LASF193:
 4010 014c 4F535F45 		.ascii	"OS_ERR_X\000"
 4010      52525F58 
 4010      00
 4011              	.LASF180:
 4012 0155 4F535F45 		.ascii	"OS_ERR_TMR_INVALID_PERIOD\000"
 4012      52525F54 
 4012      4D525F49 
 4012      4E56414C 
 4012      49445F50 
 4013              	.LASF315:
 4014 016f 6F735F65 		.ascii	"os_err\000"
 4014      727200
 4015              	.LASF209:
 4016 0176 4E627245 		.ascii	"NbrEntries\000"
 4016      6E747269 
 4016      657300
ARM GAS  C:\Users\alex\AppData\Local\Temp\ccfIfgZ4.s 			page 90


 4017              	.LASF57:
 4018 0181 4F535F45 		.ascii	"OS_ERR_INT_Q_SIZE\000"
 4018      52525F49 
 4018      4E545F51 
 4018      5F53495A 
 4018      4500
 4019              	.LASF41:
 4020 0193 4F535F45 		.ascii	"OS_ERR_CREATE_ISR\000"
 4020      52525F43 
 4020      52454154 
 4020      455F4953 
 4020      5200
 4021              	.LASF282:
 4022 01a5 705F7365 		.ascii	"p_sem\000"
 4022      6D00
 4023              	.LASF20:
 4024 01ab 4F535F43 		.ascii	"OS_CPU_USAGE\000"
 4024      50555F55 
 4024      53414745 
 4024      00
 4025              	.LASF164:
 4026 01b8 4F535F45 		.ascii	"OS_ERR_TICK_STK_SIZE_INVALID\000"
 4026      52525F54 
 4026      49434B5F 
 4026      53544B5F 
 4026      53495A45 
 4027              	.LASF8:
 4028 01d5 4350555F 		.ascii	"CPU_INT32U\000"
 4028      494E5433 
 4028      325500
 4029              	.LASF311:
 4030 01e0 4F535443 		.ascii	"OSTCBCurPtr\000"
 4030      42437572 
 4030      50747200 
 4031              	.LASF129:
 4032 01ec 4F535F45 		.ascii	"OS_ERR_STK_INVALID\000"
 4032      52525F53 
 4032      544B5F49 
 4032      4E56414C 
 4032      494400
 4033              	.LASF251:
 4034 01ff 466C6167 		.ascii	"FlagsOpt\000"
 4034      734F7074 
 4034      00
 4035              	.LASF145:
 4036 0208 4F535F45 		.ascii	"OS_ERR_TASK_RESUME_ISR\000"
 4036      52525F54 
 4036      41534B5F 
 4036      52455355 
 4036      4D455F49 
 4037              	.LASF99:
 4038 021f 4F535F45 		.ascii	"OS_ERR_PEND_WOULD_BLOCK\000"
 4038      52525F50 
 4038      454E445F 
 4038      574F554C 
 4038      445F424C 
 4039              	.LASF290:
ARM GAS  C:\Users\alex\AppData\Local\Temp\ccfIfgZ4.s 			page 91


 4040 0237 4F535365 		.ascii	"OSSemDel\000"
 4040      6D44656C 
 4040      00
 4041              	.LASF133:
 4042 0240 4F535F45 		.ascii	"OS_ERR_TASK_CHANGE_PRIO_ISR\000"
 4042      52525F54 
 4042      41534B5F 
 4042      4348414E 
 4042      47455F50 
 4043              	.LASF291:
 4044 025c 4F535365 		.ascii	"OSSemPend\000"
 4044      6D50656E 
 4044      6400
 4045              	.LASF123:
 4046 0266 4F535F45 		.ascii	"OS_ERR_STAT_RESET_ISR\000"
 4046      52525F53 
 4046      5441545F 
 4046      52455345 
 4046      545F4953 
 4047              	.LASF98:
 4048 027c 4F535F45 		.ascii	"OS_ERR_PEND_LOCKED\000"
 4048      52525F50 
 4048      454E445F 
 4048      4C4F434B 
 4048      454400
 4049              	.LASF27:
 4050 028f 4F535F4F 		.ascii	"OS_OBJ_QTY\000"
 4050      424A5F51 
 4050      545900
 4051              	.LASF312:
 4052 029a 474E5520 		.ascii	"GNU C11 5.4.1 20160609 (release) [ARM/embedded-5-br"
 4052      43313120 
 4052      352E342E 
 4052      31203230 
 4052      31363036 
 4053 02cd 616E6368 		.ascii	"anch revision 237715] -mcpu=cortex-m3 -mthumb -g -O"
 4053      20726576 
 4053      6973696F 
 4053      6E203233 
 4053      37373135 
 4054 0300 30202D66 		.ascii	"0 -ffunction-sections -ffat-lto-objects\000"
 4054      66756E63 
 4054      74696F6E 
 4054      2D736563 
 4054      74696F6E 
 4055              	.LASF143:
 4056 0328 4F535F45 		.ascii	"OS_ERR_TASK_NOT_SUSPENDED\000"
 4056      52525F54 
 4056      41534B5F 
 4056      4E4F545F 
 4056      53555350 
 4057              	.LASF141:
 4058 0342 4F535F45 		.ascii	"OS_ERR_TASK_NOT_DLY\000"
 4058      52525F54 
 4058      41534B5F 
 4058      4E4F545F 
 4058      444C5900 
ARM GAS  C:\Users\alex\AppData\Local\Temp\ccfIfgZ4.s 			page 92


 4059              	.LASF216:
 4060 0356 44626750 		.ascii	"DbgPrevPtr\000"
 4060      72657650 
 4060      747200
 4061              	.LASF55:
 4062 0361 4F535F45 		.ascii	"OS_ERR_INT_Q\000"
 4062      52525F49 
 4062      4E545F51 
 4062      00
 4063              	.LASF217:
 4064 036e 4462674E 		.ascii	"DbgNextPtr\000"
 4064      65787450 
 4064      747200
 4065              	.LASF155:
 4066 0379 4F535F45 		.ascii	"OS_ERR_TASK_WAITING\000"
 4066      52525F54 
 4066      41534B5F 
 4066      57414954 
 4066      494E4700 
 4067              	.LASF38:
 4068 038d 4F535F45 		.ascii	"OS_ERR_ACCEPT_ISR\000"
 4068      52525F41 
 4068      43434550 
 4068      545F4953 
 4068      5200
 4069              	.LASF153:
 4070 039f 4F535F45 		.ascii	"OS_ERR_TASK_SUSPEND_ISR\000"
 4070      52525F54 
 4070      41534B5F 
 4070      53555350 
 4070      454E445F 
 4071              	.LASF79:
 4072 03b7 4F535F45 		.ascii	"OS_ERR_MUTEX_NESTING\000"
 4072      52525F4D 
 4072      55544558 
 4072      5F4E4553 
 4072      54494E47 
 4073              	.LASF310:
 4074 03cc 4F535365 		.ascii	"OSSemQty\000"
 4074      6D517479 
 4074      00
 4075              	.LASF288:
 4076 03d5 705F7065 		.ascii	"p_pend_list\000"
 4076      6E645F6C 
 4076      69737400 
 4077              	.LASF181:
 4078 03e1 4F535F45 		.ascii	"OS_ERR_TMR_INVALID_STATE\000"
 4078      52525F54 
 4078      4D525F49 
 4078      4E56414C 
 4078      49445F53 
 4079              	.LASF233:
 4080 03fa 50656E64 		.ascii	"PendOn\000"
 4080      4F6E00
 4081              	.LASF296:
 4082 0401 4F535365 		.ascii	"OSSemPost\000"
 4082      6D506F73 
ARM GAS  C:\Users\alex\AppData\Local\Temp\ccfIfgZ4.s 			page 93


 4082      7400
 4083              	.LASF238:
 4084 040b 50656E64 		.ascii	"PendDataTblEntries\000"
 4084      44617461 
 4084      54626C45 
 4084      6E747269 
 4084      657300
 4085              	.LASF84:
 4086 041e 4F535F45 		.ascii	"OS_ERR_OBJ_CREATED\000"
 4086      52525F4F 
 4086      424A5F43 
 4086      52454154 
 4086      454400
 4087              	.LASF278:
 4088 0431 5461696C 		.ascii	"TailPtr\000"
 4088      50747200 
 4089              	.LASF151:
 4090 0439 4F535F45 		.ascii	"OS_ERR_TASK_SUSPEND_IDLE\000"
 4090      52525F54 
 4090      41534B5F 
 4090      53555350 
 4090      454E445F 
 4091              	.LASF56:
 4092 0452 4F535F45 		.ascii	"OS_ERR_INT_Q_FULL\000"
 4092      52525F49 
 4092      4E545F51 
 4092      5F46554C 
 4092      4C00
 4093              	.LASF241:
 4094 0464 5469636B 		.ascii	"TickCtrMatch\000"
 4094      4374724D 
 4094      61746368 
 4094      00
 4095              	.LASF272:
 4096 0471 5264794D 		.ascii	"RdyMsgPtr\000"
 4096      73675074 
 4096      7200
 4097              	.LASF280:
 4098 047b 6F735F70 		.ascii	"os_pend_obj\000"
 4098      656E645F 
 4098      6F626A00 
 4099              	.LASF54:
 4100 0487 4F535F45 		.ascii	"OS_ERR_ILLEGAL_CREATE_RUN_TIME\000"
 4100      52525F49 
 4100      4C4C4547 
 4100      414C5F43 
 4100      52454154 
 4101              	.LASF249:
 4102 04a6 466C6167 		.ascii	"FlagsPend\000"
 4102      7350656E 
 4102      6400
 4103              	.LASF179:
 4104 04b0 4F535F45 		.ascii	"OS_ERR_TMR_INVALID_DLY\000"
 4104      52525F54 
 4104      4D525F49 
 4104      4E56414C 
 4104      49445F44 
ARM GAS  C:\Users\alex\AppData\Local\Temp\ccfIfgZ4.s 			page 94


 4105              	.LASF255:
 4106 04c7 43747853 		.ascii	"CtxSwCtr\000"
 4106      77437472 
 4106      00
 4107              	.LASF146:
 4108 04d0 4F535F45 		.ascii	"OS_ERR_TASK_RESUME_PRIO\000"
 4108      52525F54 
 4108      41534B5F 
 4108      52455355 
 4108      4D455F50 
 4109              	.LASF30:
 4110 04e8 4F535F50 		.ascii	"OS_PRIO\000"
 4110      52494F00 
 4111              	.LASF12:
 4112 04f0 666C6F61 		.ascii	"float\000"
 4112      7400
 4113              	.LASF100:
 4114 04f6 4F535F45 		.ascii	"OS_ERR_POST_NULL_PTR\000"
 4114      52525F50 
 4114      4F53545F 
 4114      4E554C4C 
 4114      5F505452 
 4115              	.LASF82:
 4116 050b 4F535F45 		.ascii	"OS_ERR_NO_MORE_ID_AVAIL\000"
 4116      52525F4E 
 4116      4F5F4D4F 
 4116      52455F49 
 4116      445F4156 
 4117              	.LASF264:
 4118 0523 4F535F54 		.ascii	"OS_TICK_SPOKE\000"
 4118      49434B5F 
 4118      53504F4B 
 4118      4500
 4119              	.LASF72:
 4120 0531 4F535F45 		.ascii	"OS_ERR_MEM_INVALID_P_DATA\000"
 4120      52525F4D 
 4120      454D5F49 
 4120      4E56414C 
 4120      49445F50 
 4121              	.LASF285:
 4122 054b 6370755F 		.ascii	"cpu_sr\000"
 4122      737200
 4123              	.LASF184:
 4124 0552 4F535F45 		.ascii	"OS_ERR_TMR_NO_CALLBACK\000"
 4124      52525F54 
 4124      4D525F4E 
 4124      4F5F4341 
 4124      4C4C4241 
 4125              	.LASF177:
 4126 0569 4F535F45 		.ascii	"OS_ERR_TMR_INACTIVE\000"
 4126      52525F54 
 4126      4D525F49 
 4126      4E414354 
 4126      49564500 
 4127              	.LASF157:
 4128 057d 4F535F45 		.ascii	"OS_ERR_TLS_ID_INVALID\000"
 4128      52525F54 
ARM GAS  C:\Users\alex\AppData\Local\Temp\ccfIfgZ4.s 			page 95


 4128      4C535F49 
 4128      445F494E 
 4128      56414C49 
 4129              	.LASF10:
 4130 0593 6C6F6E67 		.ascii	"long long unsigned int\000"
 4130      206C6F6E 
 4130      6720756E 
 4130      7369676E 
 4130      65642069 
 4131              	.LASF148:
 4132 05aa 4F535F45 		.ascii	"OS_ERR_TASK_RUNNING\000"
 4132      52525F54 
 4132      41534B5F 
 4132      52554E4E 
 4132      494E4700 
 4133              	.LASF297:
 4134 05be 4F535365 		.ascii	"OSSemCreate\000"
 4134      6D437265 
 4134      61746500 
 4135              	.LASF262:
 4136 05ca 53746B55 		.ascii	"StkUsed\000"
 4136      73656400 
 4137              	.LASF182:
 4138 05d2 4F535F45 		.ascii	"OS_ERR_TMR_INVALID\000"
 4138      52525F54 
 4138      4D525F49 
 4138      4E56414C 
 4138      494400
 4139              	.LASF267:
 4140 05e5 4F535F50 		.ascii	"OS_PEND_DATA\000"
 4140      454E445F 
 4140      44415441 
 4140      00
 4141              	.LASF152:
 4142 05f2 4F535F45 		.ascii	"OS_ERR_TASK_SUSPEND_INT_HANDLER\000"
 4142      52525F54 
 4142      41534B5F 
 4142      53555350 
 4142      454E445F 
 4143              	.LASF137:
 4144 0612 4F535F45 		.ascii	"OS_ERR_TASK_DEL_INVALID\000"
 4144      52525F54 
 4144      41534B5F 
 4144      44454C5F 
 4144      494E5641 
 4145              	.LASF309:
 4146 062a 4F535365 		.ascii	"OSSemDbgListPtr\000"
 4146      6D446267 
 4146      4C697374 
 4146      50747200 
 4147              	.LASF187:
 4148 063a 4F535F45 		.ascii	"OS_ERR_TMR_STK_INVALID\000"
 4148      52525F54 
 4148      4D525F53 
 4148      544B5F49 
 4148      4E56414C 
 4149              	.LASF3:
ARM GAS  C:\Users\alex\AppData\Local\Temp\ccfIfgZ4.s 			page 96


 4150 0651 4350555F 		.ascii	"CPU_INT08U\000"
 4150      494E5430 
 4150      385500
 4151              	.LASF204:
 4152 065c 6F735F6D 		.ascii	"os_msg\000"
 4152      736700
 4153              	.LASF156:
 4154 0663 4F535F45 		.ascii	"OS_ERR_TCB_INVALID\000"
 4154      52525F54 
 4154      43425F49 
 4154      4E56414C 
 4154      494400
 4155              	.LASF237:
 4156 0676 53746B53 		.ascii	"StkSize\000"
 4156      697A6500 
 4157              	.LASF229:
 4158 067e 53746B42 		.ascii	"StkBasePtr\000"
 4158      61736550 
 4158      747200
 4159              	.LASF108:
 4160 0689 4F535F45 		.ascii	"OS_ERR_Q_EMPTY\000"
 4160      52525F51 
 4160      5F454D50 
 4160      545900
 4161              	.LASF172:
 4162 0698 4F535F45 		.ascii	"OS_ERR_TIME_INVALID_MILLISECONDS\000"
 4162      52525F54 
 4162      494D455F 
 4162      494E5641 
 4162      4C49445F 
 4163              	.LASF31:
 4164 06b9 4F535F52 		.ascii	"OS_REG\000"
 4164      454700
 4165              	.LASF81:
 4166 06c0 4F535F45 		.ascii	"OS_ERR_NAME\000"
 4166      52525F4E 
 4166      414D4500 
 4167              	.LASF244:
 4168 06cc 54696D65 		.ascii	"TimeQuantaCtr\000"
 4168      5175616E 
 4168      74614374 
 4168      7200
 4169              	.LASF34:
 4170 06da 4F535F53 		.ascii	"OS_STATUS\000"
 4170      54415455 
 4170      5300
 4171              	.LASF235:
 4172 06e4 5461736B 		.ascii	"TaskState\000"
 4172      53746174 
 4172      6500
 4173              	.LASF161:
 4174 06ee 4F535F45 		.ascii	"OS_ERR_TLS_DESTRUCT_ASSIGNED\000"
 4174      52525F54 
 4174      4C535F44 
 4174      45535452 
 4174      5543545F 
 4175              	.LASF77:
ARM GAS  C:\Users\alex\AppData\Local\Temp\ccfIfgZ4.s 			page 97


 4176 070b 4F535F45 		.ascii	"OS_ERR_MUTEX_NOT_OWNER\000"
 4176      52525F4D 
 4176      55544558 
 4176      5F4E4F54 
 4176      5F4F574E 
 4177              	.LASF25:
 4178 0722 4F535F4D 		.ascii	"OS_MSG_SIZE\000"
 4178      53475F53 
 4178      495A4500 
 4179              	.LASF169:
 4180 072e 4F535F45 		.ascii	"OS_ERR_TIME_INVALID_HOURS\000"
 4180      52525F54 
 4180      494D455F 
 4180      494E5641 
 4180      4C49445F 
 4181              	.LASF305:
 4182 0748 4F535F53 		.ascii	"OS_SemPost\000"
 4182      656D506F 
 4182      737400
 4183              	.LASF185:
 4184 0753 4F535F45 		.ascii	"OS_ERR_TMR_NON_AVAIL\000"
 4184      52525F54 
 4184      4D525F4E 
 4184      4F4E5F41 
 4184      5641494C 
 4185              	.LASF314:
 4186 0768 483A5C42 		.ascii	"H:\\BCC722-RTOS-moinho\\UCoS\\Micrium_2\\Software\\"
 4186      43433732 
 4186      322D5254 
 4186      4F532D6D 
 4186      6F696E68 
 4187 0796 4576616C 		.ascii	"EvalBoards\\Cypress\\CY8CKIT-050\\PSoC\\uCOS-III-Pr"
 4187      426F6172 
 4187      64735C43 
 4187      79707265 
 4187      73735C43 
 4188 07c5 6F62655C 		.ascii	"obe\\BCC722-RTOS-MOINHO.cydsn\000"
 4188      42434337 
 4188      32322D52 
 4188      544F532D 
 4188      4D4F494E 
 4189              	.LASF2:
 4190 07e2 4350555F 		.ascii	"CPU_CHAR\000"
 4190      43484152 
 4190      00
 4191              	.LASF302:
 4192 07eb 705F7365 		.ascii	"p_sem_next\000"
 4192      6D5F6E65 
 4192      787400
 4193              	.LASF134:
 4194 07f6 4F535F45 		.ascii	"OS_ERR_TASK_CREATE_ISR\000"
 4194      52525F54 
 4194      41534B5F 
 4194      43524541 
 4194      54455F49 
 4195              	.LASF16:
 4196 080d 4350555F 		.ascii	"CPU_STK_SIZE\000"
ARM GAS  C:\Users\alex\AppData\Local\Temp\ccfIfgZ4.s 			page 98


 4196      53544B5F 
 4196      53495A45 
 4196      00
 4197              	.LASF24:
 4198 081a 4F535F4D 		.ascii	"OS_MSG_QTY\000"
 4198      53475F51 
 4198      545900
 4199              	.LASF90:
 4200 0825 4F535F45 		.ascii	"OS_ERR_OS_RUNNING\000"
 4200      52525F4F 
 4200      535F5255 
 4200      4E4E494E 
 4200      4700
 4201              	.LASF263:
 4202 0837 53746B46 		.ascii	"StkFree\000"
 4202      72656500 
 4203              	.LASF240:
 4204 083f 5469636B 		.ascii	"TickCtrPrev\000"
 4204      43747250 
 4204      72657600 
 4205              	.LASF208:
 4206 084b 4E627245 		.ascii	"NbrEntriesSize\000"
 4206      6E747269 
 4206      65735369 
 4206      7A6500
 4207              	.LASF175:
 4208 085a 4F535F45 		.ascii	"OS_ERR_TIME_ZERO_DLY\000"
 4208      52525F54 
 4208      494D455F 
 4208      5A45524F 
 4208      5F444C59 
 4209              	.LASF227:
 4210 086f 5469636B 		.ascii	"TickPrevPtr\000"
 4210      50726576 
 4210      50747200 
 4211              	.LASF250:
 4212 087b 466C6167 		.ascii	"FlagsRdy\000"
 4212      73526479 
 4212      00
 4213              	.LASF125:
 4214 0884 4F535F45 		.ascii	"OS_ERR_STAT_STK_INVALID\000"
 4214      52525F53 
 4214      5441545F 
 4214      53544B5F 
 4214      494E5641 
 4215              	.LASF47:
 4216 089c 4F535F45 		.ascii	"OS_ERR_FLAG_GRP_DEPLETED\000"
 4216      52525F46 
 4216      4C41475F 
 4216      4752505F 
 4216      4445504C 
 4217              	.LASF68:
 4218 08b5 4F535F45 		.ascii	"OS_ERR_MEM_INVALID_BLKS\000"
 4218      52525F4D 
 4218      454D5F49 
 4218      4E56414C 
 4218      49445F42 
ARM GAS  C:\Users\alex\AppData\Local\Temp\ccfIfgZ4.s 			page 99


 4219              	.LASF284:
 4220 08cd 705F6572 		.ascii	"p_err\000"
 4220      7200
 4221              	.LASF247:
 4222 08d3 4D736751 		.ascii	"MsgQPendTimeMax\000"
 4222      50656E64 
 4222      54696D65 
 4222      4D617800 
 4223              	.LASF246:
 4224 08e3 4D736751 		.ascii	"MsgQPendTime\000"
 4224      50656E64 
 4224      54696D65 
 4224      00
 4225              	.LASF198:
 4226 08f0 4F535F4D 		.ascii	"OS_MSG\000"
 4226      534700
 4227              	.LASF283:
 4228 08f7 705F6E61 		.ascii	"p_name\000"
 4228      6D6500
 4229              	.LASF178:
 4230 08fe 4F535F45 		.ascii	"OS_ERR_TMR_INVALID_DEST\000"
 4230      52525F54 
 4230      4D525F49 
 4230      4E56414C 
 4230      49445F44 
 4231              	.LASF117:
 4232 0916 4F535F45 		.ascii	"OS_ERR_SCHED_LOCK_ISR\000"
 4232      52525F53 
 4232      43484544 
 4232      5F4C4F43 
 4232      4B5F4953 
 4233              	.LASF43:
 4234 092c 4F535F45 		.ascii	"OS_ERR_DEL_ISR\000"
 4234      52525F44 
 4234      454C5F49 
 4234      535200
 4235              	.LASF109:
 4236 093b 4F535F45 		.ascii	"OS_ERR_Q_MAX\000"
 4236      52525F51 
 4236      5F4D4158 
 4236      00
 4237              	.LASF287:
 4238 0948 705F7065 		.ascii	"p_pend_data\000"
 4238      6E645F64 
 4238      61746100 
 4239              	.LASF225:
 4240 0954 50726576 		.ascii	"PrevPtr\000"
 4240      50747200 
 4241              	.LASF0:
 4242 095c 63686172 		.ascii	"char\000"
 4242      00
 4243              	.LASF295:
 4244 0961 4F535365 		.ascii	"OSSemPendAbort\000"
 4244      6D50656E 
 4244      6441626F 
 4244      727400
 4245              	.LASF28:
ARM GAS  C:\Users\alex\AppData\Local\Temp\ccfIfgZ4.s 			page 100


 4246 0970 4F535F4F 		.ascii	"OS_OBJ_TYPE\000"
 4246      424A5F54 
 4246      59504500 
 4247              	.LASF160:
 4248 097c 4F535F45 		.ascii	"OS_ERR_TLS_NOT_EN\000"
 4248      52525F54 
 4248      4C535F4E 
 4248      4F545F45 
 4248      4E00
 4249              	.LASF88:
 4250 098e 4F535F45 		.ascii	"OS_ERR_OPT_INVALID\000"
 4250      52525F4F 
 4250      50545F49 
 4250      4E56414C 
 4250      494400
 4251              	.LASF17:
 4252 09a1 4350555F 		.ascii	"CPU_SR\000"
 4252      535200
 4253              	.LASF116:
 4254 09a8 4F535F45 		.ascii	"OS_ERR_SCHED_INVALID_TIME_SLICE\000"
 4254      52525F53 
 4254      43484544 
 4254      5F494E56 
 4254      414C4944 
 4255              	.LASF301:
 4256 09c8 4F535F53 		.ascii	"OS_SemDbgListRemove\000"
 4256      656D4462 
 4256      674C6973 
 4256      7452656D 
 4256      6F766500 
 4257              	.LASF245:
 4258 09dc 4D736751 		.ascii	"MsgQ\000"
 4258      00
 4259              	.LASF230:
 4260 09e1 5461736B 		.ascii	"TaskEntryAddr\000"
 4260      456E7472 
 4260      79416464 
 4260      7200
 4261              	.LASF124:
 4262 09ef 4F535F45 		.ascii	"OS_ERR_STAT_PRIO_INVALID\000"
 4262      52525F53 
 4262      5441545F 
 4262      5052494F 
 4262      5F494E56 
 4263              	.LASF173:
 4264 0a08 4F535F45 		.ascii	"OS_ERR_TIME_NOT_DLY\000"
 4264      52525F54 
 4264      494D455F 
 4264      4E4F545F 
 4264      444C5900 
 4265              	.LASF304:
 4266 0a1c 4F535F53 		.ascii	"OS_SemInit\000"
 4266      656D496E 
 4266      697400
 4267              	.LASF214:
 4268 0a27 4E616D65 		.ascii	"NamePtr\000"
 4268      50747200 
ARM GAS  C:\Users\alex\AppData\Local\Temp\ccfIfgZ4.s 			page 101


 4269              	.LASF234:
 4270 0a2f 50656E64 		.ascii	"PendStatus\000"
 4270      53746174 
 4270      757300
 4271              	.LASF203:
 4272 0a3a 4F535F4D 		.ascii	"OS_MSG_Q\000"
 4272      53475F51 
 4272      00
 4273              	.LASF213:
 4274 0a43 54797065 		.ascii	"Type\000"
 4274      00
 4275              	.LASF195:
 4276 0a48 4F535F45 		.ascii	"OS_ERR_YIELD_ISR\000"
 4276      52525F59 
 4276      49454C44 
 4276      5F495352 
 4276      00
 4277              	.LASF85:
 4278 0a59 4F535F45 		.ascii	"OS_ERR_OBJ_DEL\000"
 4278      52525F4F 
 4278      424A5F44 
 4278      454C00
 4279              	.LASF19:
 4280 0a68 4350555F 		.ascii	"CPU_TS\000"
 4280      545300
 4281              	.LASF11:
 4282 0a6f 6C6F6E67 		.ascii	"long long int\000"
 4282      206C6F6E 
 4282      6720696E 
 4282      7400
 4283              	.LASF49:
 4284 0a7d 4F535F45 		.ascii	"OS_ERR_FLAG_PEND_OPT\000"
 4284      52525F46 
 4284      4C41475F 
 4284      50454E44 
 4284      5F4F5054 
 4285              	.LASF222:
 4286 0a92 53746B50 		.ascii	"StkPtr\000"
 4286      747200
 4287              	.LASF265:
 4288 0a99 6F735F74 		.ascii	"os_tick_spoke\000"
 4288      69636B5F 
 4288      73706F6B 
 4288      6500
 4289              	.LASF289:
 4290 0aa7 705F7463 		.ascii	"p_tcb\000"
 4290      6200
 4291              	.LASF110:
 4292 0aad 4F535F45 		.ascii	"OS_ERR_Q_SIZE\000"
 4292      52525F51 
 4292      5F53495A 
 4292      4500
 4293              	.LASF257:
 4294 0abb 4379636C 		.ascii	"CyclesStart\000"
 4294      65735374 
 4294      61727400 
 4295              	.LASF294:
ARM GAS  C:\Users\alex\AppData\Local\Temp\ccfIfgZ4.s 			page 102


 4296 0ac7 70656E64 		.ascii	"pend_data\000"
 4296      5F646174 
 4296      6100
 4297              	.LASF269:
 4298 0ad1 54434250 		.ascii	"TCBPtr\000"
 4298      747200
 4299              	.LASF95:
 4300 0ad8 4F535F45 		.ascii	"OS_ERR_PEND_ABORT_SELF\000"
 4300      52525F50 
 4300      454E445F 
 4300      41424F52 
 4300      545F5345 
 4301              	.LASF5:
 4302 0aef 4350555F 		.ascii	"CPU_INT16U\000"
 4302      494E5431 
 4302      365500
 4303              	.LASF114:
 4304 0afa 4F535F45 		.ascii	"OS_ERR_ROUND_ROBIN_DISABLED\000"
 4304      52525F52 
 4304      4F554E44 
 4304      5F524F42 
 4304      494E5F44 
 4305              	.LASF69:
 4306 0b16 4F535F45 		.ascii	"OS_ERR_MEM_INVALID_PART\000"
 4306      52525F4D 
 4306      454D5F49 
 4306      4E56414C 
 4306      49445F50 
 4307              	.LASF86:
 4308 0b2e 4F535F45 		.ascii	"OS_ERR_OBJ_PTR_NULL\000"
 4308      52525F4F 
 4308      424A5F50 
 4308      54525F4E 
 4308      554C4C00 
 4309              	.LASF112:
 4310 0b42 4F535F45 		.ascii	"OS_ERR_REG_ID_INVALID\000"
 4310      52525F52 
 4310      45475F49 
 4310      445F494E 
 4310      56414C49 
 4311              	.LASF286:
 4312 0b58 6E62725F 		.ascii	"nbr_tasks\000"
 4312      7461736B 
 4312      7300
 4313              	.LASF35:
 4314 0b62 4F535F54 		.ascii	"OS_TICK\000"
 4314      49434B00 
 4315              	.LASF66:
 4316 0b6a 4F535F45 		.ascii	"OS_ERR_MEM_FULL\000"
 4316      52525F4D 
 4316      454D5F46 
 4316      554C4C00 
 4317              	.LASF140:
 4318 0b7a 4F535F45 		.ascii	"OS_ERR_TASK_NO_MORE_TCB\000"
 4318      52525F54 
 4318      41534B5F 
 4318      4E4F5F4D 
ARM GAS  C:\Users\alex\AppData\Local\Temp\ccfIfgZ4.s 			page 103


 4318      4F52455F 
 4319              	.LASF303:
 4320 0b92 705F7365 		.ascii	"p_sem_prev\000"
 4320      6D5F7072 
 4320      657600
 4321              	.LASF71:
 4322 0b9d 4F535F45 		.ascii	"OS_ERR_MEM_INVALID_P_MEM\000"
 4322      52525F4D 
 4322      454D5F49 
 4322      4E56414C 
 4322      49445F50 
 4323              	.LASF18:
 4324 0bb6 4350555F 		.ascii	"CPU_TS32\000"
 4324      54533332 
 4324      00
 4325              	.LASF252:
 4326 0bbf 53757370 		.ascii	"SuspendCtr\000"
 4326      656E6443 
 4326      747200
 4327              	.LASF224:
 4328 0bca 53746B4C 		.ascii	"StkLimitPtr\000"
 4328      696D6974 
 4328      50747200 
 4329              	.LASF299:
 4330 0bd6 4F535F53 		.ascii	"OS_SemClr\000"
 4330      656D436C 
 4330      7200
 4331              	.LASF256:
 4332 0be0 4379636C 		.ascii	"CyclesDelta\000"
 4332      65734465 
 4332      6C746100 
 4333              	.LASF32:
 4334 0bec 4F535F53 		.ascii	"OS_SEM_CTR\000"
 4334      454D5F43 
 4334      545200
 4335              	.LASF188:
 4336 0bf7 4F535F45 		.ascii	"OS_ERR_TMR_STK_SIZE_INVALID\000"
 4336      52525F54 
 4336      4D525F53 
 4336      544B5F53 
 4336      495A455F 
 4337              	.LASF165:
 4338 0c13 4F535F45 		.ascii	"OS_ERR_TICK_WHEEL_SIZE\000"
 4338      52525F54 
 4338      49434B5F 
 4338      57484545 
 4338      4C5F5349 
 4339              	.LASF226:
 4340 0c2a 5469636B 		.ascii	"TickNextPtr\000"
 4340      4E657874 
 4340      50747200 
 4341              	.LASF142:
 4342 0c36 4F535F45 		.ascii	"OS_ERR_TASK_NOT_EXIST\000"
 4342      52525F54 
 4342      41534B5F 
 4342      4E4F545F 
 4342      45584953 
ARM GAS  C:\Users\alex\AppData\Local\Temp\ccfIfgZ4.s 			page 104


 4343              	.LASF306:
 4344 0c4c 705F7065 		.ascii	"p_pend_data_next\000"
 4344      6E645F64 
 4344      6174615F 
 4344      6E657874 
 4344      00
 4345              	.LASF139:
 4346 0c5d 4F535F45 		.ascii	"OS_ERR_TASK_INVALID\000"
 4346      52525F54 
 4346      41534B5F 
 4346      494E5641 
 4346      4C494400 
 4347              	.LASF186:
 4348 0c71 4F535F45 		.ascii	"OS_ERR_TMR_PRIO_INVALID\000"
 4348      52525F54 
 4348      4D525F50 
 4348      52494F5F 
 4348      494E5641 
 4349              	.LASF293:
 4350 0c89 705F7473 		.ascii	"p_ts\000"
 4350      00
 4351              	.LASF154:
 4352 0c8e 4F535F45 		.ascii	"OS_ERR_TASK_SUSPEND_PRIO\000"
 4352      52525F54 
 4352      41534B5F 
 4352      53555350 
 4352      454E445F 
 4353              	.LASF271:
 4354 0ca7 5264794F 		.ascii	"RdyObjPtr\000"
 4354      626A5074 
 4354      7200
 4355              	.LASF59:
 4356 0cb1 4F535F45 		.ascii	"OS_ERR_INT_Q_STK_SIZE_INVALID\000"
 4356      52525F49 
 4356      4E545F51 
 4356      5F53544B 
 4356      5F53495A 
 4357              	.LASF158:
 4358 0ccf 4F535F45 		.ascii	"OS_ERR_TLS_ISR\000"
 4358      52525F54 
 4358      4C535F49 
 4358      535200
 4359              	.LASF138:
 4360 0cde 4F535F45 		.ascii	"OS_ERR_TASK_DEL_ISR\000"
 4360      52525F54 
 4360      41534B5F 
 4360      44454C5F 
 4360      49535200 
 4361              	.LASF260:
 4362 0cf2 53656D50 		.ascii	"SemPendTime\000"
 4362      656E6454 
 4362      696D6500 
 4363              	.LASF105:
 4364 0cfe 4F535F45 		.ascii	"OS_ERR_PTR_INVALID\000"
 4364      52525F50 
 4364      54525F49 
 4364      4E56414C 
ARM GAS  C:\Users\alex\AppData\Local\Temp\ccfIfgZ4.s 			page 105


 4364      494400
 4365              	.LASF127:
 4366 0d11 4F535F45 		.ascii	"OS_ERR_STATE_INVALID\000"
 4366      52525F53 
 4366      54415445 
 4366      5F494E56 
 4366      414C4944 
 4367              	.LASF199:
 4368 0d26 4E657874 		.ascii	"NextPtr\000"
 4368      50747200 
 4369              	.LASF89:
 4370 0d2e 4F535F45 		.ascii	"OS_ERR_OS_NOT_RUNNING\000"
 4370      52525F4F 
 4370      535F4E4F 
 4370      545F5255 
 4370      4E4E494E 
 4371              	.LASF307:
 4372 0d44 4F53496E 		.ascii	"OSIntNestingCtr\000"
 4372      744E6573 
 4372      74696E67 
 4372      43747200 
 4373              	.LASF174:
 4374 0d54 4F535F45 		.ascii	"OS_ERR_TIME_SET_ISR\000"
 4374      52525F54 
 4374      494D455F 
 4374      5345545F 
 4374      49535200 
 4375              	.LASF113:
 4376 0d68 4F535F45 		.ascii	"OS_ERR_ROUND_ROBIN_1\000"
 4376      52525F52 
 4376      4F554E44 
 4376      5F524F42 
 4376      494E5F31 
 4377              	.LASF70:
 4378 0d7d 4F535F45 		.ascii	"OS_ERR_MEM_INVALID_P_BLK\000"
 4378      52525F4D 
 4378      454D5F49 
 4378      4E56414C 
 4378      49445F50 
 4379              	.LASF67:
 4380 0d96 4F535F45 		.ascii	"OS_ERR_MEM_INVALID_P_ADDR\000"
 4380      52525F4D 
 4380      454D5F49 
 4380      4E56414C 
 4380      49445F50 
 4381              	.LASF274:
 4382 0db0 52647954 		.ascii	"RdyTS\000"
 4382      5300
 4383              	.LASF63:
 4384 0db6 4F535F45 		.ascii	"OS_ERR_LOCK_NESTING_OVF\000"
 4384      52525F4C 
 4384      4F434B5F 
 4384      4E455354 
 4384      494E475F 
 4385              	.LASF149:
 4386 0dce 4F535F45 		.ascii	"OS_ERR_TASK_STK_CHK_ISR\000"
 4386      52525F54 
ARM GAS  C:\Users\alex\AppData\Local\Temp\ccfIfgZ4.s 			page 106


 4386      41534B5F 
 4386      53544B5F 
 4386      43484B5F 
 4387              	.LASF7:
 4388 0de6 73686F72 		.ascii	"short int\000"
 4388      7420696E 
 4388      7400
 4389              	.LASF273:
 4390 0df0 5264794D 		.ascii	"RdyMsgSize\000"
 4390      73675369 
 4390      7A6500
 4391              	.LASF75:
 4392 0dfb 4F535F45 		.ascii	"OS_ERR_MSG_POOL_EMPTY\000"
 4392      52525F4D 
 4392      53475F50 
 4392      4F4F4C5F 
 4392      454D5054 
 4393              	.LASF120:
 4394 0e11 4F535F45 		.ascii	"OS_ERR_SCHED_UNLOCK_ISR\000"
 4394      52525F53 
 4394      43484544 
 4394      5F554E4C 
 4394      4F434B5F 
 4395              	.LASF261:
 4396 0e29 53656D50 		.ascii	"SemPendTimeMax\000"
 4396      656E6454 
 4396      696D654D 
 4396      617800
 4397              	.LASF259:
 4398 0e38 4379636C 		.ascii	"CyclesTotalPrev\000"
 4398      6573546F 
 4398      74616C50 
 4398      72657600 
 4399              	.LASF163:
 4400 0e48 4F535F45 		.ascii	"OS_ERR_TICK_STK_INVALID\000"
 4400      52525F54 
 4400      49434B5F 
 4400      53544B5F 
 4400      494E5641 
 4401              	.LASF76:
 4402 0e60 4F535F45 		.ascii	"OS_ERR_MSG_POOL_NULL_PTR\000"
 4402      52525F4D 
 4402      53475F50 
 4402      4F4F4C5F 
 4402      4E554C4C 
 4403              	.LASF26:
 4404 0e79 4F535F4E 		.ascii	"OS_NESTING_CTR\000"
 4404      45535449 
 4404      4E475F43 
 4404      545200
 4405              	.LASF211:
 4406 0e88 4F535F53 		.ascii	"OS_SEM\000"
 4406      454D00
 4407              	.LASF279:
 4408 0e8f 4F535F50 		.ascii	"OS_PEND_OBJ\000"
 4408      454E445F 
 4408      4F424A00 
ARM GAS  C:\Users\alex\AppData\Local\Temp\ccfIfgZ4.s 			page 107


 4409              	.LASF147:
 4410 0e9b 4F535F45 		.ascii	"OS_ERR_TASK_RESUME_SELF\000"
 4410      52525F54 
 4410      41534B5F 
 4410      52455355 
 4410      4D455F53 
 4411              	.LASF254:
 4412 0eb3 43505555 		.ascii	"CPUUsageMax\000"
 4412      73616765 
 4412      4D617800 
 4413              	.LASF215:
 4414 0ebf 50656E64 		.ascii	"PendList\000"
 4414      4C697374 
 4414      00
 4415              	.LASF87:
 4416 0ec8 4F535F45 		.ascii	"OS_ERR_OBJ_TYPE\000"
 4416      52525F4F 
 4416      424A5F54 
 4416      59504500 
 4417              	.LASF232:
 4418 0ed8 50656E64 		.ascii	"PendDataTblPtr\000"
 4418      44617461 
 4418      54626C50 
 4418      747200
 4419              	.LASF239:
 4420 0ee7 53656D43 		.ascii	"SemCtr\000"
 4420      747200
 4421              	.LASF206:
 4422 0eee 496E5074 		.ascii	"InPtr\000"
 4422      7200
 4423              	.LASF242:
 4424 0ef4 5469636B 		.ascii	"TickRemain\000"
 4424      52656D61 
 4424      696E00
 4425              	.LASF277:
 4426 0eff 48656164 		.ascii	"HeadPtr\000"
 4426      50747200 
 4427              	.LASF212:
 4428 0f07 6F735F73 		.ascii	"os_sem\000"
 4428      656D00
 4429              	.LASF94:
 4430 0f0e 4F535F45 		.ascii	"OS_ERR_PEND_ABORT_NONE\000"
 4430      52525F50 
 4430      454E445F 
 4430      41424F52 
 4430      545F4E4F 
 4431              	.LASF9:
 4432 0f25 756E7369 		.ascii	"unsigned int\000"
 4432      676E6564 
 4432      20696E74 
 4432      00
 4433              	.LASF201:
 4434 0f32 4D736753 		.ascii	"MsgSize\000"
 4434      697A6500 
 4435              	.LASF78:
 4436 0f3a 4F535F45 		.ascii	"OS_ERR_MUTEX_OWNER\000"
 4436      52525F4D 
ARM GAS  C:\Users\alex\AppData\Local\Temp\ccfIfgZ4.s 			page 108


 4436      55544558 
 4436      5F4F574E 
 4436      455200
 4437              	.LASF266:
 4438 0f4d 46697273 		.ascii	"FirstPtr\000"
 4438      74507472 
 4438      00
 4439              	.LASF126:
 4440 0f56 4F535F45 		.ascii	"OS_ERR_STAT_STK_SIZE_INVALID\000"
 4440      52525F53 
 4440      5441545F 
 4440      53544B5F 
 4440      53495A45 
 4441              	.LASF48:
 4442 0f73 4F535F45 		.ascii	"OS_ERR_FLAG_NOT_RDY\000"
 4442      52525F46 
 4442      4C41475F 
 4442      4E4F545F 
 4442      52445900 
 4443              	.LASF223:
 4444 0f87 45787450 		.ascii	"ExtPtr\000"
 4444      747200
 4445              	.LASF300:
 4446 0f8e 4F535F53 		.ascii	"OS_SemDbgListAdd\000"
 4446      656D4462 
 4446      674C6973 
 4446      74416464 
 4446      00
 4447              	.LASF281:
 4448 0f9f 73697A65 		.ascii	"sizetype\000"
 4448      74797065 
 4448      00
 4449              	.LASF93:
 4450 0fa8 4F535F45 		.ascii	"OS_ERR_PEND_ABORT_ISR\000"
 4450      52525F50 
 4450      454E445F 
 4450      41424F52 
 4450      545F4953 
 4451              	.LASF14:
 4452 0fbe 4350555F 		.ascii	"CPU_ADDR\000"
 4452      41444452 
 4452      00
 4453              	.LASF101:
 4454 0fc7 4F535F45 		.ascii	"OS_ERR_POST_ISR\000"
 4454      52525F50 
 4454      4F53545F 
 4454      49535200 
 4455              	.LASF166:
 4456 0fd7 4F535F45 		.ascii	"OS_ERR_TIME_DLY_ISR\000"
 4456      52525F54 
 4456      494D455F 
 4456      444C595F 
 4456      49535200 
 4457              	.LASF131:
 4458 0feb 4F535F45 		.ascii	"OS_ERR_STK_LIMIT_INVALID\000"
 4458      52525F53 
 4458      544B5F4C 
ARM GAS  C:\Users\alex\AppData\Local\Temp\ccfIfgZ4.s 			page 109


 4458      494D4954 
 4458      5F494E56 
 4459              	.LASF22:
 4460 1004 4F535F43 		.ascii	"OS_CYCLES\000"
 4460      59434C45 
 4460      5300
 4461              	.LASF220:
 4462 100e 4F535F54 		.ascii	"OS_TCB\000"
 4462      434200
 4463              	.LASF39:
 4464 1015 4F535F45 		.ascii	"OS_ERR_B\000"
 4464      52525F42 
 4464      00
 4465              	.LASF298:
 4466 101e 4F535365 		.ascii	"OSSemSet\000"
 4466      6D536574 
 4466      00
 4467              	.LASF130:
 4468 1027 4F535F45 		.ascii	"OS_ERR_STK_SIZE_INVALID\000"
 4468      52525F53 
 4468      544B5F53 
 4468      495A455F 
 4468      494E5641 
 4469              	.LASF189:
 4470 103f 4F535F45 		.ascii	"OS_ERR_TMR_STOPPED\000"
 4470      52525F54 
 4470      4D525F53 
 4470      544F5050 
 4470      454400
 4471              	.LASF1:
 4472 1052 756E7369 		.ascii	"unsigned char\000"
 4472      676E6564 
 4472      20636861 
 4472      7200
 4473              	.LASF144:
 4474 1060 4F535F45 		.ascii	"OS_ERR_TASK_OPT\000"
 4474      52525F54 
 4474      41534B5F 
 4474      4F505400 
 4475              	.LASF308:
 4476 1070 4F535363 		.ascii	"OSSchedLockNestingCtr\000"
 4476      6865644C 
 4476      6F636B4E 
 4476      65737469 
 4476      6E674374 
 4477              	.LASF176:
 4478 1086 4F535F45 		.ascii	"OS_ERR_TIMEOUT\000"
 4478      52525F54 
 4478      494D454F 
 4478      555400
 4479              	.LASF33:
 4480 1095 4F535F53 		.ascii	"OS_STATE\000"
 4480      54415445 
 4480      00
 4481              	.LASF292:
 4482 109e 74696D65 		.ascii	"timeout\000"
 4482      6F757400 
ARM GAS  C:\Users\alex\AppData\Local\Temp\ccfIfgZ4.s 			page 110


 4483              	.LASF29:
 4484 10a6 4F535F4F 		.ascii	"OS_OPT\000"
 4484      505400
 4485              	.LASF219:
 4486 10ad 4F535F54 		.ascii	"OS_TASK_PTR\000"
 4486      41534B5F 
 4486      50545200 
 4487              	.LASF65:
 4488 10b9 4F535F45 		.ascii	"OS_ERR_MEM_CREATE_ISR\000"
 4488      52525F4D 
 4488      454D5F43 
 4488      52454154 
 4488      455F4953 
 4489              	.LASF128:
 4490 10cf 4F535F45 		.ascii	"OS_ERR_STATUS_INVALID\000"
 4490      52525F53 
 4490      54415455 
 4490      535F494E 
 4490      56414C49 
 4491              	.LASF194:
 4492 10e5 4F535F45 		.ascii	"OS_ERR_Y\000"
 4492      52525F59 
 4492      00
 4493              	.LASF97:
 4494 10ee 4F535F45 		.ascii	"OS_ERR_PEND_ISR\000"
 4494      52525F50 
 4494      454E445F 
 4494      49535200 
 4495              	.LASF196:
 4496 10fe 4F535F45 		.ascii	"OS_ERR_Z\000"
 4496      52525F5A 
 4496      00
 4497              	.LASF228:
 4498 1107 5469636B 		.ascii	"TickSpokePtr\000"
 4498      53706F6B 
 4498      65507472 
 4498      00
 4499              	.LASF218:
 4500 1114 4462674E 		.ascii	"DbgNamePtr\000"
 4500      616D6550 
 4500      747200
 4501              	.LASF207:
 4502 111f 4F757450 		.ascii	"OutPtr\000"
 4502      747200
 4503              	.LASF231:
 4504 1126 5461736B 		.ascii	"TaskEntryArg\000"
 4504      456E7472 
 4504      79417267 
 4504      00
 4505              	.LASF107:
 4506 1133 4F535F45 		.ascii	"OS_ERR_Q_FULL\000"
 4506      52525F51 
 4506      5F46554C 
 4506      4C00
 4507              	.LASF58:
 4508 1141 4F535F45 		.ascii	"OS_ERR_INT_Q_STK_INVALID\000"
 4508      52525F49 
ARM GAS  C:\Users\alex\AppData\Local\Temp\ccfIfgZ4.s 			page 111


 4508      4E545F51 
 4508      5F53544B 
 4508      5F494E56 
 4509              	.LASF171:
 4510 115a 4F535F45 		.ascii	"OS_ERR_TIME_INVALID_SECONDS\000"
 4510      52525F54 
 4510      494D455F 
 4510      494E5641 
 4510      4C49445F 
 4511              	.LASF135:
 4512 1176 4F535F45 		.ascii	"OS_ERR_TASK_DEL\000"
 4512      52525F54 
 4512      41534B5F 
 4512      44454C00 
 4513              	.LASF275:
 4514 1186 4F535F50 		.ascii	"OS_PEND_LIST\000"
 4514      454E445F 
 4514      4C495354 
 4514      00
 4515              	.LASF4:
 4516 1193 7369676E 		.ascii	"signed char\000"
 4516      65642063 
 4516      68617200 
 4517              	.LASF202:
 4518 119f 4D736754 		.ascii	"MsgTS\000"
 4518      5300
 4519              	.LASF46:
 4520 11a5 4F535F45 		.ascii	"OS_ERR_FATAL_RETURN\000"
 4520      52525F46 
 4520      4154414C 
 4520      5F524554 
 4520      55524E00 
 4521              	.LASF6:
 4522 11b9 73686F72 		.ascii	"short unsigned int\000"
 4522      7420756E 
 4522      7369676E 
 4522      65642069 
 4522      6E7400
 4523              	.LASF23:
 4524 11cc 4F535F46 		.ascii	"OS_FLAGS\000"
 4524      4C414753 
 4524      00
 4525              	.LASF200:
 4526 11d5 4D736750 		.ascii	"MsgPtr\000"
 4526      747200
 4527              	.LASF159:
 4528 11dc 4F535F45 		.ascii	"OS_ERR_TLS_NO_MORE_AVAIL\000"
 4528      52525F54 
 4528      4C535F4E 
 4528      4F5F4D4F 
 4528      52455F41 
 4529              	.LASF36:
 4530 11f5 4F535F45 		.ascii	"OS_ERR_NONE\000"
 4530      52525F4E 
 4530      4F4E4500 
 4531              	.LASF268:
 4532 1201 6F735F70 		.ascii	"os_pend_data\000"
ARM GAS  C:\Users\alex\AppData\Local\Temp\ccfIfgZ4.s 			page 112


 4532      656E645F 
 4532      64617461 
 4532      00
 4533              	.LASF118:
 4534 120e 4F535F45 		.ascii	"OS_ERR_SCHED_LOCKED\000"
 4534      52525F53 
 4534      43484544 
 4534      5F4C4F43 
 4534      4B454400 
 4535              	.LASF50:
 4536 1222 4F535F45 		.ascii	"OS_ERR_FLUSH_ISR\000"
 4536      52525F46 
 4536      4C555348 
 4536      5F495352 
 4536      00
 4537              	.LASF236:
 4538 1233 5072696F 		.ascii	"Prio\000"
 4538      00
 4539              	.LASF13:
 4540 1238 646F7562 		.ascii	"double\000"
 4540      6C6500
 4541              	.LASF92:
 4542 123f 4F535F45 		.ascii	"OS_ERR_PEND_ABORT\000"
 4542      52525F50 
 4542      454E445F 
 4542      41424F52 
 4542      5400
 4543              	.LASF253:
 4544 1251 43505555 		.ascii	"CPUUsage\000"
 4544      73616765 
 4544      00
 4545              	.LASF119:
 4546 125a 4F535F45 		.ascii	"OS_ERR_SCHED_NOT_LOCKED\000"
 4546      52525F53 
 4546      43484544 
 4546      5F4E4F54 
 4546      5F4C4F43 
 4547              	.LASF103:
 4548 1272 4F535F45 		.ascii	"OS_ERR_PRIO\000"
 4548      52525F50 
 4548      52494F00 
 4549              	.LASF96:
 4550 127e 4F535F45 		.ascii	"OS_ERR_PEND_DEL\000"
 4550      52525F50 
 4550      454E445F 
 4550      44454C00 
 4551              	.LASF270:
 4552 128e 50656E64 		.ascii	"PendObjPtr\000"
 4552      4F626A50 
 4552      747200
 4553              	.LASF210:
 4554 1299 4E627245 		.ascii	"NbrEntriesMax\000"
 4554      6E747269 
 4554      65734D61 
 4554      7800
 4555              	.LASF276:
 4556 12a7 6F735F70 		.ascii	"os_pend_list\000"
ARM GAS  C:\Users\alex\AppData\Local\Temp\ccfIfgZ4.s 			page 113


 4556      656E645F 
 4556      6C697374 
 4556      00
 4557              	.LASF73:
 4558 12b4 4F535F45 		.ascii	"OS_ERR_MEM_INVALID_SIZE\000"
 4558      52525F4D 
 4558      454D5F49 
 4558      4E56414C 
 4558      49445F53 
 4559              	.LASF150:
 4560 12cc 4F535F45 		.ascii	"OS_ERR_TASK_SUSPENDED\000"
 4560      52525F54 
 4560      41534B5F 
 4560      53555350 
 4560      454E4445 
 4561              	.LASF122:
 4562 12e2 4F535F45 		.ascii	"OS_ERR_SET_ISR\000"
 4562      52525F53 
 4562      45545F49 
 4562      535200
 4563              	.LASF258:
 4564 12f1 4379636C 		.ascii	"CyclesTotal\000"
 4564      6573546F 
 4564      74616C00 
 4565              	.LASF248:
 4566 12fd 52656754 		.ascii	"RegTbl\000"
 4566      626C00
 4567              	.LASF121:
 4568 1304 4F535F45 		.ascii	"OS_ERR_SEM_OVF\000"
 4568      52525F53 
 4568      454D5F4F 
 4568      564600
 4569              	.LASF136:
 4570 1313 4F535F45 		.ascii	"OS_ERR_TASK_DEL_IDLE\000"
 4570      52525F54 
 4570      41534B5F 
 4570      44454C5F 
 4570      49444C45 
 4571              	.LASF168:
 4572 1328 4F535F45 		.ascii	"OS_ERR_TIME_GET_ISR\000"
 4572      52525F54 
 4572      494D455F 
 4572      4745545F 
 4572      49535200 
 4573              	.LASF243:
 4574 133c 54696D65 		.ascii	"TimeQuanta\000"
 4574      5175616E 
 4574      746100
 4575              	.LASF167:
 4576 1347 4F535F45 		.ascii	"OS_ERR_TIME_DLY_RESUME_ISR\000"
 4576      52525F54 
 4576      494D455F 
 4576      444C595F 
 4576      52455355 
 4577              	.LASF162:
 4578 1362 4F535F45 		.ascii	"OS_ERR_TICK_PRIO_INVALID\000"
 4578      52525F54 
ARM GAS  C:\Users\alex\AppData\Local\Temp\ccfIfgZ4.s 			page 114


 4578      49434B5F 
 4578      5052494F 
 4578      5F494E56 
 4579              	.LASF102:
 4580 137b 4F535F45 		.ascii	"OS_ERR_PRIO_EXIST\000"
 4580      52525F50 
 4580      52494F5F 
 4580      45584953 
 4580      5400
 4581              	.LASF205:
 4582 138d 6F735F6D 		.ascii	"os_msg_q\000"
 4582      73675F71 
 4582      00
 4583              	.LASF74:
 4584 1396 4F535F45 		.ascii	"OS_ERR_MEM_NO_FREE_BLKS\000"
 4584      52525F4D 
 4584      454D5F4E 
 4584      4F5F4652 
 4584      45455F42 
 4585              	.LASF15:
 4586 13ae 4350555F 		.ascii	"CPU_STK\000"
 4586      53544B00 
 4587              		.ident	"GCC: (GNU Tools for ARM Embedded Processors) 5.4.1 20160609 (release) [ARM/embedded-5-bran
