ARM GAS  C:\Users\Aluno\AppData\Local\Temp\ccHJiRYw.s 			page 1


   1              		.syntax unified
   2              		.cpu cortex-m3
   3              		.fpu softvfp
   4              		.eabi_attribute 20, 1
   5              		.eabi_attribute 21, 1
   6              		.eabi_attribute 23, 3
   7              		.eabi_attribute 24, 1
   8              		.eabi_attribute 25, 1
   9              		.eabi_attribute 26, 1
  10              		.eabi_attribute 30, 6
  11              		.eabi_attribute 34, 1
  12              		.eabi_attribute 18, 4
  13              		.thumb
  14              		.syntax unified
  15              		.file	"os_task.c"
  16              		.text
  17              	.Ltext0:
  18              		.cfi_sections	.debug_frame
  19              		.section	.text.OSTaskChangePrio,"ax",%progbits
  20              		.align	2
  21              		.global	OSTaskChangePrio
  22              		.thumb
  23              		.thumb_func
  24              		.type	OSTaskChangePrio, %function
  25              	OSTaskChangePrio:
  26              	.LFB0:
  27              		.file 1 "..\\..\\..\\..\\..\\..\\uCOS-III\\Source\\os_task.c"
   1:..\..\..\..\..\..\uCOS-III\Source/os_task.c **** /*
   2:..\..\..\..\..\..\uCOS-III\Source/os_task.c **** ***************************************************************************************************
   3:..\..\..\..\..\..\uCOS-III\Source/os_task.c **** *                                                      uC/OS-III
   4:..\..\..\..\..\..\uCOS-III\Source/os_task.c **** *                                                 The Real-Time Kernel
   5:..\..\..\..\..\..\uCOS-III\Source/os_task.c **** *
   6:..\..\..\..\..\..\uCOS-III\Source/os_task.c **** *                                  (c) Copyright 2009-2012; Micrium, Inc.; Weston, FL
   7:..\..\..\..\..\..\uCOS-III\Source/os_task.c **** *                           All rights reserved.  Protected by international copyright laws.
   8:..\..\..\..\..\..\uCOS-III\Source/os_task.c **** *
   9:..\..\..\..\..\..\uCOS-III\Source/os_task.c **** *                                                   TASK MANAGEMENT
  10:..\..\..\..\..\..\uCOS-III\Source/os_task.c **** *
  11:..\..\..\..\..\..\uCOS-III\Source/os_task.c **** * File    : OS_TASK.C
  12:..\..\..\..\..\..\uCOS-III\Source/os_task.c **** * By      : JJL
  13:..\..\..\..\..\..\uCOS-III\Source/os_task.c **** * Version : V3.03.01
  14:..\..\..\..\..\..\uCOS-III\Source/os_task.c **** *
  15:..\..\..\..\..\..\uCOS-III\Source/os_task.c **** * LICENSING TERMS:
  16:..\..\..\..\..\..\uCOS-III\Source/os_task.c **** * ---------------
  17:..\..\..\..\..\..\uCOS-III\Source/os_task.c **** *           uC/OS-III is provided in source form for FREE short-term evaluation, for educational us
  18:..\..\..\..\..\..\uCOS-III\Source/os_task.c **** *           for peaceful research.  If you plan or intend to use uC/OS-III in a commercial applicat
  19:..\..\..\..\..\..\uCOS-III\Source/os_task.c **** *           product then, you need to contact Micrium to properly license uC/OS-III for its use in 
  20:..\..\..\..\..\..\uCOS-III\Source/os_task.c **** *           application/product.   We provide ALL the source code for your convenience and to help 
  21:..\..\..\..\..\..\uCOS-III\Source/os_task.c **** *           experience uC/OS-III.  The fact that the source is provided does NOT mean that you can 
  22:..\..\..\..\..\..\uCOS-III\Source/os_task.c **** *           it commercially without paying a licensing fee.
  23:..\..\..\..\..\..\uCOS-III\Source/os_task.c **** *
  24:..\..\..\..\..\..\uCOS-III\Source/os_task.c **** *           Knowledge of the source code may NOT be used to develop a similar product.
  25:..\..\..\..\..\..\uCOS-III\Source/os_task.c **** *
  26:..\..\..\..\..\..\uCOS-III\Source/os_task.c **** *           Please help us continue to provide the embedded community with the finest software avai
  27:..\..\..\..\..\..\uCOS-III\Source/os_task.c **** *           Your honesty is greatly appreciated.
  28:..\..\..\..\..\..\uCOS-III\Source/os_task.c **** *
  29:..\..\..\..\..\..\uCOS-III\Source/os_task.c **** *           You can contact us at www.micrium.com, or by phone at +1 (954) 217-2036.
  30:..\..\..\..\..\..\uCOS-III\Source/os_task.c **** ***************************************************************************************************
ARM GAS  C:\Users\Aluno\AppData\Local\Temp\ccHJiRYw.s 			page 2


  31:..\..\..\..\..\..\uCOS-III\Source/os_task.c **** */
  32:..\..\..\..\..\..\uCOS-III\Source/os_task.c **** 
  33:..\..\..\..\..\..\uCOS-III\Source/os_task.c **** #define  MICRIUM_SOURCE
  34:..\..\..\..\..\..\uCOS-III\Source/os_task.c **** #include <os.h>
  35:..\..\..\..\..\..\uCOS-III\Source/os_task.c **** 
  36:..\..\..\..\..\..\uCOS-III\Source/os_task.c **** #ifdef VSC_INCLUDE_SOURCE_FILE_NAMES
  37:..\..\..\..\..\..\uCOS-III\Source/os_task.c **** const  CPU_CHAR  *os_task__c = "$Id: $";
  38:..\..\..\..\..\..\uCOS-III\Source/os_task.c **** #endif
  39:..\..\..\..\..\..\uCOS-III\Source/os_task.c **** 
  40:..\..\..\..\..\..\uCOS-III\Source/os_task.c **** /*
  41:..\..\..\..\..\..\uCOS-III\Source/os_task.c **** ***************************************************************************************************
  42:..\..\..\..\..\..\uCOS-III\Source/os_task.c **** *                                                CHANGE PRIORITY OF A TASK
  43:..\..\..\..\..\..\uCOS-III\Source/os_task.c **** *
  44:..\..\..\..\..\..\uCOS-III\Source/os_task.c **** * Description: This function allows you to change the priority of a task dynamically.  Note that th
  45:..\..\..\..\..\..\uCOS-III\Source/os_task.c **** *              priority MUST be available.
  46:..\..\..\..\..\..\uCOS-III\Source/os_task.c **** *
  47:..\..\..\..\..\..\uCOS-III\Source/os_task.c **** * Arguments  : p_tcb      is the TCB of the tack to change the priority for
  48:..\..\..\..\..\..\uCOS-III\Source/os_task.c **** *
  49:..\..\..\..\..\..\uCOS-III\Source/os_task.c **** *              prio_new   is the new priority
  50:..\..\..\..\..\..\uCOS-III\Source/os_task.c **** *
  51:..\..\..\..\..\..\uCOS-III\Source/os_task.c **** *              p_err      is a pointer to an error code returned by this function:
  52:..\..\..\..\..\..\uCOS-III\Source/os_task.c **** *
  53:..\..\..\..\..\..\uCOS-III\Source/os_task.c **** *                             OS_ERR_NONE                 is the call was successful
  54:..\..\..\..\..\..\uCOS-III\Source/os_task.c **** *                             OS_ERR_PRIO_INVALID         if the priority you specify is higher tha
  55:..\..\..\..\..\..\uCOS-III\Source/os_task.c **** *                                                         (i.e. >= (OS_CFG_PRIO_MAX-1))
  56:..\..\..\..\..\..\uCOS-III\Source/os_task.c **** *                             OS_ERR_STATE_INVALID        if the task is in an invalid state
  57:..\..\..\..\..\..\uCOS-III\Source/os_task.c **** *                             OS_ERR_TASK_CHANGE_PRIO_ISR if you tried to change the task's priorit
  58:..\..\..\..\..\..\uCOS-III\Source/os_task.c **** ***************************************************************************************************
  59:..\..\..\..\..\..\uCOS-III\Source/os_task.c **** */
  60:..\..\..\..\..\..\uCOS-III\Source/os_task.c **** 
  61:..\..\..\..\..\..\uCOS-III\Source/os_task.c **** #if OS_CFG_TASK_CHANGE_PRIO_EN > 0u
  62:..\..\..\..\..\..\uCOS-III\Source/os_task.c **** void  OSTaskChangePrio (OS_TCB   *p_tcb,
  63:..\..\..\..\..\..\uCOS-III\Source/os_task.c ****                         OS_PRIO   prio_new,
  64:..\..\..\..\..\..\uCOS-III\Source/os_task.c ****                         OS_ERR   *p_err)
  65:..\..\..\..\..\..\uCOS-III\Source/os_task.c **** {
  28              		.loc 1 65 0
  29              		.cfi_startproc
  30              		@ args = 0, pretend = 0, frame = 24
  31              		@ frame_needed = 1, uses_anonymous_args = 0
  32 0000 80B5     		push	{r7, lr}
  33              		.cfi_def_cfa_offset 8
  34              		.cfi_offset 7, -8
  35              		.cfi_offset 14, -4
  36 0002 86B0     		sub	sp, sp, #24
  37              		.cfi_def_cfa_offset 32
  38 0004 00AF     		add	r7, sp, #0
  39              		.cfi_def_cfa_register 7
  40 0006 F860     		str	r0, [r7, #12]
  41 0008 0B46     		mov	r3, r1
  42 000a 7A60     		str	r2, [r7, #4]
  43 000c FB72     		strb	r3, [r7, #11]
  66:..\..\..\..\..\..\uCOS-III\Source/os_task.c ****     CPU_BOOLEAN   self;
  67:..\..\..\..\..\..\uCOS-III\Source/os_task.c ****     CPU_SR_ALLOC();
  44              		.loc 1 67 0
  45 000e 0023     		movs	r3, #0
  46 0010 3B61     		str	r3, [r7, #16]
  68:..\..\..\..\..\..\uCOS-III\Source/os_task.c **** 
ARM GAS  C:\Users\Aluno\AppData\Local\Temp\ccHJiRYw.s 			page 3


  69:..\..\..\..\..\..\uCOS-III\Source/os_task.c **** 
  70:..\..\..\..\..\..\uCOS-III\Source/os_task.c **** 
  71:..\..\..\..\..\..\uCOS-III\Source/os_task.c **** #ifdef OS_SAFETY_CRITICAL
  72:..\..\..\..\..\..\uCOS-III\Source/os_task.c ****     if (p_err == (OS_ERR *)0) {
  73:..\..\..\..\..\..\uCOS-III\Source/os_task.c ****         OS_SAFETY_CRITICAL_EXCEPTION();
  74:..\..\..\..\..\..\uCOS-III\Source/os_task.c ****         return;
  75:..\..\..\..\..\..\uCOS-III\Source/os_task.c ****     }
  76:..\..\..\..\..\..\uCOS-III\Source/os_task.c **** #endif
  77:..\..\..\..\..\..\uCOS-III\Source/os_task.c **** 
  78:..\..\..\..\..\..\uCOS-III\Source/os_task.c **** #if OS_CFG_CALLED_FROM_ISR_CHK_EN > 0u
  79:..\..\..\..\..\..\uCOS-III\Source/os_task.c ****     if (OSIntNestingCtr > (OS_NESTING_CTR)0) {              /* ---------- CANNOT CREATE A TASK FROM
  47              		.loc 1 79 0
  48 0012 484B     		ldr	r3, .L21
  49 0014 1B78     		ldrb	r3, [r3]	@ zero_extendqisi2
  50 0016 002B     		cmp	r3, #0
  51 0018 04D0     		beq	.L2
  80:..\..\..\..\..\..\uCOS-III\Source/os_task.c ****        *p_err = OS_ERR_TASK_CHANGE_PRIO_ISR;
  52              		.loc 1 80 0
  53 001a 7B68     		ldr	r3, [r7, #4]
  54 001c 47F24912 		movw	r2, #29001
  55 0020 1A80     		strh	r2, [r3]	@ movhi
  81:..\..\..\..\..\..\uCOS-III\Source/os_task.c ****         return;
  56              		.loc 1 81 0
  57 0022 84E0     		b	.L1
  58              	.L2:
  82:..\..\..\..\..\..\uCOS-III\Source/os_task.c ****     }
  83:..\..\..\..\..\..\uCOS-III\Source/os_task.c **** #endif
  84:..\..\..\..\..\..\uCOS-III\Source/os_task.c **** 
  85:..\..\..\..\..\..\uCOS-III\Source/os_task.c **** #if OS_CFG_ISR_POST_DEFERRED_EN > 0u
  86:..\..\..\..\..\..\uCOS-III\Source/os_task.c ****     if (prio_new == 0) {                                    /* Cannot set to IntQueue Task priority
  87:..\..\..\..\..\..\uCOS-III\Source/os_task.c ****        *p_err = OS_ERR_PRIO_INVALID;
  88:..\..\..\..\..\..\uCOS-III\Source/os_task.c ****         return;
  89:..\..\..\..\..\..\uCOS-III\Source/os_task.c ****     }
  90:..\..\..\..\..\..\uCOS-III\Source/os_task.c **** #endif
  91:..\..\..\..\..\..\uCOS-III\Source/os_task.c **** 
  92:..\..\..\..\..\..\uCOS-III\Source/os_task.c ****     if (prio_new >= (OS_CFG_PRIO_MAX - 1u)) {               /* Cannot set to Idle Task priority    
  59              		.loc 1 92 0
  60 0024 FB7A     		ldrb	r3, [r7, #11]	@ zero_extendqisi2
  61 0026 062B     		cmp	r3, #6
  62 0028 04D9     		bls	.L4
  93:..\..\..\..\..\..\uCOS-III\Source/os_task.c ****        *p_err = OS_ERR_PRIO_INVALID;
  63              		.loc 1 93 0
  64 002a 7B68     		ldr	r3, [r7, #4]
  65 002c 46F27322 		movw	r2, #25203
  66 0030 1A80     		strh	r2, [r3]	@ movhi
  94:..\..\..\..\..\..\uCOS-III\Source/os_task.c ****         return;
  67              		.loc 1 94 0
  68 0032 7CE0     		b	.L1
  69              	.L4:
  95:..\..\..\..\..\..\uCOS-III\Source/os_task.c ****     }
  96:..\..\..\..\..\..\uCOS-III\Source/os_task.c **** 
  97:..\..\..\..\..\..\uCOS-III\Source/os_task.c ****     if (p_tcb == (OS_TCB *)0) {                             /* See if want to change priority of 's
  70              		.loc 1 97 0
  71 0034 FB68     		ldr	r3, [r7, #12]
  72 0036 002B     		cmp	r3, #0
  73 0038 0BD1     		bne	.L5
  98:..\..\..\..\..\..\uCOS-III\Source/os_task.c ****         CPU_CRITICAL_ENTER();
ARM GAS  C:\Users\Aluno\AppData\Local\Temp\ccHJiRYw.s 			page 4


  74              		.loc 1 98 0
  75 003a FFF7FEFF 		bl	CPU_SR_Save
  76 003e 3861     		str	r0, [r7, #16]
  99:..\..\..\..\..\..\uCOS-III\Source/os_task.c ****         p_tcb = OSTCBCurPtr;
  77              		.loc 1 99 0
  78 0040 3D4B     		ldr	r3, .L21+4
  79 0042 1B68     		ldr	r3, [r3]
  80 0044 FB60     		str	r3, [r7, #12]
 100:..\..\..\..\..\..\uCOS-III\Source/os_task.c ****         CPU_CRITICAL_EXIT();
  81              		.loc 1 100 0
  82 0046 3869     		ldr	r0, [r7, #16]
  83 0048 FFF7FEFF 		bl	CPU_SR_Restore
 101:..\..\..\..\..\..\uCOS-III\Source/os_task.c ****         self  = DEF_TRUE;
  84              		.loc 1 101 0
  85 004c 0123     		movs	r3, #1
  86 004e FB75     		strb	r3, [r7, #23]
  87 0050 01E0     		b	.L6
  88              	.L5:
 102:..\..\..\..\..\..\uCOS-III\Source/os_task.c ****     } else {
 103:..\..\..\..\..\..\uCOS-III\Source/os_task.c ****         self  = DEF_FALSE;
  89              		.loc 1 103 0
  90 0052 0023     		movs	r3, #0
  91 0054 FB75     		strb	r3, [r7, #23]
  92              	.L6:
 104:..\..\..\..\..\..\uCOS-III\Source/os_task.c ****     }
 105:..\..\..\..\..\..\uCOS-III\Source/os_task.c **** 
 106:..\..\..\..\..\..\uCOS-III\Source/os_task.c ****     OS_CRITICAL_ENTER();
  93              		.loc 1 106 0
  94 0056 FFF7FEFF 		bl	CPU_SR_Save
  95 005a 3861     		str	r0, [r7, #16]
 107:..\..\..\..\..\..\uCOS-III\Source/os_task.c ****     switch (p_tcb->TaskState) {
  96              		.loc 1 107 0
  97 005c FB68     		ldr	r3, [r7, #12]
  98 005e 93F83630 		ldrb	r3, [r3, #54]	@ zero_extendqisi2
  99 0062 072B     		cmp	r3, #7
 100 0064 53D8     		bhi	.L7
 101 0066 01A2     		adr	r2, .L9
 102 0068 52F823F0 		ldr	pc, [r2, r3, lsl #2]
 103              		.p2align 2
 104              	.L9:
 105 006c 8D000000 		.word	.L8+1
 106 0070 BD000000 		.word	.L10+1
 107 0074 C7000000 		.word	.L11+1
 108 0078 C7000000 		.word	.L11+1
 109 007c BD000000 		.word	.L10+1
 110 0080 BD000000 		.word	.L10+1
 111 0084 C7000000 		.word	.L11+1
 112 0088 C7000000 		.word	.L11+1
 113              		.p2align 1
 114              	.L8:
 108:..\..\..\..\..\..\uCOS-III\Source/os_task.c ****         case OS_TASK_STATE_RDY:
 109:..\..\..\..\..\..\uCOS-III\Source/os_task.c ****              OS_RdyListRemove(p_tcb);                       /* Remove from current priority        
 115              		.loc 1 109 0
 116 008c F868     		ldr	r0, [r7, #12]
 117 008e FFF7FEFF 		bl	OS_RdyListRemove
 110:..\..\..\..\..\..\uCOS-III\Source/os_task.c ****              p_tcb->Prio = prio_new;                        /* Set new task priority               
 118              		.loc 1 110 0
ARM GAS  C:\Users\Aluno\AppData\Local\Temp\ccHJiRYw.s 			page 5


 119 0092 FB68     		ldr	r3, [r7, #12]
 120 0094 FA7A     		ldrb	r2, [r7, #11]
 121 0096 83F83720 		strb	r2, [r3, #55]
 111:..\..\..\..\..\..\uCOS-III\Source/os_task.c ****              OS_PrioInsert(p_tcb->Prio);
 122              		.loc 1 111 0
 123 009a FB68     		ldr	r3, [r7, #12]
 124 009c 93F83730 		ldrb	r3, [r3, #55]	@ zero_extendqisi2
 125 00a0 1846     		mov	r0, r3
 126 00a2 FFF7FEFF 		bl	OS_PrioInsert
 112:..\..\..\..\..\..\uCOS-III\Source/os_task.c ****              if (self == DEF_TRUE) {
 127              		.loc 1 112 0
 128 00a6 FB7D     		ldrb	r3, [r7, #23]	@ zero_extendqisi2
 129 00a8 012B     		cmp	r3, #1
 130 00aa 03D1     		bne	.L12
 113:..\..\..\..\..\..\uCOS-III\Source/os_task.c ****                  OS_RdyListInsertHead(p_tcb);
 131              		.loc 1 113 0
 132 00ac F868     		ldr	r0, [r7, #12]
 133 00ae FFF7FEFF 		bl	OS_RdyListInsertHead
 114:..\..\..\..\..\..\uCOS-III\Source/os_task.c ****              } else {
 115:..\..\..\..\..\..\uCOS-III\Source/os_task.c ****                  OS_RdyListInsertTail(p_tcb);
 116:..\..\..\..\..\..\uCOS-III\Source/os_task.c ****              }
 117:..\..\..\..\..\..\uCOS-III\Source/os_task.c ****              break;
 134              		.loc 1 117 0
 135 00b2 34E0     		b	.L14
 136              	.L12:
 115:..\..\..\..\..\..\uCOS-III\Source/os_task.c ****              }
 137              		.loc 1 115 0
 138 00b4 F868     		ldr	r0, [r7, #12]
 139 00b6 FFF7FEFF 		bl	OS_RdyListInsertTail
 140              		.loc 1 117 0
 141 00ba 30E0     		b	.L14
 142              	.L10:
 118:..\..\..\..\..\..\uCOS-III\Source/os_task.c **** 
 119:..\..\..\..\..\..\uCOS-III\Source/os_task.c ****         case OS_TASK_STATE_DLY:                             /* Nothing to do except change the prio
 120:..\..\..\..\..\..\uCOS-III\Source/os_task.c ****         case OS_TASK_STATE_SUSPENDED:
 121:..\..\..\..\..\..\uCOS-III\Source/os_task.c ****         case OS_TASK_STATE_DLY_SUSPENDED:
 122:..\..\..\..\..\..\uCOS-III\Source/os_task.c ****              p_tcb->Prio = prio_new;                        /* Set new task priority               
 143              		.loc 1 122 0
 144 00bc FB68     		ldr	r3, [r7, #12]
 145 00be FA7A     		ldrb	r2, [r7, #11]
 146 00c0 83F83720 		strb	r2, [r3, #55]
 123:..\..\..\..\..\..\uCOS-III\Source/os_task.c ****              break;
 147              		.loc 1 123 0
 148 00c4 2BE0     		b	.L14
 149              	.L11:
 124:..\..\..\..\..\..\uCOS-III\Source/os_task.c **** 
 125:..\..\..\..\..\..\uCOS-III\Source/os_task.c ****         case OS_TASK_STATE_PEND:
 126:..\..\..\..\..\..\uCOS-III\Source/os_task.c ****         case OS_TASK_STATE_PEND_TIMEOUT:
 127:..\..\..\..\..\..\uCOS-III\Source/os_task.c ****         case OS_TASK_STATE_PEND_SUSPENDED:
 128:..\..\..\..\..\..\uCOS-III\Source/os_task.c ****         case OS_TASK_STATE_PEND_TIMEOUT_SUSPENDED:
 129:..\..\..\..\..\..\uCOS-III\Source/os_task.c ****              switch (p_tcb->PendOn) {                       /* What to do depends on what we are pe
 150              		.loc 1 129 0
 151 00c6 FB68     		ldr	r3, [r7, #12]
 152 00c8 93F83430 		ldrb	r3, [r3, #52]	@ zero_extendqisi2
 153 00cc 013B     		subs	r3, r3, #1
 154 00ce 062B     		cmp	r3, #6
 155 00d0 1BD8     		bhi	.L20
ARM GAS  C:\Users\Aluno\AppData\Local\Temp\ccHJiRYw.s 			page 6


 156 00d2 01A2     		adr	r2, .L17
 157 00d4 52F823F0 		ldr	pc, [r2, r3, lsl #2]
 158              		.p2align 2
 159              	.L17:
 160 00d8 F5000000 		.word	.L16+1
 161 00dc F5000000 		.word	.L16+1
 162 00e0 FF000000 		.word	.L18+1
 163 00e4 FF000000 		.word	.L18+1
 164 00e8 FF000000 		.word	.L18+1
 165 00ec FF000000 		.word	.L18+1
 166 00f0 F5000000 		.word	.L16+1
 167              		.p2align 1
 168              	.L16:
 130:..\..\..\..\..\..\uCOS-III\Source/os_task.c ****                  case OS_TASK_PEND_ON_TASK_Q:               /* Nothing to do except change the prio
 131:..\..\..\..\..\..\uCOS-III\Source/os_task.c ****                  case OS_TASK_PEND_ON_TASK_SEM:
 132:..\..\..\..\..\..\uCOS-III\Source/os_task.c ****                  case OS_TASK_PEND_ON_FLAG:
 133:..\..\..\..\..\..\uCOS-III\Source/os_task.c ****                       p_tcb->Prio = prio_new;               /* Set new task priority               
 169              		.loc 1 133 0
 170 00f4 FB68     		ldr	r3, [r7, #12]
 171 00f6 FA7A     		ldrb	r2, [r7, #11]
 172 00f8 83F83720 		strb	r2, [r3, #55]
 134:..\..\..\..\..\..\uCOS-III\Source/os_task.c ****                       break;
 173              		.loc 1 134 0
 174 00fc 06E0     		b	.L19
 175              	.L18:
 135:..\..\..\..\..\..\uCOS-III\Source/os_task.c **** 
 136:..\..\..\..\..\..\uCOS-III\Source/os_task.c ****                  case OS_TASK_PEND_ON_MUTEX:
 137:..\..\..\..\..\..\uCOS-III\Source/os_task.c ****                  case OS_TASK_PEND_ON_MULTI:
 138:..\..\..\..\..\..\uCOS-III\Source/os_task.c ****                  case OS_TASK_PEND_ON_Q:
 139:..\..\..\..\..\..\uCOS-III\Source/os_task.c ****                  case OS_TASK_PEND_ON_SEM:
 140:..\..\..\..\..\..\uCOS-III\Source/os_task.c ****                       OS_PendListChangePrio(p_tcb,
 176              		.loc 1 140 0
 177 00fe FB7A     		ldrb	r3, [r7, #11]	@ zero_extendqisi2
 178 0100 1946     		mov	r1, r3
 179 0102 F868     		ldr	r0, [r7, #12]
 180 0104 FFF7FEFF 		bl	OS_PendListChangePrio
 141:..\..\..\..\..\..\uCOS-III\Source/os_task.c ****                                             prio_new);
 142:..\..\..\..\..\..\uCOS-III\Source/os_task.c ****                       break;
 181              		.loc 1 142 0
 182 0108 00E0     		b	.L19
 183              	.L20:
 143:..\..\..\..\..\..\uCOS-III\Source/os_task.c **** 
 144:..\..\..\..\..\..\uCOS-III\Source/os_task.c ****                  default:
 145:..\..\..\..\..\..\uCOS-III\Source/os_task.c ****                       break;
 184              		.loc 1 145 0
 185 010a 00BF     		nop
 186              	.L19:
 146:..\..\..\..\..\..\uCOS-III\Source/os_task.c ****             }
 147:..\..\..\..\..\..\uCOS-III\Source/os_task.c ****              break;
 187              		.loc 1 147 0 discriminator 1
 188 010c 07E0     		b	.L14
 189              	.L7:
 148:..\..\..\..\..\..\uCOS-III\Source/os_task.c **** 
 149:..\..\..\..\..\..\uCOS-III\Source/os_task.c ****         default:
 150:..\..\..\..\..\..\uCOS-III\Source/os_task.c ****              OS_CRITICAL_EXIT();
 190              		.loc 1 150 0
 191 010e 3869     		ldr	r0, [r7, #16]
ARM GAS  C:\Users\Aluno\AppData\Local\Temp\ccHJiRYw.s 			page 7


 192 0110 FFF7FEFF 		bl	CPU_SR_Restore
 151:..\..\..\..\..\..\uCOS-III\Source/os_task.c ****             *p_err = OS_ERR_STATE_INVALID;
 193              		.loc 1 151 0
 194 0114 7B68     		ldr	r3, [r7, #4]
 195 0116 46F62D62 		movw	r2, #28205
 196 011a 1A80     		strh	r2, [r3]	@ movhi
 152:..\..\..\..\..\..\uCOS-III\Source/os_task.c ****              return;
 197              		.loc 1 152 0
 198 011c 07E0     		b	.L1
 199              	.L14:
 153:..\..\..\..\..\..\uCOS-III\Source/os_task.c ****     }
 154:..\..\..\..\..\..\uCOS-III\Source/os_task.c **** 
 155:..\..\..\..\..\..\uCOS-III\Source/os_task.c ****     OS_CRITICAL_EXIT_NO_SCHED();
 200              		.loc 1 155 0
 201 011e 3869     		ldr	r0, [r7, #16]
 202 0120 FFF7FEFF 		bl	CPU_SR_Restore
 156:..\..\..\..\..\..\uCOS-III\Source/os_task.c **** 
 157:..\..\..\..\..\..\uCOS-III\Source/os_task.c ****     OSSched();                                              /* Run highest priority task ready     
 203              		.loc 1 157 0
 204 0124 FFF7FEFF 		bl	OSSched
 158:..\..\..\..\..\..\uCOS-III\Source/os_task.c **** 
 159:..\..\..\..\..\..\uCOS-III\Source/os_task.c ****    *p_err = OS_ERR_NONE;
 205              		.loc 1 159 0
 206 0128 7B68     		ldr	r3, [r7, #4]
 207 012a 0022     		movs	r2, #0
 208 012c 1A80     		strh	r2, [r3]	@ movhi
 209              	.L1:
 160:..\..\..\..\..\..\uCOS-III\Source/os_task.c **** }
 210              		.loc 1 160 0
 211 012e 1837     		adds	r7, r7, #24
 212              		.cfi_def_cfa_offset 8
 213 0130 BD46     		mov	sp, r7
 214              		.cfi_def_cfa_register 13
 215              		@ sp needed
 216 0132 80BD     		pop	{r7, pc}
 217              	.L22:
 218              		.align	2
 219              	.L21:
 220 0134 00000000 		.word	OSIntNestingCtr
 221 0138 00000000 		.word	OSTCBCurPtr
 222              		.cfi_endproc
 223              	.LFE0:
 224              		.size	OSTaskChangePrio, .-OSTaskChangePrio
 225              		.section	.text.OSTaskCreate,"ax",%progbits
 226              		.align	2
 227              		.global	OSTaskCreate
 228              		.thumb
 229              		.thumb_func
 230              		.type	OSTaskCreate, %function
 231              	OSTaskCreate:
 232              	.LFB1:
 161:..\..\..\..\..\..\uCOS-III\Source/os_task.c **** #endif
 162:..\..\..\..\..\..\uCOS-III\Source/os_task.c **** 
 163:..\..\..\..\..\..\uCOS-III\Source/os_task.c **** /*$PAGE*/
 164:..\..\..\..\..\..\uCOS-III\Source/os_task.c **** /*
 165:..\..\..\..\..\..\uCOS-III\Source/os_task.c **** ***************************************************************************************************
 166:..\..\..\..\..\..\uCOS-III\Source/os_task.c **** *                                                    CREATE A TASK
ARM GAS  C:\Users\Aluno\AppData\Local\Temp\ccHJiRYw.s 			page 8


 167:..\..\..\..\..\..\uCOS-III\Source/os_task.c **** *
 168:..\..\..\..\..\..\uCOS-III\Source/os_task.c **** * Description: This function is used to have uC/OS-III manage the execution of a task.  Tasks can e
 169:..\..\..\..\..\..\uCOS-III\Source/os_task.c **** *              prior to the start of multitasking or by a running task.  A task cannot be created b
 170:..\..\..\..\..\..\uCOS-III\Source/os_task.c **** *
 171:..\..\..\..\..\..\uCOS-III\Source/os_task.c **** * Arguments  : p_tcb          is a pointer to the task's TCB
 172:..\..\..\..\..\..\uCOS-III\Source/os_task.c **** *
 173:..\..\..\..\..\..\uCOS-III\Source/os_task.c **** *              p_name         is a pointer to an ASCII string to provide a name to the task.
 174:..\..\..\..\..\..\uCOS-III\Source/os_task.c **** *
 175:..\..\..\..\..\..\uCOS-III\Source/os_task.c **** *              p_task         is a pointer to the task's code
 176:..\..\..\..\..\..\uCOS-III\Source/os_task.c **** *
 177:..\..\..\..\..\..\uCOS-III\Source/os_task.c **** *              p_arg          is a pointer to an optional data area which can be used to pass param
 178:..\..\..\..\..\..\uCOS-III\Source/os_task.c **** *                             the task when the task first executes.  Where the task is concerned i
 179:..\..\..\..\..\..\uCOS-III\Source/os_task.c **** *                             it was invoked and passed the argument 'p_arg' as follows:
 180:..\..\..\..\..\..\uCOS-III\Source/os_task.c **** *
 181:..\..\..\..\..\..\uCOS-III\Source/os_task.c **** *                                 void Task (void *p_arg)
 182:..\..\..\..\..\..\uCOS-III\Source/os_task.c **** *                                 {
 183:..\..\..\..\..\..\uCOS-III\Source/os_task.c **** *                                     for (;;) {
 184:..\..\..\..\..\..\uCOS-III\Source/os_task.c **** *                                         Task code;
 185:..\..\..\..\..\..\uCOS-III\Source/os_task.c **** *                                     }
 186:..\..\..\..\..\..\uCOS-III\Source/os_task.c **** *                                 }
 187:..\..\..\..\..\..\uCOS-III\Source/os_task.c **** *
 188:..\..\..\..\..\..\uCOS-III\Source/os_task.c **** *              prio           is the task's priority.  A unique priority MUST be assigned to each t
 189:..\..\..\..\..\..\uCOS-III\Source/os_task.c **** *                             lower the number, the higher the priority.
 190:..\..\..\..\..\..\uCOS-III\Source/os_task.c **** *
 191:..\..\..\..\..\..\uCOS-III\Source/os_task.c **** *              p_stk_base     is a pointer to the base address of the stack (i.e. low address).
 192:..\..\..\..\..\..\uCOS-III\Source/os_task.c **** *
 193:..\..\..\..\..\..\uCOS-III\Source/os_task.c **** *              stk_limit      is the number of stack elements to set as 'watermark' limit for the s
 194:..\..\..\..\..\..\uCOS-III\Source/os_task.c **** *                             represents the number of CPU_STK entries left before the stack is ful
 195:..\..\..\..\..\..\uCOS-III\Source/os_task.c **** *                             specifying 10% of the 'stk_size' value indicates that the stack limit
 196:..\..\..\..\..\..\uCOS-III\Source/os_task.c **** *                             when the stack reaches 90% full.
 197:..\..\..\..\..\..\uCOS-III\Source/os_task.c **** *
 198:..\..\..\..\..\..\uCOS-III\Source/os_task.c **** *              stk_size       is the size of the stack in number of elements.  If CPU_STK is set to
 199:..\..\..\..\..\..\uCOS-III\Source/os_task.c **** *                             'stk_size' corresponds to the number of bytes available.  If CPU_STK 
 200:..\..\..\..\..\..\uCOS-III\Source/os_task.c **** *                             CPU_INT16U, 'stk_size' contains the number of 16-bit entries availabl
 201:..\..\..\..\..\..\uCOS-III\Source/os_task.c **** *                             CPU_STK is set to CPU_INT32U, 'stk_size' contains the number of 32-bi
 202:..\..\..\..\..\..\uCOS-III\Source/os_task.c **** *                             available on the stack.
 203:..\..\..\..\..\..\uCOS-III\Source/os_task.c **** *
 204:..\..\..\..\..\..\uCOS-III\Source/os_task.c **** *              q_size         is the maximum number of messages that can be sent to the task
 205:..\..\..\..\..\..\uCOS-III\Source/os_task.c **** *
 206:..\..\..\..\..\..\uCOS-III\Source/os_task.c **** *              time_quanta    amount of time (in ticks) for time slice when round-robin between tas
 207:..\..\..\..\..\..\uCOS-III\Source/os_task.c **** *                             the default.
 208:..\..\..\..\..\..\uCOS-III\Source/os_task.c **** *
 209:..\..\..\..\..\..\uCOS-III\Source/os_task.c **** *              p_ext          is a pointer to a user supplied memory location which is used as a TC
 210:..\..\..\..\..\..\uCOS-III\Source/os_task.c **** *                             For example, this user memory can hold the contents of floating-point
 211:..\..\..\..\..\..\uCOS-III\Source/os_task.c **** *                             during a context switch, the time each task takes to execute, the num
 212:..\..\..\..\..\..\uCOS-III\Source/os_task.c **** *                             the task has been switched-in, etc.
 213:..\..\..\..\..\..\uCOS-III\Source/os_task.c **** *
 214:..\..\..\..\..\..\uCOS-III\Source/os_task.c **** *              opt            contains additional information (or options) about the behavior of th
 215:..\..\..\..\..\..\uCOS-III\Source/os_task.c **** *                             See OS_OPT_TASK_xxx in OS.H.  Current choices are:
 216:..\..\..\..\..\..\uCOS-III\Source/os_task.c **** *
 217:..\..\..\..\..\..\uCOS-III\Source/os_task.c **** *                                 OS_OPT_TASK_NONE            No option selected
 218:..\..\..\..\..\..\uCOS-III\Source/os_task.c **** *                                 OS_OPT_TASK_STK_CHK         Stack checking to be allowed for the 
 219:..\..\..\..\..\..\uCOS-III\Source/os_task.c **** *                                 OS_OPT_TASK_STK_CLR         Clear the stack when the task is crea
 220:..\..\..\..\..\..\uCOS-III\Source/os_task.c **** *                                 OS_OPT_TASK_SAVE_FP         If the CPU has floating-point registe
 221:..\..\..\..\..\..\uCOS-III\Source/os_task.c **** *                                                             during a context switch.
 222:..\..\..\..\..\..\uCOS-III\Source/os_task.c **** *                                 OS_OPT_TASK_NO_TLS          If the caller doesn't want or need TL
 223:..\..\..\..\..\..\uCOS-III\Source/os_task.c **** *                                                             Storage) support for the task.  If yo
ARM GAS  C:\Users\Aluno\AppData\Local\Temp\ccHJiRYw.s 			page 9


 224:..\..\..\..\..\..\uCOS-III\Source/os_task.c **** *                                                             option, TLS will be supported by defa
 225:..\..\..\..\..\..\uCOS-III\Source/os_task.c **** *
 226:..\..\..\..\..\..\uCOS-III\Source/os_task.c **** *              p_err          is a pointer to an error code that will be set during this call.  The
 227:..\..\..\..\..\..\uCOS-III\Source/os_task.c **** *                             to by 'p_err' can be:
 228:..\..\..\..\..\..\uCOS-III\Source/os_task.c **** *
 229:..\..\..\..\..\..\uCOS-III\Source/os_task.c **** *                                 OS_ERR_NONE                    if the function was successful.
 230:..\..\..\..\..\..\uCOS-III\Source/os_task.c **** *                                 OS_ERR_ILLEGAL_CREATE_RUN_TIME if you are trying to create the ta
 231:..\..\..\..\..\..\uCOS-III\Source/os_task.c **** *                                                                   OSSafetyCriticalStart().
 232:..\..\..\..\..\..\uCOS-III\Source/os_task.c **** *                                 OS_ERR_NAME                    if 'p_name' is a NULL pointer
 233:..\..\..\..\..\..\uCOS-III\Source/os_task.c **** *                                 OS_ERR_PRIO_INVALID            if the priority you specify is hig
 234:..\..\..\..\..\..\uCOS-III\Source/os_task.c **** *                                                                   allowed (i.e. >= OS_CFG_PRIO_MA
 235:..\..\..\..\..\..\uCOS-III\Source/os_task.c **** *                                                                if OS_CFG_ISR_POST_DEFERRED_EN is 
 236:..\..\..\..\..\..\uCOS-III\Source/os_task.c **** *                                                                   to use priority 0 which is rese
 237:..\..\..\..\..\..\uCOS-III\Source/os_task.c **** *                                 OS_ERR_STK_INVALID             if you specified a NULL pointer fo
 238:..\..\..\..\..\..\uCOS-III\Source/os_task.c **** *                                 OS_ERR_STK_SIZE_INVALID        if you specified zero for the 'stk
 239:..\..\..\..\..\..\uCOS-III\Source/os_task.c **** *                                 OS_ERR_STK_LIMIT_INVALID       if you specified a 'stk_limit' gre
 240:..\..\..\..\..\..\uCOS-III\Source/os_task.c **** *                                                                   to 'stk_size'
 241:..\..\..\..\..\..\uCOS-III\Source/os_task.c **** *                                 OS_ERR_TASK_CREATE_ISR         if you tried to create a task from
 242:..\..\..\..\..\..\uCOS-III\Source/os_task.c **** *                                 OS_ERR_TASK_INVALID            if you specified a NULL pointer fo
 243:..\..\..\..\..\..\uCOS-III\Source/os_task.c **** *                                 OS_ERR_TCB_INVALID             if you specified a NULL pointer fo
 244:..\..\..\..\..\..\uCOS-III\Source/os_task.c **** *
 245:..\..\..\..\..\..\uCOS-III\Source/os_task.c **** * Returns    : A pointer to the TCB of the task created.  This pointer must be used as an ID (i.e h
 246:..\..\..\..\..\..\uCOS-III\Source/os_task.c **** ***************************************************************************************************
 247:..\..\..\..\..\..\uCOS-III\Source/os_task.c **** */
 248:..\..\..\..\..\..\uCOS-III\Source/os_task.c **** /*$PAGE*/
 249:..\..\..\..\..\..\uCOS-III\Source/os_task.c **** void  OSTaskCreate (OS_TCB        *p_tcb,
 250:..\..\..\..\..\..\uCOS-III\Source/os_task.c ****                     CPU_CHAR      *p_name,
 251:..\..\..\..\..\..\uCOS-III\Source/os_task.c ****                     OS_TASK_PTR    p_task,
 252:..\..\..\..\..\..\uCOS-III\Source/os_task.c ****                     void          *p_arg,
 253:..\..\..\..\..\..\uCOS-III\Source/os_task.c ****                     OS_PRIO        prio,
 254:..\..\..\..\..\..\uCOS-III\Source/os_task.c ****                     CPU_STK       *p_stk_base,
 255:..\..\..\..\..\..\uCOS-III\Source/os_task.c ****                     CPU_STK_SIZE   stk_limit,
 256:..\..\..\..\..\..\uCOS-III\Source/os_task.c ****                     CPU_STK_SIZE   stk_size,
 257:..\..\..\..\..\..\uCOS-III\Source/os_task.c ****                     OS_MSG_QTY     q_size,
 258:..\..\..\..\..\..\uCOS-III\Source/os_task.c ****                     OS_TICK        time_quanta,
 259:..\..\..\..\..\..\uCOS-III\Source/os_task.c ****                     void          *p_ext,
 260:..\..\..\..\..\..\uCOS-III\Source/os_task.c ****                     OS_OPT         opt,
 261:..\..\..\..\..\..\uCOS-III\Source/os_task.c ****                     OS_ERR        *p_err)
 262:..\..\..\..\..\..\uCOS-III\Source/os_task.c **** {
 233              		.loc 1 262 0
 234              		.cfi_startproc
 235              		@ args = 36, pretend = 0, frame = 40
 236              		@ frame_needed = 1, uses_anonymous_args = 0
 237 0000 80B5     		push	{r7, lr}
 238              		.cfi_def_cfa_offset 8
 239              		.cfi_offset 7, -8
 240              		.cfi_offset 14, -4
 241 0002 8CB0     		sub	sp, sp, #48
 242              		.cfi_def_cfa_offset 56
 243 0004 02AF     		add	r7, sp, #8
 244              		.cfi_def_cfa 7, 48
 245 0006 F860     		str	r0, [r7, #12]
 246 0008 B960     		str	r1, [r7, #8]
 247 000a 7A60     		str	r2, [r7, #4]
 248 000c 3B60     		str	r3, [r7]
 263:..\..\..\..\..\..\uCOS-III\Source/os_task.c ****     CPU_STK_SIZE   i;
 264:..\..\..\..\..\..\uCOS-III\Source/os_task.c **** #if OS_CFG_TASK_REG_TBL_SIZE > 0u
ARM GAS  C:\Users\Aluno\AppData\Local\Temp\ccHJiRYw.s 			page 10


 265:..\..\..\..\..\..\uCOS-III\Source/os_task.c ****     OS_REG_ID      reg_nbr;
 266:..\..\..\..\..\..\uCOS-III\Source/os_task.c **** #endif
 267:..\..\..\..\..\..\uCOS-III\Source/os_task.c **** #if defined(OS_CFG_TLS_TBL_SIZE) && (OS_CFG_TLS_TBL_SIZE > 0u)
 268:..\..\..\..\..\..\uCOS-III\Source/os_task.c ****     OS_TLS_ID      id;
 269:..\..\..\..\..\..\uCOS-III\Source/os_task.c **** #endif
 270:..\..\..\..\..\..\uCOS-III\Source/os_task.c **** 
 271:..\..\..\..\..\..\uCOS-III\Source/os_task.c ****     CPU_STK       *p_sp;
 272:..\..\..\..\..\..\uCOS-III\Source/os_task.c ****     CPU_STK       *p_stk_limit;
 273:..\..\..\..\..\..\uCOS-III\Source/os_task.c ****     CPU_SR_ALLOC();
 249              		.loc 1 273 0
 250 000e 0023     		movs	r3, #0
 251 0010 BB61     		str	r3, [r7, #24]
 274:..\..\..\..\..\..\uCOS-III\Source/os_task.c **** 
 275:..\..\..\..\..\..\uCOS-III\Source/os_task.c **** 
 276:..\..\..\..\..\..\uCOS-III\Source/os_task.c **** 
 277:..\..\..\..\..\..\uCOS-III\Source/os_task.c **** #ifdef OS_SAFETY_CRITICAL
 278:..\..\..\..\..\..\uCOS-III\Source/os_task.c ****     if (p_err == (OS_ERR *)0) {
 279:..\..\..\..\..\..\uCOS-III\Source/os_task.c ****         OS_SAFETY_CRITICAL_EXCEPTION();
 280:..\..\..\..\..\..\uCOS-III\Source/os_task.c ****         return;
 281:..\..\..\..\..\..\uCOS-III\Source/os_task.c ****     }
 282:..\..\..\..\..\..\uCOS-III\Source/os_task.c **** #endif
 283:..\..\..\..\..\..\uCOS-III\Source/os_task.c **** 
 284:..\..\..\..\..\..\uCOS-III\Source/os_task.c **** #ifdef OS_SAFETY_CRITICAL_IEC61508
 285:..\..\..\..\..\..\uCOS-III\Source/os_task.c ****     if (OSSafetyCriticalStartFlag == DEF_TRUE) {
 286:..\..\..\..\..\..\uCOS-III\Source/os_task.c ****        *p_err = OS_ERR_ILLEGAL_CREATE_RUN_TIME;
 287:..\..\..\..\..\..\uCOS-III\Source/os_task.c ****         return;
 288:..\..\..\..\..\..\uCOS-III\Source/os_task.c ****     }
 289:..\..\..\..\..\..\uCOS-III\Source/os_task.c **** #endif
 290:..\..\..\..\..\..\uCOS-III\Source/os_task.c **** 
 291:..\..\..\..\..\..\uCOS-III\Source/os_task.c **** #if OS_CFG_CALLED_FROM_ISR_CHK_EN > 0u
 292:..\..\..\..\..\..\uCOS-III\Source/os_task.c ****     if (OSIntNestingCtr > (OS_NESTING_CTR)0) {              /* ---------- CANNOT CREATE A TASK FROM
 252              		.loc 1 292 0
 253 0012 794B     		ldr	r3, .L41
 254 0014 1B78     		ldrb	r3, [r3]	@ zero_extendqisi2
 255 0016 002B     		cmp	r3, #0
 256 0018 04D0     		beq	.L24
 293:..\..\..\..\..\..\uCOS-III\Source/os_task.c ****        *p_err = OS_ERR_TASK_CREATE_ISR;
 257              		.loc 1 293 0
 258 001a 3B6D     		ldr	r3, [r7, #80]
 259 001c 47F24A12 		movw	r2, #29002
 260 0020 1A80     		strh	r2, [r3]	@ movhi
 294:..\..\..\..\..\..\uCOS-III\Source/os_task.c ****         return;
 261              		.loc 1 294 0
 262 0022 E6E0     		b	.L23
 263              	.L24:
 295:..\..\..\..\..\..\uCOS-III\Source/os_task.c ****     }
 296:..\..\..\..\..\..\uCOS-III\Source/os_task.c **** #endif
 297:..\..\..\..\..\..\uCOS-III\Source/os_task.c **** 
 298:..\..\..\..\..\..\uCOS-III\Source/os_task.c **** #if OS_CFG_ARG_CHK_EN > 0u                                  /* ---------------- VALIDATE ARGUMENTS 
 299:..\..\..\..\..\..\uCOS-III\Source/os_task.c ****     if (p_tcb == (OS_TCB *)0) {                             /* User must supply a valid OS_TCB     
 264              		.loc 1 299 0
 265 0024 FB68     		ldr	r3, [r7, #12]
 266 0026 002B     		cmp	r3, #0
 267 0028 04D1     		bne	.L26
 300:..\..\..\..\..\..\uCOS-III\Source/os_task.c ****        *p_err = OS_ERR_TCB_INVALID;
 268              		.loc 1 300 0
 269 002a 3B6D     		ldr	r3, [r7, #80]
ARM GAS  C:\Users\Aluno\AppData\Local\Temp\ccHJiRYw.s 			page 11


 270 002c 47F2AD12 		movw	r2, #29101
 271 0030 1A80     		strh	r2, [r3]	@ movhi
 301:..\..\..\..\..\..\uCOS-III\Source/os_task.c ****         return;
 272              		.loc 1 301 0
 273 0032 DEE0     		b	.L23
 274              	.L26:
 302:..\..\..\..\..\..\uCOS-III\Source/os_task.c ****     }
 303:..\..\..\..\..\..\uCOS-III\Source/os_task.c ****     if (p_task == (OS_TASK_PTR)0) {                         /* User must supply a valid task       
 275              		.loc 1 303 0
 276 0034 7B68     		ldr	r3, [r7, #4]
 277 0036 002B     		cmp	r3, #0
 278 0038 04D1     		bne	.L27
 304:..\..\..\..\..\..\uCOS-III\Source/os_task.c ****        *p_err = OS_ERR_TASK_INVALID;
 279              		.loc 1 304 0
 280 003a 3B6D     		ldr	r3, [r7, #80]
 281 003c 47F24F12 		movw	r2, #29007
 282 0040 1A80     		strh	r2, [r3]	@ movhi
 305:..\..\..\..\..\..\uCOS-III\Source/os_task.c ****         return;
 283              		.loc 1 305 0
 284 0042 D6E0     		b	.L23
 285              	.L27:
 306:..\..\..\..\..\..\uCOS-III\Source/os_task.c ****     }
 307:..\..\..\..\..\..\uCOS-III\Source/os_task.c ****     if (p_stk_base == (CPU_STK *)0) {                       /* User must supply a valid stack base 
 286              		.loc 1 307 0
 287 0044 7B6B     		ldr	r3, [r7, #52]
 288 0046 002B     		cmp	r3, #0
 289 0048 04D1     		bne	.L28
 308:..\..\..\..\..\..\uCOS-III\Source/os_task.c ****        *p_err = OS_ERR_STK_INVALID;
 290              		.loc 1 308 0
 291 004a 3B6D     		ldr	r3, [r7, #80]
 292 004c 46F62F62 		movw	r2, #28207
 293 0050 1A80     		strh	r2, [r3]	@ movhi
 309:..\..\..\..\..\..\uCOS-III\Source/os_task.c ****         return;
 294              		.loc 1 309 0
 295 0052 CEE0     		b	.L23
 296              	.L28:
 310:..\..\..\..\..\..\uCOS-III\Source/os_task.c ****     }
 311:..\..\..\..\..\..\uCOS-III\Source/os_task.c ****     if (stk_size < OSCfg_StkSizeMin) {                      /* User must supply a valid minimum sta
 297              		.loc 1 311 0
 298 0054 694B     		ldr	r3, .L41+4
 299 0056 1B68     		ldr	r3, [r3]
 300 0058 FA6B     		ldr	r2, [r7, #60]
 301 005a 9A42     		cmp	r2, r3
 302 005c 04D2     		bcs	.L29
 312:..\..\..\..\..\..\uCOS-III\Source/os_task.c ****        *p_err = OS_ERR_STK_SIZE_INVALID;
 303              		.loc 1 312 0
 304 005e 3B6D     		ldr	r3, [r7, #80]
 305 0060 46F63062 		movw	r2, #28208
 306 0064 1A80     		strh	r2, [r3]	@ movhi
 313:..\..\..\..\..\..\uCOS-III\Source/os_task.c ****         return;
 307              		.loc 1 313 0
 308 0066 C4E0     		b	.L23
 309              	.L29:
 314:..\..\..\..\..\..\uCOS-III\Source/os_task.c ****     }
 315:..\..\..\..\..\..\uCOS-III\Source/os_task.c ****     if (stk_limit >= stk_size) {                            /* User must supply a valid stack limit
 310              		.loc 1 315 0
 311 0068 BA6B     		ldr	r2, [r7, #56]
ARM GAS  C:\Users\Aluno\AppData\Local\Temp\ccHJiRYw.s 			page 12


 312 006a FB6B     		ldr	r3, [r7, #60]
 313 006c 9A42     		cmp	r2, r3
 314 006e 04D3     		bcc	.L30
 316:..\..\..\..\..\..\uCOS-III\Source/os_task.c ****        *p_err = OS_ERR_STK_LIMIT_INVALID;
 315              		.loc 1 316 0
 316 0070 3B6D     		ldr	r3, [r7, #80]
 317 0072 46F63162 		movw	r2, #28209
 318 0076 1A80     		strh	r2, [r3]	@ movhi
 317:..\..\..\..\..\..\uCOS-III\Source/os_task.c ****         return;
 319              		.loc 1 317 0
 320 0078 BBE0     		b	.L23
 321              	.L30:
 318:..\..\..\..\..\..\uCOS-III\Source/os_task.c ****     }
 319:..\..\..\..\..\..\uCOS-III\Source/os_task.c ****     if (prio >= OS_CFG_PRIO_MAX) {                          /* Priority must be within 0 and OS_CFG
 322              		.loc 1 319 0
 323 007a 97F83030 		ldrb	r3, [r7, #48]	@ zero_extendqisi2
 324 007e 072B     		cmp	r3, #7
 325 0080 04D9     		bls	.L31
 320:..\..\..\..\..\..\uCOS-III\Source/os_task.c ****        *p_err = OS_ERR_PRIO_INVALID;
 326              		.loc 1 320 0
 327 0082 3B6D     		ldr	r3, [r7, #80]
 328 0084 46F27322 		movw	r2, #25203
 329 0088 1A80     		strh	r2, [r3]	@ movhi
 321:..\..\..\..\..\..\uCOS-III\Source/os_task.c ****         return;
 330              		.loc 1 321 0
 331 008a B2E0     		b	.L23
 332              	.L31:
 322:..\..\..\..\..\..\uCOS-III\Source/os_task.c ****     }
 323:..\..\..\..\..\..\uCOS-III\Source/os_task.c **** #endif
 324:..\..\..\..\..\..\uCOS-III\Source/os_task.c **** 
 325:..\..\..\..\..\..\uCOS-III\Source/os_task.c **** #if OS_CFG_ISR_POST_DEFERRED_EN > 0u
 326:..\..\..\..\..\..\uCOS-III\Source/os_task.c ****     if (prio == (OS_PRIO)0) {
 327:..\..\..\..\..\..\uCOS-III\Source/os_task.c ****         if (p_tcb != &OSIntQTaskTCB) {
 328:..\..\..\..\..\..\uCOS-III\Source/os_task.c ****            *p_err = OS_ERR_PRIO_INVALID;                    /* Not allowed to use priority 0       
 329:..\..\..\..\..\..\uCOS-III\Source/os_task.c ****             return;
 330:..\..\..\..\..\..\uCOS-III\Source/os_task.c ****         }
 331:..\..\..\..\..\..\uCOS-III\Source/os_task.c ****     }
 332:..\..\..\..\..\..\uCOS-III\Source/os_task.c **** #endif
 333:..\..\..\..\..\..\uCOS-III\Source/os_task.c **** 
 334:..\..\..\..\..\..\uCOS-III\Source/os_task.c ****     if (prio == (OS_CFG_PRIO_MAX - 1u)) {
 333              		.loc 1 334 0
 334 008c 97F83030 		ldrb	r3, [r7, #48]	@ zero_extendqisi2
 335 0090 072B     		cmp	r3, #7
 336 0092 08D1     		bne	.L32
 335:..\..\..\..\..\..\uCOS-III\Source/os_task.c ****         if (p_tcb != &OSIdleTaskTCB) {
 337              		.loc 1 335 0
 338 0094 FB68     		ldr	r3, [r7, #12]
 339 0096 5A4A     		ldr	r2, .L41+8
 340 0098 9342     		cmp	r3, r2
 341 009a 04D0     		beq	.L32
 336:..\..\..\..\..\..\uCOS-III\Source/os_task.c ****            *p_err = OS_ERR_PRIO_INVALID;                    /* Not allowed to use same priority as 
 342              		.loc 1 336 0
 343 009c 3B6D     		ldr	r3, [r7, #80]
 344 009e 46F27322 		movw	r2, #25203
 345 00a2 1A80     		strh	r2, [r3]	@ movhi
 337:..\..\..\..\..\..\uCOS-III\Source/os_task.c ****             return;
 346              		.loc 1 337 0
ARM GAS  C:\Users\Aluno\AppData\Local\Temp\ccHJiRYw.s 			page 13


 347 00a4 A5E0     		b	.L23
 348              	.L32:
 338:..\..\..\..\..\..\uCOS-III\Source/os_task.c ****         }
 339:..\..\..\..\..\..\uCOS-III\Source/os_task.c ****     }
 340:..\..\..\..\..\..\uCOS-III\Source/os_task.c **** 
 341:..\..\..\..\..\..\uCOS-III\Source/os_task.c ****     OS_TaskInitTCB(p_tcb);                                  /* Initialize the TCB to default values
 349              		.loc 1 341 0
 350 00a6 F868     		ldr	r0, [r7, #12]
 351 00a8 FFF7FEFF 		bl	OS_TaskInitTCB
 342:..\..\..\..\..\..\uCOS-III\Source/os_task.c **** 
 343:..\..\..\..\..\..\uCOS-III\Source/os_task.c ****    *p_err = OS_ERR_NONE;
 352              		.loc 1 343 0
 353 00ac 3B6D     		ldr	r3, [r7, #80]
 354 00ae 0022     		movs	r2, #0
 355 00b0 1A80     		strh	r2, [r3]	@ movhi
 344:..\..\..\..\..\..\uCOS-III\Source/os_task.c ****                                                             /* --------------- CLEAR THE TASK'S STA
 345:..\..\..\..\..\..\uCOS-III\Source/os_task.c ****     if ((opt & OS_OPT_TASK_STK_CHK) != (OS_OPT)0) {         /* See if stack checking has been enabl
 356              		.loc 1 345 0
 357 00b2 B7F84C30 		ldrh	r3, [r7, #76]
 358 00b6 03F00103 		and	r3, r3, #1
 359 00ba 002B     		cmp	r3, #0
 360 00bc 17D0     		beq	.L33
 346:..\..\..\..\..\..\uCOS-III\Source/os_task.c ****         if ((opt & OS_OPT_TASK_STK_CLR) != (OS_OPT)0) {     /* See if stack needs to be cleared    
 361              		.loc 1 346 0
 362 00be B7F84C30 		ldrh	r3, [r7, #76]
 363 00c2 03F00203 		and	r3, r3, #2
 364 00c6 002B     		cmp	r3, #0
 365 00c8 11D0     		beq	.L33
 347:..\..\..\..\..\..\uCOS-III\Source/os_task.c ****             p_sp = p_stk_base;
 366              		.loc 1 347 0
 367 00ca 7B6B     		ldr	r3, [r7, #52]
 368 00cc FB61     		str	r3, [r7, #28]
 348:..\..\..\..\..\..\uCOS-III\Source/os_task.c ****             for (i = 0u; i < stk_size; i++) {               /* Stack grows from HIGH to LOW memory 
 369              		.loc 1 348 0
 370 00ce 0023     		movs	r3, #0
 371 00d0 7B62     		str	r3, [r7, #36]
 372 00d2 08E0     		b	.L34
 373              	.L35:
 349:..\..\..\..\..\..\uCOS-III\Source/os_task.c ****                *p_sp = (CPU_STK)0;                          /* Clear from bottom of stack and up!  
 374              		.loc 1 349 0 discriminator 3
 375 00d4 FB69     		ldr	r3, [r7, #28]
 376 00d6 0022     		movs	r2, #0
 377 00d8 1A60     		str	r2, [r3]
 350:..\..\..\..\..\..\uCOS-III\Source/os_task.c ****                 p_sp++;
 378              		.loc 1 350 0 discriminator 3
 379 00da FB69     		ldr	r3, [r7, #28]
 380 00dc 0433     		adds	r3, r3, #4
 381 00de FB61     		str	r3, [r7, #28]
 348:..\..\..\..\..\..\uCOS-III\Source/os_task.c ****             for (i = 0u; i < stk_size; i++) {               /* Stack grows from HIGH to LOW memory 
 382              		.loc 1 348 0 discriminator 3
 383 00e0 7B6A     		ldr	r3, [r7, #36]
 384 00e2 0133     		adds	r3, r3, #1
 385 00e4 7B62     		str	r3, [r7, #36]
 386              	.L34:
 348:..\..\..\..\..\..\uCOS-III\Source/os_task.c ****             for (i = 0u; i < stk_size; i++) {               /* Stack grows from HIGH to LOW memory 
 387              		.loc 1 348 0 is_stmt 0 discriminator 1
 388 00e6 7A6A     		ldr	r2, [r7, #36]
ARM GAS  C:\Users\Aluno\AppData\Local\Temp\ccHJiRYw.s 			page 14


 389 00e8 FB6B     		ldr	r3, [r7, #60]
 390 00ea 9A42     		cmp	r2, r3
 391 00ec F2D3     		bcc	.L35
 392              	.L33:
 351:..\..\..\..\..\..\uCOS-III\Source/os_task.c ****             }
 352:..\..\..\..\..\..\uCOS-III\Source/os_task.c ****         }
 353:..\..\..\..\..\..\uCOS-III\Source/os_task.c ****     }
 354:..\..\..\..\..\..\uCOS-III\Source/os_task.c ****                                                             /* ------- INITIALIZE THE STACK FRAME O
 355:..\..\..\..\..\..\uCOS-III\Source/os_task.c **** #if (CPU_CFG_STK_GROWTH == CPU_STK_GROWTH_HI_TO_LO)
 356:..\..\..\..\..\..\uCOS-III\Source/os_task.c ****     p_stk_limit = p_stk_base + stk_limit;
 393              		.loc 1 356 0 is_stmt 1
 394 00ee BB6B     		ldr	r3, [r7, #56]
 395 00f0 9B00     		lsls	r3, r3, #2
 396 00f2 7A6B     		ldr	r2, [r7, #52]
 397 00f4 1344     		add	r3, r3, r2
 398 00f6 7B61     		str	r3, [r7, #20]
 357:..\..\..\..\..\..\uCOS-III\Source/os_task.c **** #else
 358:..\..\..\..\..\..\uCOS-III\Source/os_task.c ****     p_stk_limit = p_stk_base + (stk_size - 1u) - stk_limit;
 359:..\..\..\..\..\..\uCOS-III\Source/os_task.c **** #endif
 360:..\..\..\..\..\..\uCOS-III\Source/os_task.c **** 
 361:..\..\..\..\..\..\uCOS-III\Source/os_task.c ****     p_sp = OSTaskStkInit(p_task,
 399              		.loc 1 361 0
 400 00f8 B7F84C30 		ldrh	r3, [r7, #76]
 401 00fc 0193     		str	r3, [sp, #4]
 402 00fe FB6B     		ldr	r3, [r7, #60]
 403 0100 0093     		str	r3, [sp]
 404 0102 7B69     		ldr	r3, [r7, #20]
 405 0104 7A6B     		ldr	r2, [r7, #52]
 406 0106 3968     		ldr	r1, [r7]
 407 0108 7868     		ldr	r0, [r7, #4]
 408 010a FFF7FEFF 		bl	OSTaskStkInit
 409 010e F861     		str	r0, [r7, #28]
 362:..\..\..\..\..\..\uCOS-III\Source/os_task.c ****                          p_arg,
 363:..\..\..\..\..\..\uCOS-III\Source/os_task.c ****                          p_stk_base,
 364:..\..\..\..\..\..\uCOS-III\Source/os_task.c ****                          p_stk_limit,
 365:..\..\..\..\..\..\uCOS-III\Source/os_task.c ****                          stk_size,
 366:..\..\..\..\..\..\uCOS-III\Source/os_task.c ****                          opt);
 367:..\..\..\..\..\..\uCOS-III\Source/os_task.c **** 
 368:..\..\..\..\..\..\uCOS-III\Source/os_task.c ****                                                             /* -------------- INITIALIZE THE TCB FI
 369:..\..\..\..\..\..\uCOS-III\Source/os_task.c ****     p_tcb->TaskEntryAddr = p_task;                          /* Save task entry point address       
 410              		.loc 1 369 0
 411 0110 FB68     		ldr	r3, [r7, #12]
 412 0112 7A68     		ldr	r2, [r7, #4]
 413 0114 9A62     		str	r2, [r3, #40]
 370:..\..\..\..\..\..\uCOS-III\Source/os_task.c ****     p_tcb->TaskEntryArg  = p_arg;                           /* Save task entry argument            
 414              		.loc 1 370 0
 415 0116 FB68     		ldr	r3, [r7, #12]
 416 0118 3A68     		ldr	r2, [r7]
 417 011a DA62     		str	r2, [r3, #44]
 371:..\..\..\..\..\..\uCOS-III\Source/os_task.c **** 
 372:..\..\..\..\..\..\uCOS-III\Source/os_task.c ****     p_tcb->NamePtr       = p_name;                          /* Save task name                      
 418              		.loc 1 372 0
 419 011c FB68     		ldr	r3, [r7, #12]
 420 011e BA68     		ldr	r2, [r7, #8]
 421 0120 1A62     		str	r2, [r3, #32]
 373:..\..\..\..\..\..\uCOS-III\Source/os_task.c **** 
 374:..\..\..\..\..\..\uCOS-III\Source/os_task.c ****     p_tcb->Prio          = prio;                            /* Save the task's priority            
ARM GAS  C:\Users\Aluno\AppData\Local\Temp\ccHJiRYw.s 			page 15


 422              		.loc 1 374 0
 423 0122 FB68     		ldr	r3, [r7, #12]
 424 0124 97F83020 		ldrb	r2, [r7, #48]
 425 0128 83F83720 		strb	r2, [r3, #55]
 375:..\..\..\..\..\..\uCOS-III\Source/os_task.c **** 
 376:..\..\..\..\..\..\uCOS-III\Source/os_task.c ****     p_tcb->StkPtr        = p_sp;                            /* Save the new top-of-stack pointer   
 426              		.loc 1 376 0
 427 012c FB68     		ldr	r3, [r7, #12]
 428 012e FA69     		ldr	r2, [r7, #28]
 429 0130 1A60     		str	r2, [r3]
 377:..\..\..\..\..\..\uCOS-III\Source/os_task.c ****     p_tcb->StkLimitPtr   = p_stk_limit;                     /* Save the stack limit pointer        
 430              		.loc 1 377 0
 431 0132 FB68     		ldr	r3, [r7, #12]
 432 0134 7A69     		ldr	r2, [r7, #20]
 433 0136 9A60     		str	r2, [r3, #8]
 378:..\..\..\..\..\..\uCOS-III\Source/os_task.c **** 
 379:..\..\..\..\..\..\uCOS-III\Source/os_task.c ****     p_tcb->TimeQuanta    = time_quanta;                     /* Save the #ticks for time slice (0 me
 434              		.loc 1 379 0
 435 0138 FB68     		ldr	r3, [r7, #12]
 436 013a 7A6C     		ldr	r2, [r7, #68]
 437 013c 5A65     		str	r2, [r3, #84]
 380:..\..\..\..\..\..\uCOS-III\Source/os_task.c **** #if OS_CFG_SCHED_ROUND_ROBIN_EN > 0u
 381:..\..\..\..\..\..\uCOS-III\Source/os_task.c ****     if (time_quanta == (OS_TICK)0) {
 438              		.loc 1 381 0
 439 013e 7B6C     		ldr	r3, [r7, #68]
 440 0140 002B     		cmp	r3, #0
 441 0142 04D1     		bne	.L36
 382:..\..\..\..\..\..\uCOS-III\Source/os_task.c ****         p_tcb->TimeQuantaCtr = OSSchedRoundRobinDfltTimeQuanta;
 442              		.loc 1 382 0
 443 0144 2F4B     		ldr	r3, .L41+12
 444 0146 1A68     		ldr	r2, [r3]
 445 0148 FB68     		ldr	r3, [r7, #12]
 446 014a 9A65     		str	r2, [r3, #88]
 447 014c 02E0     		b	.L37
 448              	.L36:
 383:..\..\..\..\..\..\uCOS-III\Source/os_task.c ****     } else {
 384:..\..\..\..\..\..\uCOS-III\Source/os_task.c ****         p_tcb->TimeQuantaCtr = time_quanta;
 449              		.loc 1 384 0
 450 014e FB68     		ldr	r3, [r7, #12]
 451 0150 7A6C     		ldr	r2, [r7, #68]
 452 0152 9A65     		str	r2, [r3, #88]
 453              	.L37:
 385:..\..\..\..\..\..\uCOS-III\Source/os_task.c ****     }
 386:..\..\..\..\..\..\uCOS-III\Source/os_task.c **** #endif
 387:..\..\..\..\..\..\uCOS-III\Source/os_task.c ****     p_tcb->ExtPtr        = p_ext;                           /* Save pointer to TCB extension       
 454              		.loc 1 387 0
 455 0154 FB68     		ldr	r3, [r7, #12]
 456 0156 BA6C     		ldr	r2, [r7, #72]
 457 0158 5A60     		str	r2, [r3, #4]
 388:..\..\..\..\..\..\uCOS-III\Source/os_task.c ****     p_tcb->StkBasePtr    = p_stk_base;                      /* Save pointer to the base address of 
 458              		.loc 1 388 0
 459 015a FB68     		ldr	r3, [r7, #12]
 460 015c 7A6B     		ldr	r2, [r7, #52]
 461 015e 5A62     		str	r2, [r3, #36]
 389:..\..\..\..\..\..\uCOS-III\Source/os_task.c ****     p_tcb->StkSize       = stk_size;                        /* Save the stack size (in number of CP
 462              		.loc 1 389 0
 463 0160 FB68     		ldr	r3, [r7, #12]
ARM GAS  C:\Users\Aluno\AppData\Local\Temp\ccHJiRYw.s 			page 16


 464 0162 FA6B     		ldr	r2, [r7, #60]
 465 0164 9A63     		str	r2, [r3, #56]
 390:..\..\..\..\..\..\uCOS-III\Source/os_task.c ****     p_tcb->Opt           = opt;                             /* Save task options                   
 466              		.loc 1 390 0
 467 0166 FB68     		ldr	r3, [r7, #12]
 468 0168 B7F84C20 		ldrh	r2, [r7, #76]	@ movhi
 469 016c 9A87     		strh	r2, [r3, #60]	@ movhi
 391:..\..\..\..\..\..\uCOS-III\Source/os_task.c **** 
 392:..\..\..\..\..\..\uCOS-III\Source/os_task.c **** #if OS_CFG_TASK_REG_TBL_SIZE > 0u
 393:..\..\..\..\..\..\uCOS-III\Source/os_task.c ****     for (reg_nbr = 0u; reg_nbr < OS_CFG_TASK_REG_TBL_SIZE; reg_nbr++) {
 470              		.loc 1 393 0
 471 016e 0023     		movs	r3, #0
 472 0170 87F82330 		strb	r3, [r7, #35]
 473 0174 0CE0     		b	.L38
 474              	.L39:
 394:..\..\..\..\..\..\uCOS-III\Source/os_task.c ****         p_tcb->RegTbl[reg_nbr] = (OS_REG)0;
 475              		.loc 1 394 0 discriminator 3
 476 0176 97F82330 		ldrb	r3, [r7, #35]	@ zero_extendqisi2
 477 017a FA68     		ldr	r2, [r7, #12]
 478 017c 1E33     		adds	r3, r3, #30
 479 017e 9B00     		lsls	r3, r3, #2
 480 0180 1344     		add	r3, r3, r2
 481 0182 0022     		movs	r2, #0
 482 0184 5A60     		str	r2, [r3, #4]
 393:..\..\..\..\..\..\uCOS-III\Source/os_task.c ****         p_tcb->RegTbl[reg_nbr] = (OS_REG)0;
 483              		.loc 1 393 0 discriminator 3
 484 0186 97F82330 		ldrb	r3, [r7, #35]	@ zero_extendqisi2
 485 018a 0133     		adds	r3, r3, #1
 486 018c 87F82330 		strb	r3, [r7, #35]
 487              	.L38:
 393:..\..\..\..\..\..\uCOS-III\Source/os_task.c ****         p_tcb->RegTbl[reg_nbr] = (OS_REG)0;
 488              		.loc 1 393 0 is_stmt 0 discriminator 1
 489 0190 97F82330 		ldrb	r3, [r7, #35]	@ zero_extendqisi2
 490 0194 002B     		cmp	r3, #0
 491 0196 EED0     		beq	.L39
 395:..\..\..\..\..\..\uCOS-III\Source/os_task.c ****     }
 396:..\..\..\..\..\..\uCOS-III\Source/os_task.c **** #endif
 397:..\..\..\..\..\..\uCOS-III\Source/os_task.c **** 
 398:..\..\..\..\..\..\uCOS-III\Source/os_task.c **** #if OS_CFG_TASK_Q_EN > 0u
 399:..\..\..\..\..\..\uCOS-III\Source/os_task.c ****     OS_MsgQInit(&p_tcb->MsgQ,                               /* Initialize the task's message queue 
 492              		.loc 1 399 0 is_stmt 1
 493 0198 FB68     		ldr	r3, [r7, #12]
 494 019a 6433     		adds	r3, r3, #100
 495 019c B7F84020 		ldrh	r2, [r7, #64]
 496 01a0 1146     		mov	r1, r2
 497 01a2 1846     		mov	r0, r3
 498 01a4 FFF7FEFF 		bl	OS_MsgQInit
 400:..\..\..\..\..\..\uCOS-III\Source/os_task.c ****                 q_size);
 401:..\..\..\..\..\..\uCOS-III\Source/os_task.c **** #else
 402:..\..\..\..\..\..\uCOS-III\Source/os_task.c ****     (void)&q_size;
 403:..\..\..\..\..\..\uCOS-III\Source/os_task.c **** #endif
 404:..\..\..\..\..\..\uCOS-III\Source/os_task.c **** 
 405:..\..\..\..\..\..\uCOS-III\Source/os_task.c ****     OSTaskCreateHook(p_tcb);                                /* Call user defined hook              
 499              		.loc 1 405 0
 500 01a8 F868     		ldr	r0, [r7, #12]
 501 01aa FFF7FEFF 		bl	OSTaskCreateHook
 406:..\..\..\..\..\..\uCOS-III\Source/os_task.c **** 
ARM GAS  C:\Users\Aluno\AppData\Local\Temp\ccHJiRYw.s 			page 17


 407:..\..\..\..\..\..\uCOS-III\Source/os_task.c **** #if defined(OS_CFG_TLS_TBL_SIZE) && (OS_CFG_TLS_TBL_SIZE > 0u)
 408:..\..\..\..\..\..\uCOS-III\Source/os_task.c ****     for (id = 0u; id < OS_CFG_TLS_TBL_SIZE; id++) {
 409:..\..\..\..\..\..\uCOS-III\Source/os_task.c ****         p_tcb->TLS_Tbl[id] = (OS_TLS)0;
 410:..\..\..\..\..\..\uCOS-III\Source/os_task.c ****     }
 411:..\..\..\..\..\..\uCOS-III\Source/os_task.c ****     OS_TLS_TaskCreate(p_tcb);                               /* Call TLS hook                       
 412:..\..\..\..\..\..\uCOS-III\Source/os_task.c **** #endif
 413:..\..\..\..\..\..\uCOS-III\Source/os_task.c ****                                                             /* --------------- ADD TASK TO READY LI
 414:..\..\..\..\..\..\uCOS-III\Source/os_task.c ****     OS_CRITICAL_ENTER();
 502              		.loc 1 414 0
 503 01ae FFF7FEFF 		bl	CPU_SR_Save
 504 01b2 B861     		str	r0, [r7, #24]
 415:..\..\..\..\..\..\uCOS-III\Source/os_task.c ****     OS_PrioInsert(p_tcb->Prio);
 505              		.loc 1 415 0
 506 01b4 FB68     		ldr	r3, [r7, #12]
 507 01b6 93F83730 		ldrb	r3, [r3, #55]	@ zero_extendqisi2
 508 01ba 1846     		mov	r0, r3
 509 01bc FFF7FEFF 		bl	OS_PrioInsert
 416:..\..\..\..\..\..\uCOS-III\Source/os_task.c ****     OS_RdyListInsertTail(p_tcb);
 510              		.loc 1 416 0
 511 01c0 F868     		ldr	r0, [r7, #12]
 512 01c2 FFF7FEFF 		bl	OS_RdyListInsertTail
 417:..\..\..\..\..\..\uCOS-III\Source/os_task.c **** 
 418:..\..\..\..\..\..\uCOS-III\Source/os_task.c **** #if OS_CFG_DBG_EN > 0u
 419:..\..\..\..\..\..\uCOS-III\Source/os_task.c ****     OS_TaskDbgListAdd(p_tcb);
 513              		.loc 1 419 0
 514 01c6 F868     		ldr	r0, [r7, #12]
 515 01c8 FFF7FEFF 		bl	OS_TaskDbgListAdd
 420:..\..\..\..\..\..\uCOS-III\Source/os_task.c **** #endif
 421:..\..\..\..\..\..\uCOS-III\Source/os_task.c **** 
 422:..\..\..\..\..\..\uCOS-III\Source/os_task.c ****     OSTaskQty++;                                            /* Increment the #tasks counter        
 516              		.loc 1 422 0
 517 01cc 0E4B     		ldr	r3, .L41+16
 518 01ce 1B88     		ldrh	r3, [r3]
 519 01d0 0133     		adds	r3, r3, #1
 520 01d2 9AB2     		uxth	r2, r3
 521 01d4 0C4B     		ldr	r3, .L41+16
 522 01d6 1A80     		strh	r2, [r3]	@ movhi
 423:..\..\..\..\..\..\uCOS-III\Source/os_task.c **** 
 424:..\..\..\..\..\..\uCOS-III\Source/os_task.c ****     if (OSRunning != OS_STATE_OS_RUNNING) {                 /* Return if multitasking has not start
 523              		.loc 1 424 0
 524 01d8 0C4B     		ldr	r3, .L41+20
 525 01da 1B78     		ldrb	r3, [r3]	@ zero_extendqisi2
 526 01dc 012B     		cmp	r3, #1
 527 01de 03D0     		beq	.L40
 425:..\..\..\..\..\..\uCOS-III\Source/os_task.c ****         OS_CRITICAL_EXIT();
 528              		.loc 1 425 0
 529 01e0 B869     		ldr	r0, [r7, #24]
 530 01e2 FFF7FEFF 		bl	CPU_SR_Restore
 426:..\..\..\..\..\..\uCOS-III\Source/os_task.c ****         return;
 531              		.loc 1 426 0
 532 01e6 04E0     		b	.L23
 533              	.L40:
 427:..\..\..\..\..\..\uCOS-III\Source/os_task.c ****     }
 428:..\..\..\..\..\..\uCOS-III\Source/os_task.c **** 
 429:..\..\..\..\..\..\uCOS-III\Source/os_task.c ****     OS_CRITICAL_EXIT_NO_SCHED();
 534              		.loc 1 429 0
 535 01e8 B869     		ldr	r0, [r7, #24]
ARM GAS  C:\Users\Aluno\AppData\Local\Temp\ccHJiRYw.s 			page 18


 536 01ea FFF7FEFF 		bl	CPU_SR_Restore
 430:..\..\..\..\..\..\uCOS-III\Source/os_task.c **** 
 431:..\..\..\..\..\..\uCOS-III\Source/os_task.c ****     OSSched();
 537              		.loc 1 431 0
 538 01ee FFF7FEFF 		bl	OSSched
 539              	.L23:
 432:..\..\..\..\..\..\uCOS-III\Source/os_task.c **** }
 540              		.loc 1 432 0
 541 01f2 2837     		adds	r7, r7, #40
 542              		.cfi_def_cfa_offset 8
 543 01f4 BD46     		mov	sp, r7
 544              		.cfi_def_cfa_register 13
 545              		@ sp needed
 546 01f6 80BD     		pop	{r7, pc}
 547              	.L42:
 548              		.align	2
 549              	.L41:
 550 01f8 00000000 		.word	OSIntNestingCtr
 551 01fc 00000000 		.word	OSCfg_StkSizeMin
 552 0200 00000000 		.word	OSIdleTaskTCB
 553 0204 00000000 		.word	OSSchedRoundRobinDfltTimeQuanta
 554 0208 00000000 		.word	OSTaskQty
 555 020c 00000000 		.word	OSRunning
 556              		.cfi_endproc
 557              	.LFE1:
 558              		.size	OSTaskCreate, .-OSTaskCreate
 559              		.section	.text.OSTaskDel,"ax",%progbits
 560              		.align	2
 561              		.global	OSTaskDel
 562              		.thumb
 563              		.thumb_func
 564              		.type	OSTaskDel, %function
 565              	OSTaskDel:
 566              	.LFB2:
 433:..\..\..\..\..\..\uCOS-III\Source/os_task.c **** 
 434:..\..\..\..\..\..\uCOS-III\Source/os_task.c **** /*$PAGE*/
 435:..\..\..\..\..\..\uCOS-III\Source/os_task.c **** /*
 436:..\..\..\..\..\..\uCOS-III\Source/os_task.c **** ***************************************************************************************************
 437:..\..\..\..\..\..\uCOS-III\Source/os_task.c **** *                                                     DELETE A TASK
 438:..\..\..\..\..\..\uCOS-III\Source/os_task.c **** *
 439:..\..\..\..\..\..\uCOS-III\Source/os_task.c **** * Description: This function allows you to delete a task.  The calling task can delete itself by sp
 440:..\..\..\..\..\..\uCOS-III\Source/os_task.c **** *              pointer for 'p_tcb'.  The deleted task is returned to the dormant state and can be r
 441:..\..\..\..\..\..\uCOS-III\Source/os_task.c **** *              creating the deleted task again.
 442:..\..\..\..\..\..\uCOS-III\Source/os_task.c **** *
 443:..\..\..\..\..\..\uCOS-III\Source/os_task.c **** * Arguments  : p_tcb      is the TCB of the tack to delete
 444:..\..\..\..\..\..\uCOS-III\Source/os_task.c **** *
 445:..\..\..\..\..\..\uCOS-III\Source/os_task.c **** *              p_err      is a pointer to an error code returned by this function:
 446:..\..\..\..\..\..\uCOS-III\Source/os_task.c **** *
 447:..\..\..\..\..\..\uCOS-III\Source/os_task.c **** *                             OS_ERR_NONE                  if the call is successful
 448:..\..\..\..\..\..\uCOS-III\Source/os_task.c **** *                             OS_ERR_STATE_INVALID         if the state of the task is invalid
 449:..\..\..\..\..\..\uCOS-III\Source/os_task.c **** *                             OS_ERR_TASK_DEL_IDLE         if you attempted to delete uC/OS-III's i
 450:..\..\..\..\..\..\uCOS-III\Source/os_task.c **** *                             OS_ERR_TASK_DEL_INVALID      if you attempted to delete uC/OS-III's I
 451:..\..\..\..\..\..\uCOS-III\Source/os_task.c **** *                             OS_ERR_TASK_DEL_ISR          if you tried to delete a task from an IS
 452:..\..\..\..\..\..\uCOS-III\Source/os_task.c **** *
 453:..\..\..\..\..\..\uCOS-III\Source/os_task.c **** * Note(s)    : 1) 'p_err' gets set to OS_ERR_NONE before OSSched() to allow the returned error code
 454:..\..\..\..\..\..\uCOS-III\Source/os_task.c **** *                 for a task that is deleting itself. In this case, 'p_err' MUST point to a global 
 455:..\..\..\..\..\..\uCOS-III\Source/os_task.c **** *                 accessed by another task.
ARM GAS  C:\Users\Aluno\AppData\Local\Temp\ccHJiRYw.s 			page 19


 456:..\..\..\..\..\..\uCOS-III\Source/os_task.c **** ***************************************************************************************************
 457:..\..\..\..\..\..\uCOS-III\Source/os_task.c **** */
 458:..\..\..\..\..\..\uCOS-III\Source/os_task.c **** 
 459:..\..\..\..\..\..\uCOS-III\Source/os_task.c **** #if OS_CFG_TASK_DEL_EN > 0u
 460:..\..\..\..\..\..\uCOS-III\Source/os_task.c **** void  OSTaskDel (OS_TCB  *p_tcb,
 461:..\..\..\..\..\..\uCOS-III\Source/os_task.c ****                  OS_ERR  *p_err)
 462:..\..\..\..\..\..\uCOS-III\Source/os_task.c **** {
 567              		.loc 1 462 0
 568              		.cfi_startproc
 569              		@ args = 0, pretend = 0, frame = 16
 570              		@ frame_needed = 1, uses_anonymous_args = 0
 571 0000 80B5     		push	{r7, lr}
 572              		.cfi_def_cfa_offset 8
 573              		.cfi_offset 7, -8
 574              		.cfi_offset 14, -4
 575 0002 84B0     		sub	sp, sp, #16
 576              		.cfi_def_cfa_offset 24
 577 0004 00AF     		add	r7, sp, #0
 578              		.cfi_def_cfa_register 7
 579 0006 7860     		str	r0, [r7, #4]
 580 0008 3960     		str	r1, [r7]
 463:..\..\..\..\..\..\uCOS-III\Source/os_task.c ****     CPU_SR_ALLOC();
 581              		.loc 1 463 0
 582 000a 0023     		movs	r3, #0
 583 000c FB60     		str	r3, [r7, #12]
 464:..\..\..\..\..\..\uCOS-III\Source/os_task.c **** 
 465:..\..\..\..\..\..\uCOS-III\Source/os_task.c **** 
 466:..\..\..\..\..\..\uCOS-III\Source/os_task.c **** 
 467:..\..\..\..\..\..\uCOS-III\Source/os_task.c **** #ifdef OS_SAFETY_CRITICAL
 468:..\..\..\..\..\..\uCOS-III\Source/os_task.c ****     if (p_err == (OS_ERR *)0) {
 469:..\..\..\..\..\..\uCOS-III\Source/os_task.c ****         OS_SAFETY_CRITICAL_EXCEPTION();
 470:..\..\..\..\..\..\uCOS-III\Source/os_task.c ****         return;
 471:..\..\..\..\..\..\uCOS-III\Source/os_task.c ****     }
 472:..\..\..\..\..\..\uCOS-III\Source/os_task.c **** #endif
 473:..\..\..\..\..\..\uCOS-III\Source/os_task.c **** 
 474:..\..\..\..\..\..\uCOS-III\Source/os_task.c **** #if OS_CFG_CALLED_FROM_ISR_CHK_EN > 0u
 475:..\..\..\..\..\..\uCOS-III\Source/os_task.c ****     if (OSIntNestingCtr > (OS_NESTING_CTR)0) {              /* See if trying to delete from ISR    
 584              		.loc 1 475 0
 585 000e 474B     		ldr	r3, .L62
 586 0010 1B78     		ldrb	r3, [r3]	@ zero_extendqisi2
 587 0012 002B     		cmp	r3, #0
 588 0014 04D0     		beq	.L44
 476:..\..\..\..\..\..\uCOS-III\Source/os_task.c ****        *p_err = OS_ERR_TASK_DEL_ISR;
 589              		.loc 1 476 0
 590 0016 3B68     		ldr	r3, [r7]
 591 0018 47F24E12 		movw	r2, #29006
 592 001c 1A80     		strh	r2, [r3]	@ movhi
 477:..\..\..\..\..\..\uCOS-III\Source/os_task.c ****         return;
 593              		.loc 1 477 0
 594 001e 82E0     		b	.L43
 595              	.L44:
 478:..\..\..\..\..\..\uCOS-III\Source/os_task.c ****     }
 479:..\..\..\..\..\..\uCOS-III\Source/os_task.c **** #endif
 480:..\..\..\..\..\..\uCOS-III\Source/os_task.c **** 
 481:..\..\..\..\..\..\uCOS-III\Source/os_task.c ****     if (p_tcb == &OSIdleTaskTCB) {                          /* Not allowed to delete the idle task 
 596              		.loc 1 481 0
 597 0020 7B68     		ldr	r3, [r7, #4]
ARM GAS  C:\Users\Aluno\AppData\Local\Temp\ccHJiRYw.s 			page 20


 598 0022 434A     		ldr	r2, .L62+4
 599 0024 9342     		cmp	r3, r2
 600 0026 04D1     		bne	.L46
 482:..\..\..\..\..\..\uCOS-III\Source/os_task.c ****        *p_err = OS_ERR_TASK_DEL_IDLE;
 601              		.loc 1 482 0
 602 0028 3B68     		ldr	r3, [r7]
 603 002a 47F24C12 		movw	r2, #29004
 604 002e 1A80     		strh	r2, [r3]	@ movhi
 483:..\..\..\..\..\..\uCOS-III\Source/os_task.c ****         return;
 605              		.loc 1 483 0
 606 0030 79E0     		b	.L43
 607              	.L46:
 484:..\..\..\..\..\..\uCOS-III\Source/os_task.c ****     }
 485:..\..\..\..\..\..\uCOS-III\Source/os_task.c **** 
 486:..\..\..\..\..\..\uCOS-III\Source/os_task.c **** #if OS_CFG_ISR_POST_DEFERRED_EN > 0u
 487:..\..\..\..\..\..\uCOS-III\Source/os_task.c ****     if (p_tcb == &OSIntQTaskTCB) {                          /* Cannot delete the ISR handler task  
 488:..\..\..\..\..\..\uCOS-III\Source/os_task.c ****        *p_err = OS_ERR_TASK_DEL_INVALID;
 489:..\..\..\..\..\..\uCOS-III\Source/os_task.c ****         return;
 490:..\..\..\..\..\..\uCOS-III\Source/os_task.c ****     }
 491:..\..\..\..\..\..\uCOS-III\Source/os_task.c **** #endif
 492:..\..\..\..\..\..\uCOS-III\Source/os_task.c **** 
 493:..\..\..\..\..\..\uCOS-III\Source/os_task.c ****     if (p_tcb == (OS_TCB *)0) {                             /* Delete 'Self'?                      
 608              		.loc 1 493 0
 609 0032 7B68     		ldr	r3, [r7, #4]
 610 0034 002B     		cmp	r3, #0
 611 0036 08D1     		bne	.L47
 494:..\..\..\..\..\..\uCOS-III\Source/os_task.c ****         CPU_CRITICAL_ENTER();
 612              		.loc 1 494 0
 613 0038 FFF7FEFF 		bl	CPU_SR_Save
 614 003c F860     		str	r0, [r7, #12]
 495:..\..\..\..\..\..\uCOS-III\Source/os_task.c ****         p_tcb  = OSTCBCurPtr;                               /* Yes.                                
 615              		.loc 1 495 0
 616 003e 3D4B     		ldr	r3, .L62+8
 617 0040 1B68     		ldr	r3, [r3]
 618 0042 7B60     		str	r3, [r7, #4]
 496:..\..\..\..\..\..\uCOS-III\Source/os_task.c ****         CPU_CRITICAL_EXIT();
 619              		.loc 1 496 0
 620 0044 F868     		ldr	r0, [r7, #12]
 621 0046 FFF7FEFF 		bl	CPU_SR_Restore
 622              	.L47:
 497:..\..\..\..\..\..\uCOS-III\Source/os_task.c ****     }
 498:..\..\..\..\..\..\uCOS-III\Source/os_task.c **** 
 499:..\..\..\..\..\..\uCOS-III\Source/os_task.c ****     OS_CRITICAL_ENTER();
 623              		.loc 1 499 0
 624 004a FFF7FEFF 		bl	CPU_SR_Save
 625 004e F860     		str	r0, [r7, #12]
 500:..\..\..\..\..\..\uCOS-III\Source/os_task.c ****     switch (p_tcb->TaskState) {
 626              		.loc 1 500 0
 627 0050 7B68     		ldr	r3, [r7, #4]
 628 0052 93F83630 		ldrb	r3, [r3, #54]	@ zero_extendqisi2
 629 0056 072B     		cmp	r3, #7
 630 0058 3CD8     		bhi	.L48
 631 005a 01A2     		adr	r2, .L50
 632 005c 52F823F0 		ldr	pc, [r2, r3, lsl #2]
 633              		.p2align 2
 634              	.L50:
 635 0060 81000000 		.word	.L49+1
ARM GAS  C:\Users\Aluno\AppData\Local\Temp\ccHJiRYw.s 			page 21


 636 0064 89000000 		.word	.L51+1
 637 0068 91000000 		.word	.L52+1
 638 006c 91000000 		.word	.L52+1
 639 0070 E5000000 		.word	.L60+1
 640 0074 89000000 		.word	.L51+1
 641 0078 91000000 		.word	.L52+1
 642 007c 91000000 		.word	.L52+1
 643              		.p2align 1
 644              	.L49:
 501:..\..\..\..\..\..\uCOS-III\Source/os_task.c ****         case OS_TASK_STATE_RDY:
 502:..\..\..\..\..\..\uCOS-III\Source/os_task.c ****              OS_RdyListRemove(p_tcb);
 645              		.loc 1 502 0
 646 0080 7868     		ldr	r0, [r7, #4]
 647 0082 FFF7FEFF 		bl	OS_RdyListRemove
 503:..\..\..\..\..\..\uCOS-III\Source/os_task.c ****              break;
 648              		.loc 1 503 0
 649 0086 2EE0     		b	.L54
 650              	.L51:
 504:..\..\..\..\..\..\uCOS-III\Source/os_task.c **** 
 505:..\..\..\..\..\..\uCOS-III\Source/os_task.c ****         case OS_TASK_STATE_SUSPENDED:
 506:..\..\..\..\..\..\uCOS-III\Source/os_task.c ****              break;
 507:..\..\..\..\..\..\uCOS-III\Source/os_task.c **** 
 508:..\..\..\..\..\..\uCOS-III\Source/os_task.c ****         case OS_TASK_STATE_DLY:                             /* Task is only delayed, not on any wai
 509:..\..\..\..\..\..\uCOS-III\Source/os_task.c ****         case OS_TASK_STATE_DLY_SUSPENDED:
 510:..\..\..\..\..\..\uCOS-III\Source/os_task.c ****              OS_TickListRemove(p_tcb);
 651              		.loc 1 510 0
 652 0088 7868     		ldr	r0, [r7, #4]
 653 008a FFF7FEFF 		bl	OS_TickListRemove
 511:..\..\..\..\..\..\uCOS-III\Source/os_task.c ****              break;
 654              		.loc 1 511 0
 655 008e 2AE0     		b	.L54
 656              	.L52:
 512:..\..\..\..\..\..\uCOS-III\Source/os_task.c **** 
 513:..\..\..\..\..\..\uCOS-III\Source/os_task.c ****         case OS_TASK_STATE_PEND:
 514:..\..\..\..\..\..\uCOS-III\Source/os_task.c ****         case OS_TASK_STATE_PEND_SUSPENDED:
 515:..\..\..\..\..\..\uCOS-III\Source/os_task.c ****         case OS_TASK_STATE_PEND_TIMEOUT:
 516:..\..\..\..\..\..\uCOS-III\Source/os_task.c ****         case OS_TASK_STATE_PEND_TIMEOUT_SUSPENDED:
 517:..\..\..\..\..\..\uCOS-III\Source/os_task.c ****              OS_TickListRemove(p_tcb);
 657              		.loc 1 517 0
 658 0090 7868     		ldr	r0, [r7, #4]
 659 0092 FFF7FEFF 		bl	OS_TickListRemove
 518:..\..\..\..\..\..\uCOS-III\Source/os_task.c ****              switch (p_tcb->PendOn) {                       /* See what we are pending on          
 660              		.loc 1 518 0
 661 0096 7B68     		ldr	r3, [r7, #4]
 662 0098 93F83430 		ldrb	r3, [r3, #52]	@ zero_extendqisi2
 663 009c 072B     		cmp	r3, #7
 664 009e 17D8     		bhi	.L61
 665 00a0 01A2     		adr	r2, .L57
 666 00a2 52F823F0 		ldr	pc, [r2, r3, lsl #2]
 667 00a6 00BF     		.p2align 2
 668              	.L57:
 669 00a8 D1000000 		.word	.L61+1
 670 00ac C9000000 		.word	.L58+1
 671 00b0 D1000000 		.word	.L61+1
 672 00b4 C9000000 		.word	.L58+1
 673 00b8 C9000000 		.word	.L58+1
 674 00bc C9000000 		.word	.L58+1
ARM GAS  C:\Users\Aluno\AppData\Local\Temp\ccHJiRYw.s 			page 22


 675 00c0 C9000000 		.word	.L58+1
 676 00c4 D1000000 		.word	.L61+1
 677              		.p2align 1
 678              	.L58:
 519:..\..\..\..\..\..\uCOS-III\Source/os_task.c ****                  case OS_TASK_PEND_ON_NOTHING:
 520:..\..\..\..\..\..\uCOS-III\Source/os_task.c ****                  case OS_TASK_PEND_ON_TASK_Q:               /* There is no wait list for these two 
 521:..\..\..\..\..\..\uCOS-III\Source/os_task.c ****                  case OS_TASK_PEND_ON_TASK_SEM:
 522:..\..\..\..\..\..\uCOS-III\Source/os_task.c ****                       break;
 523:..\..\..\..\..\..\uCOS-III\Source/os_task.c **** 
 524:..\..\..\..\..\..\uCOS-III\Source/os_task.c ****                  case OS_TASK_PEND_ON_FLAG:                 /* Remove from wait list               
 525:..\..\..\..\..\..\uCOS-III\Source/os_task.c ****                  case OS_TASK_PEND_ON_MULTI:
 526:..\..\..\..\..\..\uCOS-III\Source/os_task.c ****                  case OS_TASK_PEND_ON_MUTEX:
 527:..\..\..\..\..\..\uCOS-III\Source/os_task.c ****                  case OS_TASK_PEND_ON_Q:
 528:..\..\..\..\..\..\uCOS-III\Source/os_task.c ****                  case OS_TASK_PEND_ON_SEM:
 529:..\..\..\..\..\..\uCOS-III\Source/os_task.c ****                       OS_PendListRemove(p_tcb);
 679              		.loc 1 529 0
 680 00c8 7868     		ldr	r0, [r7, #4]
 681 00ca FFF7FEFF 		bl	OS_PendListRemove
 530:..\..\..\..\..\..\uCOS-III\Source/os_task.c ****                       break;
 682              		.loc 1 530 0
 683 00ce 00E0     		b	.L59
 684              	.L61:
 531:..\..\..\..\..\..\uCOS-III\Source/os_task.c **** 
 532:..\..\..\..\..\..\uCOS-III\Source/os_task.c ****                  default:
 533:..\..\..\..\..\..\uCOS-III\Source/os_task.c ****                       break;
 685              		.loc 1 533 0
 686 00d0 00BF     		nop
 687              	.L59:
 534:..\..\..\..\..\..\uCOS-III\Source/os_task.c ****              }
 535:..\..\..\..\..\..\uCOS-III\Source/os_task.c ****              break;
 688              		.loc 1 535 0 discriminator 1
 689 00d2 08E0     		b	.L54
 690              	.L48:
 536:..\..\..\..\..\..\uCOS-III\Source/os_task.c **** 
 537:..\..\..\..\..\..\uCOS-III\Source/os_task.c ****         default:
 538:..\..\..\..\..\..\uCOS-III\Source/os_task.c ****             OS_CRITICAL_EXIT();
 691              		.loc 1 538 0
 692 00d4 F868     		ldr	r0, [r7, #12]
 693 00d6 FFF7FEFF 		bl	CPU_SR_Restore
 539:..\..\..\..\..\..\uCOS-III\Source/os_task.c ****            *p_err = OS_ERR_STATE_INVALID;
 694              		.loc 1 539 0
 695 00da 3B68     		ldr	r3, [r7]
 696 00dc 46F62D62 		movw	r2, #28205
 697 00e0 1A80     		strh	r2, [r3]	@ movhi
 540:..\..\..\..\..\..\uCOS-III\Source/os_task.c ****             return;
 698              		.loc 1 540 0
 699 00e2 20E0     		b	.L43
 700              	.L60:
 506:..\..\..\..\..\..\uCOS-III\Source/os_task.c **** 
 701              		.loc 1 506 0
 702 00e4 00BF     		nop
 703              	.L54:
 541:..\..\..\..\..\..\uCOS-III\Source/os_task.c ****     }
 542:..\..\..\..\..\..\uCOS-III\Source/os_task.c **** 
 543:..\..\..\..\..\..\uCOS-III\Source/os_task.c **** #if OS_CFG_TASK_Q_EN > 0u
 544:..\..\..\..\..\..\uCOS-III\Source/os_task.c ****     (void)OS_MsgQFreeAll(&p_tcb->MsgQ);                     /* Free task's message queue messages  
 704              		.loc 1 544 0
ARM GAS  C:\Users\Aluno\AppData\Local\Temp\ccHJiRYw.s 			page 23


 705 00e6 7B68     		ldr	r3, [r7, #4]
 706 00e8 6433     		adds	r3, r3, #100
 707 00ea 1846     		mov	r0, r3
 708 00ec FFF7FEFF 		bl	OS_MsgQFreeAll
 545:..\..\..\..\..\..\uCOS-III\Source/os_task.c **** #endif
 546:..\..\..\..\..\..\uCOS-III\Source/os_task.c **** 
 547:..\..\..\..\..\..\uCOS-III\Source/os_task.c ****     OSTaskDelHook(p_tcb);                                   /* Call user defined hook              
 709              		.loc 1 547 0
 710 00f0 7868     		ldr	r0, [r7, #4]
 711 00f2 FFF7FEFF 		bl	OSTaskDelHook
 548:..\..\..\..\..\..\uCOS-III\Source/os_task.c **** 
 549:..\..\..\..\..\..\uCOS-III\Source/os_task.c **** #if defined(OS_CFG_TLS_TBL_SIZE) && (OS_CFG_TLS_TBL_SIZE > 0u)
 550:..\..\..\..\..\..\uCOS-III\Source/os_task.c ****     OS_TLS_TaskDel(p_tcb);                                  /* Call TLS hook                       
 551:..\..\..\..\..\..\uCOS-III\Source/os_task.c **** #endif
 552:..\..\..\..\..\..\uCOS-III\Source/os_task.c **** 
 553:..\..\..\..\..\..\uCOS-III\Source/os_task.c **** #if OS_CFG_DBG_EN > 0u
 554:..\..\..\..\..\..\uCOS-III\Source/os_task.c ****     OS_TaskDbgListRemove(p_tcb);
 712              		.loc 1 554 0
 713 00f6 7868     		ldr	r0, [r7, #4]
 714 00f8 FFF7FEFF 		bl	OS_TaskDbgListRemove
 555:..\..\..\..\..\..\uCOS-III\Source/os_task.c **** #endif
 556:..\..\..\..\..\..\uCOS-III\Source/os_task.c ****     OSTaskQty--;                                            /* One less task being managed         
 715              		.loc 1 556 0
 716 00fc 0E4B     		ldr	r3, .L62+12
 717 00fe 1B88     		ldrh	r3, [r3]
 718 0100 013B     		subs	r3, r3, #1
 719 0102 9AB2     		uxth	r2, r3
 720 0104 0C4B     		ldr	r3, .L62+12
 721 0106 1A80     		strh	r2, [r3]	@ movhi
 557:..\..\..\..\..\..\uCOS-III\Source/os_task.c **** 
 558:..\..\..\..\..\..\uCOS-III\Source/os_task.c ****     OS_TaskInitTCB(p_tcb);                                  /* Initialize the TCB to default values
 722              		.loc 1 558 0
 723 0108 7868     		ldr	r0, [r7, #4]
 724 010a FFF7FEFF 		bl	OS_TaskInitTCB
 559:..\..\..\..\..\..\uCOS-III\Source/os_task.c ****     p_tcb->TaskState = (OS_STATE)OS_TASK_STATE_DEL;         /* Indicate that the task was deleted  
 725              		.loc 1 559 0
 726 010e 7B68     		ldr	r3, [r7, #4]
 727 0110 FF22     		movs	r2, #255
 728 0112 83F83620 		strb	r2, [r3, #54]
 560:..\..\..\..\..\..\uCOS-III\Source/os_task.c **** 
 561:..\..\..\..\..\..\uCOS-III\Source/os_task.c ****     OS_CRITICAL_EXIT_NO_SCHED();
 729              		.loc 1 561 0
 730 0116 F868     		ldr	r0, [r7, #12]
 731 0118 FFF7FEFF 		bl	CPU_SR_Restore
 562:..\..\..\..\..\..\uCOS-III\Source/os_task.c **** 
 563:..\..\..\..\..\..\uCOS-III\Source/os_task.c ****    *p_err = OS_ERR_NONE;                                    /* See Note #1.                        
 732              		.loc 1 563 0
 733 011c 3B68     		ldr	r3, [r7]
 734 011e 0022     		movs	r2, #0
 735 0120 1A80     		strh	r2, [r3]	@ movhi
 564:..\..\..\..\..\..\uCOS-III\Source/os_task.c **** 
 565:..\..\..\..\..\..\uCOS-III\Source/os_task.c ****     OSSched();                                              /* Find new highest priority task      
 736              		.loc 1 565 0
 737 0122 FFF7FEFF 		bl	OSSched
 738              	.L43:
 566:..\..\..\..\..\..\uCOS-III\Source/os_task.c **** }
 739              		.loc 1 566 0
ARM GAS  C:\Users\Aluno\AppData\Local\Temp\ccHJiRYw.s 			page 24


 740 0126 1037     		adds	r7, r7, #16
 741              		.cfi_def_cfa_offset 8
 742 0128 BD46     		mov	sp, r7
 743              		.cfi_def_cfa_register 13
 744              		@ sp needed
 745 012a 80BD     		pop	{r7, pc}
 746              	.L63:
 747              		.align	2
 748              	.L62:
 749 012c 00000000 		.word	OSIntNestingCtr
 750 0130 00000000 		.word	OSIdleTaskTCB
 751 0134 00000000 		.word	OSTCBCurPtr
 752 0138 00000000 		.word	OSTaskQty
 753              		.cfi_endproc
 754              	.LFE2:
 755              		.size	OSTaskDel, .-OSTaskDel
 756              		.section	.text.OSTaskQFlush,"ax",%progbits
 757              		.align	2
 758              		.global	OSTaskQFlush
 759              		.thumb
 760              		.thumb_func
 761              		.type	OSTaskQFlush, %function
 762              	OSTaskQFlush:
 763              	.LFB3:
 567:..\..\..\..\..\..\uCOS-III\Source/os_task.c **** #endif
 568:..\..\..\..\..\..\uCOS-III\Source/os_task.c **** 
 569:..\..\..\..\..\..\uCOS-III\Source/os_task.c **** /*$PAGE*/
 570:..\..\..\..\..\..\uCOS-III\Source/os_task.c **** /*
 571:..\..\..\..\..\..\uCOS-III\Source/os_task.c **** ***************************************************************************************************
 572:..\..\..\..\..\..\uCOS-III\Source/os_task.c **** *                                                    FLUSH TASK's QUEUE
 573:..\..\..\..\..\..\uCOS-III\Source/os_task.c **** *
 574:..\..\..\..\..\..\uCOS-III\Source/os_task.c **** * Description: This function is used to flush the task's internal message queue.
 575:..\..\..\..\..\..\uCOS-III\Source/os_task.c **** *
 576:..\..\..\..\..\..\uCOS-III\Source/os_task.c **** * Arguments  : p_tcb       is a pointer to the task's OS_TCB.  Specifying a NULL pointer indicates 
 577:..\..\..\..\..\..\uCOS-III\Source/os_task.c **** *                          flush the message queue of the calling task.
 578:..\..\..\..\..\..\uCOS-III\Source/os_task.c **** *
 579:..\..\..\..\..\..\uCOS-III\Source/os_task.c **** *              p_err       is a pointer to a variable that will contain an error code returned by t
 580:..\..\..\..\..\..\uCOS-III\Source/os_task.c **** *
 581:..\..\..\..\..\..\uCOS-III\Source/os_task.c **** *                              OS_ERR_NONE           upon success
 582:..\..\..\..\..\..\uCOS-III\Source/os_task.c **** *                              OS_ERR_FLUSH_ISR      if you called this function from an ISR
 583:..\..\..\..\..\..\uCOS-III\Source/os_task.c **** *
 584:..\..\..\..\..\..\uCOS-III\Source/os_task.c **** * Returns     : The number of entries freed from the queue
 585:..\..\..\..\..\..\uCOS-III\Source/os_task.c **** *
 586:..\..\..\..\..\..\uCOS-III\Source/os_task.c **** * Note(s)     : 1) You should use this function with great care because, when to flush the queue, y
 587:..\..\..\..\..\..\uCOS-III\Source/os_task.c **** *                  references to what the queue entries are pointing to and thus, you could cause '
 588:..\..\..\..\..\..\uCOS-III\Source/os_task.c **** *                  other words, the data you are pointing to that's being referenced by the queue e
 589:..\..\..\..\..\..\uCOS-III\Source/os_task.c **** *                  likely, need to be de-allocated (i.e. freed).
 590:..\..\..\..\..\..\uCOS-III\Source/os_task.c **** ***************************************************************************************************
 591:..\..\..\..\..\..\uCOS-III\Source/os_task.c **** */
 592:..\..\..\..\..\..\uCOS-III\Source/os_task.c **** 
 593:..\..\..\..\..\..\uCOS-III\Source/os_task.c **** #if OS_CFG_TASK_Q_EN > 0u
 594:..\..\..\..\..\..\uCOS-III\Source/os_task.c **** OS_MSG_QTY  OSTaskQFlush (OS_TCB  *p_tcb,
 595:..\..\..\..\..\..\uCOS-III\Source/os_task.c ****                           OS_ERR  *p_err)
 596:..\..\..\..\..\..\uCOS-III\Source/os_task.c **** {
 764              		.loc 1 596 0
 765              		.cfi_startproc
 766              		@ args = 0, pretend = 0, frame = 16
ARM GAS  C:\Users\Aluno\AppData\Local\Temp\ccHJiRYw.s 			page 25


 767              		@ frame_needed = 1, uses_anonymous_args = 0
 768 0000 80B5     		push	{r7, lr}
 769              		.cfi_def_cfa_offset 8
 770              		.cfi_offset 7, -8
 771              		.cfi_offset 14, -4
 772 0002 84B0     		sub	sp, sp, #16
 773              		.cfi_def_cfa_offset 24
 774 0004 00AF     		add	r7, sp, #0
 775              		.cfi_def_cfa_register 7
 776 0006 7860     		str	r0, [r7, #4]
 777 0008 3960     		str	r1, [r7]
 597:..\..\..\..\..\..\uCOS-III\Source/os_task.c ****     OS_MSG_QTY  entries;
 598:..\..\..\..\..\..\uCOS-III\Source/os_task.c ****     CPU_SR_ALLOC();
 778              		.loc 1 598 0
 779 000a 0023     		movs	r3, #0
 780 000c FB60     		str	r3, [r7, #12]
 599:..\..\..\..\..\..\uCOS-III\Source/os_task.c **** 
 600:..\..\..\..\..\..\uCOS-III\Source/os_task.c **** 
 601:..\..\..\..\..\..\uCOS-III\Source/os_task.c **** 
 602:..\..\..\..\..\..\uCOS-III\Source/os_task.c **** #ifdef OS_SAFETY_CRITICAL
 603:..\..\..\..\..\..\uCOS-III\Source/os_task.c ****     if (p_err == (OS_ERR *)0) {
 604:..\..\..\..\..\..\uCOS-III\Source/os_task.c ****         OS_SAFETY_CRITICAL_EXCEPTION();
 605:..\..\..\..\..\..\uCOS-III\Source/os_task.c ****         return ((OS_MSG_QTY)0);
 606:..\..\..\..\..\..\uCOS-III\Source/os_task.c ****     }
 607:..\..\..\..\..\..\uCOS-III\Source/os_task.c **** #endif
 608:..\..\..\..\..\..\uCOS-III\Source/os_task.c **** 
 609:..\..\..\..\..\..\uCOS-III\Source/os_task.c **** #if OS_CFG_CALLED_FROM_ISR_CHK_EN > 0u
 610:..\..\..\..\..\..\uCOS-III\Source/os_task.c ****     if (OSIntNestingCtr > (OS_NESTING_CTR)0) {              /* Can't flush a message queue from an 
 781              		.loc 1 610 0
 782 000e 154B     		ldr	r3, .L68
 783 0010 1B78     		ldrb	r3, [r3]	@ zero_extendqisi2
 784 0012 002B     		cmp	r3, #0
 785 0014 05D0     		beq	.L65
 611:..\..\..\..\..\..\uCOS-III\Source/os_task.c ****        *p_err = OS_ERR_FLUSH_ISR;
 786              		.loc 1 611 0
 787 0016 3B68     		ldr	r3, [r7]
 788 0018 4FF46C52 		mov	r2, #15104
 789 001c 1A80     		strh	r2, [r3]	@ movhi
 612:..\..\..\..\..\..\uCOS-III\Source/os_task.c ****         return ((OS_MSG_QTY)0);
 790              		.loc 1 612 0
 791 001e 0023     		movs	r3, #0
 792 0020 1CE0     		b	.L66
 793              	.L65:
 613:..\..\..\..\..\..\uCOS-III\Source/os_task.c ****     }
 614:..\..\..\..\..\..\uCOS-III\Source/os_task.c **** #endif
 615:..\..\..\..\..\..\uCOS-III\Source/os_task.c **** 
 616:..\..\..\..\..\..\uCOS-III\Source/os_task.c ****     if (p_tcb == (OS_TCB *)0) {                             /* Flush message queue of calling task?
 794              		.loc 1 616 0
 795 0022 7B68     		ldr	r3, [r7, #4]
 796 0024 002B     		cmp	r3, #0
 797 0026 08D1     		bne	.L67
 617:..\..\..\..\..\..\uCOS-III\Source/os_task.c ****         CPU_CRITICAL_ENTER();
 798              		.loc 1 617 0
 799 0028 FFF7FEFF 		bl	CPU_SR_Save
 800 002c F860     		str	r0, [r7, #12]
 618:..\..\..\..\..\..\uCOS-III\Source/os_task.c ****         p_tcb = OSTCBCurPtr;
 801              		.loc 1 618 0
ARM GAS  C:\Users\Aluno\AppData\Local\Temp\ccHJiRYw.s 			page 26


 802 002e 0E4B     		ldr	r3, .L68+4
 803 0030 1B68     		ldr	r3, [r3]
 804 0032 7B60     		str	r3, [r7, #4]
 619:..\..\..\..\..\..\uCOS-III\Source/os_task.c ****         CPU_CRITICAL_EXIT();
 805              		.loc 1 619 0
 806 0034 F868     		ldr	r0, [r7, #12]
 807 0036 FFF7FEFF 		bl	CPU_SR_Restore
 808              	.L67:
 620:..\..\..\..\..\..\uCOS-III\Source/os_task.c ****     }
 621:..\..\..\..\..\..\uCOS-III\Source/os_task.c **** 
 622:..\..\..\..\..\..\uCOS-III\Source/os_task.c ****     OS_CRITICAL_ENTER();
 809              		.loc 1 622 0
 810 003a FFF7FEFF 		bl	CPU_SR_Save
 811 003e F860     		str	r0, [r7, #12]
 623:..\..\..\..\..\..\uCOS-III\Source/os_task.c ****     entries = OS_MsgQFreeAll(&p_tcb->MsgQ);                 /* Return all OS_MSGs to the OS_MSG poo
 812              		.loc 1 623 0
 813 0040 7B68     		ldr	r3, [r7, #4]
 814 0042 6433     		adds	r3, r3, #100
 815 0044 1846     		mov	r0, r3
 816 0046 FFF7FEFF 		bl	OS_MsgQFreeAll
 817 004a 0346     		mov	r3, r0
 818 004c 7B81     		strh	r3, [r7, #10]	@ movhi
 624:..\..\..\..\..\..\uCOS-III\Source/os_task.c ****     OS_CRITICAL_EXIT();
 819              		.loc 1 624 0
 820 004e F868     		ldr	r0, [r7, #12]
 821 0050 FFF7FEFF 		bl	CPU_SR_Restore
 625:..\..\..\..\..\..\uCOS-III\Source/os_task.c ****    *p_err   = OS_ERR_NONE;
 822              		.loc 1 625 0
 823 0054 3B68     		ldr	r3, [r7]
 824 0056 0022     		movs	r2, #0
 825 0058 1A80     		strh	r2, [r3]	@ movhi
 626:..\..\..\..\..\..\uCOS-III\Source/os_task.c ****     return (entries);
 826              		.loc 1 626 0
 827 005a 7B89     		ldrh	r3, [r7, #10]
 828              	.L66:
 627:..\..\..\..\..\..\uCOS-III\Source/os_task.c **** }
 829              		.loc 1 627 0
 830 005c 1846     		mov	r0, r3
 831 005e 1037     		adds	r7, r7, #16
 832              		.cfi_def_cfa_offset 8
 833 0060 BD46     		mov	sp, r7
 834              		.cfi_def_cfa_register 13
 835              		@ sp needed
 836 0062 80BD     		pop	{r7, pc}
 837              	.L69:
 838              		.align	2
 839              	.L68:
 840 0064 00000000 		.word	OSIntNestingCtr
 841 0068 00000000 		.word	OSTCBCurPtr
 842              		.cfi_endproc
 843              	.LFE3:
 844              		.size	OSTaskQFlush, .-OSTaskQFlush
 845              		.section	.text.OSTaskQPend,"ax",%progbits
 846              		.align	2
 847              		.global	OSTaskQPend
 848              		.thumb
 849              		.thumb_func
ARM GAS  C:\Users\Aluno\AppData\Local\Temp\ccHJiRYw.s 			page 27


 850              		.type	OSTaskQPend, %function
 851              	OSTaskQPend:
 852              	.LFB4:
 628:..\..\..\..\..\..\uCOS-III\Source/os_task.c **** #endif
 629:..\..\..\..\..\..\uCOS-III\Source/os_task.c **** 
 630:..\..\..\..\..\..\uCOS-III\Source/os_task.c **** /*$PAGE*/
 631:..\..\..\..\..\..\uCOS-III\Source/os_task.c **** /*
 632:..\..\..\..\..\..\uCOS-III\Source/os_task.c **** ***************************************************************************************************
 633:..\..\..\..\..\..\uCOS-III\Source/os_task.c **** *                                                  WAIT FOR A MESSAGE
 634:..\..\..\..\..\..\uCOS-III\Source/os_task.c **** *
 635:..\..\..\..\..\..\uCOS-III\Source/os_task.c **** * Description: This function causes the current task to wait for a message to be posted to it.
 636:..\..\..\..\..\..\uCOS-III\Source/os_task.c **** *
 637:..\..\..\..\..\..\uCOS-III\Source/os_task.c **** * Arguments  : timeout       is an optional timeout period (in clock ticks).  If non-zero, your tas
 638:..\..\..\..\..\..\uCOS-III\Source/os_task.c **** *                            message to arrive up to the amount of time specified by this argument.
 639:..\..\..\..\..\..\uCOS-III\Source/os_task.c **** *                            If you specify 0, however, your task will wait forever or, until a mes
 640:..\..\..\..\..\..\uCOS-III\Source/os_task.c **** *
 641:..\..\..\..\..\..\uCOS-III\Source/os_task.c **** *              opt           determines whether the user wants to block if the task's queue is empt
 642:..\..\..\..\..\..\uCOS-III\Source/os_task.c **** *
 643:..\..\..\..\..\..\uCOS-III\Source/os_task.c **** *                                OS_OPT_PEND_BLOCKING
 644:..\..\..\..\..\..\uCOS-III\Source/os_task.c **** *                                OS_OPT_PEND_NON_BLOCKING
 645:..\..\..\..\..\..\uCOS-III\Source/os_task.c **** *
 646:..\..\..\..\..\..\uCOS-III\Source/os_task.c **** *              p_msg_size    is a pointer to a variable that will receive the size of the message
 647:..\..\..\..\..\..\uCOS-III\Source/os_task.c **** *
 648:..\..\..\..\..\..\uCOS-III\Source/os_task.c **** *              p_ts          is a pointer to a variable that will receive the timestamp of when the
 649:..\..\..\..\..\..\uCOS-III\Source/os_task.c **** *                            received.  If you pass a NULL pointer (i.e. (CPU_TS *)0) then you will
 650:..\..\..\..\..\..\uCOS-III\Source/os_task.c **** *                            timestamp.  In other words, passing a NULL pointer is valid and indica
 651:..\..\..\..\..\..\uCOS-III\Source/os_task.c **** *                            need the timestamp.
 652:..\..\..\..\..\..\uCOS-III\Source/os_task.c **** *
 653:..\..\..\..\..\..\uCOS-III\Source/os_task.c **** *              p_err         is a pointer to where an error message will be deposited.  Possible er
 654:..\..\..\..\..\..\uCOS-III\Source/os_task.c **** *                            messages are:
 655:..\..\..\..\..\..\uCOS-III\Source/os_task.c **** *
 656:..\..\..\..\..\..\uCOS-III\Source/os_task.c **** *                                OS_ERR_NONE               The call was successful and your task re
 657:..\..\..\..\..\..\uCOS-III\Source/os_task.c **** *                                OS_ERR_PEND_ABORT
 658:..\..\..\..\..\..\uCOS-III\Source/os_task.c **** *                                OS_ERR_PEND_ISR           If you called this function from an ISR 
 659:..\..\..\..\..\..\uCOS-III\Source/os_task.c **** *                                OS_ERR_PEND_WOULD_BLOCK   If you specified non-blocking but the qu
 660:..\..\..\..\..\..\uCOS-III\Source/os_task.c **** *                                OS_ERR_Q_EMPTY
 661:..\..\..\..\..\..\uCOS-III\Source/os_task.c **** *                                OS_ERR_SCHED_LOCKED       If the scheduler is locked
 662:..\..\..\..\..\..\uCOS-III\Source/os_task.c **** *                                OS_ERR_TIMEOUT            A message was not received within the sp
 663:..\..\..\..\..\..\uCOS-III\Source/os_task.c **** *                                                          would lead to a suspension.
 664:..\..\..\..\..\..\uCOS-III\Source/os_task.c **** *
 665:..\..\..\..\..\..\uCOS-III\Source/os_task.c **** * Returns    : A pointer to the message received or a NULL pointer upon error.
 666:..\..\..\..\..\..\uCOS-III\Source/os_task.c **** *
 667:..\..\..\..\..\..\uCOS-III\Source/os_task.c **** * Note(s)    : 1) It is possible to receive NULL pointers when there are no errors.
 668:..\..\..\..\..\..\uCOS-III\Source/os_task.c **** ***************************************************************************************************
 669:..\..\..\..\..\..\uCOS-III\Source/os_task.c **** */
 670:..\..\..\..\..\..\uCOS-III\Source/os_task.c **** 
 671:..\..\..\..\..\..\uCOS-III\Source/os_task.c **** #if OS_CFG_TASK_Q_EN > 0u
 672:..\..\..\..\..\..\uCOS-III\Source/os_task.c **** void  *OSTaskQPend (OS_TICK       timeout,
 673:..\..\..\..\..\..\uCOS-III\Source/os_task.c ****                     OS_OPT        opt,
 674:..\..\..\..\..\..\uCOS-III\Source/os_task.c ****                     OS_MSG_SIZE  *p_msg_size,
 675:..\..\..\..\..\..\uCOS-III\Source/os_task.c ****                     CPU_TS       *p_ts,
 676:..\..\..\..\..\..\uCOS-III\Source/os_task.c ****                     OS_ERR       *p_err)
 677:..\..\..\..\..\..\uCOS-III\Source/os_task.c **** {
 853              		.loc 1 677 0
 854              		.cfi_startproc
 855              		@ args = 4, pretend = 0, frame = 32
 856              		@ frame_needed = 1, uses_anonymous_args = 0
ARM GAS  C:\Users\Aluno\AppData\Local\Temp\ccHJiRYw.s 			page 28


 857 0000 90B5     		push	{r4, r7, lr}
 858              		.cfi_def_cfa_offset 12
 859              		.cfi_offset 4, -12
 860              		.cfi_offset 7, -8
 861              		.cfi_offset 14, -4
 862 0002 89B0     		sub	sp, sp, #36
 863              		.cfi_def_cfa_offset 48
 864 0004 00AF     		add	r7, sp, #0
 865              		.cfi_def_cfa_register 7
 866 0006 F860     		str	r0, [r7, #12]
 867 0008 7A60     		str	r2, [r7, #4]
 868 000a 3B60     		str	r3, [r7]
 869 000c 0B46     		mov	r3, r1	@ movhi
 870 000e 7B81     		strh	r3, [r7, #10]	@ movhi
 678:..\..\..\..\..\..\uCOS-III\Source/os_task.c ****     OS_MSG_Q     *p_msg_q;
 679:..\..\..\..\..\..\uCOS-III\Source/os_task.c ****     void         *p_void;
 680:..\..\..\..\..\..\uCOS-III\Source/os_task.c ****     CPU_SR_ALLOC();
 871              		.loc 1 680 0
 872 0010 0023     		movs	r3, #0
 873 0012 BB61     		str	r3, [r7, #24]
 681:..\..\..\..\..\..\uCOS-III\Source/os_task.c **** 
 682:..\..\..\..\..\..\uCOS-III\Source/os_task.c **** 
 683:..\..\..\..\..\..\uCOS-III\Source/os_task.c **** 
 684:..\..\..\..\..\..\uCOS-III\Source/os_task.c **** #ifdef OS_SAFETY_CRITICAL
 685:..\..\..\..\..\..\uCOS-III\Source/os_task.c ****     if (p_err == (OS_ERR *)0) {
 686:..\..\..\..\..\..\uCOS-III\Source/os_task.c ****         OS_SAFETY_CRITICAL_EXCEPTION();
 687:..\..\..\..\..\..\uCOS-III\Source/os_task.c ****         return ((void *)0);
 688:..\..\..\..\..\..\uCOS-III\Source/os_task.c ****     }
 689:..\..\..\..\..\..\uCOS-III\Source/os_task.c **** #endif
 690:..\..\..\..\..\..\uCOS-III\Source/os_task.c **** 
 691:..\..\..\..\..\..\uCOS-III\Source/os_task.c **** #if OS_CFG_CALLED_FROM_ISR_CHK_EN > 0u
 692:..\..\..\..\..\..\uCOS-III\Source/os_task.c ****     if (OSIntNestingCtr > (OS_NESTING_CTR)0) {              /* Can't Pend from an ISR              
 874              		.loc 1 692 0
 875 0014 6F4B     		ldr	r3, .L91
 876 0016 1B78     		ldrb	r3, [r3]	@ zero_extendqisi2
 877 0018 002B     		cmp	r3, #0
 878 001a 05D0     		beq	.L71
 693:..\..\..\..\..\..\uCOS-III\Source/os_task.c ****        *p_err = OS_ERR_PEND_ISR;
 879              		.loc 1 693 0
 880 001c 3B6B     		ldr	r3, [r7, #48]
 881 001e 46F2AE12 		movw	r2, #25006
 882 0022 1A80     		strh	r2, [r3]	@ movhi
 694:..\..\..\..\..\..\uCOS-III\Source/os_task.c ****         return ((void *)0);
 883              		.loc 1 694 0
 884 0024 0023     		movs	r3, #0
 885 0026 D1E0     		b	.L72
 886              	.L71:
 695:..\..\..\..\..\..\uCOS-III\Source/os_task.c ****     }
 696:..\..\..\..\..\..\uCOS-III\Source/os_task.c **** #endif
 697:..\..\..\..\..\..\uCOS-III\Source/os_task.c **** 
 698:..\..\..\..\..\..\uCOS-III\Source/os_task.c **** #if OS_CFG_ARG_CHK_EN > 0u                                  /* ---------------- VALIDATE ARGUMENTS 
 699:..\..\..\..\..\..\uCOS-III\Source/os_task.c ****     if (p_msg_size == (OS_MSG_SIZE *)0) {                   /* User must supply a valid destination
 887              		.loc 1 699 0
 888 0028 7B68     		ldr	r3, [r7, #4]
 889 002a 002B     		cmp	r3, #0
 890 002c 05D1     		bne	.L73
 700:..\..\..\..\..\..\uCOS-III\Source/os_task.c ****        *p_err = OS_ERR_PTR_INVALID;
ARM GAS  C:\Users\Aluno\AppData\Local\Temp\ccHJiRYw.s 			page 29


 891              		.loc 1 700 0
 892 002e 3B6B     		ldr	r3, [r7, #48]
 893 0030 46F2D522 		movw	r2, #25301
 894 0034 1A80     		strh	r2, [r3]	@ movhi
 701:..\..\..\..\..\..\uCOS-III\Source/os_task.c ****         return ((void *)0);
 895              		.loc 1 701 0
 896 0036 0023     		movs	r3, #0
 897 0038 C8E0     		b	.L72
 898              	.L73:
 702:..\..\..\..\..\..\uCOS-III\Source/os_task.c ****     }
 703:..\..\..\..\..\..\uCOS-III\Source/os_task.c ****     switch (opt) {                                          /* User must supply a valid option     
 899              		.loc 1 703 0
 900 003a 7B89     		ldrh	r3, [r7, #10]
 901 003c 002B     		cmp	r3, #0
 902 003e 08D0     		beq	.L90
 903 0040 B3F5004F 		cmp	r3, #32768
 904 0044 05D0     		beq	.L90
 704:..\..\..\..\..\..\uCOS-III\Source/os_task.c ****         case OS_OPT_PEND_BLOCKING:
 705:..\..\..\..\..\..\uCOS-III\Source/os_task.c ****         case OS_OPT_PEND_NON_BLOCKING:
 706:..\..\..\..\..\..\uCOS-III\Source/os_task.c ****              break;
 707:..\..\..\..\..\..\uCOS-III\Source/os_task.c **** 
 708:..\..\..\..\..\..\uCOS-III\Source/os_task.c ****         default:
 709:..\..\..\..\..\..\uCOS-III\Source/os_task.c ****             *p_err = OS_ERR_OPT_INVALID;
 905              		.loc 1 709 0
 906 0046 3B6B     		ldr	r3, [r7, #48]
 907 0048 45F62562 		movw	r2, #24101
 908 004c 1A80     		strh	r2, [r3]	@ movhi
 710:..\..\..\..\..\..\uCOS-III\Source/os_task.c ****              return ((void *)0);
 909              		.loc 1 710 0
 910 004e 0023     		movs	r3, #0
 911 0050 BCE0     		b	.L72
 912              	.L90:
 706:..\..\..\..\..\..\uCOS-III\Source/os_task.c **** 
 913              		.loc 1 706 0
 914 0052 00BF     		nop
 711:..\..\..\..\..\..\uCOS-III\Source/os_task.c ****     }
 712:..\..\..\..\..\..\uCOS-III\Source/os_task.c **** #endif
 713:..\..\..\..\..\..\uCOS-III\Source/os_task.c **** 
 714:..\..\..\..\..\..\uCOS-III\Source/os_task.c ****     if (p_ts != (CPU_TS *)0) {
 915              		.loc 1 714 0
 916 0054 3B68     		ldr	r3, [r7]
 917 0056 002B     		cmp	r3, #0
 918 0058 02D0     		beq	.L77
 715:..\..\..\..\..\..\uCOS-III\Source/os_task.c ****        *p_ts  = (CPU_TS  )0;                                /* Initialize the returned timestamp   
 919              		.loc 1 715 0
 920 005a 3B68     		ldr	r3, [r7]
 921 005c 0022     		movs	r2, #0
 922 005e 1A60     		str	r2, [r3]
 923              	.L77:
 716:..\..\..\..\..\..\uCOS-III\Source/os_task.c ****     }
 717:..\..\..\..\..\..\uCOS-III\Source/os_task.c **** 
 718:..\..\..\..\..\..\uCOS-III\Source/os_task.c ****     CPU_CRITICAL_ENTER();
 924              		.loc 1 718 0
 925 0060 FFF7FEFF 		bl	CPU_SR_Save
 926 0064 B861     		str	r0, [r7, #24]
 719:..\..\..\..\..\..\uCOS-III\Source/os_task.c ****     p_msg_q = &OSTCBCurPtr->MsgQ;                           /* Any message waiting in the message q
 927              		.loc 1 719 0
ARM GAS  C:\Users\Aluno\AppData\Local\Temp\ccHJiRYw.s 			page 30


 928 0066 5C4B     		ldr	r3, .L91+4
 929 0068 1B68     		ldr	r3, [r3]
 930 006a 6433     		adds	r3, r3, #100
 931 006c 7B61     		str	r3, [r7, #20]
 720:..\..\..\..\..\..\uCOS-III\Source/os_task.c ****     p_void  = OS_MsgQGet(p_msg_q,
 932              		.loc 1 720 0
 933 006e 3B6B     		ldr	r3, [r7, #48]
 934 0070 3A68     		ldr	r2, [r7]
 935 0072 7968     		ldr	r1, [r7, #4]
 936 0074 7869     		ldr	r0, [r7, #20]
 937 0076 FFF7FEFF 		bl	OS_MsgQGet
 938 007a F861     		str	r0, [r7, #28]
 721:..\..\..\..\..\..\uCOS-III\Source/os_task.c ****                          p_msg_size,
 722:..\..\..\..\..\..\uCOS-III\Source/os_task.c ****                          p_ts,
 723:..\..\..\..\..\..\uCOS-III\Source/os_task.c ****                          p_err);
 724:..\..\..\..\..\..\uCOS-III\Source/os_task.c ****     if (*p_err == OS_ERR_NONE) {
 939              		.loc 1 724 0
 940 007c 3B6B     		ldr	r3, [r7, #48]
 941 007e 1B88     		ldrh	r3, [r3]
 942 0080 002B     		cmp	r3, #0
 943 0082 1ED1     		bne	.L78
 725:..\..\..\..\..\..\uCOS-III\Source/os_task.c **** #if OS_CFG_TASK_PROFILE_EN > 0u
 726:..\..\..\..\..\..\uCOS-III\Source/os_task.c ****         if (p_ts != (CPU_TS *)0) {
 944              		.loc 1 726 0
 945 0084 3B68     		ldr	r3, [r7]
 946 0086 002B     		cmp	r3, #0
 947 0088 16D0     		beq	.L79
 727:..\..\..\..\..\..\uCOS-III\Source/os_task.c ****             OSTCBCurPtr->MsgQPendTime = OS_TS_GET() - *p_ts;
 948              		.loc 1 727 0
 949 008a 534B     		ldr	r3, .L91+4
 950 008c 1C68     		ldr	r4, [r3]
 951 008e FFF7FEFF 		bl	CPU_TS_TmrRd
 952 0092 0246     		mov	r2, r0
 953 0094 3B68     		ldr	r3, [r7]
 954 0096 1B68     		ldr	r3, [r3]
 955 0098 D31A     		subs	r3, r2, r3
 956 009a 6367     		str	r3, [r4, #116]
 728:..\..\..\..\..\..\uCOS-III\Source/os_task.c ****             if (OSTCBCurPtr->MsgQPendTimeMax < OSTCBCurPtr->MsgQPendTime) {
 957              		.loc 1 728 0
 958 009c 4E4B     		ldr	r3, .L91+4
 959 009e 1B68     		ldr	r3, [r3]
 960 00a0 9A6F     		ldr	r2, [r3, #120]
 961 00a2 4D4B     		ldr	r3, .L91+4
 962 00a4 1B68     		ldr	r3, [r3]
 963 00a6 5B6F     		ldr	r3, [r3, #116]
 964 00a8 9A42     		cmp	r2, r3
 965 00aa 05D2     		bcs	.L79
 729:..\..\..\..\..\..\uCOS-III\Source/os_task.c ****                 OSTCBCurPtr->MsgQPendTimeMax = OSTCBCurPtr->MsgQPendTime;
 966              		.loc 1 729 0
 967 00ac 4A4B     		ldr	r3, .L91+4
 968 00ae 1B68     		ldr	r3, [r3]
 969 00b0 494A     		ldr	r2, .L91+4
 970 00b2 1268     		ldr	r2, [r2]
 971 00b4 526F     		ldr	r2, [r2, #116]
 972 00b6 9A67     		str	r2, [r3, #120]
 973              	.L79:
 730:..\..\..\..\..\..\uCOS-III\Source/os_task.c ****             }
ARM GAS  C:\Users\Aluno\AppData\Local\Temp\ccHJiRYw.s 			page 31


 731:..\..\..\..\..\..\uCOS-III\Source/os_task.c ****         }
 732:..\..\..\..\..\..\uCOS-III\Source/os_task.c **** #endif
 733:..\..\..\..\..\..\uCOS-III\Source/os_task.c ****         CPU_CRITICAL_EXIT();
 974              		.loc 1 733 0
 975 00b8 B869     		ldr	r0, [r7, #24]
 976 00ba FFF7FEFF 		bl	CPU_SR_Restore
 734:..\..\..\..\..\..\uCOS-III\Source/os_task.c ****         return (p_void);                                    /* Yes, Return oldest message received 
 977              		.loc 1 734 0
 978 00be FB69     		ldr	r3, [r7, #28]
 979 00c0 84E0     		b	.L72
 980              	.L78:
 735:..\..\..\..\..\..\uCOS-III\Source/os_task.c ****     }
 736:..\..\..\..\..\..\uCOS-III\Source/os_task.c **** 
 737:..\..\..\..\..\..\uCOS-III\Source/os_task.c ****     if ((opt & OS_OPT_PEND_NON_BLOCKING) != (OS_OPT)0) {    /* Caller wants to block if not availab
 981              		.loc 1 737 0
 982 00c2 B7F90A30 		ldrsh	r3, [r7, #10]
 983 00c6 002B     		cmp	r3, #0
 984 00c8 08DA     		bge	.L80
 738:..\..\..\..\..\..\uCOS-III\Source/os_task.c ****        *p_err = OS_ERR_PEND_WOULD_BLOCK;                    /* No                                  
 985              		.loc 1 738 0
 986 00ca 3B6B     		ldr	r3, [r7, #48]
 987 00cc 46F2B012 		movw	r2, #25008
 988 00d0 1A80     		strh	r2, [r3]	@ movhi
 739:..\..\..\..\..\..\uCOS-III\Source/os_task.c ****         CPU_CRITICAL_EXIT();
 989              		.loc 1 739 0
 990 00d2 B869     		ldr	r0, [r7, #24]
 991 00d4 FFF7FEFF 		bl	CPU_SR_Restore
 740:..\..\..\..\..\..\uCOS-III\Source/os_task.c ****         return ((void *)0);
 992              		.loc 1 740 0
 993 00d8 0023     		movs	r3, #0
 994 00da 77E0     		b	.L72
 995              	.L80:
 741:..\..\..\..\..\..\uCOS-III\Source/os_task.c ****     } else {                                                /* Yes                                 
 742:..\..\..\..\..\..\uCOS-III\Source/os_task.c ****         if (OSSchedLockNestingCtr > (OS_NESTING_CTR)0) {    /*     Can't block when the scheduler i
 996              		.loc 1 742 0
 997 00dc 3F4B     		ldr	r3, .L91+8
 998 00de 1B78     		ldrb	r3, [r3]	@ zero_extendqisi2
 999 00e0 002B     		cmp	r3, #0
 1000 00e2 08D0     		beq	.L81
 743:..\..\..\..\..\..\uCOS-III\Source/os_task.c ****             CPU_CRITICAL_EXIT();
 1001              		.loc 1 743 0
 1002 00e4 B869     		ldr	r0, [r7, #24]
 1003 00e6 FFF7FEFF 		bl	CPU_SR_Restore
 744:..\..\..\..\..\..\uCOS-III\Source/os_task.c ****            *p_err = OS_ERR_SCHED_LOCKED;
 1004              		.loc 1 744 0
 1005 00ea 3B6B     		ldr	r3, [r7, #48]
 1006 00ec 46F66352 		movw	r2, #28003
 1007 00f0 1A80     		strh	r2, [r3]	@ movhi
 745:..\..\..\..\..\..\uCOS-III\Source/os_task.c ****             return ((void *)0);
 1008              		.loc 1 745 0
 1009 00f2 0023     		movs	r3, #0
 1010 00f4 6AE0     		b	.L72
 1011              	.L81:
 746:..\..\..\..\..\..\uCOS-III\Source/os_task.c ****         }
 747:..\..\..\..\..\..\uCOS-III\Source/os_task.c ****     }
 748:..\..\..\..\..\..\uCOS-III\Source/os_task.c ****                                                             /* Lock the scheduler/re-enable interru
 749:..\..\..\..\..\..\uCOS-III\Source/os_task.c ****     OS_CRITICAL_ENTER_CPU_EXIT();
ARM GAS  C:\Users\Aluno\AppData\Local\Temp\ccHJiRYw.s 			page 32


 750:..\..\..\..\..\..\uCOS-III\Source/os_task.c ****     OS_Pend((OS_PEND_DATA *)0,                              /* Block task pending on Message       
 1012              		.loc 1 750 0
 1013 00f6 FB68     		ldr	r3, [r7, #12]
 1014 00f8 0222     		movs	r2, #2
 1015 00fa 0021     		movs	r1, #0
 1016 00fc 0020     		movs	r0, #0
 1017 00fe FFF7FEFF 		bl	OS_Pend
 751:..\..\..\..\..\..\uCOS-III\Source/os_task.c ****             (OS_PEND_OBJ  *)0,
 752:..\..\..\..\..\..\uCOS-III\Source/os_task.c ****             (OS_STATE      )OS_TASK_PEND_ON_TASK_Q,
 753:..\..\..\..\..\..\uCOS-III\Source/os_task.c ****             (OS_TICK       )timeout);
 754:..\..\..\..\..\..\uCOS-III\Source/os_task.c ****     OS_CRITICAL_EXIT_NO_SCHED();
 1018              		.loc 1 754 0
 1019 0102 B869     		ldr	r0, [r7, #24]
 1020 0104 FFF7FEFF 		bl	CPU_SR_Restore
 755:..\..\..\..\..\..\uCOS-III\Source/os_task.c **** 
 756:..\..\..\..\..\..\uCOS-III\Source/os_task.c ****     OSSched();                                              /* Find the next highest priority task 
 1021              		.loc 1 756 0
 1022 0108 FFF7FEFF 		bl	OSSched
 757:..\..\..\..\..\..\uCOS-III\Source/os_task.c **** 
 758:..\..\..\..\..\..\uCOS-III\Source/os_task.c ****     CPU_CRITICAL_ENTER();
 1023              		.loc 1 758 0
 1024 010c FFF7FEFF 		bl	CPU_SR_Save
 1025 0110 B861     		str	r0, [r7, #24]
 759:..\..\..\..\..\..\uCOS-III\Source/os_task.c ****     switch (OSTCBCurPtr->PendStatus) {
 1026              		.loc 1 759 0
 1027 0112 314B     		ldr	r3, .L91+4
 1028 0114 1B68     		ldr	r3, [r3]
 1029 0116 93F83530 		ldrb	r3, [r3, #53]	@ zero_extendqisi2
 1030 011a 002B     		cmp	r3, #0
 1031 011c 02D0     		beq	.L83
 1032 011e 012B     		cmp	r3, #1
 1033 0120 2ED0     		beq	.L84
 1034 0122 3DE0     		b	.L89
 1035              	.L83:
 760:..\..\..\..\..\..\uCOS-III\Source/os_task.c ****         case OS_STATUS_PEND_OK:                             /* Extract message from TCB (Put there 
 761:..\..\..\..\..\..\uCOS-III\Source/os_task.c ****              p_void      = OSTCBCurPtr->MsgPtr;
 1036              		.loc 1 761 0
 1037 0124 2C4B     		ldr	r3, .L91+4
 1038 0126 1B68     		ldr	r3, [r3]
 1039 0128 DB6D     		ldr	r3, [r3, #92]
 1040 012a FB61     		str	r3, [r7, #28]
 762:..\..\..\..\..\..\uCOS-III\Source/os_task.c ****             *p_msg_size  = OSTCBCurPtr->MsgSize;
 1041              		.loc 1 762 0
 1042 012c 2A4B     		ldr	r3, .L91+4
 1043 012e 1B68     		ldr	r3, [r3]
 1044 0130 B3F86020 		ldrh	r2, [r3, #96]
 1045 0134 7B68     		ldr	r3, [r7, #4]
 1046 0136 1A80     		strh	r2, [r3]	@ movhi
 763:..\..\..\..\..\..\uCOS-III\Source/os_task.c ****              if (p_ts != (CPU_TS *)0) {
 1047              		.loc 1 763 0
 1048 0138 3B68     		ldr	r3, [r7]
 1049 013a 002B     		cmp	r3, #0
 1050 013c 1CD0     		beq	.L85
 764:..\..\..\..\..\..\uCOS-III\Source/os_task.c ****                 *p_ts  = OSTCBCurPtr->TS;
 1051              		.loc 1 764 0
 1052 013e 264B     		ldr	r3, .L91+4
 1053 0140 1B68     		ldr	r3, [r3]
ARM GAS  C:\Users\Aluno\AppData\Local\Temp\ccHJiRYw.s 			page 33


 1054 0142 1A6C     		ldr	r2, [r3, #64]
 1055 0144 3B68     		ldr	r3, [r7]
 1056 0146 1A60     		str	r2, [r3]
 765:..\..\..\..\..\..\uCOS-III\Source/os_task.c **** #if OS_CFG_TASK_PROFILE_EN > 0u
 766:..\..\..\..\..\..\uCOS-III\Source/os_task.c ****                 OSTCBCurPtr->MsgQPendTime = OS_TS_GET() - OSTCBCurPtr->TS;
 1057              		.loc 1 766 0
 1058 0148 234B     		ldr	r3, .L91+4
 1059 014a 1C68     		ldr	r4, [r3]
 1060 014c FFF7FEFF 		bl	CPU_TS_TmrRd
 1061 0150 0246     		mov	r2, r0
 1062 0152 214B     		ldr	r3, .L91+4
 1063 0154 1B68     		ldr	r3, [r3]
 1064 0156 1B6C     		ldr	r3, [r3, #64]
 1065 0158 D31A     		subs	r3, r2, r3
 1066 015a 6367     		str	r3, [r4, #116]
 767:..\..\..\..\..\..\uCOS-III\Source/os_task.c ****                 if (OSTCBCurPtr->MsgQPendTimeMax < OSTCBCurPtr->MsgQPendTime) {
 1067              		.loc 1 767 0
 1068 015c 1E4B     		ldr	r3, .L91+4
 1069 015e 1B68     		ldr	r3, [r3]
 1070 0160 9A6F     		ldr	r2, [r3, #120]
 1071 0162 1D4B     		ldr	r3, .L91+4
 1072 0164 1B68     		ldr	r3, [r3]
 1073 0166 5B6F     		ldr	r3, [r3, #116]
 1074 0168 9A42     		cmp	r2, r3
 1075 016a 05D2     		bcs	.L85
 768:..\..\..\..\..\..\uCOS-III\Source/os_task.c ****                     OSTCBCurPtr->MsgQPendTimeMax = OSTCBCurPtr->MsgQPendTime;
 1076              		.loc 1 768 0
 1077 016c 1A4B     		ldr	r3, .L91+4
 1078 016e 1B68     		ldr	r3, [r3]
 1079 0170 194A     		ldr	r2, .L91+4
 1080 0172 1268     		ldr	r2, [r2]
 1081 0174 526F     		ldr	r2, [r2, #116]
 1082 0176 9A67     		str	r2, [r3, #120]
 1083              	.L85:
 769:..\..\..\..\..\..\uCOS-III\Source/os_task.c ****                 }
 770:..\..\..\..\..\..\uCOS-III\Source/os_task.c **** #endif
 771:..\..\..\..\..\..\uCOS-III\Source/os_task.c ****              }
 772:..\..\..\..\..\..\uCOS-III\Source/os_task.c ****             *p_err = OS_ERR_NONE;
 1084              		.loc 1 772 0
 1085 0178 3B6B     		ldr	r3, [r7, #48]
 1086 017a 0022     		movs	r2, #0
 1087 017c 1A80     		strh	r2, [r3]	@ movhi
 773:..\..\..\..\..\..\uCOS-III\Source/os_task.c ****              break;
 1088              		.loc 1 773 0
 1089 017e 21E0     		b	.L86
 1090              	.L84:
 774:..\..\..\..\..\..\uCOS-III\Source/os_task.c **** 
 775:..\..\..\..\..\..\uCOS-III\Source/os_task.c ****         case OS_STATUS_PEND_ABORT:                          /* Indicate that we aborted            
 776:..\..\..\..\..\..\uCOS-III\Source/os_task.c ****              p_void     = (void      *)0;
 1091              		.loc 1 776 0
 1092 0180 0023     		movs	r3, #0
 1093 0182 FB61     		str	r3, [r7, #28]
 777:..\..\..\..\..\..\uCOS-III\Source/os_task.c ****             *p_msg_size = (OS_MSG_SIZE)0;
 1094              		.loc 1 777 0
 1095 0184 7B68     		ldr	r3, [r7, #4]
 1096 0186 0022     		movs	r2, #0
 1097 0188 1A80     		strh	r2, [r3]	@ movhi
ARM GAS  C:\Users\Aluno\AppData\Local\Temp\ccHJiRYw.s 			page 34


 778:..\..\..\..\..\..\uCOS-III\Source/os_task.c ****              if (p_ts  != (CPU_TS *)0) {
 1098              		.loc 1 778 0
 1099 018a 3B68     		ldr	r3, [r7]
 1100 018c 002B     		cmp	r3, #0
 1101 018e 02D0     		beq	.L87
 779:..\..\..\..\..\..\uCOS-III\Source/os_task.c ****                 *p_ts   = (CPU_TS  )0;
 1102              		.loc 1 779 0
 1103 0190 3B68     		ldr	r3, [r7]
 1104 0192 0022     		movs	r2, #0
 1105 0194 1A60     		str	r2, [r3]
 1106              	.L87:
 780:..\..\..\..\..\..\uCOS-III\Source/os_task.c ****              }
 781:..\..\..\..\..\..\uCOS-III\Source/os_task.c ****             *p_err      =  OS_ERR_PEND_ABORT;
 1107              		.loc 1 781 0
 1108 0196 3B6B     		ldr	r3, [r7, #48]
 1109 0198 46F2A912 		movw	r2, #25001
 1110 019c 1A80     		strh	r2, [r3]	@ movhi
 782:..\..\..\..\..\..\uCOS-III\Source/os_task.c ****              break;
 1111              		.loc 1 782 0
 1112 019e 11E0     		b	.L86
 1113              	.L89:
 783:..\..\..\..\..\..\uCOS-III\Source/os_task.c **** 
 784:..\..\..\..\..\..\uCOS-III\Source/os_task.c ****         case OS_STATUS_PEND_TIMEOUT:                        /* Indicate that we didn't get event wi
 785:..\..\..\..\..\..\uCOS-III\Source/os_task.c ****         default:
 786:..\..\..\..\..\..\uCOS-III\Source/os_task.c ****              p_void     = (void      *)0;
 1114              		.loc 1 786 0
 1115 01a0 0023     		movs	r3, #0
 1116 01a2 FB61     		str	r3, [r7, #28]
 787:..\..\..\..\..\..\uCOS-III\Source/os_task.c ****             *p_msg_size = (OS_MSG_SIZE)0;
 1117              		.loc 1 787 0
 1118 01a4 7B68     		ldr	r3, [r7, #4]
 1119 01a6 0022     		movs	r2, #0
 1120 01a8 1A80     		strh	r2, [r3]	@ movhi
 788:..\..\..\..\..\..\uCOS-III\Source/os_task.c ****              if (p_ts  != (CPU_TS *)0) {
 1121              		.loc 1 788 0
 1122 01aa 3B68     		ldr	r3, [r7]
 1123 01ac 002B     		cmp	r3, #0
 1124 01ae 04D0     		beq	.L88
 789:..\..\..\..\..\..\uCOS-III\Source/os_task.c ****                 *p_ts   =  OSTCBCurPtr->TS;
 1125              		.loc 1 789 0
 1126 01b0 094B     		ldr	r3, .L91+4
 1127 01b2 1B68     		ldr	r3, [r3]
 1128 01b4 1A6C     		ldr	r2, [r3, #64]
 1129 01b6 3B68     		ldr	r3, [r7]
 1130 01b8 1A60     		str	r2, [r3]
 1131              	.L88:
 790:..\..\..\..\..\..\uCOS-III\Source/os_task.c ****              }
 791:..\..\..\..\..\..\uCOS-III\Source/os_task.c ****             *p_err      =  OS_ERR_TIMEOUT;
 1132              		.loc 1 791 0
 1133 01ba 3B6B     		ldr	r3, [r7, #48]
 1134 01bc 47F2D922 		movw	r2, #29401
 1135 01c0 1A80     		strh	r2, [r3]	@ movhi
 792:..\..\..\..\..\..\uCOS-III\Source/os_task.c ****              break;
 1136              		.loc 1 792 0
 1137 01c2 00BF     		nop
 1138              	.L86:
 793:..\..\..\..\..\..\uCOS-III\Source/os_task.c ****     }
ARM GAS  C:\Users\Aluno\AppData\Local\Temp\ccHJiRYw.s 			page 35


 794:..\..\..\..\..\..\uCOS-III\Source/os_task.c ****     CPU_CRITICAL_EXIT();
 1139              		.loc 1 794 0
 1140 01c4 B869     		ldr	r0, [r7, #24]
 1141 01c6 FFF7FEFF 		bl	CPU_SR_Restore
 795:..\..\..\..\..\..\uCOS-III\Source/os_task.c ****     return (p_void);                                        /* Return received message             
 1142              		.loc 1 795 0
 1143 01ca FB69     		ldr	r3, [r7, #28]
 1144              	.L72:
 796:..\..\..\..\..\..\uCOS-III\Source/os_task.c **** }
 1145              		.loc 1 796 0
 1146 01cc 1846     		mov	r0, r3
 1147 01ce 2437     		adds	r7, r7, #36
 1148              		.cfi_def_cfa_offset 12
 1149 01d0 BD46     		mov	sp, r7
 1150              		.cfi_def_cfa_register 13
 1151              		@ sp needed
 1152 01d2 90BD     		pop	{r4, r7, pc}
 1153              	.L92:
 1154              		.align	2
 1155              	.L91:
 1156 01d4 00000000 		.word	OSIntNestingCtr
 1157 01d8 00000000 		.word	OSTCBCurPtr
 1158 01dc 00000000 		.word	OSSchedLockNestingCtr
 1159              		.cfi_endproc
 1160              	.LFE4:
 1161              		.size	OSTaskQPend, .-OSTaskQPend
 1162              		.section	.text.OSTaskQPendAbort,"ax",%progbits
 1163              		.align	2
 1164              		.global	OSTaskQPendAbort
 1165              		.thumb
 1166              		.thumb_func
 1167              		.type	OSTaskQPendAbort, %function
 1168              	OSTaskQPendAbort:
 1169              	.LFB5:
 797:..\..\..\..\..\..\uCOS-III\Source/os_task.c **** #endif
 798:..\..\..\..\..\..\uCOS-III\Source/os_task.c **** 
 799:..\..\..\..\..\..\uCOS-III\Source/os_task.c **** /*$PAGE*/
 800:..\..\..\..\..\..\uCOS-III\Source/os_task.c **** /*
 801:..\..\..\..\..\..\uCOS-III\Source/os_task.c **** ***************************************************************************************************
 802:..\..\..\..\..\..\uCOS-III\Source/os_task.c **** *                                              ABORT WAITING FOR A MESSAGE
 803:..\..\..\..\..\..\uCOS-III\Source/os_task.c **** *
 804:..\..\..\..\..\..\uCOS-III\Source/os_task.c **** * Description: This function aborts & readies the task specified.  This function should be used to 
 805:..\..\..\..\..\..\uCOS-III\Source/os_task.c **** *              for a message, rather than to normally post the message to the task via OSTaskQPost(
 806:..\..\..\..\..\..\uCOS-III\Source/os_task.c **** *
 807:..\..\..\..\..\..\uCOS-III\Source/os_task.c **** * Arguments  : p_tcb     is a pointer to the task to pend abort
 808:..\..\..\..\..\..\uCOS-III\Source/os_task.c **** *
 809:..\..\..\..\..\..\uCOS-III\Source/os_task.c **** *              opt       provides options for this function:
 810:..\..\..\..\..\..\uCOS-III\Source/os_task.c **** *
 811:..\..\..\..\..\..\uCOS-III\Source/os_task.c **** *                            OS_OPT_POST_NONE         No option specified
 812:..\..\..\..\..\..\uCOS-III\Source/os_task.c **** *                            OS_OPT_POST_NO_SCHED     Indicates that the scheduler will not be call
 813:..\..\..\..\..\..\uCOS-III\Source/os_task.c **** *
 814:..\..\..\..\..\..\uCOS-III\Source/os_task.c **** *              p_err     is a pointer to a variable that will contain an error code returned by thi
 815:..\..\..\..\..\..\uCOS-III\Source/os_task.c **** *
 816:..\..\..\..\..\..\uCOS-III\Source/os_task.c **** *                            OS_ERR_NONE              If the task was readied and informed of the a
 817:..\..\..\..\..\..\uCOS-III\Source/os_task.c **** *                            OS_ERR_PEND_ABORT_ISR    If you called this function from an ISR
 818:..\..\..\..\..\..\uCOS-III\Source/os_task.c **** *                            OS_ERR_PEND_ABORT_NONE   If task was not pending on a message and thus
 819:..\..\..\..\..\..\uCOS-III\Source/os_task.c **** *                                                     abort.
ARM GAS  C:\Users\Aluno\AppData\Local\Temp\ccHJiRYw.s 			page 36


 820:..\..\..\..\..\..\uCOS-III\Source/os_task.c **** *                            OS_ERR_PEND_ABORT_SELF   If you passed a NULL pointer for 'p_tcb'
 821:..\..\..\..\..\..\uCOS-III\Source/os_task.c **** *
 822:..\..\..\..\..\..\uCOS-III\Source/os_task.c **** * Returns    : == DEF_FALSE   if task was not waiting for a message, or upon error.
 823:..\..\..\..\..\..\uCOS-III\Source/os_task.c **** *              == DEF_TRUE    if task was waiting for a message and was readied and informed.
 824:..\..\..\..\..\..\uCOS-III\Source/os_task.c **** ***************************************************************************************************
 825:..\..\..\..\..\..\uCOS-III\Source/os_task.c **** */
 826:..\..\..\..\..\..\uCOS-III\Source/os_task.c **** 
 827:..\..\..\..\..\..\uCOS-III\Source/os_task.c **** #if (OS_CFG_TASK_Q_EN > 0u) && (OS_CFG_TASK_Q_PEND_ABORT_EN > 0u)
 828:..\..\..\..\..\..\uCOS-III\Source/os_task.c **** CPU_BOOLEAN  OSTaskQPendAbort (OS_TCB  *p_tcb,
 829:..\..\..\..\..\..\uCOS-III\Source/os_task.c ****                                OS_OPT   opt,
 830:..\..\..\..\..\..\uCOS-III\Source/os_task.c ****                                OS_ERR  *p_err)
 831:..\..\..\..\..\..\uCOS-III\Source/os_task.c **** {
 1170              		.loc 1 831 0
 1171              		.cfi_startproc
 1172              		@ args = 0, pretend = 0, frame = 24
 1173              		@ frame_needed = 1, uses_anonymous_args = 0
 1174 0000 80B5     		push	{r7, lr}
 1175              		.cfi_def_cfa_offset 8
 1176              		.cfi_offset 7, -8
 1177              		.cfi_offset 14, -4
 1178 0002 86B0     		sub	sp, sp, #24
 1179              		.cfi_def_cfa_offset 32
 1180 0004 00AF     		add	r7, sp, #0
 1181              		.cfi_def_cfa_register 7
 1182 0006 F860     		str	r0, [r7, #12]
 1183 0008 0B46     		mov	r3, r1
 1184 000a 7A60     		str	r2, [r7, #4]
 1185 000c 7B81     		strh	r3, [r7, #10]	@ movhi
 832:..\..\..\..\..\..\uCOS-III\Source/os_task.c ****     CPU_TS         ts;
 833:..\..\..\..\..\..\uCOS-III\Source/os_task.c ****     CPU_SR_ALLOC();
 1186              		.loc 1 833 0
 1187 000e 0023     		movs	r3, #0
 1188 0010 7B61     		str	r3, [r7, #20]
 834:..\..\..\..\..\..\uCOS-III\Source/os_task.c **** 
 835:..\..\..\..\..\..\uCOS-III\Source/os_task.c **** 
 836:..\..\..\..\..\..\uCOS-III\Source/os_task.c **** 
 837:..\..\..\..\..\..\uCOS-III\Source/os_task.c **** #ifdef OS_SAFETY_CRITICAL
 838:..\..\..\..\..\..\uCOS-III\Source/os_task.c ****     if (p_err == (OS_ERR *)0) {
 839:..\..\..\..\..\..\uCOS-III\Source/os_task.c ****         OS_SAFETY_CRITICAL_EXCEPTION();
 840:..\..\..\..\..\..\uCOS-III\Source/os_task.c ****         return (DEF_FALSE);
 841:..\..\..\..\..\..\uCOS-III\Source/os_task.c ****     }
 842:..\..\..\..\..\..\uCOS-III\Source/os_task.c **** #endif
 843:..\..\..\..\..\..\uCOS-III\Source/os_task.c **** 
 844:..\..\..\..\..\..\uCOS-III\Source/os_task.c **** #if OS_CFG_CALLED_FROM_ISR_CHK_EN > 0u
 845:..\..\..\..\..\..\uCOS-III\Source/os_task.c ****     if (OSIntNestingCtr > (OS_NESTING_CTR)0) {              /* See if called from ISR ...          
 1189              		.loc 1 845 0
 1190 0012 294B     		ldr	r3, .L104
 1191 0014 1B78     		ldrb	r3, [r3]	@ zero_extendqisi2
 1192 0016 002B     		cmp	r3, #0
 1193 0018 05D0     		beq	.L94
 846:..\..\..\..\..\..\uCOS-III\Source/os_task.c ****        *p_err = OS_ERR_PEND_ABORT_ISR;                      /* ... can't Pend Abort from an ISR    
 1194              		.loc 1 846 0
 1195 001a 7B68     		ldr	r3, [r7, #4]
 1196 001c 46F2AA12 		movw	r2, #25002
 1197 0020 1A80     		strh	r2, [r3]	@ movhi
 847:..\..\..\..\..\..\uCOS-III\Source/os_task.c ****         return (DEF_FALSE);
 1198              		.loc 1 847 0
ARM GAS  C:\Users\Aluno\AppData\Local\Temp\ccHJiRYw.s 			page 37


 1199 0022 0023     		movs	r3, #0
 1200 0024 43E0     		b	.L95
 1201              	.L94:
 848:..\..\..\..\..\..\uCOS-III\Source/os_task.c ****     }
 849:..\..\..\..\..\..\uCOS-III\Source/os_task.c **** #endif
 850:..\..\..\..\..\..\uCOS-III\Source/os_task.c **** 
 851:..\..\..\..\..\..\uCOS-III\Source/os_task.c **** #if OS_CFG_ARG_CHK_EN > 0u                                  /* ---------------- VALIDATE ARGUMENTS 
 852:..\..\..\..\..\..\uCOS-III\Source/os_task.c ****     switch (opt) {                                          /* User must supply a valid option     
 1202              		.loc 1 852 0
 1203 0026 7B89     		ldrh	r3, [r7, #10]
 1204 0028 002B     		cmp	r3, #0
 1205 002a 08D0     		beq	.L103
 1206 002c B3F5004F 		cmp	r3, #32768
 1207 0030 05D0     		beq	.L103
 853:..\..\..\..\..\..\uCOS-III\Source/os_task.c ****         case OS_OPT_POST_NONE:
 854:..\..\..\..\..\..\uCOS-III\Source/os_task.c ****         case OS_OPT_POST_NO_SCHED:
 855:..\..\..\..\..\..\uCOS-III\Source/os_task.c ****              break;
 856:..\..\..\..\..\..\uCOS-III\Source/os_task.c **** 
 857:..\..\..\..\..\..\uCOS-III\Source/os_task.c ****         default:
 858:..\..\..\..\..\..\uCOS-III\Source/os_task.c ****             *p_err = OS_ERR_OPT_INVALID;
 1208              		.loc 1 858 0
 1209 0032 7B68     		ldr	r3, [r7, #4]
 1210 0034 45F62562 		movw	r2, #24101
 1211 0038 1A80     		strh	r2, [r3]	@ movhi
 859:..\..\..\..\..\..\uCOS-III\Source/os_task.c ****              return (DEF_FALSE);
 1212              		.loc 1 859 0
 1213 003a 0023     		movs	r3, #0
 1214 003c 37E0     		b	.L95
 1215              	.L103:
 855:..\..\..\..\..\..\uCOS-III\Source/os_task.c **** 
 1216              		.loc 1 855 0
 1217 003e 00BF     		nop
 860:..\..\..\..\..\..\uCOS-III\Source/os_task.c ****     }
 861:..\..\..\..\..\..\uCOS-III\Source/os_task.c **** #endif
 862:..\..\..\..\..\..\uCOS-III\Source/os_task.c **** 
 863:..\..\..\..\..\..\uCOS-III\Source/os_task.c ****     CPU_CRITICAL_ENTER();
 1218              		.loc 1 863 0
 1219 0040 FFF7FEFF 		bl	CPU_SR_Save
 1220 0044 7861     		str	r0, [r7, #20]
 864:..\..\..\..\..\..\uCOS-III\Source/os_task.c **** #if OS_CFG_ARG_CHK_EN > 0u
 865:..\..\..\..\..\..\uCOS-III\Source/os_task.c ****     if ((p_tcb == (OS_TCB *)0) ||                           /* Pend abort self?                    
 1221              		.loc 1 865 0
 1222 0046 FB68     		ldr	r3, [r7, #12]
 1223 0048 002B     		cmp	r3, #0
 1224 004a 04D0     		beq	.L99
 866:..\..\..\..\..\..\uCOS-III\Source/os_task.c ****         (p_tcb == OSTCBCurPtr)) {
 1225              		.loc 1 866 0 discriminator 1
 1226 004c 1B4B     		ldr	r3, .L104+4
 1227 004e 1B68     		ldr	r3, [r3]
 865:..\..\..\..\..\..\uCOS-III\Source/os_task.c ****         (p_tcb == OSTCBCurPtr)) {
 1228              		.loc 1 865 0 discriminator 1
 1229 0050 FA68     		ldr	r2, [r7, #12]
 1230 0052 9A42     		cmp	r2, r3
 1231 0054 08D1     		bne	.L100
 1232              	.L99:
 867:..\..\..\..\..\..\uCOS-III\Source/os_task.c ****         CPU_CRITICAL_EXIT();
 1233              		.loc 1 867 0
ARM GAS  C:\Users\Aluno\AppData\Local\Temp\ccHJiRYw.s 			page 38


 1234 0056 7869     		ldr	r0, [r7, #20]
 1235 0058 FFF7FEFF 		bl	CPU_SR_Restore
 868:..\..\..\..\..\..\uCOS-III\Source/os_task.c ****        *p_err = OS_ERR_PEND_ABORT_SELF;                     /* ... doesn't make sense              
 1236              		.loc 1 868 0
 1237 005c 7B68     		ldr	r3, [r7, #4]
 1238 005e 46F2AC12 		movw	r2, #25004
 1239 0062 1A80     		strh	r2, [r3]	@ movhi
 869:..\..\..\..\..\..\uCOS-III\Source/os_task.c ****         return (DEF_FALSE);
 1240              		.loc 1 869 0
 1241 0064 0023     		movs	r3, #0
 1242 0066 22E0     		b	.L95
 1243              	.L100:
 870:..\..\..\..\..\..\uCOS-III\Source/os_task.c ****     }
 871:..\..\..\..\..\..\uCOS-III\Source/os_task.c **** #endif
 872:..\..\..\..\..\..\uCOS-III\Source/os_task.c **** 
 873:..\..\..\..\..\..\uCOS-III\Source/os_task.c ****     if (p_tcb->PendOn != OS_TASK_PEND_ON_TASK_Q) {          /* Is task waiting for a message?      
 1244              		.loc 1 873 0
 1245 0068 FB68     		ldr	r3, [r7, #12]
 1246 006a 93F83430 		ldrb	r3, [r3, #52]	@ zero_extendqisi2
 1247 006e 022B     		cmp	r3, #2
 1248 0070 08D0     		beq	.L101
 874:..\..\..\..\..\..\uCOS-III\Source/os_task.c ****         CPU_CRITICAL_EXIT();                                /* No                                  
 1249              		.loc 1 874 0
 1250 0072 7869     		ldr	r0, [r7, #20]
 1251 0074 FFF7FEFF 		bl	CPU_SR_Restore
 875:..\..\..\..\..\..\uCOS-III\Source/os_task.c ****        *p_err = OS_ERR_PEND_ABORT_NONE;
 1252              		.loc 1 875 0
 1253 0078 7B68     		ldr	r3, [r7, #4]
 1254 007a 46F2AB12 		movw	r2, #25003
 1255 007e 1A80     		strh	r2, [r3]	@ movhi
 876:..\..\..\..\..\..\uCOS-III\Source/os_task.c ****         return (DEF_FALSE);
 1256              		.loc 1 876 0
 1257 0080 0023     		movs	r3, #0
 1258 0082 14E0     		b	.L95
 1259              	.L101:
 877:..\..\..\..\..\..\uCOS-III\Source/os_task.c ****     }
 878:..\..\..\..\..\..\uCOS-III\Source/os_task.c **** 
 879:..\..\..\..\..\..\uCOS-III\Source/os_task.c ****     OS_CRITICAL_ENTER_CPU_EXIT();
 880:..\..\..\..\..\..\uCOS-III\Source/os_task.c ****     ts = OS_TS_GET();                                       /* Get timestamp of when the abort occu
 1260              		.loc 1 880 0
 1261 0084 FFF7FEFF 		bl	CPU_TS_TmrRd
 1262 0088 3861     		str	r0, [r7, #16]
 881:..\..\..\..\..\..\uCOS-III\Source/os_task.c ****     OS_PendAbort((OS_PEND_OBJ *)0,                          /* Abort the pend                      
 1263              		.loc 1 881 0
 1264 008a 3A69     		ldr	r2, [r7, #16]
 1265 008c F968     		ldr	r1, [r7, #12]
 1266 008e 0020     		movs	r0, #0
 1267 0090 FFF7FEFF 		bl	OS_PendAbort
 882:..\..\..\..\..\..\uCOS-III\Source/os_task.c ****                  p_tcb,
 883:..\..\..\..\..\..\uCOS-III\Source/os_task.c ****                  ts);
 884:..\..\..\..\..\..\uCOS-III\Source/os_task.c ****     OS_CRITICAL_EXIT_NO_SCHED();
 1268              		.loc 1 884 0
 1269 0094 7869     		ldr	r0, [r7, #20]
 1270 0096 FFF7FEFF 		bl	CPU_SR_Restore
 885:..\..\..\..\..\..\uCOS-III\Source/os_task.c ****     if ((opt & OS_OPT_POST_NO_SCHED) == (OS_OPT)0) {
 1271              		.loc 1 885 0
 1272 009a B7F90A30 		ldrsh	r3, [r7, #10]
ARM GAS  C:\Users\Aluno\AppData\Local\Temp\ccHJiRYw.s 			page 39


 1273 009e 002B     		cmp	r3, #0
 1274 00a0 01DB     		blt	.L102
 886:..\..\..\..\..\..\uCOS-III\Source/os_task.c ****         OSSched();                                          /* Run the scheduler                   
 1275              		.loc 1 886 0
 1276 00a2 FFF7FEFF 		bl	OSSched
 1277              	.L102:
 887:..\..\..\..\..\..\uCOS-III\Source/os_task.c ****     }
 888:..\..\..\..\..\..\uCOS-III\Source/os_task.c ****    *p_err = OS_ERR_NONE;
 1278              		.loc 1 888 0
 1279 00a6 7B68     		ldr	r3, [r7, #4]
 1280 00a8 0022     		movs	r2, #0
 1281 00aa 1A80     		strh	r2, [r3]	@ movhi
 889:..\..\..\..\..\..\uCOS-III\Source/os_task.c ****     return (DEF_TRUE);
 1282              		.loc 1 889 0
 1283 00ac 0123     		movs	r3, #1
 1284              	.L95:
 890:..\..\..\..\..\..\uCOS-III\Source/os_task.c **** }
 1285              		.loc 1 890 0
 1286 00ae 1846     		mov	r0, r3
 1287 00b0 1837     		adds	r7, r7, #24
 1288              		.cfi_def_cfa_offset 8
 1289 00b2 BD46     		mov	sp, r7
 1290              		.cfi_def_cfa_register 13
 1291              		@ sp needed
 1292 00b4 80BD     		pop	{r7, pc}
 1293              	.L105:
 1294 00b6 00BF     		.align	2
 1295              	.L104:
 1296 00b8 00000000 		.word	OSIntNestingCtr
 1297 00bc 00000000 		.word	OSTCBCurPtr
 1298              		.cfi_endproc
 1299              	.LFE5:
 1300              		.size	OSTaskQPendAbort, .-OSTaskQPendAbort
 1301              		.section	.text.OSTaskQPost,"ax",%progbits
 1302              		.align	2
 1303              		.global	OSTaskQPost
 1304              		.thumb
 1305              		.thumb_func
 1306              		.type	OSTaskQPost, %function
 1307              	OSTaskQPost:
 1308              	.LFB6:
 891:..\..\..\..\..\..\uCOS-III\Source/os_task.c **** #endif
 892:..\..\..\..\..\..\uCOS-III\Source/os_task.c **** 
 893:..\..\..\..\..\..\uCOS-III\Source/os_task.c **** /*$PAGE*/
 894:..\..\..\..\..\..\uCOS-III\Source/os_task.c **** /*
 895:..\..\..\..\..\..\uCOS-III\Source/os_task.c **** ***************************************************************************************************
 896:..\..\..\..\..\..\uCOS-III\Source/os_task.c **** *                                               POST MESSAGE TO A TASK
 897:..\..\..\..\..\..\uCOS-III\Source/os_task.c **** *
 898:..\..\..\..\..\..\uCOS-III\Source/os_task.c **** * Description: This function sends a message to a task
 899:..\..\..\..\..\..\uCOS-III\Source/os_task.c **** *
 900:..\..\..\..\..\..\uCOS-III\Source/os_task.c **** * Arguments  : p_tcb      is a pointer to the TCB of the task receiving a message.  If you specify 
 901:..\..\..\..\..\..\uCOS-III\Source/os_task.c **** *                         the message will be posted to the task's queue of the calling task.  In o
 902:..\..\..\..\..\..\uCOS-III\Source/os_task.c **** *                         posting a message to yourself.
 903:..\..\..\..\..\..\uCOS-III\Source/os_task.c **** *
 904:..\..\..\..\..\..\uCOS-III\Source/os_task.c **** *              p_void     is a pointer to the message to send.
 905:..\..\..\..\..\..\uCOS-III\Source/os_task.c **** *
 906:..\..\..\..\..\..\uCOS-III\Source/os_task.c **** *              msg_size   is the size of the message sent (in #bytes)
ARM GAS  C:\Users\Aluno\AppData\Local\Temp\ccHJiRYw.s 			page 40


 907:..\..\..\..\..\..\uCOS-III\Source/os_task.c **** *
 908:..\..\..\..\..\..\uCOS-III\Source/os_task.c **** *              opt        specifies whether the post will be FIFO or LIFO:
 909:..\..\..\..\..\..\uCOS-III\Source/os_task.c **** *
 910:..\..\..\..\..\..\uCOS-III\Source/os_task.c **** *                             OS_OPT_POST_FIFO       Post at the end   of the queue
 911:..\..\..\..\..\..\uCOS-III\Source/os_task.c **** *                             OS_OPT_POST_LIFO       Post at the front of the queue
 912:..\..\..\..\..\..\uCOS-III\Source/os_task.c **** *
 913:..\..\..\..\..\..\uCOS-III\Source/os_task.c **** *                             OS_OPT_POST_NO_SCHED   Do not run the scheduler after the post
 914:..\..\..\..\..\..\uCOS-III\Source/os_task.c **** *
 915:..\..\..\..\..\..\uCOS-III\Source/os_task.c **** *                          Note(s): 1) OS_OPT_POST_NO_SCHED can be added with one of the other opti
 916:..\..\..\..\..\..\uCOS-III\Source/os_task.c **** *
 917:..\..\..\..\..\..\uCOS-III\Source/os_task.c **** *
 918:..\..\..\..\..\..\uCOS-III\Source/os_task.c **** *              p_err      is a pointer to a variable that will hold the error code associated
 919:..\..\..\..\..\..\uCOS-III\Source/os_task.c **** *                         with the outcome of this call.  Errors can be:
 920:..\..\..\..\..\..\uCOS-III\Source/os_task.c **** *
 921:..\..\..\..\..\..\uCOS-III\Source/os_task.c **** *                             OS_ERR_NONE            The call was successful and the message was se
 922:..\..\..\..\..\..\uCOS-III\Source/os_task.c **** *                             OS_ERR_Q_MAX           If the queue is full
 923:..\..\..\..\..\..\uCOS-III\Source/os_task.c **** *                             OS_ERR_MSG_POOL_EMPTY  If there are no more OS_MSGs available from th
 924:..\..\..\..\..\..\uCOS-III\Source/os_task.c **** *
 925:..\..\..\..\..\..\uCOS-III\Source/os_task.c **** * Returns    : none
 926:..\..\..\..\..\..\uCOS-III\Source/os_task.c **** ***************************************************************************************************
 927:..\..\..\..\..\..\uCOS-III\Source/os_task.c **** */
 928:..\..\..\..\..\..\uCOS-III\Source/os_task.c **** 
 929:..\..\..\..\..\..\uCOS-III\Source/os_task.c **** #if OS_CFG_TASK_Q_EN > 0u
 930:..\..\..\..\..\..\uCOS-III\Source/os_task.c **** void  OSTaskQPost (OS_TCB       *p_tcb,
 931:..\..\..\..\..\..\uCOS-III\Source/os_task.c ****                    void         *p_void,
 932:..\..\..\..\..\..\uCOS-III\Source/os_task.c ****                    OS_MSG_SIZE   msg_size,
 933:..\..\..\..\..\..\uCOS-III\Source/os_task.c ****                    OS_OPT        opt,
 934:..\..\..\..\..\..\uCOS-III\Source/os_task.c ****                    OS_ERR       *p_err)
 935:..\..\..\..\..\..\uCOS-III\Source/os_task.c **** {
 1309              		.loc 1 935 0
 1310              		.cfi_startproc
 1311              		@ args = 4, pretend = 0, frame = 24
 1312              		@ frame_needed = 1, uses_anonymous_args = 0
 1313 0000 80B5     		push	{r7, lr}
 1314              		.cfi_def_cfa_offset 8
 1315              		.cfi_offset 7, -8
 1316              		.cfi_offset 14, -4
 1317 0002 88B0     		sub	sp, sp, #32
 1318              		.cfi_def_cfa_offset 40
 1319 0004 02AF     		add	r7, sp, #8
 1320              		.cfi_def_cfa 7, 32
 1321 0006 F860     		str	r0, [r7, #12]
 1322 0008 B960     		str	r1, [r7, #8]
 1323 000a 1146     		mov	r1, r2
 1324 000c 1A46     		mov	r2, r3
 1325 000e 0B46     		mov	r3, r1	@ movhi
 1326 0010 FB80     		strh	r3, [r7, #6]	@ movhi
 1327 0012 1346     		mov	r3, r2	@ movhi
 1328 0014 BB80     		strh	r3, [r7, #4]	@ movhi
 936:..\..\..\..\..\..\uCOS-III\Source/os_task.c ****     CPU_TS   ts;
 937:..\..\..\..\..\..\uCOS-III\Source/os_task.c **** 
 938:..\..\..\..\..\..\uCOS-III\Source/os_task.c **** 
 939:..\..\..\..\..\..\uCOS-III\Source/os_task.c **** 
 940:..\..\..\..\..\..\uCOS-III\Source/os_task.c **** #ifdef OS_SAFETY_CRITICAL
 941:..\..\..\..\..\..\uCOS-III\Source/os_task.c ****     if (p_err == (OS_ERR *)0) {
 942:..\..\..\..\..\..\uCOS-III\Source/os_task.c ****         OS_SAFETY_CRITICAL_EXCEPTION();
 943:..\..\..\..\..\..\uCOS-III\Source/os_task.c ****         return;
ARM GAS  C:\Users\Aluno\AppData\Local\Temp\ccHJiRYw.s 			page 41


 944:..\..\..\..\..\..\uCOS-III\Source/os_task.c ****     }
 945:..\..\..\..\..\..\uCOS-III\Source/os_task.c **** #endif
 946:..\..\..\..\..\..\uCOS-III\Source/os_task.c **** 
 947:..\..\..\..\..\..\uCOS-III\Source/os_task.c **** #if OS_CFG_ARG_CHK_EN > 0u                                  /* ---------------- VALIDATE ARGUMENTS 
 948:..\..\..\..\..\..\uCOS-III\Source/os_task.c ****     switch (opt) {                                          /* User must supply a valid option     
 1329              		.loc 1 948 0
 1330 0016 BB88     		ldrh	r3, [r7, #4]
 1331 0018 102B     		cmp	r3, #16
 1332 001a 10D0     		beq	.L112
 1333 001c 102B     		cmp	r3, #16
 1334 001e 02DC     		bgt	.L109
 1335 0020 002B     		cmp	r3, #0
 1336 0022 0CD0     		beq	.L112
 1337 0024 06E0     		b	.L107
 1338              	.L109:
 1339 0026 B3F5004F 		cmp	r3, #32768
 1340 002a 08D0     		beq	.L112
 1341 002c 48F21002 		movw	r2, #32784
 1342 0030 9342     		cmp	r3, r2
 1343 0032 04D0     		beq	.L112
 1344              	.L107:
 949:..\..\..\..\..\..\uCOS-III\Source/os_task.c ****         case OS_OPT_POST_FIFO:
 950:..\..\..\..\..\..\uCOS-III\Source/os_task.c ****         case OS_OPT_POST_LIFO:
 951:..\..\..\..\..\..\uCOS-III\Source/os_task.c ****         case OS_OPT_POST_FIFO | OS_OPT_POST_NO_SCHED:
 952:..\..\..\..\..\..\uCOS-III\Source/os_task.c ****         case OS_OPT_POST_LIFO | OS_OPT_POST_NO_SCHED:
 953:..\..\..\..\..\..\uCOS-III\Source/os_task.c ****              break;
 954:..\..\..\..\..\..\uCOS-III\Source/os_task.c **** 
 955:..\..\..\..\..\..\uCOS-III\Source/os_task.c ****         default:
 956:..\..\..\..\..\..\uCOS-III\Source/os_task.c ****             *p_err = OS_ERR_OPT_INVALID;
 1345              		.loc 1 956 0
 1346 0034 3B6A     		ldr	r3, [r7, #32]
 1347 0036 45F62562 		movw	r2, #24101
 1348 003a 1A80     		strh	r2, [r3]	@ movhi
 957:..\..\..\..\..\..\uCOS-III\Source/os_task.c ****              return;
 1349              		.loc 1 957 0
 1350 003c 0EE0     		b	.L106
 1351              	.L112:
 953:..\..\..\..\..\..\uCOS-III\Source/os_task.c **** 
 1352              		.loc 1 953 0
 1353 003e 00BF     		nop
 958:..\..\..\..\..\..\uCOS-III\Source/os_task.c ****     }
 959:..\..\..\..\..\..\uCOS-III\Source/os_task.c **** #endif
 960:..\..\..\..\..\..\uCOS-III\Source/os_task.c **** 
 961:..\..\..\..\..\..\uCOS-III\Source/os_task.c ****     ts = OS_TS_GET();                                       /* Get timestamp                       
 1354              		.loc 1 961 0
 1355 0040 FFF7FEFF 		bl	CPU_TS_TmrRd
 1356 0044 7861     		str	r0, [r7, #20]
 962:..\..\..\..\..\..\uCOS-III\Source/os_task.c **** 
 963:..\..\..\..\..\..\uCOS-III\Source/os_task.c **** #if OS_CFG_ISR_POST_DEFERRED_EN > 0u
 964:..\..\..\..\..\..\uCOS-III\Source/os_task.c ****     if (OSIntNestingCtr > (OS_NESTING_CTR)0) {
 965:..\..\..\..\..\..\uCOS-III\Source/os_task.c ****         OS_IntQPost((OS_OBJ_TYPE)OS_OBJ_TYPE_TASK_MSG,      /* Post to ISR queue                   
 966:..\..\..\..\..\..\uCOS-III\Source/os_task.c ****                     (void      *)p_tcb,
 967:..\..\..\..\..\..\uCOS-III\Source/os_task.c ****                     (void      *)p_void,
 968:..\..\..\..\..\..\uCOS-III\Source/os_task.c ****                     (OS_MSG_SIZE)msg_size,
 969:..\..\..\..\..\..\uCOS-III\Source/os_task.c ****                     (OS_FLAGS   )0,
 970:..\..\..\..\..\..\uCOS-III\Source/os_task.c ****                     (OS_OPT     )opt,
 971:..\..\..\..\..\..\uCOS-III\Source/os_task.c ****                     (CPU_TS     )ts,
ARM GAS  C:\Users\Aluno\AppData\Local\Temp\ccHJiRYw.s 			page 42


 972:..\..\..\..\..\..\uCOS-III\Source/os_task.c ****                     (OS_ERR    *)p_err);
 973:..\..\..\..\..\..\uCOS-III\Source/os_task.c ****         return;
 974:..\..\..\..\..\..\uCOS-III\Source/os_task.c ****     }
 975:..\..\..\..\..\..\uCOS-III\Source/os_task.c **** #endif
 976:..\..\..\..\..\..\uCOS-III\Source/os_task.c **** 
 977:..\..\..\..\..\..\uCOS-III\Source/os_task.c ****     OS_TaskQPost(p_tcb,
 1357              		.loc 1 977 0
 1358 0046 B988     		ldrh	r1, [r7, #4]
 1359 0048 FA88     		ldrh	r2, [r7, #6]
 1360 004a 3B6A     		ldr	r3, [r7, #32]
 1361 004c 0193     		str	r3, [sp, #4]
 1362 004e 7B69     		ldr	r3, [r7, #20]
 1363 0050 0093     		str	r3, [sp]
 1364 0052 0B46     		mov	r3, r1
 1365 0054 B968     		ldr	r1, [r7, #8]
 1366 0056 F868     		ldr	r0, [r7, #12]
 1367 0058 FFF7FEFF 		bl	OS_TaskQPost
 1368              	.L106:
 978:..\..\..\..\..\..\uCOS-III\Source/os_task.c ****                  p_void,
 979:..\..\..\..\..\..\uCOS-III\Source/os_task.c ****                  msg_size,
 980:..\..\..\..\..\..\uCOS-III\Source/os_task.c ****                  opt,
 981:..\..\..\..\..\..\uCOS-III\Source/os_task.c ****                  ts,
 982:..\..\..\..\..\..\uCOS-III\Source/os_task.c ****                  p_err);
 983:..\..\..\..\..\..\uCOS-III\Source/os_task.c **** }
 1369              		.loc 1 983 0
 1370 005c 1837     		adds	r7, r7, #24
 1371              		.cfi_def_cfa_offset 8
 1372 005e BD46     		mov	sp, r7
 1373              		.cfi_def_cfa_register 13
 1374              		@ sp needed
 1375 0060 80BD     		pop	{r7, pc}
 1376              		.cfi_endproc
 1377              	.LFE6:
 1378              		.size	OSTaskQPost, .-OSTaskQPost
 1379 0062 00BF     		.section	.text.OSTaskRegGet,"ax",%progbits
 1380              		.align	2
 1381              		.global	OSTaskRegGet
 1382              		.thumb
 1383              		.thumb_func
 1384              		.type	OSTaskRegGet, %function
 1385              	OSTaskRegGet:
 1386              	.LFB7:
 984:..\..\..\..\..\..\uCOS-III\Source/os_task.c **** #endif
 985:..\..\..\..\..\..\uCOS-III\Source/os_task.c **** 
 986:..\..\..\..\..\..\uCOS-III\Source/os_task.c **** /*$PAGE*/
 987:..\..\..\..\..\..\uCOS-III\Source/os_task.c **** /*
 988:..\..\..\..\..\..\uCOS-III\Source/os_task.c **** ***************************************************************************************************
 989:..\..\..\..\..\..\uCOS-III\Source/os_task.c **** *                                       GET THE CURRENT VALUE OF A TASK REGISTER
 990:..\..\..\..\..\..\uCOS-III\Source/os_task.c **** *
 991:..\..\..\..\..\..\uCOS-III\Source/os_task.c **** * Description: This function is called to obtain the current value of a task register.  Task regist
 992:..\..\..\..\..\..\uCOS-III\Source/os_task.c **** *              specific and can be used to store task specific values such as 'error numbers' (i.e.
 993:..\..\..\..\..\..\uCOS-III\Source/os_task.c **** *              etc.
 994:..\..\..\..\..\..\uCOS-III\Source/os_task.c **** *
 995:..\..\..\..\..\..\uCOS-III\Source/os_task.c **** * Arguments  : p_tcb     is a pointer to the OS_TCB of the task you want to read the register from.
 996:..\..\..\..\..\..\uCOS-III\Source/os_task.c **** *                        NULL pointer then you will get the register of the current task.
 997:..\..\..\..\..\..\uCOS-III\Source/os_task.c **** *
 998:..\..\..\..\..\..\uCOS-III\Source/os_task.c **** *              id        is the 'id' of the desired task variable.  Note that the 'id' must be less
ARM GAS  C:\Users\Aluno\AppData\Local\Temp\ccHJiRYw.s 			page 43


 999:..\..\..\..\..\..\uCOS-III\Source/os_task.c **** *                        OS_CFG_TASK_REG_TBL_SIZE
1000:..\..\..\..\..\..\uCOS-III\Source/os_task.c **** *
1001:..\..\..\..\..\..\uCOS-III\Source/os_task.c **** *              p_err     is a pointer to a variable that will hold an error code related to this ca
1002:..\..\..\..\..\..\uCOS-III\Source/os_task.c **** *
1003:..\..\..\..\..\..\uCOS-III\Source/os_task.c **** *                            OS_ERR_NONE            if the call was successful
1004:..\..\..\..\..\..\uCOS-III\Source/os_task.c **** *                            OS_ERR_REG_ID_INVALID  if the 'id' is not between 0 and OS_CFG_TASK_RE
1005:..\..\..\..\..\..\uCOS-III\Source/os_task.c **** *
1006:..\..\..\..\..\..\uCOS-III\Source/os_task.c **** * Returns    : The current value of the task's register or 0 if an error is detected.
1007:..\..\..\..\..\..\uCOS-III\Source/os_task.c **** ***************************************************************************************************
1008:..\..\..\..\..\..\uCOS-III\Source/os_task.c **** */
1009:..\..\..\..\..\..\uCOS-III\Source/os_task.c **** 
1010:..\..\..\..\..\..\uCOS-III\Source/os_task.c **** #if OS_CFG_TASK_REG_TBL_SIZE > 0u
1011:..\..\..\..\..\..\uCOS-III\Source/os_task.c **** OS_REG  OSTaskRegGet (OS_TCB     *p_tcb,
1012:..\..\..\..\..\..\uCOS-III\Source/os_task.c ****                       OS_REG_ID   id,
1013:..\..\..\..\..\..\uCOS-III\Source/os_task.c ****                       OS_ERR     *p_err)
1014:..\..\..\..\..\..\uCOS-III\Source/os_task.c **** {
 1387              		.loc 1 1014 0
 1388              		.cfi_startproc
 1389              		@ args = 0, pretend = 0, frame = 24
 1390              		@ frame_needed = 1, uses_anonymous_args = 0
 1391 0000 80B5     		push	{r7, lr}
 1392              		.cfi_def_cfa_offset 8
 1393              		.cfi_offset 7, -8
 1394              		.cfi_offset 14, -4
 1395 0002 86B0     		sub	sp, sp, #24
 1396              		.cfi_def_cfa_offset 32
 1397 0004 00AF     		add	r7, sp, #0
 1398              		.cfi_def_cfa_register 7
 1399 0006 F860     		str	r0, [r7, #12]
 1400 0008 0B46     		mov	r3, r1
 1401 000a 7A60     		str	r2, [r7, #4]
 1402 000c FB72     		strb	r3, [r7, #11]
1015:..\..\..\..\..\..\uCOS-III\Source/os_task.c ****     OS_REG     value;
1016:..\..\..\..\..\..\uCOS-III\Source/os_task.c ****     CPU_SR_ALLOC();
 1403              		.loc 1 1016 0
 1404 000e 0023     		movs	r3, #0
 1405 0010 7B61     		str	r3, [r7, #20]
1017:..\..\..\..\..\..\uCOS-III\Source/os_task.c **** 
1018:..\..\..\..\..\..\uCOS-III\Source/os_task.c **** 
1019:..\..\..\..\..\..\uCOS-III\Source/os_task.c **** 
1020:..\..\..\..\..\..\uCOS-III\Source/os_task.c **** #ifdef OS_SAFETY_CRITICAL
1021:..\..\..\..\..\..\uCOS-III\Source/os_task.c ****     if (p_err == (OS_ERR *)0) {
1022:..\..\..\..\..\..\uCOS-III\Source/os_task.c ****         OS_SAFETY_CRITICAL_EXCEPTION();
1023:..\..\..\..\..\..\uCOS-III\Source/os_task.c ****         return ((OS_REG)0);
1024:..\..\..\..\..\..\uCOS-III\Source/os_task.c ****     }
1025:..\..\..\..\..\..\uCOS-III\Source/os_task.c **** #endif
1026:..\..\..\..\..\..\uCOS-III\Source/os_task.c **** 
1027:..\..\..\..\..\..\uCOS-III\Source/os_task.c **** #if OS_CFG_ARG_CHK_EN > 0u
1028:..\..\..\..\..\..\uCOS-III\Source/os_task.c ****     if (id >= OS_CFG_TASK_REG_TBL_SIZE) {
 1406              		.loc 1 1028 0
 1407 0012 FB7A     		ldrb	r3, [r7, #11]	@ zero_extendqisi2
 1408 0014 002B     		cmp	r3, #0
 1409 0016 05D0     		beq	.L114
1029:..\..\..\..\..\..\uCOS-III\Source/os_task.c ****        *p_err = OS_ERR_REG_ID_INVALID;
 1410              		.loc 1 1029 0
 1411 0018 7B68     		ldr	r3, [r7, #4]
 1412 001a 46F67912 		movw	r2, #27001
ARM GAS  C:\Users\Aluno\AppData\Local\Temp\ccHJiRYw.s 			page 44


 1413 001e 1A80     		strh	r2, [r3]	@ movhi
1030:..\..\..\..\..\..\uCOS-III\Source/os_task.c ****         return ((OS_REG)0);
 1414              		.loc 1 1030 0
 1415 0020 0023     		movs	r3, #0
 1416 0022 16E0     		b	.L115
 1417              	.L114:
1031:..\..\..\..\..\..\uCOS-III\Source/os_task.c ****     }
1032:..\..\..\..\..\..\uCOS-III\Source/os_task.c **** #endif
1033:..\..\..\..\..\..\uCOS-III\Source/os_task.c **** 
1034:..\..\..\..\..\..\uCOS-III\Source/os_task.c ****     CPU_CRITICAL_ENTER();
 1418              		.loc 1 1034 0
 1419 0024 FFF7FEFF 		bl	CPU_SR_Save
 1420 0028 7861     		str	r0, [r7, #20]
1035:..\..\..\..\..\..\uCOS-III\Source/os_task.c ****     if (p_tcb == (OS_TCB *)0) {
 1421              		.loc 1 1035 0
 1422 002a FB68     		ldr	r3, [r7, #12]
 1423 002c 002B     		cmp	r3, #0
 1424 002e 02D1     		bne	.L116
1036:..\..\..\..\..\..\uCOS-III\Source/os_task.c ****         p_tcb = OSTCBCurPtr;
 1425              		.loc 1 1036 0
 1426 0030 0A4B     		ldr	r3, .L117
 1427 0032 1B68     		ldr	r3, [r3]
 1428 0034 FB60     		str	r3, [r7, #12]
 1429              	.L116:
1037:..\..\..\..\..\..\uCOS-III\Source/os_task.c ****     }
1038:..\..\..\..\..\..\uCOS-III\Source/os_task.c ****     value = p_tcb->RegTbl[id];
 1430              		.loc 1 1038 0
 1431 0036 FB7A     		ldrb	r3, [r7, #11]	@ zero_extendqisi2
 1432 0038 FA68     		ldr	r2, [r7, #12]
 1433 003a 1E33     		adds	r3, r3, #30
 1434 003c 9B00     		lsls	r3, r3, #2
 1435 003e 1344     		add	r3, r3, r2
 1436 0040 5B68     		ldr	r3, [r3, #4]
 1437 0042 3B61     		str	r3, [r7, #16]
1039:..\..\..\..\..\..\uCOS-III\Source/os_task.c ****     CPU_CRITICAL_EXIT();
 1438              		.loc 1 1039 0
 1439 0044 7869     		ldr	r0, [r7, #20]
 1440 0046 FFF7FEFF 		bl	CPU_SR_Restore
1040:..\..\..\..\..\..\uCOS-III\Source/os_task.c ****    *p_err = OS_ERR_NONE;
 1441              		.loc 1 1040 0
 1442 004a 7B68     		ldr	r3, [r7, #4]
 1443 004c 0022     		movs	r2, #0
 1444 004e 1A80     		strh	r2, [r3]	@ movhi
1041:..\..\..\..\..\..\uCOS-III\Source/os_task.c ****     return ((OS_REG)value);
 1445              		.loc 1 1041 0
 1446 0050 3B69     		ldr	r3, [r7, #16]
 1447              	.L115:
1042:..\..\..\..\..\..\uCOS-III\Source/os_task.c **** }
 1448              		.loc 1 1042 0
 1449 0052 1846     		mov	r0, r3
 1450 0054 1837     		adds	r7, r7, #24
 1451              		.cfi_def_cfa_offset 8
 1452 0056 BD46     		mov	sp, r7
 1453              		.cfi_def_cfa_register 13
 1454              		@ sp needed
 1455 0058 80BD     		pop	{r7, pc}
 1456              	.L118:
ARM GAS  C:\Users\Aluno\AppData\Local\Temp\ccHJiRYw.s 			page 45


 1457 005a 00BF     		.align	2
 1458              	.L117:
 1459 005c 00000000 		.word	OSTCBCurPtr
 1460              		.cfi_endproc
 1461              	.LFE7:
 1462              		.size	OSTaskRegGet, .-OSTaskRegGet
 1463              		.section	.text.OSTaskRegGetID,"ax",%progbits
 1464              		.align	2
 1465              		.global	OSTaskRegGetID
 1466              		.thumb
 1467              		.thumb_func
 1468              		.type	OSTaskRegGetID, %function
 1469              	OSTaskRegGetID:
 1470              	.LFB8:
1043:..\..\..\..\..\..\uCOS-III\Source/os_task.c **** #endif
1044:..\..\..\..\..\..\uCOS-III\Source/os_task.c **** 
1045:..\..\..\..\..\..\uCOS-III\Source/os_task.c **** /*$PAGE*/
1046:..\..\..\..\..\..\uCOS-III\Source/os_task.c **** /*
1047:..\..\..\..\..\..\uCOS-III\Source/os_task.c **** ***************************************************************************************************
1048:..\..\..\..\..\..\uCOS-III\Source/os_task.c **** *                                    ALLOCATE THE NEXT AVAILABLE TASK REGISTER ID
1049:..\..\..\..\..\..\uCOS-III\Source/os_task.c **** *
1050:..\..\..\..\..\..\uCOS-III\Source/os_task.c **** * Description: This function is called to obtain a task register ID.  This function thus allows tas
1051:..\..\..\..\..\..\uCOS-III\Source/os_task.c **** *              allocated dynamically instead of statically.
1052:..\..\..\..\..\..\uCOS-III\Source/os_task.c **** *
1053:..\..\..\..\..\..\uCOS-III\Source/os_task.c **** * Arguments  : p_err       is a pointer to a variable that will hold an error code related to this 
1054:..\..\..\..\..\..\uCOS-III\Source/os_task.c **** *
1055:..\..\..\..\..\..\uCOS-III\Source/os_task.c **** *                            OS_ERR_NONE               if the call was successful
1056:..\..\..\..\..\..\uCOS-III\Source/os_task.c **** *                            OS_ERR_NO_MORE_ID_AVAIL   if you are attempting to assign more task re
1057:..\..\..\..\..\..\uCOS-III\Source/os_task.c **** *                                                           have available through OS_CFG_TASK_REG_
1058:..\..\..\..\..\..\uCOS-III\Source/os_task.c **** *
1059:..\..\..\..\..\..\uCOS-III\Source/os_task.c **** * Returns    : The next available task register 'id' or OS_CFG_TASK_REG_TBL_SIZE if an error is det
1060:..\..\..\..\..\..\uCOS-III\Source/os_task.c **** ***************************************************************************************************
1061:..\..\..\..\..\..\uCOS-III\Source/os_task.c **** */
1062:..\..\..\..\..\..\uCOS-III\Source/os_task.c **** 
1063:..\..\..\..\..\..\uCOS-III\Source/os_task.c **** #if OS_CFG_TASK_REG_TBL_SIZE > 0u
1064:..\..\..\..\..\..\uCOS-III\Source/os_task.c **** OS_REG_ID  OSTaskRegGetID (OS_ERR  *p_err)
1065:..\..\..\..\..\..\uCOS-III\Source/os_task.c **** {
 1471              		.loc 1 1065 0
 1472              		.cfi_startproc
 1473              		@ args = 0, pretend = 0, frame = 16
 1474              		@ frame_needed = 1, uses_anonymous_args = 0
 1475 0000 80B5     		push	{r7, lr}
 1476              		.cfi_def_cfa_offset 8
 1477              		.cfi_offset 7, -8
 1478              		.cfi_offset 14, -4
 1479 0002 84B0     		sub	sp, sp, #16
 1480              		.cfi_def_cfa_offset 24
 1481 0004 00AF     		add	r7, sp, #0
 1482              		.cfi_def_cfa_register 7
 1483 0006 7860     		str	r0, [r7, #4]
1066:..\..\..\..\..\..\uCOS-III\Source/os_task.c ****     OS_REG_ID  id;
1067:..\..\..\..\..\..\uCOS-III\Source/os_task.c ****     CPU_SR_ALLOC();
 1484              		.loc 1 1067 0
 1485 0008 0023     		movs	r3, #0
 1486 000a FB60     		str	r3, [r7, #12]
1068:..\..\..\..\..\..\uCOS-III\Source/os_task.c **** 
1069:..\..\..\..\..\..\uCOS-III\Source/os_task.c **** 
ARM GAS  C:\Users\Aluno\AppData\Local\Temp\ccHJiRYw.s 			page 46


1070:..\..\..\..\..\..\uCOS-III\Source/os_task.c **** 
1071:..\..\..\..\..\..\uCOS-III\Source/os_task.c **** #ifdef OS_SAFETY_CRITICAL
1072:..\..\..\..\..\..\uCOS-III\Source/os_task.c ****     if (p_err == (OS_ERR *)0) {
1073:..\..\..\..\..\..\uCOS-III\Source/os_task.c ****         OS_SAFETY_CRITICAL_EXCEPTION();
1074:..\..\..\..\..\..\uCOS-III\Source/os_task.c ****         return ((OS_REG_ID)OS_CFG_TASK_REG_TBL_SIZE);
1075:..\..\..\..\..\..\uCOS-III\Source/os_task.c ****     }
1076:..\..\..\..\..\..\uCOS-III\Source/os_task.c **** #endif
1077:..\..\..\..\..\..\uCOS-III\Source/os_task.c **** 
1078:..\..\..\..\..\..\uCOS-III\Source/os_task.c ****     CPU_CRITICAL_ENTER();
 1487              		.loc 1 1078 0
 1488 000c FFF7FEFF 		bl	CPU_SR_Save
 1489 0010 F860     		str	r0, [r7, #12]
1079:..\..\..\..\..\..\uCOS-III\Source/os_task.c ****     if (OSTaskRegNextAvailID >= OS_CFG_TASK_REG_TBL_SIZE) {       /* See if we exceeded the number 
 1490              		.loc 1 1079 0
 1491 0012 104B     		ldr	r3, .L122
 1492 0014 1B78     		ldrb	r3, [r3]	@ zero_extendqisi2
 1493 0016 002B     		cmp	r3, #0
 1494 0018 08D0     		beq	.L120
1080:..\..\..\..\..\..\uCOS-III\Source/os_task.c ****        *p_err = OS_ERR_NO_MORE_ID_AVAIL;                          /* Yes, cannot allocate more task
 1495              		.loc 1 1080 0
 1496 001a 7B68     		ldr	r3, [r7, #4]
 1497 001c 45F6DA12 		movw	r2, #23002
 1498 0020 1A80     		strh	r2, [r3]	@ movhi
1081:..\..\..\..\..\..\uCOS-III\Source/os_task.c ****         CPU_CRITICAL_EXIT();
 1499              		.loc 1 1081 0
 1500 0022 F868     		ldr	r0, [r7, #12]
 1501 0024 FFF7FEFF 		bl	CPU_SR_Restore
1082:..\..\..\..\..\..\uCOS-III\Source/os_task.c ****         return ((OS_REG_ID)OS_CFG_TASK_REG_TBL_SIZE);
 1502              		.loc 1 1082 0
 1503 0028 0123     		movs	r3, #1
 1504 002a 0FE0     		b	.L121
 1505              	.L120:
1083:..\..\..\..\..\..\uCOS-III\Source/os_task.c ****     }
1084:..\..\..\..\..\..\uCOS-III\Source/os_task.c ****      
1085:..\..\..\..\..\..\uCOS-III\Source/os_task.c ****     id    = OSTaskRegNextAvailID;								  /* Assign the next available ID                     */
 1506              		.loc 1 1085 0
 1507 002c 094B     		ldr	r3, .L122
 1508 002e 1B78     		ldrb	r3, [r3]
 1509 0030 FB72     		strb	r3, [r7, #11]
1086:..\..\..\..\..\..\uCOS-III\Source/os_task.c ****     OSTaskRegNextAvailID++;										  /* Increment available ID for next request          */
 1510              		.loc 1 1086 0
 1511 0032 084B     		ldr	r3, .L122
 1512 0034 1B78     		ldrb	r3, [r3]	@ zero_extendqisi2
 1513 0036 0133     		adds	r3, r3, #1
 1514 0038 DAB2     		uxtb	r2, r3
 1515 003a 064B     		ldr	r3, .L122
 1516 003c 1A70     		strb	r2, [r3]
1087:..\..\..\..\..\..\uCOS-III\Source/os_task.c ****     CPU_CRITICAL_EXIT();
 1517              		.loc 1 1087 0
 1518 003e F868     		ldr	r0, [r7, #12]
 1519 0040 FFF7FEFF 		bl	CPU_SR_Restore
1088:..\..\..\..\..\..\uCOS-III\Source/os_task.c ****    *p_err = OS_ERR_NONE;
 1520              		.loc 1 1088 0
 1521 0044 7B68     		ldr	r3, [r7, #4]
 1522 0046 0022     		movs	r2, #0
 1523 0048 1A80     		strh	r2, [r3]	@ movhi
1089:..\..\..\..\..\..\uCOS-III\Source/os_task.c ****     return (id);
ARM GAS  C:\Users\Aluno\AppData\Local\Temp\ccHJiRYw.s 			page 47


 1524              		.loc 1 1089 0
 1525 004a FB7A     		ldrb	r3, [r7, #11]	@ zero_extendqisi2
 1526              	.L121:
1090:..\..\..\..\..\..\uCOS-III\Source/os_task.c **** }
 1527              		.loc 1 1090 0
 1528 004c 1846     		mov	r0, r3
 1529 004e 1037     		adds	r7, r7, #16
 1530              		.cfi_def_cfa_offset 8
 1531 0050 BD46     		mov	sp, r7
 1532              		.cfi_def_cfa_register 13
 1533              		@ sp needed
 1534 0052 80BD     		pop	{r7, pc}
 1535              	.L123:
 1536              		.align	2
 1537              	.L122:
 1538 0054 00000000 		.word	OSTaskRegNextAvailID
 1539              		.cfi_endproc
 1540              	.LFE8:
 1541              		.size	OSTaskRegGetID, .-OSTaskRegGetID
 1542              		.section	.text.OSTaskRegSet,"ax",%progbits
 1543              		.align	2
 1544              		.global	OSTaskRegSet
 1545              		.thumb
 1546              		.thumb_func
 1547              		.type	OSTaskRegSet, %function
 1548              	OSTaskRegSet:
 1549              	.LFB9:
1091:..\..\..\..\..\..\uCOS-III\Source/os_task.c **** #endif
1092:..\..\..\..\..\..\uCOS-III\Source/os_task.c **** 
1093:..\..\..\..\..\..\uCOS-III\Source/os_task.c **** /*$PAGE*/
1094:..\..\..\..\..\..\uCOS-III\Source/os_task.c **** /*
1095:..\..\..\..\..\..\uCOS-III\Source/os_task.c **** ***************************************************************************************************
1096:..\..\..\..\..\..\uCOS-III\Source/os_task.c **** *                                       SET THE CURRENT VALUE OF A TASK REGISTER
1097:..\..\..\..\..\..\uCOS-III\Source/os_task.c **** *
1098:..\..\..\..\..\..\uCOS-III\Source/os_task.c **** * Description: This function is called to change the current value of a task register.  Task regist
1099:..\..\..\..\..\..\uCOS-III\Source/os_task.c **** *              specific and can be used to store task specific values such as 'error numbers' (i.e.
1100:..\..\..\..\..\..\uCOS-III\Source/os_task.c **** *              etc.
1101:..\..\..\..\..\..\uCOS-III\Source/os_task.c **** *
1102:..\..\..\..\..\..\uCOS-III\Source/os_task.c **** * Arguments  : p_tcb     is a pointer to the OS_TCB of the task you want to set the register for.  
1103:..\..\..\..\..\..\uCOS-III\Source/os_task.c **** *                        pointer then you will change the register of the current task.
1104:..\..\..\..\..\..\uCOS-III\Source/os_task.c **** *
1105:..\..\..\..\..\..\uCOS-III\Source/os_task.c **** *              id        is the 'id' of the desired task register.  Note that the 'id' must be less
1106:..\..\..\..\..\..\uCOS-III\Source/os_task.c **** *                        OS_CFG_TASK_REG_TBL_SIZE
1107:..\..\..\..\..\..\uCOS-III\Source/os_task.c **** *
1108:..\..\..\..\..\..\uCOS-III\Source/os_task.c **** *              value     is the desired value for the task register.
1109:..\..\..\..\..\..\uCOS-III\Source/os_task.c **** *
1110:..\..\..\..\..\..\uCOS-III\Source/os_task.c **** *              p_err     is a pointer to a variable that will hold an error code related to this ca
1111:..\..\..\..\..\..\uCOS-III\Source/os_task.c **** *
1112:..\..\..\..\..\..\uCOS-III\Source/os_task.c **** *                            OS_ERR_NONE            if the call was successful
1113:..\..\..\..\..\..\uCOS-III\Source/os_task.c **** *                            OS_ERR_REG_ID_INVALID  if the 'id' is not between 0 and OS_CFG_TASK_RE
1114:..\..\..\..\..\..\uCOS-III\Source/os_task.c **** *
1115:..\..\..\..\..\..\uCOS-III\Source/os_task.c **** * Returns    : none
1116:..\..\..\..\..\..\uCOS-III\Source/os_task.c **** ***************************************************************************************************
1117:..\..\..\..\..\..\uCOS-III\Source/os_task.c **** */
1118:..\..\..\..\..\..\uCOS-III\Source/os_task.c **** 
1119:..\..\..\..\..\..\uCOS-III\Source/os_task.c **** #if OS_CFG_TASK_REG_TBL_SIZE > 0u
1120:..\..\..\..\..\..\uCOS-III\Source/os_task.c **** void  OSTaskRegSet (OS_TCB     *p_tcb,
ARM GAS  C:\Users\Aluno\AppData\Local\Temp\ccHJiRYw.s 			page 48


1121:..\..\..\..\..\..\uCOS-III\Source/os_task.c ****                     OS_REG_ID   id,
1122:..\..\..\..\..\..\uCOS-III\Source/os_task.c ****                     OS_REG      value,
1123:..\..\..\..\..\..\uCOS-III\Source/os_task.c ****                     OS_ERR     *p_err)
1124:..\..\..\..\..\..\uCOS-III\Source/os_task.c **** {
 1550              		.loc 1 1124 0
 1551              		.cfi_startproc
 1552              		@ args = 0, pretend = 0, frame = 24
 1553              		@ frame_needed = 1, uses_anonymous_args = 0
 1554 0000 80B5     		push	{r7, lr}
 1555              		.cfi_def_cfa_offset 8
 1556              		.cfi_offset 7, -8
 1557              		.cfi_offset 14, -4
 1558 0002 86B0     		sub	sp, sp, #24
 1559              		.cfi_def_cfa_offset 32
 1560 0004 00AF     		add	r7, sp, #0
 1561              		.cfi_def_cfa_register 7
 1562 0006 F860     		str	r0, [r7, #12]
 1563 0008 7A60     		str	r2, [r7, #4]
 1564 000a 3B60     		str	r3, [r7]
 1565 000c 0B46     		mov	r3, r1
 1566 000e FB72     		strb	r3, [r7, #11]
1125:..\..\..\..\..\..\uCOS-III\Source/os_task.c ****     CPU_SR_ALLOC();
 1567              		.loc 1 1125 0
 1568 0010 0023     		movs	r3, #0
 1569 0012 7B61     		str	r3, [r7, #20]
1126:..\..\..\..\..\..\uCOS-III\Source/os_task.c **** 
1127:..\..\..\..\..\..\uCOS-III\Source/os_task.c **** 
1128:..\..\..\..\..\..\uCOS-III\Source/os_task.c **** 
1129:..\..\..\..\..\..\uCOS-III\Source/os_task.c **** #ifdef OS_SAFETY_CRITICAL
1130:..\..\..\..\..\..\uCOS-III\Source/os_task.c ****     if (p_err == (OS_ERR *)0) {
1131:..\..\..\..\..\..\uCOS-III\Source/os_task.c ****         OS_SAFETY_CRITICAL_EXCEPTION();
1132:..\..\..\..\..\..\uCOS-III\Source/os_task.c ****         return;
1133:..\..\..\..\..\..\uCOS-III\Source/os_task.c ****     }
1134:..\..\..\..\..\..\uCOS-III\Source/os_task.c **** #endif
1135:..\..\..\..\..\..\uCOS-III\Source/os_task.c **** 
1136:..\..\..\..\..\..\uCOS-III\Source/os_task.c **** #if OS_CFG_ARG_CHK_EN > 0u
1137:..\..\..\..\..\..\uCOS-III\Source/os_task.c ****     if (id >= OS_CFG_TASK_REG_TBL_SIZE) {
 1570              		.loc 1 1137 0
 1571 0014 FB7A     		ldrb	r3, [r7, #11]	@ zero_extendqisi2
 1572 0016 002B     		cmp	r3, #0
 1573 0018 04D0     		beq	.L125
1138:..\..\..\..\..\..\uCOS-III\Source/os_task.c ****        *p_err = OS_ERR_REG_ID_INVALID;
 1574              		.loc 1 1138 0
 1575 001a 3B68     		ldr	r3, [r7]
 1576 001c 46F67912 		movw	r2, #27001
 1577 0020 1A80     		strh	r2, [r3]	@ movhi
1139:..\..\..\..\..\..\uCOS-III\Source/os_task.c ****         return;
 1578              		.loc 1 1139 0
 1579 0022 15E0     		b	.L124
 1580              	.L125:
1140:..\..\..\..\..\..\uCOS-III\Source/os_task.c ****     }
1141:..\..\..\..\..\..\uCOS-III\Source/os_task.c **** #endif
1142:..\..\..\..\..\..\uCOS-III\Source/os_task.c **** 
1143:..\..\..\..\..\..\uCOS-III\Source/os_task.c ****     CPU_CRITICAL_ENTER();
 1581              		.loc 1 1143 0
 1582 0024 FFF7FEFF 		bl	CPU_SR_Save
 1583 0028 7861     		str	r0, [r7, #20]
ARM GAS  C:\Users\Aluno\AppData\Local\Temp\ccHJiRYw.s 			page 49


1144:..\..\..\..\..\..\uCOS-III\Source/os_task.c ****     if (p_tcb == (OS_TCB *)0) {
 1584              		.loc 1 1144 0
 1585 002a FB68     		ldr	r3, [r7, #12]
 1586 002c 002B     		cmp	r3, #0
 1587 002e 02D1     		bne	.L127
1145:..\..\..\..\..\..\uCOS-III\Source/os_task.c ****         p_tcb = OSTCBCurPtr;
 1588              		.loc 1 1145 0
 1589 0030 094B     		ldr	r3, .L128
 1590 0032 1B68     		ldr	r3, [r3]
 1591 0034 FB60     		str	r3, [r7, #12]
 1592              	.L127:
1146:..\..\..\..\..\..\uCOS-III\Source/os_task.c ****     }
1147:..\..\..\..\..\..\uCOS-III\Source/os_task.c ****     p_tcb->RegTbl[id] = value;
 1593              		.loc 1 1147 0
 1594 0036 FB7A     		ldrb	r3, [r7, #11]	@ zero_extendqisi2
 1595 0038 FA68     		ldr	r2, [r7, #12]
 1596 003a 1E33     		adds	r3, r3, #30
 1597 003c 9B00     		lsls	r3, r3, #2
 1598 003e 1344     		add	r3, r3, r2
 1599 0040 7A68     		ldr	r2, [r7, #4]
 1600 0042 5A60     		str	r2, [r3, #4]
1148:..\..\..\..\..\..\uCOS-III\Source/os_task.c ****     CPU_CRITICAL_EXIT();
 1601              		.loc 1 1148 0
 1602 0044 7869     		ldr	r0, [r7, #20]
 1603 0046 FFF7FEFF 		bl	CPU_SR_Restore
1149:..\..\..\..\..\..\uCOS-III\Source/os_task.c ****    *p_err             = OS_ERR_NONE;
 1604              		.loc 1 1149 0
 1605 004a 3B68     		ldr	r3, [r7]
 1606 004c 0022     		movs	r2, #0
 1607 004e 1A80     		strh	r2, [r3]	@ movhi
 1608              	.L124:
1150:..\..\..\..\..\..\uCOS-III\Source/os_task.c **** }
 1609              		.loc 1 1150 0
 1610 0050 1837     		adds	r7, r7, #24
 1611              		.cfi_def_cfa_offset 8
 1612 0052 BD46     		mov	sp, r7
 1613              		.cfi_def_cfa_register 13
 1614              		@ sp needed
 1615 0054 80BD     		pop	{r7, pc}
 1616              	.L129:
 1617 0056 00BF     		.align	2
 1618              	.L128:
 1619 0058 00000000 		.word	OSTCBCurPtr
 1620              		.cfi_endproc
 1621              	.LFE9:
 1622              		.size	OSTaskRegSet, .-OSTaskRegSet
 1623              		.section	.text.OSTaskResume,"ax",%progbits
 1624              		.align	2
 1625              		.global	OSTaskResume
 1626              		.thumb
 1627              		.thumb_func
 1628              		.type	OSTaskResume, %function
 1629              	OSTaskResume:
 1630              	.LFB10:
1151:..\..\..\..\..\..\uCOS-III\Source/os_task.c **** #endif
1152:..\..\..\..\..\..\uCOS-III\Source/os_task.c **** 
1153:..\..\..\..\..\..\uCOS-III\Source/os_task.c **** /*$PAGE*/
ARM GAS  C:\Users\Aluno\AppData\Local\Temp\ccHJiRYw.s 			page 50


1154:..\..\..\..\..\..\uCOS-III\Source/os_task.c **** /*
1155:..\..\..\..\..\..\uCOS-III\Source/os_task.c **** ***************************************************************************************************
1156:..\..\..\..\..\..\uCOS-III\Source/os_task.c **** *                                               RESUME A SUSPENDED TASK
1157:..\..\..\..\..\..\uCOS-III\Source/os_task.c **** *
1158:..\..\..\..\..\..\uCOS-III\Source/os_task.c **** * Description: This function is called to resume a previously suspended task.  This is the only cal
1159:..\..\..\..\..\..\uCOS-III\Source/os_task.c **** *              explicit task suspension.
1160:..\..\..\..\..\..\uCOS-III\Source/os_task.c **** *
1161:..\..\..\..\..\..\uCOS-III\Source/os_task.c **** * Arguments  : p_tcb      Is a pointer to the task's OS_TCB to resume
1162:..\..\..\..\..\..\uCOS-III\Source/os_task.c **** *
1163:..\..\..\..\..\..\uCOS-III\Source/os_task.c **** *              p_err      Is a pointer to a variable that will contain an error code returned by th
1164:..\..\..\..\..\..\uCOS-III\Source/os_task.c **** *
1165:..\..\..\..\..\..\uCOS-III\Source/os_task.c **** *                             OS_ERR_NONE                  if the requested task is resumed
1166:..\..\..\..\..\..\uCOS-III\Source/os_task.c **** *                             OS_ERR_STATE_INVALID         if the task is in an invalid state
1167:..\..\..\..\..\..\uCOS-III\Source/os_task.c **** *                             OS_ERR_TASK_RESUME_ISR       if you called this function from an ISR
1168:..\..\..\..\..\..\uCOS-III\Source/os_task.c **** *                             OS_ERR_TASK_RESUME_SELF      You cannot resume 'self'
1169:..\..\..\..\..\..\uCOS-III\Source/os_task.c **** *                             OS_ERR_TASK_NOT_SUSPENDED    if the task to resume has not been suspe
1170:..\..\..\..\..\..\uCOS-III\Source/os_task.c **** *
1171:..\..\..\..\..\..\uCOS-III\Source/os_task.c **** * Returns    : none
1172:..\..\..\..\..\..\uCOS-III\Source/os_task.c **** ***************************************************************************************************
1173:..\..\..\..\..\..\uCOS-III\Source/os_task.c **** */
1174:..\..\..\..\..\..\uCOS-III\Source/os_task.c **** 
1175:..\..\..\..\..\..\uCOS-III\Source/os_task.c **** #if OS_CFG_TASK_SUSPEND_EN > 0u
1176:..\..\..\..\..\..\uCOS-III\Source/os_task.c **** void  OSTaskResume (OS_TCB  *p_tcb,
1177:..\..\..\..\..\..\uCOS-III\Source/os_task.c ****                     OS_ERR  *p_err)
1178:..\..\..\..\..\..\uCOS-III\Source/os_task.c **** {
 1631              		.loc 1 1178 0
 1632              		.cfi_startproc
 1633              		@ args = 0, pretend = 0, frame = 16
 1634              		@ frame_needed = 1, uses_anonymous_args = 0
 1635 0000 80B5     		push	{r7, lr}
 1636              		.cfi_def_cfa_offset 8
 1637              		.cfi_offset 7, -8
 1638              		.cfi_offset 14, -4
 1639 0002 84B0     		sub	sp, sp, #16
 1640              		.cfi_def_cfa_offset 24
 1641 0004 00AF     		add	r7, sp, #0
 1642              		.cfi_def_cfa_register 7
 1643 0006 7860     		str	r0, [r7, #4]
 1644 0008 3960     		str	r1, [r7]
1179:..\..\..\..\..\..\uCOS-III\Source/os_task.c ****     CPU_SR_ALLOC();
 1645              		.loc 1 1179 0
 1646 000a 0023     		movs	r3, #0
 1647 000c FB60     		str	r3, [r7, #12]
1180:..\..\..\..\..\..\uCOS-III\Source/os_task.c **** 
1181:..\..\..\..\..\..\uCOS-III\Source/os_task.c **** 
1182:..\..\..\..\..\..\uCOS-III\Source/os_task.c **** 
1183:..\..\..\..\..\..\uCOS-III\Source/os_task.c **** #ifdef OS_SAFETY_CRITICAL
1184:..\..\..\..\..\..\uCOS-III\Source/os_task.c ****     if (p_err == (OS_ERR *)0) {
1185:..\..\..\..\..\..\uCOS-III\Source/os_task.c ****         OS_SAFETY_CRITICAL_EXCEPTION();
1186:..\..\..\..\..\..\uCOS-III\Source/os_task.c ****         return;
1187:..\..\..\..\..\..\uCOS-III\Source/os_task.c ****     }
1188:..\..\..\..\..\..\uCOS-III\Source/os_task.c **** #endif
1189:..\..\..\..\..\..\uCOS-III\Source/os_task.c **** 
1190:..\..\..\..\..\..\uCOS-III\Source/os_task.c **** #if (OS_CFG_ISR_POST_DEFERRED_EN   == 0u) && \
1191:..\..\..\..\..\..\uCOS-III\Source/os_task.c ****     (OS_CFG_CALLED_FROM_ISR_CHK_EN >  0u)
1192:..\..\..\..\..\..\uCOS-III\Source/os_task.c ****     if (OSIntNestingCtr > (OS_NESTING_CTR)0) {              /* Not allowed to call from an ISR     
 1648              		.loc 1 1192 0
ARM GAS  C:\Users\Aluno\AppData\Local\Temp\ccHJiRYw.s 			page 51


 1649 000e 134B     		ldr	r3, .L135
 1650 0010 1B78     		ldrb	r3, [r3]	@ zero_extendqisi2
 1651 0012 002B     		cmp	r3, #0
 1652 0014 04D0     		beq	.L131
1193:..\..\..\..\..\..\uCOS-III\Source/os_task.c ****        *p_err = OS_ERR_TASK_RESUME_ISR;
 1653              		.loc 1 1193 0
 1654 0016 3B68     		ldr	r3, [r7]
 1655 0018 47F25512 		movw	r2, #29013
 1656 001c 1A80     		strh	r2, [r3]	@ movhi
1194:..\..\..\..\..\..\uCOS-III\Source/os_task.c ****         return;
 1657              		.loc 1 1194 0
 1658 001e 19E0     		b	.L130
 1659              	.L131:
1195:..\..\..\..\..\..\uCOS-III\Source/os_task.c ****     }
1196:..\..\..\..\..\..\uCOS-III\Source/os_task.c **** #endif
1197:..\..\..\..\..\..\uCOS-III\Source/os_task.c **** 
1198:..\..\..\..\..\..\uCOS-III\Source/os_task.c **** 
1199:..\..\..\..\..\..\uCOS-III\Source/os_task.c ****     CPU_CRITICAL_ENTER();
 1660              		.loc 1 1199 0
 1661 0020 FFF7FEFF 		bl	CPU_SR_Save
 1662 0024 F860     		str	r0, [r7, #12]
1200:..\..\..\..\..\..\uCOS-III\Source/os_task.c **** #if OS_CFG_ARG_CHK_EN > 0u
1201:..\..\..\..\..\..\uCOS-III\Source/os_task.c ****     if ((p_tcb == (OS_TCB *)0) ||                           /* We cannot resume 'self'             
 1663              		.loc 1 1201 0
 1664 0026 7B68     		ldr	r3, [r7, #4]
 1665 0028 002B     		cmp	r3, #0
 1666 002a 04D0     		beq	.L133
1202:..\..\..\..\..\..\uCOS-III\Source/os_task.c ****         (p_tcb == OSTCBCurPtr)) {
 1667              		.loc 1 1202 0 discriminator 1
 1668 002c 0C4B     		ldr	r3, .L135+4
 1669 002e 1B68     		ldr	r3, [r3]
1201:..\..\..\..\..\..\uCOS-III\Source/os_task.c ****         (p_tcb == OSTCBCurPtr)) {
 1670              		.loc 1 1201 0 discriminator 1
 1671 0030 7A68     		ldr	r2, [r7, #4]
 1672 0032 9A42     		cmp	r2, r3
 1673 0034 07D1     		bne	.L134
 1674              	.L133:
1203:..\..\..\..\..\..\uCOS-III\Source/os_task.c ****         CPU_CRITICAL_EXIT();
 1675              		.loc 1 1203 0
 1676 0036 F868     		ldr	r0, [r7, #12]
 1677 0038 FFF7FEFF 		bl	CPU_SR_Restore
1204:..\..\..\..\..\..\uCOS-III\Source/os_task.c ****        *p_err  = OS_ERR_TASK_RESUME_SELF;
 1678              		.loc 1 1204 0
 1679 003c 3B68     		ldr	r3, [r7]
 1680 003e 47F25712 		movw	r2, #29015
 1681 0042 1A80     		strh	r2, [r3]	@ movhi
1205:..\..\..\..\..\..\uCOS-III\Source/os_task.c ****         return;
 1682              		.loc 1 1205 0
 1683 0044 06E0     		b	.L130
 1684              	.L134:
1206:..\..\..\..\..\..\uCOS-III\Source/os_task.c ****     }
1207:..\..\..\..\..\..\uCOS-III\Source/os_task.c **** #endif
1208:..\..\..\..\..\..\uCOS-III\Source/os_task.c ****     CPU_CRITICAL_EXIT();
 1685              		.loc 1 1208 0
 1686 0046 F868     		ldr	r0, [r7, #12]
 1687 0048 FFF7FEFF 		bl	CPU_SR_Restore
1209:..\..\..\..\..\..\uCOS-III\Source/os_task.c **** 
ARM GAS  C:\Users\Aluno\AppData\Local\Temp\ccHJiRYw.s 			page 52


1210:..\..\..\..\..\..\uCOS-III\Source/os_task.c **** #if OS_CFG_ISR_POST_DEFERRED_EN > 0u
1211:..\..\..\..\..\..\uCOS-III\Source/os_task.c ****     if (OSIntNestingCtr > (OS_NESTING_CTR)0) {              /* See if called from an ISR           
1212:..\..\..\..\..\..\uCOS-III\Source/os_task.c ****         OS_IntQPost((OS_OBJ_TYPE)OS_OBJ_TYPE_TASK_RESUME,   /* Post to ISR queue                   
1213:..\..\..\..\..\..\uCOS-III\Source/os_task.c ****                     (void      *)p_tcb,
1214:..\..\..\..\..\..\uCOS-III\Source/os_task.c ****                     (void      *)0,
1215:..\..\..\..\..\..\uCOS-III\Source/os_task.c ****                     (OS_MSG_SIZE)0,
1216:..\..\..\..\..\..\uCOS-III\Source/os_task.c ****                     (OS_FLAGS   )0,
1217:..\..\..\..\..\..\uCOS-III\Source/os_task.c ****                     (OS_OPT     )0,
1218:..\..\..\..\..\..\uCOS-III\Source/os_task.c ****                     (CPU_TS     )0,
1219:..\..\..\..\..\..\uCOS-III\Source/os_task.c ****                     (OS_ERR    *)p_err);
1220:..\..\..\..\..\..\uCOS-III\Source/os_task.c ****         return;
1221:..\..\..\..\..\..\uCOS-III\Source/os_task.c ****     }
1222:..\..\..\..\..\..\uCOS-III\Source/os_task.c **** #endif
1223:..\..\..\..\..\..\uCOS-III\Source/os_task.c **** 
1224:..\..\..\..\..\..\uCOS-III\Source/os_task.c ****     OS_TaskResume(p_tcb, p_err);
 1688              		.loc 1 1224 0
 1689 004c 3968     		ldr	r1, [r7]
 1690 004e 7868     		ldr	r0, [r7, #4]
 1691 0050 FFF7FEFF 		bl	OS_TaskResume
 1692              	.L130:
1225:..\..\..\..\..\..\uCOS-III\Source/os_task.c **** }
 1693              		.loc 1 1225 0
 1694 0054 1037     		adds	r7, r7, #16
 1695              		.cfi_def_cfa_offset 8
 1696 0056 BD46     		mov	sp, r7
 1697              		.cfi_def_cfa_register 13
 1698              		@ sp needed
 1699 0058 80BD     		pop	{r7, pc}
 1700              	.L136:
 1701 005a 00BF     		.align	2
 1702              	.L135:
 1703 005c 00000000 		.word	OSIntNestingCtr
 1704 0060 00000000 		.word	OSTCBCurPtr
 1705              		.cfi_endproc
 1706              	.LFE10:
 1707              		.size	OSTaskResume, .-OSTaskResume
 1708              		.section	.text.OSTaskSemPend,"ax",%progbits
 1709              		.align	2
 1710              		.global	OSTaskSemPend
 1711              		.thumb
 1712              		.thumb_func
 1713              		.type	OSTaskSemPend, %function
 1714              	OSTaskSemPend:
 1715              	.LFB11:
1226:..\..\..\..\..\..\uCOS-III\Source/os_task.c **** #endif
1227:..\..\..\..\..\..\uCOS-III\Source/os_task.c **** 
1228:..\..\..\..\..\..\uCOS-III\Source/os_task.c **** /*$PAGE*/
1229:..\..\..\..\..\..\uCOS-III\Source/os_task.c **** /*
1230:..\..\..\..\..\..\uCOS-III\Source/os_task.c **** ***************************************************************************************************
1231:..\..\..\..\..\..\uCOS-III\Source/os_task.c **** *                                              WAIT FOR A TASK SEMAPHORE
1232:..\..\..\..\..\..\uCOS-III\Source/os_task.c **** *
1233:..\..\..\..\..\..\uCOS-III\Source/os_task.c **** * Description: This function is called to block the current task until a signal is sent by another 
1234:..\..\..\..\..\..\uCOS-III\Source/os_task.c **** *
1235:..\..\..\..\..\..\uCOS-III\Source/os_task.c **** * Arguments  : timeout       is the amount of time you are will to wait for the signal
1236:..\..\..\..\..\..\uCOS-III\Source/os_task.c **** *
1237:..\..\..\..\..\..\uCOS-III\Source/os_task.c **** *              opt           determines whether the user wants to block if a semaphore post was not
1238:..\..\..\..\..\..\uCOS-III\Source/os_task.c **** *
ARM GAS  C:\Users\Aluno\AppData\Local\Temp\ccHJiRYw.s 			page 53


1239:..\..\..\..\..\..\uCOS-III\Source/os_task.c **** *                                OS_OPT_PEND_BLOCKING
1240:..\..\..\..\..\..\uCOS-III\Source/os_task.c **** *                                OS_OPT_PEND_NON_BLOCKING
1241:..\..\..\..\..\..\uCOS-III\Source/os_task.c **** *
1242:..\..\..\..\..\..\uCOS-III\Source/os_task.c **** *              p_ts          is a pointer to a variable that will receive the timestamp of when the
1243:..\..\..\..\..\..\uCOS-III\Source/os_task.c **** *                            or pend aborted.  If you pass a NULL pointer (i.e. (CPU_TS *)0) then y
1244:..\..\..\..\..\..\uCOS-III\Source/os_task.c **** *                            timestamp.  In other words, passing a NULL pointer is valid and indica
1245:..\..\..\..\..\..\uCOS-III\Source/os_task.c **** *                            need the timestamp.
1246:..\..\..\..\..\..\uCOS-III\Source/os_task.c **** *
1247:..\..\..\..\..\..\uCOS-III\Source/os_task.c **** *              p_err         is a pointer to an error code that will be set by this function
1248:..\..\..\..\..\..\uCOS-III\Source/os_task.c **** *
1249:..\..\..\..\..\..\uCOS-III\Source/os_task.c **** *                                OS_ERR_NONE               The call was successful and your task re
1250:..\..\..\..\..\..\uCOS-III\Source/os_task.c **** *                                OS_ERR_PEND_ABORT
1251:..\..\..\..\..\..\uCOS-III\Source/os_task.c **** *                                OS_ERR_PEND_ISR           If you called this function from an ISR 
1252:..\..\..\..\..\..\uCOS-III\Source/os_task.c **** *                                OS_ERR_PEND_WOULD_BLOCK   If you specified non-blocking but no sig
1253:..\..\..\..\..\..\uCOS-III\Source/os_task.c **** *                                OS_ERR_SCHED_LOCKED       If the scheduler is locked
1254:..\..\..\..\..\..\uCOS-III\Source/os_task.c **** *                                OS_ERR_STATUS_INVALID     If the pend status is invalid
1255:..\..\..\..\..\..\uCOS-III\Source/os_task.c **** *                                OS_ERR_TIMEOUT            A message was not received within the sp
1256:..\..\..\..\..\..\uCOS-III\Source/os_task.c **** *                                                          would lead to a suspension.
1257:..\..\..\..\..\..\uCOS-III\Source/os_task.c **** *
1258:..\..\..\..\..\..\uCOS-III\Source/os_task.c **** * Returns    : The current count of signals the task received, 0 if none.
1259:..\..\..\..\..\..\uCOS-III\Source/os_task.c **** ***************************************************************************************************
1260:..\..\..\..\..\..\uCOS-III\Source/os_task.c **** */
1261:..\..\..\..\..\..\uCOS-III\Source/os_task.c **** 
1262:..\..\..\..\..\..\uCOS-III\Source/os_task.c **** OS_SEM_CTR  OSTaskSemPend (OS_TICK   timeout,
1263:..\..\..\..\..\..\uCOS-III\Source/os_task.c ****                            OS_OPT    opt,
1264:..\..\..\..\..\..\uCOS-III\Source/os_task.c ****                            CPU_TS   *p_ts,
1265:..\..\..\..\..\..\uCOS-III\Source/os_task.c ****                            OS_ERR   *p_err)
1266:..\..\..\..\..\..\uCOS-III\Source/os_task.c **** {
 1716              		.loc 1 1266 0
 1717              		.cfi_startproc
 1718              		@ args = 0, pretend = 0, frame = 24
 1719              		@ frame_needed = 1, uses_anonymous_args = 0
 1720 0000 90B5     		push	{r4, r7, lr}
 1721              		.cfi_def_cfa_offset 12
 1722              		.cfi_offset 4, -12
 1723              		.cfi_offset 7, -8
 1724              		.cfi_offset 14, -4
 1725 0002 87B0     		sub	sp, sp, #28
 1726              		.cfi_def_cfa_offset 40
 1727 0004 00AF     		add	r7, sp, #0
 1728              		.cfi_def_cfa_register 7
 1729 0006 F860     		str	r0, [r7, #12]
 1730 0008 7A60     		str	r2, [r7, #4]
 1731 000a 3B60     		str	r3, [r7]
 1732 000c 0B46     		mov	r3, r1	@ movhi
 1733 000e 7B81     		strh	r3, [r7, #10]	@ movhi
1267:..\..\..\..\..\..\uCOS-III\Source/os_task.c ****     OS_SEM_CTR    ctr;
1268:..\..\..\..\..\..\uCOS-III\Source/os_task.c ****     CPU_SR_ALLOC();
 1734              		.loc 1 1268 0
 1735 0010 0023     		movs	r3, #0
 1736 0012 7B61     		str	r3, [r7, #20]
1269:..\..\..\..\..\..\uCOS-III\Source/os_task.c **** 
1270:..\..\..\..\..\..\uCOS-III\Source/os_task.c **** 
1271:..\..\..\..\..\..\uCOS-III\Source/os_task.c **** 
1272:..\..\..\..\..\..\uCOS-III\Source/os_task.c **** #ifdef OS_SAFETY_CRITICAL
1273:..\..\..\..\..\..\uCOS-III\Source/os_task.c ****     if (p_err == (OS_ERR *)0) {
1274:..\..\..\..\..\..\uCOS-III\Source/os_task.c ****         OS_SAFETY_CRITICAL_EXCEPTION();
ARM GAS  C:\Users\Aluno\AppData\Local\Temp\ccHJiRYw.s 			page 54


1275:..\..\..\..\..\..\uCOS-III\Source/os_task.c ****         return ((OS_SEM_CTR)0);
1276:..\..\..\..\..\..\uCOS-III\Source/os_task.c ****     }
1277:..\..\..\..\..\..\uCOS-III\Source/os_task.c **** #endif
1278:..\..\..\..\..\..\uCOS-III\Source/os_task.c **** 
1279:..\..\..\..\..\..\uCOS-III\Source/os_task.c **** #if OS_CFG_CALLED_FROM_ISR_CHK_EN > 0u
1280:..\..\..\..\..\..\uCOS-III\Source/os_task.c ****     if (OSIntNestingCtr > (OS_NESTING_CTR)0) {              /* Not allowed to call from an ISR     
 1737              		.loc 1 1280 0
 1738 0014 6F4B     		ldr	r3, .L159
 1739 0016 1B78     		ldrb	r3, [r3]	@ zero_extendqisi2
 1740 0018 002B     		cmp	r3, #0
 1741 001a 05D0     		beq	.L138
1281:..\..\..\..\..\..\uCOS-III\Source/os_task.c ****        *p_err = OS_ERR_PEND_ISR;
 1742              		.loc 1 1281 0
 1743 001c 3B68     		ldr	r3, [r7]
 1744 001e 46F2AE12 		movw	r2, #25006
 1745 0022 1A80     		strh	r2, [r3]	@ movhi
1282:..\..\..\..\..\..\uCOS-III\Source/os_task.c ****         return ((OS_SEM_CTR)0);
 1746              		.loc 1 1282 0
 1747 0024 0023     		movs	r3, #0
 1748 0026 D0E0     		b	.L139
 1749              	.L138:
1283:..\..\..\..\..\..\uCOS-III\Source/os_task.c ****     }
1284:..\..\..\..\..\..\uCOS-III\Source/os_task.c **** #endif
1285:..\..\..\..\..\..\uCOS-III\Source/os_task.c **** 
1286:..\..\..\..\..\..\uCOS-III\Source/os_task.c **** #if OS_CFG_ARG_CHK_EN > 0u
1287:..\..\..\..\..\..\uCOS-III\Source/os_task.c ****     switch (opt) {                                          /* Validate 'opt'                      
 1750              		.loc 1 1287 0
 1751 0028 7B89     		ldrh	r3, [r7, #10]
 1752 002a 002B     		cmp	r3, #0
 1753 002c 08D0     		beq	.L158
 1754 002e B3F5004F 		cmp	r3, #32768
 1755 0032 05D0     		beq	.L158
1288:..\..\..\..\..\..\uCOS-III\Source/os_task.c ****         case OS_OPT_PEND_BLOCKING:
1289:..\..\..\..\..\..\uCOS-III\Source/os_task.c ****         case OS_OPT_PEND_NON_BLOCKING:
1290:..\..\..\..\..\..\uCOS-III\Source/os_task.c ****              break;
1291:..\..\..\..\..\..\uCOS-III\Source/os_task.c **** 
1292:..\..\..\..\..\..\uCOS-III\Source/os_task.c ****         default:
1293:..\..\..\..\..\..\uCOS-III\Source/os_task.c ****             *p_err = OS_ERR_OPT_INVALID;
 1756              		.loc 1 1293 0
 1757 0034 3B68     		ldr	r3, [r7]
 1758 0036 45F62562 		movw	r2, #24101
 1759 003a 1A80     		strh	r2, [r3]	@ movhi
1294:..\..\..\..\..\..\uCOS-III\Source/os_task.c ****              return ((OS_SEM_CTR)0);
 1760              		.loc 1 1294 0
 1761 003c 0023     		movs	r3, #0
 1762 003e C4E0     		b	.L139
 1763              	.L158:
1290:..\..\..\..\..\..\uCOS-III\Source/os_task.c **** 
 1764              		.loc 1 1290 0
 1765 0040 00BF     		nop
1295:..\..\..\..\..\..\uCOS-III\Source/os_task.c ****     }
1296:..\..\..\..\..\..\uCOS-III\Source/os_task.c **** #endif
1297:..\..\..\..\..\..\uCOS-III\Source/os_task.c **** 
1298:..\..\..\..\..\..\uCOS-III\Source/os_task.c ****     if (p_ts != (CPU_TS *)0) {
 1766              		.loc 1 1298 0
 1767 0042 7B68     		ldr	r3, [r7, #4]
 1768 0044 002B     		cmp	r3, #0
ARM GAS  C:\Users\Aluno\AppData\Local\Temp\ccHJiRYw.s 			page 55


 1769 0046 02D0     		beq	.L143
1299:..\..\..\..\..\..\uCOS-III\Source/os_task.c ****        *p_ts  = (CPU_TS  )0;                                /* Initialize the returned timestamp   
 1770              		.loc 1 1299 0
 1771 0048 7B68     		ldr	r3, [r7, #4]
 1772 004a 0022     		movs	r2, #0
 1773 004c 1A60     		str	r2, [r3]
 1774              	.L143:
1300:..\..\..\..\..\..\uCOS-III\Source/os_task.c ****     }
1301:..\..\..\..\..\..\uCOS-III\Source/os_task.c **** 
1302:..\..\..\..\..\..\uCOS-III\Source/os_task.c ****     CPU_CRITICAL_ENTER();
 1775              		.loc 1 1302 0
 1776 004e FFF7FEFF 		bl	CPU_SR_Save
 1777 0052 7861     		str	r0, [r7, #20]
1303:..\..\..\..\..\..\uCOS-III\Source/os_task.c ****     if (OSTCBCurPtr->SemCtr > (OS_SEM_CTR)0) {              /* See if task already been signaled   
 1778              		.loc 1 1303 0
 1779 0054 604B     		ldr	r3, .L159+4
 1780 0056 1B68     		ldr	r3, [r3]
 1781 0058 5B6C     		ldr	r3, [r3, #68]
 1782 005a 002B     		cmp	r3, #0
 1783 005c 35D0     		beq	.L144
1304:..\..\..\..\..\..\uCOS-III\Source/os_task.c ****         OSTCBCurPtr->SemCtr--;
 1784              		.loc 1 1304 0
 1785 005e 5E4B     		ldr	r3, .L159+4
 1786 0060 1B68     		ldr	r3, [r3]
 1787 0062 5A6C     		ldr	r2, [r3, #68]
 1788 0064 013A     		subs	r2, r2, #1
 1789 0066 5A64     		str	r2, [r3, #68]
1305:..\..\..\..\..\..\uCOS-III\Source/os_task.c ****         ctr    = OSTCBCurPtr->SemCtr;
 1790              		.loc 1 1305 0
 1791 0068 5B4B     		ldr	r3, .L159+4
 1792 006a 1B68     		ldr	r3, [r3]
 1793 006c 5B6C     		ldr	r3, [r3, #68]
 1794 006e 3B61     		str	r3, [r7, #16]
1306:..\..\..\..\..\..\uCOS-III\Source/os_task.c ****         if (p_ts != (CPU_TS *)0) {
 1795              		.loc 1 1306 0
 1796 0070 7B68     		ldr	r3, [r7, #4]
 1797 0072 002B     		cmp	r3, #0
 1798 0074 04D0     		beq	.L145
1307:..\..\..\..\..\..\uCOS-III\Source/os_task.c ****            *p_ts  = OSTCBCurPtr->TS;
 1799              		.loc 1 1307 0
 1800 0076 584B     		ldr	r3, .L159+4
 1801 0078 1B68     		ldr	r3, [r3]
 1802 007a 1A6C     		ldr	r2, [r3, #64]
 1803 007c 7B68     		ldr	r3, [r7, #4]
 1804 007e 1A60     		str	r2, [r3]
 1805              	.L145:
1308:..\..\..\..\..\..\uCOS-III\Source/os_task.c ****         }
1309:..\..\..\..\..\..\uCOS-III\Source/os_task.c **** #if OS_CFG_TASK_PROFILE_EN > 0u
1310:..\..\..\..\..\..\uCOS-III\Source/os_task.c ****         OSTCBCurPtr->SemPendTime = OS_TS_GET() - OSTCBCurPtr->TS;
 1806              		.loc 1 1310 0
 1807 0080 554B     		ldr	r3, .L159+4
 1808 0082 1C68     		ldr	r4, [r3]
 1809 0084 FFF7FEFF 		bl	CPU_TS_TmrRd
 1810 0088 0246     		mov	r2, r0
 1811 008a 534B     		ldr	r3, .L159+4
 1812 008c 1B68     		ldr	r3, [r3]
 1813 008e 1B6C     		ldr	r3, [r3, #64]
ARM GAS  C:\Users\Aluno\AppData\Local\Temp\ccHJiRYw.s 			page 56


 1814 0090 D31A     		subs	r3, r2, r3
 1815 0092 C4F8A430 		str	r3, [r4, #164]
1311:..\..\..\..\..\..\uCOS-III\Source/os_task.c ****         if (OSTCBCurPtr->SemPendTimeMax < OSTCBCurPtr->SemPendTime) {
 1816              		.loc 1 1311 0
 1817 0096 504B     		ldr	r3, .L159+4
 1818 0098 1B68     		ldr	r3, [r3]
 1819 009a D3F8A820 		ldr	r2, [r3, #168]
 1820 009e 4E4B     		ldr	r3, .L159+4
 1821 00a0 1B68     		ldr	r3, [r3]
 1822 00a2 D3F8A430 		ldr	r3, [r3, #164]
 1823 00a6 9A42     		cmp	r2, r3
 1824 00a8 07D2     		bcs	.L146
1312:..\..\..\..\..\..\uCOS-III\Source/os_task.c ****             OSTCBCurPtr->SemPendTimeMax = OSTCBCurPtr->SemPendTime;
 1825              		.loc 1 1312 0
 1826 00aa 4B4B     		ldr	r3, .L159+4
 1827 00ac 1B68     		ldr	r3, [r3]
 1828 00ae 4A4A     		ldr	r2, .L159+4
 1829 00b0 1268     		ldr	r2, [r2]
 1830 00b2 D2F8A420 		ldr	r2, [r2, #164]
 1831 00b6 C3F8A820 		str	r2, [r3, #168]
 1832              	.L146:
1313:..\..\..\..\..\..\uCOS-III\Source/os_task.c ****         }
1314:..\..\..\..\..\..\uCOS-III\Source/os_task.c **** #endif
1315:..\..\..\..\..\..\uCOS-III\Source/os_task.c ****         CPU_CRITICAL_EXIT();
 1833              		.loc 1 1315 0
 1834 00ba 7869     		ldr	r0, [r7, #20]
 1835 00bc FFF7FEFF 		bl	CPU_SR_Restore
1316:..\..\..\..\..\..\uCOS-III\Source/os_task.c ****        *p_err = OS_ERR_NONE;
 1836              		.loc 1 1316 0
 1837 00c0 3B68     		ldr	r3, [r7]
 1838 00c2 0022     		movs	r2, #0
 1839 00c4 1A80     		strh	r2, [r3]	@ movhi
1317:..\..\..\..\..\..\uCOS-III\Source/os_task.c ****         return (ctr);
 1840              		.loc 1 1317 0
 1841 00c6 3B69     		ldr	r3, [r7, #16]
 1842 00c8 7FE0     		b	.L139
 1843              	.L144:
1318:..\..\..\..\..\..\uCOS-III\Source/os_task.c ****     }
1319:..\..\..\..\..\..\uCOS-III\Source/os_task.c **** 
1320:..\..\..\..\..\..\uCOS-III\Source/os_task.c ****     if ((opt & OS_OPT_PEND_NON_BLOCKING) != (OS_OPT)0) {    /* Caller wants to block if not availab
 1844              		.loc 1 1320 0
 1845 00ca B7F90A30 		ldrsh	r3, [r7, #10]
 1846 00ce 002B     		cmp	r3, #0
 1847 00d0 08DA     		bge	.L147
1321:..\..\..\..\..\..\uCOS-III\Source/os_task.c ****         CPU_CRITICAL_EXIT();
 1848              		.loc 1 1321 0
 1849 00d2 7869     		ldr	r0, [r7, #20]
 1850 00d4 FFF7FEFF 		bl	CPU_SR_Restore
1322:..\..\..\..\..\..\uCOS-III\Source/os_task.c ****        *p_err = OS_ERR_PEND_WOULD_BLOCK;                    /* No                                  
 1851              		.loc 1 1322 0
 1852 00d8 3B68     		ldr	r3, [r7]
 1853 00da 46F2B012 		movw	r2, #25008
 1854 00de 1A80     		strh	r2, [r3]	@ movhi
1323:..\..\..\..\..\..\uCOS-III\Source/os_task.c ****         return ((OS_SEM_CTR)0);
 1855              		.loc 1 1323 0
 1856 00e0 0023     		movs	r3, #0
 1857 00e2 72E0     		b	.L139
ARM GAS  C:\Users\Aluno\AppData\Local\Temp\ccHJiRYw.s 			page 57


 1858              	.L147:
1324:..\..\..\..\..\..\uCOS-III\Source/os_task.c ****     } else {                                                /* Yes                                 
1325:..\..\..\..\..\..\uCOS-III\Source/os_task.c ****         if (OSSchedLockNestingCtr > (OS_NESTING_CTR)0) {    /* Can't pend when the scheduler is loc
 1859              		.loc 1 1325 0
 1860 00e4 3D4B     		ldr	r3, .L159+8
 1861 00e6 1B78     		ldrb	r3, [r3]	@ zero_extendqisi2
 1862 00e8 002B     		cmp	r3, #0
 1863 00ea 08D0     		beq	.L148
1326:..\..\..\..\..\..\uCOS-III\Source/os_task.c ****             CPU_CRITICAL_EXIT();
 1864              		.loc 1 1326 0
 1865 00ec 7869     		ldr	r0, [r7, #20]
 1866 00ee FFF7FEFF 		bl	CPU_SR_Restore
1327:..\..\..\..\..\..\uCOS-III\Source/os_task.c ****            *p_err = OS_ERR_SCHED_LOCKED;
 1867              		.loc 1 1327 0
 1868 00f2 3B68     		ldr	r3, [r7]
 1869 00f4 46F66352 		movw	r2, #28003
 1870 00f8 1A80     		strh	r2, [r3]	@ movhi
1328:..\..\..\..\..\..\uCOS-III\Source/os_task.c ****             return ((OS_SEM_CTR)0);
 1871              		.loc 1 1328 0
 1872 00fa 0023     		movs	r3, #0
 1873 00fc 65E0     		b	.L139
 1874              	.L148:
1329:..\..\..\..\..\..\uCOS-III\Source/os_task.c ****         }
1330:..\..\..\..\..\..\uCOS-III\Source/os_task.c ****     }
1331:..\..\..\..\..\..\uCOS-III\Source/os_task.c ****                                                             /* Lock the scheduler/re-enable interru
1332:..\..\..\..\..\..\uCOS-III\Source/os_task.c ****     OS_CRITICAL_ENTER_CPU_EXIT();                           
1333:..\..\..\..\..\..\uCOS-III\Source/os_task.c ****     OS_Pend((OS_PEND_DATA *)0,                              /* Block task pending on Signal        
 1875              		.loc 1 1333 0
 1876 00fe FB68     		ldr	r3, [r7, #12]
 1877 0100 0722     		movs	r2, #7
 1878 0102 0021     		movs	r1, #0
 1879 0104 0020     		movs	r0, #0
 1880 0106 FFF7FEFF 		bl	OS_Pend
1334:..\..\..\..\..\..\uCOS-III\Source/os_task.c ****             (OS_PEND_OBJ  *)0,
1335:..\..\..\..\..\..\uCOS-III\Source/os_task.c ****             (OS_STATE      )OS_TASK_PEND_ON_TASK_SEM,
1336:..\..\..\..\..\..\uCOS-III\Source/os_task.c ****             (OS_TICK       )timeout);
1337:..\..\..\..\..\..\uCOS-III\Source/os_task.c ****     OS_CRITICAL_EXIT_NO_SCHED();
 1881              		.loc 1 1337 0
 1882 010a 7869     		ldr	r0, [r7, #20]
 1883 010c FFF7FEFF 		bl	CPU_SR_Restore
1338:..\..\..\..\..\..\uCOS-III\Source/os_task.c **** 
1339:..\..\..\..\..\..\uCOS-III\Source/os_task.c ****     OSSched();                                              /* Find next highest priority task read
 1884              		.loc 1 1339 0
 1885 0110 FFF7FEFF 		bl	OSSched
1340:..\..\..\..\..\..\uCOS-III\Source/os_task.c **** 
1341:..\..\..\..\..\..\uCOS-III\Source/os_task.c ****     CPU_CRITICAL_ENTER();
 1886              		.loc 1 1341 0
 1887 0114 FFF7FEFF 		bl	CPU_SR_Save
 1888 0118 7861     		str	r0, [r7, #20]
1342:..\..\..\..\..\..\uCOS-III\Source/os_task.c ****     switch (OSTCBCurPtr->PendStatus) {                      /* See if we timed-out or aborted      
 1889              		.loc 1 1342 0
 1890 011a 2F4B     		ldr	r3, .L159+4
 1891 011c 1B68     		ldr	r3, [r3]
 1892 011e 93F83530 		ldrb	r3, [r3, #53]	@ zero_extendqisi2
 1893 0122 012B     		cmp	r3, #1
 1894 0124 2CD0     		beq	.L150
 1895 0126 032B     		cmp	r3, #3
ARM GAS  C:\Users\Aluno\AppData\Local\Temp\ccHJiRYw.s 			page 58


 1896 0128 37D0     		beq	.L151
 1897 012a 002B     		cmp	r3, #0
 1898 012c 40D1     		bne	.L157
1343:..\..\..\..\..\..\uCOS-III\Source/os_task.c ****         case OS_STATUS_PEND_OK:
1344:..\..\..\..\..\..\uCOS-III\Source/os_task.c ****              if (p_ts != (CPU_TS *)0) {
 1899              		.loc 1 1344 0
 1900 012e 7B68     		ldr	r3, [r7, #4]
 1901 0130 002B     		cmp	r3, #0
 1902 0132 21D0     		beq	.L153
1345:..\..\..\..\..\..\uCOS-III\Source/os_task.c ****                 *p_ts                    =  OSTCBCurPtr->TS;
 1903              		.loc 1 1345 0
 1904 0134 284B     		ldr	r3, .L159+4
 1905 0136 1B68     		ldr	r3, [r3]
 1906 0138 1A6C     		ldr	r2, [r3, #64]
 1907 013a 7B68     		ldr	r3, [r7, #4]
 1908 013c 1A60     		str	r2, [r3]
1346:..\..\..\..\..\..\uCOS-III\Source/os_task.c **** #if OS_CFG_TASK_PROFILE_EN > 0u
1347:..\..\..\..\..\..\uCOS-III\Source/os_task.c ****                 OSTCBCurPtr->SemPendTime = OS_TS_GET() - OSTCBCurPtr->TS;
 1909              		.loc 1 1347 0
 1910 013e 264B     		ldr	r3, .L159+4
 1911 0140 1C68     		ldr	r4, [r3]
 1912 0142 FFF7FEFF 		bl	CPU_TS_TmrRd
 1913 0146 0246     		mov	r2, r0
 1914 0148 234B     		ldr	r3, .L159+4
 1915 014a 1B68     		ldr	r3, [r3]
 1916 014c 1B6C     		ldr	r3, [r3, #64]
 1917 014e D31A     		subs	r3, r2, r3
 1918 0150 C4F8A430 		str	r3, [r4, #164]
1348:..\..\..\..\..\..\uCOS-III\Source/os_task.c ****                 if (OSTCBCurPtr->SemPendTimeMax < OSTCBCurPtr->SemPendTime) {
 1919              		.loc 1 1348 0
 1920 0154 204B     		ldr	r3, .L159+4
 1921 0156 1B68     		ldr	r3, [r3]
 1922 0158 D3F8A820 		ldr	r2, [r3, #168]
 1923 015c 1E4B     		ldr	r3, .L159+4
 1924 015e 1B68     		ldr	r3, [r3]
 1925 0160 D3F8A430 		ldr	r3, [r3, #164]
 1926 0164 9A42     		cmp	r2, r3
 1927 0166 07D2     		bcs	.L153
1349:..\..\..\..\..\..\uCOS-III\Source/os_task.c ****                     OSTCBCurPtr->SemPendTimeMax = OSTCBCurPtr->SemPendTime;
 1928              		.loc 1 1349 0
 1929 0168 1B4B     		ldr	r3, .L159+4
 1930 016a 1B68     		ldr	r3, [r3]
 1931 016c 1A4A     		ldr	r2, .L159+4
 1932 016e 1268     		ldr	r2, [r2]
 1933 0170 D2F8A420 		ldr	r2, [r2, #164]
 1934 0174 C3F8A820 		str	r2, [r3, #168]
 1935              	.L153:
1350:..\..\..\..\..\..\uCOS-III\Source/os_task.c ****                 }
1351:..\..\..\..\..\..\uCOS-III\Source/os_task.c **** #endif
1352:..\..\..\..\..\..\uCOS-III\Source/os_task.c ****              }
1353:..\..\..\..\..\..\uCOS-III\Source/os_task.c ****             *p_err = OS_ERR_NONE;
 1936              		.loc 1 1353 0
 1937 0178 3B68     		ldr	r3, [r7]
 1938 017a 0022     		movs	r2, #0
 1939 017c 1A80     		strh	r2, [r3]	@ movhi
1354:..\..\..\..\..\..\uCOS-III\Source/os_task.c ****              break;
 1940              		.loc 1 1354 0
ARM GAS  C:\Users\Aluno\AppData\Local\Temp\ccHJiRYw.s 			page 59


 1941 017e 1CE0     		b	.L154
 1942              	.L150:
1355:..\..\..\..\..\..\uCOS-III\Source/os_task.c **** 
1356:..\..\..\..\..\..\uCOS-III\Source/os_task.c ****         case OS_STATUS_PEND_ABORT:
1357:..\..\..\..\..\..\uCOS-III\Source/os_task.c ****              if (p_ts != (CPU_TS *)0) {
 1943              		.loc 1 1357 0
 1944 0180 7B68     		ldr	r3, [r7, #4]
 1945 0182 002B     		cmp	r3, #0
 1946 0184 04D0     		beq	.L155
1358:..\..\..\..\..\..\uCOS-III\Source/os_task.c ****                 *p_ts  =  OSTCBCurPtr->TS;
 1947              		.loc 1 1358 0
 1948 0186 144B     		ldr	r3, .L159+4
 1949 0188 1B68     		ldr	r3, [r3]
 1950 018a 1A6C     		ldr	r2, [r3, #64]
 1951 018c 7B68     		ldr	r3, [r7, #4]
 1952 018e 1A60     		str	r2, [r3]
 1953              	.L155:
1359:..\..\..\..\..\..\uCOS-III\Source/os_task.c ****              }
1360:..\..\..\..\..\..\uCOS-III\Source/os_task.c ****             *p_err = OS_ERR_PEND_ABORT;                     /* Indicate that we aborted            
 1954              		.loc 1 1360 0
 1955 0190 3B68     		ldr	r3, [r7]
 1956 0192 46F2A912 		movw	r2, #25001
 1957 0196 1A80     		strh	r2, [r3]	@ movhi
1361:..\..\..\..\..\..\uCOS-III\Source/os_task.c ****              break;
 1958              		.loc 1 1361 0
 1959 0198 0FE0     		b	.L154
 1960              	.L151:
1362:..\..\..\..\..\..\uCOS-III\Source/os_task.c **** 
1363:..\..\..\..\..\..\uCOS-III\Source/os_task.c ****         case OS_STATUS_PEND_TIMEOUT:
1364:..\..\..\..\..\..\uCOS-III\Source/os_task.c ****              if (p_ts != (CPU_TS *)0) {
 1961              		.loc 1 1364 0
 1962 019a 7B68     		ldr	r3, [r7, #4]
 1963 019c 002B     		cmp	r3, #0
 1964 019e 02D0     		beq	.L156
1365:..\..\..\..\..\..\uCOS-III\Source/os_task.c ****                 *p_ts  = (CPU_TS  )0;
 1965              		.loc 1 1365 0
 1966 01a0 7B68     		ldr	r3, [r7, #4]
 1967 01a2 0022     		movs	r2, #0
 1968 01a4 1A60     		str	r2, [r3]
 1969              	.L156:
1366:..\..\..\..\..\..\uCOS-III\Source/os_task.c ****              }
1367:..\..\..\..\..\..\uCOS-III\Source/os_task.c ****             *p_err = OS_ERR_TIMEOUT;                        /* Indicate that we didn't get event wi
 1970              		.loc 1 1367 0
 1971 01a6 3B68     		ldr	r3, [r7]
 1972 01a8 47F2D922 		movw	r2, #29401
 1973 01ac 1A80     		strh	r2, [r3]	@ movhi
1368:..\..\..\..\..\..\uCOS-III\Source/os_task.c ****              break;
 1974              		.loc 1 1368 0
 1975 01ae 04E0     		b	.L154
 1976              	.L157:
1369:..\..\..\..\..\..\uCOS-III\Source/os_task.c **** 
1370:..\..\..\..\..\..\uCOS-III\Source/os_task.c ****         default:
1371:..\..\..\..\..\..\uCOS-III\Source/os_task.c ****             *p_err = OS_ERR_STATUS_INVALID;
 1977              		.loc 1 1371 0
 1978 01b0 3B68     		ldr	r3, [r7]
 1979 01b2 46F62E62 		movw	r2, #28206
 1980 01b6 1A80     		strh	r2, [r3]	@ movhi
ARM GAS  C:\Users\Aluno\AppData\Local\Temp\ccHJiRYw.s 			page 60


1372:..\..\..\..\..\..\uCOS-III\Source/os_task.c ****              break;
 1981              		.loc 1 1372 0
 1982 01b8 00BF     		nop
 1983              	.L154:
1373:..\..\..\..\..\..\uCOS-III\Source/os_task.c ****     }
1374:..\..\..\..\..\..\uCOS-III\Source/os_task.c ****     ctr = OSTCBCurPtr->SemCtr;
 1984              		.loc 1 1374 0
 1985 01ba 074B     		ldr	r3, .L159+4
 1986 01bc 1B68     		ldr	r3, [r3]
 1987 01be 5B6C     		ldr	r3, [r3, #68]
 1988 01c0 3B61     		str	r3, [r7, #16]
1375:..\..\..\..\..\..\uCOS-III\Source/os_task.c ****     CPU_CRITICAL_EXIT();
 1989              		.loc 1 1375 0
 1990 01c2 7869     		ldr	r0, [r7, #20]
 1991 01c4 FFF7FEFF 		bl	CPU_SR_Restore
1376:..\..\..\..\..\..\uCOS-III\Source/os_task.c ****     return (ctr);
 1992              		.loc 1 1376 0
 1993 01c8 3B69     		ldr	r3, [r7, #16]
 1994              	.L139:
1377:..\..\..\..\..\..\uCOS-III\Source/os_task.c **** }
 1995              		.loc 1 1377 0
 1996 01ca 1846     		mov	r0, r3
 1997 01cc 1C37     		adds	r7, r7, #28
 1998              		.cfi_def_cfa_offset 12
 1999 01ce BD46     		mov	sp, r7
 2000              		.cfi_def_cfa_register 13
 2001              		@ sp needed
 2002 01d0 90BD     		pop	{r4, r7, pc}
 2003              	.L160:
 2004 01d2 00BF     		.align	2
 2005              	.L159:
 2006 01d4 00000000 		.word	OSIntNestingCtr
 2007 01d8 00000000 		.word	OSTCBCurPtr
 2008 01dc 00000000 		.word	OSSchedLockNestingCtr
 2009              		.cfi_endproc
 2010              	.LFE11:
 2011              		.size	OSTaskSemPend, .-OSTaskSemPend
 2012              		.section	.text.OSTaskSemPendAbort,"ax",%progbits
 2013              		.align	2
 2014              		.global	OSTaskSemPendAbort
 2015              		.thumb
 2016              		.thumb_func
 2017              		.type	OSTaskSemPendAbort, %function
 2018              	OSTaskSemPendAbort:
 2019              	.LFB12:
1378:..\..\..\..\..\..\uCOS-III\Source/os_task.c **** 
1379:..\..\..\..\..\..\uCOS-III\Source/os_task.c **** /*$PAGE*/
1380:..\..\..\..\..\..\uCOS-III\Source/os_task.c **** /*
1381:..\..\..\..\..\..\uCOS-III\Source/os_task.c **** ***************************************************************************************************
1382:..\..\..\..\..\..\uCOS-III\Source/os_task.c **** *                                               ABORT WAITING FOR A SIGNAL
1383:..\..\..\..\..\..\uCOS-III\Source/os_task.c **** *
1384:..\..\..\..\..\..\uCOS-III\Source/os_task.c **** * Description: This function aborts & readies the task specified.  This function should be used to 
1385:..\..\..\..\..\..\uCOS-III\Source/os_task.c **** *              for a signal, rather than to normally post the signal to the task via OSTaskSemPost(
1386:..\..\..\..\..\..\uCOS-III\Source/os_task.c **** *
1387:..\..\..\..\..\..\uCOS-III\Source/os_task.c **** * Arguments  : p_tcb     is a pointer to the task to pend abort
1388:..\..\..\..\..\..\uCOS-III\Source/os_task.c **** *
1389:..\..\..\..\..\..\uCOS-III\Source/os_task.c **** *              opt       provides options for this function:
ARM GAS  C:\Users\Aluno\AppData\Local\Temp\ccHJiRYw.s 			page 61


1390:..\..\..\..\..\..\uCOS-III\Source/os_task.c **** *
1391:..\..\..\..\..\..\uCOS-III\Source/os_task.c **** *                            OS_OPT_POST_NONE         No option selected
1392:..\..\..\..\..\..\uCOS-III\Source/os_task.c **** *                            OS_OPT_POST_NO_SCHED     Indicates that the scheduler will not be call
1393:..\..\..\..\..\..\uCOS-III\Source/os_task.c **** *
1394:..\..\..\..\..\..\uCOS-III\Source/os_task.c **** *              p_err     is a pointer to a variable that will contain an error code returned by thi
1395:..\..\..\..\..\..\uCOS-III\Source/os_task.c **** *
1396:..\..\..\..\..\..\uCOS-III\Source/os_task.c **** *                            OS_ERR_NONE              If the task was readied and informed of the a
1397:..\..\..\..\..\..\uCOS-III\Source/os_task.c **** *                            OS_ERR_PEND_ABORT_ISR    If you tried calling this function from an IS
1398:..\..\..\..\..\..\uCOS-III\Source/os_task.c **** *                            OS_ERR_PEND_ABORT_NONE   If the task was not waiting for a signal
1399:..\..\..\..\..\..\uCOS-III\Source/os_task.c **** *                            OS_ERR_PEND_ABORT_SELF   If you attempted to pend abort the calling ta
1400:..\..\..\..\..\..\uCOS-III\Source/os_task.c **** *                                                     possible since the calling task cannot be pen
1401:..\..\..\..\..\..\uCOS-III\Source/os_task.c **** *                                                     running.
1402:..\..\..\..\..\..\uCOS-III\Source/os_task.c **** *
1403:..\..\..\..\..\..\uCOS-III\Source/os_task.c **** * Returns    : == DEF_FALSE   if task was not waiting for a message, or upon error.
1404:..\..\..\..\..\..\uCOS-III\Source/os_task.c **** *              == DEF_TRUE    if task was waiting for a message and was readied and informed.
1405:..\..\..\..\..\..\uCOS-III\Source/os_task.c **** ***************************************************************************************************
1406:..\..\..\..\..\..\uCOS-III\Source/os_task.c **** */
1407:..\..\..\..\..\..\uCOS-III\Source/os_task.c **** 
1408:..\..\..\..\..\..\uCOS-III\Source/os_task.c **** #if OS_CFG_TASK_SEM_PEND_ABORT_EN > 0u
1409:..\..\..\..\..\..\uCOS-III\Source/os_task.c **** CPU_BOOLEAN  OSTaskSemPendAbort (OS_TCB  *p_tcb,
1410:..\..\..\..\..\..\uCOS-III\Source/os_task.c ****                                  OS_OPT   opt,
1411:..\..\..\..\..\..\uCOS-III\Source/os_task.c ****                                  OS_ERR  *p_err)
1412:..\..\..\..\..\..\uCOS-III\Source/os_task.c **** {
 2020              		.loc 1 1412 0
 2021              		.cfi_startproc
 2022              		@ args = 0, pretend = 0, frame = 24
 2023              		@ frame_needed = 1, uses_anonymous_args = 0
 2024 0000 80B5     		push	{r7, lr}
 2025              		.cfi_def_cfa_offset 8
 2026              		.cfi_offset 7, -8
 2027              		.cfi_offset 14, -4
 2028 0002 86B0     		sub	sp, sp, #24
 2029              		.cfi_def_cfa_offset 32
 2030 0004 00AF     		add	r7, sp, #0
 2031              		.cfi_def_cfa_register 7
 2032 0006 F860     		str	r0, [r7, #12]
 2033 0008 0B46     		mov	r3, r1
 2034 000a 7A60     		str	r2, [r7, #4]
 2035 000c 7B81     		strh	r3, [r7, #10]	@ movhi
1413:..\..\..\..\..\..\uCOS-III\Source/os_task.c ****     CPU_TS         ts;
1414:..\..\..\..\..\..\uCOS-III\Source/os_task.c ****     CPU_SR_ALLOC();
 2036              		.loc 1 1414 0
 2037 000e 0023     		movs	r3, #0
 2038 0010 7B61     		str	r3, [r7, #20]
1415:..\..\..\..\..\..\uCOS-III\Source/os_task.c **** 
1416:..\..\..\..\..\..\uCOS-III\Source/os_task.c **** 
1417:..\..\..\..\..\..\uCOS-III\Source/os_task.c **** 
1418:..\..\..\..\..\..\uCOS-III\Source/os_task.c **** #ifdef OS_SAFETY_CRITICAL
1419:..\..\..\..\..\..\uCOS-III\Source/os_task.c ****     if (p_err == (OS_ERR *)0) {
1420:..\..\..\..\..\..\uCOS-III\Source/os_task.c ****         OS_SAFETY_CRITICAL_EXCEPTION();
1421:..\..\..\..\..\..\uCOS-III\Source/os_task.c ****         return (DEF_FALSE);
1422:..\..\..\..\..\..\uCOS-III\Source/os_task.c ****     }
1423:..\..\..\..\..\..\uCOS-III\Source/os_task.c **** #endif
1424:..\..\..\..\..\..\uCOS-III\Source/os_task.c **** 
1425:..\..\..\..\..\..\uCOS-III\Source/os_task.c **** #if OS_CFG_CALLED_FROM_ISR_CHK_EN > 0u
1426:..\..\..\..\..\..\uCOS-III\Source/os_task.c ****     if (OSIntNestingCtr > (OS_NESTING_CTR)0) {              /* See if called from ISR ...          
 2039              		.loc 1 1426 0
ARM GAS  C:\Users\Aluno\AppData\Local\Temp\ccHJiRYw.s 			page 62


 2040 0012 2C4B     		ldr	r3, .L172
 2041 0014 1B78     		ldrb	r3, [r3]	@ zero_extendqisi2
 2042 0016 002B     		cmp	r3, #0
 2043 0018 05D0     		beq	.L162
1427:..\..\..\..\..\..\uCOS-III\Source/os_task.c ****        *p_err = OS_ERR_PEND_ABORT_ISR;                      /* ... can't Pend Abort from an ISR    
 2044              		.loc 1 1427 0
 2045 001a 7B68     		ldr	r3, [r7, #4]
 2046 001c 46F2AA12 		movw	r2, #25002
 2047 0020 1A80     		strh	r2, [r3]	@ movhi
1428:..\..\..\..\..\..\uCOS-III\Source/os_task.c ****         return (DEF_FALSE);
 2048              		.loc 1 1428 0
 2049 0022 0023     		movs	r3, #0
 2050 0024 49E0     		b	.L163
 2051              	.L162:
1429:..\..\..\..\..\..\uCOS-III\Source/os_task.c ****     }
1430:..\..\..\..\..\..\uCOS-III\Source/os_task.c **** #endif
1431:..\..\..\..\..\..\uCOS-III\Source/os_task.c **** 
1432:..\..\..\..\..\..\uCOS-III\Source/os_task.c **** #if OS_CFG_ARG_CHK_EN > 0u
1433:..\..\..\..\..\..\uCOS-III\Source/os_task.c ****     switch (opt) {                                          /* Validate 'opt'                      
 2052              		.loc 1 1433 0
 2053 0026 7B89     		ldrh	r3, [r7, #10]
 2054 0028 002B     		cmp	r3, #0
 2055 002a 08D0     		beq	.L171
 2056 002c B3F5004F 		cmp	r3, #32768
 2057 0030 05D0     		beq	.L171
1434:..\..\..\..\..\..\uCOS-III\Source/os_task.c ****         case OS_OPT_POST_NONE:
1435:..\..\..\..\..\..\uCOS-III\Source/os_task.c ****         case OS_OPT_POST_NO_SCHED:
1436:..\..\..\..\..\..\uCOS-III\Source/os_task.c ****              break;
1437:..\..\..\..\..\..\uCOS-III\Source/os_task.c **** 
1438:..\..\..\..\..\..\uCOS-III\Source/os_task.c ****         default:
1439:..\..\..\..\..\..\uCOS-III\Source/os_task.c ****             *p_err =  OS_ERR_OPT_INVALID;
 2058              		.loc 1 1439 0
 2059 0032 7B68     		ldr	r3, [r7, #4]
 2060 0034 45F62562 		movw	r2, #24101
 2061 0038 1A80     		strh	r2, [r3]	@ movhi
1440:..\..\..\..\..\..\uCOS-III\Source/os_task.c ****              return (DEF_FALSE);
 2062              		.loc 1 1440 0
 2063 003a 0023     		movs	r3, #0
 2064 003c 3DE0     		b	.L163
 2065              	.L171:
1436:..\..\..\..\..\..\uCOS-III\Source/os_task.c **** 
 2066              		.loc 1 1436 0
 2067 003e 00BF     		nop
1441:..\..\..\..\..\..\uCOS-III\Source/os_task.c ****     }
1442:..\..\..\..\..\..\uCOS-III\Source/os_task.c **** #endif
1443:..\..\..\..\..\..\uCOS-III\Source/os_task.c **** 
1444:..\..\..\..\..\..\uCOS-III\Source/os_task.c ****     CPU_CRITICAL_ENTER();
 2068              		.loc 1 1444 0
 2069 0040 FFF7FEFF 		bl	CPU_SR_Save
 2070 0044 7861     		str	r0, [r7, #20]
1445:..\..\..\..\..\..\uCOS-III\Source/os_task.c ****     if ((p_tcb == (OS_TCB *)0) ||                           /* Pend abort self?                    
 2071              		.loc 1 1445 0
 2072 0046 FB68     		ldr	r3, [r7, #12]
 2073 0048 002B     		cmp	r3, #0
 2074 004a 04D0     		beq	.L167
1446:..\..\..\..\..\..\uCOS-III\Source/os_task.c ****         (p_tcb == OSTCBCurPtr)) {
 2075              		.loc 1 1446 0 discriminator 1
ARM GAS  C:\Users\Aluno\AppData\Local\Temp\ccHJiRYw.s 			page 63


 2076 004c 1E4B     		ldr	r3, .L172+4
 2077 004e 1B68     		ldr	r3, [r3]
1445:..\..\..\..\..\..\uCOS-III\Source/os_task.c ****     if ((p_tcb == (OS_TCB *)0) ||                           /* Pend abort self?                    
 2078              		.loc 1 1445 0 discriminator 1
 2079 0050 FA68     		ldr	r2, [r7, #12]
 2080 0052 9A42     		cmp	r2, r3
 2081 0054 08D1     		bne	.L168
 2082              	.L167:
1447:..\..\..\..\..\..\uCOS-III\Source/os_task.c ****         CPU_CRITICAL_EXIT();                                /* ... doesn't make sense!             
 2083              		.loc 1 1447 0
 2084 0056 7869     		ldr	r0, [r7, #20]
 2085 0058 FFF7FEFF 		bl	CPU_SR_Restore
1448:..\..\..\..\..\..\uCOS-III\Source/os_task.c ****        *p_err = OS_ERR_PEND_ABORT_SELF;
 2086              		.loc 1 1448 0
 2087 005c 7B68     		ldr	r3, [r7, #4]
 2088 005e 46F2AC12 		movw	r2, #25004
 2089 0062 1A80     		strh	r2, [r3]	@ movhi
1449:..\..\..\..\..\..\uCOS-III\Source/os_task.c ****         return (DEF_FALSE);
 2090              		.loc 1 1449 0
 2091 0064 0023     		movs	r3, #0
 2092 0066 28E0     		b	.L163
 2093              	.L168:
1450:..\..\..\..\..\..\uCOS-III\Source/os_task.c ****     }
1451:..\..\..\..\..\..\uCOS-III\Source/os_task.c **** 
1452:..\..\..\..\..\..\uCOS-III\Source/os_task.c ****     if (p_tcb->PendOn != OS_TASK_PEND_ON_TASK_SEM) {        /* Is task waiting for a signal?       
 2094              		.loc 1 1452 0
 2095 0068 FB68     		ldr	r3, [r7, #12]
 2096 006a 93F83430 		ldrb	r3, [r3, #52]	@ zero_extendqisi2
 2097 006e 072B     		cmp	r3, #7
 2098 0070 08D0     		beq	.L169
1453:..\..\..\..\..\..\uCOS-III\Source/os_task.c ****         CPU_CRITICAL_EXIT();
 2099              		.loc 1 1453 0
 2100 0072 7869     		ldr	r0, [r7, #20]
 2101 0074 FFF7FEFF 		bl	CPU_SR_Restore
1454:..\..\..\..\..\..\uCOS-III\Source/os_task.c ****        *p_err = OS_ERR_PEND_ABORT_NONE;
 2102              		.loc 1 1454 0
 2103 0078 7B68     		ldr	r3, [r7, #4]
 2104 007a 46F2AB12 		movw	r2, #25003
 2105 007e 1A80     		strh	r2, [r3]	@ movhi
1455:..\..\..\..\..\..\uCOS-III\Source/os_task.c ****         return (DEF_FALSE);
 2106              		.loc 1 1455 0
 2107 0080 0023     		movs	r3, #0
 2108 0082 1AE0     		b	.L163
 2109              	.L169:
1456:..\..\..\..\..\..\uCOS-III\Source/os_task.c ****     }
1457:..\..\..\..\..\..\uCOS-III\Source/os_task.c ****     CPU_CRITICAL_EXIT();
 2110              		.loc 1 1457 0
 2111 0084 7869     		ldr	r0, [r7, #20]
 2112 0086 FFF7FEFF 		bl	CPU_SR_Restore
1458:..\..\..\..\..\..\uCOS-III\Source/os_task.c **** 
1459:..\..\..\..\..\..\uCOS-III\Source/os_task.c ****     OS_CRITICAL_ENTER();
 2113              		.loc 1 1459 0
 2114 008a FFF7FEFF 		bl	CPU_SR_Save
 2115 008e 7861     		str	r0, [r7, #20]
1460:..\..\..\..\..\..\uCOS-III\Source/os_task.c ****     ts = OS_TS_GET();
 2116              		.loc 1 1460 0
 2117 0090 FFF7FEFF 		bl	CPU_TS_TmrRd
ARM GAS  C:\Users\Aluno\AppData\Local\Temp\ccHJiRYw.s 			page 64


 2118 0094 3861     		str	r0, [r7, #16]
1461:..\..\..\..\..\..\uCOS-III\Source/os_task.c ****     OS_PendAbort((OS_PEND_OBJ *)0,
 2119              		.loc 1 1461 0
 2120 0096 3A69     		ldr	r2, [r7, #16]
 2121 0098 F968     		ldr	r1, [r7, #12]
 2122 009a 0020     		movs	r0, #0
 2123 009c FFF7FEFF 		bl	OS_PendAbort
1462:..\..\..\..\..\..\uCOS-III\Source/os_task.c ****                  p_tcb,
1463:..\..\..\..\..\..\uCOS-III\Source/os_task.c ****                  ts);
1464:..\..\..\..\..\..\uCOS-III\Source/os_task.c ****     OS_CRITICAL_EXIT_NO_SCHED();
 2124              		.loc 1 1464 0
 2125 00a0 7869     		ldr	r0, [r7, #20]
 2126 00a2 FFF7FEFF 		bl	CPU_SR_Restore
1465:..\..\..\..\..\..\uCOS-III\Source/os_task.c ****     if ((opt & OS_OPT_POST_NO_SCHED) == (OS_OPT)0) {
 2127              		.loc 1 1465 0
 2128 00a6 B7F90A30 		ldrsh	r3, [r7, #10]
 2129 00aa 002B     		cmp	r3, #0
 2130 00ac 01DB     		blt	.L170
1466:..\..\..\..\..\..\uCOS-III\Source/os_task.c ****         OSSched();                                          /* Run the scheduler                   
 2131              		.loc 1 1466 0
 2132 00ae FFF7FEFF 		bl	OSSched
 2133              	.L170:
1467:..\..\..\..\..\..\uCOS-III\Source/os_task.c ****     }
1468:..\..\..\..\..\..\uCOS-III\Source/os_task.c ****    *p_err = OS_ERR_NONE;
 2134              		.loc 1 1468 0
 2135 00b2 7B68     		ldr	r3, [r7, #4]
 2136 00b4 0022     		movs	r2, #0
 2137 00b6 1A80     		strh	r2, [r3]	@ movhi
1469:..\..\..\..\..\..\uCOS-III\Source/os_task.c ****     return (DEF_TRUE);
 2138              		.loc 1 1469 0
 2139 00b8 0123     		movs	r3, #1
 2140              	.L163:
1470:..\..\..\..\..\..\uCOS-III\Source/os_task.c **** }
 2141              		.loc 1 1470 0
 2142 00ba 1846     		mov	r0, r3
 2143 00bc 1837     		adds	r7, r7, #24
 2144              		.cfi_def_cfa_offset 8
 2145 00be BD46     		mov	sp, r7
 2146              		.cfi_def_cfa_register 13
 2147              		@ sp needed
 2148 00c0 80BD     		pop	{r7, pc}
 2149              	.L173:
 2150 00c2 00BF     		.align	2
 2151              	.L172:
 2152 00c4 00000000 		.word	OSIntNestingCtr
 2153 00c8 00000000 		.word	OSTCBCurPtr
 2154              		.cfi_endproc
 2155              	.LFE12:
 2156              		.size	OSTaskSemPendAbort, .-OSTaskSemPendAbort
 2157              		.section	.text.OSTaskSemPost,"ax",%progbits
 2158              		.align	2
 2159              		.global	OSTaskSemPost
 2160              		.thumb
 2161              		.thumb_func
 2162              		.type	OSTaskSemPost, %function
 2163              	OSTaskSemPost:
 2164              	.LFB13:
ARM GAS  C:\Users\Aluno\AppData\Local\Temp\ccHJiRYw.s 			page 65


1471:..\..\..\..\..\..\uCOS-III\Source/os_task.c **** #endif
1472:..\..\..\..\..\..\uCOS-III\Source/os_task.c **** 
1473:..\..\..\..\..\..\uCOS-III\Source/os_task.c **** /*$PAGE*/
1474:..\..\..\..\..\..\uCOS-III\Source/os_task.c **** /*
1475:..\..\..\..\..\..\uCOS-III\Source/os_task.c **** ***************************************************************************************************
1476:..\..\..\..\..\..\uCOS-III\Source/os_task.c **** *                                                    SIGNAL A TASK
1477:..\..\..\..\..\..\uCOS-III\Source/os_task.c **** *
1478:..\..\..\..\..\..\uCOS-III\Source/os_task.c **** * Description: This function is called to signal a task waiting for a signal.
1479:..\..\..\..\..\..\uCOS-III\Source/os_task.c **** *
1480:..\..\..\..\..\..\uCOS-III\Source/os_task.c **** * Arguments  : p_tcb     is the pointer to the TCB of the task to signal.  A NULL pointer indicates
1481:..\..\..\..\..\..\uCOS-III\Source/os_task.c **** *                        a signal to yourself.
1482:..\..\..\..\..\..\uCOS-III\Source/os_task.c **** *
1483:..\..\..\..\..\..\uCOS-III\Source/os_task.c **** *              opt       determines the type of POST performed:
1484:..\..\..\..\..\..\uCOS-III\Source/os_task.c **** *
1485:..\..\..\..\..\..\uCOS-III\Source/os_task.c **** *                             OS_OPT_POST_NONE         No option
1486:..\..\..\..\..\..\uCOS-III\Source/os_task.c **** *                             OS_OPT_POST_NO_SCHED     Do not call the scheduler
1487:..\..\..\..\..\..\uCOS-III\Source/os_task.c **** *
1488:..\..\..\..\..\..\uCOS-III\Source/os_task.c **** *              p_err     is a pointer to an error code returned by this function:
1489:..\..\..\..\..\..\uCOS-III\Source/os_task.c **** *
1490:..\..\..\..\..\..\uCOS-III\Source/os_task.c **** *                            OS_ERR_NONE              If the requested task is signaled
1491:..\..\..\..\..\..\uCOS-III\Source/os_task.c **** *                            OS_ERR_SEM_OVF           If the post would cause the semaphore count t
1492:..\..\..\..\..\..\uCOS-III\Source/os_task.c **** *
1493:..\..\..\..\..\..\uCOS-III\Source/os_task.c **** * Returns    : The current value of the task's signal counter or 0 if called from an ISR
1494:..\..\..\..\..\..\uCOS-III\Source/os_task.c **** ***************************************************************************************************
1495:..\..\..\..\..\..\uCOS-III\Source/os_task.c **** */
1496:..\..\..\..\..\..\uCOS-III\Source/os_task.c **** 
1497:..\..\..\..\..\..\uCOS-III\Source/os_task.c **** OS_SEM_CTR  OSTaskSemPost (OS_TCB  *p_tcb,
1498:..\..\..\..\..\..\uCOS-III\Source/os_task.c ****                            OS_OPT   opt,
1499:..\..\..\..\..\..\uCOS-III\Source/os_task.c ****                            OS_ERR  *p_err)
1500:..\..\..\..\..\..\uCOS-III\Source/os_task.c **** {
 2165              		.loc 1 1500 0
 2166              		.cfi_startproc
 2167              		@ args = 0, pretend = 0, frame = 24
 2168              		@ frame_needed = 1, uses_anonymous_args = 0
 2169 0000 80B5     		push	{r7, lr}
 2170              		.cfi_def_cfa_offset 8
 2171              		.cfi_offset 7, -8
 2172              		.cfi_offset 14, -4
 2173 0002 86B0     		sub	sp, sp, #24
 2174              		.cfi_def_cfa_offset 32
 2175 0004 00AF     		add	r7, sp, #0
 2176              		.cfi_def_cfa_register 7
 2177 0006 F860     		str	r0, [r7, #12]
 2178 0008 0B46     		mov	r3, r1
 2179 000a 7A60     		str	r2, [r7, #4]
 2180 000c 7B81     		strh	r3, [r7, #10]	@ movhi
1501:..\..\..\..\..\..\uCOS-III\Source/os_task.c ****     OS_SEM_CTR  ctr;
1502:..\..\..\..\..\..\uCOS-III\Source/os_task.c ****     CPU_TS      ts;
1503:..\..\..\..\..\..\uCOS-III\Source/os_task.c **** 
1504:..\..\..\..\..\..\uCOS-III\Source/os_task.c **** 
1505:..\..\..\..\..\..\uCOS-III\Source/os_task.c **** 
1506:..\..\..\..\..\..\uCOS-III\Source/os_task.c **** #ifdef OS_SAFETY_CRITICAL
1507:..\..\..\..\..\..\uCOS-III\Source/os_task.c ****     if (p_err == (OS_ERR *)0) {
1508:..\..\..\..\..\..\uCOS-III\Source/os_task.c ****         OS_SAFETY_CRITICAL_EXCEPTION();
1509:..\..\..\..\..\..\uCOS-III\Source/os_task.c ****         return ((OS_SEM_CTR)0);
1510:..\..\..\..\..\..\uCOS-III\Source/os_task.c ****     }
1511:..\..\..\..\..\..\uCOS-III\Source/os_task.c **** #endif
ARM GAS  C:\Users\Aluno\AppData\Local\Temp\ccHJiRYw.s 			page 66


1512:..\..\..\..\..\..\uCOS-III\Source/os_task.c **** 
1513:..\..\..\..\..\..\uCOS-III\Source/os_task.c **** #if OS_CFG_ARG_CHK_EN > 0u
1514:..\..\..\..\..\..\uCOS-III\Source/os_task.c ****     switch (opt) {                                          /* Validate 'opt'                      
 2181              		.loc 1 1514 0
 2182 000e 7B89     		ldrh	r3, [r7, #10]
 2183 0010 002B     		cmp	r3, #0
 2184 0012 08D0     		beq	.L179
 2185 0014 B3F5004F 		cmp	r3, #32768
 2186 0018 05D0     		beq	.L179
1515:..\..\..\..\..\..\uCOS-III\Source/os_task.c ****         case OS_OPT_POST_NONE:
1516:..\..\..\..\..\..\uCOS-III\Source/os_task.c ****         case OS_OPT_POST_NO_SCHED:
1517:..\..\..\..\..\..\uCOS-III\Source/os_task.c ****              break;
1518:..\..\..\..\..\..\uCOS-III\Source/os_task.c **** 
1519:..\..\..\..\..\..\uCOS-III\Source/os_task.c ****         default:
1520:..\..\..\..\..\..\uCOS-III\Source/os_task.c ****             *p_err =  OS_ERR_OPT_INVALID;
 2187              		.loc 1 1520 0
 2188 001a 7B68     		ldr	r3, [r7, #4]
 2189 001c 45F62562 		movw	r2, #24101
 2190 0020 1A80     		strh	r2, [r3]	@ movhi
1521:..\..\..\..\..\..\uCOS-III\Source/os_task.c ****              return ((OS_SEM_CTR)0u);
 2191              		.loc 1 1521 0
 2192 0022 0023     		movs	r3, #0
 2193 0024 0BE0     		b	.L178
 2194              	.L179:
1517:..\..\..\..\..\..\uCOS-III\Source/os_task.c **** 
 2195              		.loc 1 1517 0
 2196 0026 00BF     		nop
1522:..\..\..\..\..\..\uCOS-III\Source/os_task.c ****     }
1523:..\..\..\..\..\..\uCOS-III\Source/os_task.c **** #endif
1524:..\..\..\..\..\..\uCOS-III\Source/os_task.c **** 
1525:..\..\..\..\..\..\uCOS-III\Source/os_task.c ****     ts = OS_TS_GET();                                       /* Get timestamp                       
 2197              		.loc 1 1525 0
 2198 0028 FFF7FEFF 		bl	CPU_TS_TmrRd
 2199 002c 7861     		str	r0, [r7, #20]
1526:..\..\..\..\..\..\uCOS-III\Source/os_task.c **** 
1527:..\..\..\..\..\..\uCOS-III\Source/os_task.c **** #if OS_CFG_ISR_POST_DEFERRED_EN > 0u
1528:..\..\..\..\..\..\uCOS-III\Source/os_task.c ****     if (OSIntNestingCtr > (OS_NESTING_CTR)0) {              /* See if called from an ISR           
1529:..\..\..\..\..\..\uCOS-III\Source/os_task.c ****         OS_IntQPost((OS_OBJ_TYPE)OS_OBJ_TYPE_TASK_SIGNAL,   /* Post to ISR queue                   
1530:..\..\..\..\..\..\uCOS-III\Source/os_task.c ****                     (void      *)p_tcb,
1531:..\..\..\..\..\..\uCOS-III\Source/os_task.c ****                     (void      *)0,
1532:..\..\..\..\..\..\uCOS-III\Source/os_task.c ****                     (OS_MSG_SIZE)0,
1533:..\..\..\..\..\..\uCOS-III\Source/os_task.c ****                     (OS_FLAGS   )0,
1534:..\..\..\..\..\..\uCOS-III\Source/os_task.c ****                     (OS_OPT     )0,
1535:..\..\..\..\..\..\uCOS-III\Source/os_task.c ****                     (CPU_TS     )ts,
1536:..\..\..\..\..\..\uCOS-III\Source/os_task.c ****                     (OS_ERR    *)p_err);
1537:..\..\..\..\..\..\uCOS-III\Source/os_task.c ****         return ((OS_SEM_CTR)0);
1538:..\..\..\..\..\..\uCOS-III\Source/os_task.c ****     }
1539:..\..\..\..\..\..\uCOS-III\Source/os_task.c **** #endif
1540:..\..\..\..\..\..\uCOS-III\Source/os_task.c **** 
1541:..\..\..\..\..\..\uCOS-III\Source/os_task.c ****     ctr = OS_TaskSemPost(p_tcb,
 2200              		.loc 1 1541 0
 2201 002e 7989     		ldrh	r1, [r7, #10]
 2202 0030 7B68     		ldr	r3, [r7, #4]
 2203 0032 7A69     		ldr	r2, [r7, #20]
 2204 0034 F868     		ldr	r0, [r7, #12]
 2205 0036 FFF7FEFF 		bl	OS_TaskSemPost
 2206 003a 3861     		str	r0, [r7, #16]
ARM GAS  C:\Users\Aluno\AppData\Local\Temp\ccHJiRYw.s 			page 67


1542:..\..\..\..\..\..\uCOS-III\Source/os_task.c ****                          opt,
1543:..\..\..\..\..\..\uCOS-III\Source/os_task.c ****                          ts,
1544:..\..\..\..\..\..\uCOS-III\Source/os_task.c ****                          p_err);
1545:..\..\..\..\..\..\uCOS-III\Source/os_task.c **** 
1546:..\..\..\..\..\..\uCOS-III\Source/os_task.c ****     return (ctr);
 2207              		.loc 1 1546 0
 2208 003c 3B69     		ldr	r3, [r7, #16]
 2209              	.L178:
1547:..\..\..\..\..\..\uCOS-III\Source/os_task.c **** }
 2210              		.loc 1 1547 0
 2211 003e 1846     		mov	r0, r3
 2212 0040 1837     		adds	r7, r7, #24
 2213              		.cfi_def_cfa_offset 8
 2214 0042 BD46     		mov	sp, r7
 2215              		.cfi_def_cfa_register 13
 2216              		@ sp needed
 2217 0044 80BD     		pop	{r7, pc}
 2218              		.cfi_endproc
 2219              	.LFE13:
 2220              		.size	OSTaskSemPost, .-OSTaskSemPost
 2221 0046 00BF     		.section	.text.OSTaskSemSet,"ax",%progbits
 2222              		.align	2
 2223              		.global	OSTaskSemSet
 2224              		.thumb
 2225              		.thumb_func
 2226              		.type	OSTaskSemSet, %function
 2227              	OSTaskSemSet:
 2228              	.LFB14:
1548:..\..\..\..\..\..\uCOS-III\Source/os_task.c **** 
1549:..\..\..\..\..\..\uCOS-III\Source/os_task.c **** /*$PAGE*/
1550:..\..\..\..\..\..\uCOS-III\Source/os_task.c **** /*
1551:..\..\..\..\..\..\uCOS-III\Source/os_task.c **** ***************************************************************************************************
1552:..\..\..\..\..\..\uCOS-III\Source/os_task.c **** *                                            SET THE SIGNAL COUNTER OF A TASK
1553:..\..\..\..\..\..\uCOS-III\Source/os_task.c **** *
1554:..\..\..\..\..\..\uCOS-III\Source/os_task.c **** * Description: This function is called to clear the signal counter
1555:..\..\..\..\..\..\uCOS-III\Source/os_task.c **** *
1556:..\..\..\..\..\..\uCOS-III\Source/os_task.c **** * Arguments  : p_tcb      is the pointer to the TCB of the task to clear the counter.  If you speci
1557:..\..\..\..\..\..\uCOS-III\Source/os_task.c **** *                         then the signal counter of the current task will be cleared.
1558:..\..\..\..\..\..\uCOS-III\Source/os_task.c **** *
1559:..\..\..\..\..\..\uCOS-III\Source/os_task.c **** *              cnt        is the desired value of the semaphore counter
1560:..\..\..\..\..\..\uCOS-III\Source/os_task.c **** *
1561:..\..\..\..\..\..\uCOS-III\Source/os_task.c **** *              p_err      is a pointer to an error code returned by this function
1562:..\..\..\..\..\..\uCOS-III\Source/os_task.c **** *
1563:..\..\..\..\..\..\uCOS-III\Source/os_task.c **** *                             OS_ERR_NONE        if the signal counter of the requested task is cle
1564:..\..\..\..\..\..\uCOS-III\Source/os_task.c **** *                             OS_ERR_SET_ISR     if the function was called from an ISR
1565:..\..\..\..\..\..\uCOS-III\Source/os_task.c **** *
1566:..\..\..\..\..\..\uCOS-III\Source/os_task.c **** * Returns    : none
1567:..\..\..\..\..\..\uCOS-III\Source/os_task.c **** ***************************************************************************************************
1568:..\..\..\..\..\..\uCOS-III\Source/os_task.c **** */
1569:..\..\..\..\..\..\uCOS-III\Source/os_task.c **** 
1570:..\..\..\..\..\..\uCOS-III\Source/os_task.c **** OS_SEM_CTR  OSTaskSemSet (OS_TCB      *p_tcb,
1571:..\..\..\..\..\..\uCOS-III\Source/os_task.c ****                           OS_SEM_CTR   cnt,
1572:..\..\..\..\..\..\uCOS-III\Source/os_task.c ****                           OS_ERR      *p_err)
1573:..\..\..\..\..\..\uCOS-III\Source/os_task.c **** {
 2229              		.loc 1 1573 0
 2230              		.cfi_startproc
 2231              		@ args = 0, pretend = 0, frame = 24
ARM GAS  C:\Users\Aluno\AppData\Local\Temp\ccHJiRYw.s 			page 68


 2232              		@ frame_needed = 1, uses_anonymous_args = 0
 2233 0000 80B5     		push	{r7, lr}
 2234              		.cfi_def_cfa_offset 8
 2235              		.cfi_offset 7, -8
 2236              		.cfi_offset 14, -4
 2237 0002 86B0     		sub	sp, sp, #24
 2238              		.cfi_def_cfa_offset 32
 2239 0004 00AF     		add	r7, sp, #0
 2240              		.cfi_def_cfa_register 7
 2241 0006 F860     		str	r0, [r7, #12]
 2242 0008 B960     		str	r1, [r7, #8]
 2243 000a 7A60     		str	r2, [r7, #4]
1574:..\..\..\..\..\..\uCOS-III\Source/os_task.c ****     OS_SEM_CTR  ctr;
1575:..\..\..\..\..\..\uCOS-III\Source/os_task.c ****     CPU_SR_ALLOC();
 2244              		.loc 1 1575 0
 2245 000c 0023     		movs	r3, #0
 2246 000e 7B61     		str	r3, [r7, #20]
1576:..\..\..\..\..\..\uCOS-III\Source/os_task.c **** 
1577:..\..\..\..\..\..\uCOS-III\Source/os_task.c **** 
1578:..\..\..\..\..\..\uCOS-III\Source/os_task.c **** 
1579:..\..\..\..\..\..\uCOS-III\Source/os_task.c **** #ifdef OS_SAFETY_CRITICAL
1580:..\..\..\..\..\..\uCOS-III\Source/os_task.c ****     if (p_err == (OS_ERR *)0) {
1581:..\..\..\..\..\..\uCOS-III\Source/os_task.c ****         OS_SAFETY_CRITICAL_EXCEPTION();
1582:..\..\..\..\..\..\uCOS-III\Source/os_task.c ****         return ((OS_SEM_CTR)0);
1583:..\..\..\..\..\..\uCOS-III\Source/os_task.c ****     }
1584:..\..\..\..\..\..\uCOS-III\Source/os_task.c **** #endif
1585:..\..\..\..\..\..\uCOS-III\Source/os_task.c **** 
1586:..\..\..\..\..\..\uCOS-III\Source/os_task.c **** #if OS_CFG_CALLED_FROM_ISR_CHK_EN > 0u
1587:..\..\..\..\..\..\uCOS-III\Source/os_task.c ****     if (OSIntNestingCtr > (OS_NESTING_CTR)0) {              /* Not allowed to call from an ISR     
 2247              		.loc 1 1587 0
 2248 0010 114B     		ldr	r3, .L184
 2249 0012 1B78     		ldrb	r3, [r3]	@ zero_extendqisi2
 2250 0014 002B     		cmp	r3, #0
 2251 0016 05D0     		beq	.L181
1588:..\..\..\..\..\..\uCOS-III\Source/os_task.c ****        *p_err = OS_ERR_SET_ISR;
 2252              		.loc 1 1588 0
 2253 0018 7B68     		ldr	r3, [r7, #4]
 2254 001a 46F6C652 		movw	r2, #28102
 2255 001e 1A80     		strh	r2, [r3]	@ movhi
1589:..\..\..\..\..\..\uCOS-III\Source/os_task.c ****         return ((OS_SEM_CTR)0);
 2256              		.loc 1 1589 0
 2257 0020 0023     		movs	r3, #0
 2258 0022 15E0     		b	.L182
 2259              	.L181:
1590:..\..\..\..\..\..\uCOS-III\Source/os_task.c ****     }
1591:..\..\..\..\..\..\uCOS-III\Source/os_task.c **** #endif
1592:..\..\..\..\..\..\uCOS-III\Source/os_task.c **** 
1593:..\..\..\..\..\..\uCOS-III\Source/os_task.c ****     CPU_CRITICAL_ENTER();
 2260              		.loc 1 1593 0
 2261 0024 FFF7FEFF 		bl	CPU_SR_Save
 2262 0028 7861     		str	r0, [r7, #20]
1594:..\..\..\..\..\..\uCOS-III\Source/os_task.c ****     if (p_tcb == (OS_TCB *)0) {
 2263              		.loc 1 1594 0
 2264 002a FB68     		ldr	r3, [r7, #12]
 2265 002c 002B     		cmp	r3, #0
 2266 002e 02D1     		bne	.L183
1595:..\..\..\..\..\..\uCOS-III\Source/os_task.c ****         p_tcb = OSTCBCurPtr;
ARM GAS  C:\Users\Aluno\AppData\Local\Temp\ccHJiRYw.s 			page 69


 2267              		.loc 1 1595 0
 2268 0030 0A4B     		ldr	r3, .L184+4
 2269 0032 1B68     		ldr	r3, [r3]
 2270 0034 FB60     		str	r3, [r7, #12]
 2271              	.L183:
1596:..\..\..\..\..\..\uCOS-III\Source/os_task.c ****     }
1597:..\..\..\..\..\..\uCOS-III\Source/os_task.c ****     ctr           = p_tcb->SemCtr;
 2272              		.loc 1 1597 0
 2273 0036 FB68     		ldr	r3, [r7, #12]
 2274 0038 5B6C     		ldr	r3, [r3, #68]
 2275 003a 3B61     		str	r3, [r7, #16]
1598:..\..\..\..\..\..\uCOS-III\Source/os_task.c ****     p_tcb->SemCtr = (OS_SEM_CTR)cnt;
 2276              		.loc 1 1598 0
 2277 003c FB68     		ldr	r3, [r7, #12]
 2278 003e BA68     		ldr	r2, [r7, #8]
 2279 0040 5A64     		str	r2, [r3, #68]
1599:..\..\..\..\..\..\uCOS-III\Source/os_task.c ****     CPU_CRITICAL_EXIT();
 2280              		.loc 1 1599 0
 2281 0042 7869     		ldr	r0, [r7, #20]
 2282 0044 FFF7FEFF 		bl	CPU_SR_Restore
1600:..\..\..\..\..\..\uCOS-III\Source/os_task.c ****    *p_err         =  OS_ERR_NONE;
 2283              		.loc 1 1600 0
 2284 0048 7B68     		ldr	r3, [r7, #4]
 2285 004a 0022     		movs	r2, #0
 2286 004c 1A80     		strh	r2, [r3]	@ movhi
1601:..\..\..\..\..\..\uCOS-III\Source/os_task.c ****     return (ctr);
 2287              		.loc 1 1601 0
 2288 004e 3B69     		ldr	r3, [r7, #16]
 2289              	.L182:
1602:..\..\..\..\..\..\uCOS-III\Source/os_task.c **** }
 2290              		.loc 1 1602 0
 2291 0050 1846     		mov	r0, r3
 2292 0052 1837     		adds	r7, r7, #24
 2293              		.cfi_def_cfa_offset 8
 2294 0054 BD46     		mov	sp, r7
 2295              		.cfi_def_cfa_register 13
 2296              		@ sp needed
 2297 0056 80BD     		pop	{r7, pc}
 2298              	.L185:
 2299              		.align	2
 2300              	.L184:
 2301 0058 00000000 		.word	OSIntNestingCtr
 2302 005c 00000000 		.word	OSTCBCurPtr
 2303              		.cfi_endproc
 2304              	.LFE14:
 2305              		.size	OSTaskSemSet, .-OSTaskSemSet
 2306              		.section	.text.OSTaskStkChk,"ax",%progbits
 2307              		.align	2
 2308              		.global	OSTaskStkChk
 2309              		.thumb
 2310              		.thumb_func
 2311              		.type	OSTaskStkChk, %function
 2312              	OSTaskStkChk:
 2313              	.LFB15:
1603:..\..\..\..\..\..\uCOS-III\Source/os_task.c **** 
1604:..\..\..\..\..\..\uCOS-III\Source/os_task.c **** /*$PAGE*/
1605:..\..\..\..\..\..\uCOS-III\Source/os_task.c **** /*
ARM GAS  C:\Users\Aluno\AppData\Local\Temp\ccHJiRYw.s 			page 70


1606:..\..\..\..\..\..\uCOS-III\Source/os_task.c **** ***************************************************************************************************
1607:..\..\..\..\..\..\uCOS-III\Source/os_task.c **** *                                                    STACK CHECKING
1608:..\..\..\..\..\..\uCOS-III\Source/os_task.c **** *
1609:..\..\..\..\..\..\uCOS-III\Source/os_task.c **** * Description: This function is called to calculate the amount of free memory left on the specified
1610:..\..\..\..\..\..\uCOS-III\Source/os_task.c **** *
1611:..\..\..\..\..\..\uCOS-III\Source/os_task.c **** * Arguments  : p_tcb       is a pointer to the TCB of the task to check.  If you specify a NULL poi
1612:..\..\..\..\..\..\uCOS-III\Source/os_task.c **** *                          you are specifying that you want to check the stack of the current task.
1613:..\..\..\..\..\..\uCOS-III\Source/os_task.c **** *
1614:..\..\..\..\..\..\uCOS-III\Source/os_task.c **** *              p_free      is a pointer to a variable that will receive the number of free 'entries
1615:..\..\..\..\..\..\uCOS-III\Source/os_task.c **** *
1616:..\..\..\..\..\..\uCOS-III\Source/os_task.c **** *              p_used      is a pointer to a variable that will receive the number of used 'entries
1617:..\..\..\..\..\..\uCOS-III\Source/os_task.c **** *
1618:..\..\..\..\..\..\uCOS-III\Source/os_task.c **** *              p_err       is a pointer to a variable that will contain an error code.
1619:..\..\..\..\..\..\uCOS-III\Source/os_task.c **** *
1620:..\..\..\..\..\..\uCOS-III\Source/os_task.c **** *                              OS_ERR_NONE               upon success
1621:..\..\..\..\..\..\uCOS-III\Source/os_task.c **** *                              OS_ERR_PTR_INVALID        if either 'p_free' or 'p_used' are NULL po
1622:..\..\..\..\..\..\uCOS-III\Source/os_task.c **** *                              OS_ERR_TASK_NOT_EXIST     if the stack pointer of the task is a NULL
1623:..\..\..\..\..\..\uCOS-III\Source/os_task.c **** *                              OS_ERR_TASK_OPT           if you did NOT specified OS_OPT_TASK_STK_C
1624:..\..\..\..\..\..\uCOS-III\Source/os_task.c **** *                                                        was created
1625:..\..\..\..\..\..\uCOS-III\Source/os_task.c **** *                              OS_ERR_TASK_STK_CHK_ISR   you called this function from an ISR
1626:..\..\..\..\..\..\uCOS-III\Source/os_task.c **** ***************************************************************************************************
1627:..\..\..\..\..\..\uCOS-III\Source/os_task.c **** */
1628:..\..\..\..\..\..\uCOS-III\Source/os_task.c **** 
1629:..\..\..\..\..\..\uCOS-III\Source/os_task.c **** #if OS_CFG_STAT_TASK_STK_CHK_EN > 0u
1630:..\..\..\..\..\..\uCOS-III\Source/os_task.c **** void  OSTaskStkChk (OS_TCB        *p_tcb,
1631:..\..\..\..\..\..\uCOS-III\Source/os_task.c ****                     CPU_STK_SIZE  *p_free,
1632:..\..\..\..\..\..\uCOS-III\Source/os_task.c ****                     CPU_STK_SIZE  *p_used,
1633:..\..\..\..\..\..\uCOS-III\Source/os_task.c ****                     OS_ERR        *p_err)
1634:..\..\..\..\..\..\uCOS-III\Source/os_task.c **** {
 2314              		.loc 1 1634 0
 2315              		.cfi_startproc
 2316              		@ args = 0, pretend = 0, frame = 32
 2317              		@ frame_needed = 1, uses_anonymous_args = 0
 2318 0000 80B5     		push	{r7, lr}
 2319              		.cfi_def_cfa_offset 8
 2320              		.cfi_offset 7, -8
 2321              		.cfi_offset 14, -4
 2322 0002 88B0     		sub	sp, sp, #32
 2323              		.cfi_def_cfa_offset 40
 2324 0004 00AF     		add	r7, sp, #0
 2325              		.cfi_def_cfa_register 7
 2326 0006 F860     		str	r0, [r7, #12]
 2327 0008 B960     		str	r1, [r7, #8]
 2328 000a 7A60     		str	r2, [r7, #4]
 2329 000c 3B60     		str	r3, [r7]
1635:..\..\..\..\..\..\uCOS-III\Source/os_task.c ****     CPU_STK_SIZE  free_stk;
1636:..\..\..\..\..\..\uCOS-III\Source/os_task.c ****     CPU_STK      *p_stk;
1637:..\..\..\..\..\..\uCOS-III\Source/os_task.c ****     CPU_SR_ALLOC();
 2330              		.loc 1 1637 0
 2331 000e 0023     		movs	r3, #0
 2332 0010 7B61     		str	r3, [r7, #20]
1638:..\..\..\..\..\..\uCOS-III\Source/os_task.c **** 
1639:..\..\..\..\..\..\uCOS-III\Source/os_task.c **** 
1640:..\..\..\..\..\..\uCOS-III\Source/os_task.c **** 
1641:..\..\..\..\..\..\uCOS-III\Source/os_task.c **** #ifdef OS_SAFETY_CRITICAL
1642:..\..\..\..\..\..\uCOS-III\Source/os_task.c ****     if (p_err == (OS_ERR *)0) {
1643:..\..\..\..\..\..\uCOS-III\Source/os_task.c ****         OS_SAFETY_CRITICAL_EXCEPTION();
ARM GAS  C:\Users\Aluno\AppData\Local\Temp\ccHJiRYw.s 			page 71


1644:..\..\..\..\..\..\uCOS-III\Source/os_task.c ****         return;
1645:..\..\..\..\..\..\uCOS-III\Source/os_task.c ****     }
1646:..\..\..\..\..\..\uCOS-III\Source/os_task.c **** #endif
1647:..\..\..\..\..\..\uCOS-III\Source/os_task.c **** 
1648:..\..\..\..\..\..\uCOS-III\Source/os_task.c **** #if OS_CFG_CALLED_FROM_ISR_CHK_EN > 0u
1649:..\..\..\..\..\..\uCOS-III\Source/os_task.c ****     if (OSIntNestingCtr > (OS_NESTING_CTR)0) {              /* See if trying to check stack from IS
 2333              		.loc 1 1649 0
 2334 0012 354B     		ldr	r3, .L196
 2335 0014 1B78     		ldrb	r3, [r3]	@ zero_extendqisi2
 2336 0016 002B     		cmp	r3, #0
 2337 0018 04D0     		beq	.L187
1650:..\..\..\..\..\..\uCOS-III\Source/os_task.c ****        *p_err = OS_ERR_TASK_STK_CHK_ISR;
 2338              		.loc 1 1650 0
 2339 001a 3B68     		ldr	r3, [r7]
 2340 001c 47F25912 		movw	r2, #29017
 2341 0020 1A80     		strh	r2, [r3]	@ movhi
1651:..\..\..\..\..\..\uCOS-III\Source/os_task.c ****         return;
 2342              		.loc 1 1651 0
 2343 0022 5DE0     		b	.L186
 2344              	.L187:
1652:..\..\..\..\..\..\uCOS-III\Source/os_task.c ****     }
1653:..\..\..\..\..\..\uCOS-III\Source/os_task.c **** #endif
1654:..\..\..\..\..\..\uCOS-III\Source/os_task.c **** 
1655:..\..\..\..\..\..\uCOS-III\Source/os_task.c **** #if OS_CFG_ARG_CHK_EN > 0u
1656:..\..\..\..\..\..\uCOS-III\Source/os_task.c ****     if (p_free == (CPU_STK_SIZE*)0) {                       /* User must specify valid destinations
 2345              		.loc 1 1656 0
 2346 0024 BB68     		ldr	r3, [r7, #8]
 2347 0026 002B     		cmp	r3, #0
 2348 0028 04D1     		bne	.L189
1657:..\..\..\..\..\..\uCOS-III\Source/os_task.c ****        *p_err  = OS_ERR_PTR_INVALID;
 2349              		.loc 1 1657 0
 2350 002a 3B68     		ldr	r3, [r7]
 2351 002c 46F2D522 		movw	r2, #25301
 2352 0030 1A80     		strh	r2, [r3]	@ movhi
1658:..\..\..\..\..\..\uCOS-III\Source/os_task.c ****         return;
 2353              		.loc 1 1658 0
 2354 0032 55E0     		b	.L186
 2355              	.L189:
1659:..\..\..\..\..\..\uCOS-III\Source/os_task.c ****     }
1660:..\..\..\..\..\..\uCOS-III\Source/os_task.c **** 
1661:..\..\..\..\..\..\uCOS-III\Source/os_task.c ****     if (p_used == (CPU_STK_SIZE*)0) {
 2356              		.loc 1 1661 0
 2357 0034 7B68     		ldr	r3, [r7, #4]
 2358 0036 002B     		cmp	r3, #0
 2359 0038 04D1     		bne	.L190
1662:..\..\..\..\..\..\uCOS-III\Source/os_task.c ****        *p_err  = OS_ERR_PTR_INVALID;
 2360              		.loc 1 1662 0
 2361 003a 3B68     		ldr	r3, [r7]
 2362 003c 46F2D522 		movw	r2, #25301
 2363 0040 1A80     		strh	r2, [r3]	@ movhi
1663:..\..\..\..\..\..\uCOS-III\Source/os_task.c ****         return;
 2364              		.loc 1 1663 0
 2365 0042 4DE0     		b	.L186
 2366              	.L190:
1664:..\..\..\..\..\..\uCOS-III\Source/os_task.c ****     }
1665:..\..\..\..\..\..\uCOS-III\Source/os_task.c **** #endif
1666:..\..\..\..\..\..\uCOS-III\Source/os_task.c **** 
ARM GAS  C:\Users\Aluno\AppData\Local\Temp\ccHJiRYw.s 			page 72


1667:..\..\..\..\..\..\uCOS-III\Source/os_task.c ****     CPU_CRITICAL_ENTER();
 2367              		.loc 1 1667 0
 2368 0044 FFF7FEFF 		bl	CPU_SR_Save
 2369 0048 7861     		str	r0, [r7, #20]
1668:..\..\..\..\..\..\uCOS-III\Source/os_task.c ****     if (p_tcb == (OS_TCB *)0) {                             /* Check the stack of the current task?
 2370              		.loc 1 1668 0
 2371 004a FB68     		ldr	r3, [r7, #12]
 2372 004c 002B     		cmp	r3, #0
 2373 004e 02D1     		bne	.L191
1669:..\..\..\..\..\..\uCOS-III\Source/os_task.c ****         p_tcb = OSTCBCurPtr;                                /* Yes                                 
 2374              		.loc 1 1669 0
 2375 0050 264B     		ldr	r3, .L196+4
 2376 0052 1B68     		ldr	r3, [r3]
 2377 0054 FB60     		str	r3, [r7, #12]
 2378              	.L191:
1670:..\..\..\..\..\..\uCOS-III\Source/os_task.c ****     }
1671:..\..\..\..\..\..\uCOS-III\Source/os_task.c **** 
1672:..\..\..\..\..\..\uCOS-III\Source/os_task.c ****     if (p_tcb->StkPtr == (CPU_STK*)0) {                     /* Make sure task exist                
 2379              		.loc 1 1672 0
 2380 0056 FB68     		ldr	r3, [r7, #12]
 2381 0058 1B68     		ldr	r3, [r3]
 2382 005a 002B     		cmp	r3, #0
 2383 005c 0DD1     		bne	.L192
1673:..\..\..\..\..\..\uCOS-III\Source/os_task.c ****         CPU_CRITICAL_EXIT();
 2384              		.loc 1 1673 0
 2385 005e 7869     		ldr	r0, [r7, #20]
 2386 0060 FFF7FEFF 		bl	CPU_SR_Restore
1674:..\..\..\..\..\..\uCOS-III\Source/os_task.c ****        *p_free = (CPU_STK_SIZE)0;
 2387              		.loc 1 1674 0
 2388 0064 BB68     		ldr	r3, [r7, #8]
 2389 0066 0022     		movs	r2, #0
 2390 0068 1A60     		str	r2, [r3]
1675:..\..\..\..\..\..\uCOS-III\Source/os_task.c ****        *p_used = (CPU_STK_SIZE)0;
 2391              		.loc 1 1675 0
 2392 006a 7B68     		ldr	r3, [r7, #4]
 2393 006c 0022     		movs	r2, #0
 2394 006e 1A60     		str	r2, [r3]
1676:..\..\..\..\..\..\uCOS-III\Source/os_task.c ****        *p_err  =  OS_ERR_TASK_NOT_EXIST;
 2395              		.loc 1 1676 0
 2396 0070 3B68     		ldr	r3, [r7]
 2397 0072 47F25212 		movw	r2, #29010
 2398 0076 1A80     		strh	r2, [r3]	@ movhi
1677:..\..\..\..\..\..\uCOS-III\Source/os_task.c ****         return;
 2399              		.loc 1 1677 0
 2400 0078 32E0     		b	.L186
 2401              	.L192:
1678:..\..\..\..\..\..\uCOS-III\Source/os_task.c ****     }
1679:..\..\..\..\..\..\uCOS-III\Source/os_task.c **** 
1680:..\..\..\..\..\..\uCOS-III\Source/os_task.c ****     if ((p_tcb->Opt & OS_OPT_TASK_STK_CHK) == (OS_OPT)0) {  /* Make sure stack checking option is s
 2402              		.loc 1 1680 0
 2403 007a FB68     		ldr	r3, [r7, #12]
 2404 007c 9B8F     		ldrh	r3, [r3, #60]
 2405 007e 03F00103 		and	r3, r3, #1
 2406 0082 002B     		cmp	r3, #0
 2407 0084 0DD1     		bne	.L193
1681:..\..\..\..\..\..\uCOS-III\Source/os_task.c ****         CPU_CRITICAL_EXIT();
 2408              		.loc 1 1681 0
ARM GAS  C:\Users\Aluno\AppData\Local\Temp\ccHJiRYw.s 			page 73


 2409 0086 7869     		ldr	r0, [r7, #20]
 2410 0088 FFF7FEFF 		bl	CPU_SR_Restore
1682:..\..\..\..\..\..\uCOS-III\Source/os_task.c ****        *p_free = (CPU_STK_SIZE)0;
 2411              		.loc 1 1682 0
 2412 008c BB68     		ldr	r3, [r7, #8]
 2413 008e 0022     		movs	r2, #0
 2414 0090 1A60     		str	r2, [r3]
1683:..\..\..\..\..\..\uCOS-III\Source/os_task.c ****        *p_used = (CPU_STK_SIZE)0;
 2415              		.loc 1 1683 0
 2416 0092 7B68     		ldr	r3, [r7, #4]
 2417 0094 0022     		movs	r2, #0
 2418 0096 1A60     		str	r2, [r3]
1684:..\..\..\..\..\..\uCOS-III\Source/os_task.c ****        *p_err  =  OS_ERR_TASK_OPT;
 2419              		.loc 1 1684 0
 2420 0098 3B68     		ldr	r3, [r7]
 2421 009a 47F25412 		movw	r2, #29012
 2422 009e 1A80     		strh	r2, [r3]	@ movhi
1685:..\..\..\..\..\..\uCOS-III\Source/os_task.c ****         return;
 2423              		.loc 1 1685 0
 2424 00a0 1EE0     		b	.L186
 2425              	.L193:
1686:..\..\..\..\..\..\uCOS-III\Source/os_task.c ****     }
1687:..\..\..\..\..\..\uCOS-III\Source/os_task.c ****     CPU_CRITICAL_EXIT();
 2426              		.loc 1 1687 0
 2427 00a2 7869     		ldr	r0, [r7, #20]
 2428 00a4 FFF7FEFF 		bl	CPU_SR_Restore
1688:..\..\..\..\..\..\uCOS-III\Source/os_task.c **** 
1689:..\..\..\..\..\..\uCOS-III\Source/os_task.c ****     free_stk  = 0u;
 2429              		.loc 1 1689 0
 2430 00a8 0023     		movs	r3, #0
 2431 00aa FB61     		str	r3, [r7, #28]
1690:..\..\..\..\..\..\uCOS-III\Source/os_task.c **** #if CPU_CFG_STK_GROWTH == CPU_STK_GROWTH_HI_TO_LO
1691:..\..\..\..\..\..\uCOS-III\Source/os_task.c ****     p_stk = p_tcb->StkBasePtr;                              /* Start at the lowest memory and go up
 2432              		.loc 1 1691 0
 2433 00ac FB68     		ldr	r3, [r7, #12]
 2434 00ae 5B6A     		ldr	r3, [r3, #36]
 2435 00b0 BB61     		str	r3, [r7, #24]
1692:..\..\..\..\..\..\uCOS-III\Source/os_task.c ****     while (*p_stk == (CPU_STK)0) {                          /* Compute the number of zero entries o
 2436              		.loc 1 1692 0
 2437 00b2 05E0     		b	.L194
 2438              	.L195:
1693:..\..\..\..\..\..\uCOS-III\Source/os_task.c ****         p_stk++;
 2439              		.loc 1 1693 0
 2440 00b4 BB69     		ldr	r3, [r7, #24]
 2441 00b6 0433     		adds	r3, r3, #4
 2442 00b8 BB61     		str	r3, [r7, #24]
1694:..\..\..\..\..\..\uCOS-III\Source/os_task.c ****         free_stk++;
 2443              		.loc 1 1694 0
 2444 00ba FB69     		ldr	r3, [r7, #28]
 2445 00bc 0133     		adds	r3, r3, #1
 2446 00be FB61     		str	r3, [r7, #28]
 2447              	.L194:
1692:..\..\..\..\..\..\uCOS-III\Source/os_task.c ****     while (*p_stk == (CPU_STK)0) {                          /* Compute the number of zero entries o
 2448              		.loc 1 1692 0
 2449 00c0 BB69     		ldr	r3, [r7, #24]
 2450 00c2 1B68     		ldr	r3, [r3]
 2451 00c4 002B     		cmp	r3, #0
ARM GAS  C:\Users\Aluno\AppData\Local\Temp\ccHJiRYw.s 			page 74


 2452 00c6 F5D0     		beq	.L195
1695:..\..\..\..\..\..\uCOS-III\Source/os_task.c ****     }
1696:..\..\..\..\..\..\uCOS-III\Source/os_task.c **** #else
1697:..\..\..\..\..\..\uCOS-III\Source/os_task.c ****     p_stk = p_tcb->StkBasePtr + p_tcb->StkSize - 1u;        /* Start at the highest memory and go d
1698:..\..\..\..\..\..\uCOS-III\Source/os_task.c ****     while (*p_stk == (CPU_STK)0) {
1699:..\..\..\..\..\..\uCOS-III\Source/os_task.c ****         free_stk++;
1700:..\..\..\..\..\..\uCOS-III\Source/os_task.c ****         p_stk--;
1701:..\..\..\..\..\..\uCOS-III\Source/os_task.c ****     }
1702:..\..\..\..\..\..\uCOS-III\Source/os_task.c **** #endif
1703:..\..\..\..\..\..\uCOS-III\Source/os_task.c ****    *p_free = free_stk;
 2453              		.loc 1 1703 0
 2454 00c8 BB68     		ldr	r3, [r7, #8]
 2455 00ca FA69     		ldr	r2, [r7, #28]
 2456 00cc 1A60     		str	r2, [r3]
1704:..\..\..\..\..\..\uCOS-III\Source/os_task.c ****    *p_used = (p_tcb->StkSize - free_stk);                   /* Compute number of entries used on th
 2457              		.loc 1 1704 0
 2458 00ce FB68     		ldr	r3, [r7, #12]
 2459 00d0 9A6B     		ldr	r2, [r3, #56]
 2460 00d2 FB69     		ldr	r3, [r7, #28]
 2461 00d4 D21A     		subs	r2, r2, r3
 2462 00d6 7B68     		ldr	r3, [r7, #4]
 2463 00d8 1A60     		str	r2, [r3]
1705:..\..\..\..\..\..\uCOS-III\Source/os_task.c ****    *p_err  = OS_ERR_NONE;
 2464              		.loc 1 1705 0
 2465 00da 3B68     		ldr	r3, [r7]
 2466 00dc 0022     		movs	r2, #0
 2467 00de 1A80     		strh	r2, [r3]	@ movhi
 2468              	.L186:
1706:..\..\..\..\..\..\uCOS-III\Source/os_task.c **** }
 2469              		.loc 1 1706 0
 2470 00e0 2037     		adds	r7, r7, #32
 2471              		.cfi_def_cfa_offset 8
 2472 00e2 BD46     		mov	sp, r7
 2473              		.cfi_def_cfa_register 13
 2474              		@ sp needed
 2475 00e4 80BD     		pop	{r7, pc}
 2476              	.L197:
 2477 00e6 00BF     		.align	2
 2478              	.L196:
 2479 00e8 00000000 		.word	OSIntNestingCtr
 2480 00ec 00000000 		.word	OSTCBCurPtr
 2481              		.cfi_endproc
 2482              	.LFE15:
 2483              		.size	OSTaskStkChk, .-OSTaskStkChk
 2484              		.section	.text.OSTaskSuspend,"ax",%progbits
 2485              		.align	2
 2486              		.global	OSTaskSuspend
 2487              		.thumb
 2488              		.thumb_func
 2489              		.type	OSTaskSuspend, %function
 2490              	OSTaskSuspend:
 2491              	.LFB16:
1707:..\..\..\..\..\..\uCOS-III\Source/os_task.c **** #endif
1708:..\..\..\..\..\..\uCOS-III\Source/os_task.c **** 
1709:..\..\..\..\..\..\uCOS-III\Source/os_task.c **** /*$PAGE*/
1710:..\..\..\..\..\..\uCOS-III\Source/os_task.c **** /*
1711:..\..\..\..\..\..\uCOS-III\Source/os_task.c **** ***************************************************************************************************
ARM GAS  C:\Users\Aluno\AppData\Local\Temp\ccHJiRYw.s 			page 75


1712:..\..\..\..\..\..\uCOS-III\Source/os_task.c **** *                                                   SUSPEND A TASK
1713:..\..\..\..\..\..\uCOS-III\Source/os_task.c **** *
1714:..\..\..\..\..\..\uCOS-III\Source/os_task.c **** * Description: This function is called to suspend a task.  The task can be the calling task if 'p_t
1715:..\..\..\..\..\..\uCOS-III\Source/os_task.c **** *              or the pointer to the TCB of the calling task.
1716:..\..\..\..\..\..\uCOS-III\Source/os_task.c **** *
1717:..\..\..\..\..\..\uCOS-III\Source/os_task.c **** * Arguments  : p_tcb    is a pointer to the TCB to suspend.
1718:..\..\..\..\..\..\uCOS-III\Source/os_task.c **** *                       If p_tcb is a NULL pointer then, suspend the current task.
1719:..\..\..\..\..\..\uCOS-III\Source/os_task.c **** *
1720:..\..\..\..\..\..\uCOS-III\Source/os_task.c **** *              p_err    is a pointer to a variable that will receive an error code from this functi
1721:..\..\..\..\..\..\uCOS-III\Source/os_task.c **** *
1722:..\..\..\..\..\..\uCOS-III\Source/os_task.c **** *                           OS_ERR_NONE                      if the requested task is suspended
1723:..\..\..\..\..\..\uCOS-III\Source/os_task.c **** *                           OS_ERR_SCHED_LOCKED              you can't suspend the current task is 
1724:..\..\..\..\..\..\uCOS-III\Source/os_task.c **** *                                                            locked
1725:..\..\..\..\..\..\uCOS-III\Source/os_task.c **** *                           OS_ERR_TASK_SUSPEND_ISR          if you called this function from an IS
1726:..\..\..\..\..\..\uCOS-III\Source/os_task.c **** *                           OS_ERR_TASK_SUSPEND_IDLE         if you attempted to suspend the idle t
1727:..\..\..\..\..\..\uCOS-III\Source/os_task.c **** *                                                            allowed.
1728:..\..\..\..\..\..\uCOS-III\Source/os_task.c **** *                           OS_ERR_TASK_SUSPEND_INT_HANDLER  if you attempted to suspend the idle t
1729:..\..\..\..\..\..\uCOS-III\Source/os_task.c **** *                                                            allowed.
1730:..\..\..\..\..\..\uCOS-III\Source/os_task.c **** *
1731:..\..\..\..\..\..\uCOS-III\Source/os_task.c **** * Note(s)    : 1) You should use this function with great care.  If you suspend a task that is wait
1732:..\..\..\..\..\..\uCOS-III\Source/os_task.c **** *                 (i.e. a message, a semaphore, a queue ...) you will prevent this task from runnin
1733:..\..\..\..\..\..\uCOS-III\Source/os_task.c **** *                 arrives.
1734:..\..\..\..\..\..\uCOS-III\Source/os_task.c **** ***************************************************************************************************
1735:..\..\..\..\..\..\uCOS-III\Source/os_task.c **** */
1736:..\..\..\..\..\..\uCOS-III\Source/os_task.c **** 
1737:..\..\..\..\..\..\uCOS-III\Source/os_task.c **** #if OS_CFG_TASK_SUSPEND_EN > 0u
1738:..\..\..\..\..\..\uCOS-III\Source/os_task.c **** void   OSTaskSuspend (OS_TCB  *p_tcb,
1739:..\..\..\..\..\..\uCOS-III\Source/os_task.c ****                       OS_ERR  *p_err)
1740:..\..\..\..\..\..\uCOS-III\Source/os_task.c **** {
 2492              		.loc 1 1740 0
 2493              		.cfi_startproc
 2494              		@ args = 0, pretend = 0, frame = 8
 2495              		@ frame_needed = 1, uses_anonymous_args = 0
 2496 0000 80B5     		push	{r7, lr}
 2497              		.cfi_def_cfa_offset 8
 2498              		.cfi_offset 7, -8
 2499              		.cfi_offset 14, -4
 2500 0002 82B0     		sub	sp, sp, #8
 2501              		.cfi_def_cfa_offset 16
 2502 0004 00AF     		add	r7, sp, #0
 2503              		.cfi_def_cfa_register 7
 2504 0006 7860     		str	r0, [r7, #4]
 2505 0008 3960     		str	r1, [r7]
1741:..\..\..\..\..\..\uCOS-III\Source/os_task.c **** #ifdef OS_SAFETY_CRITICAL
1742:..\..\..\..\..\..\uCOS-III\Source/os_task.c ****     if (p_err == (OS_ERR *)0) {
1743:..\..\..\..\..\..\uCOS-III\Source/os_task.c ****         OS_SAFETY_CRITICAL_EXCEPTION();
1744:..\..\..\..\..\..\uCOS-III\Source/os_task.c ****         return;
1745:..\..\..\..\..\..\uCOS-III\Source/os_task.c ****     }
1746:..\..\..\..\..\..\uCOS-III\Source/os_task.c **** #endif
1747:..\..\..\..\..\..\uCOS-III\Source/os_task.c **** 
1748:..\..\..\..\..\..\uCOS-III\Source/os_task.c **** #if (OS_CFG_ISR_POST_DEFERRED_EN   == 0u) && \
1749:..\..\..\..\..\..\uCOS-III\Source/os_task.c ****     (OS_CFG_CALLED_FROM_ISR_CHK_EN >  0u)
1750:..\..\..\..\..\..\uCOS-III\Source/os_task.c ****     if (OSIntNestingCtr > (OS_NESTING_CTR)0) {              /* Not allowed to call from an ISR     
 2506              		.loc 1 1750 0
 2507 000a 0C4B     		ldr	r3, .L202
 2508 000c 1B78     		ldrb	r3, [r3]	@ zero_extendqisi2
 2509 000e 002B     		cmp	r3, #0
ARM GAS  C:\Users\Aluno\AppData\Local\Temp\ccHJiRYw.s 			page 76


 2510 0010 04D0     		beq	.L199
1751:..\..\..\..\..\..\uCOS-III\Source/os_task.c ****        *p_err = OS_ERR_TASK_SUSPEND_ISR;
 2511              		.loc 1 1751 0
 2512 0012 3B68     		ldr	r3, [r7]
 2513 0014 47F25D12 		movw	r2, #29021
 2514 0018 1A80     		strh	r2, [r3]	@ movhi
1752:..\..\..\..\..\..\uCOS-III\Source/os_task.c ****         return;
 2515              		.loc 1 1752 0
 2516 001a 0CE0     		b	.L198
 2517              	.L199:
1753:..\..\..\..\..\..\uCOS-III\Source/os_task.c ****     }
1754:..\..\..\..\..\..\uCOS-III\Source/os_task.c **** #endif
1755:..\..\..\..\..\..\uCOS-III\Source/os_task.c **** 
1756:..\..\..\..\..\..\uCOS-III\Source/os_task.c ****     if (p_tcb == &OSIdleTaskTCB) {                          /* Make sure not suspending the idle ta
 2518              		.loc 1 1756 0
 2519 001c 7B68     		ldr	r3, [r7, #4]
 2520 001e 084A     		ldr	r2, .L202+4
 2521 0020 9342     		cmp	r3, r2
 2522 0022 04D1     		bne	.L201
1757:..\..\..\..\..\..\uCOS-III\Source/os_task.c ****        *p_err = OS_ERR_TASK_SUSPEND_IDLE;
 2523              		.loc 1 1757 0
 2524 0024 3B68     		ldr	r3, [r7]
 2525 0026 47F25B12 		movw	r2, #29019
 2526 002a 1A80     		strh	r2, [r3]	@ movhi
1758:..\..\..\..\..\..\uCOS-III\Source/os_task.c ****         return;
 2527              		.loc 1 1758 0
 2528 002c 03E0     		b	.L198
 2529              	.L201:
1759:..\..\..\..\..\..\uCOS-III\Source/os_task.c ****     }
1760:..\..\..\..\..\..\uCOS-III\Source/os_task.c **** 
1761:..\..\..\..\..\..\uCOS-III\Source/os_task.c **** #if OS_CFG_ISR_POST_DEFERRED_EN > 0u
1762:..\..\..\..\..\..\uCOS-III\Source/os_task.c ****     if (p_tcb == &OSIntQTaskTCB) {                          /* Not allowed to suspend the ISR handl
1763:..\..\..\..\..\..\uCOS-III\Source/os_task.c ****        *p_err = OS_ERR_TASK_SUSPEND_INT_HANDLER;
1764:..\..\..\..\..\..\uCOS-III\Source/os_task.c ****         return;
1765:..\..\..\..\..\..\uCOS-III\Source/os_task.c ****     }
1766:..\..\..\..\..\..\uCOS-III\Source/os_task.c **** 
1767:..\..\..\..\..\..\uCOS-III\Source/os_task.c ****     if (OSIntNestingCtr > (OS_NESTING_CTR)0) {              /* See if called from an ISR           
1768:..\..\..\..\..\..\uCOS-III\Source/os_task.c ****         OS_IntQPost((OS_OBJ_TYPE)OS_OBJ_TYPE_TASK_SUSPEND,  /* Post to ISR queue                   
1769:..\..\..\..\..\..\uCOS-III\Source/os_task.c ****                     (void      *)p_tcb,
1770:..\..\..\..\..\..\uCOS-III\Source/os_task.c ****                     (void      *)0,
1771:..\..\..\..\..\..\uCOS-III\Source/os_task.c ****                     (OS_MSG_SIZE)0,
1772:..\..\..\..\..\..\uCOS-III\Source/os_task.c ****                     (OS_FLAGS   )0,
1773:..\..\..\..\..\..\uCOS-III\Source/os_task.c ****                     (OS_OPT     )0,
1774:..\..\..\..\..\..\uCOS-III\Source/os_task.c ****                     (CPU_TS     )0,
1775:..\..\..\..\..\..\uCOS-III\Source/os_task.c ****                     (OS_ERR    *)p_err);
1776:..\..\..\..\..\..\uCOS-III\Source/os_task.c ****         return;
1777:..\..\..\..\..\..\uCOS-III\Source/os_task.c ****     }
1778:..\..\..\..\..\..\uCOS-III\Source/os_task.c **** #endif
1779:..\..\..\..\..\..\uCOS-III\Source/os_task.c **** 
1780:..\..\..\..\..\..\uCOS-III\Source/os_task.c ****     OS_TaskSuspend(p_tcb, p_err);
 2530              		.loc 1 1780 0
 2531 002e 3968     		ldr	r1, [r7]
 2532 0030 7868     		ldr	r0, [r7, #4]
 2533 0032 FFF7FEFF 		bl	OS_TaskSuspend
 2534              	.L198:
1781:..\..\..\..\..\..\uCOS-III\Source/os_task.c **** }
 2535              		.loc 1 1781 0
ARM GAS  C:\Users\Aluno\AppData\Local\Temp\ccHJiRYw.s 			page 77


 2536 0036 0837     		adds	r7, r7, #8
 2537              		.cfi_def_cfa_offset 8
 2538 0038 BD46     		mov	sp, r7
 2539              		.cfi_def_cfa_register 13
 2540              		@ sp needed
 2541 003a 80BD     		pop	{r7, pc}
 2542              	.L203:
 2543              		.align	2
 2544              	.L202:
 2545 003c 00000000 		.word	OSIntNestingCtr
 2546 0040 00000000 		.word	OSIdleTaskTCB
 2547              		.cfi_endproc
 2548              	.LFE16:
 2549              		.size	OSTaskSuspend, .-OSTaskSuspend
 2550              		.section	.text.OSTaskTimeQuantaSet,"ax",%progbits
 2551              		.align	2
 2552              		.global	OSTaskTimeQuantaSet
 2553              		.thumb
 2554              		.thumb_func
 2555              		.type	OSTaskTimeQuantaSet, %function
 2556              	OSTaskTimeQuantaSet:
 2557              	.LFB17:
1782:..\..\..\..\..\..\uCOS-III\Source/os_task.c **** #endif
1783:..\..\..\..\..\..\uCOS-III\Source/os_task.c **** 
1784:..\..\..\..\..\..\uCOS-III\Source/os_task.c **** /*$PAGE*/
1785:..\..\..\..\..\..\uCOS-III\Source/os_task.c **** /*
1786:..\..\..\..\..\..\uCOS-III\Source/os_task.c **** ***************************************************************************************************
1787:..\..\..\..\..\..\uCOS-III\Source/os_task.c **** *                                                CHANGE A TASK'S TIME SLICE
1788:..\..\..\..\..\..\uCOS-III\Source/os_task.c **** *
1789:..\..\..\..\..\..\uCOS-III\Source/os_task.c **** * Description: This function is called to change the value of the task's specific time slice.
1790:..\..\..\..\..\..\uCOS-III\Source/os_task.c **** *
1791:..\..\..\..\..\..\uCOS-III\Source/os_task.c **** * Arguments  : p_tcb        is the pointer to the TCB of the task to change. If you specify an NULL
1792:..\..\..\..\..\..\uCOS-III\Source/os_task.c **** *                           task is assumed.
1793:..\..\..\..\..\..\uCOS-III\Source/os_task.c **** *
1794:..\..\..\..\..\..\uCOS-III\Source/os_task.c **** *              time_quanta  is the number of ticks before the CPU is taken away when round-robin sc
1795:..\..\..\..\..\..\uCOS-III\Source/os_task.c **** *
1796:..\..\..\..\..\..\uCOS-III\Source/os_task.c **** *              p_err        is a pointer to an error code returned by this function:
1797:..\..\..\..\..\..\uCOS-III\Source/os_task.c **** *
1798:..\..\..\..\..\..\uCOS-III\Source/os_task.c **** *                               OS_ERR_NONE       upon success
1799:..\..\..\..\..\..\uCOS-III\Source/os_task.c **** *                               OS_ERR_SET_ISR    if you called this function from an ISR
1800:..\..\..\..\..\..\uCOS-III\Source/os_task.c **** *
1801:..\..\..\..\..\..\uCOS-III\Source/os_task.c **** * Returns    : none
1802:..\..\..\..\..\..\uCOS-III\Source/os_task.c **** ***************************************************************************************************
1803:..\..\..\..\..\..\uCOS-III\Source/os_task.c **** */
1804:..\..\..\..\..\..\uCOS-III\Source/os_task.c **** 
1805:..\..\..\..\..\..\uCOS-III\Source/os_task.c **** #if OS_CFG_SCHED_ROUND_ROBIN_EN > 0u
1806:..\..\..\..\..\..\uCOS-III\Source/os_task.c **** void  OSTaskTimeQuantaSet (OS_TCB   *p_tcb,
1807:..\..\..\..\..\..\uCOS-III\Source/os_task.c ****                            OS_TICK   time_quanta,
1808:..\..\..\..\..\..\uCOS-III\Source/os_task.c ****                            OS_ERR   *p_err)
1809:..\..\..\..\..\..\uCOS-III\Source/os_task.c **** {
 2558              		.loc 1 1809 0
 2559              		.cfi_startproc
 2560              		@ args = 0, pretend = 0, frame = 24
 2561              		@ frame_needed = 1, uses_anonymous_args = 0
 2562 0000 80B5     		push	{r7, lr}
 2563              		.cfi_def_cfa_offset 8
 2564              		.cfi_offset 7, -8
ARM GAS  C:\Users\Aluno\AppData\Local\Temp\ccHJiRYw.s 			page 78


 2565              		.cfi_offset 14, -4
 2566 0002 86B0     		sub	sp, sp, #24
 2567              		.cfi_def_cfa_offset 32
 2568 0004 00AF     		add	r7, sp, #0
 2569              		.cfi_def_cfa_register 7
 2570 0006 F860     		str	r0, [r7, #12]
 2571 0008 B960     		str	r1, [r7, #8]
 2572 000a 7A60     		str	r2, [r7, #4]
1810:..\..\..\..\..\..\uCOS-III\Source/os_task.c ****     CPU_SR_ALLOC();
 2573              		.loc 1 1810 0
 2574 000c 0023     		movs	r3, #0
 2575 000e 7B61     		str	r3, [r7, #20]
1811:..\..\..\..\..\..\uCOS-III\Source/os_task.c **** 
1812:..\..\..\..\..\..\uCOS-III\Source/os_task.c **** 
1813:..\..\..\..\..\..\uCOS-III\Source/os_task.c **** 
1814:..\..\..\..\..\..\uCOS-III\Source/os_task.c **** #ifdef OS_SAFETY_CRITICAL
1815:..\..\..\..\..\..\uCOS-III\Source/os_task.c ****     if (p_err == (OS_ERR *)0) {
1816:..\..\..\..\..\..\uCOS-III\Source/os_task.c ****         OS_SAFETY_CRITICAL_EXCEPTION();
1817:..\..\..\..\..\..\uCOS-III\Source/os_task.c ****         return;
1818:..\..\..\..\..\..\uCOS-III\Source/os_task.c ****     }
1819:..\..\..\..\..\..\uCOS-III\Source/os_task.c **** #endif
1820:..\..\..\..\..\..\uCOS-III\Source/os_task.c **** 
1821:..\..\..\..\..\..\uCOS-III\Source/os_task.c **** #if OS_CFG_CALLED_FROM_ISR_CHK_EN > 0u
1822:..\..\..\..\..\..\uCOS-III\Source/os_task.c ****     if (OSIntNestingCtr > (OS_NESTING_CTR)0) {              /* Can't call this function from an ISR
 2576              		.loc 1 1822 0
 2577 0010 174B     		ldr	r3, .L211
 2578 0012 1B78     		ldrb	r3, [r3]	@ zero_extendqisi2
 2579 0014 002B     		cmp	r3, #0
 2580 0016 04D0     		beq	.L205
1823:..\..\..\..\..\..\uCOS-III\Source/os_task.c ****        *p_err = OS_ERR_SET_ISR;
 2581              		.loc 1 1823 0
 2582 0018 7B68     		ldr	r3, [r7, #4]
 2583 001a 46F6C652 		movw	r2, #28102
 2584 001e 1A80     		strh	r2, [r3]	@ movhi
1824:..\..\..\..\..\..\uCOS-III\Source/os_task.c ****         return;
 2585              		.loc 1 1824 0
 2586 0020 23E0     		b	.L204
 2587              	.L205:
1825:..\..\..\..\..\..\uCOS-III\Source/os_task.c ****     }
1826:..\..\..\..\..\..\uCOS-III\Source/os_task.c **** #endif
1827:..\..\..\..\..\..\uCOS-III\Source/os_task.c **** 
1828:..\..\..\..\..\..\uCOS-III\Source/os_task.c ****     CPU_CRITICAL_ENTER();
 2588              		.loc 1 1828 0
 2589 0022 FFF7FEFF 		bl	CPU_SR_Save
 2590 0026 7861     		str	r0, [r7, #20]
1829:..\..\..\..\..\..\uCOS-III\Source/os_task.c ****     if (p_tcb == (OS_TCB *)0) {
 2591              		.loc 1 1829 0
 2592 0028 FB68     		ldr	r3, [r7, #12]
 2593 002a 002B     		cmp	r3, #0
 2594 002c 02D1     		bne	.L207
1830:..\..\..\..\..\..\uCOS-III\Source/os_task.c ****         p_tcb = OSTCBCurPtr;
 2595              		.loc 1 1830 0
 2596 002e 114B     		ldr	r3, .L211+4
 2597 0030 1B68     		ldr	r3, [r3]
 2598 0032 FB60     		str	r3, [r7, #12]
 2599              	.L207:
1831:..\..\..\..\..\..\uCOS-III\Source/os_task.c ****     }
ARM GAS  C:\Users\Aluno\AppData\Local\Temp\ccHJiRYw.s 			page 79


1832:..\..\..\..\..\..\uCOS-III\Source/os_task.c **** 
1833:..\..\..\..\..\..\uCOS-III\Source/os_task.c ****     if (time_quanta == 0u) {
 2600              		.loc 1 1833 0
 2601 0034 BB68     		ldr	r3, [r7, #8]
 2602 0036 002B     		cmp	r3, #0
 2603 0038 04D1     		bne	.L208
1834:..\..\..\..\..\..\uCOS-III\Source/os_task.c ****         p_tcb->TimeQuanta    = OSSchedRoundRobinDfltTimeQuanta;
 2604              		.loc 1 1834 0
 2605 003a 0F4B     		ldr	r3, .L211+8
 2606 003c 1A68     		ldr	r2, [r3]
 2607 003e FB68     		ldr	r3, [r7, #12]
 2608 0040 5A65     		str	r2, [r3, #84]
 2609 0042 02E0     		b	.L209
 2610              	.L208:
1835:..\..\..\..\..\..\uCOS-III\Source/os_task.c ****     } else {
1836:..\..\..\..\..\..\uCOS-III\Source/os_task.c ****         p_tcb->TimeQuanta    = time_quanta;
 2611              		.loc 1 1836 0
 2612 0044 FB68     		ldr	r3, [r7, #12]
 2613 0046 BA68     		ldr	r2, [r7, #8]
 2614 0048 5A65     		str	r2, [r3, #84]
 2615              	.L209:
1837:..\..\..\..\..\..\uCOS-III\Source/os_task.c ****     }
1838:..\..\..\..\..\..\uCOS-III\Source/os_task.c ****     if (p_tcb->TimeQuanta > p_tcb->TimeQuantaCtr) {
 2616              		.loc 1 1838 0
 2617 004a FB68     		ldr	r3, [r7, #12]
 2618 004c 5A6D     		ldr	r2, [r3, #84]
 2619 004e FB68     		ldr	r3, [r7, #12]
 2620 0050 9B6D     		ldr	r3, [r3, #88]
 2621 0052 9A42     		cmp	r2, r3
 2622 0054 03D9     		bls	.L210
1839:..\..\..\..\..\..\uCOS-III\Source/os_task.c ****         p_tcb->TimeQuantaCtr = p_tcb->TimeQuanta;
 2623              		.loc 1 1839 0
 2624 0056 FB68     		ldr	r3, [r7, #12]
 2625 0058 5A6D     		ldr	r2, [r3, #84]
 2626 005a FB68     		ldr	r3, [r7, #12]
 2627 005c 9A65     		str	r2, [r3, #88]
 2628              	.L210:
1840:..\..\..\..\..\..\uCOS-III\Source/os_task.c ****     }
1841:..\..\..\..\..\..\uCOS-III\Source/os_task.c ****     CPU_CRITICAL_EXIT();
 2629              		.loc 1 1841 0
 2630 005e 7869     		ldr	r0, [r7, #20]
 2631 0060 FFF7FEFF 		bl	CPU_SR_Restore
1842:..\..\..\..\..\..\uCOS-III\Source/os_task.c ****    *p_err = OS_ERR_NONE;
 2632              		.loc 1 1842 0
 2633 0064 7B68     		ldr	r3, [r7, #4]
 2634 0066 0022     		movs	r2, #0
 2635 0068 1A80     		strh	r2, [r3]	@ movhi
 2636              	.L204:
1843:..\..\..\..\..\..\uCOS-III\Source/os_task.c **** }
 2637              		.loc 1 1843 0
 2638 006a 1837     		adds	r7, r7, #24
 2639              		.cfi_def_cfa_offset 8
 2640 006c BD46     		mov	sp, r7
 2641              		.cfi_def_cfa_register 13
 2642              		@ sp needed
 2643 006e 80BD     		pop	{r7, pc}
 2644              	.L212:
ARM GAS  C:\Users\Aluno\AppData\Local\Temp\ccHJiRYw.s 			page 80


 2645              		.align	2
 2646              	.L211:
 2647 0070 00000000 		.word	OSIntNestingCtr
 2648 0074 00000000 		.word	OSTCBCurPtr
 2649 0078 00000000 		.word	OSSchedRoundRobinDfltTimeQuanta
 2650              		.cfi_endproc
 2651              	.LFE17:
 2652              		.size	OSTaskTimeQuantaSet, .-OSTaskTimeQuantaSet
 2653              		.section	.text.OS_TaskDbgListAdd,"ax",%progbits
 2654              		.align	2
 2655              		.global	OS_TaskDbgListAdd
 2656              		.thumb
 2657              		.thumb_func
 2658              		.type	OS_TaskDbgListAdd, %function
 2659              	OS_TaskDbgListAdd:
 2660              	.LFB18:
1844:..\..\..\..\..\..\uCOS-III\Source/os_task.c **** #endif
1845:..\..\..\..\..\..\uCOS-III\Source/os_task.c **** 
1846:..\..\..\..\..\..\uCOS-III\Source/os_task.c **** /*$PAGE*/
1847:..\..\..\..\..\..\uCOS-III\Source/os_task.c **** /*
1848:..\..\..\..\..\..\uCOS-III\Source/os_task.c **** ***************************************************************************************************
1849:..\..\..\..\..\..\uCOS-III\Source/os_task.c **** *                                            ADD/REMOVE TASK TO/FROM DEBUG LIST
1850:..\..\..\..\..\..\uCOS-III\Source/os_task.c **** *
1851:..\..\..\..\..\..\uCOS-III\Source/os_task.c **** * Description: These functions are called by uC/OS-III to add or remove an OS_TCB from the debug li
1852:..\..\..\..\..\..\uCOS-III\Source/os_task.c **** *
1853:..\..\..\..\..\..\uCOS-III\Source/os_task.c **** * Arguments  : p_tcb     is a pointer to the OS_TCB to add/remove
1854:..\..\..\..\..\..\uCOS-III\Source/os_task.c **** *
1855:..\..\..\..\..\..\uCOS-III\Source/os_task.c **** * Returns    : none
1856:..\..\..\..\..\..\uCOS-III\Source/os_task.c **** *
1857:..\..\..\..\..\..\uCOS-III\Source/os_task.c **** * Note(s)    : These functions are INTERNAL to uC/OS-III and your application should not call it.
1858:..\..\..\..\..\..\uCOS-III\Source/os_task.c **** ***************************************************************************************************
1859:..\..\..\..\..\..\uCOS-III\Source/os_task.c **** */
1860:..\..\..\..\..\..\uCOS-III\Source/os_task.c **** 
1861:..\..\..\..\..\..\uCOS-III\Source/os_task.c **** #if OS_CFG_DBG_EN > 0u
1862:..\..\..\..\..\..\uCOS-III\Source/os_task.c **** void  OS_TaskDbgListAdd (OS_TCB  *p_tcb)
1863:..\..\..\..\..\..\uCOS-III\Source/os_task.c **** {
 2661              		.loc 1 1863 0
 2662              		.cfi_startproc
 2663              		@ args = 0, pretend = 0, frame = 8
 2664              		@ frame_needed = 1, uses_anonymous_args = 0
 2665              		@ link register save eliminated.
 2666 0000 80B4     		push	{r7}
 2667              		.cfi_def_cfa_offset 4
 2668              		.cfi_offset 7, -4
 2669 0002 83B0     		sub	sp, sp, #12
 2670              		.cfi_def_cfa_offset 16
 2671 0004 00AF     		add	r7, sp, #0
 2672              		.cfi_def_cfa_register 7
 2673 0006 7860     		str	r0, [r7, #4]
1864:..\..\..\..\..\..\uCOS-III\Source/os_task.c ****     p_tcb->DbgPrevPtr                = (OS_TCB *)0;
 2674              		.loc 1 1864 0
 2675 0008 7B68     		ldr	r3, [r7, #4]
 2676 000a 0022     		movs	r2, #0
 2677 000c C3F8B420 		str	r2, [r3, #180]
1865:..\..\..\..\..\..\uCOS-III\Source/os_task.c ****     if (OSTaskDbgListPtr == (OS_TCB *)0) {
 2678              		.loc 1 1865 0
 2679 0010 0D4B     		ldr	r3, .L216
ARM GAS  C:\Users\Aluno\AppData\Local\Temp\ccHJiRYw.s 			page 81


 2680 0012 1B68     		ldr	r3, [r3]
 2681 0014 002B     		cmp	r3, #0
 2682 0016 04D1     		bne	.L214
1866:..\..\..\..\..\..\uCOS-III\Source/os_task.c ****         p_tcb->DbgNextPtr            = (OS_TCB *)0;
 2683              		.loc 1 1866 0
 2684 0018 7B68     		ldr	r3, [r7, #4]
 2685 001a 0022     		movs	r2, #0
 2686 001c C3F8B820 		str	r2, [r3, #184]
 2687 0020 09E0     		b	.L215
 2688              	.L214:
1867:..\..\..\..\..\..\uCOS-III\Source/os_task.c ****     } else {
1868:..\..\..\..\..\..\uCOS-III\Source/os_task.c ****         p_tcb->DbgNextPtr            =  OSTaskDbgListPtr;
 2689              		.loc 1 1868 0
 2690 0022 094B     		ldr	r3, .L216
 2691 0024 1A68     		ldr	r2, [r3]
 2692 0026 7B68     		ldr	r3, [r7, #4]
 2693 0028 C3F8B820 		str	r2, [r3, #184]
1869:..\..\..\..\..\..\uCOS-III\Source/os_task.c ****         OSTaskDbgListPtr->DbgPrevPtr =  p_tcb;
 2694              		.loc 1 1869 0
 2695 002c 064B     		ldr	r3, .L216
 2696 002e 1B68     		ldr	r3, [r3]
 2697 0030 7A68     		ldr	r2, [r7, #4]
 2698 0032 C3F8B420 		str	r2, [r3, #180]
 2699              	.L215:
1870:..\..\..\..\..\..\uCOS-III\Source/os_task.c ****     }
1871:..\..\..\..\..\..\uCOS-III\Source/os_task.c ****     OSTaskDbgListPtr                 =  p_tcb;
 2700              		.loc 1 1871 0
 2701 0036 044A     		ldr	r2, .L216
 2702 0038 7B68     		ldr	r3, [r7, #4]
 2703 003a 1360     		str	r3, [r2]
1872:..\..\..\..\..\..\uCOS-III\Source/os_task.c **** }
 2704              		.loc 1 1872 0
 2705 003c 00BF     		nop
 2706 003e 0C37     		adds	r7, r7, #12
 2707              		.cfi_def_cfa_offset 4
 2708 0040 BD46     		mov	sp, r7
 2709              		.cfi_def_cfa_register 13
 2710              		@ sp needed
 2711 0042 80BC     		pop	{r7}
 2712              		.cfi_restore 7
 2713              		.cfi_def_cfa_offset 0
 2714 0044 7047     		bx	lr
 2715              	.L217:
 2716 0046 00BF     		.align	2
 2717              	.L216:
 2718 0048 00000000 		.word	OSTaskDbgListPtr
 2719              		.cfi_endproc
 2720              	.LFE18:
 2721              		.size	OS_TaskDbgListAdd, .-OS_TaskDbgListAdd
 2722              		.section	.text.OS_TaskDbgListRemove,"ax",%progbits
 2723              		.align	2
 2724              		.global	OS_TaskDbgListRemove
 2725              		.thumb
 2726              		.thumb_func
 2727              		.type	OS_TaskDbgListRemove, %function
 2728              	OS_TaskDbgListRemove:
 2729              	.LFB19:
ARM GAS  C:\Users\Aluno\AppData\Local\Temp\ccHJiRYw.s 			page 82


1873:..\..\..\..\..\..\uCOS-III\Source/os_task.c **** 
1874:..\..\..\..\..\..\uCOS-III\Source/os_task.c **** 
1875:..\..\..\..\..\..\uCOS-III\Source/os_task.c **** 
1876:..\..\..\..\..\..\uCOS-III\Source/os_task.c **** void  OS_TaskDbgListRemove (OS_TCB  *p_tcb)
1877:..\..\..\..\..\..\uCOS-III\Source/os_task.c **** {
 2730              		.loc 1 1877 0
 2731              		.cfi_startproc
 2732              		@ args = 0, pretend = 0, frame = 16
 2733              		@ frame_needed = 1, uses_anonymous_args = 0
 2734              		@ link register save eliminated.
 2735 0000 80B4     		push	{r7}
 2736              		.cfi_def_cfa_offset 4
 2737              		.cfi_offset 7, -4
 2738 0002 85B0     		sub	sp, sp, #20
 2739              		.cfi_def_cfa_offset 24
 2740 0004 00AF     		add	r7, sp, #0
 2741              		.cfi_def_cfa_register 7
 2742 0006 7860     		str	r0, [r7, #4]
1878:..\..\..\..\..\..\uCOS-III\Source/os_task.c ****     OS_TCB  *p_tcb_next;
1879:..\..\..\..\..\..\uCOS-III\Source/os_task.c ****     OS_TCB  *p_tcb_prev;
1880:..\..\..\..\..\..\uCOS-III\Source/os_task.c **** 
1881:..\..\..\..\..\..\uCOS-III\Source/os_task.c **** 
1882:..\..\..\..\..\..\uCOS-III\Source/os_task.c ****     p_tcb_prev = p_tcb->DbgPrevPtr;
 2743              		.loc 1 1882 0
 2744 0008 7B68     		ldr	r3, [r7, #4]
 2745 000a D3F8B430 		ldr	r3, [r3, #180]
 2746 000e FB60     		str	r3, [r7, #12]
1883:..\..\..\..\..\..\uCOS-III\Source/os_task.c ****     p_tcb_next = p_tcb->DbgNextPtr;
 2747              		.loc 1 1883 0
 2748 0010 7B68     		ldr	r3, [r7, #4]
 2749 0012 D3F8B830 		ldr	r3, [r3, #184]
 2750 0016 BB60     		str	r3, [r7, #8]
1884:..\..\..\..\..\..\uCOS-III\Source/os_task.c **** 
1885:..\..\..\..\..\..\uCOS-III\Source/os_task.c ****     if (p_tcb_prev == (OS_TCB *)0) {
 2751              		.loc 1 1885 0
 2752 0018 FB68     		ldr	r3, [r7, #12]
 2753 001a 002B     		cmp	r3, #0
 2754 001c 0ED1     		bne	.L219
1886:..\..\..\..\..\..\uCOS-III\Source/os_task.c ****         OSTaskDbgListPtr = p_tcb_next;
 2755              		.loc 1 1886 0
 2756 001e 184A     		ldr	r2, .L224
 2757 0020 BB68     		ldr	r3, [r7, #8]
 2758 0022 1360     		str	r3, [r2]
1887:..\..\..\..\..\..\uCOS-III\Source/os_task.c ****         if (p_tcb_next != (OS_TCB *)0) {
 2759              		.loc 1 1887 0
 2760 0024 BB68     		ldr	r3, [r7, #8]
 2761 0026 002B     		cmp	r3, #0
 2762 0028 03D0     		beq	.L220
1888:..\..\..\..\..\..\uCOS-III\Source/os_task.c ****             p_tcb_next->DbgPrevPtr = (OS_TCB *)0;
 2763              		.loc 1 1888 0
 2764 002a BB68     		ldr	r3, [r7, #8]
 2765 002c 0022     		movs	r2, #0
 2766 002e C3F8B420 		str	r2, [r3, #180]
 2767              	.L220:
1889:..\..\..\..\..\..\uCOS-III\Source/os_task.c ****         }
1890:..\..\..\..\..\..\uCOS-III\Source/os_task.c ****         p_tcb->DbgNextPtr = (OS_TCB *)0;
 2768              		.loc 1 1890 0
ARM GAS  C:\Users\Aluno\AppData\Local\Temp\ccHJiRYw.s 			page 83


 2769 0032 7B68     		ldr	r3, [r7, #4]
 2770 0034 0022     		movs	r2, #0
 2771 0036 C3F8B820 		str	r2, [r3, #184]
1891:..\..\..\..\..\..\uCOS-III\Source/os_task.c **** 
1892:..\..\..\..\..\..\uCOS-III\Source/os_task.c ****     } else if (p_tcb_next == (OS_TCB *)0) {
1893:..\..\..\..\..\..\uCOS-III\Source/os_task.c ****         p_tcb_prev->DbgNextPtr = (OS_TCB *)0;
1894:..\..\..\..\..\..\uCOS-III\Source/os_task.c ****         p_tcb->DbgPrevPtr      = (OS_TCB *)0;
1895:..\..\..\..\..\..\uCOS-III\Source/os_task.c **** 
1896:..\..\..\..\..\..\uCOS-III\Source/os_task.c ****     } else {
1897:..\..\..\..\..\..\uCOS-III\Source/os_task.c ****         p_tcb_prev->DbgNextPtr =  p_tcb_next;
1898:..\..\..\..\..\..\uCOS-III\Source/os_task.c ****         p_tcb_next->DbgPrevPtr =  p_tcb_prev;
1899:..\..\..\..\..\..\uCOS-III\Source/os_task.c ****         p_tcb->DbgNextPtr      = (OS_TCB *)0;
1900:..\..\..\..\..\..\uCOS-III\Source/os_task.c ****         p_tcb->DbgPrevPtr      = (OS_TCB *)0;
1901:..\..\..\..\..\..\uCOS-III\Source/os_task.c ****     }
1902:..\..\..\..\..\..\uCOS-III\Source/os_task.c **** }
 2772              		.loc 1 1902 0
 2773 003a 1BE0     		b	.L223
 2774              	.L219:
1892:..\..\..\..\..\..\uCOS-III\Source/os_task.c ****         p_tcb_prev->DbgNextPtr = (OS_TCB *)0;
 2775              		.loc 1 1892 0
 2776 003c BB68     		ldr	r3, [r7, #8]
 2777 003e 002B     		cmp	r3, #0
 2778 0040 08D1     		bne	.L222
1893:..\..\..\..\..\..\uCOS-III\Source/os_task.c ****         p_tcb->DbgPrevPtr      = (OS_TCB *)0;
 2779              		.loc 1 1893 0
 2780 0042 FB68     		ldr	r3, [r7, #12]
 2781 0044 0022     		movs	r2, #0
 2782 0046 C3F8B820 		str	r2, [r3, #184]
1894:..\..\..\..\..\..\uCOS-III\Source/os_task.c **** 
 2783              		.loc 1 1894 0
 2784 004a 7B68     		ldr	r3, [r7, #4]
 2785 004c 0022     		movs	r2, #0
 2786 004e C3F8B420 		str	r2, [r3, #180]
 2787              		.loc 1 1902 0
 2788 0052 0FE0     		b	.L223
 2789              	.L222:
1897:..\..\..\..\..\..\uCOS-III\Source/os_task.c ****         p_tcb_next->DbgPrevPtr =  p_tcb_prev;
 2790              		.loc 1 1897 0
 2791 0054 FB68     		ldr	r3, [r7, #12]
 2792 0056 BA68     		ldr	r2, [r7, #8]
 2793 0058 C3F8B820 		str	r2, [r3, #184]
1898:..\..\..\..\..\..\uCOS-III\Source/os_task.c ****         p_tcb->DbgNextPtr      = (OS_TCB *)0;
 2794              		.loc 1 1898 0
 2795 005c BB68     		ldr	r3, [r7, #8]
 2796 005e FA68     		ldr	r2, [r7, #12]
 2797 0060 C3F8B420 		str	r2, [r3, #180]
1899:..\..\..\..\..\..\uCOS-III\Source/os_task.c ****         p_tcb->DbgPrevPtr      = (OS_TCB *)0;
 2798              		.loc 1 1899 0
 2799 0064 7B68     		ldr	r3, [r7, #4]
 2800 0066 0022     		movs	r2, #0
 2801 0068 C3F8B820 		str	r2, [r3, #184]
1900:..\..\..\..\..\..\uCOS-III\Source/os_task.c ****     }
 2802              		.loc 1 1900 0
 2803 006c 7B68     		ldr	r3, [r7, #4]
 2804 006e 0022     		movs	r2, #0
 2805 0070 C3F8B420 		str	r2, [r3, #180]
 2806              	.L223:
ARM GAS  C:\Users\Aluno\AppData\Local\Temp\ccHJiRYw.s 			page 84


 2807              		.loc 1 1902 0
 2808 0074 00BF     		nop
 2809 0076 1437     		adds	r7, r7, #20
 2810              		.cfi_def_cfa_offset 4
 2811 0078 BD46     		mov	sp, r7
 2812              		.cfi_def_cfa_register 13
 2813              		@ sp needed
 2814 007a 80BC     		pop	{r7}
 2815              		.cfi_restore 7
 2816              		.cfi_def_cfa_offset 0
 2817 007c 7047     		bx	lr
 2818              	.L225:
 2819 007e 00BF     		.align	2
 2820              	.L224:
 2821 0080 00000000 		.word	OSTaskDbgListPtr
 2822              		.cfi_endproc
 2823              	.LFE19:
 2824              		.size	OS_TaskDbgListRemove, .-OS_TaskDbgListRemove
 2825              		.section	.text.OS_TaskInit,"ax",%progbits
 2826              		.align	2
 2827              		.global	OS_TaskInit
 2828              		.thumb
 2829              		.thumb_func
 2830              		.type	OS_TaskInit, %function
 2831              	OS_TaskInit:
 2832              	.LFB20:
1903:..\..\..\..\..\..\uCOS-III\Source/os_task.c **** #endif
1904:..\..\..\..\..\..\uCOS-III\Source/os_task.c **** 
1905:..\..\..\..\..\..\uCOS-III\Source/os_task.c **** /*$PAGE*/
1906:..\..\..\..\..\..\uCOS-III\Source/os_task.c **** /*
1907:..\..\..\..\..\..\uCOS-III\Source/os_task.c **** ***************************************************************************************************
1908:..\..\..\..\..\..\uCOS-III\Source/os_task.c **** *                                             TASK MANAGER INITIALIZATION
1909:..\..\..\..\..\..\uCOS-III\Source/os_task.c **** *
1910:..\..\..\..\..\..\uCOS-III\Source/os_task.c **** * Description: This function is called by OSInit() to initialize the task management.
1911:..\..\..\..\..\..\uCOS-III\Source/os_task.c **** *
1912:..\..\..\..\..\..\uCOS-III\Source/os_task.c **** 
1913:..\..\..\..\..\..\uCOS-III\Source/os_task.c **** * Argument(s): p_err        is a pointer to a variable that will contain an error code returned by 
1914:..\..\..\..\..\..\uCOS-III\Source/os_task.c **** *
1915:..\..\..\..\..\..\uCOS-III\Source/os_task.c **** *                                OS_ERR_NONE     the call was successful
1916:..\..\..\..\..\..\uCOS-III\Source/os_task.c **** *
1917:..\..\..\..\..\..\uCOS-III\Source/os_task.c **** * Returns    : none
1918:..\..\..\..\..\..\uCOS-III\Source/os_task.c **** *
1919:..\..\..\..\..\..\uCOS-III\Source/os_task.c **** * Note(s)    : This function is INTERNAL to uC/OS-III and your application should not call it.
1920:..\..\..\..\..\..\uCOS-III\Source/os_task.c **** ***************************************************************************************************
1921:..\..\..\..\..\..\uCOS-III\Source/os_task.c **** */
1922:..\..\..\..\..\..\uCOS-III\Source/os_task.c **** 
1923:..\..\..\..\..\..\uCOS-III\Source/os_task.c **** void  OS_TaskInit (OS_ERR  *p_err)
1924:..\..\..\..\..\..\uCOS-III\Source/os_task.c **** {
 2833              		.loc 1 1924 0
 2834              		.cfi_startproc
 2835              		@ args = 0, pretend = 0, frame = 8
 2836              		@ frame_needed = 1, uses_anonymous_args = 0
 2837              		@ link register save eliminated.
 2838 0000 80B4     		push	{r7}
 2839              		.cfi_def_cfa_offset 4
 2840              		.cfi_offset 7, -4
 2841 0002 83B0     		sub	sp, sp, #12
ARM GAS  C:\Users\Aluno\AppData\Local\Temp\ccHJiRYw.s 			page 85


 2842              		.cfi_def_cfa_offset 16
 2843 0004 00AF     		add	r7, sp, #0
 2844              		.cfi_def_cfa_register 7
 2845 0006 7860     		str	r0, [r7, #4]
1925:..\..\..\..\..\..\uCOS-III\Source/os_task.c **** #ifdef OS_SAFETY_CRITICAL
1926:..\..\..\..\..\..\uCOS-III\Source/os_task.c ****     if (p_err == (OS_ERR *)0) {
1927:..\..\..\..\..\..\uCOS-III\Source/os_task.c ****         OS_SAFETY_CRITICAL_EXCEPTION();
1928:..\..\..\..\..\..\uCOS-III\Source/os_task.c ****         return;
1929:..\..\..\..\..\..\uCOS-III\Source/os_task.c ****     }
1930:..\..\..\..\..\..\uCOS-III\Source/os_task.c **** #endif
1931:..\..\..\..\..\..\uCOS-III\Source/os_task.c **** 
1932:..\..\..\..\..\..\uCOS-III\Source/os_task.c **** #if OS_CFG_DBG_EN > 0u
1933:..\..\..\..\..\..\uCOS-III\Source/os_task.c ****     OSTaskDbgListPtr = (OS_TCB      *)0;
 2846              		.loc 1 1933 0
 2847 0008 084B     		ldr	r3, .L227
 2848 000a 0022     		movs	r2, #0
 2849 000c 1A60     		str	r2, [r3]
1934:..\..\..\..\..\..\uCOS-III\Source/os_task.c **** #endif
1935:..\..\..\..\..\..\uCOS-III\Source/os_task.c **** 
1936:..\..\..\..\..\..\uCOS-III\Source/os_task.c ****     OSTaskQty        = (OS_OBJ_QTY   )0;                    /* Clear the number of tasks           
 2850              		.loc 1 1936 0
 2851 000e 084B     		ldr	r3, .L227+4
 2852 0010 0022     		movs	r2, #0
 2853 0012 1A80     		strh	r2, [r3]	@ movhi
1937:..\..\..\..\..\..\uCOS-III\Source/os_task.c ****     OSTaskCtxSwCtr   = (OS_CTX_SW_CTR)0;                    /* Clear the context switch counter    
 2854              		.loc 1 1937 0
 2855 0014 074B     		ldr	r3, .L227+8
 2856 0016 0022     		movs	r2, #0
 2857 0018 1A60     		str	r2, [r3]
1938:..\..\..\..\..\..\uCOS-III\Source/os_task.c **** 
1939:..\..\..\..\..\..\uCOS-III\Source/os_task.c ****    *p_err            = OS_ERR_NONE;
 2858              		.loc 1 1939 0
 2859 001a 7B68     		ldr	r3, [r7, #4]
 2860 001c 0022     		movs	r2, #0
 2861 001e 1A80     		strh	r2, [r3]	@ movhi
1940:..\..\..\..\..\..\uCOS-III\Source/os_task.c **** }
 2862              		.loc 1 1940 0
 2863 0020 00BF     		nop
 2864 0022 0C37     		adds	r7, r7, #12
 2865              		.cfi_def_cfa_offset 4
 2866 0024 BD46     		mov	sp, r7
 2867              		.cfi_def_cfa_register 13
 2868              		@ sp needed
 2869 0026 80BC     		pop	{r7}
 2870              		.cfi_restore 7
 2871              		.cfi_def_cfa_offset 0
 2872 0028 7047     		bx	lr
 2873              	.L228:
 2874 002a 00BF     		.align	2
 2875              	.L227:
 2876 002c 00000000 		.word	OSTaskDbgListPtr
 2877 0030 00000000 		.word	OSTaskQty
 2878 0034 00000000 		.word	OSTaskCtxSwCtr
 2879              		.cfi_endproc
 2880              	.LFE20:
 2881              		.size	OS_TaskInit, .-OS_TaskInit
 2882              		.section	.rodata
ARM GAS  C:\Users\Aluno\AppData\Local\Temp\ccHJiRYw.s 			page 86


 2883              		.align	2
 2884              	.LC0:
 2885 0000 3F546173 		.ascii	"?Task\000"
 2885      6B00
 2886 0006 0000     		.align	2
 2887              	.LC1:
 2888 0008 2000     		.ascii	" \000"
 2889              		.section	.text.OS_TaskInitTCB,"ax",%progbits
 2890              		.align	2
 2891              		.global	OS_TaskInitTCB
 2892              		.thumb
 2893              		.thumb_func
 2894              		.type	OS_TaskInitTCB, %function
 2895              	OS_TaskInitTCB:
 2896              	.LFB21:
1941:..\..\..\..\..\..\uCOS-III\Source/os_task.c **** 
1942:..\..\..\..\..\..\uCOS-III\Source/os_task.c **** /*$PAGE*/
1943:..\..\..\..\..\..\uCOS-III\Source/os_task.c **** /*
1944:..\..\..\..\..\..\uCOS-III\Source/os_task.c **** ***************************************************************************************************
1945:..\..\..\..\..\..\uCOS-III\Source/os_task.c **** *                                               INITIALIZE TCB FIELDS
1946:..\..\..\..\..\..\uCOS-III\Source/os_task.c **** *
1947:..\..\..\..\..\..\uCOS-III\Source/os_task.c **** * Description: This function is called to initialize a TCB to default values
1948:..\..\..\..\..\..\uCOS-III\Source/os_task.c **** *
1949:..\..\..\..\..\..\uCOS-III\Source/os_task.c **** * Arguments  : p_tcb    is a pointer to the TCB to initialize
1950:..\..\..\..\..\..\uCOS-III\Source/os_task.c **** *
1951:..\..\..\..\..\..\uCOS-III\Source/os_task.c **** * Returns    : none
1952:..\..\..\..\..\..\uCOS-III\Source/os_task.c **** *
1953:..\..\..\..\..\..\uCOS-III\Source/os_task.c **** * Note(s)    : This function is INTERNAL to uC/OS-III and your application should not call it.
1954:..\..\..\..\..\..\uCOS-III\Source/os_task.c **** ***************************************************************************************************
1955:..\..\..\..\..\..\uCOS-III\Source/os_task.c **** */
1956:..\..\..\..\..\..\uCOS-III\Source/os_task.c **** 
1957:..\..\..\..\..\..\uCOS-III\Source/os_task.c **** void  OS_TaskInitTCB (OS_TCB  *p_tcb)
1958:..\..\..\..\..\..\uCOS-III\Source/os_task.c **** {
 2897              		.loc 1 1958 0
 2898              		.cfi_startproc
 2899              		@ args = 0, pretend = 0, frame = 16
 2900              		@ frame_needed = 1, uses_anonymous_args = 0
 2901 0000 80B5     		push	{r7, lr}
 2902              		.cfi_def_cfa_offset 8
 2903              		.cfi_offset 7, -8
 2904              		.cfi_offset 14, -4
 2905 0002 84B0     		sub	sp, sp, #16
 2906              		.cfi_def_cfa_offset 24
 2907 0004 00AF     		add	r7, sp, #0
 2908              		.cfi_def_cfa_register 7
 2909 0006 7860     		str	r0, [r7, #4]
1959:..\..\..\..\..\..\uCOS-III\Source/os_task.c **** #if OS_CFG_TASK_REG_TBL_SIZE > 0u
1960:..\..\..\..\..\..\uCOS-III\Source/os_task.c ****     OS_REG_ID   reg_id;
1961:..\..\..\..\..\..\uCOS-III\Source/os_task.c **** #endif
1962:..\..\..\..\..\..\uCOS-III\Source/os_task.c **** #if defined(OS_CFG_TLS_TBL_SIZE) && (OS_CFG_TLS_TBL_SIZE > 0u)
1963:..\..\..\..\..\..\uCOS-III\Source/os_task.c ****     OS_TLS_ID   id;
1964:..\..\..\..\..\..\uCOS-III\Source/os_task.c **** #endif
1965:..\..\..\..\..\..\uCOS-III\Source/os_task.c **** #if OS_CFG_TASK_PROFILE_EN > 0u
1966:..\..\..\..\..\..\uCOS-III\Source/os_task.c ****     CPU_TS      ts;
1967:..\..\..\..\..\..\uCOS-III\Source/os_task.c **** #endif
1968:..\..\..\..\..\..\uCOS-III\Source/os_task.c **** 
1969:..\..\..\..\..\..\uCOS-III\Source/os_task.c **** 
ARM GAS  C:\Users\Aluno\AppData\Local\Temp\ccHJiRYw.s 			page 87


1970:..\..\..\..\..\..\uCOS-III\Source/os_task.c ****     p_tcb->StkPtr             = (CPU_STK       *)0;
 2910              		.loc 1 1970 0
 2911 0008 7B68     		ldr	r3, [r7, #4]
 2912 000a 0022     		movs	r2, #0
 2913 000c 1A60     		str	r2, [r3]
1971:..\..\..\..\..\..\uCOS-III\Source/os_task.c ****     p_tcb->StkLimitPtr        = (CPU_STK       *)0;
 2914              		.loc 1 1971 0
 2915 000e 7B68     		ldr	r3, [r7, #4]
 2916 0010 0022     		movs	r2, #0
 2917 0012 9A60     		str	r2, [r3, #8]
1972:..\..\..\..\..\..\uCOS-III\Source/os_task.c **** 
1973:..\..\..\..\..\..\uCOS-III\Source/os_task.c ****     p_tcb->ExtPtr             = (void          *)0;
 2918              		.loc 1 1973 0
 2919 0014 7B68     		ldr	r3, [r7, #4]
 2920 0016 0022     		movs	r2, #0
 2921 0018 5A60     		str	r2, [r3, #4]
1974:..\..\..\..\..\..\uCOS-III\Source/os_task.c **** 
1975:..\..\..\..\..\..\uCOS-III\Source/os_task.c ****     p_tcb->NextPtr            = (OS_TCB        *)0;
 2922              		.loc 1 1975 0
 2923 001a 7B68     		ldr	r3, [r7, #4]
 2924 001c 0022     		movs	r2, #0
 2925 001e DA60     		str	r2, [r3, #12]
1976:..\..\..\..\..\..\uCOS-III\Source/os_task.c ****     p_tcb->PrevPtr            = (OS_TCB        *)0;
 2926              		.loc 1 1976 0
 2927 0020 7B68     		ldr	r3, [r7, #4]
 2928 0022 0022     		movs	r2, #0
 2929 0024 1A61     		str	r2, [r3, #16]
1977:..\..\..\..\..\..\uCOS-III\Source/os_task.c **** 
1978:..\..\..\..\..\..\uCOS-III\Source/os_task.c ****     p_tcb->TickNextPtr        = (OS_TCB        *)0;
 2930              		.loc 1 1978 0
 2931 0026 7B68     		ldr	r3, [r7, #4]
 2932 0028 0022     		movs	r2, #0
 2933 002a 5A61     		str	r2, [r3, #20]
1979:..\..\..\..\..\..\uCOS-III\Source/os_task.c ****     p_tcb->TickPrevPtr        = (OS_TCB        *)0;
 2934              		.loc 1 1979 0
 2935 002c 7B68     		ldr	r3, [r7, #4]
 2936 002e 0022     		movs	r2, #0
 2937 0030 9A61     		str	r2, [r3, #24]
1980:..\..\..\..\..\..\uCOS-III\Source/os_task.c ****     p_tcb->TickSpokePtr       = (OS_TICK_SPOKE *)0;
 2938              		.loc 1 1980 0
 2939 0032 7B68     		ldr	r3, [r7, #4]
 2940 0034 0022     		movs	r2, #0
 2941 0036 DA61     		str	r2, [r3, #28]
1981:..\..\..\..\..\..\uCOS-III\Source/os_task.c **** 
1982:..\..\..\..\..\..\uCOS-III\Source/os_task.c ****     p_tcb->NamePtr            = (CPU_CHAR      *)((void *)"?Task");
 2942              		.loc 1 1982 0
 2943 0038 7B68     		ldr	r3, [r7, #4]
 2944 003a 554A     		ldr	r2, .L232
 2945 003c 1A62     		str	r2, [r3, #32]
1983:..\..\..\..\..\..\uCOS-III\Source/os_task.c **** 
1984:..\..\..\..\..\..\uCOS-III\Source/os_task.c ****     p_tcb->StkBasePtr         = (CPU_STK       *)0;
 2946              		.loc 1 1984 0
 2947 003e 7B68     		ldr	r3, [r7, #4]
 2948 0040 0022     		movs	r2, #0
 2949 0042 5A62     		str	r2, [r3, #36]
1985:..\..\..\..\..\..\uCOS-III\Source/os_task.c **** 
1986:..\..\..\..\..\..\uCOS-III\Source/os_task.c ****     p_tcb->TaskEntryAddr      = (OS_TASK_PTR    )0;
ARM GAS  C:\Users\Aluno\AppData\Local\Temp\ccHJiRYw.s 			page 88


 2950              		.loc 1 1986 0
 2951 0044 7B68     		ldr	r3, [r7, #4]
 2952 0046 0022     		movs	r2, #0
 2953 0048 9A62     		str	r2, [r3, #40]
1987:..\..\..\..\..\..\uCOS-III\Source/os_task.c ****     p_tcb->TaskEntryArg       = (void          *)0;
 2954              		.loc 1 1987 0
 2955 004a 7B68     		ldr	r3, [r7, #4]
 2956 004c 0022     		movs	r2, #0
 2957 004e DA62     		str	r2, [r3, #44]
1988:..\..\..\..\..\..\uCOS-III\Source/os_task.c **** 
1989:..\..\..\..\..\..\uCOS-III\Source/os_task.c **** #if (OS_CFG_PEND_MULTI_EN > 0u)
1990:..\..\..\..\..\..\uCOS-III\Source/os_task.c ****     p_tcb->PendDataTblPtr     = (OS_PEND_DATA  *)0;
 2958              		.loc 1 1990 0
 2959 0050 7B68     		ldr	r3, [r7, #4]
 2960 0052 0022     		movs	r2, #0
 2961 0054 1A63     		str	r2, [r3, #48]
1991:..\..\..\..\..\..\uCOS-III\Source/os_task.c ****     p_tcb->PendDataTblEntries = (OS_OBJ_QTY     )0u;
 2962              		.loc 1 1991 0
 2963 0056 7B68     		ldr	r3, [r7, #4]
 2964 0058 0022     		movs	r2, #0
 2965 005a DA87     		strh	r2, [r3, #62]	@ movhi
1992:..\..\..\..\..\..\uCOS-III\Source/os_task.c **** #endif
1993:..\..\..\..\..\..\uCOS-III\Source/os_task.c **** 
1994:..\..\..\..\..\..\uCOS-III\Source/os_task.c ****     p_tcb->TS                 = (CPU_TS         )0u;
 2966              		.loc 1 1994 0
 2967 005c 7B68     		ldr	r3, [r7, #4]
 2968 005e 0022     		movs	r2, #0
 2969 0060 1A64     		str	r2, [r3, #64]
1995:..\..\..\..\..\..\uCOS-III\Source/os_task.c **** 
1996:..\..\..\..\..\..\uCOS-III\Source/os_task.c **** #if (OS_MSG_EN > 0u)
1997:..\..\..\..\..\..\uCOS-III\Source/os_task.c ****     p_tcb->MsgPtr             = (void          *)0;
 2970              		.loc 1 1997 0
 2971 0062 7B68     		ldr	r3, [r7, #4]
 2972 0064 0022     		movs	r2, #0
 2973 0066 DA65     		str	r2, [r3, #92]
1998:..\..\..\..\..\..\uCOS-III\Source/os_task.c ****     p_tcb->MsgSize            = (OS_MSG_SIZE    )0u;
 2974              		.loc 1 1998 0
 2975 0068 7B68     		ldr	r3, [r7, #4]
 2976 006a 0022     		movs	r2, #0
 2977 006c A3F86020 		strh	r2, [r3, #96]	@ movhi
1999:..\..\..\..\..\..\uCOS-III\Source/os_task.c **** #endif
2000:..\..\..\..\..\..\uCOS-III\Source/os_task.c **** 
2001:..\..\..\..\..\..\uCOS-III\Source/os_task.c **** #if OS_CFG_TASK_Q_EN > 0u
2002:..\..\..\..\..\..\uCOS-III\Source/os_task.c ****     OS_MsgQInit(&p_tcb->MsgQ,
 2978              		.loc 1 2002 0
 2979 0070 7B68     		ldr	r3, [r7, #4]
 2980 0072 6433     		adds	r3, r3, #100
 2981 0074 0021     		movs	r1, #0
 2982 0076 1846     		mov	r0, r3
 2983 0078 FFF7FEFF 		bl	OS_MsgQInit
2003:..\..\..\..\..\..\uCOS-III\Source/os_task.c ****                 (OS_MSG_QTY)0u);
2004:..\..\..\..\..\..\uCOS-III\Source/os_task.c **** #if OS_CFG_TASK_PROFILE_EN > 0u
2005:..\..\..\..\..\..\uCOS-III\Source/os_task.c ****     p_tcb->MsgQPendTime       = (CPU_TS         )0u;
 2984              		.loc 1 2005 0
 2985 007c 7B68     		ldr	r3, [r7, #4]
 2986 007e 0022     		movs	r2, #0
 2987 0080 5A67     		str	r2, [r3, #116]
ARM GAS  C:\Users\Aluno\AppData\Local\Temp\ccHJiRYw.s 			page 89


2006:..\..\..\..\..\..\uCOS-III\Source/os_task.c ****     p_tcb->MsgQPendTimeMax    = (CPU_TS         )0u;
 2988              		.loc 1 2006 0
 2989 0082 7B68     		ldr	r3, [r7, #4]
 2990 0084 0022     		movs	r2, #0
 2991 0086 9A67     		str	r2, [r3, #120]
2007:..\..\..\..\..\..\uCOS-III\Source/os_task.c **** #endif
2008:..\..\..\..\..\..\uCOS-III\Source/os_task.c **** #endif
2009:..\..\..\..\..\..\uCOS-III\Source/os_task.c **** 
2010:..\..\..\..\..\..\uCOS-III\Source/os_task.c **** #if OS_CFG_FLAG_EN > 0u
2011:..\..\..\..\..\..\uCOS-III\Source/os_task.c ****     p_tcb->FlagsPend          = (OS_FLAGS       )0u;
 2992              		.loc 1 2011 0
 2993 0088 7B68     		ldr	r3, [r7, #4]
 2994 008a 0022     		movs	r2, #0
 2995 008c C3F88020 		str	r2, [r3, #128]
2012:..\..\..\..\..\..\uCOS-III\Source/os_task.c ****     p_tcb->FlagsOpt           = (OS_OPT         )0u;
 2996              		.loc 1 2012 0
 2997 0090 7B68     		ldr	r3, [r7, #4]
 2998 0092 0022     		movs	r2, #0
 2999 0094 A3F88820 		strh	r2, [r3, #136]	@ movhi
2013:..\..\..\..\..\..\uCOS-III\Source/os_task.c ****     p_tcb->FlagsRdy           = (OS_FLAGS       )0u;
 3000              		.loc 1 2013 0
 3001 0098 7B68     		ldr	r3, [r7, #4]
 3002 009a 0022     		movs	r2, #0
 3003 009c C3F88420 		str	r2, [r3, #132]
2014:..\..\..\..\..\..\uCOS-III\Source/os_task.c **** #endif
2015:..\..\..\..\..\..\uCOS-III\Source/os_task.c **** 
2016:..\..\..\..\..\..\uCOS-III\Source/os_task.c **** #if OS_CFG_TASK_REG_TBL_SIZE > 0u
2017:..\..\..\..\..\..\uCOS-III\Source/os_task.c ****     for (reg_id = 0u; reg_id < OS_CFG_TASK_REG_TBL_SIZE; reg_id++) {
 3004              		.loc 1 2017 0
 3005 00a0 0023     		movs	r3, #0
 3006 00a2 FB73     		strb	r3, [r7, #15]
 3007 00a4 09E0     		b	.L230
 3008              	.L231:
2018:..\..\..\..\..\..\uCOS-III\Source/os_task.c ****         p_tcb->RegTbl[reg_id] = (OS_REG)0u;
 3009              		.loc 1 2018 0 discriminator 3
 3010 00a6 FB7B     		ldrb	r3, [r7, #15]	@ zero_extendqisi2
 3011 00a8 7A68     		ldr	r2, [r7, #4]
 3012 00aa 1E33     		adds	r3, r3, #30
 3013 00ac 9B00     		lsls	r3, r3, #2
 3014 00ae 1344     		add	r3, r3, r2
 3015 00b0 0022     		movs	r2, #0
 3016 00b2 5A60     		str	r2, [r3, #4]
2017:..\..\..\..\..\..\uCOS-III\Source/os_task.c ****         p_tcb->RegTbl[reg_id] = (OS_REG)0u;
 3017              		.loc 1 2017 0 discriminator 3
 3018 00b4 FB7B     		ldrb	r3, [r7, #15]	@ zero_extendqisi2
 3019 00b6 0133     		adds	r3, r3, #1
 3020 00b8 FB73     		strb	r3, [r7, #15]
 3021              	.L230:
2017:..\..\..\..\..\..\uCOS-III\Source/os_task.c ****         p_tcb->RegTbl[reg_id] = (OS_REG)0u;
 3022              		.loc 1 2017 0 is_stmt 0 discriminator 1
 3023 00ba FB7B     		ldrb	r3, [r7, #15]	@ zero_extendqisi2
 3024 00bc 002B     		cmp	r3, #0
 3025 00be F2D0     		beq	.L231
2019:..\..\..\..\..\..\uCOS-III\Source/os_task.c ****     }
2020:..\..\..\..\..\..\uCOS-III\Source/os_task.c **** #endif
2021:..\..\..\..\..\..\uCOS-III\Source/os_task.c **** 
2022:..\..\..\..\..\..\uCOS-III\Source/os_task.c **** #if defined(OS_CFG_TLS_TBL_SIZE) && (OS_CFG_TLS_TBL_SIZE > 0u)
ARM GAS  C:\Users\Aluno\AppData\Local\Temp\ccHJiRYw.s 			page 90


2023:..\..\..\..\..\..\uCOS-III\Source/os_task.c ****     for (id = 0u; id < OS_CFG_TLS_TBL_SIZE; id++) {
2024:..\..\..\..\..\..\uCOS-III\Source/os_task.c ****         p_tcb->TLS_Tbl[id]    = (OS_TLS)0;
2025:..\..\..\..\..\..\uCOS-III\Source/os_task.c ****     }
2026:..\..\..\..\..\..\uCOS-III\Source/os_task.c **** #endif
2027:..\..\..\..\..\..\uCOS-III\Source/os_task.c **** 
2028:..\..\..\..\..\..\uCOS-III\Source/os_task.c ****     p_tcb->SemCtr             = (OS_SEM_CTR     )0u;
 3026              		.loc 1 2028 0 is_stmt 1
 3027 00c0 7B68     		ldr	r3, [r7, #4]
 3028 00c2 0022     		movs	r2, #0
 3029 00c4 5A64     		str	r2, [r3, #68]
2029:..\..\..\..\..\..\uCOS-III\Source/os_task.c **** #if OS_CFG_TASK_PROFILE_EN > 0u
2030:..\..\..\..\..\..\uCOS-III\Source/os_task.c ****     p_tcb->SemPendTime        = (CPU_TS         )0u;
 3030              		.loc 1 2030 0
 3031 00c6 7B68     		ldr	r3, [r7, #4]
 3032 00c8 0022     		movs	r2, #0
 3033 00ca C3F8A420 		str	r2, [r3, #164]
2031:..\..\..\..\..\..\uCOS-III\Source/os_task.c ****     p_tcb->SemPendTimeMax     = (CPU_TS         )0u;
 3034              		.loc 1 2031 0
 3035 00ce 7B68     		ldr	r3, [r7, #4]
 3036 00d0 0022     		movs	r2, #0
 3037 00d2 C3F8A820 		str	r2, [r3, #168]
2032:..\..\..\..\..\..\uCOS-III\Source/os_task.c **** #endif
2033:..\..\..\..\..\..\uCOS-III\Source/os_task.c **** 
2034:..\..\..\..\..\..\uCOS-III\Source/os_task.c ****     p_tcb->StkSize            = (CPU_STK_SIZE   )0u;
 3038              		.loc 1 2034 0
 3039 00d6 7B68     		ldr	r3, [r7, #4]
 3040 00d8 0022     		movs	r2, #0
 3041 00da 9A63     		str	r2, [r3, #56]
2035:..\..\..\..\..\..\uCOS-III\Source/os_task.c **** 
2036:..\..\..\..\..\..\uCOS-III\Source/os_task.c **** 
2037:..\..\..\..\..\..\uCOS-III\Source/os_task.c **** #if OS_CFG_TASK_SUSPEND_EN > 0u
2038:..\..\..\..\..\..\uCOS-III\Source/os_task.c ****     p_tcb->SuspendCtr         = (OS_NESTING_CTR )0u;
 3042              		.loc 1 2038 0
 3043 00dc 7B68     		ldr	r3, [r7, #4]
 3044 00de 0022     		movs	r2, #0
 3045 00e0 83F88A20 		strb	r2, [r3, #138]
2039:..\..\..\..\..\..\uCOS-III\Source/os_task.c **** #endif
2040:..\..\..\..\..\..\uCOS-III\Source/os_task.c **** 
2041:..\..\..\..\..\..\uCOS-III\Source/os_task.c **** #if OS_CFG_STAT_TASK_STK_CHK_EN > 0u
2042:..\..\..\..\..\..\uCOS-III\Source/os_task.c ****     p_tcb->StkFree            = (CPU_STK_SIZE   )0u;
 3046              		.loc 1 2042 0
 3047 00e4 7B68     		ldr	r3, [r7, #4]
 3048 00e6 0022     		movs	r2, #0
 3049 00e8 C3F8B020 		str	r2, [r3, #176]
2043:..\..\..\..\..\..\uCOS-III\Source/os_task.c ****     p_tcb->StkUsed            = (CPU_STK_SIZE   )0u;
 3050              		.loc 1 2043 0
 3051 00ec 7B68     		ldr	r3, [r7, #4]
 3052 00ee 0022     		movs	r2, #0
 3053 00f0 C3F8AC20 		str	r2, [r3, #172]
2044:..\..\..\..\..\..\uCOS-III\Source/os_task.c **** #endif
2045:..\..\..\..\..\..\uCOS-III\Source/os_task.c **** 
2046:..\..\..\..\..\..\uCOS-III\Source/os_task.c ****     p_tcb->Opt                = (OS_OPT         )0u;
 3054              		.loc 1 2046 0
 3055 00f4 7B68     		ldr	r3, [r7, #4]
 3056 00f6 0022     		movs	r2, #0
 3057 00f8 9A87     		strh	r2, [r3, #60]	@ movhi
2047:..\..\..\..\..\..\uCOS-III\Source/os_task.c **** 
ARM GAS  C:\Users\Aluno\AppData\Local\Temp\ccHJiRYw.s 			page 91


2048:..\..\..\..\..\..\uCOS-III\Source/os_task.c ****     p_tcb->TickCtrPrev        = (OS_TICK        )OS_TICK_TH_INIT;
 3058              		.loc 1 2048 0
 3059 00fa 7B68     		ldr	r3, [r7, #4]
 3060 00fc 4FF00042 		mov	r2, #-2147483648
 3061 0100 9A64     		str	r2, [r3, #72]
2049:..\..\..\..\..\..\uCOS-III\Source/os_task.c ****     p_tcb->TickCtrMatch       = (OS_TICK        )0u;
 3062              		.loc 1 2049 0
 3063 0102 7B68     		ldr	r3, [r7, #4]
 3064 0104 0022     		movs	r2, #0
 3065 0106 DA64     		str	r2, [r3, #76]
2050:..\..\..\..\..\..\uCOS-III\Source/os_task.c ****     p_tcb->TickRemain         = (OS_TICK        )0u;
 3066              		.loc 1 2050 0
 3067 0108 7B68     		ldr	r3, [r7, #4]
 3068 010a 0022     		movs	r2, #0
 3069 010c 1A65     		str	r2, [r3, #80]
2051:..\..\..\..\..\..\uCOS-III\Source/os_task.c **** 
2052:..\..\..\..\..\..\uCOS-III\Source/os_task.c ****     p_tcb->TimeQuanta         = (OS_TICK        )0u;
 3070              		.loc 1 2052 0
 3071 010e 7B68     		ldr	r3, [r7, #4]
 3072 0110 0022     		movs	r2, #0
 3073 0112 5A65     		str	r2, [r3, #84]
2053:..\..\..\..\..\..\uCOS-III\Source/os_task.c ****     p_tcb->TimeQuantaCtr      = (OS_TICK        )0u;
 3074              		.loc 1 2053 0
 3075 0114 7B68     		ldr	r3, [r7, #4]
 3076 0116 0022     		movs	r2, #0
 3077 0118 9A65     		str	r2, [r3, #88]
2054:..\..\..\..\..\..\uCOS-III\Source/os_task.c **** 
2055:..\..\..\..\..\..\uCOS-III\Source/os_task.c **** #if OS_CFG_TASK_PROFILE_EN > 0u
2056:..\..\..\..\..\..\uCOS-III\Source/os_task.c ****     p_tcb->CPUUsage           = (OS_CPU_USAGE   )0u;
 3078              		.loc 1 2056 0
 3079 011a 7B68     		ldr	r3, [r7, #4]
 3080 011c 0022     		movs	r2, #0
 3081 011e A3F88C20 		strh	r2, [r3, #140]	@ movhi
2057:..\..\..\..\..\..\uCOS-III\Source/os_task.c ****     p_tcb->CPUUsageMax        = (OS_CPU_USAGE   )0u;
 3082              		.loc 1 2057 0
 3083 0122 7B68     		ldr	r3, [r7, #4]
 3084 0124 0022     		movs	r2, #0
 3085 0126 A3F88E20 		strh	r2, [r3, #142]	@ movhi
2058:..\..\..\..\..\..\uCOS-III\Source/os_task.c ****     p_tcb->CtxSwCtr           = (OS_CTX_SW_CTR  )0u;
 3086              		.loc 1 2058 0
 3087 012a 7B68     		ldr	r3, [r7, #4]
 3088 012c 0022     		movs	r2, #0
 3089 012e C3F89020 		str	r2, [r3, #144]
2059:..\..\..\..\..\..\uCOS-III\Source/os_task.c ****     p_tcb->CyclesDelta        = (CPU_TS         )0u;
 3090              		.loc 1 2059 0
 3091 0132 7B68     		ldr	r3, [r7, #4]
 3092 0134 0022     		movs	r2, #0
 3093 0136 C3F89420 		str	r2, [r3, #148]
2060:..\..\..\..\..\..\uCOS-III\Source/os_task.c ****     ts                        = OS_TS_GET();                /* Read the current timestamp and save 
 3094              		.loc 1 2060 0
 3095 013a FFF7FEFF 		bl	CPU_TS_TmrRd
 3096 013e B860     		str	r0, [r7, #8]
2061:..\..\..\..\..\..\uCOS-III\Source/os_task.c ****     p_tcb->CyclesStart        = ts;
 3097              		.loc 1 2061 0
 3098 0140 7B68     		ldr	r3, [r7, #4]
 3099 0142 BA68     		ldr	r2, [r7, #8]
 3100 0144 C3F89820 		str	r2, [r3, #152]
ARM GAS  C:\Users\Aluno\AppData\Local\Temp\ccHJiRYw.s 			page 92


2062:..\..\..\..\..\..\uCOS-III\Source/os_task.c ****     p_tcb->CyclesTotal        = (OS_CYCLES      )0u;
 3101              		.loc 1 2062 0
 3102 0148 7B68     		ldr	r3, [r7, #4]
 3103 014a 0022     		movs	r2, #0
 3104 014c C3F89C20 		str	r2, [r3, #156]
2063:..\..\..\..\..\..\uCOS-III\Source/os_task.c **** #endif
2064:..\..\..\..\..\..\uCOS-III\Source/os_task.c **** #ifdef CPU_CFG_INT_DIS_MEAS_EN
2065:..\..\..\..\..\..\uCOS-III\Source/os_task.c ****     p_tcb->IntDisTimeMax      = (CPU_TS         )0u;
2066:..\..\..\..\..\..\uCOS-III\Source/os_task.c **** #endif
2067:..\..\..\..\..\..\uCOS-III\Source/os_task.c **** #if OS_CFG_SCHED_LOCK_TIME_MEAS_EN > 0u
2068:..\..\..\..\..\..\uCOS-III\Source/os_task.c ****     p_tcb->SchedLockTimeMax   = (CPU_TS         )0u;
2069:..\..\..\..\..\..\uCOS-III\Source/os_task.c **** #endif
2070:..\..\..\..\..\..\uCOS-III\Source/os_task.c **** 
2071:..\..\..\..\..\..\uCOS-III\Source/os_task.c ****     p_tcb->PendOn             = (OS_STATE       )OS_TASK_PEND_ON_NOTHING;
 3105              		.loc 1 2071 0
 3106 0150 7B68     		ldr	r3, [r7, #4]
 3107 0152 0022     		movs	r2, #0
 3108 0154 83F83420 		strb	r2, [r3, #52]
2072:..\..\..\..\..\..\uCOS-III\Source/os_task.c ****     p_tcb->PendStatus         = (OS_STATUS      )OS_STATUS_PEND_OK;
 3109              		.loc 1 2072 0
 3110 0158 7B68     		ldr	r3, [r7, #4]
 3111 015a 0022     		movs	r2, #0
 3112 015c 83F83520 		strb	r2, [r3, #53]
2073:..\..\..\..\..\..\uCOS-III\Source/os_task.c ****     p_tcb->TaskState          = (OS_STATE       )OS_TASK_STATE_RDY;
 3113              		.loc 1 2073 0
 3114 0160 7B68     		ldr	r3, [r7, #4]
 3115 0162 0022     		movs	r2, #0
 3116 0164 83F83620 		strb	r2, [r3, #54]
2074:..\..\..\..\..\..\uCOS-III\Source/os_task.c **** 
2075:..\..\..\..\..\..\uCOS-III\Source/os_task.c ****     p_tcb->Prio               = (OS_PRIO        )OS_PRIO_INIT;
 3117              		.loc 1 2075 0
 3118 0168 7B68     		ldr	r3, [r7, #4]
 3119 016a 0822     		movs	r2, #8
 3120 016c 83F83720 		strb	r2, [r3, #55]
2076:..\..\..\..\..\..\uCOS-III\Source/os_task.c **** 
2077:..\..\..\..\..\..\uCOS-III\Source/os_task.c **** #if OS_CFG_DBG_EN > 0u
2078:..\..\..\..\..\..\uCOS-III\Source/os_task.c ****     p_tcb->DbgPrevPtr         = (OS_TCB        *)0;
 3121              		.loc 1 2078 0
 3122 0170 7B68     		ldr	r3, [r7, #4]
 3123 0172 0022     		movs	r2, #0
 3124 0174 C3F8B420 		str	r2, [r3, #180]
2079:..\..\..\..\..\..\uCOS-III\Source/os_task.c ****     p_tcb->DbgNextPtr         = (OS_TCB        *)0;
 3125              		.loc 1 2079 0
 3126 0178 7B68     		ldr	r3, [r7, #4]
 3127 017a 0022     		movs	r2, #0
 3128 017c C3F8B820 		str	r2, [r3, #184]
2080:..\..\..\..\..\..\uCOS-III\Source/os_task.c ****     p_tcb->DbgNamePtr         = (CPU_CHAR      *)((void *)" ");
 3129              		.loc 1 2080 0
 3130 0180 7B68     		ldr	r3, [r7, #4]
 3131 0182 044A     		ldr	r2, .L232+4
 3132 0184 C3F8BC20 		str	r2, [r3, #188]
2081:..\..\..\..\..\..\uCOS-III\Source/os_task.c **** #endif
2082:..\..\..\..\..\..\uCOS-III\Source/os_task.c **** }
 3133              		.loc 1 2082 0
 3134 0188 00BF     		nop
 3135 018a 1037     		adds	r7, r7, #16
 3136              		.cfi_def_cfa_offset 8
ARM GAS  C:\Users\Aluno\AppData\Local\Temp\ccHJiRYw.s 			page 93


 3137 018c BD46     		mov	sp, r7
 3138              		.cfi_def_cfa_register 13
 3139              		@ sp needed
 3140 018e 80BD     		pop	{r7, pc}
 3141              	.L233:
 3142              		.align	2
 3143              	.L232:
 3144 0190 00000000 		.word	.LC0
 3145 0194 08000000 		.word	.LC1
 3146              		.cfi_endproc
 3147              	.LFE21:
 3148              		.size	OS_TaskInitTCB, .-OS_TaskInitTCB
 3149              		.section	.text.OS_TaskQPost,"ax",%progbits
 3150              		.align	2
 3151              		.global	OS_TaskQPost
 3152              		.thumb
 3153              		.thumb_func
 3154              		.type	OS_TaskQPost, %function
 3155              	OS_TaskQPost:
 3156              	.LFB22:
2083:..\..\..\..\..\..\uCOS-III\Source/os_task.c **** 
2084:..\..\..\..\..\..\uCOS-III\Source/os_task.c **** /*$PAGE*/
2085:..\..\..\..\..\..\uCOS-III\Source/os_task.c **** /*
2086:..\..\..\..\..\..\uCOS-III\Source/os_task.c **** ***************************************************************************************************
2087:..\..\..\..\..\..\uCOS-III\Source/os_task.c **** *                                               POST MESSAGE TO A TASK
2088:..\..\..\..\..\..\uCOS-III\Source/os_task.c **** *
2089:..\..\..\..\..\..\uCOS-III\Source/os_task.c **** * Description: This function sends a message to a task
2090:..\..\..\..\..\..\uCOS-III\Source/os_task.c **** *
2091:..\..\..\..\..\..\uCOS-III\Source/os_task.c **** * Arguments  : p_tcb      is a pointer to the TCB of the task receiving a message.  If you specify 
2092:..\..\..\..\..\..\uCOS-III\Source/os_task.c **** *                         the message will be posted to the task's queue of the calling task.  In o
2093:..\..\..\..\..\..\uCOS-III\Source/os_task.c **** *                         posting a message to yourself.
2094:..\..\..\..\..\..\uCOS-III\Source/os_task.c **** *
2095:..\..\..\..\..\..\uCOS-III\Source/os_task.c **** *              p_void     is a pointer to the message to send.
2096:..\..\..\..\..\..\uCOS-III\Source/os_task.c **** *
2097:..\..\..\..\..\..\uCOS-III\Source/os_task.c **** *              msg_size   is the size of the message sent (in #bytes)
2098:..\..\..\..\..\..\uCOS-III\Source/os_task.c **** *
2099:..\..\..\..\..\..\uCOS-III\Source/os_task.c **** *              opt        specifies whether the post will be FIFO or LIFO:
2100:..\..\..\..\..\..\uCOS-III\Source/os_task.c **** *
2101:..\..\..\..\..\..\uCOS-III\Source/os_task.c **** *                             OS_OPT_POST_FIFO       Post at the end   of the queue
2102:..\..\..\..\..\..\uCOS-III\Source/os_task.c **** *                             OS_OPT_POST_LIFO       Post at the front of the queue
2103:..\..\..\..\..\..\uCOS-III\Source/os_task.c **** *
2104:..\..\..\..\..\..\uCOS-III\Source/os_task.c **** *                             OS_OPT_POST_NO_SCHED   Do not run the scheduler after the post
2105:..\..\..\..\..\..\uCOS-III\Source/os_task.c **** *
2106:..\..\..\..\..\..\uCOS-III\Source/os_task.c **** *                          Note(s): 1) OS_OPT_POST_NO_SCHED can be added with one of the other opti
2107:..\..\..\..\..\..\uCOS-III\Source/os_task.c **** *
2108:..\..\..\..\..\..\uCOS-III\Source/os_task.c **** *
2109:..\..\..\..\..\..\uCOS-III\Source/os_task.c **** *              ts         is a timestamp indicating when the post occurred.
2110:..\..\..\..\..\..\uCOS-III\Source/os_task.c **** *
2111:..\..\..\..\..\..\uCOS-III\Source/os_task.c **** *              p_err      is a pointer to a variable that will hold the error code associated
2112:..\..\..\..\..\..\uCOS-III\Source/os_task.c **** *                         with the outcome of this call.  Errors can be:
2113:..\..\..\..\..\..\uCOS-III\Source/os_task.c **** *
2114:..\..\..\..\..\..\uCOS-III\Source/os_task.c **** *                             OS_ERR_NONE            The call was successful and the message was se
2115:..\..\..\..\..\..\uCOS-III\Source/os_task.c **** *                             OS_ERR_MSG_POOL_EMPTY  If there are no more OS_MSGs available from th
2116:..\..\..\..\..\..\uCOS-III\Source/os_task.c **** *                             OS_ERR_Q_MAX           If the queue is full
2117:..\..\..\..\..\..\uCOS-III\Source/os_task.c **** *                             OS_ERR_STATE_INVALID   If the task is in an invalid state.  This shou
2118:..\..\..\..\..\..\uCOS-III\Source/os_task.c **** *                                                    and if it does, would be considered a system f
2119:..\..\..\..\..\..\uCOS-III\Source/os_task.c **** *
ARM GAS  C:\Users\Aluno\AppData\Local\Temp\ccHJiRYw.s 			page 94


2120:..\..\..\..\..\..\uCOS-III\Source/os_task.c **** * Returns    : none
2121:..\..\..\..\..\..\uCOS-III\Source/os_task.c **** *
2122:..\..\..\..\..\..\uCOS-III\Source/os_task.c **** * Note(s)    : This function is INTERNAL to uC/OS-III and your application should not call it.
2123:..\..\..\..\..\..\uCOS-III\Source/os_task.c **** ***************************************************************************************************
2124:..\..\..\..\..\..\uCOS-III\Source/os_task.c **** */
2125:..\..\..\..\..\..\uCOS-III\Source/os_task.c **** 
2126:..\..\..\..\..\..\uCOS-III\Source/os_task.c **** #if OS_CFG_TASK_Q_EN > 0u
2127:..\..\..\..\..\..\uCOS-III\Source/os_task.c **** void  OS_TaskQPost (OS_TCB       *p_tcb,
2128:..\..\..\..\..\..\uCOS-III\Source/os_task.c ****                     void         *p_void,
2129:..\..\..\..\..\..\uCOS-III\Source/os_task.c ****                     OS_MSG_SIZE   msg_size,
2130:..\..\..\..\..\..\uCOS-III\Source/os_task.c ****                     OS_OPT        opt,
2131:..\..\..\..\..\..\uCOS-III\Source/os_task.c ****                     CPU_TS        ts,
2132:..\..\..\..\..\..\uCOS-III\Source/os_task.c ****                     OS_ERR       *p_err)
2133:..\..\..\..\..\..\uCOS-III\Source/os_task.c **** {
 3157              		.loc 1 2133 0
 3158              		.cfi_startproc
 3159              		@ args = 8, pretend = 0, frame = 24
 3160              		@ frame_needed = 1, uses_anonymous_args = 0
 3161 0000 80B5     		push	{r7, lr}
 3162              		.cfi_def_cfa_offset 8
 3163              		.cfi_offset 7, -8
 3164              		.cfi_offset 14, -4
 3165 0002 88B0     		sub	sp, sp, #32
 3166              		.cfi_def_cfa_offset 40
 3167 0004 02AF     		add	r7, sp, #8
 3168              		.cfi_def_cfa 7, 32
 3169 0006 F860     		str	r0, [r7, #12]
 3170 0008 B960     		str	r1, [r7, #8]
 3171 000a 1146     		mov	r1, r2
 3172 000c 1A46     		mov	r2, r3
 3173 000e 0B46     		mov	r3, r1	@ movhi
 3174 0010 FB80     		strh	r3, [r7, #6]	@ movhi
 3175 0012 1346     		mov	r3, r2	@ movhi
 3176 0014 BB80     		strh	r3, [r7, #4]	@ movhi
2134:..\..\..\..\..\..\uCOS-III\Source/os_task.c ****     CPU_SR_ALLOC();
 3177              		.loc 1 2134 0
 3178 0016 0023     		movs	r3, #0
 3179 0018 7B61     		str	r3, [r7, #20]
2135:..\..\..\..\..\..\uCOS-III\Source/os_task.c **** 
2136:..\..\..\..\..\..\uCOS-III\Source/os_task.c **** 
2137:..\..\..\..\..\..\uCOS-III\Source/os_task.c **** 
2138:..\..\..\..\..\..\uCOS-III\Source/os_task.c ****     OS_CRITICAL_ENTER();
 3180              		.loc 1 2138 0
 3181 001a FFF7FEFF 		bl	CPU_SR_Save
 3182 001e 7861     		str	r0, [r7, #20]
2139:..\..\..\..\..\..\uCOS-III\Source/os_task.c ****     if (p_tcb == (OS_TCB *)0) {                             /* Post msg to 'self'?                 
 3183              		.loc 1 2139 0
 3184 0020 FB68     		ldr	r3, [r7, #12]
 3185 0022 002B     		cmp	r3, #0
 3186 0024 02D1     		bne	.L235
2140:..\..\..\..\..\..\uCOS-III\Source/os_task.c ****         p_tcb = OSTCBCurPtr;
 3187              		.loc 1 2140 0
 3188 0026 334B     		ldr	r3, .L245
 3189 0028 1B68     		ldr	r3, [r3]
 3190 002a FB60     		str	r3, [r7, #12]
 3191              	.L235:
2141:..\..\..\..\..\..\uCOS-III\Source/os_task.c ****     }
ARM GAS  C:\Users\Aluno\AppData\Local\Temp\ccHJiRYw.s 			page 95


2142:..\..\..\..\..\..\uCOS-III\Source/os_task.c ****    *p_err  = OS_ERR_NONE;                                   /* Assume we won't have any errors     
 3192              		.loc 1 2142 0
 3193 002c 7B6A     		ldr	r3, [r7, #36]
 3194 002e 0022     		movs	r2, #0
 3195 0030 1A80     		strh	r2, [r3]	@ movhi
2143:..\..\..\..\..\..\uCOS-III\Source/os_task.c ****     switch (p_tcb->TaskState) {
 3196              		.loc 1 2143 0
 3197 0032 FB68     		ldr	r3, [r7, #12]
 3198 0034 93F83630 		ldrb	r3, [r3, #54]	@ zero_extendqisi2
 3199 0038 072B     		cmp	r3, #7
 3200 003a 4DD8     		bhi	.L236
 3201 003c 01A2     		adr	r2, .L238
 3202 003e 52F823F0 		ldr	pc, [r2, r3, lsl #2]
 3203 0042 00BF     		.p2align 2
 3204              	.L238:
 3205 0044 65000000 		.word	.L237+1
 3206 0048 65000000 		.word	.L237+1
 3207 004c 87000000 		.word	.L239+1
 3208 0050 87000000 		.word	.L239+1
 3209 0054 65000000 		.word	.L237+1
 3210 0058 65000000 		.word	.L237+1
 3211 005c 87000000 		.word	.L239+1
 3212 0060 87000000 		.word	.L239+1
 3213              		.p2align 1
 3214              	.L237:
2144:..\..\..\..\..\..\uCOS-III\Source/os_task.c ****         case OS_TASK_STATE_RDY:
2145:..\..\..\..\..\..\uCOS-III\Source/os_task.c ****         case OS_TASK_STATE_DLY:
2146:..\..\..\..\..\..\uCOS-III\Source/os_task.c ****         case OS_TASK_STATE_SUSPENDED:
2147:..\..\..\..\..\..\uCOS-III\Source/os_task.c ****         case OS_TASK_STATE_DLY_SUSPENDED:
2148:..\..\..\..\..\..\uCOS-III\Source/os_task.c ****              OS_MsgQPut(&p_tcb->MsgQ,                       /* Deposit the message in the queue    
 3215              		.loc 1 2148 0
 3216 0064 FB68     		ldr	r3, [r7, #12]
 3217 0066 03F16400 		add	r0, r3, #100
 3218 006a B988     		ldrh	r1, [r7, #4]
 3219 006c FA88     		ldrh	r2, [r7, #6]
 3220 006e 7B6A     		ldr	r3, [r7, #36]
 3221 0070 0193     		str	r3, [sp, #4]
 3222 0072 3B6A     		ldr	r3, [r7, #32]
 3223 0074 0093     		str	r3, [sp]
 3224 0076 0B46     		mov	r3, r1
 3225 0078 B968     		ldr	r1, [r7, #8]
 3226 007a FFF7FEFF 		bl	OS_MsgQPut
2149:..\..\..\..\..\..\uCOS-III\Source/os_task.c ****                         p_void,
2150:..\..\..\..\..\..\uCOS-III\Source/os_task.c ****                         msg_size,
2151:..\..\..\..\..\..\uCOS-III\Source/os_task.c ****                         opt,
2152:..\..\..\..\..\..\uCOS-III\Source/os_task.c ****                         ts,
2153:..\..\..\..\..\..\uCOS-III\Source/os_task.c ****                         p_err);
2154:..\..\..\..\..\..\uCOS-III\Source/os_task.c ****              OS_CRITICAL_EXIT();
 3227              		.loc 1 2154 0
 3228 007e 7869     		ldr	r0, [r7, #20]
 3229 0080 FFF7FEFF 		bl	CPU_SR_Restore
2155:..\..\..\..\..\..\uCOS-III\Source/os_task.c ****              break;
 3230              		.loc 1 2155 0
 3231 0084 31E0     		b	.L240
 3232              	.L239:
2156:..\..\..\..\..\..\uCOS-III\Source/os_task.c **** 
2157:..\..\..\..\..\..\uCOS-III\Source/os_task.c ****         case OS_TASK_STATE_PEND:
ARM GAS  C:\Users\Aluno\AppData\Local\Temp\ccHJiRYw.s 			page 96


2158:..\..\..\..\..\..\uCOS-III\Source/os_task.c ****         case OS_TASK_STATE_PEND_TIMEOUT:
2159:..\..\..\..\..\..\uCOS-III\Source/os_task.c ****         case OS_TASK_STATE_PEND_SUSPENDED:
2160:..\..\..\..\..\..\uCOS-III\Source/os_task.c ****         case OS_TASK_STATE_PEND_TIMEOUT_SUSPENDED:
2161:..\..\..\..\..\..\uCOS-III\Source/os_task.c ****              if (p_tcb->PendOn == OS_TASK_PEND_ON_TASK_Q) { /* Is task waiting for a message to be 
 3233              		.loc 1 2161 0
 3234 0086 FB68     		ldr	r3, [r7, #12]
 3235 0088 93F83430 		ldrb	r3, [r3, #52]	@ zero_extendqisi2
 3236 008c 022B     		cmp	r3, #2
 3237 008e 12D1     		bne	.L241
2162:..\..\..\..\..\..\uCOS-III\Source/os_task.c ****                  OS_Post((OS_PEND_OBJ *)0,
 3238              		.loc 1 2162 0
 3239 0090 FA88     		ldrh	r2, [r7, #6]
 3240 0092 3B6A     		ldr	r3, [r7, #32]
 3241 0094 0093     		str	r3, [sp]
 3242 0096 1346     		mov	r3, r2
 3243 0098 BA68     		ldr	r2, [r7, #8]
 3244 009a F968     		ldr	r1, [r7, #12]
 3245 009c 0020     		movs	r0, #0
 3246 009e FFF7FEFF 		bl	OS_Post
2163:..\..\..\..\..\..\uCOS-III\Source/os_task.c ****                          p_tcb,
2164:..\..\..\..\..\..\uCOS-III\Source/os_task.c ****                          p_void,
2165:..\..\..\..\..\..\uCOS-III\Source/os_task.c ****                          msg_size,
2166:..\..\..\..\..\..\uCOS-III\Source/os_task.c ****                          ts);
2167:..\..\..\..\..\..\uCOS-III\Source/os_task.c ****                  OS_CRITICAL_EXIT_NO_SCHED();
 3247              		.loc 1 2167 0
 3248 00a2 7869     		ldr	r0, [r7, #20]
 3249 00a4 FFF7FEFF 		bl	CPU_SR_Restore
2168:..\..\..\..\..\..\uCOS-III\Source/os_task.c ****                  if ((opt & OS_OPT_POST_NO_SCHED) == (OS_OPT)0u) {
 3250              		.loc 1 2168 0
 3251 00a8 B7F90430 		ldrsh	r3, [r7, #4]
 3252 00ac 002B     		cmp	r3, #0
 3253 00ae 1BDB     		blt	.L244
2169:..\..\..\..\..\..\uCOS-III\Source/os_task.c ****                      OSSched();                             /* Run the scheduler                   
 3254              		.loc 1 2169 0
 3255 00b0 FFF7FEFF 		bl	OSSched
2170:..\..\..\..\..\..\uCOS-III\Source/os_task.c ****                  }
2171:..\..\..\..\..\..\uCOS-III\Source/os_task.c ****              } else {
2172:..\..\..\..\..\..\uCOS-III\Source/os_task.c ****                  OS_MsgQPut(&p_tcb->MsgQ,                   /* No,  Task is pending on something el
2173:..\..\..\..\..\..\uCOS-III\Source/os_task.c ****                             p_void,                         /*      ... Deposit the message in the 
2174:..\..\..\..\..\..\uCOS-III\Source/os_task.c ****                             msg_size,
2175:..\..\..\..\..\..\uCOS-III\Source/os_task.c ****                             opt,
2176:..\..\..\..\..\..\uCOS-III\Source/os_task.c ****                             ts,
2177:..\..\..\..\..\..\uCOS-III\Source/os_task.c ****                             p_err);
2178:..\..\..\..\..\..\uCOS-III\Source/os_task.c ****                  OS_CRITICAL_EXIT();
2179:..\..\..\..\..\..\uCOS-III\Source/os_task.c ****              }
2180:..\..\..\..\..\..\uCOS-III\Source/os_task.c ****              break;
 3256              		.loc 1 2180 0
 3257 00b4 18E0     		b	.L244
 3258              	.L241:
2172:..\..\..\..\..\..\uCOS-III\Source/os_task.c ****                             p_void,                         /*      ... Deposit the message in the 
 3259              		.loc 1 2172 0
 3260 00b6 FB68     		ldr	r3, [r7, #12]
 3261 00b8 03F16400 		add	r0, r3, #100
 3262 00bc B988     		ldrh	r1, [r7, #4]
 3263 00be FA88     		ldrh	r2, [r7, #6]
 3264 00c0 7B6A     		ldr	r3, [r7, #36]
 3265 00c2 0193     		str	r3, [sp, #4]
ARM GAS  C:\Users\Aluno\AppData\Local\Temp\ccHJiRYw.s 			page 97


 3266 00c4 3B6A     		ldr	r3, [r7, #32]
 3267 00c6 0093     		str	r3, [sp]
 3268 00c8 0B46     		mov	r3, r1
 3269 00ca B968     		ldr	r1, [r7, #8]
 3270 00cc FFF7FEFF 		bl	OS_MsgQPut
2178:..\..\..\..\..\..\uCOS-III\Source/os_task.c ****              }
 3271              		.loc 1 2178 0
 3272 00d0 7869     		ldr	r0, [r7, #20]
 3273 00d2 FFF7FEFF 		bl	CPU_SR_Restore
 3274              		.loc 1 2180 0
 3275 00d6 07E0     		b	.L244
 3276              	.L236:
2181:..\..\..\..\..\..\uCOS-III\Source/os_task.c **** 
2182:..\..\..\..\..\..\uCOS-III\Source/os_task.c ****         default:
2183:..\..\..\..\..\..\uCOS-III\Source/os_task.c ****              OS_CRITICAL_EXIT();
 3277              		.loc 1 2183 0
 3278 00d8 7869     		ldr	r0, [r7, #20]
 3279 00da FFF7FEFF 		bl	CPU_SR_Restore
2184:..\..\..\..\..\..\uCOS-III\Source/os_task.c ****             *p_err = OS_ERR_STATE_INVALID;
 3280              		.loc 1 2184 0
 3281 00de 7B6A     		ldr	r3, [r7, #36]
 3282 00e0 46F62D62 		movw	r2, #28205
 3283 00e4 1A80     		strh	r2, [r3]	@ movhi
2185:..\..\..\..\..\..\uCOS-III\Source/os_task.c ****              break;
 3284              		.loc 1 2185 0
 3285 00e6 00E0     		b	.L240
 3286              	.L244:
2180:..\..\..\..\..\..\uCOS-III\Source/os_task.c **** 
 3287              		.loc 1 2180 0
 3288 00e8 00BF     		nop
 3289              	.L240:
2186:..\..\..\..\..\..\uCOS-III\Source/os_task.c ****     }
2187:..\..\..\..\..\..\uCOS-III\Source/os_task.c **** }
 3290              		.loc 1 2187 0
 3291 00ea 00BF     		nop
 3292 00ec 1837     		adds	r7, r7, #24
 3293              		.cfi_def_cfa_offset 8
 3294 00ee BD46     		mov	sp, r7
 3295              		.cfi_def_cfa_register 13
 3296              		@ sp needed
 3297 00f0 80BD     		pop	{r7, pc}
 3298              	.L246:
 3299 00f2 00BF     		.align	2
 3300              	.L245:
 3301 00f4 00000000 		.word	OSTCBCurPtr
 3302              		.cfi_endproc
 3303              	.LFE22:
 3304              		.size	OS_TaskQPost, .-OS_TaskQPost
 3305              		.section	.text.OS_TaskResume,"ax",%progbits
 3306              		.align	2
 3307              		.global	OS_TaskResume
 3308              		.thumb
 3309              		.thumb_func
 3310              		.type	OS_TaskResume, %function
 3311              	OS_TaskResume:
 3312              	.LFB23:
2188:..\..\..\..\..\..\uCOS-III\Source/os_task.c **** #endif
ARM GAS  C:\Users\Aluno\AppData\Local\Temp\ccHJiRYw.s 			page 98


2189:..\..\..\..\..\..\uCOS-III\Source/os_task.c **** 
2190:..\..\..\..\..\..\uCOS-III\Source/os_task.c **** /*$PAGE*/
2191:..\..\..\..\..\..\uCOS-III\Source/os_task.c **** /*
2192:..\..\..\..\..\..\uCOS-III\Source/os_task.c **** ***************************************************************************************************
2193:..\..\..\..\..\..\uCOS-III\Source/os_task.c **** *                                               RESUME A SUSPENDED TASK
2194:..\..\..\..\..\..\uCOS-III\Source/os_task.c **** *
2195:..\..\..\..\..\..\uCOS-III\Source/os_task.c **** * Description: This function is called to resume a previously suspended task.  This is the only cal
2196:..\..\..\..\..\..\uCOS-III\Source/os_task.c **** *              explicit task suspension.
2197:..\..\..\..\..\..\uCOS-III\Source/os_task.c **** *
2198:..\..\..\..\..\..\uCOS-III\Source/os_task.c **** * Arguments  : p_tcb      Is a pointer to the task's OS_TCB to resume
2199:..\..\..\..\..\..\uCOS-III\Source/os_task.c **** *
2200:..\..\..\..\..\..\uCOS-III\Source/os_task.c **** *              p_err      Is a pointer to a variable that will contain an error code returned by th
2201:..\..\..\..\..\..\uCOS-III\Source/os_task.c **** *
2202:..\..\..\..\..\..\uCOS-III\Source/os_task.c **** *                             OS_ERR_NONE                  if the requested task is resumed
2203:..\..\..\..\..\..\uCOS-III\Source/os_task.c **** *                             OS_ERR_STATE_INVALID         if the task is in an invalid state
2204:..\..\..\..\..\..\uCOS-III\Source/os_task.c **** *                             OS_ERR_TASK_RESUME_ISR       if you called this function from an ISR
2205:..\..\..\..\..\..\uCOS-III\Source/os_task.c **** *                             OS_ERR_TASK_RESUME_SELF      You cannot resume 'self'
2206:..\..\..\..\..\..\uCOS-III\Source/os_task.c **** *                             OS_ERR_TASK_NOT_SUSPENDED    if the task to resume has not been suspe
2207:..\..\..\..\..\..\uCOS-III\Source/os_task.c **** *
2208:..\..\..\..\..\..\uCOS-III\Source/os_task.c **** * Returns    : none
2209:..\..\..\..\..\..\uCOS-III\Source/os_task.c **** *
2210:..\..\..\..\..\..\uCOS-III\Source/os_task.c **** * Note(s)    : This function is INTERNAL to uC/OS-III and your application should not call it.
2211:..\..\..\..\..\..\uCOS-III\Source/os_task.c **** ***************************************************************************************************
2212:..\..\..\..\..\..\uCOS-III\Source/os_task.c **** */
2213:..\..\..\..\..\..\uCOS-III\Source/os_task.c **** 
2214:..\..\..\..\..\..\uCOS-III\Source/os_task.c **** #if OS_CFG_TASK_SUSPEND_EN > 0u
2215:..\..\..\..\..\..\uCOS-III\Source/os_task.c **** void  OS_TaskResume (OS_TCB  *p_tcb,
2216:..\..\..\..\..\..\uCOS-III\Source/os_task.c ****                      OS_ERR  *p_err)
2217:..\..\..\..\..\..\uCOS-III\Source/os_task.c **** {
 3313              		.loc 1 2217 0
 3314              		.cfi_startproc
 3315              		@ args = 0, pretend = 0, frame = 16
 3316              		@ frame_needed = 1, uses_anonymous_args = 0
 3317 0000 80B5     		push	{r7, lr}
 3318              		.cfi_def_cfa_offset 8
 3319              		.cfi_offset 7, -8
 3320              		.cfi_offset 14, -4
 3321 0002 84B0     		sub	sp, sp, #16
 3322              		.cfi_def_cfa_offset 24
 3323 0004 00AF     		add	r7, sp, #0
 3324              		.cfi_def_cfa_register 7
 3325 0006 7860     		str	r0, [r7, #4]
 3326 0008 3960     		str	r1, [r7]
2218:..\..\..\..\..\..\uCOS-III\Source/os_task.c ****     CPU_SR_ALLOC();
 3327              		.loc 1 2218 0
 3328 000a 0023     		movs	r3, #0
 3329 000c FB60     		str	r3, [r7, #12]
2219:..\..\..\..\..\..\uCOS-III\Source/os_task.c **** 
2220:..\..\..\..\..\..\uCOS-III\Source/os_task.c **** 
2221:..\..\..\..\..\..\uCOS-III\Source/os_task.c ****     CPU_CRITICAL_ENTER();
 3330              		.loc 1 2221 0
 3331 000e FFF7FEFF 		bl	CPU_SR_Save
 3332 0012 F860     		str	r0, [r7, #12]
2222:..\..\..\..\..\..\uCOS-III\Source/os_task.c ****    *p_err  = OS_ERR_NONE;
 3333              		.loc 1 2222 0
 3334 0014 3B68     		ldr	r3, [r7]
 3335 0016 0022     		movs	r2, #0
ARM GAS  C:\Users\Aluno\AppData\Local\Temp\ccHJiRYw.s 			page 99


 3336 0018 1A80     		strh	r2, [r3]	@ movhi
2223:..\..\..\..\..\..\uCOS-III\Source/os_task.c ****     switch (p_tcb->TaskState) {
 3337              		.loc 1 2223 0
 3338 001a 7B68     		ldr	r3, [r7, #4]
 3339 001c 93F83630 		ldrb	r3, [r3, #54]	@ zero_extendqisi2
 3340 0020 072B     		cmp	r3, #7
 3341 0022 72D8     		bhi	.L248
 3342 0024 01A2     		adr	r2, .L250
 3343 0026 52F823F0 		ldr	pc, [r2, r3, lsl #2]
 3344 002a 00BF     		.p2align 2
 3345              	.L250:
 3346 002c 4D000000 		.word	.L249+1
 3347 0030 4D000000 		.word	.L249+1
 3348 0034 4D000000 		.word	.L249+1
 3349 0038 4D000000 		.word	.L249+1
 3350 003c 5D000000 		.word	.L251+1
 3351 0040 8D000000 		.word	.L252+1
 3352 0044 B7000000 		.word	.L253+1
 3353 0048 E1000000 		.word	.L254+1
 3354              		.p2align 1
 3355              	.L249:
2224:..\..\..\..\..\..\uCOS-III\Source/os_task.c ****         case OS_TASK_STATE_RDY:
2225:..\..\..\..\..\..\uCOS-III\Source/os_task.c ****         case OS_TASK_STATE_DLY:
2226:..\..\..\..\..\..\uCOS-III\Source/os_task.c ****         case OS_TASK_STATE_PEND:
2227:..\..\..\..\..\..\uCOS-III\Source/os_task.c ****         case OS_TASK_STATE_PEND_TIMEOUT:
2228:..\..\..\..\..\..\uCOS-III\Source/os_task.c ****              CPU_CRITICAL_EXIT();
 3356              		.loc 1 2228 0
 3357 004c F868     		ldr	r0, [r7, #12]
 3358 004e FFF7FEFF 		bl	CPU_SR_Restore
2229:..\..\..\..\..\..\uCOS-III\Source/os_task.c ****             *p_err = OS_ERR_TASK_NOT_SUSPENDED;
 3359              		.loc 1 2229 0
 3360 0052 3B68     		ldr	r3, [r7]
 3361 0054 47F25312 		movw	r2, #29011
 3362 0058 1A80     		strh	r2, [r3]	@ movhi
2230:..\..\..\..\..\..\uCOS-III\Source/os_task.c ****              break;
 3363              		.loc 1 2230 0
 3364 005a 5EE0     		b	.L255
 3365              	.L251:
2231:..\..\..\..\..\..\uCOS-III\Source/os_task.c **** 
2232:..\..\..\..\..\..\uCOS-III\Source/os_task.c ****         case OS_TASK_STATE_SUSPENDED:
2233:..\..\..\..\..\..\uCOS-III\Source/os_task.c ****              OS_CRITICAL_ENTER_CPU_EXIT();
2234:..\..\..\..\..\..\uCOS-III\Source/os_task.c ****              p_tcb->SuspendCtr--;
 3366              		.loc 1 2234 0
 3367 005c 7B68     		ldr	r3, [r7, #4]
 3368 005e 93F88A30 		ldrb	r3, [r3, #138]	@ zero_extendqisi2
 3369 0062 013B     		subs	r3, r3, #1
 3370 0064 DAB2     		uxtb	r2, r3
 3371 0066 7B68     		ldr	r3, [r7, #4]
 3372 0068 83F88A20 		strb	r2, [r3, #138]
2235:..\..\..\..\..\..\uCOS-III\Source/os_task.c ****              if (p_tcb->SuspendCtr == (OS_NESTING_CTR)0) {
 3373              		.loc 1 2235 0
 3374 006c 7B68     		ldr	r3, [r7, #4]
 3375 006e 93F88A30 		ldrb	r3, [r3, #138]	@ zero_extendqisi2
 3376 0072 002B     		cmp	r3, #0
 3377 0074 06D1     		bne	.L256
2236:..\..\..\..\..\..\uCOS-III\Source/os_task.c ****                  p_tcb->TaskState = OS_TASK_STATE_RDY;
 3378              		.loc 1 2236 0
ARM GAS  C:\Users\Aluno\AppData\Local\Temp\ccHJiRYw.s 			page 100


 3379 0076 7B68     		ldr	r3, [r7, #4]
 3380 0078 0022     		movs	r2, #0
 3381 007a 83F83620 		strb	r2, [r3, #54]
2237:..\..\..\..\..\..\uCOS-III\Source/os_task.c ****                  OS_TaskRdy(p_tcb);
 3382              		.loc 1 2237 0
 3383 007e 7868     		ldr	r0, [r7, #4]
 3384 0080 FFF7FEFF 		bl	OS_TaskRdy
 3385              	.L256:
2238:..\..\..\..\..\..\uCOS-III\Source/os_task.c ****              }
2239:..\..\..\..\..\..\uCOS-III\Source/os_task.c ****              OS_CRITICAL_EXIT_NO_SCHED();
 3386              		.loc 1 2239 0
 3387 0084 F868     		ldr	r0, [r7, #12]
 3388 0086 FFF7FEFF 		bl	CPU_SR_Restore
2240:..\..\..\..\..\..\uCOS-III\Source/os_task.c ****              break;
 3389              		.loc 1 2240 0
 3390 008a 46E0     		b	.L255
 3391              	.L252:
2241:..\..\..\..\..\..\uCOS-III\Source/os_task.c **** 
2242:..\..\..\..\..\..\uCOS-III\Source/os_task.c ****         case OS_TASK_STATE_DLY_SUSPENDED:
2243:..\..\..\..\..\..\uCOS-III\Source/os_task.c ****              p_tcb->SuspendCtr--;
 3392              		.loc 1 2243 0
 3393 008c 7B68     		ldr	r3, [r7, #4]
 3394 008e 93F88A30 		ldrb	r3, [r3, #138]	@ zero_extendqisi2
 3395 0092 013B     		subs	r3, r3, #1
 3396 0094 DAB2     		uxtb	r2, r3
 3397 0096 7B68     		ldr	r3, [r7, #4]
 3398 0098 83F88A20 		strb	r2, [r3, #138]
2244:..\..\..\..\..\..\uCOS-III\Source/os_task.c ****              if (p_tcb->SuspendCtr == (OS_NESTING_CTR)0) {
 3399              		.loc 1 2244 0
 3400 009c 7B68     		ldr	r3, [r7, #4]
 3401 009e 93F88A30 		ldrb	r3, [r3, #138]	@ zero_extendqisi2
 3402 00a2 002B     		cmp	r3, #0
 3403 00a4 03D1     		bne	.L257
2245:..\..\..\..\..\..\uCOS-III\Source/os_task.c ****                  p_tcb->TaskState = OS_TASK_STATE_DLY;
 3404              		.loc 1 2245 0
 3405 00a6 7B68     		ldr	r3, [r7, #4]
 3406 00a8 0122     		movs	r2, #1
 3407 00aa 83F83620 		strb	r2, [r3, #54]
 3408              	.L257:
2246:..\..\..\..\..\..\uCOS-III\Source/os_task.c ****              }
2247:..\..\..\..\..\..\uCOS-III\Source/os_task.c ****              CPU_CRITICAL_EXIT();
 3409              		.loc 1 2247 0
 3410 00ae F868     		ldr	r0, [r7, #12]
 3411 00b0 FFF7FEFF 		bl	CPU_SR_Restore
2248:..\..\..\..\..\..\uCOS-III\Source/os_task.c ****              break;
 3412              		.loc 1 2248 0
 3413 00b4 31E0     		b	.L255
 3414              	.L253:
2249:..\..\..\..\..\..\uCOS-III\Source/os_task.c **** 
2250:..\..\..\..\..\..\uCOS-III\Source/os_task.c ****         case OS_TASK_STATE_PEND_SUSPENDED:
2251:..\..\..\..\..\..\uCOS-III\Source/os_task.c ****              p_tcb->SuspendCtr--;
 3415              		.loc 1 2251 0
 3416 00b6 7B68     		ldr	r3, [r7, #4]
 3417 00b8 93F88A30 		ldrb	r3, [r3, #138]	@ zero_extendqisi2
 3418 00bc 013B     		subs	r3, r3, #1
 3419 00be DAB2     		uxtb	r2, r3
 3420 00c0 7B68     		ldr	r3, [r7, #4]
ARM GAS  C:\Users\Aluno\AppData\Local\Temp\ccHJiRYw.s 			page 101


 3421 00c2 83F88A20 		strb	r2, [r3, #138]
2252:..\..\..\..\..\..\uCOS-III\Source/os_task.c ****              if (p_tcb->SuspendCtr == (OS_NESTING_CTR)0) {
 3422              		.loc 1 2252 0
 3423 00c6 7B68     		ldr	r3, [r7, #4]
 3424 00c8 93F88A30 		ldrb	r3, [r3, #138]	@ zero_extendqisi2
 3425 00cc 002B     		cmp	r3, #0
 3426 00ce 03D1     		bne	.L258
2253:..\..\..\..\..\..\uCOS-III\Source/os_task.c ****                  p_tcb->TaskState = OS_TASK_STATE_PEND;
 3427              		.loc 1 2253 0
 3428 00d0 7B68     		ldr	r3, [r7, #4]
 3429 00d2 0222     		movs	r2, #2
 3430 00d4 83F83620 		strb	r2, [r3, #54]
 3431              	.L258:
2254:..\..\..\..\..\..\uCOS-III\Source/os_task.c ****              }
2255:..\..\..\..\..\..\uCOS-III\Source/os_task.c ****              CPU_CRITICAL_EXIT();
 3432              		.loc 1 2255 0
 3433 00d8 F868     		ldr	r0, [r7, #12]
 3434 00da FFF7FEFF 		bl	CPU_SR_Restore
2256:..\..\..\..\..\..\uCOS-III\Source/os_task.c ****              break;
 3435              		.loc 1 2256 0
 3436 00de 1CE0     		b	.L255
 3437              	.L254:
2257:..\..\..\..\..\..\uCOS-III\Source/os_task.c **** 
2258:..\..\..\..\..\..\uCOS-III\Source/os_task.c ****         case OS_TASK_STATE_PEND_TIMEOUT_SUSPENDED:
2259:..\..\..\..\..\..\uCOS-III\Source/os_task.c ****              p_tcb->SuspendCtr--;
 3438              		.loc 1 2259 0
 3439 00e0 7B68     		ldr	r3, [r7, #4]
 3440 00e2 93F88A30 		ldrb	r3, [r3, #138]	@ zero_extendqisi2
 3441 00e6 013B     		subs	r3, r3, #1
 3442 00e8 DAB2     		uxtb	r2, r3
 3443 00ea 7B68     		ldr	r3, [r7, #4]
 3444 00ec 83F88A20 		strb	r2, [r3, #138]
2260:..\..\..\..\..\..\uCOS-III\Source/os_task.c ****              if (p_tcb->SuspendCtr == (OS_NESTING_CTR)0) {
 3445              		.loc 1 2260 0
 3446 00f0 7B68     		ldr	r3, [r7, #4]
 3447 00f2 93F88A30 		ldrb	r3, [r3, #138]	@ zero_extendqisi2
 3448 00f6 002B     		cmp	r3, #0
 3449 00f8 03D1     		bne	.L259
2261:..\..\..\..\..\..\uCOS-III\Source/os_task.c ****                  p_tcb->TaskState = OS_TASK_STATE_PEND_TIMEOUT;
 3450              		.loc 1 2261 0
 3451 00fa 7B68     		ldr	r3, [r7, #4]
 3452 00fc 0322     		movs	r2, #3
 3453 00fe 83F83620 		strb	r2, [r3, #54]
 3454              	.L259:
2262:..\..\..\..\..\..\uCOS-III\Source/os_task.c ****              }
2263:..\..\..\..\..\..\uCOS-III\Source/os_task.c ****              CPU_CRITICAL_EXIT();
 3455              		.loc 1 2263 0
 3456 0102 F868     		ldr	r0, [r7, #12]
 3457 0104 FFF7FEFF 		bl	CPU_SR_Restore
2264:..\..\..\..\..\..\uCOS-III\Source/os_task.c ****              break;
 3458              		.loc 1 2264 0
 3459 0108 07E0     		b	.L255
 3460              	.L248:
2265:..\..\..\..\..\..\uCOS-III\Source/os_task.c **** 
2266:..\..\..\..\..\..\uCOS-III\Source/os_task.c ****         default:
2267:..\..\..\..\..\..\uCOS-III\Source/os_task.c ****              CPU_CRITICAL_EXIT();
 3461              		.loc 1 2267 0
ARM GAS  C:\Users\Aluno\AppData\Local\Temp\ccHJiRYw.s 			page 102


 3462 010a F868     		ldr	r0, [r7, #12]
 3463 010c FFF7FEFF 		bl	CPU_SR_Restore
2268:..\..\..\..\..\..\uCOS-III\Source/os_task.c ****             *p_err = OS_ERR_STATE_INVALID;
 3464              		.loc 1 2268 0
 3465 0110 3B68     		ldr	r3, [r7]
 3466 0112 46F62D62 		movw	r2, #28205
 3467 0116 1A80     		strh	r2, [r3]	@ movhi
2269:..\..\..\..\..\..\uCOS-III\Source/os_task.c ****              return;
 3468              		.loc 1 2269 0
 3469 0118 01E0     		b	.L247
 3470              	.L255:
2270:..\..\..\..\..\..\uCOS-III\Source/os_task.c ****     }
2271:..\..\..\..\..\..\uCOS-III\Source/os_task.c **** 
2272:..\..\..\..\..\..\uCOS-III\Source/os_task.c ****     OSSched();
 3471              		.loc 1 2272 0
 3472 011a FFF7FEFF 		bl	OSSched
 3473              	.L247:
2273:..\..\..\..\..\..\uCOS-III\Source/os_task.c **** }
 3474              		.loc 1 2273 0
 3475 011e 1037     		adds	r7, r7, #16
 3476              		.cfi_def_cfa_offset 8
 3477 0120 BD46     		mov	sp, r7
 3478              		.cfi_def_cfa_register 13
 3479              		@ sp needed
 3480 0122 80BD     		pop	{r7, pc}
 3481              		.cfi_endproc
 3482              	.LFE23:
 3483              		.size	OS_TaskResume, .-OS_TaskResume
 3484              		.section	.text.OS_TaskReturn,"ax",%progbits
 3485              		.align	2
 3486              		.global	OS_TaskReturn
 3487              		.thumb
 3488              		.thumb_func
 3489              		.type	OS_TaskReturn, %function
 3490              	OS_TaskReturn:
 3491              	.LFB24:
2274:..\..\..\..\..\..\uCOS-III\Source/os_task.c **** #endif
2275:..\..\..\..\..\..\uCOS-III\Source/os_task.c **** 
2276:..\..\..\..\..\..\uCOS-III\Source/os_task.c **** /*$PAGE*/
2277:..\..\..\..\..\..\uCOS-III\Source/os_task.c **** /*
2278:..\..\..\..\..\..\uCOS-III\Source/os_task.c **** ***************************************************************************************************
2279:..\..\..\..\..\..\uCOS-III\Source/os_task.c **** *                                              CATCH ACCIDENTAL TASK RETURN
2280:..\..\..\..\..\..\uCOS-III\Source/os_task.c **** *
2281:..\..\..\..\..\..\uCOS-III\Source/os_task.c **** * Description: This function is called if a task accidentally returns without deleting itself.  In 
2282:..\..\..\..\..\..\uCOS-III\Source/os_task.c **** *              should either be an infinite loop or delete itself if it's done.
2283:..\..\..\..\..\..\uCOS-III\Source/os_task.c **** *
2284:..\..\..\..\..\..\uCOS-III\Source/os_task.c **** * Arguments  : none
2285:..\..\..\..\..\..\uCOS-III\Source/os_task.c **** *
2286:..\..\..\..\..\..\uCOS-III\Source/os_task.c **** * Returns    : none
2287:..\..\..\..\..\..\uCOS-III\Source/os_task.c **** *
2288:..\..\..\..\..\..\uCOS-III\Source/os_task.c **** * Note(s)    : This function is INTERNAL to uC/OS-III and your application should not call it.
2289:..\..\..\..\..\..\uCOS-III\Source/os_task.c **** ***************************************************************************************************
2290:..\..\..\..\..\..\uCOS-III\Source/os_task.c **** */
2291:..\..\..\..\..\..\uCOS-III\Source/os_task.c **** 
2292:..\..\..\..\..\..\uCOS-III\Source/os_task.c **** void  OS_TaskReturn (void)
2293:..\..\..\..\..\..\uCOS-III\Source/os_task.c **** {
 3492              		.loc 1 2293 0
ARM GAS  C:\Users\Aluno\AppData\Local\Temp\ccHJiRYw.s 			page 103


 3493              		.cfi_startproc
 3494              		@ args = 0, pretend = 0, frame = 8
 3495              		@ frame_needed = 1, uses_anonymous_args = 0
 3496 0000 80B5     		push	{r7, lr}
 3497              		.cfi_def_cfa_offset 8
 3498              		.cfi_offset 7, -8
 3499              		.cfi_offset 14, -4
 3500 0002 82B0     		sub	sp, sp, #8
 3501              		.cfi_def_cfa_offset 16
 3502 0004 00AF     		add	r7, sp, #0
 3503              		.cfi_def_cfa_register 7
2294:..\..\..\..\..\..\uCOS-III\Source/os_task.c ****     OS_ERR  err;
2295:..\..\..\..\..\..\uCOS-III\Source/os_task.c **** 
2296:..\..\..\..\..\..\uCOS-III\Source/os_task.c **** 
2297:..\..\..\..\..\..\uCOS-III\Source/os_task.c **** 
2298:..\..\..\..\..\..\uCOS-III\Source/os_task.c ****     OSTaskReturnHook(OSTCBCurPtr);                          /* Call hook to let user decide on what
 3504              		.loc 1 2298 0
 3505 0006 074B     		ldr	r3, .L262
 3506 0008 1B68     		ldr	r3, [r3]
 3507 000a 1846     		mov	r0, r3
 3508 000c FFF7FEFF 		bl	OSTaskReturnHook
2299:..\..\..\..\..\..\uCOS-III\Source/os_task.c **** #if OS_CFG_TASK_DEL_EN > 0u
2300:..\..\..\..\..\..\uCOS-III\Source/os_task.c ****     OSTaskDel((OS_TCB *)0,                                  /* Delete task if it accidentally retur
 3509              		.loc 1 2300 0
 3510 0010 BB1D     		adds	r3, r7, #6
 3511 0012 1946     		mov	r1, r3
 3512 0014 0020     		movs	r0, #0
 3513 0016 FFF7FEFF 		bl	OSTaskDel
2301:..\..\..\..\..\..\uCOS-III\Source/os_task.c ****               (OS_ERR *)&err);
2302:..\..\..\..\..\..\uCOS-III\Source/os_task.c **** #else
2303:..\..\..\..\..\..\uCOS-III\Source/os_task.c ****     for (;;) {
2304:..\..\..\..\..\..\uCOS-III\Source/os_task.c ****         OSTimeDly((OS_TICK )OSCfg_TickRate_Hz,
2305:..\..\..\..\..\..\uCOS-III\Source/os_task.c ****                   (OS_OPT  )OS_OPT_TIME_DLY,
2306:..\..\..\..\..\..\uCOS-III\Source/os_task.c ****                   (OS_ERR *)&err);
2307:..\..\..\..\..\..\uCOS-III\Source/os_task.c ****     }
2308:..\..\..\..\..\..\uCOS-III\Source/os_task.c **** #endif
2309:..\..\..\..\..\..\uCOS-III\Source/os_task.c **** }
 3514              		.loc 1 2309 0
 3515 001a 00BF     		nop
 3516 001c 0837     		adds	r7, r7, #8
 3517              		.cfi_def_cfa_offset 8
 3518 001e BD46     		mov	sp, r7
 3519              		.cfi_def_cfa_register 13
 3520              		@ sp needed
 3521 0020 80BD     		pop	{r7, pc}
 3522              	.L263:
 3523 0022 00BF     		.align	2
 3524              	.L262:
 3525 0024 00000000 		.word	OSTCBCurPtr
 3526              		.cfi_endproc
 3527              	.LFE24:
 3528              		.size	OS_TaskReturn, .-OS_TaskReturn
 3529              		.section	.text.OS_TaskSemPost,"ax",%progbits
 3530              		.align	2
 3531              		.global	OS_TaskSemPost
 3532              		.thumb
 3533              		.thumb_func
ARM GAS  C:\Users\Aluno\AppData\Local\Temp\ccHJiRYw.s 			page 104


 3534              		.type	OS_TaskSemPost, %function
 3535              	OS_TaskSemPost:
 3536              	.LFB25:
2310:..\..\..\..\..\..\uCOS-III\Source/os_task.c **** 
2311:..\..\..\..\..\..\uCOS-III\Source/os_task.c **** /*$PAGE*/
2312:..\..\..\..\..\..\uCOS-III\Source/os_task.c **** /*
2313:..\..\..\..\..\..\uCOS-III\Source/os_task.c **** ***************************************************************************************************
2314:..\..\..\..\..\..\uCOS-III\Source/os_task.c **** *                                                    SIGNAL A TASK
2315:..\..\..\..\..\..\uCOS-III\Source/os_task.c **** *
2316:..\..\..\..\..\..\uCOS-III\Source/os_task.c **** * Description: This function is called to signal a task waiting for a signal.
2317:..\..\..\..\..\..\uCOS-III\Source/os_task.c **** *
2318:..\..\..\..\..\..\uCOS-III\Source/os_task.c **** * Arguments  : p_tcb     is the pointer to the TCB of the task to signal.  A NULL pointer indicates
2319:..\..\..\..\..\..\uCOS-III\Source/os_task.c **** *                        a signal to yourself.
2320:..\..\..\..\..\..\uCOS-III\Source/os_task.c **** *
2321:..\..\..\..\..\..\uCOS-III\Source/os_task.c **** *              opt       determines the type of POST performed:
2322:..\..\..\..\..\..\uCOS-III\Source/os_task.c **** *
2323:..\..\..\..\..\..\uCOS-III\Source/os_task.c **** *                             OS_OPT_POST_NONE         No option
2324:..\..\..\..\..\..\uCOS-III\Source/os_task.c **** *
2325:..\..\..\..\..\..\uCOS-III\Source/os_task.c **** *                             OS_OPT_POST_NO_SCHED     Do not call the scheduler
2326:..\..\..\..\..\..\uCOS-III\Source/os_task.c **** *
2327:..\..\..\..\..\..\uCOS-III\Source/os_task.c **** *              ts        is a timestamp indicating when the post occurred.
2328:..\..\..\..\..\..\uCOS-III\Source/os_task.c **** *
2329:..\..\..\..\..\..\uCOS-III\Source/os_task.c **** *              p_err     is a pointer to an error code returned by this function:
2330:..\..\..\..\..\..\uCOS-III\Source/os_task.c **** *
2331:..\..\..\..\..\..\uCOS-III\Source/os_task.c **** *                            OS_ERR_NONE           If the requested task is signaled
2332:..\..\..\..\..\..\uCOS-III\Source/os_task.c **** *                            OS_ERR_SEM_OVF        If the post would cause the semaphore count to o
2333:..\..\..\..\..\..\uCOS-III\Source/os_task.c **** *                            OS_ERR_STATE_INVALID  If the task is in an invalid state.  This should
2334:..\..\..\..\..\..\uCOS-III\Source/os_task.c **** *                                                  and if it does, would be considered a system fai
2335:..\..\..\..\..\..\uCOS-III\Source/os_task.c **** *
2336:..\..\..\..\..\..\uCOS-III\Source/os_task.c **** * Returns    : The current value of the task's signal counter or 0 if called from an ISR
2337:..\..\..\..\..\..\uCOS-III\Source/os_task.c **** *
2338:..\..\..\..\..\..\uCOS-III\Source/os_task.c **** * Note(s)    : This function is INTERNAL to uC/OS-III and your application should not call it.
2339:..\..\..\..\..\..\uCOS-III\Source/os_task.c **** ***************************************************************************************************
2340:..\..\..\..\..\..\uCOS-III\Source/os_task.c **** */
2341:..\..\..\..\..\..\uCOS-III\Source/os_task.c **** 
2342:..\..\..\..\..\..\uCOS-III\Source/os_task.c **** OS_SEM_CTR  OS_TaskSemPost (OS_TCB  *p_tcb,
2343:..\..\..\..\..\..\uCOS-III\Source/os_task.c ****                             OS_OPT   opt,
2344:..\..\..\..\..\..\uCOS-III\Source/os_task.c ****                             CPU_TS   ts,
2345:..\..\..\..\..\..\uCOS-III\Source/os_task.c ****                             OS_ERR  *p_err)
2346:..\..\..\..\..\..\uCOS-III\Source/os_task.c **** {
 3537              		.loc 1 2346 0
 3538              		.cfi_startproc
 3539              		@ args = 0, pretend = 0, frame = 24
 3540              		@ frame_needed = 1, uses_anonymous_args = 0
 3541 0000 80B5     		push	{r7, lr}
 3542              		.cfi_def_cfa_offset 8
 3543              		.cfi_offset 7, -8
 3544              		.cfi_offset 14, -4
 3545 0002 88B0     		sub	sp, sp, #32
 3546              		.cfi_def_cfa_offset 40
 3547 0004 02AF     		add	r7, sp, #8
 3548              		.cfi_def_cfa 7, 32
 3549 0006 F860     		str	r0, [r7, #12]
 3550 0008 7A60     		str	r2, [r7, #4]
 3551 000a 3B60     		str	r3, [r7]
 3552 000c 0B46     		mov	r3, r1	@ movhi
 3553 000e 7B81     		strh	r3, [r7, #10]	@ movhi
ARM GAS  C:\Users\Aluno\AppData\Local\Temp\ccHJiRYw.s 			page 105


2347:..\..\..\..\..\..\uCOS-III\Source/os_task.c ****     OS_SEM_CTR  ctr;
2348:..\..\..\..\..\..\uCOS-III\Source/os_task.c ****     CPU_SR_ALLOC();
 3554              		.loc 1 2348 0
 3555 0010 0023     		movs	r3, #0
 3556 0012 3B61     		str	r3, [r7, #16]
2349:..\..\..\..\..\..\uCOS-III\Source/os_task.c **** 
2350:..\..\..\..\..\..\uCOS-III\Source/os_task.c **** 
2351:..\..\..\..\..\..\uCOS-III\Source/os_task.c **** 
2352:..\..\..\..\..\..\uCOS-III\Source/os_task.c ****     OS_CRITICAL_ENTER();
 3557              		.loc 1 2352 0
 3558 0014 FFF7FEFF 		bl	CPU_SR_Save
 3559 0018 3861     		str	r0, [r7, #16]
2353:..\..\..\..\..\..\uCOS-III\Source/os_task.c ****     if (p_tcb == (OS_TCB *)0) {                             /* Post signal to 'self'?              
 3560              		.loc 1 2353 0
 3561 001a FB68     		ldr	r3, [r7, #12]
 3562 001c 002B     		cmp	r3, #0
 3563 001e 02D1     		bne	.L265
2354:..\..\..\..\..\..\uCOS-III\Source/os_task.c ****         p_tcb = OSTCBCurPtr;
 3564              		.loc 1 2354 0
 3565 0020 404B     		ldr	r3, .L282
 3566 0022 1B68     		ldr	r3, [r3]
 3567 0024 FB60     		str	r3, [r7, #12]
 3568              	.L265:
2355:..\..\..\..\..\..\uCOS-III\Source/os_task.c ****     }
2356:..\..\..\..\..\..\uCOS-III\Source/os_task.c ****     p_tcb->TS = ts;
 3569              		.loc 1 2356 0
 3570 0026 FB68     		ldr	r3, [r7, #12]
 3571 0028 7A68     		ldr	r2, [r7, #4]
 3572 002a 1A64     		str	r2, [r3, #64]
2357:..\..\..\..\..\..\uCOS-III\Source/os_task.c ****    *p_err     = OS_ERR_NONE;                                /* Assume we won't have any errors     
 3573              		.loc 1 2357 0
 3574 002c 3B68     		ldr	r3, [r7]
 3575 002e 0022     		movs	r2, #0
 3576 0030 1A80     		strh	r2, [r3]	@ movhi
2358:..\..\..\..\..\..\uCOS-III\Source/os_task.c ****     switch (p_tcb->TaskState) {
 3577              		.loc 1 2358 0
 3578 0032 FB68     		ldr	r3, [r7, #12]
 3579 0034 93F83630 		ldrb	r3, [r3, #54]	@ zero_extendqisi2
 3580 0038 072B     		cmp	r3, #7
 3581 003a 63D8     		bhi	.L266
 3582 003c 01A2     		adr	r2, .L268
 3583 003e 52F823F0 		ldr	pc, [r2, r3, lsl #2]
 3584 0042 00BF     		.p2align 2
 3585              	.L268:
 3586 0044 65000000 		.word	.L267+1
 3587 0048 65000000 		.word	.L267+1
 3588 004c 9B000000 		.word	.L269+1
 3589 0050 9B000000 		.word	.L269+1
 3590 0054 65000000 		.word	.L267+1
 3591 0058 65000000 		.word	.L267+1
 3592 005c 9B000000 		.word	.L269+1
 3593 0060 9B000000 		.word	.L269+1
 3594              		.p2align 1
 3595              	.L267:
2359:..\..\..\..\..\..\uCOS-III\Source/os_task.c ****         case OS_TASK_STATE_RDY:
2360:..\..\..\..\..\..\uCOS-III\Source/os_task.c ****         case OS_TASK_STATE_DLY:
2361:..\..\..\..\..\..\uCOS-III\Source/os_task.c ****         case OS_TASK_STATE_SUSPENDED:
ARM GAS  C:\Users\Aluno\AppData\Local\Temp\ccHJiRYw.s 			page 106


2362:..\..\..\..\..\..\uCOS-III\Source/os_task.c ****         case OS_TASK_STATE_DLY_SUSPENDED:
2363:..\..\..\..\..\..\uCOS-III\Source/os_task.c ****              switch (sizeof(OS_SEM_CTR)) {
2364:..\..\..\..\..\..\uCOS-III\Source/os_task.c ****                  case 1u:
2365:..\..\..\..\..\..\uCOS-III\Source/os_task.c ****                       if (p_tcb->SemCtr == DEF_INT_08U_MAX_VAL) {
2366:..\..\..\..\..\..\uCOS-III\Source/os_task.c ****                           OS_CRITICAL_EXIT();
2367:..\..\..\..\..\..\uCOS-III\Source/os_task.c ****                          *p_err = OS_ERR_SEM_OVF;
2368:..\..\..\..\..\..\uCOS-III\Source/os_task.c ****                           return ((OS_SEM_CTR)0);
2369:..\..\..\..\..\..\uCOS-III\Source/os_task.c ****                       }
2370:..\..\..\..\..\..\uCOS-III\Source/os_task.c ****                       break;
2371:..\..\..\..\..\..\uCOS-III\Source/os_task.c **** 
2372:..\..\..\..\..\..\uCOS-III\Source/os_task.c ****                  case 2u:
2373:..\..\..\..\..\..\uCOS-III\Source/os_task.c ****                       if (p_tcb->SemCtr == DEF_INT_16U_MAX_VAL) {
2374:..\..\..\..\..\..\uCOS-III\Source/os_task.c ****                           OS_CRITICAL_EXIT();
2375:..\..\..\..\..\..\uCOS-III\Source/os_task.c ****                          *p_err = OS_ERR_SEM_OVF;
2376:..\..\..\..\..\..\uCOS-III\Source/os_task.c ****                           return ((OS_SEM_CTR)0);
2377:..\..\..\..\..\..\uCOS-III\Source/os_task.c ****                       }
2378:..\..\..\..\..\..\uCOS-III\Source/os_task.c ****                       break;
2379:..\..\..\..\..\..\uCOS-III\Source/os_task.c **** 
2380:..\..\..\..\..\..\uCOS-III\Source/os_task.c ****                  case 4u:
2381:..\..\..\..\..\..\uCOS-III\Source/os_task.c ****                       if (p_tcb->SemCtr == DEF_INT_32U_MAX_VAL) {
 3596              		.loc 1 2381 0
 3597 0064 FB68     		ldr	r3, [r7, #12]
 3598 0066 5B6C     		ldr	r3, [r3, #68]
 3599 0068 B3F1FF3F 		cmp	r3, #-1
 3600 006c 08D1     		bne	.L279
2382:..\..\..\..\..\..\uCOS-III\Source/os_task.c ****                           OS_CRITICAL_EXIT();
 3601              		.loc 1 2382 0
 3602 006e 3869     		ldr	r0, [r7, #16]
 3603 0070 FFF7FEFF 		bl	CPU_SR_Restore
2383:..\..\..\..\..\..\uCOS-III\Source/os_task.c ****                          *p_err = OS_ERR_SEM_OVF;
 3604              		.loc 1 2383 0
 3605 0074 3B68     		ldr	r3, [r7]
 3606 0076 46F6C552 		movw	r2, #28101
 3607 007a 1A80     		strh	r2, [r3]	@ movhi
2384:..\..\..\..\..\..\uCOS-III\Source/os_task.c ****                           return ((OS_SEM_CTR)0);
 3608              		.loc 1 2384 0
 3609 007c 0023     		movs	r3, #0
 3610 007e 4DE0     		b	.L271
 3611              	.L279:
2385:..\..\..\..\..\..\uCOS-III\Source/os_task.c ****                       }
2386:..\..\..\..\..\..\uCOS-III\Source/os_task.c ****                       break;
 3612              		.loc 1 2386 0
 3613 0080 00BF     		nop
2387:..\..\..\..\..\..\uCOS-III\Source/os_task.c **** 
2388:..\..\..\..\..\..\uCOS-III\Source/os_task.c ****                  default:
2389:..\..\..\..\..\..\uCOS-III\Source/os_task.c ****                       break;
2390:..\..\..\..\..\..\uCOS-III\Source/os_task.c ****              }
2391:..\..\..\..\..\..\uCOS-III\Source/os_task.c ****              p_tcb->SemCtr++;                               /* Task signaled is not pending on anyt
 3614              		.loc 1 2391 0
 3615 0082 FB68     		ldr	r3, [r7, #12]
 3616 0084 5B6C     		ldr	r3, [r3, #68]
 3617 0086 5A1C     		adds	r2, r3, #1
 3618 0088 FB68     		ldr	r3, [r7, #12]
 3619 008a 5A64     		str	r2, [r3, #68]
2392:..\..\..\..\..\..\uCOS-III\Source/os_task.c ****              ctr = p_tcb->SemCtr;
 3620              		.loc 1 2392 0
 3621 008c FB68     		ldr	r3, [r7, #12]
ARM GAS  C:\Users\Aluno\AppData\Local\Temp\ccHJiRYw.s 			page 107


 3622 008e 5B6C     		ldr	r3, [r3, #68]
 3623 0090 7B61     		str	r3, [r7, #20]
2393:..\..\..\..\..\..\uCOS-III\Source/os_task.c ****              OS_CRITICAL_EXIT();
 3624              		.loc 1 2393 0
 3625 0092 3869     		ldr	r0, [r7, #16]
 3626 0094 FFF7FEFF 		bl	CPU_SR_Restore
2394:..\..\..\..\..\..\uCOS-III\Source/os_task.c ****              break;
 3627              		.loc 1 2394 0
 3628 0098 3FE0     		b	.L272
 3629              	.L269:
2395:..\..\..\..\..\..\uCOS-III\Source/os_task.c **** 
2396:..\..\..\..\..\..\uCOS-III\Source/os_task.c ****         case OS_TASK_STATE_PEND:
2397:..\..\..\..\..\..\uCOS-III\Source/os_task.c ****         case OS_TASK_STATE_PEND_TIMEOUT:
2398:..\..\..\..\..\..\uCOS-III\Source/os_task.c ****         case OS_TASK_STATE_PEND_SUSPENDED:
2399:..\..\..\..\..\..\uCOS-III\Source/os_task.c ****         case OS_TASK_STATE_PEND_TIMEOUT_SUSPENDED:
2400:..\..\..\..\..\..\uCOS-III\Source/os_task.c ****              if (p_tcb->PendOn == OS_TASK_PEND_ON_TASK_SEM) {   /* Is task signaled waiting for a s
 3630              		.loc 1 2400 0
 3631 009a FB68     		ldr	r3, [r7, #12]
 3632 009c 93F83430 		ldrb	r3, [r3, #52]	@ zero_extendqisi2
 3633 00a0 072B     		cmp	r3, #7
 3634 00a2 14D1     		bne	.L273
2401:..\..\..\..\..\..\uCOS-III\Source/os_task.c ****                  OS_Post((OS_PEND_OBJ *)0,                      /*      Task is pending on signal  
 3635              		.loc 1 2401 0
 3636 00a4 7B68     		ldr	r3, [r7, #4]
 3637 00a6 0093     		str	r3, [sp]
 3638 00a8 0023     		movs	r3, #0
 3639 00aa 0022     		movs	r2, #0
 3640 00ac F968     		ldr	r1, [r7, #12]
 3641 00ae 0020     		movs	r0, #0
 3642 00b0 FFF7FEFF 		bl	OS_Post
2402:..\..\..\..\..\..\uCOS-III\Source/os_task.c ****                          (OS_TCB      *)p_tcb,
2403:..\..\..\..\..\..\uCOS-III\Source/os_task.c ****                          (void        *)0,
2404:..\..\..\..\..\..\uCOS-III\Source/os_task.c ****                          (OS_MSG_SIZE  )0u,
2405:..\..\..\..\..\..\uCOS-III\Source/os_task.c ****                          (CPU_TS       )ts);
2406:..\..\..\..\..\..\uCOS-III\Source/os_task.c ****                  ctr = p_tcb->SemCtr;
 3643              		.loc 1 2406 0
 3644 00b4 FB68     		ldr	r3, [r7, #12]
 3645 00b6 5B6C     		ldr	r3, [r3, #68]
 3646 00b8 7B61     		str	r3, [r7, #20]
2407:..\..\..\..\..\..\uCOS-III\Source/os_task.c ****                  OS_CRITICAL_EXIT_NO_SCHED();
 3647              		.loc 1 2407 0
 3648 00ba 3869     		ldr	r0, [r7, #16]
 3649 00bc FFF7FEFF 		bl	CPU_SR_Restore
2408:..\..\..\..\..\..\uCOS-III\Source/os_task.c ****                  if ((opt & OS_OPT_POST_NO_SCHED) == (OS_OPT)0) {
 3650              		.loc 1 2408 0
 3651 00c0 B7F90A30 		ldrsh	r3, [r7, #10]
 3652 00c4 002B     		cmp	r3, #0
 3653 00c6 27DB     		blt	.L280
2409:..\..\..\..\..\..\uCOS-III\Source/os_task.c ****                      OSSched();                                 /* Run the scheduler               
 3654              		.loc 1 2409 0
 3655 00c8 FFF7FEFF 		bl	OSSched
2410:..\..\..\..\..\..\uCOS-III\Source/os_task.c ****                  }
2411:..\..\..\..\..\..\uCOS-III\Source/os_task.c ****              } else {
2412:..\..\..\..\..\..\uCOS-III\Source/os_task.c ****                  switch (sizeof(OS_SEM_CTR)) {
2413:..\..\..\..\..\..\uCOS-III\Source/os_task.c ****                      case 1u:
2414:..\..\..\..\..\..\uCOS-III\Source/os_task.c ****                           if (p_tcb->SemCtr == DEF_INT_08U_MAX_VAL) {
2415:..\..\..\..\..\..\uCOS-III\Source/os_task.c ****                               OS_CRITICAL_EXIT();
ARM GAS  C:\Users\Aluno\AppData\Local\Temp\ccHJiRYw.s 			page 108


2416:..\..\..\..\..\..\uCOS-III\Source/os_task.c ****                              *p_err = OS_ERR_SEM_OVF;
2417:..\..\..\..\..\..\uCOS-III\Source/os_task.c ****                               return ((OS_SEM_CTR)0);
2418:..\..\..\..\..\..\uCOS-III\Source/os_task.c ****                           }
2419:..\..\..\..\..\..\uCOS-III\Source/os_task.c ****                           break;
2420:..\..\..\..\..\..\uCOS-III\Source/os_task.c **** 
2421:..\..\..\..\..\..\uCOS-III\Source/os_task.c ****                      case 2u:
2422:..\..\..\..\..\..\uCOS-III\Source/os_task.c ****                           if (p_tcb->SemCtr == DEF_INT_16U_MAX_VAL) {
2423:..\..\..\..\..\..\uCOS-III\Source/os_task.c ****                               OS_CRITICAL_EXIT();
2424:..\..\..\..\..\..\uCOS-III\Source/os_task.c ****                              *p_err = OS_ERR_SEM_OVF;
2425:..\..\..\..\..\..\uCOS-III\Source/os_task.c ****                               return ((OS_SEM_CTR)0);
2426:..\..\..\..\..\..\uCOS-III\Source/os_task.c ****                           }
2427:..\..\..\..\..\..\uCOS-III\Source/os_task.c ****                           break;
2428:..\..\..\..\..\..\uCOS-III\Source/os_task.c **** 
2429:..\..\..\..\..\..\uCOS-III\Source/os_task.c ****                      case 4u:
2430:..\..\..\..\..\..\uCOS-III\Source/os_task.c ****                           if (p_tcb->SemCtr == DEF_INT_32U_MAX_VAL) {
2431:..\..\..\..\..\..\uCOS-III\Source/os_task.c ****                               OS_CRITICAL_EXIT();
2432:..\..\..\..\..\..\uCOS-III\Source/os_task.c ****                              *p_err = OS_ERR_SEM_OVF;
2433:..\..\..\..\..\..\uCOS-III\Source/os_task.c ****                               return ((OS_SEM_CTR)0);
2434:..\..\..\..\..\..\uCOS-III\Source/os_task.c ****                           }
2435:..\..\..\..\..\..\uCOS-III\Source/os_task.c ****                           break;
2436:..\..\..\..\..\..\uCOS-III\Source/os_task.c **** 
2437:..\..\..\..\..\..\uCOS-III\Source/os_task.c ****                      default:
2438:..\..\..\..\..\..\uCOS-III\Source/os_task.c ****                           break;
2439:..\..\..\..\..\..\uCOS-III\Source/os_task.c ****                  }
2440:..\..\..\..\..\..\uCOS-III\Source/os_task.c ****                  p_tcb->SemCtr++;                           /* No,  Task signaled is NOT pending on
2441:..\..\..\..\..\..\uCOS-III\Source/os_task.c ****                  ctr = p_tcb->SemCtr;                       /*      ... it must be waiting on somet
2442:..\..\..\..\..\..\uCOS-III\Source/os_task.c ****                  OS_CRITICAL_EXIT();
2443:..\..\..\..\..\..\uCOS-III\Source/os_task.c ****              }
2444:..\..\..\..\..\..\uCOS-III\Source/os_task.c ****              break;
 3656              		.loc 1 2444 0
 3657 00cc 24E0     		b	.L280
 3658              	.L273:
2430:..\..\..\..\..\..\uCOS-III\Source/os_task.c ****                               OS_CRITICAL_EXIT();
 3659              		.loc 1 2430 0
 3660 00ce FB68     		ldr	r3, [r7, #12]
 3661 00d0 5B6C     		ldr	r3, [r3, #68]
 3662 00d2 B3F1FF3F 		cmp	r3, #-1
 3663 00d6 08D1     		bne	.L281
2431:..\..\..\..\..\..\uCOS-III\Source/os_task.c ****                              *p_err = OS_ERR_SEM_OVF;
 3664              		.loc 1 2431 0
 3665 00d8 3869     		ldr	r0, [r7, #16]
 3666 00da FFF7FEFF 		bl	CPU_SR_Restore
2432:..\..\..\..\..\..\uCOS-III\Source/os_task.c ****                               return ((OS_SEM_CTR)0);
 3667              		.loc 1 2432 0
 3668 00de 3B68     		ldr	r3, [r7]
 3669 00e0 46F6C552 		movw	r2, #28101
 3670 00e4 1A80     		strh	r2, [r3]	@ movhi
2433:..\..\..\..\..\..\uCOS-III\Source/os_task.c ****                           }
 3671              		.loc 1 2433 0
 3672 00e6 0023     		movs	r3, #0
 3673 00e8 18E0     		b	.L271
 3674              	.L281:
2435:..\..\..\..\..\..\uCOS-III\Source/os_task.c **** 
 3675              		.loc 1 2435 0
 3676 00ea 00BF     		nop
2440:..\..\..\..\..\..\uCOS-III\Source/os_task.c ****                  ctr = p_tcb->SemCtr;                       /*      ... it must be waiting on somet
 3677              		.loc 1 2440 0
ARM GAS  C:\Users\Aluno\AppData\Local\Temp\ccHJiRYw.s 			page 109


 3678 00ec FB68     		ldr	r3, [r7, #12]
 3679 00ee 5B6C     		ldr	r3, [r3, #68]
 3680 00f0 5A1C     		adds	r2, r3, #1
 3681 00f2 FB68     		ldr	r3, [r7, #12]
 3682 00f4 5A64     		str	r2, [r3, #68]
2441:..\..\..\..\..\..\uCOS-III\Source/os_task.c ****                  OS_CRITICAL_EXIT();
 3683              		.loc 1 2441 0
 3684 00f6 FB68     		ldr	r3, [r7, #12]
 3685 00f8 5B6C     		ldr	r3, [r3, #68]
 3686 00fa 7B61     		str	r3, [r7, #20]
2442:..\..\..\..\..\..\uCOS-III\Source/os_task.c ****              }
 3687              		.loc 1 2442 0
 3688 00fc 3869     		ldr	r0, [r7, #16]
 3689 00fe FFF7FEFF 		bl	CPU_SR_Restore
 3690              		.loc 1 2444 0
 3691 0102 09E0     		b	.L280
 3692              	.L266:
2445:..\..\..\..\..\..\uCOS-III\Source/os_task.c **** 
2446:..\..\..\..\..\..\uCOS-III\Source/os_task.c ****         default:
2447:..\..\..\..\..\..\uCOS-III\Source/os_task.c ****              OS_CRITICAL_EXIT();
 3693              		.loc 1 2447 0
 3694 0104 3869     		ldr	r0, [r7, #16]
 3695 0106 FFF7FEFF 		bl	CPU_SR_Restore
2448:..\..\..\..\..\..\uCOS-III\Source/os_task.c ****             *p_err = OS_ERR_STATE_INVALID;
 3696              		.loc 1 2448 0
 3697 010a 3B68     		ldr	r3, [r7]
 3698 010c 46F62D62 		movw	r2, #28205
 3699 0110 1A80     		strh	r2, [r3]	@ movhi
2449:..\..\..\..\..\..\uCOS-III\Source/os_task.c ****              ctr   = (OS_SEM_CTR)0;
 3700              		.loc 1 2449 0
 3701 0112 0023     		movs	r3, #0
 3702 0114 7B61     		str	r3, [r7, #20]
2450:..\..\..\..\..\..\uCOS-III\Source/os_task.c ****              break;
 3703              		.loc 1 2450 0
 3704 0116 00E0     		b	.L272
 3705              	.L280:
2444:..\..\..\..\..\..\uCOS-III\Source/os_task.c **** 
 3706              		.loc 1 2444 0
 3707 0118 00BF     		nop
 3708              	.L272:
2451:..\..\..\..\..\..\uCOS-III\Source/os_task.c ****     }
2452:..\..\..\..\..\..\uCOS-III\Source/os_task.c ****     return (ctr);
 3709              		.loc 1 2452 0
 3710 011a 7B69     		ldr	r3, [r7, #20]
 3711              	.L271:
2453:..\..\..\..\..\..\uCOS-III\Source/os_task.c **** }
 3712              		.loc 1 2453 0
 3713 011c 1846     		mov	r0, r3
 3714 011e 1837     		adds	r7, r7, #24
 3715              		.cfi_def_cfa_offset 8
 3716 0120 BD46     		mov	sp, r7
 3717              		.cfi_def_cfa_register 13
 3718              		@ sp needed
 3719 0122 80BD     		pop	{r7, pc}
 3720              	.L283:
 3721              		.align	2
 3722              	.L282:
ARM GAS  C:\Users\Aluno\AppData\Local\Temp\ccHJiRYw.s 			page 110


 3723 0124 00000000 		.word	OSTCBCurPtr
 3724              		.cfi_endproc
 3725              	.LFE25:
 3726              		.size	OS_TaskSemPost, .-OS_TaskSemPost
 3727              		.section	.text.OS_TaskSuspend,"ax",%progbits
 3728              		.align	2
 3729              		.global	OS_TaskSuspend
 3730              		.thumb
 3731              		.thumb_func
 3732              		.type	OS_TaskSuspend, %function
 3733              	OS_TaskSuspend:
 3734              	.LFB26:
2454:..\..\..\..\..\..\uCOS-III\Source/os_task.c **** 
2455:..\..\..\..\..\..\uCOS-III\Source/os_task.c **** /*$PAGE*/
2456:..\..\..\..\..\..\uCOS-III\Source/os_task.c **** /*
2457:..\..\..\..\..\..\uCOS-III\Source/os_task.c **** ***************************************************************************************************
2458:..\..\..\..\..\..\uCOS-III\Source/os_task.c **** *                                                   SUSPEND A TASK
2459:..\..\..\..\..\..\uCOS-III\Source/os_task.c **** *
2460:..\..\..\..\..\..\uCOS-III\Source/os_task.c **** * Description: This function is called to suspend a task.  The task can be the calling task if 'p_t
2461:..\..\..\..\..\..\uCOS-III\Source/os_task.c **** *              or the pointer to the TCB of the calling task.
2462:..\..\..\..\..\..\uCOS-III\Source/os_task.c **** *
2463:..\..\..\..\..\..\uCOS-III\Source/os_task.c **** * Arguments  : p_tcb    is a pointer to the TCB to suspend.
2464:..\..\..\..\..\..\uCOS-III\Source/os_task.c **** *                       If p_tcb is a NULL pointer then, suspend the current task.
2465:..\..\..\..\..\..\uCOS-III\Source/os_task.c **** *
2466:..\..\..\..\..\..\uCOS-III\Source/os_task.c **** *              p_err    is a pointer to a variable that will receive an error code from this functi
2467:..\..\..\..\..\..\uCOS-III\Source/os_task.c **** *
2468:..\..\..\..\..\..\uCOS-III\Source/os_task.c **** *                           OS_ERR_NONE                      if the requested task is suspended
2469:..\..\..\..\..\..\uCOS-III\Source/os_task.c **** *                           OS_ERR_SCHED_LOCKED              you can't suspend the current task is 
2470:..\..\..\..\..\..\uCOS-III\Source/os_task.c **** *                                                            locked
2471:..\..\..\..\..\..\uCOS-III\Source/os_task.c **** *                           OS_ERR_TASK_SUSPEND_ISR          if you called this function from an IS
2472:..\..\..\..\..\..\uCOS-III\Source/os_task.c **** *                           OS_ERR_TASK_SUSPEND_IDLE         if you attempted to suspend the idle t
2473:..\..\..\..\..\..\uCOS-III\Source/os_task.c **** *                                                            allowed.
2474:..\..\..\..\..\..\uCOS-III\Source/os_task.c **** *                           OS_ERR_TASK_SUSPEND_INT_HANDLER  if you attempted to suspend the idle t
2475:..\..\..\..\..\..\uCOS-III\Source/os_task.c **** *                                                            allowed.
2476:..\..\..\..\..\..\uCOS-III\Source/os_task.c **** *
2477:..\..\..\..\..\..\uCOS-III\Source/os_task.c **** * Note(s)    : 1) This function is INTERNAL to uC/OS-III and your application should not call it.
2478:..\..\..\..\..\..\uCOS-III\Source/os_task.c **** *
2479:..\..\..\..\..\..\uCOS-III\Source/os_task.c **** *              2) You should use this function with great care.  If you suspend a task that is wait
2480:..\..\..\..\..\..\uCOS-III\Source/os_task.c **** *                 (i.e. a message, a semaphore, a queue ...) you will prevent this task from runnin
2481:..\..\..\..\..\..\uCOS-III\Source/os_task.c **** *                 arrives.
2482:..\..\..\..\..\..\uCOS-III\Source/os_task.c **** ***************************************************************************************************
2483:..\..\..\..\..\..\uCOS-III\Source/os_task.c **** */
2484:..\..\..\..\..\..\uCOS-III\Source/os_task.c **** 
2485:..\..\..\..\..\..\uCOS-III\Source/os_task.c **** #if OS_CFG_TASK_SUSPEND_EN > 0u
2486:..\..\..\..\..\..\uCOS-III\Source/os_task.c **** void   OS_TaskSuspend (OS_TCB  *p_tcb,
2487:..\..\..\..\..\..\uCOS-III\Source/os_task.c ****                        OS_ERR  *p_err)
2488:..\..\..\..\..\..\uCOS-III\Source/os_task.c **** {
 3735              		.loc 1 2488 0
 3736              		.cfi_startproc
 3737              		@ args = 0, pretend = 0, frame = 16
 3738              		@ frame_needed = 1, uses_anonymous_args = 0
 3739 0000 80B5     		push	{r7, lr}
 3740              		.cfi_def_cfa_offset 8
 3741              		.cfi_offset 7, -8
 3742              		.cfi_offset 14, -4
 3743 0002 84B0     		sub	sp, sp, #16
 3744              		.cfi_def_cfa_offset 24
ARM GAS  C:\Users\Aluno\AppData\Local\Temp\ccHJiRYw.s 			page 111


 3745 0004 00AF     		add	r7, sp, #0
 3746              		.cfi_def_cfa_register 7
 3747 0006 7860     		str	r0, [r7, #4]
 3748 0008 3960     		str	r1, [r7]
2489:..\..\..\..\..\..\uCOS-III\Source/os_task.c ****     CPU_SR_ALLOC();
 3749              		.loc 1 2489 0
 3750 000a 0023     		movs	r3, #0
 3751 000c FB60     		str	r3, [r7, #12]
2490:..\..\..\..\..\..\uCOS-III\Source/os_task.c **** 
2491:..\..\..\..\..\..\uCOS-III\Source/os_task.c **** 
2492:..\..\..\..\..\..\uCOS-III\Source/os_task.c **** 
2493:..\..\..\..\..\..\uCOS-III\Source/os_task.c ****     CPU_CRITICAL_ENTER();
 3752              		.loc 1 2493 0
 3753 000e FFF7FEFF 		bl	CPU_SR_Save
 3754 0012 F860     		str	r0, [r7, #12]
2494:..\..\..\..\..\..\uCOS-III\Source/os_task.c ****     if (p_tcb == (OS_TCB *)0) {                             /* See if specified to suspend self    
 3755              		.loc 1 2494 0
 3756 0014 7B68     		ldr	r3, [r7, #4]
 3757 0016 002B     		cmp	r3, #0
 3758 0018 02D1     		bne	.L285
2495:..\..\..\..\..\..\uCOS-III\Source/os_task.c ****         p_tcb = OSTCBCurPtr;
 3759              		.loc 1 2495 0
 3760 001a 3D4B     		ldr	r3, .L296
 3761 001c 1B68     		ldr	r3, [r3]
 3762 001e 7B60     		str	r3, [r7, #4]
 3763              	.L285:
2496:..\..\..\..\..\..\uCOS-III\Source/os_task.c ****     }
2497:..\..\..\..\..\..\uCOS-III\Source/os_task.c **** 
2498:..\..\..\..\..\..\uCOS-III\Source/os_task.c ****     if (p_tcb == OSTCBCurPtr) {
 3764              		.loc 1 2498 0
 3765 0020 3B4B     		ldr	r3, .L296
 3766 0022 1B68     		ldr	r3, [r3]
 3767 0024 7A68     		ldr	r2, [r7, #4]
 3768 0026 9A42     		cmp	r2, r3
 3769 0028 0BD1     		bne	.L286
2499:..\..\..\..\..\..\uCOS-III\Source/os_task.c ****         if (OSSchedLockNestingCtr > (OS_NESTING_CTR)0) {    /* Can't suspend when the scheduler is 
 3770              		.loc 1 2499 0
 3771 002a 3A4B     		ldr	r3, .L296+4
 3772 002c 1B78     		ldrb	r3, [r3]	@ zero_extendqisi2
 3773 002e 002B     		cmp	r3, #0
 3774 0030 07D0     		beq	.L286
2500:..\..\..\..\..\..\uCOS-III\Source/os_task.c ****             CPU_CRITICAL_EXIT();
 3775              		.loc 1 2500 0
 3776 0032 F868     		ldr	r0, [r7, #12]
 3777 0034 FFF7FEFF 		bl	CPU_SR_Restore
2501:..\..\..\..\..\..\uCOS-III\Source/os_task.c ****            *p_err = OS_ERR_SCHED_LOCKED;
 3778              		.loc 1 2501 0
 3779 0038 3B68     		ldr	r3, [r7]
 3780 003a 46F66352 		movw	r2, #28003
 3781 003e 1A80     		strh	r2, [r3]	@ movhi
2502:..\..\..\..\..\..\uCOS-III\Source/os_task.c ****             return;
 3782              		.loc 1 2502 0
 3783 0040 63E0     		b	.L284
 3784              	.L286:
2503:..\..\..\..\..\..\uCOS-III\Source/os_task.c ****         }
2504:..\..\..\..\..\..\uCOS-III\Source/os_task.c ****     }
2505:..\..\..\..\..\..\uCOS-III\Source/os_task.c **** 
ARM GAS  C:\Users\Aluno\AppData\Local\Temp\ccHJiRYw.s 			page 112


2506:..\..\..\..\..\..\uCOS-III\Source/os_task.c ****    *p_err = OS_ERR_NONE;
 3785              		.loc 1 2506 0
 3786 0042 3B68     		ldr	r3, [r7]
 3787 0044 0022     		movs	r2, #0
 3788 0046 1A80     		strh	r2, [r3]	@ movhi
2507:..\..\..\..\..\..\uCOS-III\Source/os_task.c ****     switch (p_tcb->TaskState) {
 3789              		.loc 1 2507 0
 3790 0048 7B68     		ldr	r3, [r7, #4]
 3791 004a 93F83630 		ldrb	r3, [r3, #54]	@ zero_extendqisi2
 3792 004e 072B     		cmp	r3, #7
 3793 0050 51D8     		bhi	.L288
 3794 0052 01A2     		adr	r2, .L290
 3795 0054 52F823F0 		ldr	pc, [r2, r3, lsl #2]
 3796              		.p2align 2
 3797              	.L290:
 3798 0058 79000000 		.word	.L289+1
 3799 005c 97000000 		.word	.L291+1
 3800 0060 AF000000 		.word	.L292+1
 3801 0064 C7000000 		.word	.L293+1
 3802 0068 DF000000 		.word	.L294+1
 3803 006c DF000000 		.word	.L294+1
 3804 0070 DF000000 		.word	.L294+1
 3805 0074 DF000000 		.word	.L294+1
 3806              		.p2align 1
 3807              	.L289:
2508:..\..\..\..\..\..\uCOS-III\Source/os_task.c ****         case OS_TASK_STATE_RDY:
2509:..\..\..\..\..\..\uCOS-III\Source/os_task.c ****              OS_CRITICAL_ENTER_CPU_EXIT();
2510:..\..\..\..\..\..\uCOS-III\Source/os_task.c ****              p_tcb->TaskState  =  OS_TASK_STATE_SUSPENDED;
 3808              		.loc 1 2510 0
 3809 0078 7B68     		ldr	r3, [r7, #4]
 3810 007a 0422     		movs	r2, #4
 3811 007c 83F83620 		strb	r2, [r3, #54]
2511:..\..\..\..\..\..\uCOS-III\Source/os_task.c ****              p_tcb->SuspendCtr = (OS_NESTING_CTR)1;
 3812              		.loc 1 2511 0
 3813 0080 7B68     		ldr	r3, [r7, #4]
 3814 0082 0122     		movs	r2, #1
 3815 0084 83F88A20 		strb	r2, [r3, #138]
2512:..\..\..\..\..\..\uCOS-III\Source/os_task.c ****              OS_RdyListRemove(p_tcb);
 3816              		.loc 1 2512 0
 3817 0088 7868     		ldr	r0, [r7, #4]
 3818 008a FFF7FEFF 		bl	OS_RdyListRemove
2513:..\..\..\..\..\..\uCOS-III\Source/os_task.c ****              OS_CRITICAL_EXIT_NO_SCHED();
 3819              		.loc 1 2513 0
 3820 008e F868     		ldr	r0, [r7, #12]
 3821 0090 FFF7FEFF 		bl	CPU_SR_Restore
2514:..\..\..\..\..\..\uCOS-III\Source/os_task.c ****              break;
 3822              		.loc 1 2514 0
 3823 0094 37E0     		b	.L295
 3824              	.L291:
2515:..\..\..\..\..\..\uCOS-III\Source/os_task.c **** 
2516:..\..\..\..\..\..\uCOS-III\Source/os_task.c ****         case OS_TASK_STATE_DLY:
2517:..\..\..\..\..\..\uCOS-III\Source/os_task.c ****              p_tcb->TaskState  = OS_TASK_STATE_DLY_SUSPENDED;
 3825              		.loc 1 2517 0
 3826 0096 7B68     		ldr	r3, [r7, #4]
 3827 0098 0522     		movs	r2, #5
 3828 009a 83F83620 		strb	r2, [r3, #54]
2518:..\..\..\..\..\..\uCOS-III\Source/os_task.c ****              p_tcb->SuspendCtr = (OS_NESTING_CTR)1;
ARM GAS  C:\Users\Aluno\AppData\Local\Temp\ccHJiRYw.s 			page 113


 3829              		.loc 1 2518 0
 3830 009e 7B68     		ldr	r3, [r7, #4]
 3831 00a0 0122     		movs	r2, #1
 3832 00a2 83F88A20 		strb	r2, [r3, #138]
2519:..\..\..\..\..\..\uCOS-III\Source/os_task.c ****              CPU_CRITICAL_EXIT();
 3833              		.loc 1 2519 0
 3834 00a6 F868     		ldr	r0, [r7, #12]
 3835 00a8 FFF7FEFF 		bl	CPU_SR_Restore
2520:..\..\..\..\..\..\uCOS-III\Source/os_task.c ****              break;
 3836              		.loc 1 2520 0
 3837 00ac 2BE0     		b	.L295
 3838              	.L292:
2521:..\..\..\..\..\..\uCOS-III\Source/os_task.c **** 
2522:..\..\..\..\..\..\uCOS-III\Source/os_task.c ****         case OS_TASK_STATE_PEND:
2523:..\..\..\..\..\..\uCOS-III\Source/os_task.c ****              p_tcb->TaskState  = OS_TASK_STATE_PEND_SUSPENDED;
 3839              		.loc 1 2523 0
 3840 00ae 7B68     		ldr	r3, [r7, #4]
 3841 00b0 0622     		movs	r2, #6
 3842 00b2 83F83620 		strb	r2, [r3, #54]
2524:..\..\..\..\..\..\uCOS-III\Source/os_task.c ****              p_tcb->SuspendCtr = (OS_NESTING_CTR)1;
 3843              		.loc 1 2524 0
 3844 00b6 7B68     		ldr	r3, [r7, #4]
 3845 00b8 0122     		movs	r2, #1
 3846 00ba 83F88A20 		strb	r2, [r3, #138]
2525:..\..\..\..\..\..\uCOS-III\Source/os_task.c ****              CPU_CRITICAL_EXIT();
 3847              		.loc 1 2525 0
 3848 00be F868     		ldr	r0, [r7, #12]
 3849 00c0 FFF7FEFF 		bl	CPU_SR_Restore
2526:..\..\..\..\..\..\uCOS-III\Source/os_task.c ****              break;
 3850              		.loc 1 2526 0
 3851 00c4 1FE0     		b	.L295
 3852              	.L293:
2527:..\..\..\..\..\..\uCOS-III\Source/os_task.c **** 
2528:..\..\..\..\..\..\uCOS-III\Source/os_task.c ****         case OS_TASK_STATE_PEND_TIMEOUT:
2529:..\..\..\..\..\..\uCOS-III\Source/os_task.c ****              p_tcb->TaskState  = OS_TASK_STATE_PEND_TIMEOUT_SUSPENDED;
 3853              		.loc 1 2529 0
 3854 00c6 7B68     		ldr	r3, [r7, #4]
 3855 00c8 0722     		movs	r2, #7
 3856 00ca 83F83620 		strb	r2, [r3, #54]
2530:..\..\..\..\..\..\uCOS-III\Source/os_task.c ****              p_tcb->SuspendCtr = (OS_NESTING_CTR)1;
 3857              		.loc 1 2530 0
 3858 00ce 7B68     		ldr	r3, [r7, #4]
 3859 00d0 0122     		movs	r2, #1
 3860 00d2 83F88A20 		strb	r2, [r3, #138]
2531:..\..\..\..\..\..\uCOS-III\Source/os_task.c ****              CPU_CRITICAL_EXIT();
 3861              		.loc 1 2531 0
 3862 00d6 F868     		ldr	r0, [r7, #12]
 3863 00d8 FFF7FEFF 		bl	CPU_SR_Restore
2532:..\..\..\..\..\..\uCOS-III\Source/os_task.c ****              break;
 3864              		.loc 1 2532 0
 3865 00dc 13E0     		b	.L295
 3866              	.L294:
2533:..\..\..\..\..\..\uCOS-III\Source/os_task.c **** 
2534:..\..\..\..\..\..\uCOS-III\Source/os_task.c ****         case OS_TASK_STATE_SUSPENDED:
2535:..\..\..\..\..\..\uCOS-III\Source/os_task.c ****         case OS_TASK_STATE_DLY_SUSPENDED:
2536:..\..\..\..\..\..\uCOS-III\Source/os_task.c ****         case OS_TASK_STATE_PEND_SUSPENDED:
2537:..\..\..\..\..\..\uCOS-III\Source/os_task.c ****         case OS_TASK_STATE_PEND_TIMEOUT_SUSPENDED:
ARM GAS  C:\Users\Aluno\AppData\Local\Temp\ccHJiRYw.s 			page 114


2538:..\..\..\..\..\..\uCOS-III\Source/os_task.c ****              p_tcb->SuspendCtr++;
 3867              		.loc 1 2538 0
 3868 00de 7B68     		ldr	r3, [r7, #4]
 3869 00e0 93F88A30 		ldrb	r3, [r3, #138]	@ zero_extendqisi2
 3870 00e4 0133     		adds	r3, r3, #1
 3871 00e6 DAB2     		uxtb	r2, r3
 3872 00e8 7B68     		ldr	r3, [r7, #4]
 3873 00ea 83F88A20 		strb	r2, [r3, #138]
2539:..\..\..\..\..\..\uCOS-III\Source/os_task.c ****              CPU_CRITICAL_EXIT();
 3874              		.loc 1 2539 0
 3875 00ee F868     		ldr	r0, [r7, #12]
 3876 00f0 FFF7FEFF 		bl	CPU_SR_Restore
2540:..\..\..\..\..\..\uCOS-III\Source/os_task.c ****              break;
 3877              		.loc 1 2540 0
 3878 00f4 07E0     		b	.L295
 3879              	.L288:
2541:..\..\..\..\..\..\uCOS-III\Source/os_task.c **** 
2542:..\..\..\..\..\..\uCOS-III\Source/os_task.c ****         default:
2543:..\..\..\..\..\..\uCOS-III\Source/os_task.c ****              CPU_CRITICAL_EXIT();
 3880              		.loc 1 2543 0
 3881 00f6 F868     		ldr	r0, [r7, #12]
 3882 00f8 FFF7FEFF 		bl	CPU_SR_Restore
2544:..\..\..\..\..\..\uCOS-III\Source/os_task.c ****             *p_err = OS_ERR_STATE_INVALID;
 3883              		.loc 1 2544 0
 3884 00fc 3B68     		ldr	r3, [r7]
 3885 00fe 46F62D62 		movw	r2, #28205
 3886 0102 1A80     		strh	r2, [r3]	@ movhi
2545:..\..\..\..\..\..\uCOS-III\Source/os_task.c ****              return;
 3887              		.loc 1 2545 0
 3888 0104 01E0     		b	.L284
 3889              	.L295:
2546:..\..\..\..\..\..\uCOS-III\Source/os_task.c ****     }
2547:..\..\..\..\..\..\uCOS-III\Source/os_task.c **** 
2548:..\..\..\..\..\..\uCOS-III\Source/os_task.c ****     OSSched();
 3890              		.loc 1 2548 0
 3891 0106 FFF7FEFF 		bl	OSSched
 3892              	.L284:
2549:..\..\..\..\..\..\uCOS-III\Source/os_task.c **** }
 3893              		.loc 1 2549 0
 3894 010a 1037     		adds	r7, r7, #16
 3895              		.cfi_def_cfa_offset 8
 3896 010c BD46     		mov	sp, r7
 3897              		.cfi_def_cfa_register 13
 3898              		@ sp needed
 3899 010e 80BD     		pop	{r7, pc}
 3900              	.L297:
 3901              		.align	2
 3902              	.L296:
 3903 0110 00000000 		.word	OSTCBCurPtr
 3904 0114 00000000 		.word	OSSchedLockNestingCtr
 3905              		.cfi_endproc
 3906              	.LFE26:
 3907              		.size	OS_TaskSuspend, .-OS_TaskSuspend
 3908              		.text
 3909              	.Letext0:
 3910              		.file 2 "..\\..\\..\\..\\..\\..\\uC-CPU\\ARM-Cortex-M3\\GNU/cpu.h"
 3911              		.file 3 "..\\..\\..\\..\\..\\..\\uC-CPU/cpu_core.h"
ARM GAS  C:\Users\Aluno\AppData\Local\Temp\ccHJiRYw.s 			page 115


 3912              		.file 4 "..\\..\\..\\..\\..\\..\\uCOS-III\\Source/os_type.h"
 3913              		.file 5 "..\\..\\..\\..\\..\\..\\uCOS-III\\Source/os.h"
 3914              		.section	.debug_info,"",%progbits
 3915              	.Ldebug_info0:
 3916 0000 E0150000 		.4byte	0x15e0
 3917 0004 0400     		.2byte	0x4
 3918 0006 00000000 		.4byte	.Ldebug_abbrev0
 3919 000a 04       		.byte	0x4
 3920 000b 01       		.uleb128 0x1
 3921 000c 84020000 		.4byte	.LASF353
 3922 0010 0C       		.byte	0xc
 3923 0011 67110000 		.4byte	.LASF354
 3924 0015 A20A0000 		.4byte	.LASF355
 3925 0019 00000000 		.4byte	.Ldebug_ranges0+0
 3926 001d 00000000 		.4byte	0
 3927 0021 00000000 		.4byte	.Ldebug_line0
 3928 0025 02       		.uleb128 0x2
 3929 0026 7A070000 		.4byte	.LASF0
 3930 002a 02       		.byte	0x2
 3931 002b 76       		.byte	0x76
 3932 002c 30000000 		.4byte	0x30
 3933 0030 03       		.uleb128 0x3
 3934 0031 01       		.byte	0x1
 3935 0032 08       		.byte	0x8
 3936 0033 1C090000 		.4byte	.LASF2
 3937 0037 02       		.uleb128 0x2
 3938 0038 4D110000 		.4byte	.LASF1
 3939 003c 02       		.byte	0x2
 3940 003d 77       		.byte	0x77
 3941 003e 42000000 		.4byte	0x42
 3942 0042 03       		.uleb128 0x3
 3943 0043 01       		.byte	0x1
 3944 0044 08       		.byte	0x8
 3945 0045 00120000 		.4byte	.LASF3
 3946 0049 02       		.uleb128 0x2
 3947 004a 5B060000 		.4byte	.LASF4
 3948 004e 02       		.byte	0x2
 3949 004f 78       		.byte	0x78
 3950 0050 42000000 		.4byte	0x42
 3951 0054 03       		.uleb128 0x3
 3952 0055 01       		.byte	0x1
 3953 0056 06       		.byte	0x6
 3954 0057 5B130000 		.4byte	.LASF5
 3955 005b 02       		.uleb128 0x2
 3956 005c 870B0000 		.4byte	.LASF6
 3957 0060 02       		.byte	0x2
 3958 0061 7A       		.byte	0x7a
 3959 0062 66000000 		.4byte	0x66
 3960 0066 03       		.uleb128 0x3
 3961 0067 02       		.byte	0x2
 3962 0068 07       		.byte	0x7
 3963 0069 8E130000 		.4byte	.LASF7
 3964 006d 03       		.uleb128 0x3
 3965 006e 02       		.byte	0x2
 3966 006f 05       		.byte	0x5
 3967 0070 B60E0000 		.4byte	.LASF8
 3968 0074 02       		.uleb128 0x2
ARM GAS  C:\Users\Aluno\AppData\Local\Temp\ccHJiRYw.s 			page 116


 3969 0075 BF010000 		.4byte	.LASF9
 3970 0079 02       		.byte	0x2
 3971 007a 7C       		.byte	0x7c
 3972 007b 7F000000 		.4byte	0x7f
 3973 007f 03       		.uleb128 0x3
 3974 0080 04       		.byte	0x4
 3975 0081 07       		.byte	0x7
 3976 0082 54100000 		.4byte	.LASF10
 3977 0086 04       		.uleb128 0x4
 3978 0087 04       		.byte	0x4
 3979 0088 05       		.byte	0x5
 3980 0089 696E7400 		.ascii	"int\000"
 3981 008d 03       		.uleb128 0x3
 3982 008e 08       		.byte	0x8
 3983 008f 07       		.byte	0x7
 3984 0090 B9050000 		.4byte	.LASF11
 3985 0094 03       		.uleb128 0x3
 3986 0095 08       		.byte	0x8
 3987 0096 05       		.byte	0x5
 3988 0097 510A0000 		.4byte	.LASF12
 3989 009b 03       		.uleb128 0x3
 3990 009c 04       		.byte	0x4
 3991 009d 04       		.byte	0x4
 3992 009e FC040000 		.4byte	.LASF13
 3993 00a2 03       		.uleb128 0x3
 3994 00a3 08       		.byte	0x8
 3995 00a4 04       		.byte	0x4
 3996 00a5 35140000 		.4byte	.LASF14
 3997 00a9 05       		.uleb128 0x5
 3998 00aa 04       		.byte	0x4
 3999 00ab AF000000 		.4byte	0xaf
 4000 00af 06       		.uleb128 0x6
 4001 00b0 BA000000 		.4byte	0xba
 4002 00b4 07       		.uleb128 0x7
 4003 00b5 BA000000 		.4byte	0xba
 4004 00b9 00       		.byte	0
 4005 00ba 08       		.uleb128 0x8
 4006 00bb 04       		.byte	0x4
 4007 00bc 02       		.uleb128 0x2
 4008 00bd F9100000 		.4byte	.LASF15
 4009 00c1 02       		.byte	0x2
 4010 00c2 B5       		.byte	0xb5
 4011 00c3 74000000 		.4byte	0x74
 4012 00c7 02       		.uleb128 0x2
 4013 00c8 CC150000 		.4byte	.LASF16
 4014 00cc 02       		.byte	0x2
 4015 00cd D9       		.byte	0xd9
 4016 00ce 74000000 		.4byte	0x74
 4017 00d2 02       		.uleb128 0x2
 4018 00d3 9A070000 		.4byte	.LASF17
 4019 00d7 02       		.byte	0x2
 4020 00d8 DA       		.byte	0xda
 4021 00d9 BC000000 		.4byte	0xbc
 4022 00dd 09       		.uleb128 0x9
 4023 00de 5E090000 		.4byte	.LASF18
 4024 00e2 02       		.byte	0x2
 4025 00e3 2901     		.2byte	0x129
ARM GAS  C:\Users\Aluno\AppData\Local\Temp\ccHJiRYw.s 			page 117


 4026 00e5 74000000 		.4byte	0x74
 4027 00e9 02       		.uleb128 0x2
 4028 00ea 390C0000 		.4byte	.LASF19
 4029 00ee 03       		.byte	0x3
 4030 00ef C4       		.byte	0xc4
 4031 00f0 74000000 		.4byte	0x74
 4032 00f4 02       		.uleb128 0x2
 4033 00f5 4A0A0000 		.4byte	.LASF20
 4034 00f9 03       		.byte	0x3
 4035 00fa C7       		.byte	0xc7
 4036 00fb E9000000 		.4byte	0xe9
 4037 00ff 02       		.uleb128 0x2
 4038 0100 95010000 		.4byte	.LASF21
 4039 0104 04       		.byte	0x4
 4040 0105 30       		.byte	0x30
 4041 0106 5B000000 		.4byte	0x5b
 4042 010a 02       		.uleb128 0x2
 4043 010b 2F000000 		.4byte	.LASF22
 4044 010f 04       		.byte	0x4
 4045 0110 34       		.byte	0x34
 4046 0111 74000000 		.4byte	0x74
 4047 0115 02       		.uleb128 0x2
 4048 0116 A4110000 		.4byte	.LASF23
 4049 011a 04       		.byte	0x4
 4050 011b 36       		.byte	0x36
 4051 011c 74000000 		.4byte	0x74
 4052 0120 02       		.uleb128 0x2
 4053 0121 A1130000 		.4byte	.LASF24
 4054 0125 04       		.byte	0x4
 4055 0126 38       		.byte	0x38
 4056 0127 74000000 		.4byte	0x74
 4057 012b 02       		.uleb128 0x2
 4058 012c AE070000 		.4byte	.LASF25
 4059 0130 04       		.byte	0x4
 4060 0131 3F       		.byte	0x3f
 4061 0132 5B000000 		.4byte	0x5b
 4062 0136 02       		.uleb128 0x2
 4063 0137 3F070000 		.4byte	.LASF26
 4064 013b 04       		.byte	0x4
 4065 013c 40       		.byte	0x40
 4066 013d 5B000000 		.4byte	0x5b
 4067 0141 02       		.uleb128 0x2
 4068 0142 800F0000 		.4byte	.LASF27
 4069 0146 04       		.byte	0x4
 4070 0147 42       		.byte	0x42
 4071 0148 49000000 		.4byte	0x49
 4072 014c 02       		.uleb128 0x2
 4073 014d 79020000 		.4byte	.LASF28
 4074 0151 04       		.byte	0x4
 4075 0152 44       		.byte	0x44
 4076 0153 5B000000 		.4byte	0x5b
 4077 0157 02       		.uleb128 0x2
 4078 0158 21090000 		.4byte	.LASF29
 4079 015c 04       		.byte	0x4
 4080 015d 45       		.byte	0x45
 4081 015e 74000000 		.4byte	0x74
 4082 0162 02       		.uleb128 0x2
ARM GAS  C:\Users\Aluno\AppData\Local\Temp\ccHJiRYw.s 			page 118


 4083 0163 54120000 		.4byte	.LASF30
 4084 0167 04       		.byte	0x4
 4085 0168 47       		.byte	0x47
 4086 0169 5B000000 		.4byte	0x5b
 4087 016d 02       		.uleb128 0x2
 4088 016e E6040000 		.4byte	.LASF31
 4089 0172 04       		.byte	0x4
 4090 0173 49       		.byte	0x49
 4091 0174 49000000 		.4byte	0x49
 4092 0178 02       		.uleb128 0x2
 4093 0179 C9060000 		.4byte	.LASF32
 4094 017d 04       		.byte	0x4
 4095 017e 4F       		.byte	0x4f
 4096 017f 74000000 		.4byte	0x74
 4097 0183 02       		.uleb128 0x2
 4098 0184 FA130000 		.4byte	.LASF33
 4099 0188 04       		.byte	0x4
 4100 0189 50       		.byte	0x50
 4101 018a 49000000 		.4byte	0x49
 4102 018e 02       		.uleb128 0x2
 4103 018f 740C0000 		.4byte	.LASF34
 4104 0193 04       		.byte	0x4
 4105 0194 52       		.byte	0x52
 4106 0195 74000000 		.4byte	0x74
 4107 0199 02       		.uleb128 0x2
 4108 019a 43120000 		.4byte	.LASF35
 4109 019e 04       		.byte	0x4
 4110 019f 54       		.byte	0x54
 4111 01a0 49000000 		.4byte	0x49
 4112 01a4 02       		.uleb128 0x2
 4113 01a5 EA060000 		.4byte	.LASF36
 4114 01a9 04       		.byte	0x4
 4115 01aa 56       		.byte	0x56
 4116 01ab 49000000 		.4byte	0x49
 4117 01af 02       		.uleb128 0x2
 4118 01b0 F00B0000 		.4byte	.LASF37
 4119 01b4 04       		.byte	0x4
 4120 01b5 58       		.byte	0x58
 4121 01b6 74000000 		.4byte	0x74
 4122 01ba 0A       		.uleb128 0xa
 4123 01bb 5A010000 		.4byte	.LASF356
 4124 01bf 02       		.byte	0x2
 4125 01c0 66000000 		.4byte	0x66
 4126 01c4 05       		.byte	0x5
 4127 01c5 A501     		.2byte	0x1a5
 4128 01c7 32060000 		.4byte	0x632
 4129 01cb 0B       		.uleb128 0xb
 4130 01cc D9130000 		.4byte	.LASF38
 4131 01d0 00       		.byte	0
 4132 01d1 0C       		.uleb128 0xc
 4133 01d2 68000000 		.4byte	.LASF39
 4134 01d6 1027     		.2byte	0x2710
 4135 01d8 0C       		.uleb128 0xc
 4136 01d9 8C030000 		.4byte	.LASF40
 4137 01dd 1127     		.2byte	0x2711
 4138 01df 0C       		.uleb128 0xc
 4139 01e0 71000000 		.4byte	.LASF41
ARM GAS  C:\Users\Aluno\AppData\Local\Temp\ccHJiRYw.s 			page 119


 4140 01e4 F82A     		.2byte	0x2af8
 4141 01e6 0C       		.uleb128 0xc
 4142 01e7 7A000000 		.4byte	.LASF42
 4143 01eb E02E     		.2byte	0x2ee0
 4144 01ed 0C       		.uleb128 0xc
 4145 01ee 83010000 		.4byte	.LASF43
 4146 01f2 E12E     		.2byte	0x2ee1
 4147 01f4 0C       		.uleb128 0xc
 4148 01f5 83000000 		.4byte	.LASF44
 4149 01f9 C832     		.2byte	0x32c8
 4150 01fb 0C       		.uleb128 0xc
 4151 01fc F8080000 		.4byte	.LASF45
 4152 0200 C932     		.2byte	0x32c9
 4153 0202 0C       		.uleb128 0xc
 4154 0203 8C000000 		.4byte	.LASF46
 4155 0207 B036     		.2byte	0x36b0
 4156 0209 0C       		.uleb128 0xc
 4157 020a 95000000 		.4byte	.LASF47
 4158 020e 983A     		.2byte	0x3a98
 4159 0210 0C       		.uleb128 0xc
 4160 0211 7A130000 		.4byte	.LASF48
 4161 0215 993A     		.2byte	0x3a99
 4162 0217 0C       		.uleb128 0xc
 4163 0218 4A080000 		.4byte	.LASF49
 4164 021c FD3A     		.2byte	0x3afd
 4165 021e 0C       		.uleb128 0xc
 4166 021f A2100000 		.4byte	.LASF50
 4167 0223 FE3A     		.2byte	0x3afe
 4168 0225 0C       		.uleb128 0xc
 4169 0226 5F0A0000 		.4byte	.LASF51
 4170 022a FF3A     		.2byte	0x3aff
 4171 022c 0C       		.uleb128 0xc
 4172 022d 18140000 		.4byte	.LASF52
 4173 0231 003B     		.2byte	0x3b00
 4174 0233 0C       		.uleb128 0xc
 4175 0234 9E000000 		.4byte	.LASF53
 4176 0238 803E     		.2byte	0x3e80
 4177 023a 0C       		.uleb128 0xc
 4178 023b A7000000 		.4byte	.LASF54
 4179 023f 6842     		.2byte	0x4268
 4180 0241 0C       		.uleb128 0xc
 4181 0242 B0000000 		.4byte	.LASF55
 4182 0246 5046     		.2byte	0x4650
 4183 0248 0C       		.uleb128 0xc
 4184 0249 7A040000 		.4byte	.LASF56
 4185 024d 5146     		.2byte	0x4651
 4186 024f 0C       		.uleb128 0xc
 4187 0250 59030000 		.4byte	.LASF57
 4188 0254 5246     		.2byte	0x4652
 4189 0256 0C       		.uleb128 0xc
 4190 0257 39040000 		.4byte	.LASF58
 4191 025b 5346     		.2byte	0x4653
 4192 025d 0C       		.uleb128 0xc
 4193 025e 71010000 		.4byte	.LASF59
 4194 0262 5446     		.2byte	0x4654
 4195 0264 0C       		.uleb128 0xc
 4196 0265 00130000 		.4byte	.LASF60
ARM GAS  C:\Users\Aluno\AppData\Local\Temp\ccHJiRYw.s 			page 120


 4197 0269 5546     		.2byte	0x4655
 4198 026b 0C       		.uleb128 0xc
 4199 026c 590D0000 		.4byte	.LASF61
 4200 0270 5646     		.2byte	0x4656
 4201 0272 0C       		.uleb128 0xc
 4202 0273 B9000000 		.4byte	.LASF62
 4203 0277 384A     		.2byte	0x4a38
 4204 0279 0C       		.uleb128 0xc
 4205 027a C2000000 		.4byte	.LASF63
 4206 027e 204E     		.2byte	0x4e20
 4207 0280 0C       		.uleb128 0xc
 4208 0281 CB000000 		.4byte	.LASF64
 4209 0285 0852     		.2byte	0x5208
 4210 0287 0C       		.uleb128 0xc
 4211 0288 770E0000 		.4byte	.LASF65
 4212 028c 0952     		.2byte	0x5209
 4213 028e 0C       		.uleb128 0xc
 4214 028f D4000000 		.4byte	.LASF66
 4215 0293 F055     		.2byte	0x55f0
 4216 0295 0C       		.uleb128 0xc
 4217 0296 67120000 		.4byte	.LASF67
 4218 029a B956     		.2byte	0x56b9
 4219 029c 0C       		.uleb128 0xc
 4220 029d F80B0000 		.4byte	.LASF68
 4221 02a1 BA56     		.2byte	0x56ba
 4222 02a3 0C       		.uleb128 0xc
 4223 02a4 4E0E0000 		.4byte	.LASF69
 4224 02a8 BB56     		.2byte	0x56bb
 4225 02aa 0C       		.uleb128 0xc
 4226 02ab 63080000 		.4byte	.LASF70
 4227 02af BC56     		.2byte	0x56bc
 4228 02b1 0C       		.uleb128 0xc
 4229 02b2 AE0B0000 		.4byte	.LASF71
 4230 02b6 BD56     		.2byte	0x56bd
 4231 02b8 0C       		.uleb128 0xc
 4232 02b9 350E0000 		.4byte	.LASF72
 4233 02bd BE56     		.2byte	0x56be
 4234 02bf 0C       		.uleb128 0xc
 4235 02c0 200C0000 		.4byte	.LASF73
 4236 02c4 BF56     		.2byte	0x56bf
 4237 02c6 0C       		.uleb128 0xc
 4238 02c7 57050000 		.4byte	.LASF74
 4239 02cb C056     		.2byte	0x56c0
 4240 02cd 0C       		.uleb128 0xc
 4241 02ce C2140000 		.4byte	.LASF75
 4242 02d2 C156     		.2byte	0x56c1
 4243 02d4 0C       		.uleb128 0xc
 4244 02d5 B4150000 		.4byte	.LASF76
 4245 02d9 C256     		.2byte	0x56c2
 4246 02db 0C       		.uleb128 0xc
 4247 02dc CB0E0000 		.4byte	.LASF77
 4248 02e0 1D57     		.2byte	0x571d
 4249 02e2 0C       		.uleb128 0xc
 4250 02e3 670F0000 		.4byte	.LASF78
 4251 02e7 1E57     		.2byte	0x571e
 4252 02e9 0C       		.uleb128 0xc
 4253 02ea 28070000 		.4byte	.LASF79
ARM GAS  C:\Users\Aluno\AppData\Local\Temp\ccHJiRYw.s 			page 121


 4254 02ee 8157     		.2byte	0x5781
 4255 02f0 0C       		.uleb128 0xc
 4256 02f1 69100000 		.4byte	.LASF80
 4257 02f5 8257     		.2byte	0x5782
 4258 02f7 0C       		.uleb128 0xc
 4259 02f8 B6030000 		.4byte	.LASF81
 4260 02fc 8357     		.2byte	0x5783
 4261 02fe 0C       		.uleb128 0xc
 4262 02ff DD000000 		.4byte	.LASF82
 4263 0303 D859     		.2byte	0x59d8
 4264 0305 0C       		.uleb128 0xc
 4265 0306 D0060000 		.4byte	.LASF83
 4266 030a D959     		.2byte	0x59d9
 4267 030c 0C       		.uleb128 0xc
 4268 030d 31050000 		.4byte	.LASF84
 4269 0311 DA59     		.2byte	0x59da
 4270 0313 0C       		.uleb128 0xc
 4271 0314 E6000000 		.4byte	.LASF85
 4272 0318 C05D     		.2byte	0x5dc0
 4273 031a 0C       		.uleb128 0xc
 4274 031b FE030000 		.4byte	.LASF86
 4275 031f C15D     		.2byte	0x5dc1
 4276 0321 0C       		.uleb128 0xc
 4277 0322 3B0A0000 		.4byte	.LASF87
 4278 0326 C25D     		.2byte	0x5dc2
 4279 0328 0C       		.uleb128 0xc
 4280 0329 C60B0000 		.4byte	.LASF88
 4281 032d C35D     		.2byte	0x5dc3
 4282 032f 0C       		.uleb128 0xc
 4283 0330 D40F0000 		.4byte	.LASF89
 4284 0334 C45D     		.2byte	0x5dc4
 4285 0336 0C       		.uleb128 0xc
 4286 0337 4B090000 		.4byte	.LASF90
 4287 033b 255E     		.2byte	0x5e25
 4288 033d 0C       		.uleb128 0xc
 4289 033e E10D0000 		.4byte	.LASF91
 4290 0342 895E     		.2byte	0x5e89
 4291 0344 0C       		.uleb128 0xc
 4292 0345 B9070000 		.4byte	.LASF92
 4293 0349 8A5E     		.2byte	0x5e8a
 4294 034b 0C       		.uleb128 0xc
 4295 034c EF000000 		.4byte	.LASF93
 4296 0350 A861     		.2byte	0x61a8
 4297 0352 0C       		.uleb128 0xc
 4298 0353 3C140000 		.4byte	.LASF94
 4299 0357 A961     		.2byte	0x61a9
 4300 0359 0C       		.uleb128 0xc
 4301 035a E3100000 		.4byte	.LASF95
 4302 035e AA61     		.2byte	0x61aa
 4303 0360 0C       		.uleb128 0xc
 4304 0361 31100000 		.4byte	.LASF96
 4305 0365 AB61     		.2byte	0x61ab
 4306 0367 0C       		.uleb128 0xc
 4307 0368 700B0000 		.4byte	.LASF97
 4308 036c AC61     		.2byte	0x61ac
 4309 036e 0C       		.uleb128 0xc
 4310 036f 7B140000 		.4byte	.LASF98
ARM GAS  C:\Users\Aluno\AppData\Local\Temp\ccHJiRYw.s 			page 122


 4311 0373 AD61     		.2byte	0x61ad
 4312 0375 0C       		.uleb128 0xc
 4313 0376 9C120000 		.4byte	.LASF99
 4314 037a AE61     		.2byte	0x61ae
 4315 037c 0C       		.uleb128 0xc
 4316 037d 66020000 		.4byte	.LASF100
 4317 0381 AF61     		.2byte	0x61af
 4318 0383 0C       		.uleb128 0xc
 4319 0384 11020000 		.4byte	.LASF101
 4320 0388 B061     		.2byte	0x61b0
 4321 038a 0C       		.uleb128 0xc
 4322 038b 1C050000 		.4byte	.LASF102
 4323 038f 0D62     		.2byte	0x620d
 4324 0391 0C       		.uleb128 0xc
 4325 0392 02110000 		.4byte	.LASF103
 4326 0396 0E62     		.2byte	0x620e
 4327 0398 0C       		.uleb128 0xc
 4328 0399 99150000 		.4byte	.LASF104
 4329 039d 7162     		.2byte	0x6271
 4330 039f 0C       		.uleb128 0xc
 4331 03a0 6F140000 		.4byte	.LASF105
 4332 03a4 7262     		.2byte	0x6272
 4333 03a6 0C       		.uleb128 0xc
 4334 03a7 14000000 		.4byte	.LASF106
 4335 03ab 7362     		.2byte	0x6273
 4336 03ad 0C       		.uleb128 0xc
 4337 03ae B10D0000 		.4byte	.LASF107
 4338 03b2 D562     		.2byte	0x62d5
 4339 03b4 0C       		.uleb128 0xc
 4340 03b5 F8000000 		.4byte	.LASF108
 4341 03b9 9065     		.2byte	0x6590
 4342 03bb 0C       		.uleb128 0xc
 4343 03bc E1120000 		.4byte	.LASF109
 4344 03c0 9165     		.2byte	0x6591
 4345 03c2 0C       		.uleb128 0xc
 4346 03c3 99060000 		.4byte	.LASF110
 4347 03c7 9265     		.2byte	0x6592
 4348 03c9 0C       		.uleb128 0xc
 4349 03ca 07090000 		.4byte	.LASF111
 4350 03ce 9365     		.2byte	0x6593
 4351 03d0 0C       		.uleb128 0xc
 4352 03d1 940A0000 		.4byte	.LASF112
 4353 03d5 9465     		.2byte	0x6594
 4354 03d7 0C       		.uleb128 0xc
 4355 03d8 01010000 		.4byte	.LASF113
 4356 03dc 7869     		.2byte	0x6978
 4357 03de 0C       		.uleb128 0xc
 4358 03df DA0B0000 		.4byte	.LASF114
 4359 03e3 7969     		.2byte	0x6979
 4360 03e5 0C       		.uleb128 0xc
 4361 03e6 200E0000 		.4byte	.LASF115
 4362 03ea 7A69     		.2byte	0x697a
 4363 03ec 0C       		.uleb128 0xc
 4364 03ed 920B0000 		.4byte	.LASF116
 4365 03f1 7B69     		.2byte	0x697b
 4366 03f3 0C       		.uleb128 0xc
 4367 03f4 0A010000 		.4byte	.LASF117
ARM GAS  C:\Users\Aluno\AppData\Local\Temp\ccHJiRYw.s 			page 123


 4368 03f8 606D     		.2byte	0x6d60
 4369 03fa 0C       		.uleb128 0xc
 4370 03fb 71090000 		.4byte	.LASF118
 4371 03ff 616D     		.2byte	0x6d61
 4372 0401 0C       		.uleb128 0xc
 4373 0402 E2080000 		.4byte	.LASF119
 4374 0406 626D     		.2byte	0x6d62
 4375 0408 0C       		.uleb128 0xc
 4376 0409 04140000 		.4byte	.LASF120
 4377 040d 636D     		.2byte	0x6d63
 4378 040f 0C       		.uleb128 0xc
 4379 0410 57140000 		.4byte	.LASF121
 4380 0414 646D     		.2byte	0x6d64
 4381 0416 0C       		.uleb128 0xc
 4382 0417 060F0000 		.4byte	.LASF122
 4383 041b 656D     		.2byte	0x6d65
 4384 041d 0C       		.uleb128 0xc
 4385 041e 0E150000 		.4byte	.LASF123
 4386 0422 C56D     		.2byte	0x6dc5
 4387 0424 0C       		.uleb128 0xc
 4388 0425 F0140000 		.4byte	.LASF124
 4389 0429 C66D     		.2byte	0x6dc6
 4390 042b 0C       		.uleb128 0xc
 4391 042c 45020000 		.4byte	.LASF125
 4392 0430 296E     		.2byte	0x6e29
 4393 0432 0C       		.uleb128 0xc
 4394 0433 BC090000 		.4byte	.LASF126
 4395 0437 2A6E     		.2byte	0x6e2a
 4396 0439 0C       		.uleb128 0xc
 4397 043a 25080000 		.4byte	.LASF127
 4398 043e 2B6E     		.2byte	0x6e2b
 4399 0440 0C       		.uleb128 0xc
 4400 0441 85100000 		.4byte	.LASF128
 4401 0445 2C6E     		.2byte	0x6e2c
 4402 0447 0C       		.uleb128 0xc
 4403 0448 C40D0000 		.4byte	.LASF129
 4404 044c 2D6E     		.2byte	0x6e2d
 4405 044e 0C       		.uleb128 0xc
 4406 044f 7D120000 		.4byte	.LASF130
 4407 0453 2E6E     		.2byte	0x6e2e
 4408 0455 0C       		.uleb128 0xc
 4409 0456 D6010000 		.4byte	.LASF131
 4410 045a 2F6E     		.2byte	0x6e2f
 4411 045c 0C       		.uleb128 0xc
 4412 045d CA110000 		.4byte	.LASF132
 4413 0461 306E     		.2byte	0x6e30
 4414 0463 0C       		.uleb128 0xc
 4415 0464 26110000 		.4byte	.LASF133
 4416 0468 316E     		.2byte	0x6e31
 4417 046a 0C       		.uleb128 0xc
 4418 046b 13010000 		.4byte	.LASF134
 4419 046f 4871     		.2byte	0x7148
 4420 0471 0C       		.uleb128 0xc
 4421 0472 29020000 		.4byte	.LASF135
 4422 0476 4971     		.2byte	0x7149
 4423 0478 0C       		.uleb128 0xc
 4424 0479 83070000 		.4byte	.LASF136
ARM GAS  C:\Users\Aluno\AppData\Local\Temp\ccHJiRYw.s 			page 124


 4425 047d 4A71     		.2byte	0x714a
 4426 047f 0C       		.uleb128 0xc
 4427 0480 35130000 		.4byte	.LASF137
 4428 0484 4B71     		.2byte	0x714b
 4429 0486 0C       		.uleb128 0xc
 4430 0487 1D150000 		.4byte	.LASF138
 4431 048b 4C71     		.2byte	0x714c
 4432 048d 0C       		.uleb128 0xc
 4433 048e 2C060000 		.4byte	.LASF139
 4434 0492 4D71     		.2byte	0x714d
 4435 0494 0C       		.uleb128 0xc
 4436 0495 910D0000 		.4byte	.LASF140
 4437 0499 4E71     		.2byte	0x714e
 4438 049b 0C       		.uleb128 0xc
 4439 049c 050D0000 		.4byte	.LASF141
 4440 04a0 4F71     		.2byte	0x714f
 4441 04a2 0C       		.uleb128 0xc
 4442 04a3 080C0000 		.4byte	.LASF142
 4443 04a7 5071     		.2byte	0x7150
 4444 04a9 0C       		.uleb128 0xc
 4445 04aa 3A030000 		.4byte	.LASF143
 4446 04ae 5171     		.2byte	0x7151
 4447 04b0 0C       		.uleb128 0xc
 4448 04b1 BE0C0000 		.4byte	.LASF144
 4449 04b5 5271     		.2byte	0x7152
 4450 04b7 0C       		.uleb128 0xc
 4451 04b8 20030000 		.4byte	.LASF145
 4452 04bc 5371     		.2byte	0x7153
 4453 04be 0C       		.uleb128 0xc
 4454 04bf 0E120000 		.4byte	.LASF146
 4455 04c3 5471     		.2byte	0x7154
 4456 04c5 0C       		.uleb128 0xc
 4457 04c6 FA010000 		.4byte	.LASF147
 4458 04ca 5571     		.2byte	0x7155
 4459 04cc 0C       		.uleb128 0xc
 4460 04cd C3040000 		.4byte	.LASF148
 4461 04d1 5671     		.2byte	0x7156
 4462 04d3 0C       		.uleb128 0xc
 4463 04d4 A70F0000 		.4byte	.LASF149
 4464 04d8 5771     		.2byte	0x7157
 4465 04da 0C       		.uleb128 0xc
 4466 04db D0050000 		.4byte	.LASF150
 4467 04df 5871     		.2byte	0x7158
 4468 04e1 0C       		.uleb128 0xc
 4469 04e2 8F0E0000 		.4byte	.LASF151
 4470 04e6 5971     		.2byte	0x7159
 4471 04e8 0C       		.uleb128 0xc
 4472 04e9 DA140000 		.4byte	.LASF152
 4473 04ed 5A71     		.2byte	0x715a
 4474 04ef 0C       		.uleb128 0xc
 4475 04f0 20040000 		.4byte	.LASF153
 4476 04f4 5B71     		.2byte	0x715b
 4477 04f6 0C       		.uleb128 0xc
 4478 04f7 0C060000 		.4byte	.LASF154
 4479 04fb 5C71     		.2byte	0x715c
 4480 04fd 0C       		.uleb128 0xc
 4481 04fe 9E030000 		.4byte	.LASF155
ARM GAS  C:\Users\Aluno\AppData\Local\Temp\ccHJiRYw.s 			page 125


 4482 0502 5D71     		.2byte	0x715d
 4483 0504 0C       		.uleb128 0xc
 4484 0505 360D0000 		.4byte	.LASF156
 4485 0509 5E71     		.2byte	0x715e
 4486 050b 0C       		.uleb128 0xc
 4487 050c 78030000 		.4byte	.LASF157
 4488 0510 5F71     		.2byte	0x715f
 4489 0512 0C       		.uleb128 0xc
 4490 0513 6D060000 		.4byte	.LASF158
 4491 0517 AD71     		.2byte	0x71ad
 4492 0519 0C       		.uleb128 0xc
 4493 051a A3050000 		.4byte	.LASF159
 4494 051e C071     		.2byte	0x71c0
 4495 0520 0C       		.uleb128 0xc
 4496 0521 770D0000 		.4byte	.LASF160
 4497 0525 C171     		.2byte	0x71c1
 4498 0527 0C       		.uleb128 0xc
 4499 0528 C0130000 		.4byte	.LASF161
 4500 052c C271     		.2byte	0x71c2
 4501 052e 0C       		.uleb128 0xc
 4502 052f 39090000 		.4byte	.LASF162
 4503 0533 C371     		.2byte	0x71c3
 4504 0535 0C       		.uleb128 0xc
 4505 0536 0B070000 		.4byte	.LASF163
 4506 053a C471     		.2byte	0x71c4
 4507 053c 0C       		.uleb128 0xc
 4508 053d 6C150000 		.4byte	.LASF164
 4509 0541 1172     		.2byte	0x7211
 4510 0543 0C       		.uleb128 0xc
 4511 0544 4F0F0000 		.4byte	.LASF165
 4512 0548 1272     		.2byte	0x7212
 4513 054a 0C       		.uleb128 0xc
 4514 054b A2010000 		.4byte	.LASF166
 4515 054f 1372     		.2byte	0x7213
 4516 0551 0C       		.uleb128 0xc
 4517 0552 9B0C0000 		.4byte	.LASF167
 4518 0556 1472     		.2byte	0x7214
 4519 0558 0C       		.uleb128 0xc
 4520 0559 12110000 		.4byte	.LASF168
 4521 055d 7572     		.2byte	0x7275
 4522 055f 0C       		.uleb128 0xc
 4523 0560 51150000 		.4byte	.LASF169
 4524 0564 7672     		.2byte	0x7276
 4525 0566 0C       		.uleb128 0xc
 4526 0567 32150000 		.4byte	.LASF170
 4527 056b 7772     		.2byte	0x7277
 4528 056d 0C       		.uleb128 0xc
 4529 056e 4B070000 		.4byte	.LASF171
 4530 0572 7872     		.2byte	0x7278
 4531 0574 0C       		.uleb128 0xc
 4532 0575 4C000000 		.4byte	.LASF172
 4533 0579 7972     		.2byte	0x7279
 4534 057b 0C       		.uleb128 0xc
 4535 057c 19130000 		.4byte	.LASF173
 4536 0580 7A72     		.2byte	0x727a
 4537 0582 0C       		.uleb128 0xc
 4538 0583 A8060000 		.4byte	.LASF174
ARM GAS  C:\Users\Aluno\AppData\Local\Temp\ccHJiRYw.s 			page 126


 4539 0587 7B72     		.2byte	0x727b
 4540 0589 0C       		.uleb128 0xc
 4541 058a D5090000 		.4byte	.LASF175
 4542 058e 7C72     		.2byte	0x727c
 4543 0590 0C       		.uleb128 0xc
 4544 0591 0C0E0000 		.4byte	.LASF176
 4545 0595 7D72     		.2byte	0x727d
 4546 0597 0C       		.uleb128 0xc
 4547 0598 EE070000 		.4byte	.LASF177
 4548 059c 7E72     		.2byte	0x727e
 4549 059e 0C       		.uleb128 0xc
 4550 059f 34120000 		.4byte	.LASF178
 4551 05a3 D972     		.2byte	0x72d9
 4552 05a5 0C       		.uleb128 0xc
 4553 05a6 8F050000 		.4byte	.LASF179
 4554 05aa 3D73     		.2byte	0x733d
 4555 05ac 0C       		.uleb128 0xc
 4556 05ad B6080000 		.4byte	.LASF180
 4557 05b1 3E73     		.2byte	0x733e
 4558 05b3 0C       		.uleb128 0xc
 4559 05b4 A3040000 		.4byte	.LASF181
 4560 05b8 3F73     		.2byte	0x733f
 4561 05ba 0C       		.uleb128 0xc
 4562 05bb 40010000 		.4byte	.LASF182
 4563 05bf 4073     		.2byte	0x7340
 4564 05c1 0C       		.uleb128 0xc
 4565 05c2 CB030000 		.4byte	.LASF183
 4566 05c6 4173     		.2byte	0x7341
 4567 05c8 0C       		.uleb128 0xc
 4568 05c9 EC050000 		.4byte	.LASF184
 4569 05cd 4273     		.2byte	0x7342
 4570 05cf 0C       		.uleb128 0xc
 4571 05d0 3D000000 		.4byte	.LASF185
 4572 05d4 4373     		.2byte	0x7343
 4573 05d6 0C       		.uleb128 0xc
 4574 05d7 78050000 		.4byte	.LASF186
 4575 05db 4473     		.2byte	0x7344
 4576 05dd 0C       		.uleb128 0xc
 4577 05de 65070000 		.4byte	.LASF187
 4578 05e2 4573     		.2byte	0x7345
 4579 05e4 0C       		.uleb128 0xc
 4580 05e5 190D0000 		.4byte	.LASF188
 4581 05e9 4673     		.2byte	0x7346
 4582 05eb 0C       		.uleb128 0xc
 4583 05ec 44060000 		.4byte	.LASF189
 4584 05f0 4773     		.2byte	0x7347
 4585 05f2 0C       		.uleb128 0xc
 4586 05f3 7F0C0000 		.4byte	.LASF190
 4587 05f7 4873     		.2byte	0x7348
 4588 05f9 0C       		.uleb128 0xc
 4589 05fa ED110000 		.4byte	.LASF191
 4590 05fe 4973     		.2byte	0x7349
 4591 0600 0C       		.uleb128 0xc
 4592 0601 1C010000 		.4byte	.LASF192
 4593 0605 3075     		.2byte	0x7530
 4594 0607 0C       		.uleb128 0xc
 4595 0608 25010000 		.4byte	.LASF193
ARM GAS  C:\Users\Aluno\AppData\Local\Temp\ccHJiRYw.s 			page 127


 4596 060c 1879     		.2byte	0x7918
 4597 060e 0C       		.uleb128 0xc
 4598 060f 2E010000 		.4byte	.LASF194
 4599 0613 007D     		.2byte	0x7d00
 4600 0615 0C       		.uleb128 0xc
 4601 0616 37010000 		.4byte	.LASF195
 4602 061a E880     		.2byte	0x80e8
 4603 061c 0C       		.uleb128 0xc
 4604 061d 93120000 		.4byte	.LASF196
 4605 0621 D084     		.2byte	0x84d0
 4606 0623 0C       		.uleb128 0xc
 4607 0624 2A0A0000 		.4byte	.LASF197
 4608 0628 D184     		.2byte	0x84d1
 4609 062a 0C       		.uleb128 0xc
 4610 062b AC120000 		.4byte	.LASF198
 4611 062f B888     		.2byte	0x88b8
 4612 0631 00       		.byte	0
 4613 0632 09       		.uleb128 0x9
 4614 0633 28000000 		.4byte	.LASF199
 4615 0637 05       		.byte	0x5
 4616 0638 7202     		.2byte	0x272
 4617 063a BA010000 		.4byte	0x1ba
 4618 063e 09       		.uleb128 0x9
 4619 063f A8080000 		.4byte	.LASF200
 4620 0643 05       		.byte	0x5
 4621 0644 8202     		.2byte	0x282
 4622 0646 4A060000 		.4byte	0x64a
 4623 064a 0D       		.uleb128 0xd
 4624 064b 66060000 		.4byte	.LASF206
 4625 064f 10       		.byte	0x10
 4626 0650 05       		.byte	0x5
 4627 0651 4003     		.2byte	0x340
 4628 0653 8C060000 		.4byte	0x68c
 4629 0657 0E       		.uleb128 0xe
 4630 0658 D90D0000 		.4byte	.LASF201
 4631 065c 05       		.byte	0x5
 4632 065d 4103     		.2byte	0x341
 4633 065f 270B0000 		.4byte	0xb27
 4634 0663 00       		.byte	0
 4635 0664 0E       		.uleb128 0xe
 4636 0665 B9130000 		.4byte	.LASF202
 4637 0669 05       		.byte	0x5
 4638 066a 4203     		.2byte	0x342
 4639 066c BA000000 		.4byte	0xba
 4640 0670 04       		.byte	0x4
 4641 0671 0E       		.uleb128 0xe
 4642 0672 61100000 		.4byte	.LASF203
 4643 0676 05       		.byte	0x5
 4644 0677 4303     		.2byte	0x343
 4645 0679 36010000 		.4byte	0x136
 4646 067d 08       		.byte	0x8
 4647 067e 0E       		.uleb128 0xe
 4648 067f 67130000 		.4byte	.LASF204
 4649 0683 05       		.byte	0x5
 4650 0684 4403     		.2byte	0x344
 4651 0686 F4000000 		.4byte	0xf4
 4652 068a 0C       		.byte	0xc
ARM GAS  C:\Users\Aluno\AppData\Local\Temp\ccHJiRYw.s 			page 128


 4653 068b 00       		.byte	0
 4654 068c 09       		.uleb128 0x9
 4655 068d 090A0000 		.4byte	.LASF205
 4656 0691 05       		.byte	0x5
 4657 0692 8402     		.2byte	0x284
 4658 0694 98060000 		.4byte	0x698
 4659 0698 0D       		.uleb128 0xd
 4660 0699 AB150000 		.4byte	.LASF207
 4661 069d 10       		.byte	0x10
 4662 069e 05       		.byte	0x5
 4663 069f 5303     		.2byte	0x353
 4664 06a1 E7060000 		.4byte	0x6e7
 4665 06a5 0E       		.uleb128 0xe
 4666 06a6 0F100000 		.4byte	.LASF208
 4667 06aa 05       		.byte	0x5
 4668 06ab 5403     		.2byte	0x354
 4669 06ad 270B0000 		.4byte	0xb27
 4670 06b1 00       		.byte	0
 4671 06b2 0E       		.uleb128 0xe
 4672 06b3 CD120000 		.4byte	.LASF209
 4673 06b7 05       		.byte	0x5
 4674 06b8 5503     		.2byte	0x355
 4675 06ba 270B0000 		.4byte	0xb27
 4676 06be 04       		.byte	0x4
 4677 06bf 0E       		.uleb128 0xe
 4678 06c0 DF070000 		.4byte	.LASF210
 4679 06c4 05       		.byte	0x5
 4680 06c5 5603     		.2byte	0x356
 4681 06c7 2B010000 		.4byte	0x12b
 4682 06cb 08       		.byte	0x8
 4683 06cc 0E       		.uleb128 0xe
 4684 06cd 66010000 		.4byte	.LASF211
 4685 06d1 05       		.byte	0x5
 4686 06d2 5703     		.2byte	0x357
 4687 06d4 2B010000 		.4byte	0x12b
 4688 06d8 0A       		.byte	0xa
 4689 06d9 0E       		.uleb128 0xe
 4690 06da 96140000 		.4byte	.LASF212
 4691 06de 05       		.byte	0x5
 4692 06df 5803     		.2byte	0x358
 4693 06e1 2B010000 		.4byte	0x12b
 4694 06e5 0C       		.byte	0xc
 4695 06e6 00       		.byte	0
 4696 06e7 09       		.uleb128 0x9
 4697 06e8 5B120000 		.4byte	.LASF213
 4698 06ec 05       		.byte	0x5
 4699 06ed 8E02     		.2byte	0x28e
 4700 06ef A9000000 		.4byte	0xa9
 4701 06f3 09       		.uleb128 0x9
 4702 06f4 AE110000 		.4byte	.LASF214
 4703 06f8 05       		.byte	0x5
 4704 06f9 9002     		.2byte	0x290
 4705 06fb FF060000 		.4byte	0x6ff
 4706 06ff 0D       		.uleb128 0xd
 4707 0700 00000000 		.4byte	.LASF215
 4708 0704 C0       		.byte	0xc0
 4709 0705 05       		.byte	0x5
ARM GAS  C:\Users\Aluno\AppData\Local\Temp\ccHJiRYw.s 			page 129


 4710 0706 AB03     		.2byte	0x3ab
 4711 0708 A3090000 		.4byte	0x9a3
 4712 070c 0E       		.uleb128 0xe
 4713 070d 740A0000 		.4byte	.LASF216
 4714 0711 05       		.byte	0x5
 4715 0712 AC03     		.2byte	0x3ac
 4716 0714 2D0B0000 		.4byte	0xb2d
 4717 0718 00       		.byte	0
 4718 0719 0E       		.uleb128 0xe
 4719 071a D3100000 		.4byte	.LASF217
 4720 071e 05       		.byte	0x5
 4721 071f AE03     		.2byte	0x3ae
 4722 0721 BA000000 		.4byte	0xba
 4723 0725 04       		.byte	0x4
 4724 0726 0E       		.uleb128 0xe
 4725 0727 4D0C0000 		.4byte	.LASF218
 4726 072b 05       		.byte	0x5
 4727 072c B003     		.2byte	0x3b0
 4728 072e 2D0B0000 		.4byte	0xb2d
 4729 0732 08       		.byte	0x8
 4730 0733 0E       		.uleb128 0xe
 4731 0734 D90D0000 		.4byte	.LASF201
 4732 0738 05       		.byte	0x5
 4733 0739 B203     		.2byte	0x3b2
 4734 073b 0F0B0000 		.4byte	0xb0f
 4735 073f 0C       		.byte	0xc
 4736 0740 0E       		.uleb128 0xe
 4737 0741 14090000 		.4byte	.LASF219
 4738 0745 05       		.byte	0x5
 4739 0746 B303     		.2byte	0x3b3
 4740 0748 0F0B0000 		.4byte	0xb0f
 4741 074c 10       		.byte	0x10
 4742 074d 0E       		.uleb128 0xe
 4743 074e B20C0000 		.4byte	.LASF220
 4744 0752 05       		.byte	0x5
 4745 0753 B503     		.2byte	0x3b5
 4746 0755 0F0B0000 		.4byte	0xb0f
 4747 0759 14       		.byte	0x14
 4748 075a 0E       		.uleb128 0xe
 4749 075b 0A080000 		.4byte	.LASF221
 4750 075f 05       		.byte	0x5
 4751 0760 B603     		.2byte	0x3b6
 4752 0762 0F0B0000 		.4byte	0xb0f
 4753 0766 18       		.byte	0x18
 4754 0767 0E       		.uleb128 0xe
 4755 0768 B5120000 		.4byte	.LASF222
 4756 076c 05       		.byte	0x5
 4757 076d B803     		.2byte	0x3b8
 4758 076f 330B0000 		.4byte	0xb33
 4759 0773 1C       		.byte	0x1c
 4760 0774 0E       		.uleb128 0xe
 4761 0775 F6090000 		.4byte	.LASF223
 4762 0779 05       		.byte	0x5
 4763 077a BA03     		.2byte	0x3ba
 4764 077c 210B0000 		.4byte	0xb21
 4765 0780 20       		.byte	0x20
 4766 0781 0E       		.uleb128 0xe
ARM GAS  C:\Users\Aluno\AppData\Local\Temp\ccHJiRYw.s 			page 130


 4767 0782 88060000 		.4byte	.LASF224
 4768 0786 05       		.byte	0x5
 4769 0787 BC03     		.2byte	0x3bc
 4770 0789 2D0B0000 		.4byte	0xb2d
 4771 078d 24       		.byte	0x24
 4772 078e 0E       		.uleb128 0xe
 4773 078f AE090000 		.4byte	.LASF225
 4774 0793 05       		.byte	0x5
 4775 0794 C203     		.2byte	0x3c2
 4776 0796 E7060000 		.4byte	0x6e7
 4777 079a 28       		.byte	0x28
 4778 079b 0E       		.uleb128 0xe
 4779 079c D4120000 		.4byte	.LASF226
 4780 07a0 05       		.byte	0x5
 4781 07a1 C303     		.2byte	0x3c3
 4782 07a3 BA000000 		.4byte	0xba
 4783 07a7 2C       		.byte	0x2c
 4784 07a8 0E       		.uleb128 0xe
 4785 07a9 E40F0000 		.4byte	.LASF227
 4786 07ad 05       		.byte	0x5
 4787 07ae C503     		.2byte	0x3c5
 4788 07b0 150B0000 		.4byte	0xb15
 4789 07b4 30       		.byte	0x30
 4790 07b5 0E       		.uleb128 0xe
 4791 07b6 E4030000 		.4byte	.LASF228
 4792 07ba 05       		.byte	0x5
 4793 07bb C603     		.2byte	0x3c6
 4794 07bd 99010000 		.4byte	0x199
 4795 07c1 34       		.byte	0x34
 4796 07c2 0E       		.uleb128 0xe
 4797 07c3 FE090000 		.4byte	.LASF229
 4798 07c7 05       		.byte	0x5
 4799 07c8 C703     		.2byte	0x3c7
 4800 07ca A4010000 		.4byte	0x1a4
 4801 07ce 35       		.byte	0x35
 4802 07cf 0E       		.uleb128 0xe
 4803 07d0 F4060000 		.4byte	.LASF230
 4804 07d4 05       		.byte	0x5
 4805 07d5 C903     		.2byte	0x3c9
 4806 07d7 99010000 		.4byte	0x199
 4807 07db 36       		.byte	0x36
 4808 07dc 0E       		.uleb128 0xe
 4809 07dd 29140000 		.4byte	.LASF231
 4810 07e1 05       		.byte	0x5
 4811 07e2 CA03     		.2byte	0x3ca
 4812 07e4 6D010000 		.4byte	0x16d
 4813 07e8 37       		.byte	0x37
 4814 07e9 0E       		.uleb128 0xe
 4815 07ea 80060000 		.4byte	.LASF232
 4816 07ee 05       		.byte	0x5
 4817 07ef CB03     		.2byte	0x3cb
 4818 07f1 D2000000 		.4byte	0xd2
 4819 07f5 38       		.byte	0x38
 4820 07f6 0F       		.uleb128 0xf
 4821 07f7 4F707400 		.ascii	"Opt\000"
 4822 07fb 05       		.byte	0x5
 4823 07fc CC03     		.2byte	0x3cc
ARM GAS  C:\Users\Aluno\AppData\Local\Temp\ccHJiRYw.s 			page 131


 4824 07fe 62010000 		.4byte	0x162
 4825 0802 3C       		.byte	0x3c
 4826 0803 0E       		.uleb128 0xe
 4827 0804 EB030000 		.4byte	.LASF233
 4828 0808 05       		.byte	0x5
 4829 0809 CE03     		.2byte	0x3ce
 4830 080b 4C010000 		.4byte	0x14c
 4831 080f 3E       		.byte	0x3e
 4832 0810 0F       		.uleb128 0xf
 4833 0811 545300   		.ascii	"TS\000"
 4834 0814 05       		.byte	0x5
 4835 0815 D003     		.2byte	0x3d0
 4836 0817 F4000000 		.4byte	0xf4
 4837 081b 40       		.byte	0x40
 4838 081c 0E       		.uleb128 0xe
 4839 081d 08100000 		.4byte	.LASF234
 4840 0821 05       		.byte	0x5
 4841 0822 D203     		.2byte	0x3d2
 4842 0824 8E010000 		.4byte	0x18e
 4843 0828 44       		.byte	0x44
 4844 0829 0E       		.uleb128 0xe
 4845 082a D3070000 		.4byte	.LASF235
 4846 082e 05       		.byte	0x5
 4847 082f D503     		.2byte	0x3d5
 4848 0831 AF010000 		.4byte	0x1af
 4849 0835 48       		.byte	0x48
 4850 0836 0E       		.uleb128 0xe
 4851 0837 4B040000 		.4byte	.LASF236
 4852 083b 05       		.byte	0x5
 4853 083c D603     		.2byte	0x3d6
 4854 083e AF010000 		.4byte	0x1af
 4855 0842 4C       		.byte	0x4c
 4856 0843 0E       		.uleb128 0xe
 4857 0844 1E100000 		.4byte	.LASF237
 4858 0848 05       		.byte	0x5
 4859 0849 D703     		.2byte	0x3d7
 4860 084b AF010000 		.4byte	0x1af
 4861 084f 50       		.byte	0x50
 4862 0850 0E       		.uleb128 0xe
 4863 0851 46150000 		.4byte	.LASF238
 4864 0855 05       		.byte	0x5
 4865 0856 D903     		.2byte	0x3d9
 4866 0858 AF010000 		.4byte	0x1af
 4867 085c 54       		.byte	0x54
 4868 085d 0E       		.uleb128 0xe
 4869 085e 120A0000 		.4byte	.LASF239
 4870 0862 05       		.byte	0x5
 4871 0863 DA03     		.2byte	0x3da
 4872 0865 AF010000 		.4byte	0x1af
 4873 0869 58       		.byte	0x58
 4874 086a 0E       		.uleb128 0xe
 4875 086b B9130000 		.4byte	.LASF202
 4876 086f 05       		.byte	0x5
 4877 0870 DD03     		.2byte	0x3dd
 4878 0872 BA000000 		.4byte	0xba
 4879 0876 5C       		.byte	0x5c
 4880 0877 0E       		.uleb128 0xe
ARM GAS  C:\Users\Aluno\AppData\Local\Temp\ccHJiRYw.s 			page 132


 4881 0878 61100000 		.4byte	.LASF203
 4882 087c 05       		.byte	0x5
 4883 087d DE03     		.2byte	0x3de
 4884 087f 36010000 		.4byte	0x136
 4885 0883 60       		.byte	0x60
 4886 0884 0E       		.uleb128 0xe
 4887 0885 A9090000 		.4byte	.LASF240
 4888 0889 05       		.byte	0x5
 4889 088a E203     		.2byte	0x3e2
 4890 088c 8C060000 		.4byte	0x68c
 4891 0890 64       		.byte	0x64
 4892 0891 0E       		.uleb128 0xe
 4893 0892 9B080000 		.4byte	.LASF241
 4894 0896 05       		.byte	0x5
 4895 0897 E403     		.2byte	0x3e4
 4896 0899 F4000000 		.4byte	0xf4
 4897 089d 74       		.byte	0x74
 4898 089e 0E       		.uleb128 0xe
 4899 089f 8B080000 		.4byte	.LASF242
 4900 08a3 05       		.byte	0x5
 4901 08a4 E503     		.2byte	0x3e5
 4902 08a6 F4000000 		.4byte	0xf4
 4903 08aa 78       		.byte	0x78
 4904 08ab 0E       		.uleb128 0xe
 4905 08ac FF140000 		.4byte	.LASF243
 4906 08b0 05       		.byte	0x5
 4907 08b1 EA03     		.2byte	0x3ea
 4908 08b3 390B0000 		.4byte	0xb39
 4909 08b7 7C       		.byte	0x7c
 4910 08b8 0E       		.uleb128 0xe
 4911 08b9 99040000 		.4byte	.LASF244
 4912 08bd 05       		.byte	0x5
 4913 08be EE03     		.2byte	0x3ee
 4914 08c0 20010000 		.4byte	0x120
 4915 08c4 80       		.byte	0x80
 4916 08c5 0E       		.uleb128 0xe
 4917 08c6 16080000 		.4byte	.LASF245
 4918 08ca 05       		.byte	0x5
 4919 08cb EF03     		.2byte	0x3ef
 4920 08cd 20010000 		.4byte	0x120
 4921 08d1 84       		.byte	0x84
 4922 08d2 0E       		.uleb128 0xe
 4923 08d3 F1010000 		.4byte	.LASF246
 4924 08d7 05       		.byte	0x5
 4925 08d8 F003     		.2byte	0x3f0
 4926 08da 62010000 		.4byte	0x162
 4927 08de 88       		.byte	0x88
 4928 08df 0E       		.uleb128 0xe
 4929 08e0 420C0000 		.4byte	.LASF247
 4930 08e4 05       		.byte	0x5
 4931 08e5 F403     		.2byte	0x3f4
 4932 08e7 41010000 		.4byte	0x141
 4933 08eb 8A       		.byte	0x8a
 4934 08ec 0E       		.uleb128 0xe
 4935 08ed 4E140000 		.4byte	.LASF248
 4936 08f1 05       		.byte	0x5
 4937 08f2 F803     		.2byte	0x3f8
ARM GAS  C:\Users\Aluno\AppData\Local\Temp\ccHJiRYw.s 			page 133


 4938 08f4 FF000000 		.4byte	0xff
 4939 08f8 8C       		.byte	0x8c
 4940 08f9 0E       		.uleb128 0xe
 4941 08fa BF0F0000 		.4byte	.LASF249
 4942 08fe 05       		.byte	0x5
 4943 08ff F903     		.2byte	0x3f9
 4944 0901 FF000000 		.4byte	0xff
 4945 0905 8E       		.byte	0x8e
 4946 0906 0E       		.uleb128 0xe
 4947 0907 BA040000 		.4byte	.LASF250
 4948 090b 05       		.byte	0x5
 4949 090c FA03     		.2byte	0x3fa
 4950 090e 0A010000 		.4byte	0x10a
 4951 0912 90       		.byte	0x90
 4952 0913 0E       		.uleb128 0xe
 4953 0914 680C0000 		.4byte	.LASF251
 4954 0918 05       		.byte	0x5
 4955 0919 FB03     		.2byte	0x3fb
 4956 091b F4000000 		.4byte	0xf4
 4957 091f 94       		.byte	0x94
 4958 0920 0E       		.uleb128 0xe
 4959 0921 3E0B0000 		.4byte	.LASF252
 4960 0925 05       		.byte	0x5
 4961 0926 FC03     		.2byte	0x3fc
 4962 0928 F4000000 		.4byte	0xf4
 4963 092c 98       		.byte	0x98
 4964 092d 0E       		.uleb128 0xe
 4965 092e 8F0F0000 		.4byte	.LASF253
 4966 0932 05       		.byte	0x5
 4967 0933 FD03     		.2byte	0x3fd
 4968 0935 15010000 		.4byte	0x115
 4969 0939 9C       		.byte	0x9c
 4970 093a 0E       		.uleb128 0xe
 4971 093b 3F0F0000 		.4byte	.LASF254
 4972 093f 05       		.byte	0x5
 4973 0940 FE03     		.2byte	0x3fe
 4974 0942 15010000 		.4byte	0x115
 4975 0946 A0       		.byte	0xa0
 4976 0947 0E       		.uleb128 0xe
 4977 0948 A50D0000 		.4byte	.LASF255
 4978 094c 05       		.byte	0x5
 4979 094d 0004     		.2byte	0x400
 4980 094f F4000000 		.4byte	0xf4
 4981 0953 A4       		.byte	0xa4
 4982 0954 0E       		.uleb128 0xe
 4983 0955 1E0F0000 		.4byte	.LASF256
 4984 0959 05       		.byte	0x5
 4985 095a 0104     		.2byte	0x401
 4986 095c F4000000 		.4byte	0xf4
 4987 0960 A8       		.byte	0xa8
 4988 0961 0E       		.uleb128 0xe
 4989 0962 E4050000 		.4byte	.LASF257
 4990 0966 05       		.byte	0x5
 4991 0967 0504     		.2byte	0x405
 4992 0969 D2000000 		.4byte	0xd2
 4993 096d AC       		.byte	0xac
 4994 096e 0E       		.uleb128 0xe
ARM GAS  C:\Users\Aluno\AppData\Local\Temp\ccHJiRYw.s 			page 134


 4995 096f CB070000 		.4byte	.LASF258
 4996 0973 05       		.byte	0x5
 4997 0974 0604     		.2byte	0x406
 4998 0976 D2000000 		.4byte	0xd2
 4999 097a B0       		.byte	0xb0
 5000 097b 0E       		.uleb128 0xe
 5001 097c 4E030000 		.4byte	.LASF259
 5002 0980 05       		.byte	0x5
 5003 0981 1104     		.2byte	0x411
 5004 0983 0F0B0000 		.4byte	0xb0f
 5005 0987 B4       		.byte	0xb4
 5006 0988 0E       		.uleb128 0xe
 5007 0989 66030000 		.4byte	.LASF260
 5008 098d 05       		.byte	0x5
 5009 098e 1204     		.2byte	0x412
 5010 0990 0F0B0000 		.4byte	0xb0f
 5011 0994 B8       		.byte	0xb8
 5012 0995 0E       		.uleb128 0xe
 5013 0996 C2120000 		.4byte	.LASF261
 5014 099a 05       		.byte	0x5
 5015 099b 1304     		.2byte	0x413
 5016 099d 210B0000 		.4byte	0xb21
 5017 09a1 BC       		.byte	0xbc
 5018 09a2 00       		.byte	0
 5019 09a3 09       		.uleb128 0x9
 5020 09a4 49050000 		.4byte	.LASF262
 5021 09a8 05       		.byte	0x5
 5022 09a9 9E02     		.2byte	0x29e
 5023 09ab AF090000 		.4byte	0x9af
 5024 09af 0D       		.uleb128 0xd
 5025 09b0 7B0A0000 		.4byte	.LASF263
 5026 09b4 08       		.byte	0x8
 5027 09b5 05       		.byte	0x5
 5028 09b6 1E04     		.2byte	0x41e
 5029 09b8 E4090000 		.4byte	0x9e4
 5030 09bc 0E       		.uleb128 0xe
 5031 09bd 7C100000 		.4byte	.LASF264
 5032 09c1 05       		.byte	0x5
 5033 09c2 1F04     		.2byte	0x41f
 5034 09c4 0F0B0000 		.4byte	0xb0f
 5035 09c8 00       		.byte	0
 5036 09c9 0E       		.uleb128 0xe
 5037 09ca 66010000 		.4byte	.LASF211
 5038 09ce 05       		.byte	0x5
 5039 09cf 2004     		.2byte	0x420
 5040 09d1 4C010000 		.4byte	0x14c
 5041 09d5 04       		.byte	0x4
 5042 09d6 0E       		.uleb128 0xe
 5043 09d7 96140000 		.4byte	.LASF212
 5044 09db 05       		.byte	0x5
 5045 09dc 2104     		.2byte	0x421
 5046 09de 4C010000 		.4byte	0x14c
 5047 09e2 06       		.byte	0x6
 5048 09e3 00       		.byte	0
 5049 09e4 09       		.uleb128 0x9
 5050 09e5 FF050000 		.4byte	.LASF265
 5051 09e9 05       		.byte	0x5
ARM GAS  C:\Users\Aluno\AppData\Local\Temp\ccHJiRYw.s 			page 135


 5052 09ea A502     		.2byte	0x2a5
 5053 09ec F0090000 		.4byte	0x9f0
 5054 09f0 0D       		.uleb128 0xd
 5055 09f1 ED130000 		.4byte	.LASF266
 5056 09f5 20       		.byte	0x20
 5057 09f6 05       		.byte	0x5
 5058 09f7 DD02     		.2byte	0x2dd
 5059 09f9 660A0000 		.4byte	0xa66
 5060 09fd 0E       		.uleb128 0xe
 5061 09fe 14090000 		.4byte	.LASF219
 5062 0a02 05       		.byte	0x5
 5063 0a03 DE02     		.2byte	0x2de
 5064 0a05 150B0000 		.4byte	0xb15
 5065 0a09 00       		.byte	0
 5066 0a0a 0E       		.uleb128 0xe
 5067 0a0b D90D0000 		.4byte	.LASF201
 5068 0a0f 05       		.byte	0x5
 5069 0a10 DF02     		.2byte	0x2df
 5070 0a12 150B0000 		.4byte	0xb15
 5071 0a16 04       		.byte	0x4
 5072 0a17 0E       		.uleb128 0xe
 5073 0a18 690B0000 		.4byte	.LASF267
 5074 0a1c 05       		.byte	0x5
 5075 0a1d E002     		.2byte	0x2e0
 5076 0a1f 0F0B0000 		.4byte	0xb0f
 5077 0a23 08       		.byte	0x8
 5078 0a24 0E       		.uleb128 0xe
 5079 0a25 8B140000 		.4byte	.LASF268
 5080 0a29 05       		.byte	0x5
 5081 0a2a E102     		.2byte	0x2e1
 5082 0a2c 1B0B0000 		.4byte	0xb1b
 5083 0a30 0C       		.byte	0xc
 5084 0a31 0E       		.uleb128 0xe
 5085 0a32 4F0D0000 		.4byte	.LASF269
 5086 0a36 05       		.byte	0x5
 5087 0a37 E202     		.2byte	0x2e2
 5088 0a39 1B0B0000 		.4byte	0xb1b
 5089 0a3d 10       		.byte	0x10
 5090 0a3e 0E       		.uleb128 0xe
 5091 0a3f 58040000 		.4byte	.LASF270
 5092 0a43 05       		.byte	0x5
 5093 0a44 E302     		.2byte	0x2e3
 5094 0a46 BA000000 		.4byte	0xba
 5095 0a4a 14       		.byte	0x14
 5096 0a4b 0E       		.uleb128 0xe
 5097 0a4c C00E0000 		.4byte	.LASF271
 5098 0a50 05       		.byte	0x5
 5099 0a51 E402     		.2byte	0x2e4
 5100 0a53 36010000 		.4byte	0x136
 5101 0a57 18       		.byte	0x18
 5102 0a58 0E       		.uleb128 0xe
 5103 0a59 680E0000 		.4byte	.LASF272
 5104 0a5d 05       		.byte	0x5
 5105 0a5e E502     		.2byte	0x2e5
 5106 0a60 F4000000 		.4byte	0xf4
 5107 0a64 1C       		.byte	0x1c
 5108 0a65 00       		.byte	0
ARM GAS  C:\Users\Aluno\AppData\Local\Temp\ccHJiRYw.s 			page 136


 5109 0a66 09       		.uleb128 0x9
 5110 0a67 45130000 		.4byte	.LASF273
 5111 0a6b 05       		.byte	0x5
 5112 0a6c A602     		.2byte	0x2a6
 5113 0a6e 720A0000 		.4byte	0xa72
 5114 0a72 0D       		.uleb128 0xd
 5115 0a73 B5140000 		.4byte	.LASF274
 5116 0a77 0C       		.byte	0xc
 5117 0a78 05       		.byte	0x5
 5118 0a79 E902     		.2byte	0x2e9
 5119 0a7b A70A0000 		.4byte	0xaa7
 5120 0a7f 0E       		.uleb128 0xe
 5121 0a80 29100000 		.4byte	.LASF275
 5122 0a84 05       		.byte	0x5
 5123 0a85 EA02     		.2byte	0x2ea
 5124 0a87 150B0000 		.4byte	0xb15
 5125 0a8b 00       		.byte	0
 5126 0a8c 0E       		.uleb128 0xe
 5127 0a8d 11040000 		.4byte	.LASF276
 5128 0a91 05       		.byte	0x5
 5129 0a92 EB02     		.2byte	0x2eb
 5130 0a94 150B0000 		.4byte	0xb15
 5131 0a98 04       		.byte	0x4
 5132 0a99 0E       		.uleb128 0xe
 5133 0a9a 66010000 		.4byte	.LASF211
 5134 0a9e 05       		.byte	0x5
 5135 0a9f EC02     		.2byte	0x2ec
 5136 0aa1 4C010000 		.4byte	0x14c
 5137 0aa5 08       		.byte	0x8
 5138 0aa6 00       		.byte	0
 5139 0aa7 09       		.uleb128 0x9
 5140 0aa8 9B0F0000 		.4byte	.LASF277
 5141 0aac 05       		.byte	0x5
 5142 0aad A702     		.2byte	0x2a7
 5143 0aaf B30A0000 		.4byte	0xab3
 5144 0ab3 0D       		.uleb128 0xd
 5145 0ab4 62040000 		.4byte	.LASF278
 5146 0ab8 20       		.byte	0x20
 5147 0ab9 05       		.byte	0x5
 5148 0aba FF02     		.2byte	0x2ff
 5149 0abc 0F0B0000 		.4byte	0xb0f
 5150 0ac0 0E       		.uleb128 0xe
 5151 0ac1 F70D0000 		.4byte	.LASF279
 5152 0ac5 05       		.byte	0x5
 5153 0ac6 0003     		.2byte	0x300
 5154 0ac8 57010000 		.4byte	0x157
 5155 0acc 00       		.byte	0
 5156 0acd 0E       		.uleb128 0xe
 5157 0ace F6090000 		.4byte	.LASF223
 5158 0ad2 05       		.byte	0x5
 5159 0ad3 0103     		.2byte	0x301
 5160 0ad5 210B0000 		.4byte	0xb21
 5161 0ad9 04       		.byte	0x4
 5162 0ada 0E       		.uleb128 0xe
 5163 0adb CB0F0000 		.4byte	.LASF280
 5164 0adf 05       		.byte	0x5
 5165 0ae0 0203     		.2byte	0x302
ARM GAS  C:\Users\Aluno\AppData\Local\Temp\ccHJiRYw.s 			page 137


 5166 0ae2 660A0000 		.4byte	0xa66
 5167 0ae6 08       		.byte	0x8
 5168 0ae7 0E       		.uleb128 0xe
 5169 0ae8 4E030000 		.4byte	.LASF259
 5170 0aec 05       		.byte	0x5
 5171 0aed 0403     		.2byte	0x304
 5172 0aef BA000000 		.4byte	0xba
 5173 0af3 14       		.byte	0x14
 5174 0af4 0E       		.uleb128 0xe
 5175 0af5 66030000 		.4byte	.LASF260
 5176 0af9 05       		.byte	0x5
 5177 0afa 0503     		.2byte	0x305
 5178 0afc BA000000 		.4byte	0xba
 5179 0b00 18       		.byte	0x18
 5180 0b01 0E       		.uleb128 0xe
 5181 0b02 C2120000 		.4byte	.LASF261
 5182 0b06 05       		.byte	0x5
 5183 0b07 0603     		.2byte	0x306
 5184 0b09 210B0000 		.4byte	0xb21
 5185 0b0d 1C       		.byte	0x1c
 5186 0b0e 00       		.byte	0
 5187 0b0f 05       		.uleb128 0x5
 5188 0b10 04       		.byte	0x4
 5189 0b11 F3060000 		.4byte	0x6f3
 5190 0b15 05       		.uleb128 0x5
 5191 0b16 04       		.byte	0x4
 5192 0b17 E4090000 		.4byte	0x9e4
 5193 0b1b 05       		.uleb128 0x5
 5194 0b1c 04       		.byte	0x4
 5195 0b1d A70A0000 		.4byte	0xaa7
 5196 0b21 05       		.uleb128 0x5
 5197 0b22 04       		.byte	0x4
 5198 0b23 25000000 		.4byte	0x25
 5199 0b27 05       		.uleb128 0x5
 5200 0b28 04       		.byte	0x4
 5201 0b29 3E060000 		.4byte	0x63e
 5202 0b2d 05       		.uleb128 0x5
 5203 0b2e 04       		.byte	0x4
 5204 0b2f C7000000 		.4byte	0xc7
 5205 0b33 05       		.uleb128 0x5
 5206 0b34 04       		.byte	0x4
 5207 0b35 A3090000 		.4byte	0x9a3
 5208 0b39 10       		.uleb128 0x10
 5209 0b3a 78010000 		.4byte	0x178
 5210 0b3e 490B0000 		.4byte	0xb49
 5211 0b42 11       		.uleb128 0x11
 5212 0b43 490B0000 		.4byte	0xb49
 5213 0b47 00       		.byte	0
 5214 0b48 00       		.byte	0
 5215 0b49 03       		.uleb128 0x3
 5216 0b4a 04       		.byte	0x4
 5217 0b4b 07       		.byte	0x7
 5218 0b4c DA100000 		.4byte	.LASF281
 5219 0b50 12       		.uleb128 0x12
 5220 0b51 EF120000 		.4byte	.LASF287
 5221 0b55 01       		.byte	0x1
 5222 0b56 3E       		.byte	0x3e
ARM GAS  C:\Users\Aluno\AppData\Local\Temp\ccHJiRYw.s 			page 138


 5223 0b57 00000000 		.4byte	.LFB0
 5224 0b5b 3C010000 		.4byte	.LFE0-.LFB0
 5225 0b5f 01       		.uleb128 0x1
 5226 0b60 9C       		.byte	0x9c
 5227 0b61 AC0B0000 		.4byte	0xbac
 5228 0b65 13       		.uleb128 0x13
 5229 0b66 890A0000 		.4byte	.LASF282
 5230 0b6a 01       		.byte	0x1
 5231 0b6b 3E       		.byte	0x3e
 5232 0b6c 0F0B0000 		.4byte	0xb0f
 5233 0b70 02       		.uleb128 0x2
 5234 0b71 91       		.byte	0x91
 5235 0b72 6C       		.sleb128 -20
 5236 0b73 13       		.uleb128 0x13
 5237 0b74 15100000 		.4byte	.LASF283
 5238 0b78 01       		.byte	0x1
 5239 0b79 3F       		.byte	0x3f
 5240 0b7a 6D010000 		.4byte	0x16d
 5241 0b7e 02       		.uleb128 0x2
 5242 0b7f 91       		.byte	0x91
 5243 0b80 6B       		.sleb128 -21
 5244 0b81 13       		.uleb128 0x13
 5245 0b82 7B080000 		.4byte	.LASF284
 5246 0b86 01       		.byte	0x1
 5247 0b87 40       		.byte	0x40
 5248 0b88 AC0B0000 		.4byte	0xbac
 5249 0b8c 02       		.uleb128 0x2
 5250 0b8d 91       		.byte	0x91
 5251 0b8e 64       		.sleb128 -28
 5252 0b8f 14       		.uleb128 0x14
 5253 0b90 61010000 		.4byte	.LASF285
 5254 0b94 01       		.byte	0x1
 5255 0b95 42       		.byte	0x42
 5256 0b96 37000000 		.4byte	0x37
 5257 0b9a 02       		.uleb128 0x2
 5258 0b9b 91       		.byte	0x91
 5259 0b9c 77       		.sleb128 -9
 5260 0b9d 14       		.uleb128 0x14
 5261 0b9e 71050000 		.4byte	.LASF286
 5262 0ba2 01       		.byte	0x1
 5263 0ba3 43       		.byte	0x43
 5264 0ba4 DD000000 		.4byte	0xdd
 5265 0ba8 02       		.uleb128 0x2
 5266 0ba9 91       		.byte	0x91
 5267 0baa 70       		.sleb128 -16
 5268 0bab 00       		.byte	0
 5269 0bac 05       		.uleb128 0x5
 5270 0bad 04       		.byte	0x4
 5271 0bae 32060000 		.4byte	0x632
 5272 0bb2 12       		.uleb128 0x12
 5273 0bb3 07000000 		.4byte	.LASF288
 5274 0bb7 01       		.byte	0x1
 5275 0bb8 F9       		.byte	0xf9
 5276 0bb9 00000000 		.4byte	.LFB1
 5277 0bbd 10020000 		.4byte	.LFE1-.LFB1
 5278 0bc1 01       		.uleb128 0x1
 5279 0bc2 9C       		.byte	0x9c
ARM GAS  C:\Users\Aluno\AppData\Local\Temp\ccHJiRYw.s 			page 139


 5280 0bc3 CD0C0000 		.4byte	0xccd
 5281 0bc7 13       		.uleb128 0x13
 5282 0bc8 890A0000 		.4byte	.LASF282
 5283 0bcc 01       		.byte	0x1
 5284 0bcd F9       		.byte	0xf9
 5285 0bce 0F0B0000 		.4byte	0xb0f
 5286 0bd2 02       		.uleb128 0x2
 5287 0bd3 91       		.byte	0x91
 5288 0bd4 5C       		.sleb128 -36
 5289 0bd5 13       		.uleb128 0x13
 5290 0bd6 AF080000 		.4byte	.LASF289
 5291 0bda 01       		.byte	0x1
 5292 0bdb FA       		.byte	0xfa
 5293 0bdc 210B0000 		.4byte	0xb21
 5294 0be0 02       		.uleb128 0x2
 5295 0be1 91       		.byte	0x91
 5296 0be2 58       		.sleb128 -40
 5297 0be3 13       		.uleb128 0x13
 5298 0be4 B5110000 		.4byte	.LASF290
 5299 0be8 01       		.byte	0x1
 5300 0be9 FB       		.byte	0xfb
 5301 0bea E7060000 		.4byte	0x6e7
 5302 0bee 02       		.uleb128 0x2
 5303 0bef 91       		.byte	0x91
 5304 0bf0 54       		.sleb128 -44
 5305 0bf1 13       		.uleb128 0x13
 5306 0bf2 CD100000 		.4byte	.LASF291
 5307 0bf6 01       		.byte	0x1
 5308 0bf7 FC       		.byte	0xfc
 5309 0bf8 BA000000 		.4byte	0xba
 5310 0bfc 02       		.uleb128 0x2
 5311 0bfd 91       		.byte	0x91
 5312 0bfe 50       		.sleb128 -48
 5313 0bff 13       		.uleb128 0x13
 5314 0c00 DD080000 		.4byte	.LASF292
 5315 0c04 01       		.byte	0x1
 5316 0c05 FD       		.byte	0xfd
 5317 0c06 6D010000 		.4byte	0x16d
 5318 0c0a 02       		.uleb128 0x2
 5319 0c0b 91       		.byte	0x91
 5320 0c0c 00       		.sleb128 0
 5321 0c0d 13       		.uleb128 0x13
 5322 0c0e E2110000 		.4byte	.LASF293
 5323 0c12 01       		.byte	0x1
 5324 0c13 FE       		.byte	0xfe
 5325 0c14 2D0B0000 		.4byte	0xb2d
 5326 0c18 02       		.uleb128 0x2
 5327 0c19 91       		.byte	0x91
 5328 0c1a 04       		.sleb128 4
 5329 0c1b 13       		.uleb128 0x13
 5330 0c1c 200A0000 		.4byte	.LASF294
 5331 0c20 01       		.byte	0x1
 5332 0c21 FF       		.byte	0xff
 5333 0c22 D2000000 		.4byte	0xd2
 5334 0c26 02       		.uleb128 0x2
 5335 0c27 91       		.byte	0x91
 5336 0c28 08       		.sleb128 8
ARM GAS  C:\Users\Aluno\AppData\Local\Temp\ccHJiRYw.s 			page 140


 5337 0c29 15       		.uleb128 0x15
 5338 0c2a 6E0E0000 		.4byte	.LASF295
 5339 0c2e 01       		.byte	0x1
 5340 0c2f 0001     		.2byte	0x100
 5341 0c31 D2000000 		.4byte	0xd2
 5342 0c35 02       		.uleb128 0x2
 5343 0c36 91       		.byte	0x91
 5344 0c37 0C       		.sleb128 12
 5345 0c38 15       		.uleb128 0x15
 5346 0c39 2E140000 		.4byte	.LASF296
 5347 0c3d 01       		.byte	0x1
 5348 0c3e 0101     		.2byte	0x101
 5349 0c40 2B010000 		.4byte	0x12b
 5350 0c44 02       		.uleb128 0x2
 5351 0c45 91       		.byte	0x91
 5352 0c46 10       		.sleb128 16
 5353 0c47 15       		.uleb128 0x15
 5354 0c48 65090000 		.4byte	.LASF297
 5355 0c4c 01       		.byte	0x1
 5356 0c4d 0201     		.2byte	0x102
 5357 0c4f AF010000 		.4byte	0x1af
 5358 0c53 02       		.uleb128 0x2
 5359 0c54 91       		.byte	0x91
 5360 0c55 14       		.sleb128 20
 5361 0c56 15       		.uleb128 0x15
 5362 0c57 000F0000 		.4byte	.LASF298
 5363 0c5b 01       		.byte	0x1
 5364 0c5c 0301     		.2byte	0x103
 5365 0c5e BA000000 		.4byte	0xba
 5366 0c62 02       		.uleb128 0x2
 5367 0c63 91       		.byte	0x91
 5368 0c64 18       		.sleb128 24
 5369 0c65 16       		.uleb128 0x16
 5370 0c66 6F707400 		.ascii	"opt\000"
 5371 0c6a 01       		.byte	0x1
 5372 0c6b 0401     		.2byte	0x104
 5373 0c6d 62010000 		.4byte	0x162
 5374 0c71 02       		.uleb128 0x2
 5375 0c72 91       		.byte	0x91
 5376 0c73 1C       		.sleb128 28
 5377 0c74 15       		.uleb128 0x15
 5378 0c75 7B080000 		.4byte	.LASF284
 5379 0c79 01       		.byte	0x1
 5380 0c7a 0501     		.2byte	0x105
 5381 0c7c AC0B0000 		.4byte	0xbac
 5382 0c80 02       		.uleb128 0x2
 5383 0c81 91       		.byte	0x91
 5384 0c82 20       		.sleb128 32
 5385 0c83 17       		.uleb128 0x17
 5386 0c84 6900     		.ascii	"i\000"
 5387 0c86 01       		.byte	0x1
 5388 0c87 0701     		.2byte	0x107
 5389 0c89 D2000000 		.4byte	0xd2
 5390 0c8d 02       		.uleb128 0x2
 5391 0c8e 91       		.byte	0x91
 5392 0c8f 74       		.sleb128 -12
 5393 0c90 18       		.uleb128 0x18
ARM GAS  C:\Users\Aluno\AppData\Local\Temp\ccHJiRYw.s 			page 141


 5394 0c91 E9010000 		.4byte	.LASF299
 5395 0c95 01       		.byte	0x1
 5396 0c96 0901     		.2byte	0x109
 5397 0c98 83010000 		.4byte	0x183
 5398 0c9c 02       		.uleb128 0x2
 5399 0c9d 91       		.byte	0x91
 5400 0c9e 73       		.sleb128 -13
 5401 0c9f 18       		.uleb128 0x18
 5402 0ca0 8F0A0000 		.4byte	.LASF300
 5403 0ca4 01       		.byte	0x1
 5404 0ca5 0F01     		.2byte	0x10f
 5405 0ca7 2D0B0000 		.4byte	0xb2d
 5406 0cab 02       		.uleb128 0x2
 5407 0cac 91       		.byte	0x91
 5408 0cad 6C       		.sleb128 -20
 5409 0cae 18       		.uleb128 0x18
 5410 0caf 2D090000 		.4byte	.LASF301
 5411 0cb3 01       		.byte	0x1
 5412 0cb4 1001     		.2byte	0x110
 5413 0cb6 2D0B0000 		.4byte	0xb2d
 5414 0cba 02       		.uleb128 0x2
 5415 0cbb 91       		.byte	0x91
 5416 0cbc 64       		.sleb128 -28
 5417 0cbd 18       		.uleb128 0x18
 5418 0cbe 71050000 		.4byte	.LASF286
 5419 0cc2 01       		.byte	0x1
 5420 0cc3 1101     		.2byte	0x111
 5421 0cc5 DD000000 		.4byte	0xdd
 5422 0cc9 02       		.uleb128 0x2
 5423 0cca 91       		.byte	0x91
 5424 0ccb 68       		.sleb128 -24
 5425 0ccc 00       		.byte	0
 5426 0ccd 19       		.uleb128 0x19
 5427 0cce B6100000 		.4byte	.LASF302
 5428 0cd2 01       		.byte	0x1
 5429 0cd3 CC01     		.2byte	0x1cc
 5430 0cd5 00000000 		.4byte	.LFB2
 5431 0cd9 3C010000 		.4byte	.LFE2-.LFB2
 5432 0cdd 01       		.uleb128 0x1
 5433 0cde 9C       		.byte	0x9c
 5434 0cdf 110D0000 		.4byte	0xd11
 5435 0ce3 15       		.uleb128 0x15
 5436 0ce4 890A0000 		.4byte	.LASF282
 5437 0ce8 01       		.byte	0x1
 5438 0ce9 CC01     		.2byte	0x1cc
 5439 0ceb 0F0B0000 		.4byte	0xb0f
 5440 0cef 02       		.uleb128 0x2
 5441 0cf0 91       		.byte	0x91
 5442 0cf1 6C       		.sleb128 -20
 5443 0cf2 15       		.uleb128 0x15
 5444 0cf3 7B080000 		.4byte	.LASF284
 5445 0cf7 01       		.byte	0x1
 5446 0cf8 CD01     		.2byte	0x1cd
 5447 0cfa AC0B0000 		.4byte	0xbac
 5448 0cfe 02       		.uleb128 0x2
 5449 0cff 91       		.byte	0x91
 5450 0d00 68       		.sleb128 -24
ARM GAS  C:\Users\Aluno\AppData\Local\Temp\ccHJiRYw.s 			page 142


 5451 0d01 18       		.uleb128 0x18
 5452 0d02 71050000 		.4byte	.LASF286
 5453 0d06 01       		.byte	0x1
 5454 0d07 CF01     		.2byte	0x1cf
 5455 0d09 DD000000 		.4byte	0xdd
 5456 0d0d 02       		.uleb128 0x2
 5457 0d0e 91       		.byte	0x91
 5458 0d0f 74       		.sleb128 -12
 5459 0d10 00       		.byte	0
 5460 0d11 1A       		.uleb128 0x1a
 5461 0d12 3D080000 		.4byte	.LASF304
 5462 0d16 01       		.byte	0x1
 5463 0d17 5202     		.2byte	0x252
 5464 0d19 2B010000 		.4byte	0x12b
 5465 0d1d 00000000 		.4byte	.LFB3
 5466 0d21 6C000000 		.4byte	.LFE3-.LFB3
 5467 0d25 01       		.uleb128 0x1
 5468 0d26 9C       		.byte	0x9c
 5469 0d27 680D0000 		.4byte	0xd68
 5470 0d2b 15       		.uleb128 0x15
 5471 0d2c 890A0000 		.4byte	.LASF282
 5472 0d30 01       		.byte	0x1
 5473 0d31 5202     		.2byte	0x252
 5474 0d33 0F0B0000 		.4byte	0xb0f
 5475 0d37 02       		.uleb128 0x2
 5476 0d38 91       		.byte	0x91
 5477 0d39 6C       		.sleb128 -20
 5478 0d3a 15       		.uleb128 0x15
 5479 0d3b 7B080000 		.4byte	.LASF284
 5480 0d3f 01       		.byte	0x1
 5481 0d40 5302     		.2byte	0x253
 5482 0d42 AC0B0000 		.4byte	0xbac
 5483 0d46 02       		.uleb128 0x2
 5484 0d47 91       		.byte	0x91
 5485 0d48 68       		.sleb128 -24
 5486 0d49 18       		.uleb128 0x18
 5487 0d4a E5130000 		.4byte	.LASF303
 5488 0d4e 01       		.byte	0x1
 5489 0d4f 5502     		.2byte	0x255
 5490 0d51 2B010000 		.4byte	0x12b
 5491 0d55 02       		.uleb128 0x2
 5492 0d56 91       		.byte	0x91
 5493 0d57 72       		.sleb128 -14
 5494 0d58 18       		.uleb128 0x18
 5495 0d59 71050000 		.4byte	.LASF286
 5496 0d5d 01       		.byte	0x1
 5497 0d5e 5602     		.2byte	0x256
 5498 0d60 DD000000 		.4byte	0xdd
 5499 0d64 02       		.uleb128 0x2
 5500 0d65 91       		.byte	0x91
 5501 0d66 74       		.sleb128 -12
 5502 0d67 00       		.byte	0
 5503 0d68 1A       		.uleb128 0x1a
 5504 0d69 6E040000 		.4byte	.LASF305
 5505 0d6d 01       		.byte	0x1
 5506 0d6e A002     		.2byte	0x2a0
 5507 0d70 BA000000 		.4byte	0xba
ARM GAS  C:\Users\Aluno\AppData\Local\Temp\ccHJiRYw.s 			page 143


 5508 0d74 00000000 		.4byte	.LFB4
 5509 0d78 E0010000 		.4byte	.LFE4-.LFB4
 5510 0d7c 01       		.uleb128 0x1
 5511 0d7d 9C       		.byte	0x9c
 5512 0d7e FB0D0000 		.4byte	0xdfb
 5513 0d82 15       		.uleb128 0x15
 5514 0d83 4C120000 		.4byte	.LASF306
 5515 0d87 01       		.byte	0x1
 5516 0d88 A002     		.2byte	0x2a0
 5517 0d8a AF010000 		.4byte	0x1af
 5518 0d8e 02       		.uleb128 0x2
 5519 0d8f 91       		.byte	0x91
 5520 0d90 5C       		.sleb128 -36
 5521 0d91 16       		.uleb128 0x16
 5522 0d92 6F707400 		.ascii	"opt\000"
 5523 0d96 01       		.byte	0x1
 5524 0d97 A102     		.2byte	0x2a1
 5525 0d99 62010000 		.4byte	0x162
 5526 0d9d 02       		.uleb128 0x2
 5527 0d9e 91       		.byte	0x91
 5528 0d9f 5A       		.sleb128 -38
 5529 0da0 15       		.uleb128 0x15
 5530 0da1 5B020000 		.4byte	.LASF307
 5531 0da5 01       		.byte	0x1
 5532 0da6 A202     		.2byte	0x2a2
 5533 0da8 FB0D0000 		.4byte	0xdfb
 5534 0dac 02       		.uleb128 0x2
 5535 0dad 91       		.byte	0x91
 5536 0dae 54       		.sleb128 -44
 5537 0daf 15       		.uleb128 0x15
 5538 0db0 310D0000 		.4byte	.LASF308
 5539 0db4 01       		.byte	0x1
 5540 0db5 A302     		.2byte	0x2a3
 5541 0db7 010E0000 		.4byte	0xe01
 5542 0dbb 02       		.uleb128 0x2
 5543 0dbc 91       		.byte	0x91
 5544 0dbd 50       		.sleb128 -48
 5545 0dbe 15       		.uleb128 0x15
 5546 0dbf 7B080000 		.4byte	.LASF284
 5547 0dc3 01       		.byte	0x1
 5548 0dc4 A402     		.2byte	0x2a4
 5549 0dc6 AC0B0000 		.4byte	0xbac
 5550 0dca 02       		.uleb128 0x2
 5551 0dcb 91       		.byte	0x91
 5552 0dcc 00       		.sleb128 0
 5553 0dcd 18       		.uleb128 0x18
 5554 0dce 06150000 		.4byte	.LASF309
 5555 0dd2 01       		.byte	0x1
 5556 0dd3 A602     		.2byte	0x2a6
 5557 0dd5 070E0000 		.4byte	0xe07
 5558 0dd9 02       		.uleb128 0x2
 5559 0dda 91       		.byte	0x91
 5560 0ddb 64       		.sleb128 -28
 5561 0ddc 18       		.uleb128 0x18
 5562 0ddd 19040000 		.4byte	.LASF310
 5563 0de1 01       		.byte	0x1
 5564 0de2 A702     		.2byte	0x2a7
ARM GAS  C:\Users\Aluno\AppData\Local\Temp\ccHJiRYw.s 			page 144


 5565 0de4 BA000000 		.4byte	0xba
 5566 0de8 02       		.uleb128 0x2
 5567 0de9 91       		.byte	0x91
 5568 0dea 6C       		.sleb128 -20
 5569 0deb 18       		.uleb128 0x18
 5570 0dec 71050000 		.4byte	.LASF286
 5571 0df0 01       		.byte	0x1
 5572 0df1 A802     		.2byte	0x2a8
 5573 0df3 DD000000 		.4byte	0xdd
 5574 0df7 02       		.uleb128 0x2
 5575 0df8 91       		.byte	0x91
 5576 0df9 68       		.sleb128 -24
 5577 0dfa 00       		.byte	0
 5578 0dfb 05       		.uleb128 0x5
 5579 0dfc 04       		.byte	0x4
 5580 0dfd 36010000 		.4byte	0x136
 5581 0e01 05       		.uleb128 0x5
 5582 0e02 04       		.byte	0x4
 5583 0e03 F4000000 		.4byte	0xf4
 5584 0e07 05       		.uleb128 0x5
 5585 0e08 04       		.byte	0x4
 5586 0e09 8C060000 		.4byte	0x68c
 5587 0e0d 1A       		.uleb128 0x1a
 5588 0e0e 93110000 		.4byte	.LASF311
 5589 0e12 01       		.byte	0x1
 5590 0e13 3C03     		.2byte	0x33c
 5591 0e15 37000000 		.4byte	0x37
 5592 0e19 00000000 		.4byte	.LFB5
 5593 0e1d C0000000 		.4byte	.LFE5-.LFB5
 5594 0e21 01       		.uleb128 0x1
 5595 0e22 9C       		.byte	0x9c
 5596 0e23 720E0000 		.4byte	0xe72
 5597 0e27 15       		.uleb128 0x15
 5598 0e28 890A0000 		.4byte	.LASF282
 5599 0e2c 01       		.byte	0x1
 5600 0e2d 3C03     		.2byte	0x33c
 5601 0e2f 0F0B0000 		.4byte	0xb0f
 5602 0e33 02       		.uleb128 0x2
 5603 0e34 91       		.byte	0x91
 5604 0e35 6C       		.sleb128 -20
 5605 0e36 16       		.uleb128 0x16
 5606 0e37 6F707400 		.ascii	"opt\000"
 5607 0e3b 01       		.byte	0x1
 5608 0e3c 3D03     		.2byte	0x33d
 5609 0e3e 62010000 		.4byte	0x162
 5610 0e42 02       		.uleb128 0x2
 5611 0e43 91       		.byte	0x91
 5612 0e44 6A       		.sleb128 -22
 5613 0e45 15       		.uleb128 0x15
 5614 0e46 7B080000 		.4byte	.LASF284
 5615 0e4a 01       		.byte	0x1
 5616 0e4b 3E03     		.2byte	0x33e
 5617 0e4d AC0B0000 		.4byte	0xbac
 5618 0e51 02       		.uleb128 0x2
 5619 0e52 91       		.byte	0x91
 5620 0e53 64       		.sleb128 -28
 5621 0e54 17       		.uleb128 0x17
ARM GAS  C:\Users\Aluno\AppData\Local\Temp\ccHJiRYw.s 			page 145


 5622 0e55 747300   		.ascii	"ts\000"
 5623 0e58 01       		.byte	0x1
 5624 0e59 4003     		.2byte	0x340
 5625 0e5b F4000000 		.4byte	0xf4
 5626 0e5f 02       		.uleb128 0x2
 5627 0e60 91       		.byte	0x91
 5628 0e61 70       		.sleb128 -16
 5629 0e62 18       		.uleb128 0x18
 5630 0e63 71050000 		.4byte	.LASF286
 5631 0e67 01       		.byte	0x1
 5632 0e68 4103     		.2byte	0x341
 5633 0e6a DD000000 		.4byte	0xdd
 5634 0e6e 02       		.uleb128 0x2
 5635 0e6f 91       		.byte	0x91
 5636 0e70 74       		.sleb128 -12
 5637 0e71 00       		.byte	0
 5638 0e72 19       		.uleb128 0x19
 5639 0e73 F40E0000 		.4byte	.LASF312
 5640 0e77 01       		.byte	0x1
 5641 0e78 A203     		.2byte	0x3a2
 5642 0e7a 00000000 		.4byte	.LFB6
 5643 0e7e 62000000 		.4byte	.LFE6-.LFB6
 5644 0e82 01       		.uleb128 0x1
 5645 0e83 9C       		.byte	0x9c
 5646 0e84 E20E0000 		.4byte	0xee2
 5647 0e88 15       		.uleb128 0x15
 5648 0e89 890A0000 		.4byte	.LASF282
 5649 0e8d 01       		.byte	0x1
 5650 0e8e A203     		.2byte	0x3a2
 5651 0e90 0F0B0000 		.4byte	0xb0f
 5652 0e94 02       		.uleb128 0x2
 5653 0e95 91       		.byte	0x91
 5654 0e96 6C       		.sleb128 -20
 5655 0e97 15       		.uleb128 0x15
 5656 0e98 19040000 		.4byte	.LASF310
 5657 0e9c 01       		.byte	0x1
 5658 0e9d A303     		.2byte	0x3a3
 5659 0e9f BA000000 		.4byte	0xba
 5660 0ea3 02       		.uleb128 0x2
 5661 0ea4 91       		.byte	0x91
 5662 0ea5 68       		.sleb128 -24
 5663 0ea6 15       		.uleb128 0x15
 5664 0ea7 52130000 		.4byte	.LASF313
 5665 0eab 01       		.byte	0x1
 5666 0eac A403     		.2byte	0x3a4
 5667 0eae 36010000 		.4byte	0x136
 5668 0eb2 02       		.uleb128 0x2
 5669 0eb3 91       		.byte	0x91
 5670 0eb4 66       		.sleb128 -26
 5671 0eb5 16       		.uleb128 0x16
 5672 0eb6 6F707400 		.ascii	"opt\000"
 5673 0eba 01       		.byte	0x1
 5674 0ebb A503     		.2byte	0x3a5
 5675 0ebd 62010000 		.4byte	0x162
 5676 0ec1 02       		.uleb128 0x2
 5677 0ec2 91       		.byte	0x91
 5678 0ec3 64       		.sleb128 -28
ARM GAS  C:\Users\Aluno\AppData\Local\Temp\ccHJiRYw.s 			page 146


 5679 0ec4 15       		.uleb128 0x15
 5680 0ec5 7B080000 		.4byte	.LASF284
 5681 0ec9 01       		.byte	0x1
 5682 0eca A603     		.2byte	0x3a6
 5683 0ecc AC0B0000 		.4byte	0xbac
 5684 0ed0 02       		.uleb128 0x2
 5685 0ed1 91       		.byte	0x91
 5686 0ed2 00       		.sleb128 0
 5687 0ed3 17       		.uleb128 0x17
 5688 0ed4 747300   		.ascii	"ts\000"
 5689 0ed7 01       		.byte	0x1
 5690 0ed8 A803     		.2byte	0x3a8
 5691 0eda F4000000 		.4byte	0xf4
 5692 0ede 02       		.uleb128 0x2
 5693 0edf 91       		.byte	0x91
 5694 0ee0 74       		.sleb128 -12
 5695 0ee1 00       		.byte	0
 5696 0ee2 1A       		.uleb128 0x1a
 5697 0ee3 E9090000 		.4byte	.LASF314
 5698 0ee7 01       		.byte	0x1
 5699 0ee8 F303     		.2byte	0x3f3
 5700 0eea 78010000 		.4byte	0x178
 5701 0eee 00000000 		.4byte	.LFB7
 5702 0ef2 60000000 		.4byte	.LFE7-.LFB7
 5703 0ef6 01       		.uleb128 0x1
 5704 0ef7 9C       		.byte	0x9c
 5705 0ef8 470F0000 		.4byte	0xf47
 5706 0efc 15       		.uleb128 0x15
 5707 0efd 890A0000 		.4byte	.LASF282
 5708 0f01 01       		.byte	0x1
 5709 0f02 F303     		.2byte	0x3f3
 5710 0f04 0F0B0000 		.4byte	0xb0f
 5711 0f08 02       		.uleb128 0x2
 5712 0f09 91       		.byte	0x91
 5713 0f0a 6C       		.sleb128 -20
 5714 0f0b 16       		.uleb128 0x16
 5715 0f0c 696400   		.ascii	"id\000"
 5716 0f0f 01       		.byte	0x1
 5717 0f10 F403     		.2byte	0x3f4
 5718 0f12 83010000 		.4byte	0x183
 5719 0f16 02       		.uleb128 0x2
 5720 0f17 91       		.byte	0x91
 5721 0f18 6B       		.sleb128 -21
 5722 0f19 15       		.uleb128 0x15
 5723 0f1a 7B080000 		.4byte	.LASF284
 5724 0f1e 01       		.byte	0x1
 5725 0f1f F503     		.2byte	0x3f5
 5726 0f21 AC0B0000 		.4byte	0xbac
 5727 0f25 02       		.uleb128 0x2
 5728 0f26 91       		.byte	0x91
 5729 0f27 64       		.sleb128 -28
 5730 0f28 18       		.uleb128 0x18
 5731 0f29 93060000 		.4byte	.LASF315
 5732 0f2d 01       		.byte	0x1
 5733 0f2e F703     		.2byte	0x3f7
 5734 0f30 78010000 		.4byte	0x178
 5735 0f34 02       		.uleb128 0x2
ARM GAS  C:\Users\Aluno\AppData\Local\Temp\ccHJiRYw.s 			page 147


 5736 0f35 91       		.byte	0x91
 5737 0f36 70       		.sleb128 -16
 5738 0f37 18       		.uleb128 0x18
 5739 0f38 71050000 		.4byte	.LASF286
 5740 0f3c 01       		.byte	0x1
 5741 0f3d F803     		.2byte	0x3f8
 5742 0f3f DD000000 		.4byte	0xdd
 5743 0f43 02       		.uleb128 0x2
 5744 0f44 91       		.byte	0x91
 5745 0f45 74       		.sleb128 -12
 5746 0f46 00       		.byte	0
 5747 0f47 1A       		.uleb128 0x1a
 5748 0f48 91090000 		.4byte	.LASF316
 5749 0f4c 01       		.byte	0x1
 5750 0f4d 2804     		.2byte	0x428
 5751 0f4f 83010000 		.4byte	0x183
 5752 0f53 00000000 		.4byte	.LFB8
 5753 0f57 58000000 		.4byte	.LFE8-.LFB8
 5754 0f5b 01       		.uleb128 0x1
 5755 0f5c 9C       		.byte	0x9c
 5756 0f5d 8E0F0000 		.4byte	0xf8e
 5757 0f61 15       		.uleb128 0x15
 5758 0f62 7B080000 		.4byte	.LASF284
 5759 0f66 01       		.byte	0x1
 5760 0f67 2804     		.2byte	0x428
 5761 0f69 AC0B0000 		.4byte	0xbac
 5762 0f6d 02       		.uleb128 0x2
 5763 0f6e 91       		.byte	0x91
 5764 0f6f 6C       		.sleb128 -20
 5765 0f70 17       		.uleb128 0x17
 5766 0f71 696400   		.ascii	"id\000"
 5767 0f74 01       		.byte	0x1
 5768 0f75 2A04     		.2byte	0x42a
 5769 0f77 83010000 		.4byte	0x183
 5770 0f7b 02       		.uleb128 0x2
 5771 0f7c 91       		.byte	0x91
 5772 0f7d 73       		.sleb128 -13
 5773 0f7e 18       		.uleb128 0x18
 5774 0f7f 71050000 		.4byte	.LASF286
 5775 0f83 01       		.byte	0x1
 5776 0f84 2B04     		.2byte	0x42b
 5777 0f86 DD000000 		.4byte	0xdd
 5778 0f8a 02       		.uleb128 0x2
 5779 0f8b 91       		.byte	0x91
 5780 0f8c 74       		.sleb128 -12
 5781 0f8d 00       		.byte	0
 5782 0f8e 19       		.uleb128 0x19
 5783 0f8f 02050000 		.4byte	.LASF317
 5784 0f93 01       		.byte	0x1
 5785 0f94 6004     		.2byte	0x460
 5786 0f96 00000000 		.4byte	.LFB9
 5787 0f9a 5C000000 		.4byte	.LFE9-.LFB9
 5788 0f9e 01       		.uleb128 0x1
 5789 0f9f 9C       		.byte	0x9c
 5790 0fa0 EF0F0000 		.4byte	0xfef
 5791 0fa4 15       		.uleb128 0x15
 5792 0fa5 890A0000 		.4byte	.LASF282
ARM GAS  C:\Users\Aluno\AppData\Local\Temp\ccHJiRYw.s 			page 148


 5793 0fa9 01       		.byte	0x1
 5794 0faa 6004     		.2byte	0x460
 5795 0fac 0F0B0000 		.4byte	0xb0f
 5796 0fb0 02       		.uleb128 0x2
 5797 0fb1 91       		.byte	0x91
 5798 0fb2 6C       		.sleb128 -20
 5799 0fb3 16       		.uleb128 0x16
 5800 0fb4 696400   		.ascii	"id\000"
 5801 0fb7 01       		.byte	0x1
 5802 0fb8 6104     		.2byte	0x461
 5803 0fba 83010000 		.4byte	0x183
 5804 0fbe 02       		.uleb128 0x2
 5805 0fbf 91       		.byte	0x91
 5806 0fc0 6B       		.sleb128 -21
 5807 0fc1 15       		.uleb128 0x15
 5808 0fc2 93060000 		.4byte	.LASF315
 5809 0fc6 01       		.byte	0x1
 5810 0fc7 6204     		.2byte	0x462
 5811 0fc9 78010000 		.4byte	0x178
 5812 0fcd 02       		.uleb128 0x2
 5813 0fce 91       		.byte	0x91
 5814 0fcf 64       		.sleb128 -28
 5815 0fd0 15       		.uleb128 0x15
 5816 0fd1 7B080000 		.4byte	.LASF284
 5817 0fd5 01       		.byte	0x1
 5818 0fd6 6304     		.2byte	0x463
 5819 0fd8 AC0B0000 		.4byte	0xbac
 5820 0fdc 02       		.uleb128 0x2
 5821 0fdd 91       		.byte	0x91
 5822 0fde 60       		.sleb128 -32
 5823 0fdf 18       		.uleb128 0x18
 5824 0fe0 71050000 		.4byte	.LASF286
 5825 0fe4 01       		.byte	0x1
 5826 0fe5 6504     		.2byte	0x465
 5827 0fe7 DD000000 		.4byte	0xdd
 5828 0feb 02       		.uleb128 0x2
 5829 0fec 91       		.byte	0x91
 5830 0fed 74       		.sleb128 -12
 5831 0fee 00       		.byte	0
 5832 0fef 19       		.uleb128 0x19
 5833 0ff0 0F050000 		.4byte	.LASF318
 5834 0ff4 01       		.byte	0x1
 5835 0ff5 9804     		.2byte	0x498
 5836 0ff7 00000000 		.4byte	.LFB10
 5837 0ffb 64000000 		.4byte	.LFE10-.LFB10
 5838 0fff 01       		.uleb128 0x1
 5839 1000 9C       		.byte	0x9c
 5840 1001 33100000 		.4byte	0x1033
 5841 1005 15       		.uleb128 0x15
 5842 1006 890A0000 		.4byte	.LASF282
 5843 100a 01       		.byte	0x1
 5844 100b 9804     		.2byte	0x498
 5845 100d 0F0B0000 		.4byte	0xb0f
 5846 1011 02       		.uleb128 0x2
 5847 1012 91       		.byte	0x91
 5848 1013 6C       		.sleb128 -20
 5849 1014 15       		.uleb128 0x15
ARM GAS  C:\Users\Aluno\AppData\Local\Temp\ccHJiRYw.s 			page 149


 5850 1015 7B080000 		.4byte	.LASF284
 5851 1019 01       		.byte	0x1
 5852 101a 9904     		.2byte	0x499
 5853 101c AC0B0000 		.4byte	0xbac
 5854 1020 02       		.uleb128 0x2
 5855 1021 91       		.byte	0x91
 5856 1022 68       		.sleb128 -24
 5857 1023 18       		.uleb128 0x18
 5858 1024 71050000 		.4byte	.LASF286
 5859 1028 01       		.byte	0x1
 5860 1029 9B04     		.2byte	0x49b
 5861 102b DD000000 		.4byte	0xdd
 5862 102f 02       		.uleb128 0x2
 5863 1030 91       		.byte	0x91
 5864 1031 74       		.sleb128 -12
 5865 1032 00       		.byte	0
 5866 1033 1A       		.uleb128 0x1a
 5867 1034 3F110000 		.4byte	.LASF319
 5868 1038 01       		.byte	0x1
 5869 1039 EE04     		.2byte	0x4ee
 5870 103b 8E010000 		.4byte	0x18e
 5871 103f 00000000 		.4byte	.LFB11
 5872 1043 E0010000 		.4byte	.LFE11-.LFB11
 5873 1047 01       		.uleb128 0x1
 5874 1048 9C       		.byte	0x9c
 5875 1049 A8100000 		.4byte	0x10a8
 5876 104d 15       		.uleb128 0x15
 5877 104e 4C120000 		.4byte	.LASF306
 5878 1052 01       		.byte	0x1
 5879 1053 EE04     		.2byte	0x4ee
 5880 1055 AF010000 		.4byte	0x1af
 5881 1059 02       		.uleb128 0x2
 5882 105a 91       		.byte	0x91
 5883 105b 64       		.sleb128 -28
 5884 105c 16       		.uleb128 0x16
 5885 105d 6F707400 		.ascii	"opt\000"
 5886 1061 01       		.byte	0x1
 5887 1062 EF04     		.2byte	0x4ef
 5888 1064 62010000 		.4byte	0x162
 5889 1068 02       		.uleb128 0x2
 5890 1069 91       		.byte	0x91
 5891 106a 62       		.sleb128 -30
 5892 106b 15       		.uleb128 0x15
 5893 106c 310D0000 		.4byte	.LASF308
 5894 1070 01       		.byte	0x1
 5895 1071 F004     		.2byte	0x4f0
 5896 1073 010E0000 		.4byte	0xe01
 5897 1077 02       		.uleb128 0x2
 5898 1078 91       		.byte	0x91
 5899 1079 5C       		.sleb128 -36
 5900 107a 15       		.uleb128 0x15
 5901 107b 7B080000 		.4byte	.LASF284
 5902 107f 01       		.byte	0x1
 5903 1080 F104     		.2byte	0x4f1
 5904 1082 AC0B0000 		.4byte	0xbac
 5905 1086 02       		.uleb128 0x2
 5906 1087 91       		.byte	0x91
ARM GAS  C:\Users\Aluno\AppData\Local\Temp\ccHJiRYw.s 			page 150


 5907 1088 58       		.sleb128 -40
 5908 1089 17       		.uleb128 0x17
 5909 108a 63747200 		.ascii	"ctr\000"
 5910 108e 01       		.byte	0x1
 5911 108f F304     		.2byte	0x4f3
 5912 1091 8E010000 		.4byte	0x18e
 5913 1095 02       		.uleb128 0x2
 5914 1096 91       		.byte	0x91
 5915 1097 68       		.sleb128 -24
 5916 1098 18       		.uleb128 0x18
 5917 1099 71050000 		.4byte	.LASF286
 5918 109d 01       		.byte	0x1
 5919 109e F404     		.2byte	0x4f4
 5920 10a0 DD000000 		.4byte	0xdd
 5921 10a4 02       		.uleb128 0x2
 5922 10a5 91       		.byte	0x91
 5923 10a6 6C       		.sleb128 -20
 5924 10a7 00       		.byte	0
 5925 10a8 1A       		.uleb128 0x1a
 5926 10a9 E10E0000 		.4byte	.LASF320
 5927 10ad 01       		.byte	0x1
 5928 10ae 8105     		.2byte	0x581
 5929 10b0 37000000 		.4byte	0x37
 5930 10b4 00000000 		.4byte	.LFB12
 5931 10b8 CC000000 		.4byte	.LFE12-.LFB12
 5932 10bc 01       		.uleb128 0x1
 5933 10bd 9C       		.byte	0x9c
 5934 10be 0D110000 		.4byte	0x110d
 5935 10c2 15       		.uleb128 0x15
 5936 10c3 890A0000 		.4byte	.LASF282
 5937 10c7 01       		.byte	0x1
 5938 10c8 8105     		.2byte	0x581
 5939 10ca 0F0B0000 		.4byte	0xb0f
 5940 10ce 02       		.uleb128 0x2
 5941 10cf 91       		.byte	0x91
 5942 10d0 6C       		.sleb128 -20
 5943 10d1 16       		.uleb128 0x16
 5944 10d2 6F707400 		.ascii	"opt\000"
 5945 10d6 01       		.byte	0x1
 5946 10d7 8205     		.2byte	0x582
 5947 10d9 62010000 		.4byte	0x162
 5948 10dd 02       		.uleb128 0x2
 5949 10de 91       		.byte	0x91
 5950 10df 6A       		.sleb128 -22
 5951 10e0 15       		.uleb128 0x15
 5952 10e1 7B080000 		.4byte	.LASF284
 5953 10e5 01       		.byte	0x1
 5954 10e6 8305     		.2byte	0x583
 5955 10e8 AC0B0000 		.4byte	0xbac
 5956 10ec 02       		.uleb128 0x2
 5957 10ed 91       		.byte	0x91
 5958 10ee 64       		.sleb128 -28
 5959 10ef 17       		.uleb128 0x17
 5960 10f0 747300   		.ascii	"ts\000"
 5961 10f3 01       		.byte	0x1
 5962 10f4 8505     		.2byte	0x585
 5963 10f6 F4000000 		.4byte	0xf4
ARM GAS  C:\Users\Aluno\AppData\Local\Temp\ccHJiRYw.s 			page 151


 5964 10fa 02       		.uleb128 0x2
 5965 10fb 91       		.byte	0x91
 5966 10fc 70       		.sleb128 -16
 5967 10fd 18       		.uleb128 0x18
 5968 10fe 71050000 		.4byte	.LASF286
 5969 1102 01       		.byte	0x1
 5970 1103 8605     		.2byte	0x586
 5971 1105 DD000000 		.4byte	0xdd
 5972 1109 02       		.uleb128 0x2
 5973 110a 91       		.byte	0x91
 5974 110b 74       		.sleb128 -12
 5975 110c 00       		.byte	0
 5976 110d 1A       		.uleb128 0x1a
 5977 110e 12030000 		.4byte	.LASF321
 5978 1112 01       		.byte	0x1
 5979 1113 D905     		.2byte	0x5d9
 5980 1115 8E010000 		.4byte	0x18e
 5981 1119 00000000 		.4byte	.LFB13
 5982 111d 46000000 		.4byte	.LFE13-.LFB13
 5983 1121 01       		.uleb128 0x1
 5984 1122 9C       		.byte	0x9c
 5985 1123 72110000 		.4byte	0x1172
 5986 1127 15       		.uleb128 0x15
 5987 1128 890A0000 		.4byte	.LASF282
 5988 112c 01       		.byte	0x1
 5989 112d D905     		.2byte	0x5d9
 5990 112f 0F0B0000 		.4byte	0xb0f
 5991 1133 02       		.uleb128 0x2
 5992 1134 91       		.byte	0x91
 5993 1135 6C       		.sleb128 -20
 5994 1136 16       		.uleb128 0x16
 5995 1137 6F707400 		.ascii	"opt\000"
 5996 113b 01       		.byte	0x1
 5997 113c DA05     		.2byte	0x5da
 5998 113e 62010000 		.4byte	0x162
 5999 1142 02       		.uleb128 0x2
 6000 1143 91       		.byte	0x91
 6001 1144 6A       		.sleb128 -22
 6002 1145 15       		.uleb128 0x15
 6003 1146 7B080000 		.4byte	.LASF284
 6004 114a 01       		.byte	0x1
 6005 114b DB05     		.2byte	0x5db
 6006 114d AC0B0000 		.4byte	0xbac
 6007 1151 02       		.uleb128 0x2
 6008 1152 91       		.byte	0x91
 6009 1153 64       		.sleb128 -28
 6010 1154 17       		.uleb128 0x17
 6011 1155 63747200 		.ascii	"ctr\000"
 6012 1159 01       		.byte	0x1
 6013 115a DD05     		.2byte	0x5dd
 6014 115c 8E010000 		.4byte	0x18e
 6015 1160 02       		.uleb128 0x2
 6016 1161 91       		.byte	0x91
 6017 1162 70       		.sleb128 -16
 6018 1163 17       		.uleb128 0x17
 6019 1164 747300   		.ascii	"ts\000"
 6020 1167 01       		.byte	0x1
ARM GAS  C:\Users\Aluno\AppData\Local\Temp\ccHJiRYw.s 			page 152


 6021 1168 DE05     		.2byte	0x5de
 6022 116a F4000000 		.4byte	0xf4
 6023 116e 02       		.uleb128 0x2
 6024 116f 91       		.byte	0x91
 6025 1170 74       		.sleb128 -12
 6026 1171 00       		.byte	0
 6027 1172 1A       		.uleb128 0x1a
 6028 1173 FE060000 		.4byte	.LASF322
 6029 1177 01       		.byte	0x1
 6030 1178 2206     		.2byte	0x622
 6031 117a 8E010000 		.4byte	0x18e
 6032 117e 00000000 		.4byte	.LFB14
 6033 1182 60000000 		.4byte	.LFE14-.LFB14
 6034 1186 01       		.uleb128 0x1
 6035 1187 9C       		.byte	0x9c
 6036 1188 D8110000 		.4byte	0x11d8
 6037 118c 15       		.uleb128 0x15
 6038 118d 890A0000 		.4byte	.LASF282
 6039 1191 01       		.byte	0x1
 6040 1192 2206     		.2byte	0x622
 6041 1194 0F0B0000 		.4byte	0xb0f
 6042 1198 02       		.uleb128 0x2
 6043 1199 91       		.byte	0x91
 6044 119a 6C       		.sleb128 -20
 6045 119b 16       		.uleb128 0x16
 6046 119c 636E7400 		.ascii	"cnt\000"
 6047 11a0 01       		.byte	0x1
 6048 11a1 2306     		.2byte	0x623
 6049 11a3 8E010000 		.4byte	0x18e
 6050 11a7 02       		.uleb128 0x2
 6051 11a8 91       		.byte	0x91
 6052 11a9 68       		.sleb128 -24
 6053 11aa 15       		.uleb128 0x15
 6054 11ab 7B080000 		.4byte	.LASF284
 6055 11af 01       		.byte	0x1
 6056 11b0 2406     		.2byte	0x624
 6057 11b2 AC0B0000 		.4byte	0xbac
 6058 11b6 02       		.uleb128 0x2
 6059 11b7 91       		.byte	0x91
 6060 11b8 64       		.sleb128 -28
 6061 11b9 17       		.uleb128 0x17
 6062 11ba 63747200 		.ascii	"ctr\000"
 6063 11be 01       		.byte	0x1
 6064 11bf 2606     		.2byte	0x626
 6065 11c1 8E010000 		.4byte	0x18e
 6066 11c5 02       		.uleb128 0x2
 6067 11c6 91       		.byte	0x91
 6068 11c7 70       		.sleb128 -16
 6069 11c8 18       		.uleb128 0x18
 6070 11c9 71050000 		.4byte	.LASF286
 6071 11cd 01       		.byte	0x1
 6072 11ce 2706     		.2byte	0x627
 6073 11d0 DD000000 		.4byte	0xdd
 6074 11d4 02       		.uleb128 0x2
 6075 11d5 91       		.byte	0x91
 6076 11d6 74       		.sleb128 -12
 6077 11d7 00       		.byte	0
ARM GAS  C:\Users\Aluno\AppData\Local\Temp\ccHJiRYw.s 			page 153


 6078 11d8 19       		.uleb128 0x19
 6079 11d9 C0100000 		.4byte	.LASF323
 6080 11dd 01       		.byte	0x1
 6081 11de 5E06     		.2byte	0x65e
 6082 11e0 00000000 		.4byte	.LFB15
 6083 11e4 F0000000 		.4byte	.LFE15-.LFB15
 6084 11e8 01       		.uleb128 0x1
 6085 11e9 9C       		.byte	0x9c
 6086 11ea 58120000 		.4byte	0x1258
 6087 11ee 15       		.uleb128 0x15
 6088 11ef 890A0000 		.4byte	.LASF282
 6089 11f3 01       		.byte	0x1
 6090 11f4 5E06     		.2byte	0x65e
 6091 11f6 0F0B0000 		.4byte	0xb0f
 6092 11fa 02       		.uleb128 0x2
 6093 11fb 91       		.byte	0x91
 6094 11fc 64       		.sleb128 -28
 6095 11fd 15       		.uleb128 0x15
 6096 11fe A7070000 		.4byte	.LASF324
 6097 1202 01       		.byte	0x1
 6098 1203 5F06     		.2byte	0x65f
 6099 1205 58120000 		.4byte	0x1258
 6100 1209 02       		.uleb128 0x2
 6101 120a 91       		.byte	0x91
 6102 120b 60       		.sleb128 -32
 6103 120c 15       		.uleb128 0x15
 6104 120d 71030000 		.4byte	.LASF325
 6105 1211 01       		.byte	0x1
 6106 1212 6006     		.2byte	0x660
 6107 1214 58120000 		.4byte	0x1258
 6108 1218 02       		.uleb128 0x2
 6109 1219 91       		.byte	0x91
 6110 121a 5C       		.sleb128 -36
 6111 121b 15       		.uleb128 0x15
 6112 121c 7B080000 		.4byte	.LASF284
 6113 1220 01       		.byte	0x1
 6114 1221 6106     		.2byte	0x661
 6115 1223 AC0B0000 		.4byte	0xbac
 6116 1227 02       		.uleb128 0x2
 6117 1228 91       		.byte	0x91
 6118 1229 58       		.sleb128 -40
 6119 122a 18       		.uleb128 0x18
 6120 122b A0090000 		.4byte	.LASF326
 6121 122f 01       		.byte	0x1
 6122 1230 6306     		.2byte	0x663
 6123 1232 D2000000 		.4byte	0xd2
 6124 1236 02       		.uleb128 0x2
 6125 1237 91       		.byte	0x91
 6126 1238 74       		.sleb128 -12
 6127 1239 18       		.uleb128 0x18
 6128 123a 1F080000 		.4byte	.LASF327
 6129 123e 01       		.byte	0x1
 6130 123f 6406     		.2byte	0x664
 6131 1241 2D0B0000 		.4byte	0xb2d
 6132 1245 02       		.uleb128 0x2
 6133 1246 91       		.byte	0x91
 6134 1247 70       		.sleb128 -16
ARM GAS  C:\Users\Aluno\AppData\Local\Temp\ccHJiRYw.s 			page 154


 6135 1248 18       		.uleb128 0x18
 6136 1249 71050000 		.4byte	.LASF286
 6137 124d 01       		.byte	0x1
 6138 124e 6506     		.2byte	0x665
 6139 1250 DD000000 		.4byte	0xdd
 6140 1254 02       		.uleb128 0x2
 6141 1255 91       		.byte	0x91
 6142 1256 6C       		.sleb128 -20
 6143 1257 00       		.byte	0
 6144 1258 05       		.uleb128 0x5
 6145 1259 04       		.byte	0x4
 6146 125a D2000000 		.4byte	0xd2
 6147 125e 19       		.uleb128 0x19
 6148 125f BC110000 		.4byte	.LASF328
 6149 1263 01       		.byte	0x1
 6150 1264 CA06     		.2byte	0x6ca
 6151 1266 00000000 		.4byte	.LFB16
 6152 126a 44000000 		.4byte	.LFE16-.LFB16
 6153 126e 01       		.uleb128 0x1
 6154 126f 9C       		.byte	0x9c
 6155 1270 93120000 		.4byte	0x1293
 6156 1274 15       		.uleb128 0x15
 6157 1275 890A0000 		.4byte	.LASF282
 6158 1279 01       		.byte	0x1
 6159 127a CA06     		.2byte	0x6ca
 6160 127c 0F0B0000 		.4byte	0xb0f
 6161 1280 02       		.uleb128 0x2
 6162 1281 91       		.byte	0x91
 6163 1282 74       		.sleb128 -12
 6164 1283 15       		.uleb128 0x15
 6165 1284 7B080000 		.4byte	.LASF284
 6166 1288 01       		.byte	0x1
 6167 1289 CB06     		.2byte	0x6cb
 6168 128b AC0B0000 		.4byte	0xbac
 6169 128f 02       		.uleb128 0x2
 6170 1290 91       		.byte	0x91
 6171 1291 70       		.sleb128 -16
 6172 1292 00       		.byte	0
 6173 1293 19       		.uleb128 0x19
 6174 1294 85150000 		.4byte	.LASF329
 6175 1298 01       		.byte	0x1
 6176 1299 0E07     		.2byte	0x70e
 6177 129b 00000000 		.4byte	.LFB17
 6178 129f 7C000000 		.4byte	.LFE17-.LFB17
 6179 12a3 01       		.uleb128 0x1
 6180 12a4 9C       		.byte	0x9c
 6181 12a5 E6120000 		.4byte	0x12e6
 6182 12a9 15       		.uleb128 0x15
 6183 12aa 890A0000 		.4byte	.LASF282
 6184 12ae 01       		.byte	0x1
 6185 12af 0E07     		.2byte	0x70e
 6186 12b1 0F0B0000 		.4byte	0xb0f
 6187 12b5 02       		.uleb128 0x2
 6188 12b6 91       		.byte	0x91
 6189 12b7 6C       		.sleb128 -20
 6190 12b8 15       		.uleb128 0x15
 6191 12b9 65090000 		.4byte	.LASF297
ARM GAS  C:\Users\Aluno\AppData\Local\Temp\ccHJiRYw.s 			page 155


 6192 12bd 01       		.byte	0x1
 6193 12be 0F07     		.2byte	0x70f
 6194 12c0 AF010000 		.4byte	0x1af
 6195 12c4 02       		.uleb128 0x2
 6196 12c5 91       		.byte	0x91
 6197 12c6 68       		.sleb128 -24
 6198 12c7 15       		.uleb128 0x15
 6199 12c8 7B080000 		.4byte	.LASF284
 6200 12cc 01       		.byte	0x1
 6201 12cd 1007     		.2byte	0x710
 6202 12cf AC0B0000 		.4byte	0xbac
 6203 12d3 02       		.uleb128 0x2
 6204 12d4 91       		.byte	0x91
 6205 12d5 64       		.sleb128 -28
 6206 12d6 18       		.uleb128 0x18
 6207 12d7 71050000 		.4byte	.LASF286
 6208 12db 01       		.byte	0x1
 6209 12dc 1207     		.2byte	0x712
 6210 12de DD000000 		.4byte	0xdd
 6211 12e2 02       		.uleb128 0x2
 6212 12e3 91       		.byte	0x91
 6213 12e4 74       		.sleb128 -12
 6214 12e5 00       		.byte	0
 6215 12e6 1B       		.uleb128 0x1b
 6216 12e7 2D0F0000 		.4byte	.LASF330
 6217 12eb 01       		.byte	0x1
 6218 12ec 4607     		.2byte	0x746
 6219 12ee 00000000 		.4byte	.LFB18
 6220 12f2 4C000000 		.4byte	.LFE18-.LFB18
 6221 12f6 01       		.uleb128 0x1
 6222 12f7 9C       		.byte	0x9c
 6223 12f8 0C130000 		.4byte	0x130c
 6224 12fc 15       		.uleb128 0x15
 6225 12fd 890A0000 		.4byte	.LASF282
 6226 1301 01       		.byte	0x1
 6227 1302 4607     		.2byte	0x746
 6228 1304 0F0B0000 		.4byte	0xb0f
 6229 1308 02       		.uleb128 0x2
 6230 1309 91       		.byte	0x91
 6231 130a 74       		.sleb128 -12
 6232 130b 00       		.byte	0
 6233 130c 1B       		.uleb128 0x1b
 6234 130d F30F0000 		.4byte	.LASF331
 6235 1311 01       		.byte	0x1
 6236 1312 5407     		.2byte	0x754
 6237 1314 00000000 		.4byte	.LFB19
 6238 1318 84000000 		.4byte	.LFE19-.LFB19
 6239 131c 01       		.uleb128 0x1
 6240 131d 9C       		.byte	0x9c
 6241 131e 50130000 		.4byte	0x1350
 6242 1322 15       		.uleb128 0x15
 6243 1323 890A0000 		.4byte	.LASF282
 6244 1327 01       		.byte	0x1
 6245 1328 5407     		.2byte	0x754
 6246 132a 0F0B0000 		.4byte	0xb0f
 6247 132e 02       		.uleb128 0x2
 6248 132f 91       		.byte	0x91
ARM GAS  C:\Users\Aluno\AppData\Local\Temp\ccHJiRYw.s 			page 156


 6249 1330 6C       		.sleb128 -20
 6250 1331 18       		.uleb128 0x18
 6251 1332 DB040000 		.4byte	.LASF332
 6252 1336 01       		.byte	0x1
 6253 1337 5607     		.2byte	0x756
 6254 1339 0F0B0000 		.4byte	0xb0f
 6255 133d 02       		.uleb128 0x2
 6256 133e 91       		.byte	0x91
 6257 133f 70       		.sleb128 -16
 6258 1340 18       		.uleb128 0x18
 6259 1341 860D0000 		.4byte	.LASF333
 6260 1345 01       		.byte	0x1
 6261 1346 5707     		.2byte	0x757
 6262 1348 0F0B0000 		.4byte	0xb0f
 6263 134c 02       		.uleb128 0x2
 6264 134d 91       		.byte	0x91
 6265 134e 74       		.sleb128 -12
 6266 134f 00       		.byte	0
 6267 1350 1B       		.uleb128 0x1b
 6268 1351 48100000 		.4byte	.LASF334
 6269 1355 01       		.byte	0x1
 6270 1356 8307     		.2byte	0x783
 6271 1358 00000000 		.4byte	.LFB20
 6272 135c 38000000 		.4byte	.LFE20-.LFB20
 6273 1360 01       		.uleb128 0x1
 6274 1361 9C       		.byte	0x9c
 6275 1362 76130000 		.4byte	0x1376
 6276 1366 15       		.uleb128 0x15
 6277 1367 7B080000 		.4byte	.LASF284
 6278 136b 01       		.byte	0x1
 6279 136c 8307     		.2byte	0x783
 6280 136e AC0B0000 		.4byte	0xbac
 6281 1372 02       		.uleb128 0x2
 6282 1373 91       		.byte	0x91
 6283 1374 74       		.sleb128 -12
 6284 1375 00       		.byte	0
 6285 1376 19       		.uleb128 0x19
 6286 1377 590C0000 		.4byte	.LASF335
 6287 137b 01       		.byte	0x1
 6288 137c A507     		.2byte	0x7a5
 6289 137e 00000000 		.4byte	.LFB21
 6290 1382 98010000 		.4byte	.LFE21-.LFB21
 6291 1386 01       		.uleb128 0x1
 6292 1387 9C       		.byte	0x9c
 6293 1388 B9130000 		.4byte	0x13b9
 6294 138c 15       		.uleb128 0x15
 6295 138d 890A0000 		.4byte	.LASF282
 6296 1391 01       		.byte	0x1
 6297 1392 A507     		.2byte	0x7a5
 6298 1394 0F0B0000 		.4byte	0xb0f
 6299 1398 02       		.uleb128 0x2
 6300 1399 91       		.byte	0x91
 6301 139a 6C       		.sleb128 -20
 6302 139b 18       		.uleb128 0x18
 6303 139c 03080000 		.4byte	.LASF336
 6304 13a0 01       		.byte	0x1
 6305 13a1 A807     		.2byte	0x7a8
ARM GAS  C:\Users\Aluno\AppData\Local\Temp\ccHJiRYw.s 			page 157


 6306 13a3 83010000 		.4byte	0x183
 6307 13a7 02       		.uleb128 0x2
 6308 13a8 91       		.byte	0x91
 6309 13a9 77       		.sleb128 -9
 6310 13aa 17       		.uleb128 0x17
 6311 13ab 747300   		.ascii	"ts\000"
 6312 13ae 01       		.byte	0x1
 6313 13af AE07     		.2byte	0x7ae
 6314 13b1 F4000000 		.4byte	0xf4
 6315 13b5 02       		.uleb128 0x2
 6316 13b6 91       		.byte	0x91
 6317 13b7 70       		.sleb128 -16
 6318 13b8 00       		.byte	0
 6319 13b9 19       		.uleb128 0x19
 6320 13ba 6D130000 		.4byte	.LASF337
 6321 13be 01       		.byte	0x1
 6322 13bf 4F08     		.2byte	0x84f
 6323 13c1 00000000 		.4byte	.LFB22
 6324 13c5 F8000000 		.4byte	.LFE22-.LFB22
 6325 13c9 01       		.uleb128 0x1
 6326 13ca 9C       		.byte	0x9c
 6327 13cb 38140000 		.4byte	0x1438
 6328 13cf 15       		.uleb128 0x15
 6329 13d0 890A0000 		.4byte	.LASF282
 6330 13d4 01       		.byte	0x1
 6331 13d5 4F08     		.2byte	0x84f
 6332 13d7 0F0B0000 		.4byte	0xb0f
 6333 13db 02       		.uleb128 0x2
 6334 13dc 91       		.byte	0x91
 6335 13dd 6C       		.sleb128 -20
 6336 13de 15       		.uleb128 0x15
 6337 13df 19040000 		.4byte	.LASF310
 6338 13e3 01       		.byte	0x1
 6339 13e4 5008     		.2byte	0x850
 6340 13e6 BA000000 		.4byte	0xba
 6341 13ea 02       		.uleb128 0x2
 6342 13eb 91       		.byte	0x91
 6343 13ec 68       		.sleb128 -24
 6344 13ed 15       		.uleb128 0x15
 6345 13ee 52130000 		.4byte	.LASF313
 6346 13f2 01       		.byte	0x1
 6347 13f3 5108     		.2byte	0x851
 6348 13f5 36010000 		.4byte	0x136
 6349 13f9 02       		.uleb128 0x2
 6350 13fa 91       		.byte	0x91
 6351 13fb 66       		.sleb128 -26
 6352 13fc 16       		.uleb128 0x16
 6353 13fd 6F707400 		.ascii	"opt\000"
 6354 1401 01       		.byte	0x1
 6355 1402 5208     		.2byte	0x852
 6356 1404 62010000 		.4byte	0x162
 6357 1408 02       		.uleb128 0x2
 6358 1409 91       		.byte	0x91
 6359 140a 64       		.sleb128 -28
 6360 140b 16       		.uleb128 0x16
 6361 140c 747300   		.ascii	"ts\000"
 6362 140f 01       		.byte	0x1
ARM GAS  C:\Users\Aluno\AppData\Local\Temp\ccHJiRYw.s 			page 158


 6363 1410 5308     		.2byte	0x853
 6364 1412 F4000000 		.4byte	0xf4
 6365 1416 02       		.uleb128 0x2
 6366 1417 91       		.byte	0x91
 6367 1418 00       		.sleb128 0
 6368 1419 15       		.uleb128 0x15
 6369 141a 7B080000 		.4byte	.LASF284
 6370 141e 01       		.byte	0x1
 6371 141f 5408     		.2byte	0x854
 6372 1421 AC0B0000 		.4byte	0xbac
 6373 1425 02       		.uleb128 0x2
 6374 1426 91       		.byte	0x91
 6375 1427 04       		.sleb128 4
 6376 1428 18       		.uleb128 0x18
 6377 1429 71050000 		.4byte	.LASF286
 6378 142d 01       		.byte	0x1
 6379 142e 5608     		.2byte	0x856
 6380 1430 DD000000 		.4byte	0xdd
 6381 1434 02       		.uleb128 0x2
 6382 1435 91       		.byte	0x91
 6383 1436 74       		.sleb128 -12
 6384 1437 00       		.byte	0
 6385 1438 19       		.uleb128 0x19
 6386 1439 59110000 		.4byte	.LASF338
 6387 143d 01       		.byte	0x1
 6388 143e A708     		.2byte	0x8a7
 6389 1440 00000000 		.4byte	.LFB23
 6390 1444 24010000 		.4byte	.LFE23-.LFB23
 6391 1448 01       		.uleb128 0x1
 6392 1449 9C       		.byte	0x9c
 6393 144a 7C140000 		.4byte	0x147c
 6394 144e 15       		.uleb128 0x15
 6395 144f 890A0000 		.4byte	.LASF282
 6396 1453 01       		.byte	0x1
 6397 1454 A708     		.2byte	0x8a7
 6398 1456 0F0B0000 		.4byte	0xb0f
 6399 145a 02       		.uleb128 0x2
 6400 145b 91       		.byte	0x91
 6401 145c 6C       		.sleb128 -20
 6402 145d 15       		.uleb128 0x15
 6403 145e 7B080000 		.4byte	.LASF284
 6404 1462 01       		.byte	0x1
 6405 1463 A808     		.2byte	0x8a8
 6406 1465 AC0B0000 		.4byte	0xbac
 6407 1469 02       		.uleb128 0x2
 6408 146a 91       		.byte	0x91
 6409 146b 68       		.sleb128 -24
 6410 146c 18       		.uleb128 0x18
 6411 146d 71050000 		.4byte	.LASF286
 6412 1471 01       		.byte	0x1
 6413 1472 AA08     		.2byte	0x8aa
 6414 1474 DD000000 		.4byte	0xdd
 6415 1478 02       		.uleb128 0x2
 6416 1479 91       		.byte	0x91
 6417 147a 74       		.sleb128 -12
 6418 147b 00       		.byte	0
 6419 147c 19       		.uleb128 0x19
ARM GAS  C:\Users\Aluno\AppData\Local\Temp\ccHJiRYw.s 			page 159


 6420 147d EE040000 		.4byte	.LASF339
 6421 1481 01       		.byte	0x1
 6422 1482 F408     		.2byte	0x8f4
 6423 1484 00000000 		.4byte	.LFB24
 6424 1488 28000000 		.4byte	.LFE24-.LFB24
 6425 148c 01       		.uleb128 0x1
 6426 148d 9C       		.byte	0x9c
 6427 148e A2140000 		.4byte	0x14a2
 6428 1492 17       		.uleb128 0x17
 6429 1493 65727200 		.ascii	"err\000"
 6430 1497 01       		.byte	0x1
 6431 1498 F608     		.2byte	0x8f6
 6432 149a 32060000 		.4byte	0x632
 6433 149e 02       		.uleb128 0x2
 6434 149f 91       		.byte	0x91
 6435 14a0 76       		.sleb128 -10
 6436 14a1 00       		.byte	0
 6437 14a2 1A       		.uleb128 0x1a
 6438 14a3 AA130000 		.4byte	.LASF340
 6439 14a7 01       		.byte	0x1
 6440 14a8 2609     		.2byte	0x926
 6441 14aa 8E010000 		.4byte	0x18e
 6442 14ae 00000000 		.4byte	.LFB25
 6443 14b2 28010000 		.4byte	.LFE25-.LFB25
 6444 14b6 01       		.uleb128 0x1
 6445 14b7 9C       		.byte	0x9c
 6446 14b8 16150000 		.4byte	0x1516
 6447 14bc 15       		.uleb128 0x15
 6448 14bd 890A0000 		.4byte	.LASF282
 6449 14c1 01       		.byte	0x1
 6450 14c2 2609     		.2byte	0x926
 6451 14c4 0F0B0000 		.4byte	0xb0f
 6452 14c8 02       		.uleb128 0x2
 6453 14c9 91       		.byte	0x91
 6454 14ca 6C       		.sleb128 -20
 6455 14cb 16       		.uleb128 0x16
 6456 14cc 6F707400 		.ascii	"opt\000"
 6457 14d0 01       		.byte	0x1
 6458 14d1 2709     		.2byte	0x927
 6459 14d3 62010000 		.4byte	0x162
 6460 14d7 02       		.uleb128 0x2
 6461 14d8 91       		.byte	0x91
 6462 14d9 6A       		.sleb128 -22
 6463 14da 16       		.uleb128 0x16
 6464 14db 747300   		.ascii	"ts\000"
 6465 14de 01       		.byte	0x1
 6466 14df 2809     		.2byte	0x928
 6467 14e1 F4000000 		.4byte	0xf4
 6468 14e5 02       		.uleb128 0x2
 6469 14e6 91       		.byte	0x91
 6470 14e7 64       		.sleb128 -28
 6471 14e8 15       		.uleb128 0x15
 6472 14e9 7B080000 		.4byte	.LASF284
 6473 14ed 01       		.byte	0x1
 6474 14ee 2909     		.2byte	0x929
 6475 14f0 AC0B0000 		.4byte	0xbac
 6476 14f4 02       		.uleb128 0x2
ARM GAS  C:\Users\Aluno\AppData\Local\Temp\ccHJiRYw.s 			page 160


 6477 14f5 91       		.byte	0x91
 6478 14f6 60       		.sleb128 -32
 6479 14f7 17       		.uleb128 0x17
 6480 14f8 63747200 		.ascii	"ctr\000"
 6481 14fc 01       		.byte	0x1
 6482 14fd 2B09     		.2byte	0x92b
 6483 14ff 8E010000 		.4byte	0x18e
 6484 1503 02       		.uleb128 0x2
 6485 1504 91       		.byte	0x91
 6486 1505 74       		.sleb128 -12
 6487 1506 18       		.uleb128 0x18
 6488 1507 71050000 		.4byte	.LASF286
 6489 150b 01       		.byte	0x1
 6490 150c 2C09     		.2byte	0x92c
 6491 150e DD000000 		.4byte	0xdd
 6492 1512 02       		.uleb128 0x2
 6493 1513 91       		.byte	0x91
 6494 1514 70       		.sleb128 -16
 6495 1515 00       		.byte	0
 6496 1516 19       		.uleb128 0x19
 6497 1517 A70E0000 		.4byte	.LASF341
 6498 151b 01       		.byte	0x1
 6499 151c B609     		.2byte	0x9b6
 6500 151e 00000000 		.4byte	.LFB26
 6501 1522 18010000 		.4byte	.LFE26-.LFB26
 6502 1526 01       		.uleb128 0x1
 6503 1527 9C       		.byte	0x9c
 6504 1528 5A150000 		.4byte	0x155a
 6505 152c 15       		.uleb128 0x15
 6506 152d 890A0000 		.4byte	.LASF282
 6507 1531 01       		.byte	0x1
 6508 1532 B609     		.2byte	0x9b6
 6509 1534 0F0B0000 		.4byte	0xb0f
 6510 1538 02       		.uleb128 0x2
 6511 1539 91       		.byte	0x91
 6512 153a 6C       		.sleb128 -20
 6513 153b 15       		.uleb128 0x15
 6514 153c 7B080000 		.4byte	.LASF284
 6515 1540 01       		.byte	0x1
 6516 1541 B709     		.2byte	0x9b7
 6517 1543 AC0B0000 		.4byte	0xbac
 6518 1547 02       		.uleb128 0x2
 6519 1548 91       		.byte	0x91
 6520 1549 68       		.sleb128 -24
 6521 154a 18       		.uleb128 0x18
 6522 154b 71050000 		.4byte	.LASF286
 6523 154f 01       		.byte	0x1
 6524 1550 B909     		.2byte	0x9b9
 6525 1552 DD000000 		.4byte	0xdd
 6526 1556 02       		.uleb128 0x2
 6527 1557 91       		.byte	0x91
 6528 1558 74       		.sleb128 -12
 6529 1559 00       		.byte	0
 6530 155a 1C       		.uleb128 0x1c
 6531 155b DC060000 		.4byte	.LASF342
 6532 155f 05       		.byte	0x5
 6533 1560 5C04     		.2byte	0x45c
ARM GAS  C:\Users\Aluno\AppData\Local\Temp\ccHJiRYw.s 			page 161


 6534 1562 F3060000 		.4byte	0x6f3
 6535 1566 1C       		.uleb128 0x1c
 6536 1567 FC0D0000 		.4byte	.LASF343
 6537 156b 05       		.byte	0x5
 6538 156c 5F04     		.2byte	0x45f
 6539 156e 41010000 		.4byte	0x141
 6540 1572 1C       		.uleb128 0x1c
 6541 1573 81080000 		.4byte	.LASF344
 6542 1577 05       		.byte	0x5
 6543 1578 6404     		.2byte	0x464
 6544 157a 99010000 		.4byte	0x199
 6545 157e 1C       		.uleb128 0x1c
 6546 157f 1E120000 		.4byte	.LASF345
 6547 1583 05       		.byte	0x5
 6548 1584 AD04     		.2byte	0x4ad
 6549 1586 41010000 		.4byte	0x141
 6550 158a 1C       		.uleb128 0x1c
 6551 158b E50C0000 		.4byte	.LASF346
 6552 158f 05       		.byte	0x5
 6553 1590 AF04     		.2byte	0x4af
 6554 1592 AF010000 		.4byte	0x1af
 6555 1596 1C       		.uleb128 0x1c
 6556 1597 CE080000 		.4byte	.LASF347
 6557 159b 05       		.byte	0x5
 6558 159c C804     		.2byte	0x4c8
 6559 159e 0A010000 		.4byte	0x10a
 6560 15a2 1C       		.uleb128 0x1c
 6561 15a3 A4140000 		.4byte	.LASF348
 6562 15a7 05       		.byte	0x5
 6563 15a8 CA04     		.2byte	0x4ca
 6564 15aa 0F0B0000 		.4byte	0xb0f
 6565 15ae 1C       		.uleb128 0x1c
 6566 15af 5F0B0000 		.4byte	.LASF349
 6567 15b3 05       		.byte	0x5
 6568 15b4 CC04     		.2byte	0x4cc
 6569 15b6 4C010000 		.4byte	0x14c
 6570 15ba 1C       		.uleb128 0x1c
 6571 15bb 4A0B0000 		.4byte	.LASF350
 6572 15bf 05       		.byte	0x5
 6573 15c0 CF04     		.2byte	0x4cf
 6574 15c2 83010000 		.4byte	0x183
 6575 15c6 1C       		.uleb128 0x1c
 6576 15c7 CA010000 		.4byte	.LASF351
 6577 15cb 05       		.byte	0x5
 6578 15cc E504     		.2byte	0x4e5
 6579 15ce 0F0B0000 		.4byte	0xb0f
 6580 15d2 1C       		.uleb128 0x1c
 6581 15d3 D40C0000 		.4byte	.LASF352
 6582 15d7 05       		.byte	0x5
 6583 15d8 0D05     		.2byte	0x50d
 6584 15da DE150000 		.4byte	0x15de
 6585 15de 1D       		.uleb128 0x1d
 6586 15df D2000000 		.4byte	0xd2
 6587 15e3 00       		.byte	0
 6588              		.section	.debug_abbrev,"",%progbits
 6589              	.Ldebug_abbrev0:
 6590 0000 01       		.uleb128 0x1
ARM GAS  C:\Users\Aluno\AppData\Local\Temp\ccHJiRYw.s 			page 162


 6591 0001 11       		.uleb128 0x11
 6592 0002 01       		.byte	0x1
 6593 0003 25       		.uleb128 0x25
 6594 0004 0E       		.uleb128 0xe
 6595 0005 13       		.uleb128 0x13
 6596 0006 0B       		.uleb128 0xb
 6597 0007 03       		.uleb128 0x3
 6598 0008 0E       		.uleb128 0xe
 6599 0009 1B       		.uleb128 0x1b
 6600 000a 0E       		.uleb128 0xe
 6601 000b 55       		.uleb128 0x55
 6602 000c 17       		.uleb128 0x17
 6603 000d 11       		.uleb128 0x11
 6604 000e 01       		.uleb128 0x1
 6605 000f 10       		.uleb128 0x10
 6606 0010 17       		.uleb128 0x17
 6607 0011 00       		.byte	0
 6608 0012 00       		.byte	0
 6609 0013 02       		.uleb128 0x2
 6610 0014 16       		.uleb128 0x16
 6611 0015 00       		.byte	0
 6612 0016 03       		.uleb128 0x3
 6613 0017 0E       		.uleb128 0xe
 6614 0018 3A       		.uleb128 0x3a
 6615 0019 0B       		.uleb128 0xb
 6616 001a 3B       		.uleb128 0x3b
 6617 001b 0B       		.uleb128 0xb
 6618 001c 49       		.uleb128 0x49
 6619 001d 13       		.uleb128 0x13
 6620 001e 00       		.byte	0
 6621 001f 00       		.byte	0
 6622 0020 03       		.uleb128 0x3
 6623 0021 24       		.uleb128 0x24
 6624 0022 00       		.byte	0
 6625 0023 0B       		.uleb128 0xb
 6626 0024 0B       		.uleb128 0xb
 6627 0025 3E       		.uleb128 0x3e
 6628 0026 0B       		.uleb128 0xb
 6629 0027 03       		.uleb128 0x3
 6630 0028 0E       		.uleb128 0xe
 6631 0029 00       		.byte	0
 6632 002a 00       		.byte	0
 6633 002b 04       		.uleb128 0x4
 6634 002c 24       		.uleb128 0x24
 6635 002d 00       		.byte	0
 6636 002e 0B       		.uleb128 0xb
 6637 002f 0B       		.uleb128 0xb
 6638 0030 3E       		.uleb128 0x3e
 6639 0031 0B       		.uleb128 0xb
 6640 0032 03       		.uleb128 0x3
 6641 0033 08       		.uleb128 0x8
 6642 0034 00       		.byte	0
 6643 0035 00       		.byte	0
 6644 0036 05       		.uleb128 0x5
 6645 0037 0F       		.uleb128 0xf
 6646 0038 00       		.byte	0
 6647 0039 0B       		.uleb128 0xb
ARM GAS  C:\Users\Aluno\AppData\Local\Temp\ccHJiRYw.s 			page 163


 6648 003a 0B       		.uleb128 0xb
 6649 003b 49       		.uleb128 0x49
 6650 003c 13       		.uleb128 0x13
 6651 003d 00       		.byte	0
 6652 003e 00       		.byte	0
 6653 003f 06       		.uleb128 0x6
 6654 0040 15       		.uleb128 0x15
 6655 0041 01       		.byte	0x1
 6656 0042 27       		.uleb128 0x27
 6657 0043 19       		.uleb128 0x19
 6658 0044 01       		.uleb128 0x1
 6659 0045 13       		.uleb128 0x13
 6660 0046 00       		.byte	0
 6661 0047 00       		.byte	0
 6662 0048 07       		.uleb128 0x7
 6663 0049 05       		.uleb128 0x5
 6664 004a 00       		.byte	0
 6665 004b 49       		.uleb128 0x49
 6666 004c 13       		.uleb128 0x13
 6667 004d 00       		.byte	0
 6668 004e 00       		.byte	0
 6669 004f 08       		.uleb128 0x8
 6670 0050 0F       		.uleb128 0xf
 6671 0051 00       		.byte	0
 6672 0052 0B       		.uleb128 0xb
 6673 0053 0B       		.uleb128 0xb
 6674 0054 00       		.byte	0
 6675 0055 00       		.byte	0
 6676 0056 09       		.uleb128 0x9
 6677 0057 16       		.uleb128 0x16
 6678 0058 00       		.byte	0
 6679 0059 03       		.uleb128 0x3
 6680 005a 0E       		.uleb128 0xe
 6681 005b 3A       		.uleb128 0x3a
 6682 005c 0B       		.uleb128 0xb
 6683 005d 3B       		.uleb128 0x3b
 6684 005e 05       		.uleb128 0x5
 6685 005f 49       		.uleb128 0x49
 6686 0060 13       		.uleb128 0x13
 6687 0061 00       		.byte	0
 6688 0062 00       		.byte	0
 6689 0063 0A       		.uleb128 0xa
 6690 0064 04       		.uleb128 0x4
 6691 0065 01       		.byte	0x1
 6692 0066 03       		.uleb128 0x3
 6693 0067 0E       		.uleb128 0xe
 6694 0068 0B       		.uleb128 0xb
 6695 0069 0B       		.uleb128 0xb
 6696 006a 49       		.uleb128 0x49
 6697 006b 13       		.uleb128 0x13
 6698 006c 3A       		.uleb128 0x3a
 6699 006d 0B       		.uleb128 0xb
 6700 006e 3B       		.uleb128 0x3b
 6701 006f 05       		.uleb128 0x5
 6702 0070 01       		.uleb128 0x1
 6703 0071 13       		.uleb128 0x13
 6704 0072 00       		.byte	0
ARM GAS  C:\Users\Aluno\AppData\Local\Temp\ccHJiRYw.s 			page 164


 6705 0073 00       		.byte	0
 6706 0074 0B       		.uleb128 0xb
 6707 0075 28       		.uleb128 0x28
 6708 0076 00       		.byte	0
 6709 0077 03       		.uleb128 0x3
 6710 0078 0E       		.uleb128 0xe
 6711 0079 1C       		.uleb128 0x1c
 6712 007a 0B       		.uleb128 0xb
 6713 007b 00       		.byte	0
 6714 007c 00       		.byte	0
 6715 007d 0C       		.uleb128 0xc
 6716 007e 28       		.uleb128 0x28
 6717 007f 00       		.byte	0
 6718 0080 03       		.uleb128 0x3
 6719 0081 0E       		.uleb128 0xe
 6720 0082 1C       		.uleb128 0x1c
 6721 0083 05       		.uleb128 0x5
 6722 0084 00       		.byte	0
 6723 0085 00       		.byte	0
 6724 0086 0D       		.uleb128 0xd
 6725 0087 13       		.uleb128 0x13
 6726 0088 01       		.byte	0x1
 6727 0089 03       		.uleb128 0x3
 6728 008a 0E       		.uleb128 0xe
 6729 008b 0B       		.uleb128 0xb
 6730 008c 0B       		.uleb128 0xb
 6731 008d 3A       		.uleb128 0x3a
 6732 008e 0B       		.uleb128 0xb
 6733 008f 3B       		.uleb128 0x3b
 6734 0090 05       		.uleb128 0x5
 6735 0091 01       		.uleb128 0x1
 6736 0092 13       		.uleb128 0x13
 6737 0093 00       		.byte	0
 6738 0094 00       		.byte	0
 6739 0095 0E       		.uleb128 0xe
 6740 0096 0D       		.uleb128 0xd
 6741 0097 00       		.byte	0
 6742 0098 03       		.uleb128 0x3
 6743 0099 0E       		.uleb128 0xe
 6744 009a 3A       		.uleb128 0x3a
 6745 009b 0B       		.uleb128 0xb
 6746 009c 3B       		.uleb128 0x3b
 6747 009d 05       		.uleb128 0x5
 6748 009e 49       		.uleb128 0x49
 6749 009f 13       		.uleb128 0x13
 6750 00a0 38       		.uleb128 0x38
 6751 00a1 0B       		.uleb128 0xb
 6752 00a2 00       		.byte	0
 6753 00a3 00       		.byte	0
 6754 00a4 0F       		.uleb128 0xf
 6755 00a5 0D       		.uleb128 0xd
 6756 00a6 00       		.byte	0
 6757 00a7 03       		.uleb128 0x3
 6758 00a8 08       		.uleb128 0x8
 6759 00a9 3A       		.uleb128 0x3a
 6760 00aa 0B       		.uleb128 0xb
 6761 00ab 3B       		.uleb128 0x3b
ARM GAS  C:\Users\Aluno\AppData\Local\Temp\ccHJiRYw.s 			page 165


 6762 00ac 05       		.uleb128 0x5
 6763 00ad 49       		.uleb128 0x49
 6764 00ae 13       		.uleb128 0x13
 6765 00af 38       		.uleb128 0x38
 6766 00b0 0B       		.uleb128 0xb
 6767 00b1 00       		.byte	0
 6768 00b2 00       		.byte	0
 6769 00b3 10       		.uleb128 0x10
 6770 00b4 01       		.uleb128 0x1
 6771 00b5 01       		.byte	0x1
 6772 00b6 49       		.uleb128 0x49
 6773 00b7 13       		.uleb128 0x13
 6774 00b8 01       		.uleb128 0x1
 6775 00b9 13       		.uleb128 0x13
 6776 00ba 00       		.byte	0
 6777 00bb 00       		.byte	0
 6778 00bc 11       		.uleb128 0x11
 6779 00bd 21       		.uleb128 0x21
 6780 00be 00       		.byte	0
 6781 00bf 49       		.uleb128 0x49
 6782 00c0 13       		.uleb128 0x13
 6783 00c1 2F       		.uleb128 0x2f
 6784 00c2 0B       		.uleb128 0xb
 6785 00c3 00       		.byte	0
 6786 00c4 00       		.byte	0
 6787 00c5 12       		.uleb128 0x12
 6788 00c6 2E       		.uleb128 0x2e
 6789 00c7 01       		.byte	0x1
 6790 00c8 3F       		.uleb128 0x3f
 6791 00c9 19       		.uleb128 0x19
 6792 00ca 03       		.uleb128 0x3
 6793 00cb 0E       		.uleb128 0xe
 6794 00cc 3A       		.uleb128 0x3a
 6795 00cd 0B       		.uleb128 0xb
 6796 00ce 3B       		.uleb128 0x3b
 6797 00cf 0B       		.uleb128 0xb
 6798 00d0 27       		.uleb128 0x27
 6799 00d1 19       		.uleb128 0x19
 6800 00d2 11       		.uleb128 0x11
 6801 00d3 01       		.uleb128 0x1
 6802 00d4 12       		.uleb128 0x12
 6803 00d5 06       		.uleb128 0x6
 6804 00d6 40       		.uleb128 0x40
 6805 00d7 18       		.uleb128 0x18
 6806 00d8 9642     		.uleb128 0x2116
 6807 00da 19       		.uleb128 0x19
 6808 00db 01       		.uleb128 0x1
 6809 00dc 13       		.uleb128 0x13
 6810 00dd 00       		.byte	0
 6811 00de 00       		.byte	0
 6812 00df 13       		.uleb128 0x13
 6813 00e0 05       		.uleb128 0x5
 6814 00e1 00       		.byte	0
 6815 00e2 03       		.uleb128 0x3
 6816 00e3 0E       		.uleb128 0xe
 6817 00e4 3A       		.uleb128 0x3a
 6818 00e5 0B       		.uleb128 0xb
ARM GAS  C:\Users\Aluno\AppData\Local\Temp\ccHJiRYw.s 			page 166


 6819 00e6 3B       		.uleb128 0x3b
 6820 00e7 0B       		.uleb128 0xb
 6821 00e8 49       		.uleb128 0x49
 6822 00e9 13       		.uleb128 0x13
 6823 00ea 02       		.uleb128 0x2
 6824 00eb 18       		.uleb128 0x18
 6825 00ec 00       		.byte	0
 6826 00ed 00       		.byte	0
 6827 00ee 14       		.uleb128 0x14
 6828 00ef 34       		.uleb128 0x34
 6829 00f0 00       		.byte	0
 6830 00f1 03       		.uleb128 0x3
 6831 00f2 0E       		.uleb128 0xe
 6832 00f3 3A       		.uleb128 0x3a
 6833 00f4 0B       		.uleb128 0xb
 6834 00f5 3B       		.uleb128 0x3b
 6835 00f6 0B       		.uleb128 0xb
 6836 00f7 49       		.uleb128 0x49
 6837 00f8 13       		.uleb128 0x13
 6838 00f9 02       		.uleb128 0x2
 6839 00fa 18       		.uleb128 0x18
 6840 00fb 00       		.byte	0
 6841 00fc 00       		.byte	0
 6842 00fd 15       		.uleb128 0x15
 6843 00fe 05       		.uleb128 0x5
 6844 00ff 00       		.byte	0
 6845 0100 03       		.uleb128 0x3
 6846 0101 0E       		.uleb128 0xe
 6847 0102 3A       		.uleb128 0x3a
 6848 0103 0B       		.uleb128 0xb
 6849 0104 3B       		.uleb128 0x3b
 6850 0105 05       		.uleb128 0x5
 6851 0106 49       		.uleb128 0x49
 6852 0107 13       		.uleb128 0x13
 6853 0108 02       		.uleb128 0x2
 6854 0109 18       		.uleb128 0x18
 6855 010a 00       		.byte	0
 6856 010b 00       		.byte	0
 6857 010c 16       		.uleb128 0x16
 6858 010d 05       		.uleb128 0x5
 6859 010e 00       		.byte	0
 6860 010f 03       		.uleb128 0x3
 6861 0110 08       		.uleb128 0x8
 6862 0111 3A       		.uleb128 0x3a
 6863 0112 0B       		.uleb128 0xb
 6864 0113 3B       		.uleb128 0x3b
 6865 0114 05       		.uleb128 0x5
 6866 0115 49       		.uleb128 0x49
 6867 0116 13       		.uleb128 0x13
 6868 0117 02       		.uleb128 0x2
 6869 0118 18       		.uleb128 0x18
 6870 0119 00       		.byte	0
 6871 011a 00       		.byte	0
 6872 011b 17       		.uleb128 0x17
 6873 011c 34       		.uleb128 0x34
 6874 011d 00       		.byte	0
 6875 011e 03       		.uleb128 0x3
ARM GAS  C:\Users\Aluno\AppData\Local\Temp\ccHJiRYw.s 			page 167


 6876 011f 08       		.uleb128 0x8
 6877 0120 3A       		.uleb128 0x3a
 6878 0121 0B       		.uleb128 0xb
 6879 0122 3B       		.uleb128 0x3b
 6880 0123 05       		.uleb128 0x5
 6881 0124 49       		.uleb128 0x49
 6882 0125 13       		.uleb128 0x13
 6883 0126 02       		.uleb128 0x2
 6884 0127 18       		.uleb128 0x18
 6885 0128 00       		.byte	0
 6886 0129 00       		.byte	0
 6887 012a 18       		.uleb128 0x18
 6888 012b 34       		.uleb128 0x34
 6889 012c 00       		.byte	0
 6890 012d 03       		.uleb128 0x3
 6891 012e 0E       		.uleb128 0xe
 6892 012f 3A       		.uleb128 0x3a
 6893 0130 0B       		.uleb128 0xb
 6894 0131 3B       		.uleb128 0x3b
 6895 0132 05       		.uleb128 0x5
 6896 0133 49       		.uleb128 0x49
 6897 0134 13       		.uleb128 0x13
 6898 0135 02       		.uleb128 0x2
 6899 0136 18       		.uleb128 0x18
 6900 0137 00       		.byte	0
 6901 0138 00       		.byte	0
 6902 0139 19       		.uleb128 0x19
 6903 013a 2E       		.uleb128 0x2e
 6904 013b 01       		.byte	0x1
 6905 013c 3F       		.uleb128 0x3f
 6906 013d 19       		.uleb128 0x19
 6907 013e 03       		.uleb128 0x3
 6908 013f 0E       		.uleb128 0xe
 6909 0140 3A       		.uleb128 0x3a
 6910 0141 0B       		.uleb128 0xb
 6911 0142 3B       		.uleb128 0x3b
 6912 0143 05       		.uleb128 0x5
 6913 0144 27       		.uleb128 0x27
 6914 0145 19       		.uleb128 0x19
 6915 0146 11       		.uleb128 0x11
 6916 0147 01       		.uleb128 0x1
 6917 0148 12       		.uleb128 0x12
 6918 0149 06       		.uleb128 0x6
 6919 014a 40       		.uleb128 0x40
 6920 014b 18       		.uleb128 0x18
 6921 014c 9642     		.uleb128 0x2116
 6922 014e 19       		.uleb128 0x19
 6923 014f 01       		.uleb128 0x1
 6924 0150 13       		.uleb128 0x13
 6925 0151 00       		.byte	0
 6926 0152 00       		.byte	0
 6927 0153 1A       		.uleb128 0x1a
 6928 0154 2E       		.uleb128 0x2e
 6929 0155 01       		.byte	0x1
 6930 0156 3F       		.uleb128 0x3f
 6931 0157 19       		.uleb128 0x19
 6932 0158 03       		.uleb128 0x3
ARM GAS  C:\Users\Aluno\AppData\Local\Temp\ccHJiRYw.s 			page 168


 6933 0159 0E       		.uleb128 0xe
 6934 015a 3A       		.uleb128 0x3a
 6935 015b 0B       		.uleb128 0xb
 6936 015c 3B       		.uleb128 0x3b
 6937 015d 05       		.uleb128 0x5
 6938 015e 27       		.uleb128 0x27
 6939 015f 19       		.uleb128 0x19
 6940 0160 49       		.uleb128 0x49
 6941 0161 13       		.uleb128 0x13
 6942 0162 11       		.uleb128 0x11
 6943 0163 01       		.uleb128 0x1
 6944 0164 12       		.uleb128 0x12
 6945 0165 06       		.uleb128 0x6
 6946 0166 40       		.uleb128 0x40
 6947 0167 18       		.uleb128 0x18
 6948 0168 9642     		.uleb128 0x2116
 6949 016a 19       		.uleb128 0x19
 6950 016b 01       		.uleb128 0x1
 6951 016c 13       		.uleb128 0x13
 6952 016d 00       		.byte	0
 6953 016e 00       		.byte	0
 6954 016f 1B       		.uleb128 0x1b
 6955 0170 2E       		.uleb128 0x2e
 6956 0171 01       		.byte	0x1
 6957 0172 3F       		.uleb128 0x3f
 6958 0173 19       		.uleb128 0x19
 6959 0174 03       		.uleb128 0x3
 6960 0175 0E       		.uleb128 0xe
 6961 0176 3A       		.uleb128 0x3a
 6962 0177 0B       		.uleb128 0xb
 6963 0178 3B       		.uleb128 0x3b
 6964 0179 05       		.uleb128 0x5
 6965 017a 27       		.uleb128 0x27
 6966 017b 19       		.uleb128 0x19
 6967 017c 11       		.uleb128 0x11
 6968 017d 01       		.uleb128 0x1
 6969 017e 12       		.uleb128 0x12
 6970 017f 06       		.uleb128 0x6
 6971 0180 40       		.uleb128 0x40
 6972 0181 18       		.uleb128 0x18
 6973 0182 9742     		.uleb128 0x2117
 6974 0184 19       		.uleb128 0x19
 6975 0185 01       		.uleb128 0x1
 6976 0186 13       		.uleb128 0x13
 6977 0187 00       		.byte	0
 6978 0188 00       		.byte	0
 6979 0189 1C       		.uleb128 0x1c
 6980 018a 34       		.uleb128 0x34
 6981 018b 00       		.byte	0
 6982 018c 03       		.uleb128 0x3
 6983 018d 0E       		.uleb128 0xe
 6984 018e 3A       		.uleb128 0x3a
 6985 018f 0B       		.uleb128 0xb
 6986 0190 3B       		.uleb128 0x3b
 6987 0191 05       		.uleb128 0x5
 6988 0192 49       		.uleb128 0x49
 6989 0193 13       		.uleb128 0x13
ARM GAS  C:\Users\Aluno\AppData\Local\Temp\ccHJiRYw.s 			page 169


 6990 0194 3F       		.uleb128 0x3f
 6991 0195 19       		.uleb128 0x19
 6992 0196 3C       		.uleb128 0x3c
 6993 0197 19       		.uleb128 0x19
 6994 0198 00       		.byte	0
 6995 0199 00       		.byte	0
 6996 019a 1D       		.uleb128 0x1d
 6997 019b 26       		.uleb128 0x26
 6998 019c 00       		.byte	0
 6999 019d 49       		.uleb128 0x49
 7000 019e 13       		.uleb128 0x13
 7001 019f 00       		.byte	0
 7002 01a0 00       		.byte	0
 7003 01a1 00       		.byte	0
 7004              		.section	.debug_aranges,"",%progbits
 7005 0000 EC000000 		.4byte	0xec
 7006 0004 0200     		.2byte	0x2
 7007 0006 00000000 		.4byte	.Ldebug_info0
 7008 000a 04       		.byte	0x4
 7009 000b 00       		.byte	0
 7010 000c 0000     		.2byte	0
 7011 000e 0000     		.2byte	0
 7012 0010 00000000 		.4byte	.LFB0
 7013 0014 3C010000 		.4byte	.LFE0-.LFB0
 7014 0018 00000000 		.4byte	.LFB1
 7015 001c 10020000 		.4byte	.LFE1-.LFB1
 7016 0020 00000000 		.4byte	.LFB2
 7017 0024 3C010000 		.4byte	.LFE2-.LFB2
 7018 0028 00000000 		.4byte	.LFB3
 7019 002c 6C000000 		.4byte	.LFE3-.LFB3
 7020 0030 00000000 		.4byte	.LFB4
 7021 0034 E0010000 		.4byte	.LFE4-.LFB4
 7022 0038 00000000 		.4byte	.LFB5
 7023 003c C0000000 		.4byte	.LFE5-.LFB5
 7024 0040 00000000 		.4byte	.LFB6
 7025 0044 62000000 		.4byte	.LFE6-.LFB6
 7026 0048 00000000 		.4byte	.LFB7
 7027 004c 60000000 		.4byte	.LFE7-.LFB7
 7028 0050 00000000 		.4byte	.LFB8
 7029 0054 58000000 		.4byte	.LFE8-.LFB8
 7030 0058 00000000 		.4byte	.LFB9
 7031 005c 5C000000 		.4byte	.LFE9-.LFB9
 7032 0060 00000000 		.4byte	.LFB10
 7033 0064 64000000 		.4byte	.LFE10-.LFB10
 7034 0068 00000000 		.4byte	.LFB11
 7035 006c E0010000 		.4byte	.LFE11-.LFB11
 7036 0070 00000000 		.4byte	.LFB12
 7037 0074 CC000000 		.4byte	.LFE12-.LFB12
 7038 0078 00000000 		.4byte	.LFB13
 7039 007c 46000000 		.4byte	.LFE13-.LFB13
 7040 0080 00000000 		.4byte	.LFB14
 7041 0084 60000000 		.4byte	.LFE14-.LFB14
 7042 0088 00000000 		.4byte	.LFB15
 7043 008c F0000000 		.4byte	.LFE15-.LFB15
 7044 0090 00000000 		.4byte	.LFB16
 7045 0094 44000000 		.4byte	.LFE16-.LFB16
 7046 0098 00000000 		.4byte	.LFB17
ARM GAS  C:\Users\Aluno\AppData\Local\Temp\ccHJiRYw.s 			page 170


 7047 009c 7C000000 		.4byte	.LFE17-.LFB17
 7048 00a0 00000000 		.4byte	.LFB18
 7049 00a4 4C000000 		.4byte	.LFE18-.LFB18
 7050 00a8 00000000 		.4byte	.LFB19
 7051 00ac 84000000 		.4byte	.LFE19-.LFB19
 7052 00b0 00000000 		.4byte	.LFB20
 7053 00b4 38000000 		.4byte	.LFE20-.LFB20
 7054 00b8 00000000 		.4byte	.LFB21
 7055 00bc 98010000 		.4byte	.LFE21-.LFB21
 7056 00c0 00000000 		.4byte	.LFB22
 7057 00c4 F8000000 		.4byte	.LFE22-.LFB22
 7058 00c8 00000000 		.4byte	.LFB23
 7059 00cc 24010000 		.4byte	.LFE23-.LFB23
 7060 00d0 00000000 		.4byte	.LFB24
 7061 00d4 28000000 		.4byte	.LFE24-.LFB24
 7062 00d8 00000000 		.4byte	.LFB25
 7063 00dc 28010000 		.4byte	.LFE25-.LFB25
 7064 00e0 00000000 		.4byte	.LFB26
 7065 00e4 18010000 		.4byte	.LFE26-.LFB26
 7066 00e8 00000000 		.4byte	0
 7067 00ec 00000000 		.4byte	0
 7068              		.section	.debug_ranges,"",%progbits
 7069              	.Ldebug_ranges0:
 7070 0000 00000000 		.4byte	.LFB0
 7071 0004 3C010000 		.4byte	.LFE0
 7072 0008 00000000 		.4byte	.LFB1
 7073 000c 10020000 		.4byte	.LFE1
 7074 0010 00000000 		.4byte	.LFB2
 7075 0014 3C010000 		.4byte	.LFE2
 7076 0018 00000000 		.4byte	.LFB3
 7077 001c 6C000000 		.4byte	.LFE3
 7078 0020 00000000 		.4byte	.LFB4
 7079 0024 E0010000 		.4byte	.LFE4
 7080 0028 00000000 		.4byte	.LFB5
 7081 002c C0000000 		.4byte	.LFE5
 7082 0030 00000000 		.4byte	.LFB6
 7083 0034 62000000 		.4byte	.LFE6
 7084 0038 00000000 		.4byte	.LFB7
 7085 003c 60000000 		.4byte	.LFE7
 7086 0040 00000000 		.4byte	.LFB8
 7087 0044 58000000 		.4byte	.LFE8
 7088 0048 00000000 		.4byte	.LFB9
 7089 004c 5C000000 		.4byte	.LFE9
 7090 0050 00000000 		.4byte	.LFB10
 7091 0054 64000000 		.4byte	.LFE10
 7092 0058 00000000 		.4byte	.LFB11
 7093 005c E0010000 		.4byte	.LFE11
 7094 0060 00000000 		.4byte	.LFB12
 7095 0064 CC000000 		.4byte	.LFE12
 7096 0068 00000000 		.4byte	.LFB13
 7097 006c 46000000 		.4byte	.LFE13
 7098 0070 00000000 		.4byte	.LFB14
 7099 0074 60000000 		.4byte	.LFE14
 7100 0078 00000000 		.4byte	.LFB15
 7101 007c F0000000 		.4byte	.LFE15
 7102 0080 00000000 		.4byte	.LFB16
 7103 0084 44000000 		.4byte	.LFE16
ARM GAS  C:\Users\Aluno\AppData\Local\Temp\ccHJiRYw.s 			page 171


 7104 0088 00000000 		.4byte	.LFB17
 7105 008c 7C000000 		.4byte	.LFE17
 7106 0090 00000000 		.4byte	.LFB18
 7107 0094 4C000000 		.4byte	.LFE18
 7108 0098 00000000 		.4byte	.LFB19
 7109 009c 84000000 		.4byte	.LFE19
 7110 00a0 00000000 		.4byte	.LFB20
 7111 00a4 38000000 		.4byte	.LFE20
 7112 00a8 00000000 		.4byte	.LFB21
 7113 00ac 98010000 		.4byte	.LFE21
 7114 00b0 00000000 		.4byte	.LFB22
 7115 00b4 F8000000 		.4byte	.LFE22
 7116 00b8 00000000 		.4byte	.LFB23
 7117 00bc 24010000 		.4byte	.LFE23
 7118 00c0 00000000 		.4byte	.LFB24
 7119 00c4 28000000 		.4byte	.LFE24
 7120 00c8 00000000 		.4byte	.LFB25
 7121 00cc 28010000 		.4byte	.LFE25
 7122 00d0 00000000 		.4byte	.LFB26
 7123 00d4 18010000 		.4byte	.LFE26
 7124 00d8 00000000 		.4byte	0
 7125 00dc 00000000 		.4byte	0
 7126              		.section	.debug_line,"",%progbits
 7127              	.Ldebug_line0:
 7128 0000 C3050000 		.section	.debug_str,"MS",%progbits,1
 7128      0200B200 
 7128      00000201 
 7128      FB0E0D00 
 7128      01010101 
 7129              	.LASF215:
 7130 0000 6F735F74 		.ascii	"os_tcb\000"
 7130      636200
 7131              	.LASF288:
 7132 0007 4F535461 		.ascii	"OSTaskCreate\000"
 7132      736B4372 
 7132      65617465 
 7132      00
 7133              	.LASF106:
 7134 0014 4F535F45 		.ascii	"OS_ERR_PRIO_INVALID\000"
 7134      52525F50 
 7134      52494F5F 
 7134      494E5641 
 7134      4C494400 
 7135              	.LASF199:
 7136 0028 4F535F45 		.ascii	"OS_ERR\000"
 7136      525200
 7137              	.LASF22:
 7138 002f 4F535F43 		.ascii	"OS_CTX_SW_CTR\000"
 7138      54585F53 
 7138      575F4354 
 7138      5200
 7139              	.LASF185:
 7140 003d 4F535F45 		.ascii	"OS_ERR_TMR_ISR\000"
 7140      52525F54 
 7140      4D525F49 
 7140      535200
 7141              	.LASF172:
ARM GAS  C:\Users\Aluno\AppData\Local\Temp\ccHJiRYw.s 			page 172


 7142 004c 4F535F45 		.ascii	"OS_ERR_TIME_INVALID_MINUTES\000"
 7142      52525F54 
 7142      494D455F 
 7142      494E5641 
 7142      4C49445F 
 7143              	.LASF39:
 7144 0068 4F535F45 		.ascii	"OS_ERR_A\000"
 7144      52525F41 
 7144      00
 7145              	.LASF41:
 7146 0071 4F535F45 		.ascii	"OS_ERR_B\000"
 7146      52525F42 
 7146      00
 7147              	.LASF42:
 7148 007a 4F535F45 		.ascii	"OS_ERR_C\000"
 7148      52525F43 
 7148      00
 7149              	.LASF44:
 7150 0083 4F535F45 		.ascii	"OS_ERR_D\000"
 7150      52525F44 
 7150      00
 7151              	.LASF46:
 7152 008c 4F535F45 		.ascii	"OS_ERR_E\000"
 7152      52525F45 
 7152      00
 7153              	.LASF47:
 7154 0095 4F535F45 		.ascii	"OS_ERR_F\000"
 7154      52525F46 
 7154      00
 7155              	.LASF53:
 7156 009e 4F535F45 		.ascii	"OS_ERR_G\000"
 7156      52525F47 
 7156      00
 7157              	.LASF54:
 7158 00a7 4F535F45 		.ascii	"OS_ERR_H\000"
 7158      52525F48 
 7158      00
 7159              	.LASF55:
 7160 00b0 4F535F45 		.ascii	"OS_ERR_I\000"
 7160      52525F49 
 7160      00
 7161              	.LASF62:
 7162 00b9 4F535F45 		.ascii	"OS_ERR_J\000"
 7162      52525F4A 
 7162      00
 7163              	.LASF63:
 7164 00c2 4F535F45 		.ascii	"OS_ERR_K\000"
 7164      52525F4B 
 7164      00
 7165              	.LASF64:
 7166 00cb 4F535F45 		.ascii	"OS_ERR_L\000"
 7166      52525F4C 
 7166      00
 7167              	.LASF66:
 7168 00d4 4F535F45 		.ascii	"OS_ERR_M\000"
 7168      52525F4D 
 7168      00
ARM GAS  C:\Users\Aluno\AppData\Local\Temp\ccHJiRYw.s 			page 173


 7169              	.LASF82:
 7170 00dd 4F535F45 		.ascii	"OS_ERR_N\000"
 7170      52525F4E 
 7170      00
 7171              	.LASF85:
 7172 00e6 4F535F45 		.ascii	"OS_ERR_O\000"
 7172      52525F4F 
 7172      00
 7173              	.LASF93:
 7174 00ef 4F535F45 		.ascii	"OS_ERR_P\000"
 7174      52525F50 
 7174      00
 7175              	.LASF108:
 7176 00f8 4F535F45 		.ascii	"OS_ERR_Q\000"
 7176      52525F51 
 7176      00
 7177              	.LASF113:
 7178 0101 4F535F45 		.ascii	"OS_ERR_R\000"
 7178      52525F52 
 7178      00
 7179              	.LASF117:
 7180 010a 4F535F45 		.ascii	"OS_ERR_S\000"
 7180      52525F53 
 7180      00
 7181              	.LASF134:
 7182 0113 4F535F45 		.ascii	"OS_ERR_T\000"
 7182      52525F54 
 7182      00
 7183              	.LASF192:
 7184 011c 4F535F45 		.ascii	"OS_ERR_U\000"
 7184      52525F55 
 7184      00
 7185              	.LASF193:
 7186 0125 4F535F45 		.ascii	"OS_ERR_V\000"
 7186      52525F56 
 7186      00
 7187              	.LASF194:
 7188 012e 4F535F45 		.ascii	"OS_ERR_W\000"
 7188      52525F57 
 7188      00
 7189              	.LASF195:
 7190 0137 4F535F45 		.ascii	"OS_ERR_X\000"
 7190      52525F58 
 7190      00
 7191              	.LASF182:
 7192 0140 4F535F45 		.ascii	"OS_ERR_TMR_INVALID_PERIOD\000"
 7192      52525F54 
 7192      4D525F49 
 7192      4E56414C 
 7192      49445F50 
 7193              	.LASF356:
 7194 015a 6F735F65 		.ascii	"os_err\000"
 7194      727200
 7195              	.LASF285:
 7196 0161 73656C66 		.ascii	"self\000"
 7196      00
 7197              	.LASF211:
ARM GAS  C:\Users\Aluno\AppData\Local\Temp\ccHJiRYw.s 			page 174


 7198 0166 4E627245 		.ascii	"NbrEntries\000"
 7198      6E747269 
 7198      657300
 7199              	.LASF59:
 7200 0171 4F535F45 		.ascii	"OS_ERR_INT_Q_SIZE\000"
 7200      52525F49 
 7200      4E545F51 
 7200      5F53495A 
 7200      4500
 7201              	.LASF43:
 7202 0183 4F535F45 		.ascii	"OS_ERR_CREATE_ISR\000"
 7202      52525F43 
 7202      52454154 
 7202      455F4953 
 7202      5200
 7203              	.LASF21:
 7204 0195 4F535F43 		.ascii	"OS_CPU_USAGE\000"
 7204      50555F55 
 7204      53414745 
 7204      00
 7205              	.LASF166:
 7206 01a2 4F535F45 		.ascii	"OS_ERR_TICK_STK_SIZE_INVALID\000"
 7206      52525F54 
 7206      49434B5F 
 7206      53544B5F 
 7206      53495A45 
 7207              	.LASF9:
 7208 01bf 4350555F 		.ascii	"CPU_INT32U\000"
 7208      494E5433 
 7208      325500
 7209              	.LASF351:
 7210 01ca 4F535443 		.ascii	"OSTCBCurPtr\000"
 7210      42437572 
 7210      50747200 
 7211              	.LASF131:
 7212 01d6 4F535F45 		.ascii	"OS_ERR_STK_INVALID\000"
 7212      52525F53 
 7212      544B5F49 
 7212      4E56414C 
 7212      494400
 7213              	.LASF299:
 7214 01e9 7265675F 		.ascii	"reg_nbr\000"
 7214      6E627200 
 7215              	.LASF246:
 7216 01f1 466C6167 		.ascii	"FlagsOpt\000"
 7216      734F7074 
 7216      00
 7217              	.LASF147:
 7218 01fa 4F535F45 		.ascii	"OS_ERR_TASK_RESUME_ISR\000"
 7218      52525F54 
 7218      41534B5F 
 7218      52455355 
 7218      4D455F49 
 7219              	.LASF101:
 7220 0211 4F535F45 		.ascii	"OS_ERR_PEND_WOULD_BLOCK\000"
 7220      52525F50 
 7220      454E445F 
ARM GAS  C:\Users\Aluno\AppData\Local\Temp\ccHJiRYw.s 			page 175


 7220      574F554C 
 7220      445F424C 
 7221              	.LASF135:
 7222 0229 4F535F45 		.ascii	"OS_ERR_TASK_CHANGE_PRIO_ISR\000"
 7222      52525F54 
 7222      41534B5F 
 7222      4348414E 
 7222      47455F50 
 7223              	.LASF125:
 7224 0245 4F535F45 		.ascii	"OS_ERR_STAT_RESET_ISR\000"
 7224      52525F53 
 7224      5441545F 
 7224      52455345 
 7224      545F4953 
 7225              	.LASF307:
 7226 025b 705F6D73 		.ascii	"p_msg_size\000"
 7226      675F7369 
 7226      7A6500
 7227              	.LASF100:
 7228 0266 4F535F45 		.ascii	"OS_ERR_PEND_LOCKED\000"
 7228      52525F50 
 7228      454E445F 
 7228      4C4F434B 
 7228      454400
 7229              	.LASF28:
 7230 0279 4F535F4F 		.ascii	"OS_OBJ_QTY\000"
 7230      424A5F51 
 7230      545900
 7231              	.LASF353:
 7232 0284 474E5520 		.ascii	"GNU C11 5.4.1 20160609 (release) [ARM/embedded-5-br"
 7232      43313120 
 7232      352E342E 
 7232      31203230 
 7232      31363036 
 7233 02b7 616E6368 		.ascii	"anch revision 237715] -mcpu=cortex-m3 -mthumb -g -O"
 7233      20726576 
 7233      6973696F 
 7233      6E203233 
 7233      37373135 
 7234 02ea 30202D66 		.ascii	"0 -ffunction-sections -ffat-lto-objects\000"
 7234      66756E63 
 7234      74696F6E 
 7234      2D736563 
 7234      74696F6E 
 7235              	.LASF321:
 7236 0312 4F535461 		.ascii	"OSTaskSemPost\000"
 7236      736B5365 
 7236      6D506F73 
 7236      7400
 7237              	.LASF145:
 7238 0320 4F535F45 		.ascii	"OS_ERR_TASK_NOT_SUSPENDED\000"
 7238      52525F54 
 7238      41534B5F 
 7238      4E4F545F 
 7238      53555350 
 7239              	.LASF143:
 7240 033a 4F535F45 		.ascii	"OS_ERR_TASK_NOT_DLY\000"
ARM GAS  C:\Users\Aluno\AppData\Local\Temp\ccHJiRYw.s 			page 176


 7240      52525F54 
 7240      41534B5F 
 7240      4E4F545F 
 7240      444C5900 
 7241              	.LASF259:
 7242 034e 44626750 		.ascii	"DbgPrevPtr\000"
 7242      72657650 
 7242      747200
 7243              	.LASF57:
 7244 0359 4F535F45 		.ascii	"OS_ERR_INT_Q\000"
 7244      52525F49 
 7244      4E545F51 
 7244      00
 7245              	.LASF260:
 7246 0366 4462674E 		.ascii	"DbgNextPtr\000"
 7246      65787450 
 7246      747200
 7247              	.LASF325:
 7248 0371 705F7573 		.ascii	"p_used\000"
 7248      656400
 7249              	.LASF157:
 7250 0378 4F535F45 		.ascii	"OS_ERR_TASK_WAITING\000"
 7250      52525F54 
 7250      41534B5F 
 7250      57414954 
 7250      494E4700 
 7251              	.LASF40:
 7252 038c 4F535F45 		.ascii	"OS_ERR_ACCEPT_ISR\000"
 7252      52525F41 
 7252      43434550 
 7252      545F4953 
 7252      5200
 7253              	.LASF155:
 7254 039e 4F535F45 		.ascii	"OS_ERR_TASK_SUSPEND_ISR\000"
 7254      52525F54 
 7254      41534B5F 
 7254      53555350 
 7254      454E445F 
 7255              	.LASF81:
 7256 03b6 4F535F45 		.ascii	"OS_ERR_MUTEX_NESTING\000"
 7256      52525F4D 
 7256      55544558 
 7256      5F4E4553 
 7256      54494E47 
 7257              	.LASF183:
 7258 03cb 4F535F45 		.ascii	"OS_ERR_TMR_INVALID_STATE\000"
 7258      52525F54 
 7258      4D525F49 
 7258      4E56414C 
 7258      49445F53 
 7259              	.LASF228:
 7260 03e4 50656E64 		.ascii	"PendOn\000"
 7260      4F6E00
 7261              	.LASF233:
 7262 03eb 50656E64 		.ascii	"PendDataTblEntries\000"
 7262      44617461 
 7262      54626C45 
ARM GAS  C:\Users\Aluno\AppData\Local\Temp\ccHJiRYw.s 			page 177


 7262      6E747269 
 7262      657300
 7263              	.LASF86:
 7264 03fe 4F535F45 		.ascii	"OS_ERR_OBJ_CREATED\000"
 7264      52525F4F 
 7264      424A5F43 
 7264      52454154 
 7264      454400
 7265              	.LASF276:
 7266 0411 5461696C 		.ascii	"TailPtr\000"
 7266      50747200 
 7267              	.LASF310:
 7268 0419 705F766F 		.ascii	"p_void\000"
 7268      696400
 7269              	.LASF153:
 7270 0420 4F535F45 		.ascii	"OS_ERR_TASK_SUSPEND_IDLE\000"
 7270      52525F54 
 7270      41534B5F 
 7270      53555350 
 7270      454E445F 
 7271              	.LASF58:
 7272 0439 4F535F45 		.ascii	"OS_ERR_INT_Q_FULL\000"
 7272      52525F49 
 7272      4E545F51 
 7272      5F46554C 
 7272      4C00
 7273              	.LASF236:
 7274 044b 5469636B 		.ascii	"TickCtrMatch\000"
 7274      4374724D 
 7274      61746368 
 7274      00
 7275              	.LASF270:
 7276 0458 5264794D 		.ascii	"RdyMsgPtr\000"
 7276      73675074 
 7276      7200
 7277              	.LASF278:
 7278 0462 6F735F70 		.ascii	"os_pend_obj\000"
 7278      656E645F 
 7278      6F626A00 
 7279              	.LASF305:
 7280 046e 4F535461 		.ascii	"OSTaskQPend\000"
 7280      736B5150 
 7280      656E6400 
 7281              	.LASF56:
 7282 047a 4F535F45 		.ascii	"OS_ERR_ILLEGAL_CREATE_RUN_TIME\000"
 7282      52525F49 
 7282      4C4C4547 
 7282      414C5F43 
 7282      52454154 
 7283              	.LASF244:
 7284 0499 466C6167 		.ascii	"FlagsPend\000"
 7284      7350656E 
 7284      6400
 7285              	.LASF181:
 7286 04a3 4F535F45 		.ascii	"OS_ERR_TMR_INVALID_DLY\000"
 7286      52525F54 
 7286      4D525F49 
ARM GAS  C:\Users\Aluno\AppData\Local\Temp\ccHJiRYw.s 			page 178


 7286      4E56414C 
 7286      49445F44 
 7287              	.LASF250:
 7288 04ba 43747853 		.ascii	"CtxSwCtr\000"
 7288      77437472 
 7288      00
 7289              	.LASF148:
 7290 04c3 4F535F45 		.ascii	"OS_ERR_TASK_RESUME_PRIO\000"
 7290      52525F54 
 7290      41534B5F 
 7290      52455355 
 7290      4D455F50 
 7291              	.LASF332:
 7292 04db 705F7463 		.ascii	"p_tcb_next\000"
 7292      625F6E65 
 7292      787400
 7293              	.LASF31:
 7294 04e6 4F535F50 		.ascii	"OS_PRIO\000"
 7294      52494F00 
 7295              	.LASF339:
 7296 04ee 4F535F54 		.ascii	"OS_TaskReturn\000"
 7296      61736B52 
 7296      65747572 
 7296      6E00
 7297              	.LASF13:
 7298 04fc 666C6F61 		.ascii	"float\000"
 7298      7400
 7299              	.LASF317:
 7300 0502 4F535461 		.ascii	"OSTaskRegSet\000"
 7300      736B5265 
 7300      67536574 
 7300      00
 7301              	.LASF318:
 7302 050f 4F535461 		.ascii	"OSTaskResume\000"
 7302      736B5265 
 7302      73756D65 
 7302      00
 7303              	.LASF102:
 7304 051c 4F535F45 		.ascii	"OS_ERR_POST_NULL_PTR\000"
 7304      52525F50 
 7304      4F53545F 
 7304      4E554C4C 
 7304      5F505452 
 7305              	.LASF84:
 7306 0531 4F535F45 		.ascii	"OS_ERR_NO_MORE_ID_AVAIL\000"
 7306      52525F4E 
 7306      4F5F4D4F 
 7306      52455F49 
 7306      445F4156 
 7307              	.LASF262:
 7308 0549 4F535F54 		.ascii	"OS_TICK_SPOKE\000"
 7308      49434B5F 
 7308      53504F4B 
 7308      4500
 7309              	.LASF74:
 7310 0557 4F535F45 		.ascii	"OS_ERR_MEM_INVALID_P_DATA\000"
 7310      52525F4D 
ARM GAS  C:\Users\Aluno\AppData\Local\Temp\ccHJiRYw.s 			page 179


 7310      454D5F49 
 7310      4E56414C 
 7310      49445F50 
 7311              	.LASF286:
 7312 0571 6370755F 		.ascii	"cpu_sr\000"
 7312      737200
 7313              	.LASF186:
 7314 0578 4F535F45 		.ascii	"OS_ERR_TMR_NO_CALLBACK\000"
 7314      52525F54 
 7314      4D525F4E 
 7314      4F5F4341 
 7314      4C4C4241 
 7315              	.LASF179:
 7316 058f 4F535F45 		.ascii	"OS_ERR_TMR_INACTIVE\000"
 7316      52525F54 
 7316      4D525F49 
 7316      4E414354 
 7316      49564500 
 7317              	.LASF159:
 7318 05a3 4F535F45 		.ascii	"OS_ERR_TLS_ID_INVALID\000"
 7318      52525F54 
 7318      4C535F49 
 7318      445F494E 
 7318      56414C49 
 7319              	.LASF11:
 7320 05b9 6C6F6E67 		.ascii	"long long unsigned int\000"
 7320      206C6F6E 
 7320      6720756E 
 7320      7369676E 
 7320      65642069 
 7321              	.LASF150:
 7322 05d0 4F535F45 		.ascii	"OS_ERR_TASK_RUNNING\000"
 7322      52525F54 
 7322      41534B5F 
 7322      52554E4E 
 7322      494E4700 
 7323              	.LASF257:
 7324 05e4 53746B55 		.ascii	"StkUsed\000"
 7324      73656400 
 7325              	.LASF184:
 7326 05ec 4F535F45 		.ascii	"OS_ERR_TMR_INVALID\000"
 7326      52525F54 
 7326      4D525F49 
 7326      4E56414C 
 7326      494400
 7327              	.LASF265:
 7328 05ff 4F535F50 		.ascii	"OS_PEND_DATA\000"
 7328      454E445F 
 7328      44415441 
 7328      00
 7329              	.LASF154:
 7330 060c 4F535F45 		.ascii	"OS_ERR_TASK_SUSPEND_INT_HANDLER\000"
 7330      52525F54 
 7330      41534B5F 
 7330      53555350 
 7330      454E445F 
 7331              	.LASF139:
ARM GAS  C:\Users\Aluno\AppData\Local\Temp\ccHJiRYw.s 			page 180


 7332 062c 4F535F45 		.ascii	"OS_ERR_TASK_DEL_INVALID\000"
 7332      52525F54 
 7332      41534B5F 
 7332      44454C5F 
 7332      494E5641 
 7333              	.LASF189:
 7334 0644 4F535F45 		.ascii	"OS_ERR_TMR_STK_INVALID\000"
 7334      52525F54 
 7334      4D525F53 
 7334      544B5F49 
 7334      4E56414C 
 7335              	.LASF4:
 7336 065b 4350555F 		.ascii	"CPU_INT08U\000"
 7336      494E5430 
 7336      385500
 7337              	.LASF206:
 7338 0666 6F735F6D 		.ascii	"os_msg\000"
 7338      736700
 7339              	.LASF158:
 7340 066d 4F535F45 		.ascii	"OS_ERR_TCB_INVALID\000"
 7340      52525F54 
 7340      43425F49 
 7340      4E56414C 
 7340      494400
 7341              	.LASF232:
 7342 0680 53746B53 		.ascii	"StkSize\000"
 7342      697A6500 
 7343              	.LASF224:
 7344 0688 53746B42 		.ascii	"StkBasePtr\000"
 7344      61736550 
 7344      747200
 7345              	.LASF315:
 7346 0693 76616C75 		.ascii	"value\000"
 7346      6500
 7347              	.LASF110:
 7348 0699 4F535F45 		.ascii	"OS_ERR_Q_EMPTY\000"
 7348      52525F51 
 7348      5F454D50 
 7348      545900
 7349              	.LASF174:
 7350 06a8 4F535F45 		.ascii	"OS_ERR_TIME_INVALID_MILLISECONDS\000"
 7350      52525F54 
 7350      494D455F 
 7350      494E5641 
 7350      4C49445F 
 7351              	.LASF32:
 7352 06c9 4F535F52 		.ascii	"OS_REG\000"
 7352      454700
 7353              	.LASF83:
 7354 06d0 4F535F45 		.ascii	"OS_ERR_NAME\000"
 7354      52525F4E 
 7354      414D4500 
 7355              	.LASF342:
 7356 06dc 4F534964 		.ascii	"OSIdleTaskTCB\000"
 7356      6C655461 
 7356      736B5443 
 7356      4200
ARM GAS  C:\Users\Aluno\AppData\Local\Temp\ccHJiRYw.s 			page 181


 7357              	.LASF36:
 7358 06ea 4F535F53 		.ascii	"OS_STATUS\000"
 7358      54415455 
 7358      5300
 7359              	.LASF230:
 7360 06f4 5461736B 		.ascii	"TaskState\000"
 7360      53746174 
 7360      6500
 7361              	.LASF322:
 7362 06fe 4F535461 		.ascii	"OSTaskSemSet\000"
 7362      736B5365 
 7362      6D536574 
 7362      00
 7363              	.LASF163:
 7364 070b 4F535F45 		.ascii	"OS_ERR_TLS_DESTRUCT_ASSIGNED\000"
 7364      52525F54 
 7364      4C535F44 
 7364      45535452 
 7364      5543545F 
 7365              	.LASF79:
 7366 0728 4F535F45 		.ascii	"OS_ERR_MUTEX_NOT_OWNER\000"
 7366      52525F4D 
 7366      55544558 
 7366      5F4E4F54 
 7366      5F4F574E 
 7367              	.LASF26:
 7368 073f 4F535F4D 		.ascii	"OS_MSG_SIZE\000"
 7368      53475F53 
 7368      495A4500 
 7369              	.LASF171:
 7370 074b 4F535F45 		.ascii	"OS_ERR_TIME_INVALID_HOURS\000"
 7370      52525F54 
 7370      494D455F 
 7370      494E5641 
 7370      4C49445F 
 7371              	.LASF187:
 7372 0765 4F535F45 		.ascii	"OS_ERR_TMR_NON_AVAIL\000"
 7372      52525F54 
 7372      4D525F4E 
 7372      4F4E5F41 
 7372      5641494C 
 7373              	.LASF0:
 7374 077a 4350555F 		.ascii	"CPU_CHAR\000"
 7374      43484152 
 7374      00
 7375              	.LASF136:
 7376 0783 4F535F45 		.ascii	"OS_ERR_TASK_CREATE_ISR\000"
 7376      52525F54 
 7376      41534B5F 
 7376      43524541 
 7376      54455F49 
 7377              	.LASF17:
 7378 079a 4350555F 		.ascii	"CPU_STK_SIZE\000"
 7378      53544B5F 
 7378      53495A45 
 7378      00
 7379              	.LASF324:
ARM GAS  C:\Users\Aluno\AppData\Local\Temp\ccHJiRYw.s 			page 182


 7380 07a7 705F6672 		.ascii	"p_free\000"
 7380      656500
 7381              	.LASF25:
 7382 07ae 4F535F4D 		.ascii	"OS_MSG_QTY\000"
 7382      53475F51 
 7382      545900
 7383              	.LASF92:
 7384 07b9 4F535F45 		.ascii	"OS_ERR_OS_RUNNING\000"
 7384      52525F4F 
 7384      535F5255 
 7384      4E4E494E 
 7384      4700
 7385              	.LASF258:
 7386 07cb 53746B46 		.ascii	"StkFree\000"
 7386      72656500 
 7387              	.LASF235:
 7388 07d3 5469636B 		.ascii	"TickCtrPrev\000"
 7388      43747250 
 7388      72657600 
 7389              	.LASF210:
 7390 07df 4E627245 		.ascii	"NbrEntriesSize\000"
 7390      6E747269 
 7390      65735369 
 7390      7A6500
 7391              	.LASF177:
 7392 07ee 4F535F45 		.ascii	"OS_ERR_TIME_ZERO_DLY\000"
 7392      52525F54 
 7392      494D455F 
 7392      5A45524F 
 7392      5F444C59 
 7393              	.LASF336:
 7394 0803 7265675F 		.ascii	"reg_id\000"
 7394      696400
 7395              	.LASF221:
 7396 080a 5469636B 		.ascii	"TickPrevPtr\000"
 7396      50726576 
 7396      50747200 
 7397              	.LASF245:
 7398 0816 466C6167 		.ascii	"FlagsRdy\000"
 7398      73526479 
 7398      00
 7399              	.LASF327:
 7400 081f 705F7374 		.ascii	"p_stk\000"
 7400      6B00
 7401              	.LASF127:
 7402 0825 4F535F45 		.ascii	"OS_ERR_STAT_STK_INVALID\000"
 7402      52525F53 
 7402      5441545F 
 7402      53544B5F 
 7402      494E5641 
 7403              	.LASF304:
 7404 083d 4F535461 		.ascii	"OSTaskQFlush\000"
 7404      736B5146 
 7404      6C757368 
 7404      00
 7405              	.LASF49:
 7406 084a 4F535F45 		.ascii	"OS_ERR_FLAG_GRP_DEPLETED\000"
ARM GAS  C:\Users\Aluno\AppData\Local\Temp\ccHJiRYw.s 			page 183


 7406      52525F46 
 7406      4C41475F 
 7406      4752505F 
 7406      4445504C 
 7407              	.LASF70:
 7408 0863 4F535F45 		.ascii	"OS_ERR_MEM_INVALID_BLKS\000"
 7408      52525F4D 
 7408      454D5F49 
 7408      4E56414C 
 7408      49445F42 
 7409              	.LASF284:
 7410 087b 705F6572 		.ascii	"p_err\000"
 7410      7200
 7411              	.LASF344:
 7412 0881 4F535275 		.ascii	"OSRunning\000"
 7412      6E6E696E 
 7412      6700
 7413              	.LASF242:
 7414 088b 4D736751 		.ascii	"MsgQPendTimeMax\000"
 7414      50656E64 
 7414      54696D65 
 7414      4D617800 
 7415              	.LASF241:
 7416 089b 4D736751 		.ascii	"MsgQPendTime\000"
 7416      50656E64 
 7416      54696D65 
 7416      00
 7417              	.LASF200:
 7418 08a8 4F535F4D 		.ascii	"OS_MSG\000"
 7418      534700
 7419              	.LASF289:
 7420 08af 705F6E61 		.ascii	"p_name\000"
 7420      6D6500
 7421              	.LASF180:
 7422 08b6 4F535F45 		.ascii	"OS_ERR_TMR_INVALID_DEST\000"
 7422      52525F54 
 7422      4D525F49 
 7422      4E56414C 
 7422      49445F44 
 7423              	.LASF347:
 7424 08ce 4F535461 		.ascii	"OSTaskCtxSwCtr\000"
 7424      736B4374 
 7424      78537743 
 7424      747200
 7425              	.LASF292:
 7426 08dd 7072696F 		.ascii	"prio\000"
 7426      00
 7427              	.LASF119:
 7428 08e2 4F535F45 		.ascii	"OS_ERR_SCHED_LOCK_ISR\000"
 7428      52525F53 
 7428      43484544 
 7428      5F4C4F43 
 7428      4B5F4953 
 7429              	.LASF45:
 7430 08f8 4F535F45 		.ascii	"OS_ERR_DEL_ISR\000"
 7430      52525F44 
 7430      454C5F49 
ARM GAS  C:\Users\Aluno\AppData\Local\Temp\ccHJiRYw.s 			page 184


 7430      535200
 7431              	.LASF111:
 7432 0907 4F535F45 		.ascii	"OS_ERR_Q_MAX\000"
 7432      52525F51 
 7432      5F4D4158 
 7432      00
 7433              	.LASF219:
 7434 0914 50726576 		.ascii	"PrevPtr\000"
 7434      50747200 
 7435              	.LASF2:
 7436 091c 63686172 		.ascii	"char\000"
 7436      00
 7437              	.LASF29:
 7438 0921 4F535F4F 		.ascii	"OS_OBJ_TYPE\000"
 7438      424A5F54 
 7438      59504500 
 7439              	.LASF301:
 7440 092d 705F7374 		.ascii	"p_stk_limit\000"
 7440      6B5F6C69 
 7440      6D697400 
 7441              	.LASF162:
 7442 0939 4F535F45 		.ascii	"OS_ERR_TLS_NOT_EN\000"
 7442      52525F54 
 7442      4C535F4E 
 7442      4F545F45 
 7442      4E00
 7443              	.LASF90:
 7444 094b 4F535F45 		.ascii	"OS_ERR_OPT_INVALID\000"
 7444      52525F4F 
 7444      50545F49 
 7444      4E56414C 
 7444      494400
 7445              	.LASF18:
 7446 095e 4350555F 		.ascii	"CPU_SR\000"
 7446      535200
 7447              	.LASF297:
 7448 0965 74696D65 		.ascii	"time_quanta\000"
 7448      5F717561 
 7448      6E746100 
 7449              	.LASF118:
 7450 0971 4F535F45 		.ascii	"OS_ERR_SCHED_INVALID_TIME_SLICE\000"
 7450      52525F53 
 7450      43484544 
 7450      5F494E56 
 7450      414C4944 
 7451              	.LASF316:
 7452 0991 4F535461 		.ascii	"OSTaskRegGetID\000"
 7452      736B5265 
 7452      67476574 
 7452      494400
 7453              	.LASF326:
 7454 09a0 66726565 		.ascii	"free_stk\000"
 7454      5F73746B 
 7454      00
 7455              	.LASF240:
 7456 09a9 4D736751 		.ascii	"MsgQ\000"
 7456      00
ARM GAS  C:\Users\Aluno\AppData\Local\Temp\ccHJiRYw.s 			page 185


 7457              	.LASF225:
 7458 09ae 5461736B 		.ascii	"TaskEntryAddr\000"
 7458      456E7472 
 7458      79416464 
 7458      7200
 7459              	.LASF126:
 7460 09bc 4F535F45 		.ascii	"OS_ERR_STAT_PRIO_INVALID\000"
 7460      52525F53 
 7460      5441545F 
 7460      5052494F 
 7460      5F494E56 
 7461              	.LASF175:
 7462 09d5 4F535F45 		.ascii	"OS_ERR_TIME_NOT_DLY\000"
 7462      52525F54 
 7462      494D455F 
 7462      4E4F545F 
 7462      444C5900 
 7463              	.LASF314:
 7464 09e9 4F535461 		.ascii	"OSTaskRegGet\000"
 7464      736B5265 
 7464      67476574 
 7464      00
 7465              	.LASF223:
 7466 09f6 4E616D65 		.ascii	"NamePtr\000"
 7466      50747200 
 7467              	.LASF229:
 7468 09fe 50656E64 		.ascii	"PendStatus\000"
 7468      53746174 
 7468      757300
 7469              	.LASF205:
 7470 0a09 4F535F4D 		.ascii	"OS_MSG_Q\000"
 7470      53475F51 
 7470      00
 7471              	.LASF239:
 7472 0a12 54696D65 		.ascii	"TimeQuantaCtr\000"
 7472      5175616E 
 7472      74614374 
 7472      7200
 7473              	.LASF294:
 7474 0a20 73746B5F 		.ascii	"stk_limit\000"
 7474      6C696D69 
 7474      7400
 7475              	.LASF197:
 7476 0a2a 4F535F45 		.ascii	"OS_ERR_YIELD_ISR\000"
 7476      52525F59 
 7476      49454C44 
 7476      5F495352 
 7476      00
 7477              	.LASF87:
 7478 0a3b 4F535F45 		.ascii	"OS_ERR_OBJ_DEL\000"
 7478      52525F4F 
 7478      424A5F44 
 7478      454C00
 7479              	.LASF20:
 7480 0a4a 4350555F 		.ascii	"CPU_TS\000"
 7480      545300
 7481              	.LASF12:
ARM GAS  C:\Users\Aluno\AppData\Local\Temp\ccHJiRYw.s 			page 186


 7482 0a51 6C6F6E67 		.ascii	"long long int\000"
 7482      206C6F6E 
 7482      6720696E 
 7482      7400
 7483              	.LASF51:
 7484 0a5f 4F535F45 		.ascii	"OS_ERR_FLAG_PEND_OPT\000"
 7484      52525F46 
 7484      4C41475F 
 7484      50454E44 
 7484      5F4F5054 
 7485              	.LASF216:
 7486 0a74 53746B50 		.ascii	"StkPtr\000"
 7486      747200
 7487              	.LASF263:
 7488 0a7b 6F735F74 		.ascii	"os_tick_spoke\000"
 7488      69636B5F 
 7488      73706F6B 
 7488      6500
 7489              	.LASF282:
 7490 0a89 705F7463 		.ascii	"p_tcb\000"
 7490      6200
 7491              	.LASF300:
 7492 0a8f 705F7370 		.ascii	"p_sp\000"
 7492      00
 7493              	.LASF112:
 7494 0a94 4F535F45 		.ascii	"OS_ERR_Q_SIZE\000"
 7494      52525F51 
 7494      5F53495A 
 7494      4500
 7495              	.LASF355:
 7496 0aa2 433A5C55 		.ascii	"C:\\Users\\Aluno\\Documents\\PSoC Creator\\BCC722-P"
 7496      73657273 
 7496      5C416C75 
 7496      6E6F5C44 
 7496      6F63756D 
 7497 0ad0 52415449 		.ascii	"RATICA-03\\UCoS\\Micrium_2\\Software\\EvalBoards\\C"
 7497      43412D30 
 7497      335C5543 
 7497      6F535C4D 
 7497      69637269 
 7498 0afe 79707265 		.ascii	"ypress\\CY8CKIT-050\\PSoC\\uCOS-III-Probe\\Pratica0"
 7498      73735C43 
 7498      5938434B 
 7498      49542D30 
 7498      35305C50 
 7499 0b2d 332D7543 		.ascii	"3-uCOS-III.cydsn\000"
 7499      4F532D49 
 7499      49492E63 
 7499      7964736E 
 7499      00
 7500              	.LASF252:
 7501 0b3e 4379636C 		.ascii	"CyclesStart\000"
 7501      65735374 
 7501      61727400 
 7502              	.LASF350:
 7503 0b4a 4F535461 		.ascii	"OSTaskRegNextAvailID\000"
 7503      736B5265 
ARM GAS  C:\Users\Aluno\AppData\Local\Temp\ccHJiRYw.s 			page 187


 7503      674E6578 
 7503      74417661 
 7503      696C4944 
 7504              	.LASF349:
 7505 0b5f 4F535461 		.ascii	"OSTaskQty\000"
 7505      736B5174 
 7505      7900
 7506              	.LASF267:
 7507 0b69 54434250 		.ascii	"TCBPtr\000"
 7507      747200
 7508              	.LASF97:
 7509 0b70 4F535F45 		.ascii	"OS_ERR_PEND_ABORT_SELF\000"
 7509      52525F50 
 7509      454E445F 
 7509      41424F52 
 7509      545F5345 
 7510              	.LASF6:
 7511 0b87 4350555F 		.ascii	"CPU_INT16U\000"
 7511      494E5431 
 7511      365500
 7512              	.LASF116:
 7513 0b92 4F535F45 		.ascii	"OS_ERR_ROUND_ROBIN_DISABLED\000"
 7513      52525F52 
 7513      4F554E44 
 7513      5F524F42 
 7513      494E5F44 
 7514              	.LASF71:
 7515 0bae 4F535F45 		.ascii	"OS_ERR_MEM_INVALID_PART\000"
 7515      52525F4D 
 7515      454D5F49 
 7515      4E56414C 
 7515      49445F50 
 7516              	.LASF88:
 7517 0bc6 4F535F45 		.ascii	"OS_ERR_OBJ_PTR_NULL\000"
 7517      52525F4F 
 7517      424A5F50 
 7517      54525F4E 
 7517      554C4C00 
 7518              	.LASF114:
 7519 0bda 4F535F45 		.ascii	"OS_ERR_REG_ID_INVALID\000"
 7519      52525F52 
 7519      45475F49 
 7519      445F494E 
 7519      56414C49 
 7520              	.LASF37:
 7521 0bf0 4F535F54 		.ascii	"OS_TICK\000"
 7521      49434B00 
 7522              	.LASF68:
 7523 0bf8 4F535F45 		.ascii	"OS_ERR_MEM_FULL\000"
 7523      52525F4D 
 7523      454D5F46 
 7523      554C4C00 
 7524              	.LASF142:
 7525 0c08 4F535F45 		.ascii	"OS_ERR_TASK_NO_MORE_TCB\000"
 7525      52525F54 
 7525      41534B5F 
 7525      4E4F5F4D 
ARM GAS  C:\Users\Aluno\AppData\Local\Temp\ccHJiRYw.s 			page 188


 7525      4F52455F 
 7526              	.LASF73:
 7527 0c20 4F535F45 		.ascii	"OS_ERR_MEM_INVALID_P_MEM\000"
 7527      52525F4D 
 7527      454D5F49 
 7527      4E56414C 
 7527      49445F50 
 7528              	.LASF19:
 7529 0c39 4350555F 		.ascii	"CPU_TS32\000"
 7529      54533332 
 7529      00
 7530              	.LASF247:
 7531 0c42 53757370 		.ascii	"SuspendCtr\000"
 7531      656E6443 
 7531      747200
 7532              	.LASF218:
 7533 0c4d 53746B4C 		.ascii	"StkLimitPtr\000"
 7533      696D6974 
 7533      50747200 
 7534              	.LASF335:
 7535 0c59 4F535F54 		.ascii	"OS_TaskInitTCB\000"
 7535      61736B49 
 7535      6E697454 
 7535      434200
 7536              	.LASF251:
 7537 0c68 4379636C 		.ascii	"CyclesDelta\000"
 7537      65734465 
 7537      6C746100 
 7538              	.LASF34:
 7539 0c74 4F535F53 		.ascii	"OS_SEM_CTR\000"
 7539      454D5F43 
 7539      545200
 7540              	.LASF190:
 7541 0c7f 4F535F45 		.ascii	"OS_ERR_TMR_STK_SIZE_INVALID\000"
 7541      52525F54 
 7541      4D525F53 
 7541      544B5F53 
 7541      495A455F 
 7542              	.LASF167:
 7543 0c9b 4F535F45 		.ascii	"OS_ERR_TICK_WHEEL_SIZE\000"
 7543      52525F54 
 7543      49434B5F 
 7543      57484545 
 7543      4C5F5349 
 7544              	.LASF220:
 7545 0cb2 5469636B 		.ascii	"TickNextPtr\000"
 7545      4E657874 
 7545      50747200 
 7546              	.LASF144:
 7547 0cbe 4F535F45 		.ascii	"OS_ERR_TASK_NOT_EXIST\000"
 7547      52525F54 
 7547      41534B5F 
 7547      4E4F545F 
 7547      45584953 
 7548              	.LASF352:
 7549 0cd4 4F534366 		.ascii	"OSCfg_StkSizeMin\000"
 7549      675F5374 
ARM GAS  C:\Users\Aluno\AppData\Local\Temp\ccHJiRYw.s 			page 189


 7549      6B53697A 
 7549      654D696E 
 7549      00
 7550              	.LASF346:
 7551 0ce5 4F535363 		.ascii	"OSSchedRoundRobinDfltTimeQuanta\000"
 7551      68656452 
 7551      6F756E64 
 7551      526F6269 
 7551      6E44666C 
 7552              	.LASF141:
 7553 0d05 4F535F45 		.ascii	"OS_ERR_TASK_INVALID\000"
 7553      52525F54 
 7553      41534B5F 
 7553      494E5641 
 7553      4C494400 
 7554              	.LASF188:
 7555 0d19 4F535F45 		.ascii	"OS_ERR_TMR_PRIO_INVALID\000"
 7555      52525F54 
 7555      4D525F50 
 7555      52494F5F 
 7555      494E5641 
 7556              	.LASF308:
 7557 0d31 705F7473 		.ascii	"p_ts\000"
 7557      00
 7558              	.LASF156:
 7559 0d36 4F535F45 		.ascii	"OS_ERR_TASK_SUSPEND_PRIO\000"
 7559      52525F54 
 7559      41534B5F 
 7559      53555350 
 7559      454E445F 
 7560              	.LASF269:
 7561 0d4f 5264794F 		.ascii	"RdyObjPtr\000"
 7561      626A5074 
 7561      7200
 7562              	.LASF61:
 7563 0d59 4F535F45 		.ascii	"OS_ERR_INT_Q_STK_SIZE_INVALID\000"
 7563      52525F49 
 7563      4E545F51 
 7563      5F53544B 
 7563      5F53495A 
 7564              	.LASF160:
 7565 0d77 4F535F45 		.ascii	"OS_ERR_TLS_ISR\000"
 7565      52525F54 
 7565      4C535F49 
 7565      535200
 7566              	.LASF333:
 7567 0d86 705F7463 		.ascii	"p_tcb_prev\000"
 7567      625F7072 
 7567      657600
 7568              	.LASF140:
 7569 0d91 4F535F45 		.ascii	"OS_ERR_TASK_DEL_ISR\000"
 7569      52525F54 
 7569      41534B5F 
 7569      44454C5F 
 7569      49535200 
 7570              	.LASF255:
 7571 0da5 53656D50 		.ascii	"SemPendTime\000"
ARM GAS  C:\Users\Aluno\AppData\Local\Temp\ccHJiRYw.s 			page 190


 7571      656E6454 
 7571      696D6500 
 7572              	.LASF107:
 7573 0db1 4F535F45 		.ascii	"OS_ERR_PTR_INVALID\000"
 7573      52525F50 
 7573      54525F49 
 7573      4E56414C 
 7573      494400
 7574              	.LASF129:
 7575 0dc4 4F535F45 		.ascii	"OS_ERR_STATE_INVALID\000"
 7575      52525F53 
 7575      54415445 
 7575      5F494E56 
 7575      414C4944 
 7576              	.LASF201:
 7577 0dd9 4E657874 		.ascii	"NextPtr\000"
 7577      50747200 
 7578              	.LASF91:
 7579 0de1 4F535F45 		.ascii	"OS_ERR_OS_NOT_RUNNING\000"
 7579      52525F4F 
 7579      535F4E4F 
 7579      545F5255 
 7579      4E4E494E 
 7580              	.LASF279:
 7581 0df7 54797065 		.ascii	"Type\000"
 7581      00
 7582              	.LASF343:
 7583 0dfc 4F53496E 		.ascii	"OSIntNestingCtr\000"
 7583      744E6573 
 7583      74696E67 
 7583      43747200 
 7584              	.LASF176:
 7585 0e0c 4F535F45 		.ascii	"OS_ERR_TIME_SET_ISR\000"
 7585      52525F54 
 7585      494D455F 
 7585      5345545F 
 7585      49535200 
 7586              	.LASF115:
 7587 0e20 4F535F45 		.ascii	"OS_ERR_ROUND_ROBIN_1\000"
 7587      52525F52 
 7587      4F554E44 
 7587      5F524F42 
 7587      494E5F31 
 7588              	.LASF72:
 7589 0e35 4F535F45 		.ascii	"OS_ERR_MEM_INVALID_P_BLK\000"
 7589      52525F4D 
 7589      454D5F49 
 7589      4E56414C 
 7589      49445F50 
 7590              	.LASF69:
 7591 0e4e 4F535F45 		.ascii	"OS_ERR_MEM_INVALID_P_ADDR\000"
 7591      52525F4D 
 7591      454D5F49 
 7591      4E56414C 
 7591      49445F50 
 7592              	.LASF272:
 7593 0e68 52647954 		.ascii	"RdyTS\000"
ARM GAS  C:\Users\Aluno\AppData\Local\Temp\ccHJiRYw.s 			page 191


 7593      5300
 7594              	.LASF295:
 7595 0e6e 73746B5F 		.ascii	"stk_size\000"
 7595      73697A65 
 7595      00
 7596              	.LASF65:
 7597 0e77 4F535F45 		.ascii	"OS_ERR_LOCK_NESTING_OVF\000"
 7597      52525F4C 
 7597      4F434B5F 
 7597      4E455354 
 7597      494E475F 
 7598              	.LASF151:
 7599 0e8f 4F535F45 		.ascii	"OS_ERR_TASK_STK_CHK_ISR\000"
 7599      52525F54 
 7599      41534B5F 
 7599      53544B5F 
 7599      43484B5F 
 7600              	.LASF341:
 7601 0ea7 4F535F54 		.ascii	"OS_TaskSuspend\000"
 7601      61736B53 
 7601      75737065 
 7601      6E6400
 7602              	.LASF8:
 7603 0eb6 73686F72 		.ascii	"short int\000"
 7603      7420696E 
 7603      7400
 7604              	.LASF271:
 7605 0ec0 5264794D 		.ascii	"RdyMsgSize\000"
 7605      73675369 
 7605      7A6500
 7606              	.LASF77:
 7607 0ecb 4F535F45 		.ascii	"OS_ERR_MSG_POOL_EMPTY\000"
 7607      52525F4D 
 7607      53475F50 
 7607      4F4F4C5F 
 7607      454D5054 
 7608              	.LASF320:
 7609 0ee1 4F535461 		.ascii	"OSTaskSemPendAbort\000"
 7609      736B5365 
 7609      6D50656E 
 7609      6441626F 
 7609      727400
 7610              	.LASF312:
 7611 0ef4 4F535461 		.ascii	"OSTaskQPost\000"
 7611      736B5150 
 7611      6F737400 
 7612              	.LASF298:
 7613 0f00 705F6578 		.ascii	"p_ext\000"
 7613      7400
 7614              	.LASF122:
 7615 0f06 4F535F45 		.ascii	"OS_ERR_SCHED_UNLOCK_ISR\000"
 7615      52525F53 
 7615      43484544 
 7615      5F554E4C 
 7615      4F434B5F 
 7616              	.LASF256:
 7617 0f1e 53656D50 		.ascii	"SemPendTimeMax\000"
ARM GAS  C:\Users\Aluno\AppData\Local\Temp\ccHJiRYw.s 			page 192


 7617      656E6454 
 7617      696D654D 
 7617      617800
 7618              	.LASF330:
 7619 0f2d 4F535F54 		.ascii	"OS_TaskDbgListAdd\000"
 7619      61736B44 
 7619      62674C69 
 7619      73744164 
 7619      6400
 7620              	.LASF254:
 7621 0f3f 4379636C 		.ascii	"CyclesTotalPrev\000"
 7621      6573546F 
 7621      74616C50 
 7621      72657600 
 7622              	.LASF165:
 7623 0f4f 4F535F45 		.ascii	"OS_ERR_TICK_STK_INVALID\000"
 7623      52525F54 
 7623      49434B5F 
 7623      53544B5F 
 7623      494E5641 
 7624              	.LASF78:
 7625 0f67 4F535F45 		.ascii	"OS_ERR_MSG_POOL_NULL_PTR\000"
 7625      52525F4D 
 7625      53475F50 
 7625      4F4F4C5F 
 7625      4E554C4C 
 7626              	.LASF27:
 7627 0f80 4F535F4E 		.ascii	"OS_NESTING_CTR\000"
 7627      45535449 
 7627      4E475F43 
 7627      545200
 7628              	.LASF253:
 7629 0f8f 4379636C 		.ascii	"CyclesTotal\000"
 7629      6573546F 
 7629      74616C00 
 7630              	.LASF277:
 7631 0f9b 4F535F50 		.ascii	"OS_PEND_OBJ\000"
 7631      454E445F 
 7631      4F424A00 
 7632              	.LASF149:
 7633 0fa7 4F535F45 		.ascii	"OS_ERR_TASK_RESUME_SELF\000"
 7633      52525F54 
 7633      41534B5F 
 7633      52455355 
 7633      4D455F53 
 7634              	.LASF249:
 7635 0fbf 43505555 		.ascii	"CPUUsageMax\000"
 7635      73616765 
 7635      4D617800 
 7636              	.LASF280:
 7637 0fcb 50656E64 		.ascii	"PendList\000"
 7637      4C697374 
 7637      00
 7638              	.LASF89:
 7639 0fd4 4F535F45 		.ascii	"OS_ERR_OBJ_TYPE\000"
 7639      52525F4F 
 7639      424A5F54 
ARM GAS  C:\Users\Aluno\AppData\Local\Temp\ccHJiRYw.s 			page 193


 7639      59504500 
 7640              	.LASF227:
 7641 0fe4 50656E64 		.ascii	"PendDataTblPtr\000"
 7641      44617461 
 7641      54626C50 
 7641      747200
 7642              	.LASF331:
 7643 0ff3 4F535F54 		.ascii	"OS_TaskDbgListRemove\000"
 7643      61736B44 
 7643      62674C69 
 7643      73745265 
 7643      6D6F7665 
 7644              	.LASF234:
 7645 1008 53656D43 		.ascii	"SemCtr\000"
 7645      747200
 7646              	.LASF208:
 7647 100f 496E5074 		.ascii	"InPtr\000"
 7647      7200
 7648              	.LASF283:
 7649 1015 7072696F 		.ascii	"prio_new\000"
 7649      5F6E6577 
 7649      00
 7650              	.LASF237:
 7651 101e 5469636B 		.ascii	"TickRemain\000"
 7651      52656D61 
 7651      696E00
 7652              	.LASF275:
 7653 1029 48656164 		.ascii	"HeadPtr\000"
 7653      50747200 
 7654              	.LASF96:
 7655 1031 4F535F45 		.ascii	"OS_ERR_PEND_ABORT_NONE\000"
 7655      52525F50 
 7655      454E445F 
 7655      41424F52 
 7655      545F4E4F 
 7656              	.LASF334:
 7657 1048 4F535F54 		.ascii	"OS_TaskInit\000"
 7657      61736B49 
 7657      6E697400 
 7658              	.LASF10:
 7659 1054 756E7369 		.ascii	"unsigned int\000"
 7659      676E6564 
 7659      20696E74 
 7659      00
 7660              	.LASF203:
 7661 1061 4D736753 		.ascii	"MsgSize\000"
 7661      697A6500 
 7662              	.LASF80:
 7663 1069 4F535F45 		.ascii	"OS_ERR_MUTEX_OWNER\000"
 7663      52525F4D 
 7663      55544558 
 7663      5F4F574E 
 7663      455200
 7664              	.LASF264:
 7665 107c 46697273 		.ascii	"FirstPtr\000"
 7665      74507472 
 7665      00
ARM GAS  C:\Users\Aluno\AppData\Local\Temp\ccHJiRYw.s 			page 194


 7666              	.LASF128:
 7667 1085 4F535F45 		.ascii	"OS_ERR_STAT_STK_SIZE_INVALID\000"
 7667      52525F53 
 7667      5441545F 
 7667      53544B5F 
 7667      53495A45 
 7668              	.LASF50:
 7669 10a2 4F535F45 		.ascii	"OS_ERR_FLAG_NOT_RDY\000"
 7669      52525F46 
 7669      4C41475F 
 7669      4E4F545F 
 7669      52445900 
 7670              	.LASF302:
 7671 10b6 4F535461 		.ascii	"OSTaskDel\000"
 7671      736B4465 
 7671      6C00
 7672              	.LASF323:
 7673 10c0 4F535461 		.ascii	"OSTaskStkChk\000"
 7673      736B5374 
 7673      6B43686B 
 7673      00
 7674              	.LASF291:
 7675 10cd 705F6172 		.ascii	"p_arg\000"
 7675      6700
 7676              	.LASF217:
 7677 10d3 45787450 		.ascii	"ExtPtr\000"
 7677      747200
 7678              	.LASF281:
 7679 10da 73697A65 		.ascii	"sizetype\000"
 7679      74797065 
 7679      00
 7680              	.LASF95:
 7681 10e3 4F535F45 		.ascii	"OS_ERR_PEND_ABORT_ISR\000"
 7681      52525F50 
 7681      454E445F 
 7681      41424F52 
 7681      545F4953 
 7682              	.LASF15:
 7683 10f9 4350555F 		.ascii	"CPU_ADDR\000"
 7683      41444452 
 7683      00
 7684              	.LASF103:
 7685 1102 4F535F45 		.ascii	"OS_ERR_POST_ISR\000"
 7685      52525F50 
 7685      4F53545F 
 7685      49535200 
 7686              	.LASF168:
 7687 1112 4F535F45 		.ascii	"OS_ERR_TIME_DLY_ISR\000"
 7687      52525F54 
 7687      494D455F 
 7687      444C595F 
 7687      49535200 
 7688              	.LASF133:
 7689 1126 4F535F45 		.ascii	"OS_ERR_STK_LIMIT_INVALID\000"
 7689      52525F53 
 7689      544B5F4C 
 7689      494D4954 
ARM GAS  C:\Users\Aluno\AppData\Local\Temp\ccHJiRYw.s 			page 195


 7689      5F494E56 
 7690              	.LASF319:
 7691 113f 4F535461 		.ascii	"OSTaskSemPend\000"
 7691      736B5365 
 7691      6D50656E 
 7691      6400
 7692              	.LASF1:
 7693 114d 4350555F 		.ascii	"CPU_BOOLEAN\000"
 7693      424F4F4C 
 7693      45414E00 
 7694              	.LASF338:
 7695 1159 4F535F54 		.ascii	"OS_TaskResume\000"
 7695      61736B52 
 7695      6573756D 
 7695      6500
 7696              	.LASF354:
 7697 1167 2E2E5C2E 		.ascii	"..\\..\\..\\..\\..\\..\\uCOS-III\\Source\\os_task.c"
 7697      2E5C2E2E 
 7697      5C2E2E5C 
 7697      2E2E5C2E 
 7697      2E5C7543 
 7698 1192 00       		.ascii	"\000"
 7699              	.LASF311:
 7700 1193 4F535461 		.ascii	"OSTaskQPendAbort\000"
 7700      736B5150 
 7700      656E6441 
 7700      626F7274 
 7700      00
 7701              	.LASF23:
 7702 11a4 4F535F43 		.ascii	"OS_CYCLES\000"
 7702      59434C45 
 7702      5300
 7703              	.LASF214:
 7704 11ae 4F535F54 		.ascii	"OS_TCB\000"
 7704      434200
 7705              	.LASF290:
 7706 11b5 705F7461 		.ascii	"p_task\000"
 7706      736B00
 7707              	.LASF328:
 7708 11bc 4F535461 		.ascii	"OSTaskSuspend\000"
 7708      736B5375 
 7708      7370656E 
 7708      6400
 7709              	.LASF132:
 7710 11ca 4F535F45 		.ascii	"OS_ERR_STK_SIZE_INVALID\000"
 7710      52525F53 
 7710      544B5F53 
 7710      495A455F 
 7710      494E5641 
 7711              	.LASF293:
 7712 11e2 705F7374 		.ascii	"p_stk_base\000"
 7712      6B5F6261 
 7712      736500
 7713              	.LASF191:
 7714 11ed 4F535F45 		.ascii	"OS_ERR_TMR_STOPPED\000"
 7714      52525F54 
 7714      4D525F53 
ARM GAS  C:\Users\Aluno\AppData\Local\Temp\ccHJiRYw.s 			page 196


 7714      544F5050 
 7714      454400
 7715              	.LASF3:
 7716 1200 756E7369 		.ascii	"unsigned char\000"
 7716      676E6564 
 7716      20636861 
 7716      7200
 7717              	.LASF146:
 7718 120e 4F535F45 		.ascii	"OS_ERR_TASK_OPT\000"
 7718      52525F54 
 7718      41534B5F 
 7718      4F505400 
 7719              	.LASF345:
 7720 121e 4F535363 		.ascii	"OSSchedLockNestingCtr\000"
 7720      6865644C 
 7720      6F636B4E 
 7720      65737469 
 7720      6E674374 
 7721              	.LASF178:
 7722 1234 4F535F45 		.ascii	"OS_ERR_TIMEOUT\000"
 7722      52525F54 
 7722      494D454F 
 7722      555400
 7723              	.LASF35:
 7724 1243 4F535F53 		.ascii	"OS_STATE\000"
 7724      54415445 
 7724      00
 7725              	.LASF306:
 7726 124c 74696D65 		.ascii	"timeout\000"
 7726      6F757400 
 7727              	.LASF30:
 7728 1254 4F535F4F 		.ascii	"OS_OPT\000"
 7728      505400
 7729              	.LASF213:
 7730 125b 4F535F54 		.ascii	"OS_TASK_PTR\000"
 7730      41534B5F 
 7730      50545200 
 7731              	.LASF67:
 7732 1267 4F535F45 		.ascii	"OS_ERR_MEM_CREATE_ISR\000"
 7732      52525F4D 
 7732      454D5F43 
 7732      52454154 
 7732      455F4953 
 7733              	.LASF130:
 7734 127d 4F535F45 		.ascii	"OS_ERR_STATUS_INVALID\000"
 7734      52525F53 
 7734      54415455 
 7734      535F494E 
 7734      56414C49 
 7735              	.LASF196:
 7736 1293 4F535F45 		.ascii	"OS_ERR_Y\000"
 7736      52525F59 
 7736      00
 7737              	.LASF99:
 7738 129c 4F535F45 		.ascii	"OS_ERR_PEND_ISR\000"
 7738      52525F50 
 7738      454E445F 
ARM GAS  C:\Users\Aluno\AppData\Local\Temp\ccHJiRYw.s 			page 197


 7738      49535200 
 7739              	.LASF198:
 7740 12ac 4F535F45 		.ascii	"OS_ERR_Z\000"
 7740      52525F5A 
 7740      00
 7741              	.LASF222:
 7742 12b5 5469636B 		.ascii	"TickSpokePtr\000"
 7742      53706F6B 
 7742      65507472 
 7742      00
 7743              	.LASF261:
 7744 12c2 4462674E 		.ascii	"DbgNamePtr\000"
 7744      616D6550 
 7744      747200
 7745              	.LASF209:
 7746 12cd 4F757450 		.ascii	"OutPtr\000"
 7746      747200
 7747              	.LASF226:
 7748 12d4 5461736B 		.ascii	"TaskEntryArg\000"
 7748      456E7472 
 7748      79417267 
 7748      00
 7749              	.LASF109:
 7750 12e1 4F535F45 		.ascii	"OS_ERR_Q_FULL\000"
 7750      52525F51 
 7750      5F46554C 
 7750      4C00
 7751              	.LASF287:
 7752 12ef 4F535461 		.ascii	"OSTaskChangePrio\000"
 7752      736B4368 
 7752      616E6765 
 7752      5072696F 
 7752      00
 7753              	.LASF60:
 7754 1300 4F535F45 		.ascii	"OS_ERR_INT_Q_STK_INVALID\000"
 7754      52525F49 
 7754      4E545F51 
 7754      5F53544B 
 7754      5F494E56 
 7755              	.LASF173:
 7756 1319 4F535F45 		.ascii	"OS_ERR_TIME_INVALID_SECONDS\000"
 7756      52525F54 
 7756      494D455F 
 7756      494E5641 
 7756      4C49445F 
 7757              	.LASF137:
 7758 1335 4F535F45 		.ascii	"OS_ERR_TASK_DEL\000"
 7758      52525F54 
 7758      41534B5F 
 7758      44454C00 
 7759              	.LASF273:
 7760 1345 4F535F50 		.ascii	"OS_PEND_LIST\000"
 7760      454E445F 
 7760      4C495354 
 7760      00
 7761              	.LASF313:
 7762 1352 6D73675F 		.ascii	"msg_size\000"
ARM GAS  C:\Users\Aluno\AppData\Local\Temp\ccHJiRYw.s 			page 198


 7762      73697A65 
 7762      00
 7763              	.LASF5:
 7764 135b 7369676E 		.ascii	"signed char\000"
 7764      65642063 
 7764      68617200 
 7765              	.LASF204:
 7766 1367 4D736754 		.ascii	"MsgTS\000"
 7766      5300
 7767              	.LASF337:
 7768 136d 4F535F54 		.ascii	"OS_TaskQPost\000"
 7768      61736B51 
 7768      506F7374 
 7768      00
 7769              	.LASF48:
 7770 137a 4F535F45 		.ascii	"OS_ERR_FATAL_RETURN\000"
 7770      52525F46 
 7770      4154414C 
 7770      5F524554 
 7770      55524E00 
 7771              	.LASF7:
 7772 138e 73686F72 		.ascii	"short unsigned int\000"
 7772      7420756E 
 7772      7369676E 
 7772      65642069 
 7772      6E7400
 7773              	.LASF24:
 7774 13a1 4F535F46 		.ascii	"OS_FLAGS\000"
 7774      4C414753 
 7774      00
 7775              	.LASF340:
 7776 13aa 4F535F54 		.ascii	"OS_TaskSemPost\000"
 7776      61736B53 
 7776      656D506F 
 7776      737400
 7777              	.LASF202:
 7778 13b9 4D736750 		.ascii	"MsgPtr\000"
 7778      747200
 7779              	.LASF161:
 7780 13c0 4F535F45 		.ascii	"OS_ERR_TLS_NO_MORE_AVAIL\000"
 7780      52525F54 
 7780      4C535F4E 
 7780      4F5F4D4F 
 7780      52455F41 
 7781              	.LASF38:
 7782 13d9 4F535F45 		.ascii	"OS_ERR_NONE\000"
 7782      52525F4E 
 7782      4F4E4500 
 7783              	.LASF303:
 7784 13e5 656E7472 		.ascii	"entries\000"
 7784      69657300 
 7785              	.LASF266:
 7786 13ed 6F735F70 		.ascii	"os_pend_data\000"
 7786      656E645F 
 7786      64617461 
 7786      00
 7787              	.LASF33:
ARM GAS  C:\Users\Aluno\AppData\Local\Temp\ccHJiRYw.s 			page 199


 7788 13fa 4F535F52 		.ascii	"OS_REG_ID\000"
 7788      45475F49 
 7788      4400
 7789              	.LASF120:
 7790 1404 4F535F45 		.ascii	"OS_ERR_SCHED_LOCKED\000"
 7790      52525F53 
 7790      43484544 
 7790      5F4C4F43 
 7790      4B454400 
 7791              	.LASF52:
 7792 1418 4F535F45 		.ascii	"OS_ERR_FLUSH_ISR\000"
 7792      52525F46 
 7792      4C555348 
 7792      5F495352 
 7792      00
 7793              	.LASF231:
 7794 1429 5072696F 		.ascii	"Prio\000"
 7794      00
 7795              	.LASF296:
 7796 142e 715F7369 		.ascii	"q_size\000"
 7796      7A6500
 7797              	.LASF14:
 7798 1435 646F7562 		.ascii	"double\000"
 7798      6C6500
 7799              	.LASF94:
 7800 143c 4F535F45 		.ascii	"OS_ERR_PEND_ABORT\000"
 7800      52525F50 
 7800      454E445F 
 7800      41424F52 
 7800      5400
 7801              	.LASF248:
 7802 144e 43505555 		.ascii	"CPUUsage\000"
 7802      73616765 
 7802      00
 7803              	.LASF121:
 7804 1457 4F535F45 		.ascii	"OS_ERR_SCHED_NOT_LOCKED\000"
 7804      52525F53 
 7804      43484544 
 7804      5F4E4F54 
 7804      5F4C4F43 
 7805              	.LASF105:
 7806 146f 4F535F45 		.ascii	"OS_ERR_PRIO\000"
 7806      52525F50 
 7806      52494F00 
 7807              	.LASF98:
 7808 147b 4F535F45 		.ascii	"OS_ERR_PEND_DEL\000"
 7808      52525F50 
 7808      454E445F 
 7808      44454C00 
 7809              	.LASF268:
 7810 148b 50656E64 		.ascii	"PendObjPtr\000"
 7810      4F626A50 
 7810      747200
 7811              	.LASF212:
 7812 1496 4E627245 		.ascii	"NbrEntriesMax\000"
 7812      6E747269 
 7812      65734D61 
ARM GAS  C:\Users\Aluno\AppData\Local\Temp\ccHJiRYw.s 			page 200


 7812      7800
 7813              	.LASF348:
 7814 14a4 4F535461 		.ascii	"OSTaskDbgListPtr\000"
 7814      736B4462 
 7814      674C6973 
 7814      74507472 
 7814      00
 7815              	.LASF274:
 7816 14b5 6F735F70 		.ascii	"os_pend_list\000"
 7816      656E645F 
 7816      6C697374 
 7816      00
 7817              	.LASF75:
 7818 14c2 4F535F45 		.ascii	"OS_ERR_MEM_INVALID_SIZE\000"
 7818      52525F4D 
 7818      454D5F49 
 7818      4E56414C 
 7818      49445F53 
 7819              	.LASF152:
 7820 14da 4F535F45 		.ascii	"OS_ERR_TASK_SUSPENDED\000"
 7820      52525F54 
 7820      41534B5F 
 7820      53555350 
 7820      454E4445 
 7821              	.LASF124:
 7822 14f0 4F535F45 		.ascii	"OS_ERR_SET_ISR\000"
 7822      52525F53 
 7822      45545F49 
 7822      535200
 7823              	.LASF243:
 7824 14ff 52656754 		.ascii	"RegTbl\000"
 7824      626C00
 7825              	.LASF309:
 7826 1506 705F6D73 		.ascii	"p_msg_q\000"
 7826      675F7100 
 7827              	.LASF123:
 7828 150e 4F535F45 		.ascii	"OS_ERR_SEM_OVF\000"
 7828      52525F53 
 7828      454D5F4F 
 7828      564600
 7829              	.LASF138:
 7830 151d 4F535F45 		.ascii	"OS_ERR_TASK_DEL_IDLE\000"
 7830      52525F54 
 7830      41534B5F 
 7830      44454C5F 
 7830      49444C45 
 7831              	.LASF170:
 7832 1532 4F535F45 		.ascii	"OS_ERR_TIME_GET_ISR\000"
 7832      52525F54 
 7832      494D455F 
 7832      4745545F 
 7832      49535200 
 7833              	.LASF238:
 7834 1546 54696D65 		.ascii	"TimeQuanta\000"
 7834      5175616E 
 7834      746100
 7835              	.LASF169:
ARM GAS  C:\Users\Aluno\AppData\Local\Temp\ccHJiRYw.s 			page 201


 7836 1551 4F535F45 		.ascii	"OS_ERR_TIME_DLY_RESUME_ISR\000"
 7836      52525F54 
 7836      494D455F 
 7836      444C595F 
 7836      52455355 
 7837              	.LASF164:
 7838 156c 4F535F45 		.ascii	"OS_ERR_TICK_PRIO_INVALID\000"
 7838      52525F54 
 7838      49434B5F 
 7838      5052494F 
 7838      5F494E56 
 7839              	.LASF329:
 7840 1585 4F535461 		.ascii	"OSTaskTimeQuantaSet\000"
 7840      736B5469 
 7840      6D655175 
 7840      616E7461 
 7840      53657400 
 7841              	.LASF104:
 7842 1599 4F535F45 		.ascii	"OS_ERR_PRIO_EXIST\000"
 7842      52525F50 
 7842      52494F5F 
 7842      45584953 
 7842      5400
 7843              	.LASF207:
 7844 15ab 6F735F6D 		.ascii	"os_msg_q\000"
 7844      73675F71 
 7844      00
 7845              	.LASF76:
 7846 15b4 4F535F45 		.ascii	"OS_ERR_MEM_NO_FREE_BLKS\000"
 7846      52525F4D 
 7846      454D5F4E 
 7846      4F5F4652 
 7846      45455F42 
 7847              	.LASF16:
 7848 15cc 4350555F 		.ascii	"CPU_STK\000"
 7848      53544B00 
 7849              		.ident	"GCC: (GNU Tools for ARM Embedded Processors) 5.4.1 20160609 (release) [ARM/embedded-5-bran
