ARM GAS  C:\Users\alex\AppData\Local\Temp\ccGPonqd.s 			page 1


   1              		.syntax unified
   2              		.cpu cortex-m3
   3              		.fpu softvfp
   4              		.eabi_attribute 20, 1
   5              		.eabi_attribute 21, 1
   6              		.eabi_attribute 23, 3
   7              		.eabi_attribute 24, 1
   8              		.eabi_attribute 25, 1
   9              		.eabi_attribute 26, 1
  10              		.eabi_attribute 30, 6
  11              		.eabi_attribute 34, 1
  12              		.eabi_attribute 18, 4
  13              		.thumb
  14              		.syntax unified
  15              		.file	"os_tick.c"
  16              		.text
  17              	.Ltext0:
  18              		.cfi_sections	.debug_frame
  19              		.section	.text.OS_TickTask,"ax",%progbits
  20              		.align	2
  21              		.global	OS_TickTask
  22              		.thumb
  23              		.thumb_func
  24              		.type	OS_TickTask, %function
  25              	OS_TickTask:
  26              	.LFB0:
  27              		.file 1 "..\\..\\..\\..\\..\\..\\uCOS-III\\Source\\os_tick.c"
   1:..\..\..\..\..\..\uCOS-III\Source/os_tick.c **** /*
   2:..\..\..\..\..\..\uCOS-III\Source/os_tick.c **** ***************************************************************************************************
   3:..\..\..\..\..\..\uCOS-III\Source/os_tick.c **** *                                                      uC/OS-III
   4:..\..\..\..\..\..\uCOS-III\Source/os_tick.c **** *                                                 The Real-Time Kernel
   5:..\..\..\..\..\..\uCOS-III\Source/os_tick.c **** *
   6:..\..\..\..\..\..\uCOS-III\Source/os_tick.c **** *                                  (c) Copyright 2009-2012; Micrium, Inc.; Weston, FL
   7:..\..\..\..\..\..\uCOS-III\Source/os_tick.c **** *                           All rights reserved.  Protected by international copyright laws.
   8:..\..\..\..\..\..\uCOS-III\Source/os_tick.c **** *
   9:..\..\..\..\..\..\uCOS-III\Source/os_tick.c **** *                                                   TICK MANAGEMENT
  10:..\..\..\..\..\..\uCOS-III\Source/os_tick.c **** *
  11:..\..\..\..\..\..\uCOS-III\Source/os_tick.c **** * File    : OS_TICK.C
  12:..\..\..\..\..\..\uCOS-III\Source/os_tick.c **** * By      : JJL
  13:..\..\..\..\..\..\uCOS-III\Source/os_tick.c **** * Version : V3.03.01
  14:..\..\..\..\..\..\uCOS-III\Source/os_tick.c **** *
  15:..\..\..\..\..\..\uCOS-III\Source/os_tick.c **** * LICENSING TERMS:
  16:..\..\..\..\..\..\uCOS-III\Source/os_tick.c **** * ---------------
  17:..\..\..\..\..\..\uCOS-III\Source/os_tick.c **** *           uC/OS-III is provided in source form for FREE short-term evaluation, for educational us
  18:..\..\..\..\..\..\uCOS-III\Source/os_tick.c **** *           for peaceful research.  If you plan or intend to use uC/OS-III in a commercial applicat
  19:..\..\..\..\..\..\uCOS-III\Source/os_tick.c **** *           product then, you need to contact Micrium to properly license uC/OS-III for its use in 
  20:..\..\..\..\..\..\uCOS-III\Source/os_tick.c **** *           application/product.   We provide ALL the source code for your convenience and to help 
  21:..\..\..\..\..\..\uCOS-III\Source/os_tick.c **** *           experience uC/OS-III.  The fact that the source is provided does NOT mean that you can 
  22:..\..\..\..\..\..\uCOS-III\Source/os_tick.c **** *           it commercially without paying a licensing fee.
  23:..\..\..\..\..\..\uCOS-III\Source/os_tick.c **** *
  24:..\..\..\..\..\..\uCOS-III\Source/os_tick.c **** *           Knowledge of the source code may NOT be used to develop a similar product.
  25:..\..\..\..\..\..\uCOS-III\Source/os_tick.c **** *
  26:..\..\..\..\..\..\uCOS-III\Source/os_tick.c **** *           Please help us continue to provide the embedded community with the finest software avai
  27:..\..\..\..\..\..\uCOS-III\Source/os_tick.c **** *           Your honesty is greatly appreciated.
  28:..\..\..\..\..\..\uCOS-III\Source/os_tick.c **** *
  29:..\..\..\..\..\..\uCOS-III\Source/os_tick.c **** *           You can contact us at www.micrium.com, or by phone at +1 (954) 217-2036.
  30:..\..\..\..\..\..\uCOS-III\Source/os_tick.c **** ***************************************************************************************************
ARM GAS  C:\Users\alex\AppData\Local\Temp\ccGPonqd.s 			page 2


  31:..\..\..\..\..\..\uCOS-III\Source/os_tick.c **** */
  32:..\..\..\..\..\..\uCOS-III\Source/os_tick.c **** 
  33:..\..\..\..\..\..\uCOS-III\Source/os_tick.c **** #define  MICRIUM_SOURCE
  34:..\..\..\..\..\..\uCOS-III\Source/os_tick.c **** #include <os.h>
  35:..\..\..\..\..\..\uCOS-III\Source/os_tick.c **** 
  36:..\..\..\..\..\..\uCOS-III\Source/os_tick.c **** #ifdef VSC_INCLUDE_SOURCE_FILE_NAMES
  37:..\..\..\..\..\..\uCOS-III\Source/os_tick.c **** const  CPU_CHAR  *os_tick__c = "$Id: $";
  38:..\..\..\..\..\..\uCOS-III\Source/os_tick.c **** #endif
  39:..\..\..\..\..\..\uCOS-III\Source/os_tick.c **** 
  40:..\..\..\..\..\..\uCOS-III\Source/os_tick.c **** /*
  41:..\..\..\..\..\..\uCOS-III\Source/os_tick.c **** ***************************************************************************************************
  42:..\..\..\..\..\..\uCOS-III\Source/os_tick.c **** *                                                  LOCAL PROTOTYPES
  43:..\..\..\..\..\..\uCOS-III\Source/os_tick.c **** ***************************************************************************************************
  44:..\..\..\..\..\..\uCOS-III\Source/os_tick.c **** */
  45:..\..\..\..\..\..\uCOS-III\Source/os_tick.c **** 
  46:..\..\..\..\..\..\uCOS-III\Source/os_tick.c **** 
  47:..\..\..\..\..\..\uCOS-III\Source/os_tick.c **** /*
  48:..\..\..\..\..\..\uCOS-III\Source/os_tick.c **** ***************************************************************************************************
  49:..\..\..\..\..\..\uCOS-III\Source/os_tick.c **** *                                                      TICK TASK
  50:..\..\..\..\..\..\uCOS-III\Source/os_tick.c **** *
  51:..\..\..\..\..\..\uCOS-III\Source/os_tick.c **** * Description: This task is internal to uC/OS-III and is triggered by the tick interrupt.
  52:..\..\..\..\..\..\uCOS-III\Source/os_tick.c **** *
  53:..\..\..\..\..\..\uCOS-III\Source/os_tick.c **** * Arguments  : p_arg     is an argument passed to the task when the task is created (unused).
  54:..\..\..\..\..\..\uCOS-III\Source/os_tick.c **** *
  55:..\..\..\..\..\..\uCOS-III\Source/os_tick.c **** * Returns    : none
  56:..\..\..\..\..\..\uCOS-III\Source/os_tick.c **** *
  57:..\..\..\..\..\..\uCOS-III\Source/os_tick.c **** * Note(s)    : This function is INTERNAL to uC/OS-III and your application should not call it.
  58:..\..\..\..\..\..\uCOS-III\Source/os_tick.c **** ***************************************************************************************************
  59:..\..\..\..\..\..\uCOS-III\Source/os_tick.c **** */
  60:..\..\..\..\..\..\uCOS-III\Source/os_tick.c **** 
  61:..\..\..\..\..\..\uCOS-III\Source/os_tick.c **** void  OS_TickTask (void  *p_arg)
  62:..\..\..\..\..\..\uCOS-III\Source/os_tick.c **** {
  28              		.loc 1 62 0
  29              		.cfi_startproc
  30              		@ args = 0, pretend = 0, frame = 16
  31              		@ frame_needed = 1, uses_anonymous_args = 0
  32 0000 80B5     		push	{r7, lr}
  33              		.cfi_def_cfa_offset 8
  34              		.cfi_offset 7, -8
  35              		.cfi_offset 14, -4
  36 0002 84B0     		sub	sp, sp, #16
  37              		.cfi_def_cfa_offset 24
  38 0004 00AF     		add	r7, sp, #0
  39              		.cfi_def_cfa_register 7
  40 0006 7860     		str	r0, [r7, #4]
  41              	.L3:
  63:..\..\..\..\..\..\uCOS-III\Source/os_tick.c ****     OS_ERR  err;
  64:..\..\..\..\..\..\uCOS-III\Source/os_tick.c ****     CPU_TS  ts;
  65:..\..\..\..\..\..\uCOS-III\Source/os_tick.c **** 
  66:..\..\..\..\..\..\uCOS-III\Source/os_tick.c **** 
  67:..\..\..\..\..\..\uCOS-III\Source/os_tick.c ****     p_arg = p_arg;                                          /* Prevent compiler warning            
  68:..\..\..\..\..\..\uCOS-III\Source/os_tick.c **** 
  69:..\..\..\..\..\..\uCOS-III\Source/os_tick.c ****     while (DEF_ON) {
  70:..\..\..\..\..\..\uCOS-III\Source/os_tick.c ****         (void)OSTaskSemPend((OS_TICK  )0,
  42              		.loc 1 70 0
  43 0008 07F10E03 		add	r3, r7, #14
  44 000c 07F10802 		add	r2, r7, #8
ARM GAS  C:\Users\alex\AppData\Local\Temp\ccGPonqd.s 			page 3


  45 0010 0021     		movs	r1, #0
  46 0012 0020     		movs	r0, #0
  47 0014 FFF7FEFF 		bl	OSTaskSemPend
  71:..\..\..\..\..\..\uCOS-III\Source/os_tick.c ****                             (OS_OPT   )OS_OPT_PEND_BLOCKING,
  72:..\..\..\..\..\..\uCOS-III\Source/os_tick.c ****                             (CPU_TS  *)&ts,
  73:..\..\..\..\..\..\uCOS-III\Source/os_tick.c ****                             (OS_ERR  *)&err);               /* Wait for signal from tick interrupt 
  74:..\..\..\..\..\..\uCOS-III\Source/os_tick.c ****         if (err == OS_ERR_NONE) {
  48              		.loc 1 74 0
  49 0018 FB89     		ldrh	r3, [r7, #14]
  50 001a 002B     		cmp	r3, #0
  51 001c F4D1     		bne	.L3
  75:..\..\..\..\..\..\uCOS-III\Source/os_tick.c ****             if (OSRunning == OS_STATE_OS_RUNNING) {
  52              		.loc 1 75 0
  53 001e 034B     		ldr	r3, .L4
  54 0020 1B78     		ldrb	r3, [r3]	@ zero_extendqisi2
  55 0022 012B     		cmp	r3, #1
  56 0024 F0D1     		bne	.L3
  76:..\..\..\..\..\..\uCOS-III\Source/os_tick.c ****                 OS_TickListUpdate();                        /* Update all tasks waiting for time   
  57              		.loc 1 76 0
  58 0026 FFF7FEFF 		bl	OS_TickListUpdate
  77:..\..\..\..\..\..\uCOS-III\Source/os_tick.c ****             }
  78:..\..\..\..\..\..\uCOS-III\Source/os_tick.c ****         }
  79:..\..\..\..\..\..\uCOS-III\Source/os_tick.c ****     }
  59              		.loc 1 79 0
  60 002a EDE7     		b	.L3
  61              	.L5:
  62              		.align	2
  63              	.L4:
  64 002c 00000000 		.word	OSRunning
  65              		.cfi_endproc
  66              	.LFE0:
  67              		.size	OS_TickTask, .-OS_TickTask
  68              		.section	.rodata
  69              		.align	2
  70              	.LC0:
  71 0000 75432F4F 		.ascii	"uC/OS-III Tick Task\000"
  71      532D4949 
  71      49205469 
  71      636B2054 
  71      61736B00 
  72              		.section	.text.OS_TickTaskInit,"ax",%progbits
  73              		.align	2
  74              		.global	OS_TickTaskInit
  75              		.thumb
  76              		.thumb_func
  77              		.type	OS_TickTaskInit, %function
  78              	OS_TickTaskInit:
  79              	.LFB1:
  80:..\..\..\..\..\..\uCOS-III\Source/os_tick.c **** }
  81:..\..\..\..\..\..\uCOS-III\Source/os_tick.c **** 
  82:..\..\..\..\..\..\uCOS-III\Source/os_tick.c **** /*$PAGE*/
  83:..\..\..\..\..\..\uCOS-III\Source/os_tick.c **** /*
  84:..\..\..\..\..\..\uCOS-III\Source/os_tick.c **** ***************************************************************************************************
  85:..\..\..\..\..\..\uCOS-III\Source/os_tick.c **** *                                                 INITIALIZE TICK TASK
  86:..\..\..\..\..\..\uCOS-III\Source/os_tick.c **** *
  87:..\..\..\..\..\..\uCOS-III\Source/os_tick.c **** * Description: This function is called by OSInit() to create the tick task.
  88:..\..\..\..\..\..\uCOS-III\Source/os_tick.c **** *
ARM GAS  C:\Users\alex\AppData\Local\Temp\ccGPonqd.s 			page 4


  89:..\..\..\..\..\..\uCOS-III\Source/os_tick.c **** * Arguments  : p_err   is a pointer to a variable that will hold the value of an error code:
  90:..\..\..\..\..\..\uCOS-III\Source/os_tick.c **** *
  91:..\..\..\..\..\..\uCOS-III\Source/os_tick.c **** *                          OS_ERR_TICK_STK_INVALID   if the pointer to the tick task stack is a NUL
  92:..\..\..\..\..\..\uCOS-III\Source/os_tick.c **** *                          OS_ERR_TICK_STK_SIZE      indicates that the specified stack size
  93:..\..\..\..\..\..\uCOS-III\Source/os_tick.c **** *                          OS_ERR_PRIO_INVALID       if the priority you specified in the configura
  94:..\..\..\..\..\..\uCOS-III\Source/os_tick.c **** *                                                      (There could be only one task at the Idle Ta
  95:..\..\..\..\..\..\uCOS-III\Source/os_tick.c **** *                                                      (Maybe the priority you specified is higher 
  96:..\..\..\..\..\..\uCOS-III\Source/os_tick.c **** *                          OS_ERR_??                 other error code returned by OSTaskCreate()
  97:..\..\..\..\..\..\uCOS-III\Source/os_tick.c **** *
  98:..\..\..\..\..\..\uCOS-III\Source/os_tick.c **** * Returns    : none
  99:..\..\..\..\..\..\uCOS-III\Source/os_tick.c **** *
 100:..\..\..\..\..\..\uCOS-III\Source/os_tick.c **** * Note(s)    : This function is INTERNAL to uC/OS-III and your application should not call it.
 101:..\..\..\..\..\..\uCOS-III\Source/os_tick.c **** ***************************************************************************************************
 102:..\..\..\..\..\..\uCOS-III\Source/os_tick.c **** */
 103:..\..\..\..\..\..\uCOS-III\Source/os_tick.c **** 
 104:..\..\..\..\..\..\uCOS-III\Source/os_tick.c **** void  OS_TickTaskInit (OS_ERR  *p_err)
 105:..\..\..\..\..\..\uCOS-III\Source/os_tick.c **** {
  80              		.loc 1 105 0
  81              		.cfi_startproc
  82              		@ args = 0, pretend = 0, frame = 8
  83              		@ frame_needed = 1, uses_anonymous_args = 0
  84 0000 90B5     		push	{r4, r7, lr}
  85              		.cfi_def_cfa_offset 12
  86              		.cfi_offset 4, -12
  87              		.cfi_offset 7, -8
  88              		.cfi_offset 14, -4
  89 0002 8DB0     		sub	sp, sp, #52
  90              		.cfi_def_cfa_offset 64
  91 0004 0AAF     		add	r7, sp, #40
  92              		.cfi_def_cfa 7, 24
  93 0006 7860     		str	r0, [r7, #4]
 106:..\..\..\..\..\..\uCOS-III\Source/os_tick.c **** #ifdef OS_SAFETY_CRITICAL
 107:..\..\..\..\..\..\uCOS-III\Source/os_tick.c ****     if (p_err == (OS_ERR *)0) {
 108:..\..\..\..\..\..\uCOS-III\Source/os_tick.c ****         OS_SAFETY_CRITICAL_EXCEPTION();
 109:..\..\..\..\..\..\uCOS-III\Source/os_tick.c ****         return;
 110:..\..\..\..\..\..\uCOS-III\Source/os_tick.c ****     }
 111:..\..\..\..\..\..\uCOS-III\Source/os_tick.c **** #endif
 112:..\..\..\..\..\..\uCOS-III\Source/os_tick.c **** 
 113:..\..\..\..\..\..\uCOS-III\Source/os_tick.c ****     OSTickCtr         = (OS_TICK)0u;                        /* Clear the tick counter              
  94              		.loc 1 113 0
  95 0008 214B     		ldr	r3, .L11
  96 000a 0022     		movs	r2, #0
  97 000c 1A60     		str	r2, [r3]
 114:..\..\..\..\..\..\uCOS-III\Source/os_tick.c **** 
 115:..\..\..\..\..\..\uCOS-III\Source/os_tick.c ****     OSTickTaskTimeMax = (CPU_TS)0u;
  98              		.loc 1 115 0
  99 000e 214B     		ldr	r3, .L11+4
 100 0010 0022     		movs	r2, #0
 101 0012 1A60     		str	r2, [r3]
 116:..\..\..\..\..\..\uCOS-III\Source/os_tick.c **** 
 117:..\..\..\..\..\..\uCOS-III\Source/os_tick.c **** 
 118:..\..\..\..\..\..\uCOS-III\Source/os_tick.c ****     OS_TickListInit();                                      /* Initialize the tick list data struct
 102              		.loc 1 118 0
 103 0014 FFF7FEFF 		bl	OS_TickListInit
 119:..\..\..\..\..\..\uCOS-III\Source/os_tick.c **** 
 120:..\..\..\..\..\..\uCOS-III\Source/os_tick.c ****                                                             /* ---------------- CREATE THE TICK TAS
 121:..\..\..\..\..\..\uCOS-III\Source/os_tick.c ****     if (OSCfg_TickTaskStkBasePtr == (CPU_STK *)0) {
ARM GAS  C:\Users\alex\AppData\Local\Temp\ccGPonqd.s 			page 5


 104              		.loc 1 121 0
 105 0018 1F4B     		ldr	r3, .L11+8
 106 001a 1B68     		ldr	r3, [r3]
 107 001c 002B     		cmp	r3, #0
 108 001e 04D1     		bne	.L7
 122:..\..\..\..\..\..\uCOS-III\Source/os_tick.c ****        *p_err = OS_ERR_TICK_STK_INVALID;
 109              		.loc 1 122 0
 110 0020 7B68     		ldr	r3, [r7, #4]
 111 0022 47F21222 		movw	r2, #29202
 112 0026 1A80     		strh	r2, [r3]	@ movhi
 123:..\..\..\..\..\..\uCOS-III\Source/os_tick.c ****         return;
 113              		.loc 1 123 0
 114 0028 2FE0     		b	.L6
 115              	.L7:
 124:..\..\..\..\..\..\uCOS-III\Source/os_tick.c ****     }
 125:..\..\..\..\..\..\uCOS-III\Source/os_tick.c **** 
 126:..\..\..\..\..\..\uCOS-III\Source/os_tick.c ****     if (OSCfg_TickTaskStkSize < OSCfg_StkSizeMin) {
 116              		.loc 1 126 0
 117 002a 1C4B     		ldr	r3, .L11+12
 118 002c 1A68     		ldr	r2, [r3]
 119 002e 1C4B     		ldr	r3, .L11+16
 120 0030 1B68     		ldr	r3, [r3]
 121 0032 9A42     		cmp	r2, r3
 122 0034 04D2     		bcs	.L9
 127:..\..\..\..\..\..\uCOS-III\Source/os_tick.c ****        *p_err = OS_ERR_TICK_STK_SIZE_INVALID;
 123              		.loc 1 127 0
 124 0036 7B68     		ldr	r3, [r7, #4]
 125 0038 47F21322 		movw	r2, #29203
 126 003c 1A80     		strh	r2, [r3]	@ movhi
 128:..\..\..\..\..\..\uCOS-III\Source/os_tick.c ****         return;
 127              		.loc 1 128 0
 128 003e 24E0     		b	.L6
 129              	.L9:
 129:..\..\..\..\..\..\uCOS-III\Source/os_tick.c ****     }
 130:..\..\..\..\..\..\uCOS-III\Source/os_tick.c **** 
 131:..\..\..\..\..\..\uCOS-III\Source/os_tick.c ****     if (OSCfg_TickTaskPrio >= (OS_CFG_PRIO_MAX - 1u)) {     /* Only one task at the 'Idle Task' pri
 130              		.loc 1 131 0
 131 0040 184B     		ldr	r3, .L11+20
 132 0042 1B78     		ldrb	r3, [r3]	@ zero_extendqisi2
 133 0044 062B     		cmp	r3, #6
 134 0046 04D9     		bls	.L10
 132:..\..\..\..\..\..\uCOS-III\Source/os_tick.c ****        *p_err = OS_ERR_TICK_PRIO_INVALID;
 135              		.loc 1 132 0
 136 0048 7B68     		ldr	r3, [r7, #4]
 137 004a 47F21122 		movw	r2, #29201
 138 004e 1A80     		strh	r2, [r3]	@ movhi
 133:..\..\..\..\..\..\uCOS-III\Source/os_tick.c ****         return;
 139              		.loc 1 133 0
 140 0050 1BE0     		b	.L6
 141              	.L10:
 134:..\..\..\..\..\..\uCOS-III\Source/os_tick.c ****     }
 135:..\..\..\..\..\..\uCOS-III\Source/os_tick.c **** 
 136:..\..\..\..\..\..\uCOS-III\Source/os_tick.c ****     OSTaskCreate((OS_TCB     *)&OSTickTaskTCB,
 142              		.loc 1 136 0
 143 0052 144B     		ldr	r3, .L11+20
 144 0054 1B78     		ldrb	r3, [r3]	@ zero_extendqisi2
 145 0056 104A     		ldr	r2, .L11+8
ARM GAS  C:\Users\alex\AppData\Local\Temp\ccGPonqd.s 			page 6


 146 0058 1268     		ldr	r2, [r2]
 147 005a 1349     		ldr	r1, .L11+24
 148 005c 0968     		ldr	r1, [r1]
 149 005e 0F48     		ldr	r0, .L11+12
 150 0060 0068     		ldr	r0, [r0]
 151 0062 7C68     		ldr	r4, [r7, #4]
 152 0064 0894     		str	r4, [sp, #32]
 153 0066 0B24     		movs	r4, #11
 154 0068 0794     		str	r4, [sp, #28]
 155 006a 0024     		movs	r4, #0
 156 006c 0694     		str	r4, [sp, #24]
 157 006e 0024     		movs	r4, #0
 158 0070 0594     		str	r4, [sp, #20]
 159 0072 0024     		movs	r4, #0
 160 0074 0494     		str	r4, [sp, #16]
 161 0076 0390     		str	r0, [sp, #12]
 162 0078 0291     		str	r1, [sp, #8]
 163 007a 0192     		str	r2, [sp, #4]
 164 007c 0093     		str	r3, [sp]
 165 007e 0023     		movs	r3, #0
 166 0080 0A4A     		ldr	r2, .L11+28
 167 0082 0B49     		ldr	r1, .L11+32
 168 0084 0B48     		ldr	r0, .L11+36
 169 0086 FFF7FEFF 		bl	OSTaskCreate
 170              	.L6:
 137:..\..\..\..\..\..\uCOS-III\Source/os_tick.c ****                  (CPU_CHAR   *)((void *)"uC/OS-III Tick Task"),
 138:..\..\..\..\..\..\uCOS-III\Source/os_tick.c ****                  (OS_TASK_PTR )OS_TickTask,
 139:..\..\..\..\..\..\uCOS-III\Source/os_tick.c ****                  (void       *)0,
 140:..\..\..\..\..\..\uCOS-III\Source/os_tick.c ****                  (OS_PRIO     )OSCfg_TickTaskPrio,
 141:..\..\..\..\..\..\uCOS-III\Source/os_tick.c ****                  (CPU_STK    *)OSCfg_TickTaskStkBasePtr,
 142:..\..\..\..\..\..\uCOS-III\Source/os_tick.c ****                  (CPU_STK_SIZE)OSCfg_TickTaskStkLimit,
 143:..\..\..\..\..\..\uCOS-III\Source/os_tick.c ****                  (CPU_STK_SIZE)OSCfg_TickTaskStkSize,
 144:..\..\..\..\..\..\uCOS-III\Source/os_tick.c ****                  (OS_MSG_QTY  )0u,
 145:..\..\..\..\..\..\uCOS-III\Source/os_tick.c ****                  (OS_TICK     )0u,
 146:..\..\..\..\..\..\uCOS-III\Source/os_tick.c ****                  (void       *)0,
 147:..\..\..\..\..\..\uCOS-III\Source/os_tick.c ****                  (OS_OPT      )(OS_OPT_TASK_STK_CHK | OS_OPT_TASK_STK_CLR | OS_OPT_TASK_NO_TLS),
 148:..\..\..\..\..\..\uCOS-III\Source/os_tick.c ****                  (OS_ERR     *)p_err);
 149:..\..\..\..\..\..\uCOS-III\Source/os_tick.c **** }
 171              		.loc 1 149 0
 172 008a 0C37     		adds	r7, r7, #12
 173              		.cfi_def_cfa_offset 12
 174 008c BD46     		mov	sp, r7
 175              		.cfi_def_cfa_register 13
 176              		@ sp needed
 177 008e 90BD     		pop	{r4, r7, pc}
 178              	.L12:
 179              		.align	2
 180              	.L11:
 181 0090 00000000 		.word	OSTickCtr
 182 0094 00000000 		.word	OSTickTaskTimeMax
 183 0098 00000000 		.word	OSCfg_TickTaskStkBasePtr
 184 009c 00000000 		.word	OSCfg_TickTaskStkSize
 185 00a0 00000000 		.word	OSCfg_StkSizeMin
 186 00a4 00000000 		.word	OSCfg_TickTaskPrio
 187 00a8 00000000 		.word	OSCfg_TickTaskStkLimit
 188 00ac 00000000 		.word	OS_TickTask
 189 00b0 00000000 		.word	.LC0
ARM GAS  C:\Users\alex\AppData\Local\Temp\ccGPonqd.s 			page 7


 190 00b4 00000000 		.word	OSTickTaskTCB
 191              		.cfi_endproc
 192              	.LFE1:
 193              		.size	OS_TickTaskInit, .-OS_TickTaskInit
 194              		.section	.text.OS_TickListInit,"ax",%progbits
 195              		.align	2
 196              		.global	OS_TickListInit
 197              		.thumb
 198              		.thumb_func
 199              		.type	OS_TickListInit, %function
 200              	OS_TickListInit:
 201              	.LFB2:
 150:..\..\..\..\..\..\uCOS-III\Source/os_tick.c **** 
 151:..\..\..\..\..\..\uCOS-III\Source/os_tick.c **** /*$PAGE*/
 152:..\..\..\..\..\..\uCOS-III\Source/os_tick.c **** /*
 153:..\..\..\..\..\..\uCOS-III\Source/os_tick.c **** ***************************************************************************************************
 154:..\..\..\..\..\..\uCOS-III\Source/os_tick.c **** *                                               INITIALIZE THE TICK LIST
 155:..\..\..\..\..\..\uCOS-III\Source/os_tick.c **** *
 156:..\..\..\..\..\..\uCOS-III\Source/os_tick.c **** * Description: This function initializes the tick handling data structures of uC/OS-III.
 157:..\..\..\..\..\..\uCOS-III\Source/os_tick.c **** *
 158:..\..\..\..\..\..\uCOS-III\Source/os_tick.c **** * Arguments  : none
 159:..\..\..\..\..\..\uCOS-III\Source/os_tick.c **** *
 160:..\..\..\..\..\..\uCOS-III\Source/os_tick.c **** * Returns    : None
 161:..\..\..\..\..\..\uCOS-III\Source/os_tick.c **** *
 162:..\..\..\..\..\..\uCOS-III\Source/os_tick.c **** * Note(s)    : This function is INTERNAL to uC/OS-III and your application MUST NOT call it.
 163:..\..\..\..\..\..\uCOS-III\Source/os_tick.c **** ***************************************************************************************************
 164:..\..\..\..\..\..\uCOS-III\Source/os_tick.c **** */
 165:..\..\..\..\..\..\uCOS-III\Source/os_tick.c **** 
 166:..\..\..\..\..\..\uCOS-III\Source/os_tick.c **** void  OS_TickListInit (void)
 167:..\..\..\..\..\..\uCOS-III\Source/os_tick.c **** {
 202              		.loc 1 167 0
 203              		.cfi_startproc
 204              		@ args = 0, pretend = 0, frame = 8
 205              		@ frame_needed = 1, uses_anonymous_args = 0
 206              		@ link register save eliminated.
 207 0000 80B4     		push	{r7}
 208              		.cfi_def_cfa_offset 4
 209              		.cfi_offset 7, -4
 210 0002 83B0     		sub	sp, sp, #12
 211              		.cfi_def_cfa_offset 16
 212 0004 00AF     		add	r7, sp, #0
 213              		.cfi_def_cfa_register 7
 168:..\..\..\..\..\..\uCOS-III\Source/os_tick.c ****     OS_TICK_SPOKE_IX   i;
 169:..\..\..\..\..\..\uCOS-III\Source/os_tick.c ****     OS_TICK_SPOKE     *p_spoke;
 170:..\..\..\..\..\..\uCOS-III\Source/os_tick.c **** 
 171:..\..\..\..\..\..\uCOS-III\Source/os_tick.c **** 
 172:..\..\..\..\..\..\uCOS-III\Source/os_tick.c **** 
 173:..\..\..\..\..\..\uCOS-III\Source/os_tick.c ****     for (i = 0u; i < OSCfg_TickWheelSize; i++) {
 214              		.loc 1 173 0
 215 0006 0023     		movs	r3, #0
 216 0008 FB80     		strh	r3, [r7, #6]	@ movhi
 217 000a 10E0     		b	.L14
 218              	.L15:
 174:..\..\..\..\..\..\uCOS-III\Source/os_tick.c ****         p_spoke                = (OS_TICK_SPOKE *)&OSCfg_TickWheel[i];
 219              		.loc 1 174 0 discriminator 3
 220 000c FB88     		ldrh	r3, [r7, #6]
 221 000e DB00     		lsls	r3, r3, #3
ARM GAS  C:\Users\alex\AppData\Local\Temp\ccGPonqd.s 			page 8


 222 0010 0C4A     		ldr	r2, .L16
 223 0012 1344     		add	r3, r3, r2
 224 0014 3B60     		str	r3, [r7]
 175:..\..\..\..\..\..\uCOS-III\Source/os_tick.c ****         p_spoke->FirstPtr      = (OS_TCB        *)0;
 225              		.loc 1 175 0 discriminator 3
 226 0016 3B68     		ldr	r3, [r7]
 227 0018 0022     		movs	r2, #0
 228 001a 1A60     		str	r2, [r3]
 176:..\..\..\..\..\..\uCOS-III\Source/os_tick.c ****         p_spoke->NbrEntries    = (OS_OBJ_QTY     )0u;
 229              		.loc 1 176 0 discriminator 3
 230 001c 3B68     		ldr	r3, [r7]
 231 001e 0022     		movs	r2, #0
 232 0020 9A80     		strh	r2, [r3, #4]	@ movhi
 177:..\..\..\..\..\..\uCOS-III\Source/os_tick.c ****         p_spoke->NbrEntriesMax = (OS_OBJ_QTY     )0u;
 233              		.loc 1 177 0 discriminator 3
 234 0022 3B68     		ldr	r3, [r7]
 235 0024 0022     		movs	r2, #0
 236 0026 DA80     		strh	r2, [r3, #6]	@ movhi
 173:..\..\..\..\..\..\uCOS-III\Source/os_tick.c ****         p_spoke                = (OS_TICK_SPOKE *)&OSCfg_TickWheel[i];
 237              		.loc 1 173 0 discriminator 3
 238 0028 FB88     		ldrh	r3, [r7, #6]
 239 002a 0133     		adds	r3, r3, #1
 240 002c FB80     		strh	r3, [r7, #6]	@ movhi
 241              	.L14:
 173:..\..\..\..\..\..\uCOS-III\Source/os_tick.c ****         p_spoke                = (OS_TICK_SPOKE *)&OSCfg_TickWheel[i];
 242              		.loc 1 173 0 is_stmt 0 discriminator 1
 243 002e 064B     		ldr	r3, .L16+4
 244 0030 1B88     		ldrh	r3, [r3]
 245 0032 FA88     		ldrh	r2, [r7, #6]
 246 0034 9A42     		cmp	r2, r3
 247 0036 E9D3     		bcc	.L15
 178:..\..\..\..\..\..\uCOS-III\Source/os_tick.c ****     }
 179:..\..\..\..\..\..\uCOS-III\Source/os_tick.c **** }
 248              		.loc 1 179 0 is_stmt 1
 249 0038 00BF     		nop
 250 003a 0C37     		adds	r7, r7, #12
 251              		.cfi_def_cfa_offset 4
 252 003c BD46     		mov	sp, r7
 253              		.cfi_def_cfa_register 13
 254              		@ sp needed
 255 003e 80BC     		pop	{r7}
 256              		.cfi_restore 7
 257              		.cfi_def_cfa_offset 0
 258 0040 7047     		bx	lr
 259              	.L17:
 260 0042 00BF     		.align	2
 261              	.L16:
 262 0044 00000000 		.word	OSCfg_TickWheel
 263 0048 00000000 		.word	OSCfg_TickWheelSize
 264              		.cfi_endproc
 265              	.LFE2:
 266              		.size	OS_TickListInit, .-OS_TickListInit
 267              		.section	.text.OS_TickListInsert,"ax",%progbits
 268              		.align	2
 269              		.global	OS_TickListInsert
 270              		.thumb
 271              		.thumb_func
ARM GAS  C:\Users\alex\AppData\Local\Temp\ccGPonqd.s 			page 9


 272              		.type	OS_TickListInsert, %function
 273              	OS_TickListInsert:
 274              	.LFB3:
 180:..\..\..\..\..\..\uCOS-III\Source/os_tick.c **** 
 181:..\..\..\..\..\..\uCOS-III\Source/os_tick.c **** /*$PAGE*/
 182:..\..\..\..\..\..\uCOS-III\Source/os_tick.c **** /*
 183:..\..\..\..\..\..\uCOS-III\Source/os_tick.c **** ***************************************************************************************************
 184:..\..\..\..\..\..\uCOS-III\Source/os_tick.c **** *                                                ADD TASK TO TICK LIST
 185:..\..\..\..\..\..\uCOS-III\Source/os_tick.c **** *
 186:..\..\..\..\..\..\uCOS-III\Source/os_tick.c **** * Description: This function is called to place a task in a list of task waiting for either time to
 187:..\..\..\..\..\..\uCOS-III\Source/os_tick.c **** *              timeout on a pend call.
 188:..\..\..\..\..\..\uCOS-III\Source/os_tick.c **** *
 189:..\..\..\..\..\..\uCOS-III\Source/os_tick.c **** * Arguments  : p_tcb          is a pointer to the OS_TCB of the task to add to the tick list
 190:..\..\..\..\..\..\uCOS-III\Source/os_tick.c **** *              -----
 191:..\..\..\..\..\..\uCOS-III\Source/os_tick.c **** *
 192:..\..\..\..\..\..\uCOS-III\Source/os_tick.c **** *              time           represents either the 'match' value of OSTickCtr or a relative time f
 193:..\..\..\..\..\..\uCOS-III\Source/os_tick.c **** *                             value of OSTickCtr as specified by the 'opt' argument..
 194:..\..\..\..\..\..\uCOS-III\Source/os_tick.c **** *
 195:..\..\..\..\..\..\uCOS-III\Source/os_tick.c **** *                             relative when 'opt' is set to OS_OPT_TIME_DLY
 196:..\..\..\..\..\..\uCOS-III\Source/os_tick.c **** *                             relative when 'opt' is set to OS_OPT_TIME_TIMEOUT
 197:..\..\..\..\..\..\uCOS-III\Source/os_tick.c **** *                             match    when 'opt' is set to OS_OPT_TIME_MATCH
 198:..\..\..\..\..\..\uCOS-III\Source/os_tick.c **** *                             periodic when 'opt' is set to OS_OPT_TIME_PERIODIC
 199:..\..\..\..\..\..\uCOS-III\Source/os_tick.c **** *
 200:..\..\..\..\..\..\uCOS-III\Source/os_tick.c **** *              opt            is an option specifying how to calculate time.  The valid values are:
 201:..\..\..\..\..\..\uCOS-III\Source/os_tick.c **** *              ---
 202:..\..\..\..\..\..\uCOS-III\Source/os_tick.c **** *                                 OS_OPT_TIME_DLY
 203:..\..\..\..\..\..\uCOS-III\Source/os_tick.c **** *                                 OS_OPT_TIME_TIMEOUT
 204:..\..\..\..\..\..\uCOS-III\Source/os_tick.c **** *                                 OS_OPT_TIME_PERIODIC
 205:..\..\..\..\..\..\uCOS-III\Source/os_tick.c **** *                                 OS_OPT_TIME_MATCH
 206:..\..\..\..\..\..\uCOS-III\Source/os_tick.c **** *
 207:..\..\..\..\..\..\uCOS-III\Source/os_tick.c **** *              p_err          is a pointer to a variable that will contain an error code returned b
 208:..\..\..\..\..\..\uCOS-III\Source/os_tick.c **** *              -----
 209:..\..\..\..\..\..\uCOS-III\Source/os_tick.c **** *                                 OS_ERR_NONE           the call was successful and the time delay 
 210:..\..\..\..\..\..\uCOS-III\Source/os_tick.c **** *                                 OS_ERR_TIME_ZERO_DLY  if delay is zero or already occurred.
 211:..\..\..\..\..\..\uCOS-III\Source/os_tick.c **** *
 212:..\..\..\..\..\..\uCOS-III\Source/os_tick.c **** * Returns    : None
 213:..\..\..\..\..\..\uCOS-III\Source/os_tick.c **** *
 214:..\..\..\..\..\..\uCOS-III\Source/os_tick.c **** * Note(s)    : 1) This function is INTERNAL to uC/OS-III and your application MUST NOT call it.
 215:..\..\..\..\..\..\uCOS-III\Source/os_tick.c **** *
 216:..\..\..\..\..\..\uCOS-III\Source/os_tick.c **** *              2) This function is assumed to be called with interrupts disabled.
 217:..\..\..\..\..\..\uCOS-III\Source/os_tick.c **** ***************************************************************************************************
 218:..\..\..\..\..\..\uCOS-III\Source/os_tick.c **** */
 219:..\..\..\..\..\..\uCOS-III\Source/os_tick.c **** 
 220:..\..\..\..\..\..\uCOS-III\Source/os_tick.c **** void  OS_TickListInsert (OS_TCB   *p_tcb,
 221:..\..\..\..\..\..\uCOS-III\Source/os_tick.c ****                          OS_TICK   time,
 222:..\..\..\..\..\..\uCOS-III\Source/os_tick.c ****                          OS_OPT    opt,
 223:..\..\..\..\..\..\uCOS-III\Source/os_tick.c ****                          OS_ERR   *p_err)
 224:..\..\..\..\..\..\uCOS-III\Source/os_tick.c **** {
 275              		.loc 1 224 0
 276              		.cfi_startproc
 277              		@ args = 0, pretend = 0, frame = 40
 278              		@ frame_needed = 1, uses_anonymous_args = 0
 279              		@ link register save eliminated.
 280 0000 80B4     		push	{r7}
 281              		.cfi_def_cfa_offset 4
 282              		.cfi_offset 7, -4
 283 0002 8BB0     		sub	sp, sp, #44
ARM GAS  C:\Users\alex\AppData\Local\Temp\ccGPonqd.s 			page 10


 284              		.cfi_def_cfa_offset 48
 285 0004 00AF     		add	r7, sp, #0
 286              		.cfi_def_cfa_register 7
 287 0006 F860     		str	r0, [r7, #12]
 288 0008 B960     		str	r1, [r7, #8]
 289 000a 3B60     		str	r3, [r7]
 290 000c 1346     		mov	r3, r2	@ movhi
 291 000e FB80     		strh	r3, [r7, #6]	@ movhi
 225:..\..\..\..\..\..\uCOS-III\Source/os_tick.c ****     OS_TICK            tick_delta;
 226:..\..\..\..\..\..\uCOS-III\Source/os_tick.c ****     OS_TICK            tick_next;
 227:..\..\..\..\..\..\uCOS-III\Source/os_tick.c ****     OS_TICK_SPOKE     *p_spoke;
 228:..\..\..\..\..\..\uCOS-III\Source/os_tick.c ****     OS_TCB            *p_tcb0;
 229:..\..\..\..\..\..\uCOS-III\Source/os_tick.c ****     OS_TCB            *p_tcb1;
 230:..\..\..\..\..\..\uCOS-III\Source/os_tick.c ****     OS_TICK_SPOKE_IX   spoke;
 231:..\..\..\..\..\..\uCOS-III\Source/os_tick.c **** 
 232:..\..\..\..\..\..\uCOS-III\Source/os_tick.c **** 
 233:..\..\..\..\..\..\uCOS-III\Source/os_tick.c **** 
 234:..\..\..\..\..\..\uCOS-III\Source/os_tick.c ****     if (opt == OS_OPT_TIME_MATCH) {                              /* Task time is absolute.         
 292              		.loc 1 234 0
 293 0010 FB88     		ldrh	r3, [r7, #6]
 294 0012 042B     		cmp	r3, #4
 295 0014 1FD1     		bne	.L19
 235:..\..\..\..\..\..\uCOS-III\Source/os_tick.c ****         tick_delta = time - OSTickCtr - 1u;
 296              		.loc 1 235 0
 297 0016 734B     		ldr	r3, .L38
 298 0018 1B68     		ldr	r3, [r3]
 299 001a BA68     		ldr	r2, [r7, #8]
 300 001c D31A     		subs	r3, r2, r3
 301 001e 013B     		subs	r3, r3, #1
 302 0020 3B62     		str	r3, [r7, #32]
 236:..\..\..\..\..\..\uCOS-III\Source/os_tick.c ****         if (tick_delta > OS_TICK_TH_RDY) {                       /* If delay already occurred, ... 
 303              		.loc 1 236 0
 304 0022 3B6A     		ldr	r3, [r7, #32]
 305 0024 13F5803F 		cmn	r3, #65536
 306 0028 0DD9     		bls	.L20
 237:..\..\..\..\..\..\uCOS-III\Source/os_tick.c ****             p_tcb->TickCtrMatch = (OS_TICK        )0u;
 307              		.loc 1 237 0
 308 002a FB68     		ldr	r3, [r7, #12]
 309 002c 0022     		movs	r2, #0
 310 002e DA64     		str	r2, [r3, #76]
 238:..\..\..\..\..\..\uCOS-III\Source/os_tick.c ****             p_tcb->TickRemain   = (OS_TICK        )0u;
 311              		.loc 1 238 0
 312 0030 FB68     		ldr	r3, [r7, #12]
 313 0032 0022     		movs	r2, #0
 314 0034 1A65     		str	r2, [r3, #80]
 239:..\..\..\..\..\..\uCOS-III\Source/os_tick.c ****             p_tcb->TickSpokePtr = (OS_TICK_SPOKE *)0;
 315              		.loc 1 239 0
 316 0036 FB68     		ldr	r3, [r7, #12]
 317 0038 0022     		movs	r2, #0
 318 003a DA61     		str	r2, [r3, #28]
 240:..\..\..\..\..\..\uCOS-III\Source/os_tick.c ****            *p_err               =  OS_ERR_TIME_ZERO_DLY;         /* ... do NOT delay.              
 319              		.loc 1 240 0
 320 003c 3B68     		ldr	r3, [r7]
 321 003e 47F27E22 		movw	r2, #29310
 322 0042 1A80     		strh	r2, [r3]	@ movhi
 241:..\..\..\..\..\..\uCOS-III\Source/os_tick.c ****             return;
 323              		.loc 1 241 0
ARM GAS  C:\Users\alex\AppData\Local\Temp\ccGPonqd.s 			page 11


 324 0044 CAE0     		b	.L18
 325              	.L20:
 242:..\..\..\..\..\..\uCOS-III\Source/os_tick.c ****         }
 243:..\..\..\..\..\..\uCOS-III\Source/os_tick.c ****         p_tcb->TickCtrMatch = time;
 326              		.loc 1 243 0
 327 0046 FB68     		ldr	r3, [r7, #12]
 328 0048 BA68     		ldr	r2, [r7, #8]
 329 004a DA64     		str	r2, [r3, #76]
 244:..\..\..\..\..\..\uCOS-III\Source/os_tick.c ****         p_tcb->TickRemain   = tick_delta + 1u;
 330              		.loc 1 244 0
 331 004c 3B6A     		ldr	r3, [r7, #32]
 332 004e 5A1C     		adds	r2, r3, #1
 333 0050 FB68     		ldr	r3, [r7, #12]
 334 0052 1A65     		str	r2, [r3, #80]
 335 0054 42E0     		b	.L22
 336              	.L19:
 245:..\..\..\..\..\..\uCOS-III\Source/os_tick.c **** 
 246:..\..\..\..\..\..\uCOS-III\Source/os_tick.c ****     } else if (time > (OS_TICK)0u) {
 337              		.loc 1 246 0
 338 0056 BB68     		ldr	r3, [r7, #8]
 339 0058 002B     		cmp	r3, #0
 340 005a 31D0     		beq	.L23
 247:..\..\..\..\..\..\uCOS-III\Source/os_tick.c ****         if (opt == OS_OPT_TIME_PERIODIC) {                       /* Task time is periodic.         
 341              		.loc 1 247 0
 342 005c FB88     		ldrh	r3, [r7, #6]
 343 005e 082B     		cmp	r3, #8
 344 0060 24D1     		bne	.L24
 248:..\..\..\..\..\..\uCOS-III\Source/os_tick.c ****             tick_next  = p_tcb->TickCtrPrev + time;
 345              		.loc 1 248 0
 346 0062 FB68     		ldr	r3, [r7, #12]
 347 0064 9A6C     		ldr	r2, [r3, #72]
 348 0066 BB68     		ldr	r3, [r7, #8]
 349 0068 1344     		add	r3, r3, r2
 350 006a FB61     		str	r3, [r7, #28]
 249:..\..\..\..\..\..\uCOS-III\Source/os_tick.c ****             tick_delta = tick_next - OSTickCtr - 1u;
 351              		.loc 1 249 0
 352 006c 5D4B     		ldr	r3, .L38
 353 006e 1B68     		ldr	r3, [r3]
 354 0070 FA69     		ldr	r2, [r7, #28]
 355 0072 D31A     		subs	r3, r2, r3
 356 0074 013B     		subs	r3, r3, #1
 357 0076 3B62     		str	r3, [r7, #32]
 250:..\..\..\..\..\..\uCOS-III\Source/os_tick.c ****             if (tick_delta < time) {                             /* If next periodic delay did NOT 
 358              		.loc 1 250 0
 359 0078 3A6A     		ldr	r2, [r7, #32]
 360 007a BB68     		ldr	r3, [r7, #8]
 361 007c 9A42     		cmp	r2, r3
 362 007e 03D2     		bcs	.L25
 251:..\..\..\..\..\..\uCOS-III\Source/os_tick.c ****                 p_tcb->TickCtrMatch = tick_next;                 /* ... set  next  periodic delay; 
 363              		.loc 1 251 0
 364 0080 FB68     		ldr	r3, [r7, #12]
 365 0082 FA69     		ldr	r2, [r7, #28]
 366 0084 DA64     		str	r2, [r3, #76]
 367 0086 05E0     		b	.L26
 368              	.L25:
 252:..\..\..\..\..\..\uCOS-III\Source/os_tick.c ****             } else {
 253:..\..\..\..\..\..\uCOS-III\Source/os_tick.c ****                 p_tcb->TickCtrMatch = OSTickCtr + time;          /* ... else reset periodic delay. 
ARM GAS  C:\Users\alex\AppData\Local\Temp\ccGPonqd.s 			page 12


 369              		.loc 1 253 0
 370 0088 564B     		ldr	r3, .L38
 371 008a 1A68     		ldr	r2, [r3]
 372 008c BB68     		ldr	r3, [r7, #8]
 373 008e 1A44     		add	r2, r2, r3
 374 0090 FB68     		ldr	r3, [r7, #12]
 375 0092 DA64     		str	r2, [r3, #76]
 376              	.L26:
 254:..\..\..\..\..\..\uCOS-III\Source/os_tick.c ****             }
 255:..\..\..\..\..\..\uCOS-III\Source/os_tick.c ****             p_tcb->TickRemain   = p_tcb->TickCtrMatch - OSTickCtr;
 377              		.loc 1 255 0
 378 0094 FB68     		ldr	r3, [r7, #12]
 379 0096 DA6C     		ldr	r2, [r3, #76]
 380 0098 524B     		ldr	r3, .L38
 381 009a 1B68     		ldr	r3, [r3]
 382 009c D21A     		subs	r2, r2, r3
 383 009e FB68     		ldr	r3, [r7, #12]
 384 00a0 1A65     		str	r2, [r3, #80]
 256:..\..\..\..\..\..\uCOS-III\Source/os_tick.c ****             p_tcb->TickCtrPrev  = p_tcb->TickCtrMatch;
 385              		.loc 1 256 0
 386 00a2 FB68     		ldr	r3, [r7, #12]
 387 00a4 DA6C     		ldr	r2, [r3, #76]
 388 00a6 FB68     		ldr	r3, [r7, #12]
 389 00a8 9A64     		str	r2, [r3, #72]
 390 00aa 17E0     		b	.L22
 391              	.L24:
 257:..\..\..\..\..\..\uCOS-III\Source/os_tick.c **** 
 258:..\..\..\..\..\..\uCOS-III\Source/os_tick.c ****         } else {                                                 /* Task time is relative to curren
 259:..\..\..\..\..\..\uCOS-III\Source/os_tick.c ****             p_tcb->TickCtrMatch = OSTickCtr + time;
 392              		.loc 1 259 0
 393 00ac 4D4B     		ldr	r3, .L38
 394 00ae 1A68     		ldr	r2, [r3]
 395 00b0 BB68     		ldr	r3, [r7, #8]
 396 00b2 1A44     		add	r2, r2, r3
 397 00b4 FB68     		ldr	r3, [r7, #12]
 398 00b6 DA64     		str	r2, [r3, #76]
 260:..\..\..\..\..\..\uCOS-III\Source/os_tick.c ****             p_tcb->TickRemain   = time;
 399              		.loc 1 260 0
 400 00b8 FB68     		ldr	r3, [r7, #12]
 401 00ba BA68     		ldr	r2, [r7, #8]
 402 00bc 1A65     		str	r2, [r3, #80]
 403 00be 0DE0     		b	.L22
 404              	.L23:
 261:..\..\..\..\..\..\uCOS-III\Source/os_tick.c ****         }
 262:..\..\..\..\..\..\uCOS-III\Source/os_tick.c **** 
 263:..\..\..\..\..\..\uCOS-III\Source/os_tick.c ****     } else {                                                     /* Zero time delay; ...           
 264:..\..\..\..\..\..\uCOS-III\Source/os_tick.c ****         p_tcb->TickCtrMatch = (OS_TICK        )0u;
 405              		.loc 1 264 0
 406 00c0 FB68     		ldr	r3, [r7, #12]
 407 00c2 0022     		movs	r2, #0
 408 00c4 DA64     		str	r2, [r3, #76]
 265:..\..\..\..\..\..\uCOS-III\Source/os_tick.c ****         p_tcb->TickRemain   = (OS_TICK        )0u;
 409              		.loc 1 265 0
 410 00c6 FB68     		ldr	r3, [r7, #12]
 411 00c8 0022     		movs	r2, #0
 412 00ca 1A65     		str	r2, [r3, #80]
 266:..\..\..\..\..\..\uCOS-III\Source/os_tick.c ****         p_tcb->TickSpokePtr = (OS_TICK_SPOKE *)0;
ARM GAS  C:\Users\alex\AppData\Local\Temp\ccGPonqd.s 			page 13


 413              		.loc 1 266 0
 414 00cc FB68     		ldr	r3, [r7, #12]
 415 00ce 0022     		movs	r2, #0
 416 00d0 DA61     		str	r2, [r3, #28]
 267:..\..\..\..\..\..\uCOS-III\Source/os_tick.c ****        *p_err               =  OS_ERR_TIME_ZERO_DLY;             /* ... do NOT delay.              
 417              		.loc 1 267 0
 418 00d2 3B68     		ldr	r3, [r7]
 419 00d4 47F27E22 		movw	r2, #29310
 420 00d8 1A80     		strh	r2, [r3]	@ movhi
 268:..\..\..\..\..\..\uCOS-III\Source/os_tick.c ****         return;
 421              		.loc 1 268 0
 422 00da 7FE0     		b	.L18
 423              	.L22:
 269:..\..\..\..\..\..\uCOS-III\Source/os_tick.c ****     }
 270:..\..\..\..\..\..\uCOS-III\Source/os_tick.c **** 
 271:..\..\..\..\..\..\uCOS-III\Source/os_tick.c **** 
 272:..\..\..\..\..\..\uCOS-III\Source/os_tick.c ****     spoke   = (OS_TICK_SPOKE_IX)(p_tcb->TickCtrMatch % OSCfg_TickWheelSize);
 424              		.loc 1 272 0
 425 00dc FB68     		ldr	r3, [r7, #12]
 426 00de DB6C     		ldr	r3, [r3, #76]
 427 00e0 414A     		ldr	r2, .L38+4
 428 00e2 1288     		ldrh	r2, [r2]
 429 00e4 B3FBF2F1 		udiv	r1, r3, r2
 430 00e8 02FB01F2 		mul	r2, r2, r1
 431 00ec 9B1A     		subs	r3, r3, r2
 432 00ee 7B83     		strh	r3, [r7, #26]	@ movhi
 273:..\..\..\..\..\..\uCOS-III\Source/os_tick.c ****     p_spoke = &OSCfg_TickWheel[spoke];
 433              		.loc 1 273 0
 434 00f0 7B8B     		ldrh	r3, [r7, #26]
 435 00f2 DB00     		lsls	r3, r3, #3
 436 00f4 3D4A     		ldr	r2, .L38+8
 437 00f6 1344     		add	r3, r3, r2
 438 00f8 7B61     		str	r3, [r7, #20]
 274:..\..\..\..\..\..\uCOS-III\Source/os_tick.c **** 
 275:..\..\..\..\..\..\uCOS-III\Source/os_tick.c ****     if (p_spoke->NbrEntries == (OS_OBJ_QTY)0u) {                 /* First entry in the spoke       
 439              		.loc 1 275 0
 440 00fa 7B69     		ldr	r3, [r7, #20]
 441 00fc 9B88     		ldrh	r3, [r3, #4]
 442 00fe 002B     		cmp	r3, #0
 443 0100 0CD1     		bne	.L28
 276:..\..\..\..\..\..\uCOS-III\Source/os_tick.c ****         p_tcb->TickNextPtr   = (OS_TCB   *)0;
 444              		.loc 1 276 0
 445 0102 FB68     		ldr	r3, [r7, #12]
 446 0104 0022     		movs	r2, #0
 447 0106 5A61     		str	r2, [r3, #20]
 277:..\..\..\..\..\..\uCOS-III\Source/os_tick.c ****         p_tcb->TickPrevPtr   = (OS_TCB   *)0;
 448              		.loc 1 277 0
 449 0108 FB68     		ldr	r3, [r7, #12]
 450 010a 0022     		movs	r2, #0
 451 010c 9A61     		str	r2, [r3, #24]
 278:..\..\..\..\..\..\uCOS-III\Source/os_tick.c ****         p_spoke->FirstPtr    =  p_tcb;
 452              		.loc 1 278 0
 453 010e 7B69     		ldr	r3, [r7, #20]
 454 0110 FA68     		ldr	r2, [r7, #12]
 455 0112 1A60     		str	r2, [r3]
 279:..\..\..\..\..\..\uCOS-III\Source/os_tick.c ****         p_spoke->NbrEntries  = (OS_OBJ_QTY)1u;
 456              		.loc 1 279 0
ARM GAS  C:\Users\alex\AppData\Local\Temp\ccGPonqd.s 			page 14


 457 0114 7B69     		ldr	r3, [r7, #20]
 458 0116 0122     		movs	r2, #1
 459 0118 9A80     		strh	r2, [r3, #4]	@ movhi
 460 011a 4FE0     		b	.L29
 461              	.L28:
 280:..\..\..\..\..\..\uCOS-III\Source/os_tick.c ****     } else {
 281:..\..\..\..\..\..\uCOS-III\Source/os_tick.c ****         p_tcb1     = p_spoke->FirstPtr;                          /* Point to current first TCB in t
 462              		.loc 1 281 0
 463 011c 7B69     		ldr	r3, [r7, #20]
 464 011e 1B68     		ldr	r3, [r3]
 465 0120 7B62     		str	r3, [r7, #36]
 282:..\..\..\..\..\..\uCOS-III\Source/os_tick.c ****         while (p_tcb1 != (OS_TCB *)0) {
 466              		.loc 1 282 0
 467 0122 42E0     		b	.L30
 468              	.L36:
 283:..\..\..\..\..\..\uCOS-III\Source/os_tick.c ****             p_tcb1->TickRemain = p_tcb1->TickCtrMatch            /* Compute time remaining of curre
 469              		.loc 1 283 0
 470 0124 7B6A     		ldr	r3, [r7, #36]
 471 0126 DA6C     		ldr	r2, [r3, #76]
 284:..\..\..\..\..\..\uCOS-III\Source/os_tick.c ****                                - OSTickCtr;
 472              		.loc 1 284 0
 473 0128 2E4B     		ldr	r3, .L38
 474 012a 1B68     		ldr	r3, [r3]
 475 012c D21A     		subs	r2, r2, r3
 283:..\..\..\..\..\..\uCOS-III\Source/os_tick.c ****             p_tcb1->TickRemain = p_tcb1->TickCtrMatch            /* Compute time remaining of curre
 476              		.loc 1 283 0
 477 012e 7B6A     		ldr	r3, [r7, #36]
 478 0130 1A65     		str	r2, [r3, #80]
 285:..\..\..\..\..\..\uCOS-III\Source/os_tick.c ****             if (p_tcb->TickRemain > p_tcb1->TickRemain) {        /* Do we need to insert AFTER curr
 479              		.loc 1 285 0
 480 0132 FB68     		ldr	r3, [r7, #12]
 481 0134 1A6D     		ldr	r2, [r3, #80]
 482 0136 7B6A     		ldr	r3, [r7, #36]
 483 0138 1B6D     		ldr	r3, [r3, #80]
 484 013a 9A42     		cmp	r2, r3
 485 013c 13D9     		bls	.L31
 286:..\..\..\..\..\..\uCOS-III\Source/os_tick.c ****                 if (p_tcb1->TickNextPtr != (OS_TCB *)0) {        /* Yes, are we pointing at the las
 486              		.loc 1 286 0
 487 013e 7B6A     		ldr	r3, [r7, #36]
 488 0140 5B69     		ldr	r3, [r3, #20]
 489 0142 002B     		cmp	r3, #0
 490 0144 03D0     		beq	.L32
 287:..\..\..\..\..\..\uCOS-III\Source/os_tick.c ****                     p_tcb1               =  p_tcb1->TickNextPtr; /* No,  Point to next TCB in the l
 491              		.loc 1 287 0
 492 0146 7B6A     		ldr	r3, [r7, #36]
 493 0148 5B69     		ldr	r3, [r3, #20]
 494 014a 7B62     		str	r3, [r7, #36]
 495 014c 2DE0     		b	.L30
 496              	.L32:
 288:..\..\..\..\..\..\uCOS-III\Source/os_tick.c ****                 } else {
 289:..\..\..\..\..\..\uCOS-III\Source/os_tick.c ****                     p_tcb->TickNextPtr   = (OS_TCB *)0;
 497              		.loc 1 289 0
 498 014e FB68     		ldr	r3, [r7, #12]
 499 0150 0022     		movs	r2, #0
 500 0152 5A61     		str	r2, [r3, #20]
 290:..\..\..\..\..\..\uCOS-III\Source/os_tick.c ****                     p_tcb->TickPrevPtr   =  p_tcb1;
 501              		.loc 1 290 0
ARM GAS  C:\Users\alex\AppData\Local\Temp\ccGPonqd.s 			page 15


 502 0154 FB68     		ldr	r3, [r7, #12]
 503 0156 7A6A     		ldr	r2, [r7, #36]
 504 0158 9A61     		str	r2, [r3, #24]
 291:..\..\..\..\..\..\uCOS-III\Source/os_tick.c ****                     p_tcb1->TickNextPtr  =  p_tcb;               /* Yes, TCB to add is now new last
 505              		.loc 1 291 0
 506 015a 7B6A     		ldr	r3, [r7, #36]
 507 015c FA68     		ldr	r2, [r7, #12]
 508 015e 5A61     		str	r2, [r3, #20]
 292:..\..\..\..\..\..\uCOS-III\Source/os_tick.c ****                     p_tcb1               = (OS_TCB *)0;          /* Break loop                     
 509              		.loc 1 292 0
 510 0160 0023     		movs	r3, #0
 511 0162 7B62     		str	r3, [r7, #36]
 512 0164 21E0     		b	.L30
 513              	.L31:
 293:..\..\..\..\..\..\uCOS-III\Source/os_tick.c ****                 }
 294:..\..\..\..\..\..\uCOS-III\Source/os_tick.c ****             } else {                                             /* Insert before the current TCB  
 295:..\..\..\..\..\..\uCOS-III\Source/os_tick.c ****                 if (p_tcb1->TickPrevPtr == (OS_TCB *)0) {        /* Are we inserting before the fir
 514              		.loc 1 295 0
 515 0166 7B6A     		ldr	r3, [r7, #36]
 516 0168 9B69     		ldr	r3, [r3, #24]
 517 016a 002B     		cmp	r3, #0
 518 016c 0CD1     		bne	.L34
 296:..\..\..\..\..\..\uCOS-III\Source/os_tick.c ****                     p_tcb->TickPrevPtr   = (OS_TCB *)0;
 519              		.loc 1 296 0
 520 016e FB68     		ldr	r3, [r7, #12]
 521 0170 0022     		movs	r2, #0
 522 0172 9A61     		str	r2, [r3, #24]
 297:..\..\..\..\..\..\uCOS-III\Source/os_tick.c ****                     p_tcb->TickNextPtr   =  p_tcb1;
 523              		.loc 1 297 0
 524 0174 FB68     		ldr	r3, [r7, #12]
 525 0176 7A6A     		ldr	r2, [r7, #36]
 526 0178 5A61     		str	r2, [r3, #20]
 298:..\..\..\..\..\..\uCOS-III\Source/os_tick.c ****                     p_tcb1->TickPrevPtr  =  p_tcb;
 527              		.loc 1 298 0
 528 017a 7B6A     		ldr	r3, [r7, #36]
 529 017c FA68     		ldr	r2, [r7, #12]
 530 017e 9A61     		str	r2, [r3, #24]
 299:..\..\..\..\..\..\uCOS-III\Source/os_tick.c ****                     p_spoke->FirstPtr    =  p_tcb;
 531              		.loc 1 299 0
 532 0180 7B69     		ldr	r3, [r7, #20]
 533 0182 FA68     		ldr	r2, [r7, #12]
 534 0184 1A60     		str	r2, [r3]
 535 0186 0EE0     		b	.L35
 536              	.L34:
 300:..\..\..\..\..\..\uCOS-III\Source/os_tick.c ****                 } else {                                         /* Insert in between 2 TCBs alread
 301:..\..\..\..\..\..\uCOS-III\Source/os_tick.c ****                     p_tcb0               =  p_tcb1->TickPrevPtr;
 537              		.loc 1 301 0
 538 0188 7B6A     		ldr	r3, [r7, #36]
 539 018a 9B69     		ldr	r3, [r3, #24]
 540 018c 3B61     		str	r3, [r7, #16]
 302:..\..\..\..\..\..\uCOS-III\Source/os_tick.c ****                     p_tcb->TickPrevPtr   =  p_tcb0;
 541              		.loc 1 302 0
 542 018e FB68     		ldr	r3, [r7, #12]
 543 0190 3A69     		ldr	r2, [r7, #16]
 544 0192 9A61     		str	r2, [r3, #24]
 303:..\..\..\..\..\..\uCOS-III\Source/os_tick.c ****                     p_tcb->TickNextPtr   =  p_tcb1;
 545              		.loc 1 303 0
ARM GAS  C:\Users\alex\AppData\Local\Temp\ccGPonqd.s 			page 16


 546 0194 FB68     		ldr	r3, [r7, #12]
 547 0196 7A6A     		ldr	r2, [r7, #36]
 548 0198 5A61     		str	r2, [r3, #20]
 304:..\..\..\..\..\..\uCOS-III\Source/os_tick.c ****                     p_tcb0->TickNextPtr  =  p_tcb;
 549              		.loc 1 304 0
 550 019a 3B69     		ldr	r3, [r7, #16]
 551 019c FA68     		ldr	r2, [r7, #12]
 552 019e 5A61     		str	r2, [r3, #20]
 305:..\..\..\..\..\..\uCOS-III\Source/os_tick.c ****                     p_tcb1->TickPrevPtr  =  p_tcb;
 553              		.loc 1 305 0
 554 01a0 7B6A     		ldr	r3, [r7, #36]
 555 01a2 FA68     		ldr	r2, [r7, #12]
 556 01a4 9A61     		str	r2, [r3, #24]
 557              	.L35:
 306:..\..\..\..\..\..\uCOS-III\Source/os_tick.c ****                 }
 307:..\..\..\..\..\..\uCOS-III\Source/os_tick.c ****                 p_tcb1 = (OS_TCB *)0;                            /* Break loop                     
 558              		.loc 1 307 0
 559 01a6 0023     		movs	r3, #0
 560 01a8 7B62     		str	r3, [r7, #36]
 561              	.L30:
 282:..\..\..\..\..\..\uCOS-III\Source/os_tick.c ****             p_tcb1->TickRemain = p_tcb1->TickCtrMatch            /* Compute time remaining of curre
 562              		.loc 1 282 0
 563 01aa 7B6A     		ldr	r3, [r7, #36]
 564 01ac 002B     		cmp	r3, #0
 565 01ae B9D1     		bne	.L36
 308:..\..\..\..\..\..\uCOS-III\Source/os_tick.c ****             }
 309:..\..\..\..\..\..\uCOS-III\Source/os_tick.c ****         }
 310:..\..\..\..\..\..\uCOS-III\Source/os_tick.c ****         p_spoke->NbrEntries++;
 566              		.loc 1 310 0
 567 01b0 7B69     		ldr	r3, [r7, #20]
 568 01b2 9B88     		ldrh	r3, [r3, #4]
 569 01b4 0133     		adds	r3, r3, #1
 570 01b6 9AB2     		uxth	r2, r3
 571 01b8 7B69     		ldr	r3, [r7, #20]
 572 01ba 9A80     		strh	r2, [r3, #4]	@ movhi
 573              	.L29:
 311:..\..\..\..\..\..\uCOS-III\Source/os_tick.c ****     }
 312:..\..\..\..\..\..\uCOS-III\Source/os_tick.c ****     if (p_spoke->NbrEntriesMax < p_spoke->NbrEntries) {          /* Keep track of maximum # of entr
 574              		.loc 1 312 0
 575 01bc 7B69     		ldr	r3, [r7, #20]
 576 01be DA88     		ldrh	r2, [r3, #6]
 577 01c0 7B69     		ldr	r3, [r7, #20]
 578 01c2 9B88     		ldrh	r3, [r3, #4]
 579 01c4 9A42     		cmp	r2, r3
 580 01c6 03D2     		bcs	.L37
 313:..\..\..\..\..\..\uCOS-III\Source/os_tick.c ****         p_spoke->NbrEntriesMax = p_spoke->NbrEntries;
 581              		.loc 1 313 0
 582 01c8 7B69     		ldr	r3, [r7, #20]
 583 01ca 9A88     		ldrh	r2, [r3, #4]
 584 01cc 7B69     		ldr	r3, [r7, #20]
 585 01ce DA80     		strh	r2, [r3, #6]	@ movhi
 586              	.L37:
 314:..\..\..\..\..\..\uCOS-III\Source/os_tick.c ****     }
 315:..\..\..\..\..\..\uCOS-III\Source/os_tick.c ****     p_tcb->TickSpokePtr = p_spoke;                               /* Link back to tick spoke        
 587              		.loc 1 315 0
 588 01d0 FB68     		ldr	r3, [r7, #12]
 589 01d2 7A69     		ldr	r2, [r7, #20]
ARM GAS  C:\Users\alex\AppData\Local\Temp\ccGPonqd.s 			page 17


 590 01d4 DA61     		str	r2, [r3, #28]
 316:..\..\..\..\..\..\uCOS-III\Source/os_tick.c ****    *p_err               = OS_ERR_NONE;
 591              		.loc 1 316 0
 592 01d6 3B68     		ldr	r3, [r7]
 593 01d8 0022     		movs	r2, #0
 594 01da 1A80     		strh	r2, [r3]	@ movhi
 595              	.L18:
 317:..\..\..\..\..\..\uCOS-III\Source/os_tick.c **** }
 596              		.loc 1 317 0
 597 01dc 2C37     		adds	r7, r7, #44
 598              		.cfi_def_cfa_offset 4
 599 01de BD46     		mov	sp, r7
 600              		.cfi_def_cfa_register 13
 601              		@ sp needed
 602 01e0 80BC     		pop	{r7}
 603              		.cfi_restore 7
 604              		.cfi_def_cfa_offset 0
 605 01e2 7047     		bx	lr
 606              	.L39:
 607              		.align	2
 608              	.L38:
 609 01e4 00000000 		.word	OSTickCtr
 610 01e8 00000000 		.word	OSCfg_TickWheelSize
 611 01ec 00000000 		.word	OSCfg_TickWheel
 612              		.cfi_endproc
 613              	.LFE3:
 614              		.size	OS_TickListInsert, .-OS_TickListInsert
 615              		.section	.text.OS_TickListRemove,"ax",%progbits
 616              		.align	2
 617              		.global	OS_TickListRemove
 618              		.thumb
 619              		.thumb_func
 620              		.type	OS_TickListRemove, %function
 621              	OS_TickListRemove:
 622              	.LFB4:
 318:..\..\..\..\..\..\uCOS-III\Source/os_tick.c **** 
 319:..\..\..\..\..\..\uCOS-III\Source/os_tick.c **** /*$PAGE*/
 320:..\..\..\..\..\..\uCOS-III\Source/os_tick.c **** /*
 321:..\..\..\..\..\..\uCOS-III\Source/os_tick.c **** ***************************************************************************************************
 322:..\..\..\..\..\..\uCOS-III\Source/os_tick.c **** *                                         REMOVE A TASK FROM THE TICK LIST
 323:..\..\..\..\..\..\uCOS-III\Source/os_tick.c **** *
 324:..\..\..\..\..\..\uCOS-III\Source/os_tick.c **** * Description: This function is called to remove a task from the tick list
 325:..\..\..\..\..\..\uCOS-III\Source/os_tick.c **** *
 326:..\..\..\..\..\..\uCOS-III\Source/os_tick.c **** * Arguments  : p_tcb          Is a pointer to the OS_TCB to remove.
 327:..\..\..\..\..\..\uCOS-III\Source/os_tick.c **** *              -----
 328:..\..\..\..\..\..\uCOS-III\Source/os_tick.c **** *
 329:..\..\..\..\..\..\uCOS-III\Source/os_tick.c **** * Returns    : none
 330:..\..\..\..\..\..\uCOS-III\Source/os_tick.c **** *
 331:..\..\..\..\..\..\uCOS-III\Source/os_tick.c **** * Note(s)    : 1) This function is INTERNAL to uC/OS-III and your application MUST NOT call it.
 332:..\..\..\..\..\..\uCOS-III\Source/os_tick.c **** *
 333:..\..\..\..\..\..\uCOS-III\Source/os_tick.c **** *              2) This function is assumed to be called with interrupts disabled.
 334:..\..\..\..\..\..\uCOS-III\Source/os_tick.c **** ***************************************************************************************************
 335:..\..\..\..\..\..\uCOS-III\Source/os_tick.c **** */
 336:..\..\..\..\..\..\uCOS-III\Source/os_tick.c **** 
 337:..\..\..\..\..\..\uCOS-III\Source/os_tick.c **** void  OS_TickListRemove (OS_TCB  *p_tcb)
 338:..\..\..\..\..\..\uCOS-III\Source/os_tick.c **** {
 623              		.loc 1 338 0
ARM GAS  C:\Users\alex\AppData\Local\Temp\ccGPonqd.s 			page 18


 624              		.cfi_startproc
 625              		@ args = 0, pretend = 0, frame = 24
 626              		@ frame_needed = 1, uses_anonymous_args = 0
 627              		@ link register save eliminated.
 628 0000 80B4     		push	{r7}
 629              		.cfi_def_cfa_offset 4
 630              		.cfi_offset 7, -4
 631 0002 87B0     		sub	sp, sp, #28
 632              		.cfi_def_cfa_offset 32
 633 0004 00AF     		add	r7, sp, #0
 634              		.cfi_def_cfa_register 7
 635 0006 7860     		str	r0, [r7, #4]
 339:..\..\..\..\..\..\uCOS-III\Source/os_tick.c ****     OS_TICK_SPOKE  *p_spoke;
 340:..\..\..\..\..\..\uCOS-III\Source/os_tick.c ****     OS_TCB         *p_tcb1;
 341:..\..\..\..\..\..\uCOS-III\Source/os_tick.c ****     OS_TCB         *p_tcb2;
 342:..\..\..\..\..\..\uCOS-III\Source/os_tick.c **** 
 343:..\..\..\..\..\..\uCOS-III\Source/os_tick.c **** 
 344:..\..\..\..\..\..\uCOS-III\Source/os_tick.c **** 
 345:..\..\..\..\..\..\uCOS-III\Source/os_tick.c ****     p_spoke = p_tcb->TickSpokePtr;
 636              		.loc 1 345 0
 637 0008 7B68     		ldr	r3, [r7, #4]
 638 000a DB69     		ldr	r3, [r3, #28]
 639 000c 7B61     		str	r3, [r7, #20]
 346:..\..\..\..\..\..\uCOS-III\Source/os_tick.c ****     if (p_spoke != (OS_TICK_SPOKE *)0) {                              /* Confirm that task is in ti
 640              		.loc 1 346 0
 641 000e 7B69     		ldr	r3, [r7, #20]
 642 0010 002B     		cmp	r3, #0
 643 0012 35D0     		beq	.L45
 347:..\..\..\..\..\..\uCOS-III\Source/os_tick.c ****         p_tcb->TickRemain = (OS_TICK)0u;
 644              		.loc 1 347 0
 645 0014 7B68     		ldr	r3, [r7, #4]
 646 0016 0022     		movs	r2, #0
 647 0018 1A65     		str	r2, [r3, #80]
 348:..\..\..\..\..\..\uCOS-III\Source/os_tick.c ****         if (p_spoke->FirstPtr == p_tcb) {                             /* Is timer to remove at the 
 648              		.loc 1 348 0
 649 001a 7B69     		ldr	r3, [r7, #20]
 650 001c 1A68     		ldr	r2, [r3]
 651 001e 7B68     		ldr	r3, [r7, #4]
 652 0020 9A42     		cmp	r2, r3
 653 0022 0CD1     		bne	.L42
 349:..\..\..\..\..\..\uCOS-III\Source/os_tick.c ****             p_tcb1            = (OS_TCB *)p_tcb->TickNextPtr;         /* Yes                       
 654              		.loc 1 349 0
 655 0024 7B68     		ldr	r3, [r7, #4]
 656 0026 5B69     		ldr	r3, [r3, #20]
 657 0028 3B61     		str	r3, [r7, #16]
 350:..\..\..\..\..\..\uCOS-III\Source/os_tick.c ****             p_spoke->FirstPtr = p_tcb1;
 658              		.loc 1 350 0
 659 002a 7B69     		ldr	r3, [r7, #20]
 660 002c 3A69     		ldr	r2, [r7, #16]
 661 002e 1A60     		str	r2, [r3]
 351:..\..\..\..\..\..\uCOS-III\Source/os_tick.c ****             if (p_tcb1 != (OS_TCB *)0) {
 662              		.loc 1 351 0
 663 0030 3B69     		ldr	r3, [r7, #16]
 664 0032 002B     		cmp	r3, #0
 665 0034 12D0     		beq	.L44
 352:..\..\..\..\..\..\uCOS-III\Source/os_tick.c ****                 p_tcb1->TickPrevPtr = (OS_TCB *)0;
 666              		.loc 1 352 0
ARM GAS  C:\Users\alex\AppData\Local\Temp\ccGPonqd.s 			page 19


 667 0036 3B69     		ldr	r3, [r7, #16]
 668 0038 0022     		movs	r2, #0
 669 003a 9A61     		str	r2, [r3, #24]
 670 003c 0EE0     		b	.L44
 671              	.L42:
 353:..\..\..\..\..\..\uCOS-III\Source/os_tick.c ****             }
 354:..\..\..\..\..\..\uCOS-III\Source/os_tick.c ****         } else {
 355:..\..\..\..\..\..\uCOS-III\Source/os_tick.c ****             p_tcb1              = p_tcb->TickPrevPtr;                 /* No, remove timer from some
 672              		.loc 1 355 0
 673 003e 7B68     		ldr	r3, [r7, #4]
 674 0040 9B69     		ldr	r3, [r3, #24]
 675 0042 3B61     		str	r3, [r7, #16]
 356:..\..\..\..\..\..\uCOS-III\Source/os_tick.c ****             p_tcb2              = p_tcb->TickNextPtr;
 676              		.loc 1 356 0
 677 0044 7B68     		ldr	r3, [r7, #4]
 678 0046 5B69     		ldr	r3, [r3, #20]
 679 0048 FB60     		str	r3, [r7, #12]
 357:..\..\..\..\..\..\uCOS-III\Source/os_tick.c ****             p_tcb1->TickNextPtr = p_tcb2;
 680              		.loc 1 357 0
 681 004a 3B69     		ldr	r3, [r7, #16]
 682 004c FA68     		ldr	r2, [r7, #12]
 683 004e 5A61     		str	r2, [r3, #20]
 358:..\..\..\..\..\..\uCOS-III\Source/os_tick.c ****             if (p_tcb2 != (OS_TCB *)0) {
 684              		.loc 1 358 0
 685 0050 FB68     		ldr	r3, [r7, #12]
 686 0052 002B     		cmp	r3, #0
 687 0054 02D0     		beq	.L44
 359:..\..\..\..\..\..\uCOS-III\Source/os_tick.c ****                 p_tcb2->TickPrevPtr = p_tcb1;
 688              		.loc 1 359 0
 689 0056 FB68     		ldr	r3, [r7, #12]
 690 0058 3A69     		ldr	r2, [r7, #16]
 691 005a 9A61     		str	r2, [r3, #24]
 692              	.L44:
 360:..\..\..\..\..\..\uCOS-III\Source/os_tick.c ****             }
 361:..\..\..\..\..\..\uCOS-III\Source/os_tick.c ****         }
 362:..\..\..\..\..\..\uCOS-III\Source/os_tick.c ****         p_tcb->TickNextPtr  = (OS_TCB        *)0;
 693              		.loc 1 362 0
 694 005c 7B68     		ldr	r3, [r7, #4]
 695 005e 0022     		movs	r2, #0
 696 0060 5A61     		str	r2, [r3, #20]
 363:..\..\..\..\..\..\uCOS-III\Source/os_tick.c ****         p_tcb->TickPrevPtr  = (OS_TCB        *)0;
 697              		.loc 1 363 0
 698 0062 7B68     		ldr	r3, [r7, #4]
 699 0064 0022     		movs	r2, #0
 700 0066 9A61     		str	r2, [r3, #24]
 364:..\..\..\..\..\..\uCOS-III\Source/os_tick.c ****         p_tcb->TickSpokePtr = (OS_TICK_SPOKE *)0;
 701              		.loc 1 364 0
 702 0068 7B68     		ldr	r3, [r7, #4]
 703 006a 0022     		movs	r2, #0
 704 006c DA61     		str	r2, [r3, #28]
 365:..\..\..\..\..\..\uCOS-III\Source/os_tick.c ****         p_tcb->TickCtrMatch = (OS_TICK        )0u;
 705              		.loc 1 365 0
 706 006e 7B68     		ldr	r3, [r7, #4]
 707 0070 0022     		movs	r2, #0
 708 0072 DA64     		str	r2, [r3, #76]
 366:..\..\..\..\..\..\uCOS-III\Source/os_tick.c ****         p_spoke->NbrEntries--;
 709              		.loc 1 366 0
ARM GAS  C:\Users\alex\AppData\Local\Temp\ccGPonqd.s 			page 20


 710 0074 7B69     		ldr	r3, [r7, #20]
 711 0076 9B88     		ldrh	r3, [r3, #4]
 712 0078 013B     		subs	r3, r3, #1
 713 007a 9AB2     		uxth	r2, r3
 714 007c 7B69     		ldr	r3, [r7, #20]
 715 007e 9A80     		strh	r2, [r3, #4]	@ movhi
 716              	.L45:
 367:..\..\..\..\..\..\uCOS-III\Source/os_tick.c ****     }
 368:..\..\..\..\..\..\uCOS-III\Source/os_tick.c **** }
 717              		.loc 1 368 0
 718 0080 00BF     		nop
 719 0082 1C37     		adds	r7, r7, #28
 720              		.cfi_def_cfa_offset 4
 721 0084 BD46     		mov	sp, r7
 722              		.cfi_def_cfa_register 13
 723              		@ sp needed
 724 0086 80BC     		pop	{r7}
 725              		.cfi_restore 7
 726              		.cfi_def_cfa_offset 0
 727 0088 7047     		bx	lr
 728              		.cfi_endproc
 729              	.LFE4:
 730              		.size	OS_TickListRemove, .-OS_TickListRemove
 731 008a 00BF     		.section	.text.OS_TickListResetPeak,"ax",%progbits
 732              		.align	2
 733              		.global	OS_TickListResetPeak
 734              		.thumb
 735              		.thumb_func
 736              		.type	OS_TickListResetPeak, %function
 737              	OS_TickListResetPeak:
 738              	.LFB5:
 369:..\..\..\..\..\..\uCOS-III\Source/os_tick.c **** 
 370:..\..\..\..\..\..\uCOS-III\Source/os_tick.c **** /*$PAGE*/
 371:..\..\..\..\..\..\uCOS-III\Source/os_tick.c **** /*
 372:..\..\..\..\..\..\uCOS-III\Source/os_tick.c **** ***************************************************************************************************
 373:..\..\..\..\..\..\uCOS-III\Source/os_tick.c **** *                                              RESET TICK LIST PEAK DETECTOR
 374:..\..\..\..\..\..\uCOS-III\Source/os_tick.c **** *
 375:..\..\..\..\..\..\uCOS-III\Source/os_tick.c **** * Description: This function is used to reset the peak detector for the number of entries in each s
 376:..\..\..\..\..\..\uCOS-III\Source/os_tick.c **** *
 377:..\..\..\..\..\..\uCOS-III\Source/os_tick.c **** * Arguments  : void
 378:..\..\..\..\..\..\uCOS-III\Source/os_tick.c **** *
 379:..\..\..\..\..\..\uCOS-III\Source/os_tick.c **** * Returns    : none
 380:..\..\..\..\..\..\uCOS-III\Source/os_tick.c **** *
 381:..\..\..\..\..\..\uCOS-III\Source/os_tick.c **** * Note(s)    : This function is INTERNAL to uC/OS-III and your application should not call it.
 382:..\..\..\..\..\..\uCOS-III\Source/os_tick.c **** ***************************************************************************************************
 383:..\..\..\..\..\..\uCOS-III\Source/os_tick.c **** */
 384:..\..\..\..\..\..\uCOS-III\Source/os_tick.c **** 
 385:..\..\..\..\..\..\uCOS-III\Source/os_tick.c **** 
 386:..\..\..\..\..\..\uCOS-III\Source/os_tick.c **** void  OS_TickListResetPeak (void)
 387:..\..\..\..\..\..\uCOS-III\Source/os_tick.c **** {
 739              		.loc 1 387 0
 740              		.cfi_startproc
 741              		@ args = 0, pretend = 0, frame = 8
 742              		@ frame_needed = 1, uses_anonymous_args = 0
 743              		@ link register save eliminated.
 744 0000 80B4     		push	{r7}
 745              		.cfi_def_cfa_offset 4
ARM GAS  C:\Users\alex\AppData\Local\Temp\ccGPonqd.s 			page 21


 746              		.cfi_offset 7, -4
 747 0002 83B0     		sub	sp, sp, #12
 748              		.cfi_def_cfa_offset 16
 749 0004 00AF     		add	r7, sp, #0
 750              		.cfi_def_cfa_register 7
 388:..\..\..\..\..\..\uCOS-III\Source/os_tick.c ****     OS_TICK_SPOKE_IX   i;
 389:..\..\..\..\..\..\uCOS-III\Source/os_tick.c ****     OS_TICK_SPOKE     *p_spoke;
 390:..\..\..\..\..\..\uCOS-III\Source/os_tick.c **** 
 391:..\..\..\..\..\..\uCOS-III\Source/os_tick.c **** 
 392:..\..\..\..\..\..\uCOS-III\Source/os_tick.c **** 
 393:..\..\..\..\..\..\uCOS-III\Source/os_tick.c ****     for (i = 0u; i < OSCfg_TickWheelSize; i++) {
 751              		.loc 1 393 0
 752 0006 0023     		movs	r3, #0
 753 0008 FB80     		strh	r3, [r7, #6]	@ movhi
 754 000a 0AE0     		b	.L47
 755              	.L48:
 394:..\..\..\..\..\..\uCOS-III\Source/os_tick.c ****         p_spoke                = (OS_TICK_SPOKE *)&OSCfg_TickWheel[i];
 756              		.loc 1 394 0 discriminator 3
 757 000c FB88     		ldrh	r3, [r7, #6]
 758 000e DB00     		lsls	r3, r3, #3
 759 0010 094A     		ldr	r2, .L49
 760 0012 1344     		add	r3, r3, r2
 761 0014 3B60     		str	r3, [r7]
 395:..\..\..\..\..\..\uCOS-III\Source/os_tick.c ****         p_spoke->NbrEntriesMax = (OS_OBJ_QTY     )0u;
 762              		.loc 1 395 0 discriminator 3
 763 0016 3B68     		ldr	r3, [r7]
 764 0018 0022     		movs	r2, #0
 765 001a DA80     		strh	r2, [r3, #6]	@ movhi
 393:..\..\..\..\..\..\uCOS-III\Source/os_tick.c ****         p_spoke                = (OS_TICK_SPOKE *)&OSCfg_TickWheel[i];
 766              		.loc 1 393 0 discriminator 3
 767 001c FB88     		ldrh	r3, [r7, #6]
 768 001e 0133     		adds	r3, r3, #1
 769 0020 FB80     		strh	r3, [r7, #6]	@ movhi
 770              	.L47:
 393:..\..\..\..\..\..\uCOS-III\Source/os_tick.c ****         p_spoke                = (OS_TICK_SPOKE *)&OSCfg_TickWheel[i];
 771              		.loc 1 393 0 is_stmt 0 discriminator 1
 772 0022 064B     		ldr	r3, .L49+4
 773 0024 1B88     		ldrh	r3, [r3]
 774 0026 FA88     		ldrh	r2, [r7, #6]
 775 0028 9A42     		cmp	r2, r3
 776 002a EFD3     		bcc	.L48
 396:..\..\..\..\..\..\uCOS-III\Source/os_tick.c ****     }
 397:..\..\..\..\..\..\uCOS-III\Source/os_tick.c **** }
 777              		.loc 1 397 0 is_stmt 1
 778 002c 00BF     		nop
 779 002e 0C37     		adds	r7, r7, #12
 780              		.cfi_def_cfa_offset 4
 781 0030 BD46     		mov	sp, r7
 782              		.cfi_def_cfa_register 13
 783              		@ sp needed
 784 0032 80BC     		pop	{r7}
 785              		.cfi_restore 7
 786              		.cfi_def_cfa_offset 0
 787 0034 7047     		bx	lr
 788              	.L50:
 789 0036 00BF     		.align	2
 790              	.L49:
ARM GAS  C:\Users\alex\AppData\Local\Temp\ccGPonqd.s 			page 22


 791 0038 00000000 		.word	OSCfg_TickWheel
 792 003c 00000000 		.word	OSCfg_TickWheelSize
 793              		.cfi_endproc
 794              	.LFE5:
 795              		.size	OS_TickListResetPeak, .-OS_TickListResetPeak
 796              		.section	.text.OS_TickListUpdate,"ax",%progbits
 797              		.align	2
 798              		.global	OS_TickListUpdate
 799              		.thumb
 800              		.thumb_func
 801              		.type	OS_TickListUpdate, %function
 802              	OS_TickListUpdate:
 803              	.LFB6:
 398:..\..\..\..\..\..\uCOS-III\Source/os_tick.c **** 
 399:..\..\..\..\..\..\uCOS-III\Source/os_tick.c **** /*$PAGE*/
 400:..\..\..\..\..\..\uCOS-III\Source/os_tick.c **** /*
 401:..\..\..\..\..\..\uCOS-III\Source/os_tick.c **** ***************************************************************************************************
 402:..\..\..\..\..\..\uCOS-III\Source/os_tick.c **** *                                                UPDATE THE TICK LIST
 403:..\..\..\..\..\..\uCOS-III\Source/os_tick.c **** *
 404:..\..\..\..\..\..\uCOS-III\Source/os_tick.c **** * Description: This function is called when a tick occurs and determines if the timeout waiting for
 405:..\..\..\..\..\..\uCOS-III\Source/os_tick.c **** *              expired or a delay has expired.
 406:..\..\..\..\..\..\uCOS-III\Source/os_tick.c **** *
 407:..\..\..\..\..\..\uCOS-III\Source/os_tick.c **** * Arguments  : non
 408:..\..\..\..\..\..\uCOS-III\Source/os_tick.c **** *
 409:..\..\..\..\..\..\uCOS-III\Source/os_tick.c **** * Returns    : none
 410:..\..\..\..\..\..\uCOS-III\Source/os_tick.c **** *
 411:..\..\..\..\..\..\uCOS-III\Source/os_tick.c **** * Note(s)    : 1) This function is INTERNAL to uC/OS-III and your application MUST NOT call it.
 412:..\..\..\..\..\..\uCOS-III\Source/os_tick.c **** ***************************************************************************************************
 413:..\..\..\..\..\..\uCOS-III\Source/os_tick.c **** */
 414:..\..\..\..\..\..\uCOS-III\Source/os_tick.c **** 
 415:..\..\..\..\..\..\uCOS-III\Source/os_tick.c **** void  OS_TickListUpdate (void)
 416:..\..\..\..\..\..\uCOS-III\Source/os_tick.c **** {
 804              		.loc 1 416 0
 805              		.cfi_startproc
 806              		@ args = 0, pretend = 0, frame = 32
 807              		@ frame_needed = 1, uses_anonymous_args = 0
 808 0000 80B5     		push	{r7, lr}
 809              		.cfi_def_cfa_offset 8
 810              		.cfi_offset 7, -8
 811              		.cfi_offset 14, -4
 812 0002 88B0     		sub	sp, sp, #32
 813              		.cfi_def_cfa_offset 40
 814 0004 00AF     		add	r7, sp, #0
 815              		.cfi_def_cfa_register 7
 417:..\..\..\..\..\..\uCOS-III\Source/os_tick.c ****     CPU_BOOLEAN        done;
 418:..\..\..\..\..\..\uCOS-III\Source/os_tick.c ****     OS_TICK_SPOKE     *p_spoke;
 419:..\..\..\..\..\..\uCOS-III\Source/os_tick.c ****     OS_TCB            *p_tcb;
 420:..\..\..\..\..\..\uCOS-III\Source/os_tick.c ****     OS_TCB            *p_tcb_next;
 421:..\..\..\..\..\..\uCOS-III\Source/os_tick.c ****     OS_TICK_SPOKE_IX   spoke;
 422:..\..\..\..\..\..\uCOS-III\Source/os_tick.c ****     CPU_TS             ts_start;
 423:..\..\..\..\..\..\uCOS-III\Source/os_tick.c ****     CPU_TS             ts_end;
 424:..\..\..\..\..\..\uCOS-III\Source/os_tick.c ****     CPU_SR_ALLOC();
 816              		.loc 1 424 0
 817 0006 0023     		movs	r3, #0
 818 0008 7B61     		str	r3, [r7, #20]
 425:..\..\..\..\..\..\uCOS-III\Source/os_tick.c **** 
 426:..\..\..\..\..\..\uCOS-III\Source/os_tick.c **** 
ARM GAS  C:\Users\alex\AppData\Local\Temp\ccGPonqd.s 			page 23


 427:..\..\..\..\..\..\uCOS-III\Source/os_tick.c ****     OS_CRITICAL_ENTER();
 819              		.loc 1 427 0
 820 000a FFF7FEFF 		bl	CPU_SR_Save
 821 000e 7861     		str	r0, [r7, #20]
 428:..\..\..\..\..\..\uCOS-III\Source/os_tick.c ****     ts_start = OS_TS_GET();
 822              		.loc 1 428 0
 823 0010 FFF7FEFF 		bl	CPU_TS_TmrRd
 824 0014 3861     		str	r0, [r7, #16]
 429:..\..\..\..\..\..\uCOS-III\Source/os_tick.c ****     OSTickCtr++;                                                       /* Keep track of the number 
 825              		.loc 1 429 0
 826 0016 744B     		ldr	r3, .L73
 827 0018 1B68     		ldr	r3, [r3]
 828 001a 0133     		adds	r3, r3, #1
 829 001c 724A     		ldr	r2, .L73
 830 001e 1360     		str	r3, [r2]
 430:..\..\..\..\..\..\uCOS-III\Source/os_tick.c ****     spoke    = (OS_TICK_SPOKE_IX)(OSTickCtr % OSCfg_TickWheelSize);
 831              		.loc 1 430 0
 832 0020 714B     		ldr	r3, .L73
 833 0022 1B68     		ldr	r3, [r3]
 834 0024 714A     		ldr	r2, .L73+4
 835 0026 1288     		ldrh	r2, [r2]
 836 0028 B3FBF2F1 		udiv	r1, r3, r2
 837 002c 02FB01F2 		mul	r2, r2, r1
 838 0030 9B1A     		subs	r3, r3, r2
 839 0032 FB81     		strh	r3, [r7, #14]	@ movhi
 431:..\..\..\..\..\..\uCOS-III\Source/os_tick.c ****     p_spoke  = &OSCfg_TickWheel[spoke];
 840              		.loc 1 431 0
 841 0034 FB89     		ldrh	r3, [r7, #14]
 842 0036 DB00     		lsls	r3, r3, #3
 843 0038 6D4A     		ldr	r2, .L73+8
 844 003a 1344     		add	r3, r3, r2
 845 003c BB60     		str	r3, [r7, #8]
 432:..\..\..\..\..\..\uCOS-III\Source/os_tick.c ****     p_tcb    = p_spoke->FirstPtr;
 846              		.loc 1 432 0
 847 003e BB68     		ldr	r3, [r7, #8]
 848 0040 1B68     		ldr	r3, [r3]
 849 0042 BB61     		str	r3, [r7, #24]
 433:..\..\..\..\..\..\uCOS-III\Source/os_tick.c ****     done     = DEF_FALSE;
 850              		.loc 1 433 0
 851 0044 0023     		movs	r3, #0
 852 0046 FB77     		strb	r3, [r7, #31]
 434:..\..\..\..\..\..\uCOS-III\Source/os_tick.c ****     while (done == DEF_FALSE) {
 853              		.loc 1 434 0
 854 0048 B4E0     		b	.L52
 855              	.L70:
 435:..\..\..\..\..\..\uCOS-III\Source/os_tick.c ****         if (p_tcb != (OS_TCB *)0) {
 856              		.loc 1 435 0
 857 004a BB69     		ldr	r3, [r7, #24]
 858 004c 002B     		cmp	r3, #0
 859 004e 00F0AF80 		beq	.L53
 436:..\..\..\..\..\..\uCOS-III\Source/os_tick.c ****             p_tcb_next = p_tcb->TickNextPtr;                           /* Point to next TCB to upda
 860              		.loc 1 436 0
 861 0052 BB69     		ldr	r3, [r7, #24]
 862 0054 5B69     		ldr	r3, [r3, #20]
 863 0056 7B60     		str	r3, [r7, #4]
 437:..\..\..\..\..\..\uCOS-III\Source/os_tick.c ****             switch (p_tcb->TaskState) {
 864              		.loc 1 437 0
ARM GAS  C:\Users\alex\AppData\Local\Temp\ccGPonqd.s 			page 24


 865 0058 BB69     		ldr	r3, [r7, #24]
 866 005a 93F83630 		ldrb	r3, [r3, #54]	@ zero_extendqisi2
 867 005e 072B     		cmp	r3, #7
 868 0060 00F2A280 		bhi	.L72
 869 0064 01A2     		adr	r2, .L56
 870 0066 52F823F0 		ldr	pc, [r2, r3, lsl #2]
 871 006a 00BF     		.p2align 2
 872              	.L56:
 873 006c A9010000 		.word	.L72+1
 874 0070 8D000000 		.word	.L57+1
 875 0074 A9010000 		.word	.L72+1
 876 0078 BD000000 		.word	.L58+1
 877 007c A9010000 		.word	.L72+1
 878 0080 1B010000 		.word	.L59+1
 879 0084 A9010000 		.word	.L72+1
 880 0088 4B010000 		.word	.L60+1
 881              		.p2align 1
 882              	.L57:
 438:..\..\..\..\..\..\uCOS-III\Source/os_tick.c ****                 case OS_TASK_STATE_RDY:
 439:..\..\..\..\..\..\uCOS-III\Source/os_tick.c ****                 case OS_TASK_STATE_PEND:
 440:..\..\..\..\..\..\uCOS-III\Source/os_tick.c ****                 case OS_TASK_STATE_SUSPENDED:
 441:..\..\..\..\..\..\uCOS-III\Source/os_tick.c ****                 case OS_TASK_STATE_PEND_SUSPENDED:
 442:..\..\..\..\..\..\uCOS-III\Source/os_tick.c ****                      break;
 443:..\..\..\..\..\..\uCOS-III\Source/os_tick.c **** 
 444:..\..\..\..\..\..\uCOS-III\Source/os_tick.c ****                 case OS_TASK_STATE_DLY:
 445:..\..\..\..\..\..\uCOS-III\Source/os_tick.c ****                      p_tcb->TickRemain = p_tcb->TickCtrMatch           /* Compute time remaining of
 883              		.loc 1 445 0
 884 008c BB69     		ldr	r3, [r7, #24]
 885 008e DA6C     		ldr	r2, [r3, #76]
 446:..\..\..\..\..\..\uCOS-III\Source/os_tick.c ****                                        - OSTickCtr;
 886              		.loc 1 446 0
 887 0090 554B     		ldr	r3, .L73
 888 0092 1B68     		ldr	r3, [r3]
 889 0094 D21A     		subs	r2, r2, r3
 445:..\..\..\..\..\..\uCOS-III\Source/os_tick.c ****                                        - OSTickCtr;
 890              		.loc 1 445 0
 891 0096 BB69     		ldr	r3, [r7, #24]
 892 0098 1A65     		str	r2, [r3, #80]
 447:..\..\..\..\..\..\uCOS-III\Source/os_tick.c ****                      if (OSTickCtr == p_tcb->TickCtrMatch) {           /* Process each TCB that exp
 893              		.loc 1 447 0
 894 009a BB69     		ldr	r3, [r7, #24]
 895 009c DA6C     		ldr	r2, [r3, #76]
 896 009e 524B     		ldr	r3, .L73
 897 00a0 1B68     		ldr	r3, [r3]
 898 00a2 9A42     		cmp	r2, r3
 899 00a4 07D1     		bne	.L62
 448:..\..\..\..\..\..\uCOS-III\Source/os_tick.c ****                          p_tcb->TaskState = OS_TASK_STATE_RDY;
 900              		.loc 1 448 0
 901 00a6 BB69     		ldr	r3, [r7, #24]
 902 00a8 0022     		movs	r2, #0
 903 00aa 83F83620 		strb	r2, [r3, #54]
 449:..\..\..\..\..\..\uCOS-III\Source/os_tick.c ****                          OS_TaskRdy(p_tcb);                            /* Make task ready to run   
 904              		.loc 1 449 0
 905 00ae B869     		ldr	r0, [r7, #24]
 906 00b0 FFF7FEFF 		bl	OS_TaskRdy
 450:..\..\..\..\..\..\uCOS-III\Source/os_tick.c ****                      } else {
 451:..\..\..\..\..\..\uCOS-III\Source/os_tick.c ****                          done             = DEF_TRUE;                  /* Don't find a match, we're
ARM GAS  C:\Users\alex\AppData\Local\Temp\ccGPonqd.s 			page 25


 452:..\..\..\..\..\..\uCOS-III\Source/os_tick.c ****                      }
 453:..\..\..\..\..\..\uCOS-III\Source/os_tick.c ****                      break;
 907              		.loc 1 453 0
 908 00b4 79E0     		b	.L61
 909              	.L62:
 451:..\..\..\..\..\..\uCOS-III\Source/os_tick.c ****                      }
 910              		.loc 1 451 0
 911 00b6 0123     		movs	r3, #1
 912 00b8 FB77     		strb	r3, [r7, #31]
 913              		.loc 1 453 0
 914 00ba 76E0     		b	.L61
 915              	.L58:
 454:..\..\..\..\..\..\uCOS-III\Source/os_tick.c **** 
 455:..\..\..\..\..\..\uCOS-III\Source/os_tick.c ****                 case OS_TASK_STATE_PEND_TIMEOUT:
 456:..\..\..\..\..\..\uCOS-III\Source/os_tick.c ****                      p_tcb->TickRemain = p_tcb->TickCtrMatch           /* Compute time remaining of
 916              		.loc 1 456 0
 917 00bc BB69     		ldr	r3, [r7, #24]
 918 00be DA6C     		ldr	r2, [r3, #76]
 457:..\..\..\..\..\..\uCOS-III\Source/os_tick.c ****                                        - OSTickCtr;
 919              		.loc 1 457 0
 920 00c0 494B     		ldr	r3, .L73
 921 00c2 1B68     		ldr	r3, [r3]
 922 00c4 D21A     		subs	r2, r2, r3
 456:..\..\..\..\..\..\uCOS-III\Source/os_tick.c ****                                        - OSTickCtr;
 923              		.loc 1 456 0
 924 00c6 BB69     		ldr	r3, [r7, #24]
 925 00c8 1A65     		str	r2, [r3, #80]
 458:..\..\..\..\..\..\uCOS-III\Source/os_tick.c ****                      if (OSTickCtr == p_tcb->TickCtrMatch) {           /* Process each TCB that exp
 926              		.loc 1 458 0
 927 00ca BB69     		ldr	r3, [r7, #24]
 928 00cc DA6C     		ldr	r2, [r3, #76]
 929 00ce 464B     		ldr	r3, .L73
 930 00d0 1B68     		ldr	r3, [r3]
 931 00d2 9A42     		cmp	r2, r3
 932 00d4 1ED1     		bne	.L64
 459:..\..\..\..\..\..\uCOS-III\Source/os_tick.c **** #if (OS_MSG_EN > 0u)
 460:..\..\..\..\..\..\uCOS-III\Source/os_tick.c ****                          p_tcb->MsgPtr     = (void      *)0;
 933              		.loc 1 460 0
 934 00d6 BB69     		ldr	r3, [r7, #24]
 935 00d8 0022     		movs	r2, #0
 936 00da DA65     		str	r2, [r3, #92]
 461:..\..\..\..\..\..\uCOS-III\Source/os_tick.c ****                          p_tcb->MsgSize    = (OS_MSG_SIZE)0u;
 937              		.loc 1 461 0
 938 00dc BB69     		ldr	r3, [r7, #24]
 939 00de 0022     		movs	r2, #0
 940 00e0 A3F86020 		strh	r2, [r3, #96]	@ movhi
 462:..\..\..\..\..\..\uCOS-III\Source/os_tick.c **** #endif
 463:..\..\..\..\..\..\uCOS-III\Source/os_tick.c ****                          p_tcb->TS         = OS_TS_GET();
 941              		.loc 1 463 0
 942 00e4 FFF7FEFF 		bl	CPU_TS_TmrRd
 943 00e8 0246     		mov	r2, r0
 944 00ea BB69     		ldr	r3, [r7, #24]
 945 00ec 1A64     		str	r2, [r3, #64]
 464:..\..\..\..\..\..\uCOS-III\Source/os_tick.c ****                          OS_PendListRemove(p_tcb);                     /* Remove from wait list    
 946              		.loc 1 464 0
 947 00ee B869     		ldr	r0, [r7, #24]
 948 00f0 FFF7FEFF 		bl	OS_PendListRemove
ARM GAS  C:\Users\alex\AppData\Local\Temp\ccGPonqd.s 			page 26


 465:..\..\..\..\..\..\uCOS-III\Source/os_tick.c ****                          OS_TaskRdy(p_tcb);
 949              		.loc 1 465 0
 950 00f4 B869     		ldr	r0, [r7, #24]
 951 00f6 FFF7FEFF 		bl	OS_TaskRdy
 466:..\..\..\..\..\..\uCOS-III\Source/os_tick.c ****                          p_tcb->TaskState  = OS_TASK_STATE_RDY;
 952              		.loc 1 466 0
 953 00fa BB69     		ldr	r3, [r7, #24]
 954 00fc 0022     		movs	r2, #0
 955 00fe 83F83620 		strb	r2, [r3, #54]
 467:..\..\..\..\..\..\uCOS-III\Source/os_tick.c ****                          p_tcb->PendStatus = OS_STATUS_PEND_TIMEOUT;   /* Indicate pend timed out  
 956              		.loc 1 467 0
 957 0102 BB69     		ldr	r3, [r7, #24]
 958 0104 0322     		movs	r2, #3
 959 0106 83F83520 		strb	r2, [r3, #53]
 468:..\..\..\..\..\..\uCOS-III\Source/os_tick.c ****                          p_tcb->PendOn     = OS_TASK_PEND_ON_NOTHING;  /* Indicate no longer pendin
 960              		.loc 1 468 0
 961 010a BB69     		ldr	r3, [r7, #24]
 962 010c 0022     		movs	r2, #0
 963 010e 83F83420 		strb	r2, [r3, #52]
 469:..\..\..\..\..\..\uCOS-III\Source/os_tick.c ****                      } else {
 470:..\..\..\..\..\..\uCOS-III\Source/os_tick.c ****                          done              = DEF_TRUE;                 /* Don't find a match, we're
 471:..\..\..\..\..\..\uCOS-III\Source/os_tick.c ****                      }
 472:..\..\..\..\..\..\uCOS-III\Source/os_tick.c ****                      break;
 964              		.loc 1 472 0
 965 0112 4AE0     		b	.L61
 966              	.L64:
 470:..\..\..\..\..\..\uCOS-III\Source/os_tick.c ****                      }
 967              		.loc 1 470 0
 968 0114 0123     		movs	r3, #1
 969 0116 FB77     		strb	r3, [r7, #31]
 970              		.loc 1 472 0
 971 0118 47E0     		b	.L61
 972              	.L59:
 473:..\..\..\..\..\..\uCOS-III\Source/os_tick.c **** 
 474:..\..\..\..\..\..\uCOS-III\Source/os_tick.c ****                 case OS_TASK_STATE_DLY_SUSPENDED:
 475:..\..\..\..\..\..\uCOS-III\Source/os_tick.c ****                      p_tcb->TickRemain = p_tcb->TickCtrMatch           /* Compute time remaining of
 973              		.loc 1 475 0
 974 011a BB69     		ldr	r3, [r7, #24]
 975 011c DA6C     		ldr	r2, [r3, #76]
 476:..\..\..\..\..\..\uCOS-III\Source/os_tick.c ****                                        - OSTickCtr;
 976              		.loc 1 476 0
 977 011e 324B     		ldr	r3, .L73
 978 0120 1B68     		ldr	r3, [r3]
 979 0122 D21A     		subs	r2, r2, r3
 475:..\..\..\..\..\..\uCOS-III\Source/os_tick.c ****                                        - OSTickCtr;
 980              		.loc 1 475 0
 981 0124 BB69     		ldr	r3, [r7, #24]
 982 0126 1A65     		str	r2, [r3, #80]
 477:..\..\..\..\..\..\uCOS-III\Source/os_tick.c ****                      if (OSTickCtr == p_tcb->TickCtrMatch) {           /* Process each TCB that exp
 983              		.loc 1 477 0
 984 0128 BB69     		ldr	r3, [r7, #24]
 985 012a DA6C     		ldr	r2, [r3, #76]
 986 012c 2E4B     		ldr	r3, .L73
 987 012e 1B68     		ldr	r3, [r3]
 988 0130 9A42     		cmp	r2, r3
 989 0132 07D1     		bne	.L66
 478:..\..\..\..\..\..\uCOS-III\Source/os_tick.c ****                          p_tcb->TaskState  = OS_TASK_STATE_SUSPENDED;
ARM GAS  C:\Users\alex\AppData\Local\Temp\ccGPonqd.s 			page 27


 990              		.loc 1 478 0
 991 0134 BB69     		ldr	r3, [r7, #24]
 992 0136 0422     		movs	r2, #4
 993 0138 83F83620 		strb	r2, [r3, #54]
 479:..\..\..\..\..\..\uCOS-III\Source/os_tick.c ****                          OS_TickListRemove(p_tcb);                     /* Remove from current wheel
 994              		.loc 1 479 0
 995 013c B869     		ldr	r0, [r7, #24]
 996 013e FFF7FEFF 		bl	OS_TickListRemove
 480:..\..\..\..\..\..\uCOS-III\Source/os_tick.c ****                      } else {
 481:..\..\..\..\..\..\uCOS-III\Source/os_tick.c ****                          done              = DEF_TRUE;                 /* Don't find a match, we're
 482:..\..\..\..\..\..\uCOS-III\Source/os_tick.c ****                      }
 483:..\..\..\..\..\..\uCOS-III\Source/os_tick.c ****                      break;
 997              		.loc 1 483 0
 998 0142 32E0     		b	.L61
 999              	.L66:
 481:..\..\..\..\..\..\uCOS-III\Source/os_tick.c ****                      }
 1000              		.loc 1 481 0
 1001 0144 0123     		movs	r3, #1
 1002 0146 FB77     		strb	r3, [r7, #31]
 1003              		.loc 1 483 0
 1004 0148 2FE0     		b	.L61
 1005              	.L60:
 484:..\..\..\..\..\..\uCOS-III\Source/os_tick.c **** 
 485:..\..\..\..\..\..\uCOS-III\Source/os_tick.c ****                 case OS_TASK_STATE_PEND_TIMEOUT_SUSPENDED:
 486:..\..\..\..\..\..\uCOS-III\Source/os_tick.c ****                      p_tcb->TickRemain = p_tcb->TickCtrMatch           /* Compute time remaining of
 1006              		.loc 1 486 0
 1007 014a BB69     		ldr	r3, [r7, #24]
 1008 014c DA6C     		ldr	r2, [r3, #76]
 487:..\..\..\..\..\..\uCOS-III\Source/os_tick.c ****                                        - OSTickCtr;
 1009              		.loc 1 487 0
 1010 014e 264B     		ldr	r3, .L73
 1011 0150 1B68     		ldr	r3, [r3]
 1012 0152 D21A     		subs	r2, r2, r3
 486:..\..\..\..\..\..\uCOS-III\Source/os_tick.c ****                                        - OSTickCtr;
 1013              		.loc 1 486 0
 1014 0154 BB69     		ldr	r3, [r7, #24]
 1015 0156 1A65     		str	r2, [r3, #80]
 488:..\..\..\..\..\..\uCOS-III\Source/os_tick.c ****                      if (OSTickCtr == p_tcb->TickCtrMatch) {           /* Process each TCB that exp
 1016              		.loc 1 488 0
 1017 0158 BB69     		ldr	r3, [r7, #24]
 1018 015a DA6C     		ldr	r2, [r3, #76]
 1019 015c 224B     		ldr	r3, .L73
 1020 015e 1B68     		ldr	r3, [r3]
 1021 0160 9A42     		cmp	r2, r3
 1022 0162 1ED1     		bne	.L68
 489:..\..\..\..\..\..\uCOS-III\Source/os_tick.c **** #if (OS_MSG_EN > 0u)
 490:..\..\..\..\..\..\uCOS-III\Source/os_tick.c ****                          p_tcb->MsgPtr     = (void      *)0;
 1023              		.loc 1 490 0
 1024 0164 BB69     		ldr	r3, [r7, #24]
 1025 0166 0022     		movs	r2, #0
 1026 0168 DA65     		str	r2, [r3, #92]
 491:..\..\..\..\..\..\uCOS-III\Source/os_tick.c ****                          p_tcb->MsgSize    = (OS_MSG_SIZE)0u;
 1027              		.loc 1 491 0
 1028 016a BB69     		ldr	r3, [r7, #24]
 1029 016c 0022     		movs	r2, #0
 1030 016e A3F86020 		strh	r2, [r3, #96]	@ movhi
 492:..\..\..\..\..\..\uCOS-III\Source/os_tick.c **** #endif
ARM GAS  C:\Users\alex\AppData\Local\Temp\ccGPonqd.s 			page 28


 493:..\..\..\..\..\..\uCOS-III\Source/os_tick.c ****                          p_tcb->TS         = OS_TS_GET();
 1031              		.loc 1 493 0
 1032 0172 FFF7FEFF 		bl	CPU_TS_TmrRd
 1033 0176 0246     		mov	r2, r0
 1034 0178 BB69     		ldr	r3, [r7, #24]
 1035 017a 1A64     		str	r2, [r3, #64]
 494:..\..\..\..\..\..\uCOS-III\Source/os_tick.c ****                          OS_PendListRemove(p_tcb);                     /* Remove from wait list    
 1036              		.loc 1 494 0
 1037 017c B869     		ldr	r0, [r7, #24]
 1038 017e FFF7FEFF 		bl	OS_PendListRemove
 495:..\..\..\..\..\..\uCOS-III\Source/os_tick.c ****                          OS_TickListRemove(p_tcb);                     /* Remove from current wheel
 1039              		.loc 1 495 0
 1040 0182 B869     		ldr	r0, [r7, #24]
 1041 0184 FFF7FEFF 		bl	OS_TickListRemove
 496:..\..\..\..\..\..\uCOS-III\Source/os_tick.c ****                          p_tcb->TaskState  = OS_TASK_STATE_SUSPENDED;
 1042              		.loc 1 496 0
 1043 0188 BB69     		ldr	r3, [r7, #24]
 1044 018a 0422     		movs	r2, #4
 1045 018c 83F83620 		strb	r2, [r3, #54]
 497:..\..\..\..\..\..\uCOS-III\Source/os_tick.c ****                          p_tcb->PendStatus = OS_STATUS_PEND_TIMEOUT;   /* Indicate pend timed out  
 1046              		.loc 1 497 0
 1047 0190 BB69     		ldr	r3, [r7, #24]
 1048 0192 0322     		movs	r2, #3
 1049 0194 83F83520 		strb	r2, [r3, #53]
 498:..\..\..\..\..\..\uCOS-III\Source/os_tick.c ****                          p_tcb->PendOn     = OS_TASK_PEND_ON_NOTHING;  /* Indicate no longer pendin
 1050              		.loc 1 498 0
 1051 0198 BB69     		ldr	r3, [r7, #24]
 1052 019a 0022     		movs	r2, #0
 1053 019c 83F83420 		strb	r2, [r3, #52]
 499:..\..\..\..\..\..\uCOS-III\Source/os_tick.c ****                      } else {
 500:..\..\..\..\..\..\uCOS-III\Source/os_tick.c ****                          done              = DEF_TRUE;                 /* Don't find a match, we're
 501:..\..\..\..\..\..\uCOS-III\Source/os_tick.c ****                      }
 502:..\..\..\..\..\..\uCOS-III\Source/os_tick.c ****                      break;
 1054              		.loc 1 502 0
 1055 01a0 03E0     		b	.L61
 1056              	.L68:
 500:..\..\..\..\..\..\uCOS-III\Source/os_tick.c ****                      }
 1057              		.loc 1 500 0
 1058 01a2 0123     		movs	r3, #1
 1059 01a4 FB77     		strb	r3, [r7, #31]
 1060              		.loc 1 502 0
 1061 01a6 00E0     		b	.L61
 1062              	.L72:
 503:..\..\..\..\..\..\uCOS-III\Source/os_tick.c **** 
 504:..\..\..\..\..\..\uCOS-III\Source/os_tick.c ****                 default:
 505:..\..\..\..\..\..\uCOS-III\Source/os_tick.c ****                      break;
 1063              		.loc 1 505 0
 1064 01a8 00BF     		nop
 1065              	.L61:
 506:..\..\..\..\..\..\uCOS-III\Source/os_tick.c ****             }
 507:..\..\..\..\..\..\uCOS-III\Source/os_tick.c ****             p_tcb = p_tcb_next;
 1066              		.loc 1 507 0
 1067 01aa 7B68     		ldr	r3, [r7, #4]
 1068 01ac BB61     		str	r3, [r7, #24]
 1069 01ae 01E0     		b	.L52
 1070              	.L53:
 508:..\..\..\..\..\..\uCOS-III\Source/os_tick.c ****         } else {
ARM GAS  C:\Users\alex\AppData\Local\Temp\ccGPonqd.s 			page 29


 509:..\..\..\..\..\..\uCOS-III\Source/os_tick.c ****             done  = DEF_TRUE;
 1071              		.loc 1 509 0
 1072 01b0 0123     		movs	r3, #1
 1073 01b2 FB77     		strb	r3, [r7, #31]
 1074              	.L52:
 434:..\..\..\..\..\..\uCOS-III\Source/os_tick.c ****         if (p_tcb != (OS_TCB *)0) {
 1075              		.loc 1 434 0
 1076 01b4 FB7F     		ldrb	r3, [r7, #31]	@ zero_extendqisi2
 1077 01b6 002B     		cmp	r3, #0
 1078 01b8 3FF447AF 		beq	.L70
 510:..\..\..\..\..\..\uCOS-III\Source/os_tick.c ****         }
 511:..\..\..\..\..\..\uCOS-III\Source/os_tick.c ****     }
 512:..\..\..\..\..\..\uCOS-III\Source/os_tick.c ****     ts_end = OS_TS_GET() - ts_start;                                   /* Measure execution time of
 1079              		.loc 1 512 0
 1080 01bc FFF7FEFF 		bl	CPU_TS_TmrRd
 1081 01c0 0246     		mov	r2, r0
 1082 01c2 3B69     		ldr	r3, [r7, #16]
 1083 01c4 D31A     		subs	r3, r2, r3
 1084 01c6 3B60     		str	r3, [r7]
 513:..\..\..\..\..\..\uCOS-III\Source/os_tick.c ****     if (OSTickTaskTimeMax < ts_end) {
 1085              		.loc 1 513 0
 1086 01c8 0A4B     		ldr	r3, .L73+12
 1087 01ca 1A68     		ldr	r2, [r3]
 1088 01cc 3B68     		ldr	r3, [r7]
 1089 01ce 9A42     		cmp	r2, r3
 1090 01d0 02D2     		bcs	.L71
 514:..\..\..\..\..\..\uCOS-III\Source/os_tick.c ****         OSTickTaskTimeMax = ts_end;
 1091              		.loc 1 514 0
 1092 01d2 084A     		ldr	r2, .L73+12
 1093 01d4 3B68     		ldr	r3, [r7]
 1094 01d6 1360     		str	r3, [r2]
 1095              	.L71:
 515:..\..\..\..\..\..\uCOS-III\Source/os_tick.c ****     }
 516:..\..\..\..\..\..\uCOS-III\Source/os_tick.c ****     OS_CRITICAL_EXIT();
 1096              		.loc 1 516 0
 1097 01d8 7869     		ldr	r0, [r7, #20]
 1098 01da FFF7FEFF 		bl	CPU_SR_Restore
 517:..\..\..\..\..\..\uCOS-III\Source/os_tick.c **** }
 1099              		.loc 1 517 0
 1100 01de 00BF     		nop
 1101 01e0 2037     		adds	r7, r7, #32
 1102              		.cfi_def_cfa_offset 8
 1103 01e2 BD46     		mov	sp, r7
 1104              		.cfi_def_cfa_register 13
 1105              		@ sp needed
 1106 01e4 80BD     		pop	{r7, pc}
 1107              	.L74:
 1108 01e6 00BF     		.align	2
 1109              	.L73:
 1110 01e8 00000000 		.word	OSTickCtr
 1111 01ec 00000000 		.word	OSCfg_TickWheelSize
 1112 01f0 00000000 		.word	OSCfg_TickWheel
 1113 01f4 00000000 		.word	OSTickTaskTimeMax
 1114              		.cfi_endproc
 1115              	.LFE6:
 1116              		.size	OS_TickListUpdate, .-OS_TickListUpdate
 1117              		.text
ARM GAS  C:\Users\alex\AppData\Local\Temp\ccGPonqd.s 			page 30


 1118              	.Letext0:
 1119              		.file 2 "..\\..\\..\\..\\..\\..\\uC-CPU\\ARM-Cortex-M3\\GNU/cpu.h"
 1120              		.file 3 "..\\..\\..\\..\\..\\..\\uC-CPU/cpu_core.h"
 1121              		.file 4 "..\\..\\..\\..\\..\\..\\uCOS-III\\Source/os_type.h"
 1122              		.file 5 "..\\..\\..\\..\\..\\..\\uCOS-III\\Source/os.h"