ARM GAS  C:\Users\alex\AppData\Local\Temp\cc8Lm9sh.s 			page 1


   1              		.syntax unified
   2              		.cpu cortex-m3
   3              		.fpu softvfp
   4              		.eabi_attribute 20, 1
   5              		.eabi_attribute 21, 1
   6              		.eabi_attribute 23, 3
   7              		.eabi_attribute 24, 1
   8              		.eabi_attribute 25, 1
   9              		.eabi_attribute 26, 1
  10              		.eabi_attribute 30, 6
  11              		.eabi_attribute 34, 1
  12              		.eabi_attribute 18, 4
  13              		.thumb
  14              		.syntax unified
  15              		.file	"os_time.c"
  16              		.text
  17              	.Ltext0:
  18              		.cfi_sections	.debug_frame
  19              		.section	.text.OSTimeDly,"ax",%progbits
  20              		.align	2
  21              		.global	OSTimeDly
  22              		.thumb
  23              		.thumb_func
  24              		.type	OSTimeDly, %function
  25              	OSTimeDly:
  26              	.LFB0:
  27              		.file 1 "..\\..\\..\\..\\..\\..\\uCOS-III\\Source\\os_time.c"
   1:..\..\..\..\..\..\uCOS-III\Source/os_time.c **** /*
   2:..\..\..\..\..\..\uCOS-III\Source/os_time.c **** ***************************************************************************************************
   3:..\..\..\..\..\..\uCOS-III\Source/os_time.c **** *                                                      uC/OS-III
   4:..\..\..\..\..\..\uCOS-III\Source/os_time.c **** *                                                 The Real-Time Kernel
   5:..\..\..\..\..\..\uCOS-III\Source/os_time.c **** *
   6:..\..\..\..\..\..\uCOS-III\Source/os_time.c **** *                                  (c) Copyright 2009-2012; Micrium, Inc.; Weston, FL
   7:..\..\..\..\..\..\uCOS-III\Source/os_time.c **** *                           All rights reserved.  Protected by international copyright laws.
   8:..\..\..\..\..\..\uCOS-III\Source/os_time.c **** *
   9:..\..\..\..\..\..\uCOS-III\Source/os_time.c **** *                                                   TIME MANAGEMENT
  10:..\..\..\..\..\..\uCOS-III\Source/os_time.c **** *
  11:..\..\..\..\..\..\uCOS-III\Source/os_time.c **** * File    : OS_TIME.C
  12:..\..\..\..\..\..\uCOS-III\Source/os_time.c **** * By      : JJL
  13:..\..\..\..\..\..\uCOS-III\Source/os_time.c **** * Version : V3.03.01
  14:..\..\..\..\..\..\uCOS-III\Source/os_time.c **** *
  15:..\..\..\..\..\..\uCOS-III\Source/os_time.c **** * LICENSING TERMS:
  16:..\..\..\..\..\..\uCOS-III\Source/os_time.c **** * ---------------
  17:..\..\..\..\..\..\uCOS-III\Source/os_time.c **** *           uC/OS-III is provided in source form for FREE short-term evaluation, for educational us
  18:..\..\..\..\..\..\uCOS-III\Source/os_time.c **** *           for peaceful research.  If you plan or intend to use uC/OS-III in a commercial applicat
  19:..\..\..\..\..\..\uCOS-III\Source/os_time.c **** *           product then, you need to contact Micrium to properly license uC/OS-III for its use in 
  20:..\..\..\..\..\..\uCOS-III\Source/os_time.c **** *           application/product.   We provide ALL the source code for your convenience and to help 
  21:..\..\..\..\..\..\uCOS-III\Source/os_time.c **** *           experience uC/OS-III.  The fact that the source is provided does NOT mean that you can 
  22:..\..\..\..\..\..\uCOS-III\Source/os_time.c **** *           it commercially without paying a licensing fee.
  23:..\..\..\..\..\..\uCOS-III\Source/os_time.c **** *
  24:..\..\..\..\..\..\uCOS-III\Source/os_time.c **** *           Knowledge of the source code may NOT be used to develop a similar product.
  25:..\..\..\..\..\..\uCOS-III\Source/os_time.c **** *
  26:..\..\..\..\..\..\uCOS-III\Source/os_time.c **** *           Please help us continue to provide the embedded community with the finest software avai
  27:..\..\..\..\..\..\uCOS-III\Source/os_time.c **** *           Your honesty is greatly appreciated.
  28:..\..\..\..\..\..\uCOS-III\Source/os_time.c **** *
  29:..\..\..\..\..\..\uCOS-III\Source/os_time.c **** *           You can contact us at www.micrium.com, or by phone at +1 (954) 217-2036.
  30:..\..\..\..\..\..\uCOS-III\Source/os_time.c **** ***************************************************************************************************
ARM GAS  C:\Users\alex\AppData\Local\Temp\cc8Lm9sh.s 			page 2


  31:..\..\..\..\..\..\uCOS-III\Source/os_time.c **** */
  32:..\..\..\..\..\..\uCOS-III\Source/os_time.c **** 
  33:..\..\..\..\..\..\uCOS-III\Source/os_time.c **** #define  MICRIUM_SOURCE
  34:..\..\..\..\..\..\uCOS-III\Source/os_time.c **** #include <os.h>
  35:..\..\..\..\..\..\uCOS-III\Source/os_time.c **** 
  36:..\..\..\..\..\..\uCOS-III\Source/os_time.c **** #ifdef VSC_INCLUDE_SOURCE_FILE_NAMES
  37:..\..\..\..\..\..\uCOS-III\Source/os_time.c **** const  CPU_CHAR  *os_time__c = "$Id: $";
  38:..\..\..\..\..\..\uCOS-III\Source/os_time.c **** #endif
  39:..\..\..\..\..\..\uCOS-III\Source/os_time.c **** 
  40:..\..\..\..\..\..\uCOS-III\Source/os_time.c **** /*
  41:..\..\..\..\..\..\uCOS-III\Source/os_time.c **** ***************************************************************************************************
  42:..\..\..\..\..\..\uCOS-III\Source/os_time.c **** *                                                  DELAY TASK 'n' TICKS
  43:..\..\..\..\..\..\uCOS-III\Source/os_time.c **** *
  44:..\..\..\..\..\..\uCOS-III\Source/os_time.c **** * Description: This function is called to delay execution of the currently running task until the s
  45:..\..\..\..\..\..\uCOS-III\Source/os_time.c **** *              system ticks expires.  This, of course, directly equates to delaying the current tas
  46:..\..\..\..\..\..\uCOS-III\Source/os_time.c **** *              expire.  No delay will result if the specified delay is 0.  If the specified delay i
  47:..\..\..\..\..\..\uCOS-III\Source/os_time.c **** *              then, a context switch will result.
  48:..\..\..\..\..\..\uCOS-III\Source/os_time.c **** *
  49:..\..\..\..\..\..\uCOS-III\Source/os_time.c **** * Arguments  : dly       is a value in 'clock ticks' that the task will either delay for or, the ta
  50:..\..\..\..\..\..\uCOS-III\Source/os_time.c **** *                        of the tick counter (OSTickCtr).  Note that specifying 0 means the task is
  51:..\..\..\..\..\..\uCOS-III\Source/os_time.c **** *
  52:..\..\..\..\..\..\uCOS-III\Source/os_time.c **** *                        depending on the option argument, the task will wake up when OSTickCtr rea
  53:..\..\..\..\..\..\uCOS-III\Source/os_time.c **** *
  54:..\..\..\..\..\..\uCOS-III\Source/os_time.c **** *                            OS_OPT_TIME_DLY      : OSTickCtr + dly
  55:..\..\..\..\..\..\uCOS-III\Source/os_time.c **** *                            OS_OPT_TIME_TIMEOUT  : OSTickCtr + dly
  56:..\..\..\..\..\..\uCOS-III\Source/os_time.c **** *                            OS_OPT_TIME_MATCH    : dly
  57:..\..\..\..\..\..\uCOS-III\Source/os_time.c **** *                            OS_OPT_TIME_PERIODIC : OSTCBCurPtr->TickCtrPrev + dly
  58:..\..\..\..\..\..\uCOS-III\Source/os_time.c **** *
  59:..\..\..\..\..\..\uCOS-III\Source/os_time.c **** *              opt       specifies whether 'dly' represents absolute or relative time; default opti
  60:..\..\..\..\..\..\uCOS-III\Source/os_time.c **** *
  61:..\..\..\..\..\..\uCOS-III\Source/os_time.c **** *                        *** OS_OPT_TIME_DLY        specifies a relative time from the current valu
  62:..\..\..\..\..\..\uCOS-III\Source/os_time.c **** *                            OS_OPT_TIME_TIMEOUT    same as OS_OPT_TIME_DLY.
  63:..\..\..\..\..\..\uCOS-III\Source/os_time.c **** *                            OS_OPT_TIME_MATCH      indicates that 'dly' specifies the absolute val
  64:..\..\..\..\..\..\uCOS-III\Source/os_time.c **** *                                                   must reach before the task will be resumed.
  65:..\..\..\..\..\..\uCOS-III\Source/os_time.c **** *                            OS_OPT_TIME_PERIODIC   indicates that 'dly' specifies the periodic val
  66:..\..\..\..\..\..\uCOS-III\Source/os_time.c **** *                                                   must reach before the task will be resumed.
  67:..\..\..\..\..\..\uCOS-III\Source/os_time.c **** *
  68:..\..\..\..\..\..\uCOS-III\Source/os_time.c **** *              p_err     is a pointer to a variable that will contain an error code from this call.
  69:..\..\..\..\..\..\uCOS-III\Source/os_time.c **** *
  70:..\..\..\..\..\..\uCOS-III\Source/os_time.c **** *                            OS_ERR_NONE            the call was successful and the delay occurred.
  71:..\..\..\..\..\..\uCOS-III\Source/os_time.c **** *                            OS_ERR_OPT_INVALID     if you specified an invalid option for this fun
  72:..\..\..\..\..\..\uCOS-III\Source/os_time.c **** *                            OS_ERR_SCHED_LOCKED    can't delay when the scheduler is locked.
  73:..\..\..\..\..\..\uCOS-III\Source/os_time.c **** *                            OS_ERR_TIME_DLY_ISR    if you called this function from an ISR.
  74:..\..\..\..\..\..\uCOS-III\Source/os_time.c **** *                            OS_ERR_TIME_ZERO_DLY   if you specified a delay of zero.
  75:..\..\..\..\..\..\uCOS-III\Source/os_time.c **** *
  76:..\..\..\..\..\..\uCOS-III\Source/os_time.c **** * Returns    : none
  77:..\..\..\..\..\..\uCOS-III\Source/os_time.c **** ***************************************************************************************************
  78:..\..\..\..\..\..\uCOS-III\Source/os_time.c **** */
  79:..\..\..\..\..\..\uCOS-III\Source/os_time.c **** 
  80:..\..\..\..\..\..\uCOS-III\Source/os_time.c **** void  OSTimeDly (OS_TICK   dly,
  81:..\..\..\..\..\..\uCOS-III\Source/os_time.c ****                  OS_OPT    opt,
  82:..\..\..\..\..\..\uCOS-III\Source/os_time.c ****                  OS_ERR   *p_err)
  83:..\..\..\..\..\..\uCOS-III\Source/os_time.c **** {
  28              		.loc 1 83 0
  29              		.cfi_startproc
  30              		@ args = 0, pretend = 0, frame = 24
  31              		@ frame_needed = 1, uses_anonymous_args = 0
ARM GAS  C:\Users\alex\AppData\Local\Temp\cc8Lm9sh.s 			page 3


  32 0000 80B5     		push	{r7, lr}
  33              		.cfi_def_cfa_offset 8
  34              		.cfi_offset 7, -8
  35              		.cfi_offset 14, -4
  36 0002 86B0     		sub	sp, sp, #24
  37              		.cfi_def_cfa_offset 32
  38 0004 00AF     		add	r7, sp, #0
  39              		.cfi_def_cfa_register 7
  40 0006 F860     		str	r0, [r7, #12]
  41 0008 0B46     		mov	r3, r1
  42 000a 7A60     		str	r2, [r7, #4]
  43 000c 7B81     		strh	r3, [r7, #10]	@ movhi
  84:..\..\..\..\..\..\uCOS-III\Source/os_time.c ****     CPU_SR_ALLOC();
  44              		.loc 1 84 0
  45 000e 0023     		movs	r3, #0
  46 0010 7B61     		str	r3, [r7, #20]
  85:..\..\..\..\..\..\uCOS-III\Source/os_time.c **** 
  86:..\..\..\..\..\..\uCOS-III\Source/os_time.c **** 
  87:..\..\..\..\..\..\uCOS-III\Source/os_time.c **** 
  88:..\..\..\..\..\..\uCOS-III\Source/os_time.c **** #ifdef OS_SAFETY_CRITICAL
  89:..\..\..\..\..\..\uCOS-III\Source/os_time.c ****     if (p_err == (OS_ERR *)0) {
  90:..\..\..\..\..\..\uCOS-III\Source/os_time.c ****         OS_SAFETY_CRITICAL_EXCEPTION();
  91:..\..\..\..\..\..\uCOS-III\Source/os_time.c ****         return;
  92:..\..\..\..\..\..\uCOS-III\Source/os_time.c ****     }
  93:..\..\..\..\..\..\uCOS-III\Source/os_time.c **** #endif
  94:..\..\..\..\..\..\uCOS-III\Source/os_time.c **** 
  95:..\..\..\..\..\..\uCOS-III\Source/os_time.c **** #if OS_CFG_CALLED_FROM_ISR_CHK_EN > 0u
  96:..\..\..\..\..\..\uCOS-III\Source/os_time.c ****     if (OSIntNestingCtr > (OS_NESTING_CTR)0u) {             /* Not allowed to call from an ISR     
  47              		.loc 1 96 0
  48 0012 314B     		ldr	r3, .L14
  49 0014 1B78     		ldrb	r3, [r3]	@ zero_extendqisi2
  50 0016 002B     		cmp	r3, #0
  51 0018 04D0     		beq	.L2
  97:..\..\..\..\..\..\uCOS-III\Source/os_time.c ****        *p_err = OS_ERR_TIME_DLY_ISR;
  52              		.loc 1 97 0
  53 001a 7B68     		ldr	r3, [r7, #4]
  54 001c 47F27522 		movw	r2, #29301
  55 0020 1A80     		strh	r2, [r3]	@ movhi
  98:..\..\..\..\..\..\uCOS-III\Source/os_time.c ****         return;
  56              		.loc 1 98 0
  57 0022 55E0     		b	.L1
  58              	.L2:
  99:..\..\..\..\..\..\uCOS-III\Source/os_time.c ****     }
 100:..\..\..\..\..\..\uCOS-III\Source/os_time.c **** #endif
 101:..\..\..\..\..\..\uCOS-III\Source/os_time.c **** 
 102:..\..\..\..\..\..\uCOS-III\Source/os_time.c ****     if (OSSchedLockNestingCtr > (OS_NESTING_CTR)0u) {       /* Can't delay when the scheduler is lo
  59              		.loc 1 102 0
  60 0024 2D4B     		ldr	r3, .L14+4
  61 0026 1B78     		ldrb	r3, [r3]	@ zero_extendqisi2
  62 0028 002B     		cmp	r3, #0
  63 002a 04D0     		beq	.L4
 103:..\..\..\..\..\..\uCOS-III\Source/os_time.c ****        *p_err = OS_ERR_SCHED_LOCKED;
  64              		.loc 1 103 0
  65 002c 7B68     		ldr	r3, [r7, #4]
  66 002e 46F66352 		movw	r2, #28003
  67 0032 1A80     		strh	r2, [r3]	@ movhi
 104:..\..\..\..\..\..\uCOS-III\Source/os_time.c ****         return;
ARM GAS  C:\Users\alex\AppData\Local\Temp\cc8Lm9sh.s 			page 4


  68              		.loc 1 104 0
  69 0034 4CE0     		b	.L1
  70              	.L4:
 105:..\..\..\..\..\..\uCOS-III\Source/os_time.c ****     }
 106:..\..\..\..\..\..\uCOS-III\Source/os_time.c **** 
 107:..\..\..\..\..\..\uCOS-III\Source/os_time.c ****     switch (opt) {
  71              		.loc 1 107 0
  72 0036 7B89     		ldrh	r3, [r7, #10]
  73 0038 082B     		cmp	r3, #8
  74 003a 1DD8     		bhi	.L5
  75 003c 01A2     		adr	r2, .L7
  76 003e 52F823F0 		ldr	pc, [r2, r3, lsl #2]
  77 0042 00BF     		.p2align 2
  78              	.L7:
  79 0044 69000000 		.word	.L6+1
  80 0048 79000000 		.word	.L5+1
  81 004c 69000000 		.word	.L6+1
  82 0050 79000000 		.word	.L5+1
  83 0054 83000000 		.word	.L12+1
  84 0058 79000000 		.word	.L5+1
  85 005c 79000000 		.word	.L5+1
  86 0060 79000000 		.word	.L5+1
  87 0064 69000000 		.word	.L6+1
  88              		.p2align 1
  89              	.L6:
 108:..\..\..\..\..\..\uCOS-III\Source/os_time.c ****         case OS_OPT_TIME_DLY:
 109:..\..\..\..\..\..\uCOS-III\Source/os_time.c ****         case OS_OPT_TIME_TIMEOUT:
 110:..\..\..\..\..\..\uCOS-III\Source/os_time.c ****         case OS_OPT_TIME_PERIODIC:
 111:..\..\..\..\..\..\uCOS-III\Source/os_time.c ****              if (dly == (OS_TICK)0u) {                      /* 0 means no delay!                   
  90              		.loc 1 111 0
  91 0068 FB68     		ldr	r3, [r7, #12]
  92 006a 002B     		cmp	r3, #0
  93 006c 0BD1     		bne	.L13
 112:..\..\..\..\..\..\uCOS-III\Source/os_time.c ****                 *p_err = OS_ERR_TIME_ZERO_DLY;
  94              		.loc 1 112 0
  95 006e 7B68     		ldr	r3, [r7, #4]
  96 0070 47F27E22 		movw	r2, #29310
  97 0074 1A80     		strh	r2, [r3]	@ movhi
 113:..\..\..\..\..\..\uCOS-III\Source/os_time.c ****                  return;
  98              		.loc 1 113 0
  99 0076 2BE0     		b	.L1
 100              	.L5:
 114:..\..\..\..\..\..\uCOS-III\Source/os_time.c ****              }
 115:..\..\..\..\..\..\uCOS-III\Source/os_time.c ****              break;
 116:..\..\..\..\..\..\uCOS-III\Source/os_time.c **** 
 117:..\..\..\..\..\..\uCOS-III\Source/os_time.c ****         case OS_OPT_TIME_MATCH:
 118:..\..\..\..\..\..\uCOS-III\Source/os_time.c ****              break;
 119:..\..\..\..\..\..\uCOS-III\Source/os_time.c **** 
 120:..\..\..\..\..\..\uCOS-III\Source/os_time.c ****         default:
 121:..\..\..\..\..\..\uCOS-III\Source/os_time.c ****             *p_err = OS_ERR_OPT_INVALID;
 101              		.loc 1 121 0
 102 0078 7B68     		ldr	r3, [r7, #4]
 103 007a 45F62562 		movw	r2, #24101
 104 007e 1A80     		strh	r2, [r3]	@ movhi
 122:..\..\..\..\..\..\uCOS-III\Source/os_time.c ****              return;
 105              		.loc 1 122 0
 106 0080 26E0     		b	.L1
ARM GAS  C:\Users\alex\AppData\Local\Temp\cc8Lm9sh.s 			page 5


 107              	.L12:
 118:..\..\..\..\..\..\uCOS-III\Source/os_time.c **** 
 108              		.loc 1 118 0
 109 0082 00BF     		nop
 110 0084 00E0     		b	.L10
 111              	.L13:
 115:..\..\..\..\..\..\uCOS-III\Source/os_time.c **** 
 112              		.loc 1 115 0
 113 0086 00BF     		nop
 114              	.L10:
 123:..\..\..\..\..\..\uCOS-III\Source/os_time.c ****     }
 124:..\..\..\..\..\..\uCOS-III\Source/os_time.c **** 
 125:..\..\..\..\..\..\uCOS-III\Source/os_time.c ****     OS_CRITICAL_ENTER();
 115              		.loc 1 125 0
 116 0088 FFF7FEFF 		bl	CPU_SR_Save
 117 008c 7861     		str	r0, [r7, #20]
 126:..\..\..\..\..\..\uCOS-III\Source/os_time.c ****     OSTCBCurPtr->TaskState = OS_TASK_STATE_DLY;
 118              		.loc 1 126 0
 119 008e 144B     		ldr	r3, .L14+8
 120 0090 1B68     		ldr	r3, [r3]
 121 0092 0122     		movs	r2, #1
 122 0094 83F83620 		strb	r2, [r3, #54]
 127:..\..\..\..\..\..\uCOS-III\Source/os_time.c ****     OS_TickListInsert(OSTCBCurPtr,
 123              		.loc 1 127 0
 124 0098 114B     		ldr	r3, .L14+8
 125 009a 1868     		ldr	r0, [r3]
 126 009c 7A89     		ldrh	r2, [r7, #10]
 127 009e 7B68     		ldr	r3, [r7, #4]
 128 00a0 F968     		ldr	r1, [r7, #12]
 129 00a2 FFF7FEFF 		bl	OS_TickListInsert
 128:..\..\..\..\..\..\uCOS-III\Source/os_time.c ****                       dly,
 129:..\..\..\..\..\..\uCOS-III\Source/os_time.c ****                       opt,
 130:..\..\..\..\..\..\uCOS-III\Source/os_time.c ****                       p_err);
 131:..\..\..\..\..\..\uCOS-III\Source/os_time.c ****     if (*p_err != OS_ERR_NONE) {
 130              		.loc 1 131 0
 131 00a6 7B68     		ldr	r3, [r7, #4]
 132 00a8 1B88     		ldrh	r3, [r3]
 133 00aa 002B     		cmp	r3, #0
 134 00ac 03D0     		beq	.L11
 132:..\..\..\..\..\..\uCOS-III\Source/os_time.c ****          OS_CRITICAL_EXIT_NO_SCHED();
 135              		.loc 1 132 0
 136 00ae 7869     		ldr	r0, [r7, #20]
 137 00b0 FFF7FEFF 		bl	CPU_SR_Restore
 133:..\..\..\..\..\..\uCOS-III\Source/os_time.c ****          return;
 138              		.loc 1 133 0
 139 00b4 0CE0     		b	.L1
 140              	.L11:
 134:..\..\..\..\..\..\uCOS-III\Source/os_time.c ****     }
 135:..\..\..\..\..\..\uCOS-III\Source/os_time.c ****     OS_RdyListRemove(OSTCBCurPtr);                          /* Remove current task from ready list 
 141              		.loc 1 135 0
 142 00b6 0A4B     		ldr	r3, .L14+8
 143 00b8 1B68     		ldr	r3, [r3]
 144 00ba 1846     		mov	r0, r3
 145 00bc FFF7FEFF 		bl	OS_RdyListRemove
 136:..\..\..\..\..\..\uCOS-III\Source/os_time.c ****     OS_CRITICAL_EXIT_NO_SCHED();
 146              		.loc 1 136 0
 147 00c0 7869     		ldr	r0, [r7, #20]
ARM GAS  C:\Users\alex\AppData\Local\Temp\cc8Lm9sh.s 			page 6


 148 00c2 FFF7FEFF 		bl	CPU_SR_Restore
 137:..\..\..\..\..\..\uCOS-III\Source/os_time.c ****     OSSched();                                              /* Find next task to run!              
 149              		.loc 1 137 0
 150 00c6 FFF7FEFF 		bl	OSSched
 138:..\..\..\..\..\..\uCOS-III\Source/os_time.c ****    *p_err = OS_ERR_NONE;
 151              		.loc 1 138 0
 152 00ca 7B68     		ldr	r3, [r7, #4]
 153 00cc 0022     		movs	r2, #0
 154 00ce 1A80     		strh	r2, [r3]	@ movhi
 155              	.L1:
 139:..\..\..\..\..\..\uCOS-III\Source/os_time.c **** }
 156              		.loc 1 139 0
 157 00d0 1837     		adds	r7, r7, #24
 158              		.cfi_def_cfa_offset 8
 159 00d2 BD46     		mov	sp, r7
 160              		.cfi_def_cfa_register 13
 161              		@ sp needed
 162 00d4 80BD     		pop	{r7, pc}
 163              	.L15:
 164 00d6 00BF     		.align	2
 165              	.L14:
 166 00d8 00000000 		.word	OSIntNestingCtr
 167 00dc 00000000 		.word	OSSchedLockNestingCtr
 168 00e0 00000000 		.word	OSTCBCurPtr
 169              		.cfi_endproc
 170              	.LFE0:
 171              		.size	OSTimeDly, .-OSTimeDly
 172              		.section	.text.OSTimeDlyHMSM,"ax",%progbits
 173              		.align	2
 174              		.global	OSTimeDlyHMSM
 175              		.thumb
 176              		.thumb_func
 177              		.type	OSTimeDlyHMSM, %function
 178              	OSTimeDlyHMSM:
 179              	.LFB1:
 140:..\..\..\..\..\..\uCOS-III\Source/os_time.c **** 
 141:..\..\..\..\..\..\uCOS-III\Source/os_time.c **** /*$PAGE*/
 142:..\..\..\..\..\..\uCOS-III\Source/os_time.c **** /*
 143:..\..\..\..\..\..\uCOS-III\Source/os_time.c **** ***************************************************************************************************
 144:..\..\..\..\..\..\uCOS-III\Source/os_time.c **** *                                             DELAY TASK FOR SPECIFIED TIME
 145:..\..\..\..\..\..\uCOS-III\Source/os_time.c **** *
 146:..\..\..\..\..\..\uCOS-III\Source/os_time.c **** * Description: This function is called to delay execution of the currently running task until some 
 147:..\..\..\..\..\..\uCOS-III\Source/os_time.c **** *              call allows you to specify the delay time in HOURS, MINUTES, SECONDS and MILLISECOND
 148:..\..\..\..\..\..\uCOS-III\Source/os_time.c **** *
 149:..\..\..\..\..\..\uCOS-III\Source/os_time.c **** * Arguments  : hours     specifies the number of hours that the task will be delayed (max. is 999 i
 150:..\..\..\..\..\..\uCOS-III\Source/os_time.c **** *                        1000 Hz or less otherwise, a higher value would overflow a 32-bit unsigned
 151:..\..\..\..\..\..\uCOS-III\Source/os_time.c **** *
 152:..\..\..\..\..\..\uCOS-III\Source/os_time.c **** *              minutes   specifies the number of minutes (max. 59 if 'opt' is OS_OPT_TIME_HMSM_STRI
 153:..\..\..\..\..\..\uCOS-III\Source/os_time.c **** *
 154:..\..\..\..\..\..\uCOS-III\Source/os_time.c **** *              seconds   specifies the number of seconds (max. 59 if 'opt' is OS_OPT_TIME_HMSM_STRI
 155:..\..\..\..\..\..\uCOS-III\Source/os_time.c **** *
 156:..\..\..\..\..\..\uCOS-III\Source/os_time.c **** *              milli     specifies the number of milliseconds (max. 999 if 'opt' is OS_OPT_TIME_HMS
 157:..\..\..\..\..\..\uCOS-III\Source/os_time.c **** *
 158:..\..\..\..\..\..\uCOS-III\Source/os_time.c **** *              opt       specifies time delay bit-field options logically OR'd; default options mar
 159:..\..\..\..\..\..\uCOS-III\Source/os_time.c **** *
 160:..\..\..\..\..\..\uCOS-III\Source/os_time.c **** *                        *** OS_OPT_TIME_DLY        specifies a relative time from the current valu
 161:..\..\..\..\..\..\uCOS-III\Source/os_time.c **** *                            OS_OPT_TIME_TIMEOUT    same as OS_OPT_TIME_DLY.
ARM GAS  C:\Users\alex\AppData\Local\Temp\cc8Lm9sh.s 			page 7


 162:..\..\..\..\..\..\uCOS-III\Source/os_time.c **** *                            OS_OPT_TIME_MATCH      indicates that the delay specifies the absolute
 163:..\..\..\..\..\..\uCOS-III\Source/os_time.c **** *                                                   must reach before the task will be resumed.
 164:..\..\..\..\..\..\uCOS-III\Source/os_time.c **** *                            OS_OPT_TIME_PERIODIC   indicates that the delay specifies the periodic
 165:..\..\..\..\..\..\uCOS-III\Source/os_time.c **** *                                                   must reach before the task will be resumed.
 166:..\..\..\..\..\..\uCOS-III\Source/os_time.c **** *
 167:..\..\..\..\..\..\uCOS-III\Source/os_time.c **** *                        *** OS_OPT_TIME_HMSM_STRICT            strictly allow only hours        (0
 168:..\..\..\..\..\..\uCOS-III\Source/os_time.c **** *                                                                                   minutes      (0
 169:..\..\..\..\..\..\uCOS-III\Source/os_time.c **** *                                                                                   seconds      (0
 170:..\..\..\..\..\..\uCOS-III\Source/os_time.c **** *                                                                                   milliseconds (0
 171:..\..\..\..\..\..\uCOS-III\Source/os_time.c **** *                            OS_OPT_TIME_HMSM_NON_STRICT        allow any value of  hours        (0
 172:..\..\..\..\..\..\uCOS-III\Source/os_time.c **** *                                                                                   minutes      (0
 173:..\..\..\..\..\..\uCOS-III\Source/os_time.c **** *                                                                                   seconds      (0
 174:..\..\..\..\..\..\uCOS-III\Source/os_time.c **** *                                                                                   milliseconds (0
 175:..\..\..\..\..\..\uCOS-III\Source/os_time.c **** *
 176:..\..\..\..\..\..\uCOS-III\Source/os_time.c **** *              p_err     is a pointer to a variable that will receive an error code from this call.
 177:..\..\..\..\..\..\uCOS-III\Source/os_time.c **** *
 178:..\..\..\..\..\..\uCOS-III\Source/os_time.c **** *                            OS_ERR_NONE                        If the function returns from the de
 179:..\..\..\..\..\..\uCOS-III\Source/os_time.c **** *                            OS_ERR_OPT_INVALID                 If you specified an invalid option 
 180:..\..\..\..\..\..\uCOS-III\Source/os_time.c **** *                            OS_ERR_SCHED_LOCKED                Can't delay when the scheduler is l
 181:..\..\..\..\..\..\uCOS-III\Source/os_time.c **** *                            OS_ERR_TIME_DLY_ISR                If called from an ISR
 182:..\..\..\..\..\..\uCOS-III\Source/os_time.c **** *                            OS_ERR_TIME_INVALID_HOURS          If you didn't specify a valid value
 183:..\..\..\..\..\..\uCOS-III\Source/os_time.c **** *                            OS_ERR_TIME_INVALID_MINUTES        If you didn't specify a valid value
 184:..\..\..\..\..\..\uCOS-III\Source/os_time.c **** *                            OS_ERR_TIME_INVALID_SECONDS        If you didn't specify a valid value
 185:..\..\..\..\..\..\uCOS-III\Source/os_time.c **** *                            OS_ERR_TIME_INVALID_MILLISECONDS   If you didn't specify a valid value
 186:..\..\..\..\..\..\uCOS-III\Source/os_time.c **** *                            OS_ERR_TIME_ZERO_DLY               If hours, minutes, seconds and mill
 187:..\..\..\..\..\..\uCOS-III\Source/os_time.c **** *
 188:..\..\..\..\..\..\uCOS-III\Source/os_time.c **** * Returns    : none
 189:..\..\..\..\..\..\uCOS-III\Source/os_time.c **** *
 190:..\..\..\..\..\..\uCOS-III\Source/os_time.c **** * Note(s)    : 1) The resolution on the milliseconds depends on the tick rate.  For example, you ca
 191:..\..\..\..\..\..\uCOS-III\Source/os_time.c **** *                 if the ticker interrupts every 100 mS.  In this case, the delay would be set to 0
 192:..\..\..\..\..\..\uCOS-III\Source/os_time.c **** *                 is rounded to the nearest tick.
 193:..\..\..\..\..\..\uCOS-III\Source/os_time.c **** *
 194:..\..\..\..\..\..\uCOS-III\Source/os_time.c **** *              2) Although this function allows you to delay a task for many, many hours, it's not 
 195:..\..\..\..\..\..\uCOS-III\Source/os_time.c **** *                 a task to sleep for that long.
 196:..\..\..\..\..\..\uCOS-III\Source/os_time.c **** ***************************************************************************************************
 197:..\..\..\..\..\..\uCOS-III\Source/os_time.c **** */
 198:..\..\..\..\..\..\uCOS-III\Source/os_time.c **** 
 199:..\..\..\..\..\..\uCOS-III\Source/os_time.c **** #if OS_CFG_TIME_DLY_HMSM_EN > 0u
 200:..\..\..\..\..\..\uCOS-III\Source/os_time.c **** void  OSTimeDlyHMSM (CPU_INT16U   hours,
 201:..\..\..\..\..\..\uCOS-III\Source/os_time.c ****                      CPU_INT16U   minutes,
 202:..\..\..\..\..\..\uCOS-III\Source/os_time.c ****                      CPU_INT16U   seconds,
 203:..\..\..\..\..\..\uCOS-III\Source/os_time.c ****                      CPU_INT32U   milli,
 204:..\..\..\..\..\..\uCOS-III\Source/os_time.c ****                      OS_OPT       opt,
 205:..\..\..\..\..\..\uCOS-III\Source/os_time.c ****                      OS_ERR      *p_err)
 206:..\..\..\..\..\..\uCOS-III\Source/os_time.c **** {
 180              		.loc 1 206 0
 181              		.cfi_startproc
 182              		@ args = 8, pretend = 0, frame = 32
 183              		@ frame_needed = 1, uses_anonymous_args = 0
 184 0000 80B5     		push	{r7, lr}
 185              		.cfi_def_cfa_offset 8
 186              		.cfi_offset 7, -8
 187              		.cfi_offset 14, -4
 188 0002 88B0     		sub	sp, sp, #32
 189              		.cfi_def_cfa_offset 40
 190 0004 00AF     		add	r7, sp, #0
 191              		.cfi_def_cfa_register 7
ARM GAS  C:\Users\alex\AppData\Local\Temp\cc8Lm9sh.s 			page 8


 192 0006 7B60     		str	r3, [r7, #4]
 193 0008 0346     		mov	r3, r0	@ movhi
 194 000a FB81     		strh	r3, [r7, #14]	@ movhi
 195 000c 0B46     		mov	r3, r1	@ movhi
 196 000e BB81     		strh	r3, [r7, #12]	@ movhi
 197 0010 1346     		mov	r3, r2	@ movhi
 198 0012 7B81     		strh	r3, [r7, #10]	@ movhi
 207:..\..\..\..\..\..\uCOS-III\Source/os_time.c **** #if OS_CFG_ARG_CHK_EN > 0u
 208:..\..\..\..\..\..\uCOS-III\Source/os_time.c ****     CPU_BOOLEAN  opt_invalid;
 209:..\..\..\..\..\..\uCOS-III\Source/os_time.c ****     CPU_BOOLEAN  opt_non_strict;
 210:..\..\..\..\..\..\uCOS-III\Source/os_time.c **** #endif
 211:..\..\..\..\..\..\uCOS-III\Source/os_time.c ****     OS_OPT       opt_time;
 212:..\..\..\..\..\..\uCOS-III\Source/os_time.c ****     OS_RATE_HZ   tick_rate;
 213:..\..\..\..\..\..\uCOS-III\Source/os_time.c ****     OS_TICK      ticks;
 214:..\..\..\..\..\..\uCOS-III\Source/os_time.c ****     CPU_SR_ALLOC();
 199              		.loc 1 214 0
 200 0014 0023     		movs	r3, #0
 201 0016 FB61     		str	r3, [r7, #28]
 215:..\..\..\..\..\..\uCOS-III\Source/os_time.c **** 
 216:..\..\..\..\..\..\uCOS-III\Source/os_time.c **** 
 217:..\..\..\..\..\..\uCOS-III\Source/os_time.c **** 
 218:..\..\..\..\..\..\uCOS-III\Source/os_time.c **** #ifdef OS_SAFETY_CRITICAL
 219:..\..\..\..\..\..\uCOS-III\Source/os_time.c ****     if (p_err == (OS_ERR *)0) {
 220:..\..\..\..\..\..\uCOS-III\Source/os_time.c ****         OS_SAFETY_CRITICAL_EXCEPTION();
 221:..\..\..\..\..\..\uCOS-III\Source/os_time.c ****         return;
 222:..\..\..\..\..\..\uCOS-III\Source/os_time.c ****     }
 223:..\..\..\..\..\..\uCOS-III\Source/os_time.c **** #endif
 224:..\..\..\..\..\..\uCOS-III\Source/os_time.c **** 
 225:..\..\..\..\..\..\uCOS-III\Source/os_time.c **** #if OS_CFG_CALLED_FROM_ISR_CHK_EN > 0u
 226:..\..\..\..\..\..\uCOS-III\Source/os_time.c ****     if (OSIntNestingCtr > (OS_NESTING_CTR)0u) {             /* Not allowed to call from an ISR     
 202              		.loc 1 226 0
 203 0018 744B     		ldr	r3, .L39
 204 001a 1B78     		ldrb	r3, [r3]	@ zero_extendqisi2
 205 001c 002B     		cmp	r3, #0
 206 001e 04D0     		beq	.L17
 227:..\..\..\..\..\..\uCOS-III\Source/os_time.c ****        *p_err = OS_ERR_TIME_DLY_ISR;
 207              		.loc 1 227 0
 208 0020 FB6A     		ldr	r3, [r7, #44]
 209 0022 47F27522 		movw	r2, #29301
 210 0026 1A80     		strh	r2, [r3]	@ movhi
 228:..\..\..\..\..\..\uCOS-III\Source/os_time.c ****         return;
 211              		.loc 1 228 0
 212 0028 DDE0     		b	.L16
 213              	.L17:
 229:..\..\..\..\..\..\uCOS-III\Source/os_time.c ****     }
 230:..\..\..\..\..\..\uCOS-III\Source/os_time.c **** #endif
 231:..\..\..\..\..\..\uCOS-III\Source/os_time.c **** 
 232:..\..\..\..\..\..\uCOS-III\Source/os_time.c ****     if (OSSchedLockNestingCtr > (OS_NESTING_CTR)0u) {       /* Can't delay when the scheduler is lo
 214              		.loc 1 232 0
 215 002a 714B     		ldr	r3, .L39+4
 216 002c 1B78     		ldrb	r3, [r3]	@ zero_extendqisi2
 217 002e 002B     		cmp	r3, #0
 218 0030 04D0     		beq	.L19
 233:..\..\..\..\..\..\uCOS-III\Source/os_time.c ****        *p_err = OS_ERR_SCHED_LOCKED;
 219              		.loc 1 233 0
 220 0032 FB6A     		ldr	r3, [r7, #44]
 221 0034 46F66352 		movw	r2, #28003
ARM GAS  C:\Users\alex\AppData\Local\Temp\cc8Lm9sh.s 			page 9


 222 0038 1A80     		strh	r2, [r3]	@ movhi
 234:..\..\..\..\..\..\uCOS-III\Source/os_time.c ****         return;
 223              		.loc 1 234 0
 224 003a D4E0     		b	.L16
 225              	.L19:
 235:..\..\..\..\..\..\uCOS-III\Source/os_time.c ****     }
 236:..\..\..\..\..\..\uCOS-III\Source/os_time.c **** 
 237:..\..\..\..\..\..\uCOS-III\Source/os_time.c ****     opt_time = opt & OS_OPT_TIME_MASK;                      /* Retrieve time options only.         
 226              		.loc 1 237 0
 227 003c 3B8D     		ldrh	r3, [r7, #40]	@ movhi
 228 003e 03F00E03 		and	r3, r3, #14
 229 0042 7B83     		strh	r3, [r7, #26]	@ movhi
 238:..\..\..\..\..\..\uCOS-III\Source/os_time.c ****     switch (opt_time) {
 230              		.loc 1 238 0
 231 0044 7B8B     		ldrh	r3, [r7, #26]
 232 0046 082B     		cmp	r3, #8
 233 0048 25D8     		bhi	.L20
 234 004a 01A2     		adr	r2, .L22
 235 004c 52F823F0 		ldr	pc, [r2, r3, lsl #2]
 236              		.p2align 2
 237              	.L22:
 238 0050 75000000 		.word	.L21+1
 239 0054 97000000 		.word	.L20+1
 240 0058 75000000 		.word	.L21+1
 241 005c 97000000 		.word	.L20+1
 242 0060 A1000000 		.word	.L37+1
 243 0064 97000000 		.word	.L20+1
 244 0068 97000000 		.word	.L20+1
 245 006c 97000000 		.word	.L20+1
 246 0070 75000000 		.word	.L21+1
 247              		.p2align 1
 248              	.L21:
 239:..\..\..\..\..\..\uCOS-III\Source/os_time.c ****         case OS_OPT_TIME_DLY:
 240:..\..\..\..\..\..\uCOS-III\Source/os_time.c ****         case OS_OPT_TIME_TIMEOUT:
 241:..\..\..\..\..\..\uCOS-III\Source/os_time.c ****         case OS_OPT_TIME_PERIODIC:
 242:..\..\..\..\..\..\uCOS-III\Source/os_time.c ****              if (milli == (CPU_INT32U)0u) {                 /* Make sure we didn't specify a 0 dela
 249              		.loc 1 242 0
 250 0074 7B68     		ldr	r3, [r7, #4]
 251 0076 002B     		cmp	r3, #0
 252 0078 14D1     		bne	.L38
 243:..\..\..\..\..\..\uCOS-III\Source/os_time.c ****                  if (seconds == (CPU_INT16U)0u) {
 253              		.loc 1 243 0
 254 007a 7B89     		ldrh	r3, [r7, #10]
 255 007c 002B     		cmp	r3, #0
 256 007e 11D1     		bne	.L38
 244:..\..\..\..\..\..\uCOS-III\Source/os_time.c ****                      if (minutes == (CPU_INT16U)0u) {
 257              		.loc 1 244 0
 258 0080 BB89     		ldrh	r3, [r7, #12]
 259 0082 002B     		cmp	r3, #0
 260 0084 0ED1     		bne	.L38
 245:..\..\..\..\..\..\uCOS-III\Source/os_time.c ****                          if (hours == (CPU_INT16U)0u) {
 261              		.loc 1 245 0
 262 0086 FB89     		ldrh	r3, [r7, #14]
 263 0088 002B     		cmp	r3, #0
 264 008a 0BD1     		bne	.L38
 246:..\..\..\..\..\..\uCOS-III\Source/os_time.c ****                             *p_err = OS_ERR_TIME_ZERO_DLY;
 265              		.loc 1 246 0
ARM GAS  C:\Users\alex\AppData\Local\Temp\cc8Lm9sh.s 			page 10


 266 008c FB6A     		ldr	r3, [r7, #44]
 267 008e 47F27E22 		movw	r2, #29310
 268 0092 1A80     		strh	r2, [r3]	@ movhi
 247:..\..\..\..\..\..\uCOS-III\Source/os_time.c ****                              return;
 269              		.loc 1 247 0
 270 0094 A7E0     		b	.L16
 271              	.L20:
 248:..\..\..\..\..\..\uCOS-III\Source/os_time.c ****                          }
 249:..\..\..\..\..\..\uCOS-III\Source/os_time.c ****                      }
 250:..\..\..\..\..\..\uCOS-III\Source/os_time.c ****                  }
 251:..\..\..\..\..\..\uCOS-III\Source/os_time.c ****              }
 252:..\..\..\..\..\..\uCOS-III\Source/os_time.c ****              break;
 253:..\..\..\..\..\..\uCOS-III\Source/os_time.c **** 
 254:..\..\..\..\..\..\uCOS-III\Source/os_time.c ****         case OS_OPT_TIME_MATCH:
 255:..\..\..\..\..\..\uCOS-III\Source/os_time.c ****              break;
 256:..\..\..\..\..\..\uCOS-III\Source/os_time.c **** 
 257:..\..\..\..\..\..\uCOS-III\Source/os_time.c ****         default:
 258:..\..\..\..\..\..\uCOS-III\Source/os_time.c ****             *p_err = OS_ERR_OPT_INVALID;
 272              		.loc 1 258 0
 273 0096 FB6A     		ldr	r3, [r7, #44]
 274 0098 45F62562 		movw	r2, #24101
 275 009c 1A80     		strh	r2, [r3]	@ movhi
 259:..\..\..\..\..\..\uCOS-III\Source/os_time.c ****              return;
 276              		.loc 1 259 0
 277 009e A2E0     		b	.L16
 278              	.L37:
 255:..\..\..\..\..\..\uCOS-III\Source/os_time.c **** 
 279              		.loc 1 255 0
 280 00a0 00BF     		nop
 281 00a2 00E0     		b	.L25
 282              	.L38:
 252:..\..\..\..\..\..\uCOS-III\Source/os_time.c **** 
 283              		.loc 1 252 0
 284 00a4 00BF     		nop
 285              	.L25:
 260:..\..\..\..\..\..\uCOS-III\Source/os_time.c ****     }
 261:..\..\..\..\..\..\uCOS-III\Source/os_time.c **** 
 262:..\..\..\..\..\..\uCOS-III\Source/os_time.c **** #if OS_CFG_ARG_CHK_EN > 0u                                  /* Validate arguments to be within rang
 263:..\..\..\..\..\..\uCOS-III\Source/os_time.c ****     opt_invalid = DEF_BIT_IS_SET_ANY(opt, ~OS_OPT_TIME_OPTS_MASK);
 286              		.loc 1 263 0
 287 00a6 3B8D     		ldrh	r3, [r7, #40]
 288 00a8 23F01E03 		bic	r3, r3, #30
 289 00ac 002B     		cmp	r3, #0
 290 00ae 14BF     		ite	ne
 291 00b0 0123     		movne	r3, #1
 292 00b2 0023     		moveq	r3, #0
 293 00b4 DBB2     		uxtb	r3, r3
 294 00b6 7B76     		strb	r3, [r7, #25]
 264:..\..\..\..\..\..\uCOS-III\Source/os_time.c ****     if (opt_invalid == DEF_YES) {
 295              		.loc 1 264 0
 296 00b8 7B7E     		ldrb	r3, [r7, #25]	@ zero_extendqisi2
 297 00ba 012B     		cmp	r3, #1
 298 00bc 04D1     		bne	.L26
 265:..\..\..\..\..\..\uCOS-III\Source/os_time.c ****        *p_err = OS_ERR_OPT_INVALID;
 299              		.loc 1 265 0
 300 00be FB6A     		ldr	r3, [r7, #44]
 301 00c0 45F62562 		movw	r2, #24101
ARM GAS  C:\Users\alex\AppData\Local\Temp\cc8Lm9sh.s 			page 11


 302 00c4 1A80     		strh	r2, [r3]	@ movhi
 266:..\..\..\..\..\..\uCOS-III\Source/os_time.c ****         return;
 303              		.loc 1 266 0
 304 00c6 8EE0     		b	.L16
 305              	.L26:
 267:..\..\..\..\..\..\uCOS-III\Source/os_time.c ****     }
 268:..\..\..\..\..\..\uCOS-III\Source/os_time.c **** 
 269:..\..\..\..\..\..\uCOS-III\Source/os_time.c ****     opt_non_strict = DEF_BIT_IS_SET(opt, OS_OPT_TIME_HMSM_NON_STRICT);
 306              		.loc 1 269 0
 307 00c8 3B8D     		ldrh	r3, [r7, #40]
 308 00ca 03F01003 		and	r3, r3, #16
 309 00ce 002B     		cmp	r3, #0
 310 00d0 01D0     		beq	.L27
 311              		.loc 1 269 0 is_stmt 0 discriminator 1
 312 00d2 0123     		movs	r3, #1
 313 00d4 00E0     		b	.L28
 314              	.L27:
 315              		.loc 1 269 0 discriminator 2
 316 00d6 0023     		movs	r3, #0
 317              	.L28:
 318              		.loc 1 269 0 discriminator 4
 319 00d8 3B76     		strb	r3, [r7, #24]
 270:..\..\..\..\..\..\uCOS-III\Source/os_time.c ****     if (opt_non_strict != DEF_YES) {
 320              		.loc 1 270 0 is_stmt 1 discriminator 4
 321 00da 3B7E     		ldrb	r3, [r7, #24]	@ zero_extendqisi2
 322 00dc 012B     		cmp	r3, #1
 323 00de 20D0     		beq	.L29
 271:..\..\..\..\..\..\uCOS-III\Source/os_time.c ****          if (milli   > (CPU_INT32U)999u) {
 324              		.loc 1 271 0
 325 00e0 7B68     		ldr	r3, [r7, #4]
 326 00e2 B3F57A7F 		cmp	r3, #1000
 327 00e6 04D3     		bcc	.L30
 272:..\..\..\..\..\..\uCOS-III\Source/os_time.c ****             *p_err = OS_ERR_TIME_INVALID_MILLISECONDS;
 328              		.loc 1 272 0
 329 00e8 FB6A     		ldr	r3, [r7, #44]
 330 00ea 47F27B22 		movw	r2, #29307
 331 00ee 1A80     		strh	r2, [r3]	@ movhi
 273:..\..\..\..\..\..\uCOS-III\Source/os_time.c ****              return;
 332              		.loc 1 273 0
 333 00f0 79E0     		b	.L16
 334              	.L30:
 274:..\..\..\..\..\..\uCOS-III\Source/os_time.c ****          }
 275:..\..\..\..\..\..\uCOS-III\Source/os_time.c ****          if (seconds > (CPU_INT16U)59u) {
 335              		.loc 1 275 0
 336 00f2 7B89     		ldrh	r3, [r7, #10]
 337 00f4 3B2B     		cmp	r3, #59
 338 00f6 04D9     		bls	.L31
 276:..\..\..\..\..\..\uCOS-III\Source/os_time.c ****             *p_err = OS_ERR_TIME_INVALID_SECONDS;
 339              		.loc 1 276 0
 340 00f8 FB6A     		ldr	r3, [r7, #44]
 341 00fa 47F27A22 		movw	r2, #29306
 342 00fe 1A80     		strh	r2, [r3]	@ movhi
 277:..\..\..\..\..\..\uCOS-III\Source/os_time.c ****              return;
 343              		.loc 1 277 0
 344 0100 71E0     		b	.L16
 345              	.L31:
 278:..\..\..\..\..\..\uCOS-III\Source/os_time.c ****          }
ARM GAS  C:\Users\alex\AppData\Local\Temp\cc8Lm9sh.s 			page 12


 279:..\..\..\..\..\..\uCOS-III\Source/os_time.c ****          if (minutes > (CPU_INT16U)59u) {
 346              		.loc 1 279 0
 347 0102 BB89     		ldrh	r3, [r7, #12]
 348 0104 3B2B     		cmp	r3, #59
 349 0106 04D9     		bls	.L32
 280:..\..\..\..\..\..\uCOS-III\Source/os_time.c ****             *p_err = OS_ERR_TIME_INVALID_MINUTES;
 350              		.loc 1 280 0
 351 0108 FB6A     		ldr	r3, [r7, #44]
 352 010a 47F27922 		movw	r2, #29305
 353 010e 1A80     		strh	r2, [r3]	@ movhi
 281:..\..\..\..\..\..\uCOS-III\Source/os_time.c ****              return;
 354              		.loc 1 281 0
 355 0110 69E0     		b	.L16
 356              	.L32:
 282:..\..\..\..\..\..\uCOS-III\Source/os_time.c ****          }
 283:..\..\..\..\..\..\uCOS-III\Source/os_time.c ****          if (hours   > (CPU_INT16U)99u) {
 357              		.loc 1 283 0
 358 0112 FB89     		ldrh	r3, [r7, #14]
 359 0114 632B     		cmp	r3, #99
 360 0116 17D9     		bls	.L33
 284:..\..\..\..\..\..\uCOS-III\Source/os_time.c ****             *p_err = OS_ERR_TIME_INVALID_HOURS;
 361              		.loc 1 284 0
 362 0118 FB6A     		ldr	r3, [r7, #44]
 363 011a 47F27822 		movw	r2, #29304
 364 011e 1A80     		strh	r2, [r3]	@ movhi
 285:..\..\..\..\..\..\uCOS-III\Source/os_time.c ****              return;
 365              		.loc 1 285 0
 366 0120 61E0     		b	.L16
 367              	.L29:
 286:..\..\..\..\..\..\uCOS-III\Source/os_time.c ****          }
 287:..\..\..\..\..\..\uCOS-III\Source/os_time.c ****     } else {
 288:..\..\..\..\..\..\uCOS-III\Source/os_time.c ****          if (minutes > (CPU_INT16U)9999u) {
 368              		.loc 1 288 0
 369 0122 BB89     		ldrh	r3, [r7, #12]
 370 0124 42F20F72 		movw	r2, #9999
 371 0128 9342     		cmp	r3, r2
 372 012a 04D9     		bls	.L34
 289:..\..\..\..\..\..\uCOS-III\Source/os_time.c ****             *p_err = OS_ERR_TIME_INVALID_MINUTES;
 373              		.loc 1 289 0
 374 012c FB6A     		ldr	r3, [r7, #44]
 375 012e 47F27922 		movw	r2, #29305
 376 0132 1A80     		strh	r2, [r3]	@ movhi
 290:..\..\..\..\..\..\uCOS-III\Source/os_time.c ****              return;
 377              		.loc 1 290 0
 378 0134 57E0     		b	.L16
 379              	.L34:
 291:..\..\..\..\..\..\uCOS-III\Source/os_time.c ****          }
 292:..\..\..\..\..\..\uCOS-III\Source/os_time.c ****          if (hours   > (CPU_INT16U)999u) {
 380              		.loc 1 292 0
 381 0136 FB89     		ldrh	r3, [r7, #14]
 382 0138 B3F57A7F 		cmp	r3, #1000
 383 013c 04D3     		bcc	.L33
 293:..\..\..\..\..\..\uCOS-III\Source/os_time.c ****             *p_err = OS_ERR_TIME_INVALID_HOURS;
 384              		.loc 1 293 0
 385 013e FB6A     		ldr	r3, [r7, #44]
 386 0140 47F27822 		movw	r2, #29304
 387 0144 1A80     		strh	r2, [r3]	@ movhi
ARM GAS  C:\Users\alex\AppData\Local\Temp\cc8Lm9sh.s 			page 13


 294:..\..\..\..\..\..\uCOS-III\Source/os_time.c ****              return;
 388              		.loc 1 294 0
 389 0146 4EE0     		b	.L16
 390              	.L33:
 295:..\..\..\..\..\..\uCOS-III\Source/os_time.c ****          }
 296:..\..\..\..\..\..\uCOS-III\Source/os_time.c ****     }
 297:..\..\..\..\..\..\uCOS-III\Source/os_time.c **** #endif
 298:..\..\..\..\..\..\uCOS-III\Source/os_time.c **** 
 299:..\..\..\..\..\..\uCOS-III\Source/os_time.c ****                                                             /* Compute the total number of clock ti
 300:..\..\..\..\..\..\uCOS-III\Source/os_time.c ****                                                             /* .. (rounded to the nearest tick)    
 301:..\..\..\..\..\..\uCOS-III\Source/os_time.c ****     tick_rate = OSCfg_TickRate_Hz;
 391              		.loc 1 301 0
 392 0148 2A4B     		ldr	r3, .L39+8
 393 014a 1B68     		ldr	r3, [r3]
 394 014c 7B61     		str	r3, [r7, #20]
 302:..\..\..\..\..\..\uCOS-III\Source/os_time.c ****     ticks     = ((OS_TICK)hours * (OS_TICK)3600u + (OS_TICK)minutes * (OS_TICK)60u + (OS_TICK)secon
 395              		.loc 1 302 0
 396 014e FB89     		ldrh	r3, [r7, #14]
 397 0150 4FF46162 		mov	r2, #3600
 398 0154 02FB03F1 		mul	r1, r2, r3
 399 0158 BA89     		ldrh	r2, [r7, #12]
 400 015a 1346     		mov	r3, r2
 401 015c 1B01     		lsls	r3, r3, #4
 402 015e 9B1A     		subs	r3, r3, r2
 403 0160 9B00     		lsls	r3, r3, #2
 404 0162 CA18     		adds	r2, r1, r3
 405 0164 7B89     		ldrh	r3, [r7, #10]
 406 0166 1344     		add	r3, r3, r2
 407 0168 7A69     		ldr	r2, [r7, #20]
 408 016a 02FB03F2 		mul	r2, r2, r3
 303:..\..\..\..\..\..\uCOS-III\Source/os_time.c ****               + (tick_rate * ((OS_TICK)milli + (OS_TICK)500u / tick_rate)) / (OS_TICK)1000u;
 409              		.loc 1 303 0
 410 016e 4FF4FA71 		mov	r1, #500
 411 0172 7B69     		ldr	r3, [r7, #20]
 412 0174 B1FBF3F1 		udiv	r1, r1, r3
 413 0178 7B68     		ldr	r3, [r7, #4]
 414 017a 0B44     		add	r3, r3, r1
 415 017c 7969     		ldr	r1, [r7, #20]
 416 017e 01FB03F3 		mul	r3, r1, r3
 417 0182 1D49     		ldr	r1, .L39+12
 418 0184 A1FB0313 		umull	r1, r3, r1, r3
 419 0188 9B09     		lsrs	r3, r3, #6
 302:..\..\..\..\..\..\uCOS-III\Source/os_time.c ****     ticks     = ((OS_TICK)hours * (OS_TICK)3600u + (OS_TICK)minutes * (OS_TICK)60u + (OS_TICK)secon
 420              		.loc 1 302 0
 421 018a 1344     		add	r3, r3, r2
 422 018c 3B61     		str	r3, [r7, #16]
 304:..\..\..\..\..\..\uCOS-III\Source/os_time.c **** 
 305:..\..\..\..\..\..\uCOS-III\Source/os_time.c ****     if (ticks > (OS_TICK)0u) {
 423              		.loc 1 305 0
 424 018e 3B69     		ldr	r3, [r7, #16]
 425 0190 002B     		cmp	r3, #0
 426 0192 24D0     		beq	.L35
 306:..\..\..\..\..\..\uCOS-III\Source/os_time.c ****         OS_CRITICAL_ENTER();
 427              		.loc 1 306 0
 428 0194 FFF7FEFF 		bl	CPU_SR_Save
 429 0198 F861     		str	r0, [r7, #28]
 307:..\..\..\..\..\..\uCOS-III\Source/os_time.c ****         OSTCBCurPtr->TaskState = OS_TASK_STATE_DLY;
ARM GAS  C:\Users\alex\AppData\Local\Temp\cc8Lm9sh.s 			page 14


 430              		.loc 1 307 0
 431 019a 184B     		ldr	r3, .L39+16
 432 019c 1B68     		ldr	r3, [r3]
 433 019e 0122     		movs	r2, #1
 434 01a0 83F83620 		strb	r2, [r3, #54]
 308:..\..\..\..\..\..\uCOS-III\Source/os_time.c ****         OS_TickListInsert(OSTCBCurPtr,
 435              		.loc 1 308 0
 436 01a4 154B     		ldr	r3, .L39+16
 437 01a6 1868     		ldr	r0, [r3]
 438 01a8 7A8B     		ldrh	r2, [r7, #26]
 439 01aa FB6A     		ldr	r3, [r7, #44]
 440 01ac 3969     		ldr	r1, [r7, #16]
 441 01ae FFF7FEFF 		bl	OS_TickListInsert
 309:..\..\..\..\..\..\uCOS-III\Source/os_time.c ****                           ticks,
 310:..\..\..\..\..\..\uCOS-III\Source/os_time.c ****                           opt_time,
 311:..\..\..\..\..\..\uCOS-III\Source/os_time.c ****                           p_err);
 312:..\..\..\..\..\..\uCOS-III\Source/os_time.c ****         if (*p_err != OS_ERR_NONE) {
 442              		.loc 1 312 0
 443 01b2 FB6A     		ldr	r3, [r7, #44]
 444 01b4 1B88     		ldrh	r3, [r3]
 445 01b6 002B     		cmp	r3, #0
 446 01b8 03D0     		beq	.L36
 313:..\..\..\..\..\..\uCOS-III\Source/os_time.c ****              OS_CRITICAL_EXIT_NO_SCHED();
 447              		.loc 1 313 0
 448 01ba F869     		ldr	r0, [r7, #28]
 449 01bc FFF7FEFF 		bl	CPU_SR_Restore
 314:..\..\..\..\..\..\uCOS-III\Source/os_time.c ****              return;
 450              		.loc 1 314 0
 451 01c0 11E0     		b	.L16
 452              	.L36:
 315:..\..\..\..\..\..\uCOS-III\Source/os_time.c ****         }
 316:..\..\..\..\..\..\uCOS-III\Source/os_time.c ****         OS_RdyListRemove(OSTCBCurPtr);                      /* Remove current task from ready list 
 453              		.loc 1 316 0
 454 01c2 0E4B     		ldr	r3, .L39+16
 455 01c4 1B68     		ldr	r3, [r3]
 456 01c6 1846     		mov	r0, r3
 457 01c8 FFF7FEFF 		bl	OS_RdyListRemove
 317:..\..\..\..\..\..\uCOS-III\Source/os_time.c ****         OS_CRITICAL_EXIT_NO_SCHED();
 458              		.loc 1 317 0
 459 01cc F869     		ldr	r0, [r7, #28]
 460 01ce FFF7FEFF 		bl	CPU_SR_Restore
 318:..\..\..\..\..\..\uCOS-III\Source/os_time.c ****         OSSched();                                          /* Find next task to run!              
 461              		.loc 1 318 0
 462 01d2 FFF7FEFF 		bl	OSSched
 319:..\..\..\..\..\..\uCOS-III\Source/os_time.c ****        *p_err = OS_ERR_NONE;
 463              		.loc 1 319 0
 464 01d6 FB6A     		ldr	r3, [r7, #44]
 465 01d8 0022     		movs	r2, #0
 466 01da 1A80     		strh	r2, [r3]	@ movhi
 467 01dc 03E0     		b	.L16
 468              	.L35:
 320:..\..\..\..\..\..\uCOS-III\Source/os_time.c ****     } else {
 321:..\..\..\..\..\..\uCOS-III\Source/os_time.c ****        *p_err = OS_ERR_TIME_ZERO_DLY;
 469              		.loc 1 321 0
 470 01de FB6A     		ldr	r3, [r7, #44]
 471 01e0 47F27E22 		movw	r2, #29310
 472 01e4 1A80     		strh	r2, [r3]	@ movhi
ARM GAS  C:\Users\alex\AppData\Local\Temp\cc8Lm9sh.s 			page 15


 473              	.L16:
 322:..\..\..\..\..\..\uCOS-III\Source/os_time.c ****     }
 323:..\..\..\..\..\..\uCOS-III\Source/os_time.c **** }
 474              		.loc 1 323 0
 475 01e6 2037     		adds	r7, r7, #32
 476              		.cfi_def_cfa_offset 8
 477 01e8 BD46     		mov	sp, r7
 478              		.cfi_def_cfa_register 13
 479              		@ sp needed
 480 01ea 80BD     		pop	{r7, pc}
 481              	.L40:
 482              		.align	2
 483              	.L39:
 484 01ec 00000000 		.word	OSIntNestingCtr
 485 01f0 00000000 		.word	OSSchedLockNestingCtr
 486 01f4 00000000 		.word	OSCfg_TickRate_Hz
 487 01f8 D34D6210 		.word	274877907
 488 01fc 00000000 		.word	OSTCBCurPtr
 489              		.cfi_endproc
 490              	.LFE1:
 491              		.size	OSTimeDlyHMSM, .-OSTimeDlyHMSM
 492              		.section	.text.OSTimeDlyResume,"ax",%progbits
 493              		.align	2
 494              		.global	OSTimeDlyResume
 495              		.thumb
 496              		.thumb_func
 497              		.type	OSTimeDlyResume, %function
 498              	OSTimeDlyResume:
 499              	.LFB2:
 324:..\..\..\..\..\..\uCOS-III\Source/os_time.c **** #endif
 325:..\..\..\..\..\..\uCOS-III\Source/os_time.c **** /*$PAGE*/
 326:..\..\..\..\..\..\uCOS-III\Source/os_time.c **** /*
 327:..\..\..\..\..\..\uCOS-III\Source/os_time.c **** ***************************************************************************************************
 328:..\..\..\..\..\..\uCOS-III\Source/os_time.c **** *                                                RESUME A DELAYED TASK
 329:..\..\..\..\..\..\uCOS-III\Source/os_time.c **** *
 330:..\..\..\..\..\..\uCOS-III\Source/os_time.c **** * Description: This function is used resume a task that has been delayed through a call to either O
 331:..\..\..\..\..\..\uCOS-III\Source/os_time.c **** *              OSTimeDlyHMSM().  Note that cannot call this function to resume a task that is waiti
 332:..\..\..\..\..\..\uCOS-III\Source/os_time.c **** *              with timeout.
 333:..\..\..\..\..\..\uCOS-III\Source/os_time.c **** *
 334:..\..\..\..\..\..\uCOS-III\Source/os_time.c **** * Arguments  : p_tcb    is a pointer to the TCB of the task to resume.
 335:..\..\..\..\..\..\uCOS-III\Source/os_time.c **** *
 336:..\..\..\..\..\..\uCOS-III\Source/os_time.c **** *              p_err    is a pointer to a variable that will receive an error code
 337:..\..\..\..\..\..\uCOS-III\Source/os_time.c **** *
 338:..\..\..\..\..\..\uCOS-III\Source/os_time.c **** *                           OS_ERR_NONE                  Task has been resumed
 339:..\..\..\..\..\..\uCOS-III\Source/os_time.c **** *                           OS_ERR_STATE_INVALID         Task is in an invalid state
 340:..\..\..\..\..\..\uCOS-III\Source/os_time.c **** *                           OS_ERR_TIME_DLY_RESUME_ISR   If called from an ISR
 341:..\..\..\..\..\..\uCOS-III\Source/os_time.c **** *                           OS_ERR_TIME_NOT_DLY          Task is not waiting for time to expire
 342:..\..\..\..\..\..\uCOS-III\Source/os_time.c **** *                           OS_ERR_TASK_SUSPENDED        Task cannot be resumed, it was suspended b
 343:..\..\..\..\..\..\uCOS-III\Source/os_time.c **** *
 344:..\..\..\..\..\..\uCOS-III\Source/os_time.c **** * Note(s)    : none
 345:..\..\..\..\..\..\uCOS-III\Source/os_time.c **** ***************************************************************************************************
 346:..\..\..\..\..\..\uCOS-III\Source/os_time.c **** */
 347:..\..\..\..\..\..\uCOS-III\Source/os_time.c **** 
 348:..\..\..\..\..\..\uCOS-III\Source/os_time.c **** #if OS_CFG_TIME_DLY_RESUME_EN > 0u
 349:..\..\..\..\..\..\uCOS-III\Source/os_time.c **** void  OSTimeDlyResume (OS_TCB  *p_tcb,
 350:..\..\..\..\..\..\uCOS-III\Source/os_time.c ****                        OS_ERR  *p_err)
 351:..\..\..\..\..\..\uCOS-III\Source/os_time.c **** {
ARM GAS  C:\Users\alex\AppData\Local\Temp\cc8Lm9sh.s 			page 16


 500              		.loc 1 351 0
 501              		.cfi_startproc
 502              		@ args = 0, pretend = 0, frame = 16
 503              		@ frame_needed = 1, uses_anonymous_args = 0
 504 0000 80B5     		push	{r7, lr}
 505              		.cfi_def_cfa_offset 8
 506              		.cfi_offset 7, -8
 507              		.cfi_offset 14, -4
 508 0002 84B0     		sub	sp, sp, #16
 509              		.cfi_def_cfa_offset 24
 510 0004 00AF     		add	r7, sp, #0
 511              		.cfi_def_cfa_register 7
 512 0006 7860     		str	r0, [r7, #4]
 513 0008 3960     		str	r1, [r7]
 352:..\..\..\..\..\..\uCOS-III\Source/os_time.c ****     CPU_SR_ALLOC();
 514              		.loc 1 352 0
 515 000a 0023     		movs	r3, #0
 516 000c FB60     		str	r3, [r7, #12]
 353:..\..\..\..\..\..\uCOS-III\Source/os_time.c **** 
 354:..\..\..\..\..\..\uCOS-III\Source/os_time.c **** 
 355:..\..\..\..\..\..\uCOS-III\Source/os_time.c **** 
 356:..\..\..\..\..\..\uCOS-III\Source/os_time.c **** #ifdef OS_SAFETY_CRITICAL
 357:..\..\..\..\..\..\uCOS-III\Source/os_time.c ****     if (p_err == (OS_ERR *)0) {
 358:..\..\..\..\..\..\uCOS-III\Source/os_time.c ****         OS_SAFETY_CRITICAL_EXCEPTION();
 359:..\..\..\..\..\..\uCOS-III\Source/os_time.c ****         return;
 360:..\..\..\..\..\..\uCOS-III\Source/os_time.c ****     }
 361:..\..\..\..\..\..\uCOS-III\Source/os_time.c **** #endif
 362:..\..\..\..\..\..\uCOS-III\Source/os_time.c **** 
 363:..\..\..\..\..\..\uCOS-III\Source/os_time.c **** #if OS_CFG_CALLED_FROM_ISR_CHK_EN > 0u
 364:..\..\..\..\..\..\uCOS-III\Source/os_time.c ****     if (OSIntNestingCtr > (OS_NESTING_CTR)0u) {             /* Not allowed to call from an ISR     
 517              		.loc 1 364 0
 518 000e 4B4B     		ldr	r3, .L57
 519 0010 1B78     		ldrb	r3, [r3]	@ zero_extendqisi2
 520 0012 002B     		cmp	r3, #0
 521 0014 04D0     		beq	.L42
 365:..\..\..\..\..\..\uCOS-III\Source/os_time.c ****        *p_err = OS_ERR_TIME_DLY_RESUME_ISR;
 522              		.loc 1 365 0
 523 0016 3B68     		ldr	r3, [r7]
 524 0018 47F27622 		movw	r2, #29302
 525 001c 1A80     		strh	r2, [r3]	@ movhi
 366:..\..\..\..\..\..\uCOS-III\Source/os_time.c ****         return;
 526              		.loc 1 366 0
 527 001e 89E0     		b	.L41
 528              	.L42:
 367:..\..\..\..\..\..\uCOS-III\Source/os_time.c ****     }
 368:..\..\..\..\..\..\uCOS-III\Source/os_time.c **** #endif
 369:..\..\..\..\..\..\uCOS-III\Source/os_time.c **** 
 370:..\..\..\..\..\..\uCOS-III\Source/os_time.c **** #if OS_CFG_ARG_CHK_EN > 0u
 371:..\..\..\..\..\..\uCOS-III\Source/os_time.c ****     if (p_tcb == (OS_TCB *)0) {                             /* Not possible for the running task to
 529              		.loc 1 371 0
 530 0020 7B68     		ldr	r3, [r7, #4]
 531 0022 002B     		cmp	r3, #0
 532 0024 04D1     		bne	.L44
 372:..\..\..\..\..\..\uCOS-III\Source/os_time.c ****        *p_err = OS_ERR_TASK_NOT_DLY;
 533              		.loc 1 372 0
 534 0026 3B68     		ldr	r3, [r7]
 535 0028 47F25112 		movw	r2, #29009
ARM GAS  C:\Users\alex\AppData\Local\Temp\cc8Lm9sh.s 			page 17


 536 002c 1A80     		strh	r2, [r3]	@ movhi
 373:..\..\..\..\..\..\uCOS-III\Source/os_time.c ****         return;
 537              		.loc 1 373 0
 538 002e 81E0     		b	.L41
 539              	.L44:
 374:..\..\..\..\..\..\uCOS-III\Source/os_time.c ****     }
 375:..\..\..\..\..\..\uCOS-III\Source/os_time.c **** #endif
 376:..\..\..\..\..\..\uCOS-III\Source/os_time.c **** 
 377:..\..\..\..\..\..\uCOS-III\Source/os_time.c ****     CPU_CRITICAL_ENTER();
 540              		.loc 1 377 0
 541 0030 FFF7FEFF 		bl	CPU_SR_Save
 542 0034 F860     		str	r0, [r7, #12]
 378:..\..\..\..\..\..\uCOS-III\Source/os_time.c ****     if (p_tcb == OSTCBCurPtr) {                             /* Not possible for the running task to
 543              		.loc 1 378 0
 544 0036 424B     		ldr	r3, .L57+4
 545 0038 1B68     		ldr	r3, [r3]
 546 003a 7A68     		ldr	r2, [r7, #4]
 547 003c 9A42     		cmp	r2, r3
 548 003e 07D1     		bne	.L45
 379:..\..\..\..\..\..\uCOS-III\Source/os_time.c ****        *p_err = OS_ERR_TASK_NOT_DLY;
 549              		.loc 1 379 0
 550 0040 3B68     		ldr	r3, [r7]
 551 0042 47F25112 		movw	r2, #29009
 552 0046 1A80     		strh	r2, [r3]	@ movhi
 380:..\..\..\..\..\..\uCOS-III\Source/os_time.c ****         CPU_CRITICAL_EXIT();
 553              		.loc 1 380 0
 554 0048 F868     		ldr	r0, [r7, #12]
 555 004a FFF7FEFF 		bl	CPU_SR_Restore
 381:..\..\..\..\..\..\uCOS-III\Source/os_time.c ****         return;
 556              		.loc 1 381 0
 557 004e 71E0     		b	.L41
 558              	.L45:
 382:..\..\..\..\..\..\uCOS-III\Source/os_time.c ****     }
 383:..\..\..\..\..\..\uCOS-III\Source/os_time.c **** 
 384:..\..\..\..\..\..\uCOS-III\Source/os_time.c ****     switch (p_tcb->TaskState) {
 559              		.loc 1 384 0
 560 0050 7B68     		ldr	r3, [r7, #4]
 561 0052 93F83630 		ldrb	r3, [r3, #54]	@ zero_extendqisi2
 562 0056 072B     		cmp	r3, #7
 563 0058 62D8     		bhi	.L46
 564 005a 01A2     		adr	r2, .L48
 565 005c 52F823F0 		ldr	pc, [r2, r3, lsl #2]
 566              		.p2align 2
 567              	.L48:
 568 0060 81000000 		.word	.L47+1
 569 0064 91000000 		.word	.L49+1
 570 0068 B3000000 		.word	.L50+1
 571 006c C3000000 		.word	.L51+1
 572 0070 D3000000 		.word	.L52+1
 573 0074 E3000000 		.word	.L53+1
 574 0078 01010000 		.word	.L54+1
 575 007c 11010000 		.word	.L55+1
 576              		.p2align 1
 577              	.L47:
 385:..\..\..\..\..\..\uCOS-III\Source/os_time.c ****         case OS_TASK_STATE_RDY:                             /* Cannot Abort delay if task is ready 
 386:..\..\..\..\..\..\uCOS-III\Source/os_time.c ****              CPU_CRITICAL_EXIT();
 578              		.loc 1 386 0
ARM GAS  C:\Users\alex\AppData\Local\Temp\cc8Lm9sh.s 			page 18


 579 0080 F868     		ldr	r0, [r7, #12]
 580 0082 FFF7FEFF 		bl	CPU_SR_Restore
 387:..\..\..\..\..\..\uCOS-III\Source/os_time.c ****             *p_err = OS_ERR_TASK_NOT_DLY;
 581              		.loc 1 387 0
 582 0086 3B68     		ldr	r3, [r7]
 583 0088 47F25112 		movw	r2, #29009
 584 008c 1A80     		strh	r2, [r3]	@ movhi
 388:..\..\..\..\..\..\uCOS-III\Source/os_time.c ****              break;
 585              		.loc 1 388 0
 586 008e 4FE0     		b	.L56
 587              	.L49:
 389:..\..\..\..\..\..\uCOS-III\Source/os_time.c **** 
 390:..\..\..\..\..\..\uCOS-III\Source/os_time.c ****         case OS_TASK_STATE_DLY:
 391:..\..\..\..\..\..\uCOS-III\Source/os_time.c ****              OS_CRITICAL_ENTER_CPU_EXIT();
 392:..\..\..\..\..\..\uCOS-III\Source/os_time.c ****              p_tcb->TaskState = OS_TASK_STATE_RDY;
 588              		.loc 1 392 0
 589 0090 7B68     		ldr	r3, [r7, #4]
 590 0092 0022     		movs	r2, #0
 591 0094 83F83620 		strb	r2, [r3, #54]
 393:..\..\..\..\..\..\uCOS-III\Source/os_time.c ****              OS_TickListRemove(p_tcb);                      /* Remove task from tick list          
 592              		.loc 1 393 0
 593 0098 7868     		ldr	r0, [r7, #4]
 594 009a FFF7FEFF 		bl	OS_TickListRemove
 394:..\..\..\..\..\..\uCOS-III\Source/os_time.c ****              OS_RdyListInsert(p_tcb);                       /* Add to ready list                   
 595              		.loc 1 394 0
 596 009e 7868     		ldr	r0, [r7, #4]
 597 00a0 FFF7FEFF 		bl	OS_RdyListInsert
 395:..\..\..\..\..\..\uCOS-III\Source/os_time.c ****              OS_CRITICAL_EXIT_NO_SCHED();
 598              		.loc 1 395 0
 599 00a4 F868     		ldr	r0, [r7, #12]
 600 00a6 FFF7FEFF 		bl	CPU_SR_Restore
 396:..\..\..\..\..\..\uCOS-III\Source/os_time.c ****             *p_err = OS_ERR_NONE;
 601              		.loc 1 396 0
 602 00aa 3B68     		ldr	r3, [r7]
 603 00ac 0022     		movs	r2, #0
 604 00ae 1A80     		strh	r2, [r3]	@ movhi
 397:..\..\..\..\..\..\uCOS-III\Source/os_time.c ****              break;
 605              		.loc 1 397 0
 606 00b0 3EE0     		b	.L56
 607              	.L50:
 398:..\..\..\..\..\..\uCOS-III\Source/os_time.c **** 
 399:..\..\..\..\..\..\uCOS-III\Source/os_time.c ****         case OS_TASK_STATE_PEND:
 400:..\..\..\..\..\..\uCOS-III\Source/os_time.c ****              CPU_CRITICAL_EXIT();
 608              		.loc 1 400 0
 609 00b2 F868     		ldr	r0, [r7, #12]
 610 00b4 FFF7FEFF 		bl	CPU_SR_Restore
 401:..\..\..\..\..\..\uCOS-III\Source/os_time.c ****             *p_err = OS_ERR_TASK_NOT_DLY;
 611              		.loc 1 401 0
 612 00b8 3B68     		ldr	r3, [r7]
 613 00ba 47F25112 		movw	r2, #29009
 614 00be 1A80     		strh	r2, [r3]	@ movhi
 402:..\..\..\..\..\..\uCOS-III\Source/os_time.c ****              break;
 615              		.loc 1 402 0
 616 00c0 36E0     		b	.L56
 617              	.L51:
 403:..\..\..\..\..\..\uCOS-III\Source/os_time.c **** 
 404:..\..\..\..\..\..\uCOS-III\Source/os_time.c ****         case OS_TASK_STATE_PEND_TIMEOUT:
ARM GAS  C:\Users\alex\AppData\Local\Temp\cc8Lm9sh.s 			page 19


 405:..\..\..\..\..\..\uCOS-III\Source/os_time.c ****              CPU_CRITICAL_EXIT();
 618              		.loc 1 405 0
 619 00c2 F868     		ldr	r0, [r7, #12]
 620 00c4 FFF7FEFF 		bl	CPU_SR_Restore
 406:..\..\..\..\..\..\uCOS-III\Source/os_time.c ****             *p_err = OS_ERR_TASK_NOT_DLY;
 621              		.loc 1 406 0
 622 00c8 3B68     		ldr	r3, [r7]
 623 00ca 47F25112 		movw	r2, #29009
 624 00ce 1A80     		strh	r2, [r3]	@ movhi
 407:..\..\..\..\..\..\uCOS-III\Source/os_time.c ****              break;
 625              		.loc 1 407 0
 626 00d0 2EE0     		b	.L56
 627              	.L52:
 408:..\..\..\..\..\..\uCOS-III\Source/os_time.c **** 
 409:..\..\..\..\..\..\uCOS-III\Source/os_time.c ****         case OS_TASK_STATE_SUSPENDED:
 410:..\..\..\..\..\..\uCOS-III\Source/os_time.c ****              CPU_CRITICAL_EXIT();
 628              		.loc 1 410 0
 629 00d2 F868     		ldr	r0, [r7, #12]
 630 00d4 FFF7FEFF 		bl	CPU_SR_Restore
 411:..\..\..\..\..\..\uCOS-III\Source/os_time.c ****             *p_err = OS_ERR_TASK_NOT_DLY;
 631              		.loc 1 411 0
 632 00d8 3B68     		ldr	r3, [r7]
 633 00da 47F25112 		movw	r2, #29009
 634 00de 1A80     		strh	r2, [r3]	@ movhi
 412:..\..\..\..\..\..\uCOS-III\Source/os_time.c ****              break;
 635              		.loc 1 412 0
 636 00e0 26E0     		b	.L56
 637              	.L53:
 413:..\..\..\..\..\..\uCOS-III\Source/os_time.c **** 
 414:..\..\..\..\..\..\uCOS-III\Source/os_time.c ****         case OS_TASK_STATE_DLY_SUSPENDED:
 415:..\..\..\..\..\..\uCOS-III\Source/os_time.c ****              OS_CRITICAL_ENTER_CPU_EXIT();
 416:..\..\..\..\..\..\uCOS-III\Source/os_time.c ****              p_tcb->TaskState = OS_TASK_STATE_SUSPENDED;
 638              		.loc 1 416 0
 639 00e2 7B68     		ldr	r3, [r7, #4]
 640 00e4 0422     		movs	r2, #4
 641 00e6 83F83620 		strb	r2, [r3, #54]
 417:..\..\..\..\..\..\uCOS-III\Source/os_time.c ****              OS_TickListRemove(p_tcb);                      /* Remove task from tick list          
 642              		.loc 1 417 0
 643 00ea 7868     		ldr	r0, [r7, #4]
 644 00ec FFF7FEFF 		bl	OS_TickListRemove
 418:..\..\..\..\..\..\uCOS-III\Source/os_time.c ****              OS_CRITICAL_EXIT_NO_SCHED();
 645              		.loc 1 418 0
 646 00f0 F868     		ldr	r0, [r7, #12]
 647 00f2 FFF7FEFF 		bl	CPU_SR_Restore
 419:..\..\..\..\..\..\uCOS-III\Source/os_time.c ****             *p_err            = OS_ERR_TASK_SUSPENDED;
 648              		.loc 1 419 0
 649 00f6 3B68     		ldr	r3, [r7]
 650 00f8 47F25A12 		movw	r2, #29018
 651 00fc 1A80     		strh	r2, [r3]	@ movhi
 420:..\..\..\..\..\..\uCOS-III\Source/os_time.c ****              break;
 652              		.loc 1 420 0
 653 00fe 17E0     		b	.L56
 654              	.L54:
 421:..\..\..\..\..\..\uCOS-III\Source/os_time.c **** 
 422:..\..\..\..\..\..\uCOS-III\Source/os_time.c ****         case OS_TASK_STATE_PEND_SUSPENDED:
 423:..\..\..\..\..\..\uCOS-III\Source/os_time.c ****              CPU_CRITICAL_EXIT();
 655              		.loc 1 423 0
ARM GAS  C:\Users\alex\AppData\Local\Temp\cc8Lm9sh.s 			page 20


 656 0100 F868     		ldr	r0, [r7, #12]
 657 0102 FFF7FEFF 		bl	CPU_SR_Restore
 424:..\..\..\..\..\..\uCOS-III\Source/os_time.c ****             *p_err = OS_ERR_TASK_NOT_DLY;
 658              		.loc 1 424 0
 659 0106 3B68     		ldr	r3, [r7]
 660 0108 47F25112 		movw	r2, #29009
 661 010c 1A80     		strh	r2, [r3]	@ movhi
 425:..\..\..\..\..\..\uCOS-III\Source/os_time.c ****              break;
 662              		.loc 1 425 0
 663 010e 0FE0     		b	.L56
 664              	.L55:
 426:..\..\..\..\..\..\uCOS-III\Source/os_time.c **** 
 427:..\..\..\..\..\..\uCOS-III\Source/os_time.c ****         case OS_TASK_STATE_PEND_TIMEOUT_SUSPENDED:
 428:..\..\..\..\..\..\uCOS-III\Source/os_time.c ****              CPU_CRITICAL_EXIT();
 665              		.loc 1 428 0
 666 0110 F868     		ldr	r0, [r7, #12]
 667 0112 FFF7FEFF 		bl	CPU_SR_Restore
 429:..\..\..\..\..\..\uCOS-III\Source/os_time.c ****             *p_err = OS_ERR_TASK_NOT_DLY;
 668              		.loc 1 429 0
 669 0116 3B68     		ldr	r3, [r7]
 670 0118 47F25112 		movw	r2, #29009
 671 011c 1A80     		strh	r2, [r3]	@ movhi
 430:..\..\..\..\..\..\uCOS-III\Source/os_time.c ****              break;
 672              		.loc 1 430 0
 673 011e 07E0     		b	.L56
 674              	.L46:
 431:..\..\..\..\..\..\uCOS-III\Source/os_time.c **** 
 432:..\..\..\..\..\..\uCOS-III\Source/os_time.c ****         default:
 433:..\..\..\..\..\..\uCOS-III\Source/os_time.c ****              CPU_CRITICAL_EXIT();
 675              		.loc 1 433 0
 676 0120 F868     		ldr	r0, [r7, #12]
 677 0122 FFF7FEFF 		bl	CPU_SR_Restore
 434:..\..\..\..\..\..\uCOS-III\Source/os_time.c ****             *p_err = OS_ERR_STATE_INVALID;
 678              		.loc 1 434 0
 679 0126 3B68     		ldr	r3, [r7]
 680 0128 46F62D62 		movw	r2, #28205
 681 012c 1A80     		strh	r2, [r3]	@ movhi
 435:..\..\..\..\..\..\uCOS-III\Source/os_time.c ****              break;
 682              		.loc 1 435 0
 683 012e 00BF     		nop
 684              	.L56:
 436:..\..\..\..\..\..\uCOS-III\Source/os_time.c ****     }
 437:..\..\..\..\..\..\uCOS-III\Source/os_time.c **** 
 438:..\..\..\..\..\..\uCOS-III\Source/os_time.c ****     OSSched();
 685              		.loc 1 438 0
 686 0130 FFF7FEFF 		bl	OSSched
 687              	.L41:
 439:..\..\..\..\..\..\uCOS-III\Source/os_time.c **** }
 688              		.loc 1 439 0
 689 0134 1037     		adds	r7, r7, #16
 690              		.cfi_def_cfa_offset 8
 691 0136 BD46     		mov	sp, r7
 692              		.cfi_def_cfa_register 13
 693              		@ sp needed
 694 0138 80BD     		pop	{r7, pc}
 695              	.L58:
 696 013a 00BF     		.align	2
ARM GAS  C:\Users\alex\AppData\Local\Temp\cc8Lm9sh.s 			page 21


 697              	.L57:
 698 013c 00000000 		.word	OSIntNestingCtr
 699 0140 00000000 		.word	OSTCBCurPtr
 700              		.cfi_endproc
 701              	.LFE2:
 702              		.size	OSTimeDlyResume, .-OSTimeDlyResume
 703              		.section	.text.OSTimeGet,"ax",%progbits
 704              		.align	2
 705              		.global	OSTimeGet
 706              		.thumb
 707              		.thumb_func
 708              		.type	OSTimeGet, %function
 709              	OSTimeGet:
 710              	.LFB3:
 440:..\..\..\..\..\..\uCOS-III\Source/os_time.c **** #endif
 441:..\..\..\..\..\..\uCOS-III\Source/os_time.c **** /*$PAGE*/
 442:..\..\..\..\..\..\uCOS-III\Source/os_time.c **** /*
 443:..\..\..\..\..\..\uCOS-III\Source/os_time.c **** ***************************************************************************************************
 444:..\..\..\..\..\..\uCOS-III\Source/os_time.c **** *                                               GET CURRENT SYSTEM TIME
 445:..\..\..\..\..\..\uCOS-III\Source/os_time.c **** *
 446:..\..\..\..\..\..\uCOS-III\Source/os_time.c **** * Description: This function is used by your application to obtain the current value of the counter
 447:..\..\..\..\..\..\uCOS-III\Source/os_time.c **** *              the number of clock ticks.
 448:..\..\..\..\..\..\uCOS-III\Source/os_time.c **** *
 449:..\..\..\..\..\..\uCOS-III\Source/os_time.c **** * Arguments  : p_err    is a pointer to a variable that will receive an error code
 450:..\..\..\..\..\..\uCOS-III\Source/os_time.c **** *
 451:..\..\..\..\..\..\uCOS-III\Source/os_time.c **** *                           OS_ERR_NONE           If the call was successful
 452:..\..\..\..\..\..\uCOS-III\Source/os_time.c **** *
 453:..\..\..\..\..\..\uCOS-III\Source/os_time.c **** * Returns    : The current value of OSTickCtr
 454:..\..\..\..\..\..\uCOS-III\Source/os_time.c **** ***************************************************************************************************
 455:..\..\..\..\..\..\uCOS-III\Source/os_time.c **** */
 456:..\..\..\..\..\..\uCOS-III\Source/os_time.c **** 
 457:..\..\..\..\..\..\uCOS-III\Source/os_time.c **** OS_TICK  OSTimeGet (OS_ERR  *p_err)
 458:..\..\..\..\..\..\uCOS-III\Source/os_time.c **** {
 711              		.loc 1 458 0
 712              		.cfi_startproc
 713              		@ args = 0, pretend = 0, frame = 16
 714              		@ frame_needed = 1, uses_anonymous_args = 0
 715 0000 80B5     		push	{r7, lr}
 716              		.cfi_def_cfa_offset 8
 717              		.cfi_offset 7, -8
 718              		.cfi_offset 14, -4
 719 0002 84B0     		sub	sp, sp, #16
 720              		.cfi_def_cfa_offset 24
 721 0004 00AF     		add	r7, sp, #0
 722              		.cfi_def_cfa_register 7
 723 0006 7860     		str	r0, [r7, #4]
 459:..\..\..\..\..\..\uCOS-III\Source/os_time.c ****     OS_TICK  ticks;
 460:..\..\..\..\..\..\uCOS-III\Source/os_time.c ****     CPU_SR_ALLOC();
 724              		.loc 1 460 0
 725 0008 0023     		movs	r3, #0
 726 000a FB60     		str	r3, [r7, #12]
 461:..\..\..\..\..\..\uCOS-III\Source/os_time.c **** 
 462:..\..\..\..\..\..\uCOS-III\Source/os_time.c **** 
 463:..\..\..\..\..\..\uCOS-III\Source/os_time.c **** 
 464:..\..\..\..\..\..\uCOS-III\Source/os_time.c **** #ifdef OS_SAFETY_CRITICAL
 465:..\..\..\..\..\..\uCOS-III\Source/os_time.c ****     if (p_err == (OS_ERR *)0) {
 466:..\..\..\..\..\..\uCOS-III\Source/os_time.c ****         OS_SAFETY_CRITICAL_EXCEPTION();
ARM GAS  C:\Users\alex\AppData\Local\Temp\cc8Lm9sh.s 			page 22


 467:..\..\..\..\..\..\uCOS-III\Source/os_time.c ****         return ((OS_TICK)0);
 468:..\..\..\..\..\..\uCOS-III\Source/os_time.c ****     }
 469:..\..\..\..\..\..\uCOS-III\Source/os_time.c **** #endif
 470:..\..\..\..\..\..\uCOS-III\Source/os_time.c **** 
 471:..\..\..\..\..\..\uCOS-III\Source/os_time.c ****     CPU_CRITICAL_ENTER();
 727              		.loc 1 471 0
 728 000c FFF7FEFF 		bl	CPU_SR_Save
 729 0010 F860     		str	r0, [r7, #12]
 472:..\..\..\..\..\..\uCOS-III\Source/os_time.c ****     ticks = OSTickCtr;
 730              		.loc 1 472 0
 731 0012 074B     		ldr	r3, .L61
 732 0014 1B68     		ldr	r3, [r3]
 733 0016 BB60     		str	r3, [r7, #8]
 473:..\..\..\..\..\..\uCOS-III\Source/os_time.c ****     CPU_CRITICAL_EXIT();
 734              		.loc 1 473 0
 735 0018 F868     		ldr	r0, [r7, #12]
 736 001a FFF7FEFF 		bl	CPU_SR_Restore
 474:..\..\..\..\..\..\uCOS-III\Source/os_time.c ****    *p_err = OS_ERR_NONE;
 737              		.loc 1 474 0
 738 001e 7B68     		ldr	r3, [r7, #4]
 739 0020 0022     		movs	r2, #0
 740 0022 1A80     		strh	r2, [r3]	@ movhi
 475:..\..\..\..\..\..\uCOS-III\Source/os_time.c ****     return (ticks);
 741              		.loc 1 475 0
 742 0024 BB68     		ldr	r3, [r7, #8]
 476:..\..\..\..\..\..\uCOS-III\Source/os_time.c **** }
 743              		.loc 1 476 0
 744 0026 1846     		mov	r0, r3
 745 0028 1037     		adds	r7, r7, #16
 746              		.cfi_def_cfa_offset 8
 747 002a BD46     		mov	sp, r7
 748              		.cfi_def_cfa_register 13
 749              		@ sp needed
 750 002c 80BD     		pop	{r7, pc}
 751              	.L62:
 752 002e 00BF     		.align	2
 753              	.L61:
 754 0030 00000000 		.word	OSTickCtr
 755              		.cfi_endproc
 756              	.LFE3:
 757              		.size	OSTimeGet, .-OSTimeGet
 758              		.section	.text.OSTimeSet,"ax",%progbits
 759              		.align	2
 760              		.global	OSTimeSet
 761              		.thumb
 762              		.thumb_func
 763              		.type	OSTimeSet, %function
 764              	OSTimeSet:
 765              	.LFB4:
 477:..\..\..\..\..\..\uCOS-III\Source/os_time.c **** 
 478:..\..\..\..\..\..\uCOS-III\Source/os_time.c **** /*
 479:..\..\..\..\..\..\uCOS-III\Source/os_time.c **** ***************************************************************************************************
 480:..\..\..\..\..\..\uCOS-III\Source/os_time.c **** *                                                   SET SYSTEM CLOCK
 481:..\..\..\..\..\..\uCOS-III\Source/os_time.c **** *
 482:..\..\..\..\..\..\uCOS-III\Source/os_time.c **** * Description: This function sets the counter which keeps track of the number of clock ticks.
 483:..\..\..\..\..\..\uCOS-III\Source/os_time.c **** *
 484:..\..\..\..\..\..\uCOS-III\Source/os_time.c **** * Arguments  : ticks    is the desired tick value
ARM GAS  C:\Users\alex\AppData\Local\Temp\cc8Lm9sh.s 			page 23


 485:..\..\..\..\..\..\uCOS-III\Source/os_time.c **** *
 486:..\..\..\..\..\..\uCOS-III\Source/os_time.c **** *              p_err    is a pointer to a variable that will receive an error code
 487:..\..\..\..\..\..\uCOS-III\Source/os_time.c **** *
 488:..\..\..\..\..\..\uCOS-III\Source/os_time.c **** *                           OS_ERR_NONE           If the call was successful
 489:..\..\..\..\..\..\uCOS-III\Source/os_time.c **** *
 490:..\..\..\..\..\..\uCOS-III\Source/os_time.c **** * Returns    : none
 491:..\..\..\..\..\..\uCOS-III\Source/os_time.c **** ***************************************************************************************************
 492:..\..\..\..\..\..\uCOS-III\Source/os_time.c **** */
 493:..\..\..\..\..\..\uCOS-III\Source/os_time.c **** 
 494:..\..\..\..\..\..\uCOS-III\Source/os_time.c **** void  OSTimeSet (OS_TICK   ticks,
 495:..\..\..\..\..\..\uCOS-III\Source/os_time.c ****                  OS_ERR   *p_err)
 496:..\..\..\..\..\..\uCOS-III\Source/os_time.c **** {
 766              		.loc 1 496 0
 767              		.cfi_startproc
 768              		@ args = 0, pretend = 0, frame = 16
 769              		@ frame_needed = 1, uses_anonymous_args = 0
 770 0000 80B5     		push	{r7, lr}
 771              		.cfi_def_cfa_offset 8
 772              		.cfi_offset 7, -8
 773              		.cfi_offset 14, -4
 774 0002 84B0     		sub	sp, sp, #16
 775              		.cfi_def_cfa_offset 24
 776 0004 00AF     		add	r7, sp, #0
 777              		.cfi_def_cfa_register 7
 778 0006 7860     		str	r0, [r7, #4]
 779 0008 3960     		str	r1, [r7]
 497:..\..\..\..\..\..\uCOS-III\Source/os_time.c ****     CPU_SR_ALLOC();
 780              		.loc 1 497 0
 781 000a 0023     		movs	r3, #0
 782 000c FB60     		str	r3, [r7, #12]
 498:..\..\..\..\..\..\uCOS-III\Source/os_time.c **** 
 499:..\..\..\..\..\..\uCOS-III\Source/os_time.c **** 
 500:..\..\..\..\..\..\uCOS-III\Source/os_time.c **** 
 501:..\..\..\..\..\..\uCOS-III\Source/os_time.c **** #ifdef OS_SAFETY_CRITICAL
 502:..\..\..\..\..\..\uCOS-III\Source/os_time.c ****     if (p_err == (OS_ERR *)0) {
 503:..\..\..\..\..\..\uCOS-III\Source/os_time.c ****         OS_SAFETY_CRITICAL_EXCEPTION();
 504:..\..\..\..\..\..\uCOS-III\Source/os_time.c ****         return;
 505:..\..\..\..\..\..\uCOS-III\Source/os_time.c ****     }
 506:..\..\..\..\..\..\uCOS-III\Source/os_time.c **** #endif
 507:..\..\..\..\..\..\uCOS-III\Source/os_time.c **** 
 508:..\..\..\..\..\..\uCOS-III\Source/os_time.c ****     CPU_CRITICAL_ENTER();
 783              		.loc 1 508 0
 784 000e FFF7FEFF 		bl	CPU_SR_Save
 785 0012 F860     		str	r0, [r7, #12]
 509:..\..\..\..\..\..\uCOS-III\Source/os_time.c ****     OSTickCtr = ticks;
 786              		.loc 1 509 0
 787 0014 064A     		ldr	r2, .L64
 788 0016 7B68     		ldr	r3, [r7, #4]
 789 0018 1360     		str	r3, [r2]
 510:..\..\..\..\..\..\uCOS-III\Source/os_time.c ****     CPU_CRITICAL_EXIT();
 790              		.loc 1 510 0
 791 001a F868     		ldr	r0, [r7, #12]
 792 001c FFF7FEFF 		bl	CPU_SR_Restore
 511:..\..\..\..\..\..\uCOS-III\Source/os_time.c ****    *p_err     = OS_ERR_NONE;
 793              		.loc 1 511 0
 794 0020 3B68     		ldr	r3, [r7]
 795 0022 0022     		movs	r2, #0
ARM GAS  C:\Users\alex\AppData\Local\Temp\cc8Lm9sh.s 			page 24


 796 0024 1A80     		strh	r2, [r3]	@ movhi
 512:..\..\..\..\..\..\uCOS-III\Source/os_time.c **** }
 797              		.loc 1 512 0
 798 0026 00BF     		nop
 799 0028 1037     		adds	r7, r7, #16
 800              		.cfi_def_cfa_offset 8
 801 002a BD46     		mov	sp, r7
 802              		.cfi_def_cfa_register 13
 803              		@ sp needed
 804 002c 80BD     		pop	{r7, pc}
 805              	.L65:
 806 002e 00BF     		.align	2
 807              	.L64:
 808 0030 00000000 		.word	OSTickCtr
 809              		.cfi_endproc
 810              	.LFE4:
 811              		.size	OSTimeSet, .-OSTimeSet
 812              		.section	.text.OSTimeTick,"ax",%progbits
 813              		.align	2
 814              		.global	OSTimeTick
 815              		.thumb
 816              		.thumb_func
 817              		.type	OSTimeTick, %function
 818              	OSTimeTick:
 819              	.LFB5:
 513:..\..\..\..\..\..\uCOS-III\Source/os_time.c **** 
 514:..\..\..\..\..\..\uCOS-III\Source/os_time.c **** /*$PAGE*/
 515:..\..\..\..\..\..\uCOS-III\Source/os_time.c **** /*
 516:..\..\..\..\..\..\uCOS-III\Source/os_time.c **** ***************************************************************************************************
 517:..\..\..\..\..\..\uCOS-III\Source/os_time.c **** *                                                 PROCESS SYSTEM TICK
 518:..\..\..\..\..\..\uCOS-III\Source/os_time.c **** *
 519:..\..\..\..\..\..\uCOS-III\Source/os_time.c **** * Description: This function is used to signal to uC/OS-III the occurrence of a 'system tick' (also
 520:..\..\..\..\..\..\uCOS-III\Source/os_time.c **** *              'clock tick').  This function should be called by the tick ISR.
 521:..\..\..\..\..\..\uCOS-III\Source/os_time.c **** *
 522:..\..\..\..\..\..\uCOS-III\Source/os_time.c **** * Arguments  : none
 523:..\..\..\..\..\..\uCOS-III\Source/os_time.c **** *
 524:..\..\..\..\..\..\uCOS-III\Source/os_time.c **** * Returns    : none
 525:..\..\..\..\..\..\uCOS-III\Source/os_time.c **** ***************************************************************************************************
 526:..\..\..\..\..\..\uCOS-III\Source/os_time.c **** */
 527:..\..\..\..\..\..\uCOS-III\Source/os_time.c **** 
 528:..\..\..\..\..\..\uCOS-III\Source/os_time.c **** void  OSTimeTick (void)
 529:..\..\..\..\..\..\uCOS-III\Source/os_time.c **** {
 820              		.loc 1 529 0
 821              		.cfi_startproc
 822              		@ args = 0, pretend = 0, frame = 8
 823              		@ frame_needed = 1, uses_anonymous_args = 0
 824 0000 80B5     		push	{r7, lr}
 825              		.cfi_def_cfa_offset 8
 826              		.cfi_offset 7, -8
 827              		.cfi_offset 14, -4
 828 0002 82B0     		sub	sp, sp, #8
 829              		.cfi_def_cfa_offset 16
 830 0004 00AF     		add	r7, sp, #0
 831              		.cfi_def_cfa_register 7
 530:..\..\..\..\..\..\uCOS-III\Source/os_time.c ****     OS_ERR  err;
 531:..\..\..\..\..\..\uCOS-III\Source/os_time.c **** #if OS_CFG_ISR_POST_DEFERRED_EN > 0u
 532:..\..\..\..\..\..\uCOS-III\Source/os_time.c ****     CPU_TS  ts;
ARM GAS  C:\Users\alex\AppData\Local\Temp\cc8Lm9sh.s 			page 25


 533:..\..\..\..\..\..\uCOS-III\Source/os_time.c **** #endif
 534:..\..\..\..\..\..\uCOS-III\Source/os_time.c **** 
 535:..\..\..\..\..\..\uCOS-III\Source/os_time.c **** 
 536:..\..\..\..\..\..\uCOS-III\Source/os_time.c ****     OSTimeTickHook();                                       /* Call user definable hook            
 832              		.loc 1 536 0
 833 0006 FFF7FEFF 		bl	OSTimeTickHook
 537:..\..\..\..\..\..\uCOS-III\Source/os_time.c **** 
 538:..\..\..\..\..\..\uCOS-III\Source/os_time.c **** #if OS_CFG_ISR_POST_DEFERRED_EN > 0u
 539:..\..\..\..\..\..\uCOS-III\Source/os_time.c **** 
 540:..\..\..\..\..\..\uCOS-III\Source/os_time.c ****     ts = OS_TS_GET();                                       /* Get timestamp                       
 541:..\..\..\..\..\..\uCOS-III\Source/os_time.c ****     OS_IntQPost((OS_OBJ_TYPE) OS_OBJ_TYPE_TICK,             /* Post to ISR queue                   
 542:..\..\..\..\..\..\uCOS-III\Source/os_time.c ****                 (void      *)&OSRdyList[OSPrioCur],
 543:..\..\..\..\..\..\uCOS-III\Source/os_time.c ****                 (void      *) 0,
 544:..\..\..\..\..\..\uCOS-III\Source/os_time.c ****                 (OS_MSG_SIZE) 0u,
 545:..\..\..\..\..\..\uCOS-III\Source/os_time.c ****                 (OS_FLAGS   ) 0u,
 546:..\..\..\..\..\..\uCOS-III\Source/os_time.c ****                 (OS_OPT     ) 0u,
 547:..\..\..\..\..\..\uCOS-III\Source/os_time.c ****                 (CPU_TS     ) ts,
 548:..\..\..\..\..\..\uCOS-III\Source/os_time.c ****                 (OS_ERR    *)&err);
 549:..\..\..\..\..\..\uCOS-III\Source/os_time.c **** 
 550:..\..\..\..\..\..\uCOS-III\Source/os_time.c **** #else
 551:..\..\..\..\..\..\uCOS-III\Source/os_time.c **** 
 552:..\..\..\..\..\..\uCOS-III\Source/os_time.c ****    (void)OSTaskSemPost((OS_TCB *)&OSTickTaskTCB,            /* Signal tick task                    
 834              		.loc 1 552 0
 835 000a BB1D     		adds	r3, r7, #6
 836 000c 1A46     		mov	r2, r3
 837 000e 0021     		movs	r1, #0
 838 0010 1248     		ldr	r0, .L69
 839 0012 FFF7FEFF 		bl	OSTaskSemPost
 553:..\..\..\..\..\..\uCOS-III\Source/os_time.c ****                        (OS_OPT  ) OS_OPT_POST_NONE,
 554:..\..\..\..\..\..\uCOS-III\Source/os_time.c ****                        (OS_ERR *)&err);
 555:..\..\..\..\..\..\uCOS-III\Source/os_time.c **** 
 556:..\..\..\..\..\..\uCOS-III\Source/os_time.c **** 
 557:..\..\..\..\..\..\uCOS-III\Source/os_time.c **** #if OS_CFG_SCHED_ROUND_ROBIN_EN > 0u
 558:..\..\..\..\..\..\uCOS-III\Source/os_time.c ****     OS_SchedRoundRobin(&OSRdyList[OSPrioCur]);
 840              		.loc 1 558 0
 841 0016 124B     		ldr	r3, .L69+4
 842 0018 1B78     		ldrb	r3, [r3]	@ zero_extendqisi2
 843 001a 1A46     		mov	r2, r3
 844 001c 1346     		mov	r3, r2
 845 001e 5B00     		lsls	r3, r3, #1
 846 0020 1344     		add	r3, r3, r2
 847 0022 9B00     		lsls	r3, r3, #2
 848 0024 0F4A     		ldr	r2, .L69+8
 849 0026 1344     		add	r3, r3, r2
 850 0028 1846     		mov	r0, r3
 851 002a FFF7FEFF 		bl	OS_SchedRoundRobin
 559:..\..\..\..\..\..\uCOS-III\Source/os_time.c **** #endif
 560:..\..\..\..\..\..\uCOS-III\Source/os_time.c **** 
 561:..\..\..\..\..\..\uCOS-III\Source/os_time.c **** #if OS_CFG_TMR_EN > 0u
 562:..\..\..\..\..\..\uCOS-III\Source/os_time.c ****     OSTmrUpdateCtr--;
 852              		.loc 1 562 0
 853 002e 0E4B     		ldr	r3, .L69+12
 854 0030 1B68     		ldr	r3, [r3]
 855 0032 013B     		subs	r3, r3, #1
 856 0034 0C4A     		ldr	r2, .L69+12
 857 0036 1360     		str	r3, [r2]
 563:..\..\..\..\..\..\uCOS-III\Source/os_time.c ****     if (OSTmrUpdateCtr == (OS_CTR)0u) {
ARM GAS  C:\Users\alex\AppData\Local\Temp\cc8Lm9sh.s 			page 26


 858              		.loc 1 563 0
 859 0038 0B4B     		ldr	r3, .L69+12
 860 003a 1B68     		ldr	r3, [r3]
 861 003c 002B     		cmp	r3, #0
 862 003e 09D1     		bne	.L68
 564:..\..\..\..\..\..\uCOS-III\Source/os_time.c ****         OSTmrUpdateCtr = OSTmrUpdateCnt;
 863              		.loc 1 564 0
 864 0040 0A4B     		ldr	r3, .L69+16
 865 0042 1B68     		ldr	r3, [r3]
 866 0044 084A     		ldr	r2, .L69+12
 867 0046 1360     		str	r3, [r2]
 565:..\..\..\..\..\..\uCOS-III\Source/os_time.c ****         OSTaskSemPost((OS_TCB *)&OSTmrTaskTCB,              /* Signal timer task                   
 868              		.loc 1 565 0
 869 0048 BB1D     		adds	r3, r7, #6
 870 004a 1A46     		mov	r2, r3
 871 004c 0021     		movs	r1, #0
 872 004e 0848     		ldr	r0, .L69+20
 873 0050 FFF7FEFF 		bl	OSTaskSemPost
 874              	.L68:
 566:..\..\..\..\..\..\uCOS-III\Source/os_time.c ****                       (OS_OPT  ) OS_OPT_POST_NONE,
 567:..\..\..\..\..\..\uCOS-III\Source/os_time.c ****                       (OS_ERR *)&err);
 568:..\..\..\..\..\..\uCOS-III\Source/os_time.c ****     }
 569:..\..\..\..\..\..\uCOS-III\Source/os_time.c **** #endif
 570:..\..\..\..\..\..\uCOS-III\Source/os_time.c **** 
 571:..\..\..\..\..\..\uCOS-III\Source/os_time.c **** #endif
 572:..\..\..\..\..\..\uCOS-III\Source/os_time.c **** }
 875              		.loc 1 572 0
 876 0054 00BF     		nop
 877 0056 0837     		adds	r7, r7, #8
 878              		.cfi_def_cfa_offset 8
 879 0058 BD46     		mov	sp, r7
 880              		.cfi_def_cfa_register 13
 881              		@ sp needed
 882 005a 80BD     		pop	{r7, pc}
 883              	.L70:
 884              		.align	2
 885              	.L69:
 886 005c 00000000 		.word	OSTickTaskTCB
 887 0060 00000000 		.word	OSPrioCur
 888 0064 00000000 		.word	OSRdyList
 889 0068 00000000 		.word	OSTmrUpdateCtr
 890 006c 00000000 		.word	OSTmrUpdateCnt
 891 0070 00000000 		.word	OSTmrTaskTCB
 892              		.cfi_endproc
 893              	.LFE5:
 894              		.size	OSTimeTick, .-OSTimeTick
 895              		.text
 896              	.Letext0:
 897              		.file 2 "..\\..\\..\\..\\..\\..\\uC-CPU\\ARM-Cortex-M3\\GNU/cpu.h"
 898              		.file 3 "..\\..\\..\\..\\..\\..\\uC-CPU/cpu_core.h"
 899              		.file 4 "..\\..\\..\\..\\..\\..\\uCOS-III\\Source/os_type.h"
 900              		.file 5 "..\\..\\..\\..\\..\\..\\uCOS-III\\Source/os.h"