ARM GAS  C:\Users\Aluno\AppData\Local\Temp\ccHJiRYw.s 			page 1


   1              		.syntax unified
   2              		.cpu cortex-m3
   3              		.fpu softvfp
   4              		.eabi_attribute 20, 1
   5              		.eabi_attribute 21, 1
   6              		.eabi_attribute 23, 3
   7              		.eabi_attribute 24, 1
   8              		.eabi_attribute 25, 1
   9              		.eabi_attribute 26, 1
  10              		.eabi_attribute 30, 6
  11              		.eabi_attribute 34, 1
  12              		.eabi_attribute 18, 4
  13              		.thumb
  14              		.syntax unified
  15              		.file	"os_task.c"
  16              		.text
  17              	.Ltext0:
  18              		.cfi_sections	.debug_frame
  19              		.section	.text.OSTaskChangePrio,"ax",%progbits
  20              		.align	2
  21              		.global	OSTaskChangePrio
  22              		.thumb
  23              		.thumb_func
  24              		.type	OSTaskChangePrio, %function
  25              	OSTaskChangePrio:
  26              	.LFB0:
  27              		.file 1 "..\\..\\..\\..\\..\\..\\uCOS-III\\Source\\os_task.c"
   1:..\..\..\..\..\..\uCOS-III\Source/os_task.c **** /*
   2:..\..\..\..\..\..\uCOS-III\Source/os_task.c **** ***************************************************************************************************
   3:..\..\..\..\..\..\uCOS-III\Source/os_task.c **** *                                                      uC/OS-III
   4:..\..\..\..\..\..\uCOS-III\Source/os_task.c **** *                                                 The Real-Time Kernel
   5:..\..\..\..\..\..\uCOS-III\Source/os_task.c **** *
   6:..\..\..\..\..\..\uCOS-III\Source/os_task.c **** *                                  (c) Copyright 2009-2012; Micrium, Inc.; Weston, FL
   7:..\..\..\..\..\..\uCOS-III\Source/os_task.c **** *                           All rights reserved.  Protected by international copyright laws.
   8:..\..\..\..\..\..\uCOS-III\Source/os_task.c **** *
   9:..\..\..\..\..\..\uCOS-III\Source/os_task.c **** *                                                   TASK MANAGEMENT
  10:..\..\..\..\..\..\uCOS-III\Source/os_task.c **** *
  11:..\..\..\..\..\..\uCOS-III\Source/os_task.c **** * File    : OS_TASK.C
  12:..\..\..\..\..\..\uCOS-III\Source/os_task.c **** * By      : JJL
  13:..\..\..\..\..\..\uCOS-III\Source/os_task.c **** * Version : V3.03.01
  14:..\..\..\..\..\..\uCOS-III\Source/os_task.c **** *
  15:..\..\..\..\..\..\uCOS-III\Source/os_task.c **** * LICENSING TERMS:
  16:..\..\..\..\..\..\uCOS-III\Source/os_task.c **** * ---------------
  17:..\..\..\..\..\..\uCOS-III\Source/os_task.c **** *           uC/OS-III is provided in source form for FREE short-term evaluation, for educational us
  18:..\..\..\..\..\..\uCOS-III\Source/os_task.c **** *           for peaceful research.  If you plan or intend to use uC/OS-III in a commercial applicat
  19:..\..\..\..\..\..\uCOS-III\Source/os_task.c **** *           product then, you need to contact Micrium to properly license uC/OS-III for its use in 
  20:..\..\..\..\..\..\uCOS-III\Source/os_task.c **** *           application/product.   We provide ALL the source code for your convenience and to help 
  21:..\..\..\..\..\..\uCOS-III\Source/os_task.c **** *           experience uC/OS-III.  The fact that the source is provided does NOT mean that you can 
  22:..\..\..\..\..\..\uCOS-III\Source/os_task.c **** *           it commercially without paying a licensing fee.
  23:..\..\..\..\..\..\uCOS-III\Source/os_task.c **** *
  24:..\..\..\..\..\..\uCOS-III\Source/os_task.c **** *           Knowledge of the source code may NOT be used to develop a similar product.
  25:..\..\..\..\..\..\uCOS-III\Source/os_task.c **** *
  26:..\..\..\..\..\..\uCOS-III\Source/os_task.c **** *           Please help us continue to provide the embedded community with the finest software avai
  27:..\..\..\..\..\..\uCOS-III\Source/os_task.c **** *           Your honesty is greatly appreciated.
  28:..\..\..\..\..\..\uCOS-III\Source/os_task.c **** *
  29:..\..\..\..\..\..\uCOS-III\Source/os_task.c **** *           You can contact us at www.micrium.com, or by phone at +1 (954) 217-2036.
  30:..\..\..\..\..\..\uCOS-III\Source/os_task.c **** ***************************************************************************************************
ARM GAS  C:\Users\Aluno\AppData\Local\Temp\ccHJiRYw.s 			page 2


  31:..\..\..\..\..\..\uCOS-III\Source/os_task.c **** */
  32:..\..\..\..\..\..\uCOS-III\Source/os_task.c **** 
  33:..\..\..\..\..\..\uCOS-III\Source/os_task.c **** #define  MICRIUM_SOURCE
  34:..\..\..\..\..\..\uCOS-III\Source/os_task.c **** #include <os.h>
  35:..\..\..\..\..\..\uCOS-III\Source/os_task.c **** 
  36:..\..\..\..\..\..\uCOS-III\Source/os_task.c **** #ifdef VSC_INCLUDE_SOURCE_FILE_NAMES
  37:..\..\..\..\..\..\uCOS-III\Source/os_task.c **** const  CPU_CHAR  *os_task__c = "$Id: $";
  38:..\..\..\..\..\..\uCOS-III\Source/os_task.c **** #endif
  39:..\..\..\..\..\..\uCOS-III\Source/os_task.c **** 
  40:..\..\..\..\..\..\uCOS-III\Source/os_task.c **** /*
  41:..\..\..\..\..\..\uCOS-III\Source/os_task.c **** ***************************************************************************************************
  42:..\..\..\..\..\..\uCOS-III\Source/os_task.c **** *                                                CHANGE PRIORITY OF A TASK
  43:..\..\..\..\..\..\uCOS-III\Source/os_task.c **** *
  44:..\..\..\..\..\..\uCOS-III\Source/os_task.c **** * Description: This function allows you to change the priority of a task dynamically.  Note that th
  45:..\..\..\..\..\..\uCOS-III\Source/os_task.c **** *              priority MUST be available.
  46:..\..\..\..\..\..\uCOS-III\Source/os_task.c **** *
  47:..\..\..\..\..\..\uCOS-III\Source/os_task.c **** * Arguments  : p_tcb      is the TCB of the tack to change the priority for
  48:..\..\..\..\..\..\uCOS-III\Source/os_task.c **** *
  49:..\..\..\..\..\..\uCOS-III\Source/os_task.c **** *              prio_new   is the new priority
  50:..\..\..\..\..\..\uCOS-III\Source/os_task.c **** *
  51:..\..\..\..\..\..\uCOS-III\Source/os_task.c **** *              p_err      is a pointer to an error code returned by this function:
  52:..\..\..\..\..\..\uCOS-III\Source/os_task.c **** *
  53:..\..\..\..\..\..\uCOS-III\Source/os_task.c **** *                             OS_ERR_NONE                 is the call was successful
  54:..\..\..\..\..\..\uCOS-III\Source/os_task.c **** *                             OS_ERR_PRIO_INVALID         if the priority you specify is higher tha
  55:..\..\..\..\..\..\uCOS-III\Source/os_task.c **** *                                                         (i.e. >= (OS_CFG_PRIO_MAX-1))
  56:..\..\..\..\..\..\uCOS-III\Source/os_task.c **** *                             OS_ERR_STATE_INVALID        if the task is in an invalid state
  57:..\..\..\..\..\..\uCOS-III\Source/os_task.c **** *                             OS_ERR_TASK_CHANGE_PRIO_ISR if you tried to change the task's priorit
  58:..\..\..\..\..\..\uCOS-III\Source/os_task.c **** ***************************************************************************************************
  59:..\..\..\..\..\..\uCOS-III\Source/os_task.c **** */
  60:..\..\..\..\..\..\uCOS-III\Source/os_task.c **** 
  61:..\..\..\..\..\..\uCOS-III\Source/os_task.c **** #if OS_CFG_TASK_CHANGE_PRIO_EN > 0u
  62:..\..\..\..\..\..\uCOS-III\Source/os_task.c **** void  OSTaskChangePrio (OS_TCB   *p_tcb,
  63:..\..\..\..\..\..\uCOS-III\Source/os_task.c ****                         OS_PRIO   prio_new,
  64:..\..\..\..\..\..\uCOS-III\Source/os_task.c ****                         OS_ERR   *p_err)
  65:..\..\..\..\..\..\uCOS-III\Source/os_task.c **** {
  28              		.loc 1 65 0
  29              		.cfi_startproc
  30              		@ args = 0, pretend = 0, frame = 24
  31              		@ frame_needed = 1, uses_anonymous_args = 0
  32 0000 80B5     		push	{r7, lr}
  33              		.cfi_def_cfa_offset 8
  34              		.cfi_offset 7, -8
  35              		.cfi_offset 14, -4
  36 0002 86B0     		sub	sp, sp, #24
  37              		.cfi_def_cfa_offset 32
  38 0004 00AF     		add	r7, sp, #0
  39              		.cfi_def_cfa_register 7
  40 0006 F860     		str	r0, [r7, #12]
  41 0008 0B46     		mov	r3, r1
  42 000a 7A60     		str	r2, [r7, #4]
  43 000c FB72     		strb	r3, [r7, #11]
  66:..\..\..\..\..\..\uCOS-III\Source/os_task.c ****     CPU_BOOLEAN   self;
  67:..\..\..\..\..\..\uCOS-III\Source/os_task.c ****     CPU_SR_ALLOC();
  44              		.loc 1 67 0
  45 000e 0023     		movs	r3, #0
  46 0010 3B61     		str	r3, [r7, #16]
  68:..\..\..\..\..\..\uCOS-III\Source/os_task.c **** 
ARM GAS  C:\Users\Aluno\AppData\Local\Temp\ccHJiRYw.s 			page 3


  69:..\..\..\..\..\..\uCOS-III\Source/os_task.c **** 
  70:..\..\..\..\..\..\uCOS-III\Source/os_task.c **** 
  71:..\..\..\..\..\..\uCOS-III\Source/os_task.c **** #ifdef OS_SAFETY_CRITICAL
  72:..\..\..\..\..\..\uCOS-III\Source/os_task.c ****     if (p_err == (OS_ERR *)0) {
  73:..\..\..\..\..\..\uCOS-III\Source/os_task.c ****         OS_SAFETY_CRITICAL_EXCEPTION();
  74:..\..\..\..\..\..\uCOS-III\Source/os_task.c ****         return;
  75:..\..\..\..\..\..\uCOS-III\Source/os_task.c ****     }
  76:..\..\..\..\..\..\uCOS-III\Source/os_task.c **** #endif
  77:..\..\..\..\..\..\uCOS-III\Source/os_task.c **** 
  78:..\..\..\..\..\..\uCOS-III\Source/os_task.c **** #if OS_CFG_CALLED_FROM_ISR_CHK_EN > 0u
  79:..\..\..\..\..\..\uCOS-III\Source/os_task.c ****     if (OSIntNestingCtr > (OS_NESTING_CTR)0) {              /* ---------- CANNOT CREATE A TASK FROM
  47              		.loc 1 79 0
  48 0012 484B     		ldr	r3, .L21
  49 0014 1B78     		ldrb	r3, [r3]	@ zero_extendqisi2
  50 0016 002B     		cmp	r3, #0
  51 0018 04D0     		beq	.L2
  80:..\..\..\..\..\..\uCOS-III\Source/os_task.c ****        *p_err = OS_ERR_TASK_CHANGE_PRIO_ISR;
  52              		.loc 1 80 0
  53 001a 7B68     		ldr	r3, [r7, #4]
  54 001c 47F24912 		movw	r2, #29001
  55 0020 1A80     		strh	r2, [r3]	@ movhi
  81:..\..\..\..\..\..\uCOS-III\Source/os_task.c ****         return;
  56              		.loc 1 81 0
  57 0022 84E0     		b	.L1
  58              	.L2:
  82:..\..\..\..\..\..\uCOS-III\Source/os_task.c ****     }
  83:..\..\..\..\..\..\uCOS-III\Source/os_task.c **** #endif
  84:..\..\..\..\..\..\uCOS-III\Source/os_task.c **** 
  85:..\..\..\..\..\..\uCOS-III\Source/os_task.c **** #if OS_CFG_ISR_POST_DEFERRED_EN > 0u
  86:..\..\..\..\..\..\uCOS-III\Source/os_task.c ****     if (prio_new == 0) {                                    /* Cannot set to IntQueue Task priority
  87:..\..\..\..\..\..\uCOS-III\Source/os_task.c ****        *p_err = OS_ERR_PRIO_INVALID;
  88:..\..\..\..\..\..\uCOS-III\Source/os_task.c ****         return;
  89:..\..\..\..\..\..\uCOS-III\Source/os_task.c ****     }
  90:..\..\..\..\..\..\uCOS-III\Source/os_task.c **** #endif
  91:..\..\..\..\..\..\uCOS-III\Source/os_task.c **** 
  92:..\..\..\..\..\..\uCOS-III\Source/os_task.c ****     if (prio_new >= (OS_CFG_PRIO_MAX - 1u)) {               /* Cannot set to Idle Task priority    
  59              		.loc 1 92 0
  60 0024 FB7A     		ldrb	r3, [r7, #11]	@ zero_extendqisi2
  61 0026 062B     		cmp	r3, #6
  62 0028 04D9     		bls	.L4
  93:..\..\..\..\..\..\uCOS-III\Source/os_task.c ****        *p_err = OS_ERR_PRIO_INVALID;
  63              		.loc 1 93 0
  64 002a 7B68     		ldr	r3, [r7, #4]
  65 002c 46F27322 		movw	r2, #25203
  66 0030 1A80     		strh	r2, [r3]	@ movhi
  94:..\..\..\..\..\..\uCOS-III\Source/os_task.c ****         return;
  67              		.loc 1 94 0
  68 0032 7CE0     		b	.L1
  69              	.L4:
  95:..\..\..\..\..\..\uCOS-III\Source/os_task.c ****     }
  96:..\..\..\..\..\..\uCOS-III\Source/os_task.c **** 
  97:..\..\..\..\..\..\uCOS-III\Source/os_task.c ****     if (p_tcb == (OS_TCB *)0) {                             /* See if want to change priority of 's
  70              		.loc 1 97 0
  71 0034 FB68     		ldr	r3, [r7, #12]
  72 0036 002B     		cmp	r3, #0
  73 0038 0BD1     		bne	.L5
  98:..\..\..\..\..\..\uCOS-III\Source/os_task.c ****         CPU_CRITICAL_ENTER();
ARM GAS  C:\Users\Aluno\AppData\Local\Temp\ccHJiRYw.s 			page 4


  74              		.loc 1 98 0
  75 003a FFF7FEFF 		bl	CPU_SR_Save
  76 003e 3861     		str	r0, [r7, #16]
  99:..\..\..\..\..\..\uCOS-III\Source/os_task.c ****         p_tcb = OSTCBCurPtr;
  77              		.loc 1 99 0
  78 0040 3D4B     		ldr	r3, .L21+4
  79 0042 1B68     		ldr	r3, [r3]
  80 0044 FB60     		str	r3, [r7, #12]
 100:..\..\..\..\..\..\uCOS-III\Source/os_task.c ****         CPU_CRITICAL_EXIT();
  81              		.loc 1 100 0
  82 0046 3869     		ldr	r0, [r7, #16]
  83 0048 FFF7FEFF 		bl	CPU_SR_Restore
 101:..\..\..\..\..\..\uCOS-III\Source/os_task.c ****         self  = DEF_TRUE;
  84              		.loc 1 101 0
  85 004c 0123     		movs	r3, #1
  86 004e FB75     		strb	r3, [r7, #23]
  87 0050 01E0     		b	.L6
  88              	.L5:
 102:..\..\..\..\..\..\uCOS-III\Source/os_task.c ****     } else {
 103:..\..\..\..\..\..\uCOS-III\Source/os_task.c ****         self  = DEF_FALSE;
  89              		.loc 1 103 0
  90 0052 0023     		movs	r3, #0
  91 0054 FB75     		strb	r3, [r7, #23]
  92              	.L6:
 104:..\..\..\..\..\..\uCOS-III\Source/os_task.c ****     }
 105:..\..\..\..\..\..\uCOS-III\Source/os_task.c **** 
 106:..\..\..\..\..\..\uCOS-III\Source/os_task.c ****     OS_CRITICAL_ENTER();
  93              		.loc 1 106 0
  94 0056 FFF7FEFF 		bl	CPU_SR_Save
  95 005a 3861     		str	r0, [r7, #16]
 107:..\..\..\..\..\..\uCOS-III\Source/os_task.c ****     switch (p_tcb->TaskState) {
  96              		.loc 1 107 0
  97 005c FB68     		ldr	r3, [r7, #12]
  98 005e 93F83630 		ldrb	r3, [r3, #54]	@ zero_extendqisi2
  99 0062 072B     		cmp	r3, #7
 100 0064 53D8     		bhi	.L7
 101 0066 01A2     		adr	r2, .L9
 102 0068 52F823F0 		ldr	pc, [r2, r3, lsl #2]
 103              		.p2align 2
 104              	.L9:
 105 006c 8D000000 		.word	.L8+1
 106 0070 BD000000 		.word	.L10+1
 107 0074 C7000000 		.word	.L11+1
 108 0078 C7000000 		.word	.L11+1
 109 007c BD000000 		.word	.L10+1
 110 0080 BD000000 		.word	.L10+1
 111 0084 C7000000 		.word	.L11+1
 112 0088 C7000000 		.word	.L11+1
 113              		.p2align 1
 114              	.L8:
 108:..\..\..\..\..\..\uCOS-III\Source/os_task.c ****         case OS_TASK_STATE_RDY:
 109:..\..\..\..\..\..\uCOS-III\Source/os_task.c ****              OS_RdyListRemove(p_tcb);                       /* Remove from current priority        
 115              		.loc 1 109 0
 116 008c F868     		ldr	r0, [r7, #12]
 117 008e FFF7FEFF 		bl	OS_RdyListRemove
 110:..\..\..\..\..\..\uCOS-III\Source/os_task.c ****              p_tcb->Prio = prio_new;                        /* Set new task priority               
 118              		.loc 1 110 0
ARM GAS  C:\Users\Aluno\AppData\Local\Temp\ccHJiRYw.s 			page 5


 119 0092 FB68     		ldr	r3, [r7, #12]
 120 0094 FA7A     		ldrb	r2, [r7, #11]
 121 0096 83F83720 		strb	r2, [r3, #55]
 111:..\..\..\..\..\..\uCOS-III\Source/os_task.c ****              OS_PrioInsert(p_tcb->Prio);
 122              		.loc 1 111 0
 123 009a FB68     		ldr	r3, [r7, #12]
 124 009c 93F83730 		ldrb	r3, [r3, #55]	@ zero_extendqisi2
 125 00a0 1846     		mov	r0, r3
 126 00a2 FFF7FEFF 		bl	OS_PrioInsert
 112:..\..\..\..\..\..\uCOS-III\Source/os_task.c ****              if (self == DEF_TRUE) {
 127              		.loc 1 112 0
 128 00a6 FB7D     		ldrb	r3, [r7, #23]	@ zero_extendqisi2
 129 00a8 012B     		cmp	r3, #1
 130 00aa 03D1     		bne	.L12
 113:..\..\..\..\..\..\uCOS-III\Source/os_task.c ****                  OS_RdyListInsertHead(p_tcb);
 131              		.loc 1 113 0
 132 00ac F868     		ldr	r0, [r7, #12]
 133 00ae FFF7FEFF 		bl	OS_RdyListInsertHead
 114:..\..\..\..\..\..\uCOS-III\Source/os_task.c ****              } else {
 115:..\..\..\..\..\..\uCOS-III\Source/os_task.c ****                  OS_RdyListInsertTail(p_tcb);
 116:..\..\..\..\..\..\uCOS-III\Source/os_task.c ****              }
 117:..\..\..\..\..\..\uCOS-III\Source/os_task.c ****              break;
 134              		.loc 1 117 0
 135 00b2 34E0     		b	.L14
 136              	.L12:
 115:..\..\..\..\..\..\uCOS-III\Source/os_task.c ****              }
 137              		.loc 1 115 0
 138 00b4 F868     		ldr	r0, [r7, #12]
 139 00b6 FFF7FEFF 		bl	OS_RdyListInsertTail
 140              		.loc 1 117 0
 141 00ba 30E0     		b	.L14
 142              	.L10:
 118:..\..\..\..\..\..\uCOS-III\Source/os_task.c **** 
 119:..\..\..\..\..\..\uCOS-III\Source/os_task.c ****         case OS_TASK_STATE_DLY:                             /* Nothing to do except change the prio
 120:..\..\..\..\..\..\uCOS-III\Source/os_task.c ****         case OS_TASK_STATE_SUSPENDED:
 121:..\..\..\..\..\..\uCOS-III\Source/os_task.c ****         case OS_TASK_STATE_DLY_SUSPENDED:
 122:..\..\..\..\..\..\uCOS-III\Source/os_task.c ****              p_tcb->Prio = prio_new;                        /* Set new task priority               
 143              		.loc 1 122 0
 144 00bc FB68     		ldr	r3, [r7, #12]
 145 00be FA7A     		ldrb	r2, [r7, #11]
 146 00c0 83F83720 		strb	r2, [r3, #55]
 123:..\..\..\..\..\..\uCOS-III\Source/os_task.c ****              break;
 147              		.loc 1 123 0
 148 00c4 2BE0     		b	.L14
 149              	.L11:
 124:..\..\..\..\..\..\uCOS-III\Source/os_task.c **** 
 125:..\..\..\..\..\..\uCOS-III\Source/os_task.c ****         case OS_TASK_STATE_PEND:
 126:..\..\..\..\..\..\uCOS-III\Source/os_task.c ****         case OS_TASK_STATE_PEND_TIMEOUT:
 127:..\..\..\..\..\..\uCOS-III\Source/os_task.c ****         case OS_TASK_STATE_PEND_SUSPENDED:
 128:..\..\..\..\..\..\uCOS-III\Source/os_task.c ****         case OS_TASK_STATE_PEND_TIMEOUT_SUSPENDED:
 129:..\..\..\..\..\..\uCOS-III\Source/os_task.c ****              switch (p_tcb->PendOn) {                       /* What to do depends on what we are pe
 150              		.loc 1 129 0
 151 00c6 FB68     		ldr	r3, [r7, #12]
 152 00c8 93F83430 		ldrb	r3, [r3, #52]	@ zero_extendqisi2
 153 00cc 013B     		subs	r3, r3, #1
 154 00ce 062B     		cmp	r3, #6
 155 00d0 1BD8     		bhi	.L20
ARM GAS  C:\Users\Aluno\AppData\Local\Temp\ccHJiRYw.s 			page 6


 156 00d2 01A2     		adr	r2, .L17
 157 00d4 52F823F0 		ldr	pc, [r2, r3, lsl #2]
 158              		.p2align 2
 159              	.L17:
 160 00d8 F5000000 		.word	.L16+1
 161 00dc F5000000 		.word	.L16+1
 162 00e0 FF000000 		.word	.L18+1
 163 00e4 FF000000 		.word	.L18+1
 164 00e8 FF000000 		.word	.L18+1
 165 00ec FF000000 		.word	.L18+1
 166 00f0 F5000000 		.word	.L16+1
 167              		.p2align 1
 168              	.L16:
 130:..\..\..\..\..\..\uCOS-III\Source/os_task.c ****                  case OS_TASK_PEND_ON_TASK_Q:               /* Nothing to do except change the prio
 131:..\..\..\..\..\..\uCOS-III\Source/os_task.c ****                  case OS_TASK_PEND_ON_TASK_SEM:
 132:..\..\..\..\..\..\uCOS-III\Source/os_task.c ****                  case OS_TASK_PEND_ON_FLAG:
 133:..\..\..\..\..\..\uCOS-III\Source/os_task.c ****                       p_tcb->Prio = prio_new;               /* Set new task priority               
 169              		.loc 1 133 0
 170 00f4 FB68     		ldr	r3, [r7, #12]
 171 00f6 FA7A     		ldrb	r2, [r7, #11]
 172 00f8 83F83720 		strb	r2, [r3, #55]
 134:..\..\..\..\..\..\uCOS-III\Source/os_task.c ****                       break;
 173              		.loc 1 134 0
 174 00fc 06E0     		b	.L19
 175              	.L18:
 135:..\..\..\..\..\..\uCOS-III\Source/os_task.c **** 
 136:..\..\..\..\..\..\uCOS-III\Source/os_task.c ****                  case OS_TASK_PEND_ON_MUTEX:
 137:..\..\..\..\..\..\uCOS-III\Source/os_task.c ****                  case OS_TASK_PEND_ON_MULTI:
 138:..\..\..\..\..\..\uCOS-III\Source/os_task.c ****                  case OS_TASK_PEND_ON_Q:
 139:..\..\..\..\..\..\uCOS-III\Source/os_task.c ****                  case OS_TASK_PEND_ON_SEM:
 140:..\..\..\..\..\..\uCOS-III\Source/os_task.c ****                       OS_PendListChangePrio(p_tcb,
 176              		.loc 1 140 0
 177 00fe FB7A     		ldrb	r3, [r7, #11]	@ zero_extendqisi2
 178 0100 1946     		mov	r1, r3
 179 0102 F868     		ldr	r0, [r7, #12]
 180 0104 FFF7FEFF 		bl	OS_PendListChangePrio
 141:..\..\..\..\..\..\uCOS-III\Source/os_task.c ****                                             prio_new);
 142:..\..\..\..\..\..\uCOS-III\Source/os_task.c ****                       break;
 181              		.loc 1 142 0
 182 0108 00E0     		b	.L19
 183              	.L20:
 143:..\..\..\..\..\..\uCOS-III\Source/os_task.c **** 
 144:..\..\..\..\..\..\uCOS-III\Source/os_task.c ****                  default:
 145:..\..\..\..\..\..\uCOS-III\Source/os_task.c ****                       break;
 184              		.loc 1 145 0
 185 010a 00BF     		nop
 186              	.L19:
 146:..\..\..\..\..\..\uCOS-III\Source/os_task.c ****             }
 147:..\..\..\..\..\..\uCOS-III\Source/os_task.c ****              break;
 187              		.loc 1 147 0 discriminator 1
 188 010c 07E0     		b	.L14
 189              	.L7:
 148:..\..\..\..\..\..\uCOS-III\Source/os_task.c **** 
 149:..\..\..\..\..\..\uCOS-III\Source/os_task.c ****         default:
 150:..\..\..\..\..\..\uCOS-III\Source/os_task.c ****              OS_CRITICAL_EXIT();
 190              		.loc 1 150 0
 191 010e 3869     		ldr	r0, [r7, #16]
ARM GAS  C:\Users\Aluno\AppData\Local\Temp\ccHJiRYw.s 			page 7


 192 0110 FFF7FEFF 		bl	CPU_SR_Restore
 151:..\..\..\..\..\..\uCOS-III\Source/os_task.c ****             *p_err = OS_ERR_STATE_INVALID;
 193              		.loc 1 151 0
 194 0114 7B68     		ldr	r3, [r7, #4]
 195 0116 46F62D62 		movw	r2, #28205
 196 011a 1A80     		strh	r2, [r3]	@ movhi
 152:..\..\..\..\..\..\uCOS-III\Source/os_task.c ****              return;
 197              		.loc 1 152 0
 198 011c 07E0     		b	.L1
 199              	.L14:
 153:..\..\..\..\..\..\uCOS-III\Source/os_task.c ****     }
 154:..\..\..\..\..\..\uCOS-III\Source/os_task.c **** 
 155:..\..\..\..\..\..\uCOS-III\Source/os_task.c ****     OS_CRITICAL_EXIT_NO_SCHED();
 200              		.loc 1 155 0
 201 011e 3869     		ldr	r0, [r7, #16]
 202 0120 FFF7FEFF 		bl	CPU_SR_Restore
 156:..\..\..\..\..\..\uCOS-III\Source/os_task.c **** 
 157:..\..\..\..\..\..\uCOS-III\Source/os_task.c ****     OSSched();                                              /* Run highest priority task ready     
 203              		.loc 1 157 0
 204 0124 FFF7FEFF 		bl	OSSched
 158:..\..\..\..\..\..\uCOS-III\Source/os_task.c **** 
 159:..\..\..\..\..\..\uCOS-III\Source/os_task.c ****    *p_err = OS_ERR_NONE;
 205              		.loc 1 159 0
 206 0128 7B68     		ldr	r3, [r7, #4]
 207 012a 0022     		movs	r2, #0
 208 012c 1A80     		strh	r2, [r3]	@ movhi
 209              	.L1:
 160:..\..\..\..\..\..\uCOS-III\Source/os_task.c **** }
 210              		.loc 1 160 0
 211 012e 1837     		adds	r7, r7, #24
 212              		.cfi_def_cfa_offset 8
 213 0130 BD46     		mov	sp, r7
 214              		.cfi_def_cfa_register 13
 215              		@ sp needed
 216 0132 80BD     		pop	{r7, pc}
 217              	.L22:
 218              		.align	2
 219              	.L21:
 220 0134 00000000 		.word	OSIntNestingCtr
 221 0138 00000000 		.word	OSTCBCurPtr
 222              		.cfi_endproc
 223              	.LFE0:
 224              		.size	OSTaskChangePrio, .-OSTaskChangePrio
 225              		.section	.text.OSTaskCreate,"ax",%progbits
 226              		.align	2
 227              		.global	OSTaskCreate
 228              		.thumb
 229              		.thumb_func
 230              		.type	OSTaskCreate, %function
 231              	OSTaskCreate:
 232              	.LFB1:
 161:..\..\..\..\..\..\uCOS-III\Source/os_task.c **** #endif
 162:..\..\..\..\..\..\uCOS-III\Source/os_task.c **** 
 163:..\..\..\..\..\..\uCOS-III\Source/os_task.c **** /*$PAGE*/
 164:..\..\..\..\..\..\uCOS-III\Source/os_task.c **** /*
 165:..\..\..\..\..\..\uCOS-III\Source/os_task.c **** ***************************************************************************************************
 166:..\..\..\..\..\..\uCOS-III\Source/os_task.c **** *                                                    CREATE A TASK
ARM GAS  C:\Users\Aluno\AppData\Local\Temp\ccHJiRYw.s 			page 8


 167:..\..\..\..\..\..\uCOS-III\Source/os_task.c **** *
 168:..\..\..\..\..\..\uCOS-III\Source/os_task.c **** * Description: This function is used to have uC/OS-III manage the execution of a task.  Tasks can e
 169:..\..\..\..\..\..\uCOS-III\Source/os_task.c **** *              prior to the start of multitasking or by a running task.  A task cannot be created b
 170:..\..\..\..\..\..\uCOS-III\Source/os_task.c **** *
 171:..\..\..\..\..\..\uCOS-III\Source/os_task.c **** * Arguments  : p_tcb          is a pointer to the task's TCB
 172:..\..\..\..\..\..\uCOS-III\Source/os_task.c **** *
 173:..\..\..\..\..\..\uCOS-III\Source/os_task.c **** *              p_name         is a pointer to an ASCII string to provide a name to the task.
 174:..\..\..\..\..\..\uCOS-III\Source/os_task.c **** *
 175:..\..\..\..\..\..\uCOS-III\Source/os_task.c **** *              p_task         is a pointer to the task's code
 176:..\..\..\..\..\..\uCOS-III\Source/os_task.c **** *
 177:..\..\..\..\..\..\uCOS-III\Source/os_task.c **** *              p_arg          is a pointer to an optional data area which can be used to pass param
 178:..\..\..\..\..\..\uCOS-III\Source/os_task.c **** *                             the task when the task first executes.  Where the task is concerned i
 179:..\..\..\..\..\..\uCOS-III\Source/os_task.c **** *                             it was invoked and passed the argument 'p_arg' as follows:
 180:..\..\..\..\..\..\uCOS-III\Source/os_task.c **** *
 181:..\..\..\..\..\..\uCOS-III\Source/os_task.c **** *                                 void Task (void *p_arg)
 182:..\..\..\..\..\..\uCOS-III\Source/os_task.c **** *                                 {
 183:..\..\..\..\..\..\uCOS-III\Source/os_task.c **** *                                     for (;;) {
 184:..\..\..\..\..\..\uCOS-III\Source/os_task.c **** *                                         Task code;
 185:..\..\..\..\..\..\uCOS-III\Source/os_task.c **** *                                     }
 186:..\..\..\..\..\..\uCOS-III\Source/os_task.c **** *                                 }
 187:..\..\..\..\..\..\uCOS-III\Source/os_task.c **** *
 188:..\..\..\..\..\..\uCOS-III\Source/os_task.c **** *              prio           is the task's priority.  A unique priority MUST be assigned to each t
 189:..\..\..\..\..\..\uCOS-III\Source/os_task.c **** *                             lower the number, the higher the priority.
 190:..\..\..\..\..\..\uCOS-III\Source/os_task.c **** *
 191:..\..\..\..\..\..\uCOS-III\Source/os_task.c **** *              p_stk_base     is a pointer to the base address of the stack (i.e. low address).
 192:..\..\..\..\..\..\uCOS-III\Source/os_task.c **** *
 193:..\..\..\..\..\..\uCOS-III\Source/os_task.c **** *              stk_limit      is the number of stack elements to set as 'watermark' limit for the s
 194:..\..\..\..\..\..\uCOS-III\Source/os_task.c **** *                             represents the number of CPU_STK entries left before the stack is ful
 195:..\..\..\..\..\..\uCOS-III\Source/os_task.c **** *                             specifying 10% of the 'stk_size' value indicates that the stack limit
 196:..\..\..\..\..\..\uCOS-III\Source/os_task.c **** *                             when the stack reaches 90% full.
 197:..\..\..\..\..\..\uCOS-III\Source/os_task.c **** *
 198:..\..\..\..\..\..\uCOS-III\Source/os_task.c **** *              stk_size       is the size of the stack in number of elements.  If CPU_STK is set to
 199:..\..\..\..\..\..\uCOS-III\Source/os_task.c **** *                             'stk_size' corresponds to the number of bytes available.  If CPU_STK 
 200:..\..\..\..\..\..\uCOS-III\Source/os_task.c **** *                             CPU_INT16U, 'stk_size' contains the number of 16-bit entries availabl
 201:..\..\..\..\..\..\uCOS-III\Source/os_task.c **** *                             CPU_STK is set to CPU_INT32U, 'stk_size' contains the number of 32-bi
 202:..\..\..\..\..\..\uCOS-III\Source/os_task.c **** *                             available on the stack.
 203:..\..\..\..\..\..\uCOS-III\Source/os_task.c **** *
 204:..\..\..\..\..\..\uCOS-III\Source/os_task.c **** *              q_size         is the maximum number of messages that can be sent to the task
 205:..\..\..\..\..\..\uCOS-III\Source/os_task.c **** *
 206:..\..\..\..\..\..\uCOS-III\Source/os_task.c **** *              time_quanta    amount of time (in ticks) for time slice when round-robin between tas
 207:..\..\..\..\..\..\uCOS-III\Source/os_task.c **** *                             the default.
 208:..\..\..\..\..\..\uCOS-III\Source/os_task.c **** *
 209:..\..\..\..\..\..\uCOS-III\Source/os_task.c **** *              p_ext          is a pointer to a user supplied memory location which is used as a TC
 210:..\..\..\..\..\..\uCOS-III\Source/os_task.c **** *                             For example, this user memory can hold the contents of floating-point
 211:..\..\..\..\..\..\uCOS-III\Source/os_task.c **** *                             during a context switch, the time each task takes to execute, the num
 212:..\..\..\..\..\..\uCOS-III\Source/os_task.c **** *                             the task has been switched-in, etc.
 213:..\..\..\..\..\..\uCOS-III\Source/os_task.c **** *
 214:..\..\..\..\..\..\uCOS-III\Source/os_task.c **** *              opt            contains additional information (or options) about the behavior of th
 215:..\..\..\..\..\..\uCOS-III\Source/os_task.c **** *                             See OS_OPT_TASK_xxx in OS.H.  Current choices are:
 216:..\..\..\..\..\..\uCOS-III\Source/os_task.c **** *
 217:..\..\..\..\..\..\uCOS-III\Source/os_task.c **** *                                 OS_OPT_TASK_NONE            No option selected
 218:..\..\..\..\..\..\uCOS-III\Source/os_task.c **** *                                 OS_OPT_TASK_STK_CHK         Stack checking to be allowed for the 
 219:..\..\..\..\..\..\uCOS-III\Source/os_task.c **** *                                 OS_OPT_TASK_STK_CLR         Clear the stack when the task is crea
 220:..\..\..\..\..\..\uCOS-III\Source/os_task.c **** *                                 OS_OPT_TASK_SAVE_FP         If the CPU has floating-point registe
 221:..\..\..\..\..\..\uCOS-III\Source/os_task.c **** *                                                             during a context switch.
 222:..\..\..\..\..\..\uCOS-III\Source/os_task.c **** *                                 OS_OPT_TASK_NO_TLS          If the caller doesn't want or need TL
 223:..\..\..\..\..\..\uCOS-III\Source/os_task.c **** *                                                             Storage) support for the task.  If yo
ARM GAS  C:\Users\Aluno\AppData\Local\Temp\ccHJiRYw.s 			page 9


 224:..\..\..\..\..\..\uCOS-III\Source/os_task.c **** *                                                             option, TLS will be supported by defa
 225:..\..\..\..\..\..\uCOS-III\Source/os_task.c **** *
 226:..\..\..\..\..\..\uCOS-III\Source/os_task.c **** *              p_err          is a pointer to an error code that will be set during this call.  The
 227:..\..\..\..\..\..\uCOS-III\Source/os_task.c **** *                             to by 'p_err' can be:
 228:..\..\..\..\..\..\uCOS-III\Source/os_task.c **** *
 229:..\..\..\..\..\..\uCOS-III\Source/os_task.c **** *                                 OS_ERR_NONE                    if the function was successful.
 230:..\..\..\..\..\..\uCOS-III\Source/os_task.c **** *                                 OS_ERR_ILLEGAL_CREATE_RUN_TIME if you are trying to create the ta
 231:..\..\..\..\..\..\uCOS-III\Source/os_task.c **** *                                                                   OSSafetyCriticalStart().
 232:..\..\..\..\..\..\uCOS-III\Source/os_task.c **** *                                 OS_ERR_NAME                    if 'p_name' is a NULL pointer
 233:..\..\..\..\..\..\uCOS-III\Source/os_task.c **** *                                 OS_ERR_PRIO_INVALID            if the priority you specify is hig
 234:..\..\..\..\..\..\uCOS-III\Source/os_task.c **** *                                                                   allowed (i.e. >= OS_CFG_PRIO_MA
 235:..\..\..\..\..\..\uCOS-III\Source/os_task.c **** *                                                                if OS_CFG_ISR_POST_DEFERRED_EN is 
 236:..\..\..\..\..\..\uCOS-III\Source/os_task.c **** *                                                                   to use priority 0 which is rese
 237:..\..\..\..\..\..\uCOS-III\Source/os_task.c **** *                                 OS_ERR_STK_INVALID             if you specified a NULL pointer fo
 238:..\..\..\..\..\..\uCOS-III\Source/os_task.c **** *                                 OS_ERR_STK_SIZE_INVALID        if you specified zero for the 'stk
 239:..\..\..\..\..\..\uCOS-III\Source/os_task.c **** *                                 OS_ERR_STK_LIMIT_INVALID       if you specified a 'stk_limit' gre
 240:..\..\..\..\..\..\uCOS-III\Source/os_task.c **** *                                                                   to 'stk_size'
 241:..\..\..\..\..\..\uCOS-III\Source/os_task.c **** *                                 OS_ERR_TASK_CREATE_ISR         if you tried to create a task from
 242:..\..\..\..\..\..\uCOS-III\Source/os_task.c **** *                                 OS_ERR_TASK_INVALID            if you specified a NULL pointer fo
 243:..\..\..\..\..\..\uCOS-III\Source/os_task.c **** *                                 OS_ERR_TCB_INVALID             if you specified a NULL pointer fo
 244:..\..\..\..\..\..\uCOS-III\Source/os_task.c **** *
 245:..\..\..\..\..\..\uCOS-III\Source/os_task.c **** * Returns    : A pointer to the TCB of the task created.  This pointer must be used as an ID (i.e h
 246:..\..\..\..\..\..\uCOS-III\Source/os_task.c **** ***************************************************************************************************
 247:..\..\..\..\..\..\uCOS-III\Source/os_task.c **** */
 248:..\..\..\..\..\..\uCOS-III\Source/os_task.c **** /*$PAGE*/
 249:..\..\..\..\..\..\uCOS-III\Source/os_task.c **** void  OSTaskCreate (OS_TCB        *p_tcb,
 250:..\..\..\..\..\..\uCOS-III\Source/os_task.c ****                     CPU_CHAR      *p_name,
 251:..\..\..\..\..\..\uCOS-III\Source/os_task.c ****                     OS_TASK_PTR    p_task,
 252:..\..\..\..\..\..\uCOS-III\Source/os_task.c ****                     void          *p_arg,
 253:..\..\..\..\..\..\uCOS-III\Source/os_task.c ****                     OS_PRIO        prio,
 254:..\..\..\..\..\..\uCOS-III\Source/os_task.c ****                     CPU_STK       *p_stk_base,
 255:..\..\..\..\..\..\uCOS-III\Source/os_task.c ****                     CPU_STK_SIZE   stk_limit,
 256:..\..\..\..\..\..\uCOS-III\Source/os_task.c ****                     CPU_STK_SIZE   stk_size,
 257:..\..\..\..\..\..\uCOS-III\Source/os_task.c ****                     OS_MSG_QTY     q_size,
 258:..\..\..\..\..\..\uCOS-III\Source/os_task.c ****                     OS_TICK        time_quanta,
 259:..\..\..\..\..\..\uCOS-III\Source/os_task.c ****                     void          *p_ext,
 260:..\..\..\..\..\..\uCOS-III\Source/os_task.c ****                     OS_OPT         opt,
 261:..\..\..\..\..\..\uCOS-III\Source/os_task.c ****                     OS_ERR        *p_err)
 262:..\..\..\..\..\..\uCOS-III\Source/os_task.c **** {
 233              		.loc 1 262 0
 234              		.cfi_startproc
 235              		@ args = 36, pretend = 0, frame = 40
 236              		@ frame_needed = 1, uses_anonymous_args = 0
 237 0000 80B5     		push	{r7, lr}
 238              		.cfi_def_cfa_offset 8
 239              		.cfi_offset 7, -8
 240              		.cfi_offset 14, -4
 241 0002 8CB0     		sub	sp, sp, #48
 242              		.cfi_def_cfa_offset 56
 243 0004 02AF     		add	r7, sp, #8
 244              		.cfi_def_cfa 7, 48
 245 0006 F860     		str	r0, [r7, #12]
 246 0008 B960     		str	r1, [r7, #8]
 247 000a 7A60     		str	r2, [r7, #4]
 248 000c 3B60     		str	r3, [r7]
 263:..\..\..\..\..\..\uCOS-III\Source/os_task.c ****     CPU_STK_SIZE   i;
 264:..\..\..\..\..\..\uCOS-III\Source/os_task.c **** #if OS_CFG_TASK_REG_TBL_SIZE > 0u
ARM GAS  C:\Users\Aluno\AppData\Local\Temp\ccHJiRYw.s 			page 10


 265:..\..\..\..\..\..\uCOS-III\Source/os_task.c ****     OS_REG_ID      reg_nbr;
 266:..\..\..\..\..\..\uCOS-III\Source/os_task.c **** #endif
 267:..\..\..\..\..\..\uCOS-III\Source/os_task.c **** #if defined(OS_CFG_TLS_TBL_SIZE) && (OS_CFG_TLS_TBL_SIZE > 0u)
 268:..\..\..\..\..\..\uCOS-III\Source/os_task.c ****     OS_TLS_ID      id;
 269:..\..\..\..\..\..\uCOS-III\Source/os_task.c **** #endif
 270:..\..\..\..\..\..\uCOS-III\Source/os_task.c **** 
 271:..\..\..\..\..\..\uCOS-III\Source/os_task.c ****     CPU_STK       *p_sp;
 272:..\..\..\..\..\..\uCOS-III\Source/os_task.c ****     CPU_STK       *p_stk_limit;
 273:..\..\..\..\..\..\uCOS-III\Source/os_task.c ****     CPU_SR_ALLOC();
 249              		.loc 1 273 0
 250 000e 0023     		movs	r3, #0
 251 0010 BB61     		str	r3, [r7, #24]
 274:..\..\..\..\..\..\uCOS-III\Source/os_task.c **** 
 275:..\..\..\..\..\..\uCOS-III\Source/os_task.c **** 
 276:..\..\..\..\..\..\uCOS-III\Source/os_task.c **** 
 277:..\..\..\..\..\..\uCOS-III\Source/os_task.c **** #ifdef OS_SAFETY_CRITICAL
 278:..\..\..\..\..\..\uCOS-III\Source/os_task.c ****     if (p_err == (OS_ERR *)0) {
 279:..\..\..\..\..\..\uCOS-III\Source/os_task.c ****         OS_SAFETY_CRITICAL_EXCEPTION();
 280:..\..\..\..\..\..\uCOS-III\Source/os_task.c ****         return;
 281:..\..\..\..\..\..\uCOS-III\Source/os_task.c ****     }
 282:..\..\..\..\..\..\uCOS-III\Source/os_task.c **** #endif
 283:..\..\..\..\..\..\uCOS-III\Source/os_task.c **** 
 284:..\..\..\..\..\..\uCOS-III\Source/os_task.c **** #ifdef OS_SAFETY_CRITICAL_IEC61508
 285:..\..\..\..\..\..\uCOS-III\Source/os_task.c ****     if (OSSafetyCriticalStartFlag == DEF_TRUE) {
 286:..\..\..\..\..\..\uCOS-III\Source/os_task.c ****        *p_err = OS_ERR_ILLEGAL_CREATE_RUN_TIME;
 287:..\..\..\..\..\..\uCOS-III\Source/os_task.c ****         return;
 288:..\..\..\..\..\..\uCOS-III\Source/os_task.c ****     }
 289:..\..\..\..\..\..\uCOS-III\Source/os_task.c **** #endif
 290:..\..\..\..\..\..\uCOS-III\Source/os_task.c **** 
 291:..\..\..\..\..\..\uCOS-III\Source/os_task.c **** #if OS_CFG_CALLED_FROM_ISR_CHK_EN > 0u
 292:..\..\..\..\..\..\uCOS-III\Source/os_task.c ****     if (OSIntNestingCtr > (OS_NESTING_CTR)0) {              /* ---------- CANNOT CREATE A TASK FROM
 252              		.loc 1 292 0
 253 0012 794B     		ldr	r3, .L41
 254 0014 1B78     		ldrb	r3, [r3]	@ zero_extendqisi2
 255 0016 002B     		cmp	r3, #0
 256 0018 04D0     		beq	.L24
 293:..\..\..\..\..\..\uCOS-III\Source/os_task.c ****        *p_err = OS_ERR_TASK_CREATE_ISR;
 257              		.loc 1 293 0
 258 001a 3B6D     		ldr	r3, [r7, #80]
 259 001c 47F24A12 		movw	r2, #29002
 260 0020 1A80     		strh	r2, [r3]	@ movhi
 294:..\..\..\..\..\..\uCOS-III\Source/os_task.c ****         return;
 261              		.loc 1 294 0
 262 0022 E6E0     		b	.L23
 263              	.L24:
 295:..\..\..\..\..\..\uCOS-III\Source/os_task.c ****     }
 296:..\..\..\..\..\..\uCOS-III\Source/os_task.c **** #endif
 297:..\..\..\..\..\..\uCOS-III\Source/os_task.c **** 
 298:..\..\..\..\..\..\uCOS-III\Source/os_task.c **** #if OS_CFG_ARG_CHK_EN > 0u                                  /* ---------------- VALIDATE ARGUMENTS 
 299:..\..\..\..\..\..\uCOS-III\Source/os_task.c ****     if (p_tcb == (OS_TCB *)0) {                             /* User must supply a valid OS_TCB     
 264              		.loc 1 299 0
 265 0024 FB68     		ldr	r3, [r7, #12]
 266 0026 002B     		cmp	r3, #0
 267 0028 04D1     		bne	.L26
 300:..\..\..\..\..\..\uCOS-III\Source/os_task.c ****        *p_err = OS_ERR_TCB_INVALID;
 268              		.loc 1 300 0
 269 002a 3B6D     		ldr	r3, [r7, #80]
ARM GAS  C:\Users\Aluno\AppData\Local\Temp\ccHJiRYw.s 			page 11


 270 002c 47F2AD12 		movw	r2, #29101
 271 0030 1A80     		strh	r2, [r3]	@ movhi
 301:..\..\..\..\..\..\uCOS-III\Source/os_task.c ****         return;
 272              		.loc 1 301 0
 273 0032 DEE0     		b	.L23
 274              	.L26:
 302:..\..\..\..\..\..\uCOS-III\Source/os_task.c ****     }
 303:..\..\..\..\..\..\uCOS-III\Source/os_task.c ****     if (p_task == (OS_TASK_PTR)0) {                         /* User must supply a valid task       
 275              		.loc 1 303 0
 276 0034 7B68     		ldr	r3, [r7, #4]
 277 0036 002B     		cmp	r3, #0
 278 0038 04D1     		bne	.L27
 304:..\..\..\..\..\..\uCOS-III\Source/os_task.c ****        *p_err = OS_ERR_TASK_INVALID;
 279              		.loc 1 304 0
 280 003a 3B6D     		ldr	r3, [r7, #80]
 281 003c 47F24F12 		movw	r2, #29007
 282 0040 1A80     		strh	r2, [r3]	@ movhi
 305:..\..\..\..\..\..\uCOS-III\Source/os_task.c ****         return;
 283              		.loc 1 305 0
 284 0042 D6E0     		b	.L23
 285              	.L27:
 306:..\..\..\..\..\..\uCOS-III\Source/os_task.c ****     }
 307:..\..\..\..\..\..\uCOS-III\Source/os_task.c ****     if (p_stk_base == (CPU_STK *)0) {                       /* User must supply a valid stack base 
 286              		.loc 1 307 0
 287 0044 7B6B     		ldr	r3, [r7, #52]
 288 0046 002B     		cmp	r3, #0
 289 0048 04D1     		bne	.L28
 308:..\..\..\..\..\..\uCOS-III\Source/os_task.c ****        *p_err = OS_ERR_STK_INVALID;
 290              		.loc 1 308 0
 291 004a 3B6D     		ldr	r3, [r7, #80]
 292 004c 46F62F62 		movw	r2, #28207
 293 0050 1A80     		strh	r2, [r3]	@ movhi
 309:..\..\..\..\..\..\uCOS-III\Source/os_task.c ****         return;
 294              		.loc 1 309 0
 295 0052 CEE0     		b	.L23
 296              	.L28:
 310:..\..\..\..\..\..\uCOS-III\Source/os_task.c ****     }
 311:..\..\..\..\..\..\uCOS-III\Source/os_task.c ****     if (stk_size < OSCfg_StkSizeMin) {                      /* User must supply a valid minimum sta
 297              		.loc 1 311 0
 298 0054 694B     		ldr	r3, .L41+4
 299 0056 1B68     		ldr	r3, [r3]
 300 0058 FA6B     		ldr	r2, [r7, #60]
 301 005a 9A42     		cmp	r2, r3
 302 005c 04D2     		bcs	.L29
 312:..\..\..\..\..\..\uCOS-III\Source/os_task.c ****        *p_err = OS_ERR_STK_SIZE_INVALID;
 303              		.loc 1 312 0
 304 005e 3B6D     		ldr	r3, [r7, #80]
 305 0060 46F63062 		movw	r2, #28208
 306 0064 1A80     		strh	r2, [r3]	@ movhi
 313:..\..\..\..\..\..\uCOS-III\Source/os_task.c ****         return;
 307              		.loc 1 313 0
 308 0066 C4E0     		b	.L23
 309              	.L29:
 314:..\..\..\..\..\..\uCOS-III\Source/os_task.c ****     }
 315:..\..\..\..\..\..\uCOS-III\Source/os_task.c ****     if (stk_limit >= stk_size) {                            /* User must supply a valid stack limit
 310              		.loc 1 315 0
 311 0068 BA6B     		ldr	r2, [r7, #56]
ARM GAS  C:\Users\Aluno\AppData\Local\Temp\ccHJiRYw.s 			page 12


 312 006a FB6B     		ldr	r3, [r7, #60]
 313 006c 9A42     		cmp	r2, r3
 314 006e 04D3     		bcc	.L30
 316:..\..\..\..\..\..\uCOS-III\Source/os_task.c ****        *p_err = OS_ERR_STK_LIMIT_INVALID;
 315              		.loc 1 316 0
 316 0070 3B6D     		ldr	r3, [r7, #80]
 317 0072 46F63162 		movw	r2, #28209
 318 0076 1A80     		strh	r2, [r3]	@ movhi
 317:..\..\..\..\..\..\uCOS-III\Source/os_task.c ****         return;
 319              		.loc 1 317 0
 320 0078 BBE0     		b	.L23
 321              	.L30:
 318:..\..\..\..\..\..\uCOS-III\Source/os_task.c ****     }
 319:..\..\..\..\..\..\uCOS-III\Source/os_task.c ****     if (prio >= OS_CFG_PRIO_MAX) {                          /* Priority must be within 0 and OS_CFG
 322              		.loc 1 319 0
 323 007a 97F83030 		ldrb	r3, [r7, #48]	@ zero_extendqisi2
 324 007e 072B     		cmp	r3, #7
 325 0080 04D9     		bls	.L31
 320:..\..\..\..\..\..\uCOS-III\Source/os_task.c ****        *p_err = OS_ERR_PRIO_INVALID;
 326              		.loc 1 320 0
 327 0082 3B6D     		ldr	r3, [r7, #80]
 328 0084 46F27322 		movw	r2, #25203
 329 0088 1A80     		strh	r2, [r3]	@ movhi
 321:..\..\..\..\..\..\uCOS-III\Source/os_task.c ****         return;
 330              		.loc 1 321 0
 331 008a B2E0     		b	.L23
 332              	.L31:
 322:..\..\..\..\..\..\uCOS-III\Source/os_task.c ****     }
 323:..\..\..\..\..\..\uCOS-III\Source/os_task.c **** #endif
 324:..\..\..\..\..\..\uCOS-III\Source/os_task.c **** 
 325:..\..\..\..\..\..\uCOS-III\Source/os_task.c **** #if OS_CFG_ISR_POST_DEFERRED_EN > 0u
 326:..\..\..\..\..\..\uCOS-III\Source/os_task.c ****     if (prio == (OS_PRIO)0) {
 327:..\..\..\..\..\..\uCOS-III\Source/os_task.c ****         if (p_tcb != &OSIntQTaskTCB) {
 328:..\..\..\..\..\..\uCOS-III\Source/os_task.c ****            *p_err = OS_ERR_PRIO_INVALID;                    /* Not allowed to use priority 0       
 329:..\..\..\..\..\..\uCOS-III\Source/os_task.c ****             return;
 330:..\..\..\..\..\..\uCOS-III\Source/os_task.c ****         }
 331:..\..\..\..\..\..\uCOS-III\Source/os_task.c ****     }
 332:..\..\..\..\..\..\uCOS-III\Source/os_task.c **** #endif
 333:..\..\..\..\..\..\uCOS-III\Source/os_task.c **** 
 334:..\..\..\..\..\..\uCOS-III\Source/os_task.c ****     if (prio == (OS_CFG_PRIO_MAX - 1u)) {
 333              		.loc 1 334 0
 334 008c 97F83030 		ldrb	r3, [r7, #48]	@ zero_extendqisi2
 335 0090 072B     		cmp	r3, #7
 336 0092 08D1     		bne	.L32
 335:..\..\..\..\..\..\uCOS-III\Source/os_task.c ****         if (p_tcb != &OSIdleTaskTCB) {
 337              		.loc 1 335 0
 338 0094 FB68     		ldr	r3, [r7, #12]
 339 0096 5A4A     		ldr	r2, .L41+8
 340 0098 9342     		cmp	r3, r2
 341 009a 04D0     		beq	.L32
 336:..\..\..\..\..\..\uCOS-III\Source/os_task.c ****            *p_err = OS_ERR_PRIO_INVALID;                    /* Not allowed to use same priority as 
 342              		.loc 1 336 0
 343 009c 3B6D     		ldr	r3, [r7, #80]
 344 009e 46F27322 		movw	r2, #25203
 345 00a2 1A80     		strh	r2, [r3]	@ movhi
 337:..\..\..\..\..\..\uCOS-III\Source/os_task.c ****             return;
 346              		.loc 1 337 0
ARM GAS  C:\Users\Aluno\AppData\Local\Temp\ccHJiRYw.s 			page 13


 347 00a4 A5E0     		b	.L23
 348              	.L32:
 338:..\..\..\..\..\..\uCOS-III\Source/os_task.c ****         }
 339:..\..\..\..\..\..\uCOS-III\Source/os_task.c ****     }
 340:..\..\..\..\..\..\uCOS-III\Source/os_task.c **** 
 341:..\..\..\..\..\..\uCOS-III\Source/os_task.c ****     OS_TaskInitTCB(p_tcb);                                  /* Initialize the TCB to default values
 349              		.loc 1 341 0
 350 00a6 F868     		ldr	r0, [r7, #12]
 351 00a8 FFF7FEFF 		bl	OS_TaskInitTCB
 342:..\..\..\..\..\..\uCOS-III\Source/os_task.c **** 
 343:..\..\..\..\..\..\uCOS-III\Source/os_task.c ****    *p_err = OS_ERR_NONE;
 352              		.loc 1 343 0
 353 00ac 3B6D     		ldr	r3, [r7, #80]
 354 00ae 0022     		movs	r2, #0
 355 00b0 1A80     		strh	r2, [r3]	@ movhi
 344:..\..\..\..\..\..\uCOS-III\Source/os_task.c ****                                                             /* --------------- CLEAR THE TASK'S STA
 345:..\..\..\..\..\..\uCOS-III\Source/os_task.c ****     if ((opt & OS_OPT_TASK_STK_CHK) != (OS_OPT)0) {         /* See if stack checking has been enabl
 356              		.loc 1 345 0
 357 00b2 B7F84C30 		ldrh	r3, [r7, #76]
 358 00b6 03F00103 		and	r3, r3, #1
 359 00ba 002B     		cmp	r3, #0
 360 00bc 17D0     		beq	.L33
 346:..\..\..\..\..\..\uCOS-III\Source/os_task.c ****         if ((opt & OS_OPT_TASK_STK_CLR) != (OS_OPT)0) {     /* See if stack needs to be cleared    
 361              		.loc 1 346 0
 362 00be B7F84C30 		ldrh	r3, [r7, #76]
 363 00c2 03F00203 		and	r3, r3, #2
 364 00c6 002B     		cmp	r3, #0
 365 00c8 11D0     		beq	.L33
 347:..\..\..\..\..\..\uCOS-III\Source/os_task.c ****             p_sp = p_stk_base;
 366              		.loc 1 347 0
 367 00ca 7B6B     		ldr	r3, [r7, #52]
 368 00cc FB61     		str	r3, [r7, #28]
 348:..\..\..\..\..\..\uCOS-III\Source/os_task.c ****             for (i = 0u; i < stk_size; i++) {               /* Stack grows from HIGH to LOW memory 
 369              		.loc 1 348 0
 370 00ce 0023     		movs	r3, #0
 371 00d0 7B62     		str	r3, [r7, #36]
 372 00d2 08E0     		b	.L34
 373              	.L35:
 349:..\..\..\..\..\..\uCOS-III\Source/os_task.c ****                *p_sp = (CPU_STK)0;                          /* Clear from bottom of stack and up!  
 374              		.loc 1 349 0 discriminator 3
 375 00d4 FB69     		ldr	r3, [r7, #28]
 376 00d6 0022     		movs	r2, #0
 377 00d8 1A60     		str	r2, [r3]
 350:..\..\..\..\..\..\uCOS-III\Source/os_task.c ****                 p_sp++;
 378              		.loc 1 350 0 discriminator 3
 379 00da FB69     		ldr	r3, [r7, #28]
 380 00dc 0433     		adds	r3, r3, #4
 381 00de FB61     		str	r3, [r7, #28]
 348:..\..\..\..\..\..\uCOS-III\Source/os_task.c ****             for (i = 0u; i < stk_size; i++) {               /* Stack grows from HIGH to LOW memory 
 382              		.loc 1 348 0 discriminator 3
 383 00e0 7B6A     		ldr	r3, [r7, #36]
 384 00e2 0133     		adds	r3, r3, #1
 385 00e4 7B62     		str	r3, [r7, #36]
 386              	.L34:
 348:..\..\..\..\..\..\uCOS-III\Source/os_task.c ****             for (i = 0u; i < stk_size; i++) {               /* Stack grows from HIGH to LOW memory 
 387              		.loc 1 348 0 is_stmt 0 discriminator 1
 388 00e6 7A6A     		ldr	r2, [r7, #36]
ARM GAS  C:\Users\Aluno\AppData\Local\Temp\ccHJiRYw.s 			page 14


 389 00e8 FB6B     		ldr	r3, [r7, #60]
 390 00ea 9A42     		cmp	r2, r3
 391 00ec F2D3     		bcc	.L35
 392              	.L33:
 351:..\..\..\..\..\..\uCOS-III\Source/os_task.c ****             }
 352:..\..\..\..\..\..\uCOS-III\Source/os_task.c ****         }
 353:..\..\..\..\..\..\uCOS-III\Source/os_task.c ****     }
 354:..\..\..\..\..\..\uCOS-III\Source/os_task.c ****                                                             /* ------- INITIALIZE THE STACK FRAME O
 355:..\..\..\..\..\..\uCOS-III\Source/os_task.c **** #if (CPU_CFG_STK_GROWTH == CPU_STK_GROWTH_HI_TO_LO)
 356:..\..\..\..\..\..\uCOS-III\Source/os_task.c ****     p_stk_limit = p_stk_base + stk_limit;
 393              		.loc 1 356 0 is_stmt 1
 394 00ee BB6B     		ldr	r3, [r7, #56]
 395 00f0 9B00     		lsls	r3, r3, #2
 396 00f2 7A6B     		ldr	r2, [r7, #52]
 397 00f4 1344     		add	r3, r3, r2
 398 00f6 7B61     		str	r3, [r7, #20]
 357:..\..\..\..\..\..\uCOS-III\Source/os_task.c **** #else
 358:..\..\..\..\..\..\uCOS-III\Source/os_task.c ****     p_stk_limit = p_stk_base + (stk_size - 1u) - stk_limit;
 359:..\..\..\..\..\..\uCOS-III\Source/os_task.c **** #endif
 360:..\..\..\..\..\..\uCOS-III\Source/os_task.c **** 
 361:..\..\..\..\..\..\uCOS-III\Source/os_task.c ****     p_sp = OSTaskStkInit(p_task,
 399              		.loc 1 361 0
 400 00f8 B7F84C30 		ldrh	r3, [r7, #76]
 401 00fc 0193     		str	r3, [sp, #4]
 402 00fe FB6B     		ldr	r3, [r7, #60]
 403 0100 0093     		str	r3, [sp]
 404 0102 7B69     		ldr	r3, [r7, #20]
 405 0104 7A6B     		ldr	r2, [r7, #52]
 406 0106 3968     		ldr	r1, [r7]
 407 0108 7868     		ldr	r0, [r7, #4]
 408 010a FFF7FEFF 		bl	OSTaskStkInit
 409 010e F861     		str	r0, [r7, #28]
 362:..\..\..\..\..\..\uCOS-III\Source/os_task.c ****                          p_arg,
 363:..\..\..\..\..\..\uCOS-III\Source/os_task.c ****                          p_stk_base,
 364:..\..\..\..\..\..\uCOS-III\Source/os_task.c ****                          p_stk_limit,
 365:..\..\..\..\..\..\uCOS-III\Source/os_task.c ****                          stk_size,
 366:..\..\..\..\..\..\uCOS-III\Source/os_task.c ****                          opt);
 367:..\..\..\..\..\..\uCOS-III\Source/os_task.c **** 
 368:..\..\..\..\..\..\uCOS-III\Source/os_task.c ****                                                             /* -------------- INITIALIZE THE TCB FI
 369:..\..\..\..\..\..\uCOS-III\Source/os_task.c ****     p_tcb->TaskEntryAddr = p_task;                          /* Save task entry point address       
 410              		.loc 1 369 0
 411 0110 FB68     		ldr	r3, [r7, #12]
 412 0112 7A68     		ldr	r2, [r7, #4]
 413 0114 9A62     		str	r2, [r3, #40]
 370:..\..\..\..\..\..\uCOS-III\Source/os_task.c ****     p_tcb->TaskEntryArg  = p_arg;                           /* Save task entry argument            
 414              		.loc 1 370 0
 415 0116 FB68     		ldr	r3, [r7, #12]
 416 0118 3A68     		ldr	r2, [r7]
 417 011a DA62     		str	r2, [r3, #44]
 371:..\..\..\..\..\..\uCOS-III\Source/os_task.c **** 
 372:..\..\..\..\..\..\uCOS-III\Source/os_task.c ****     p_tcb->NamePtr       = p_name;                          /* Save task name                      
 418              		.loc 1 372 0
 419 011c FB68     		ldr	r3, [r7, #12]
 420 011e BA68     		ldr	r2, [r7, #8]
 421 0120 1A62     		str	r2, [r3, #32]
 373:..\..\..\..\..\..\uCOS-III\Source/os_task.c **** 
 374:..\..\..\..\..\..\uCOS-III\Source/os_task.c ****     p_tcb->Prio          = prio;                            /* Save the task's priority            
ARM GAS  C:\Users\Aluno\AppData\Local\Temp\ccHJiRYw.s 			page 15


 422              		.loc 1 374 0
 423 0122 FB68     		ldr	r3, [r7, #12]
 424 0124 97F83020 		ldrb	r2, [r7, #48]
 425 0128 83F83720 		strb	r2, [r3, #55]
 375:..\..\..\..\..\..\uCOS-III\Source/os_task.c **** 
 376:..\..\..\..\..\..\uCOS-III\Source/os_task.c ****     p_tcb->StkPtr        = p_sp;                            /* Save the new top-of-stack pointer   
 426              		.loc 1 376 0
 427 012c FB68     		ldr	r3, [r7, #12]
 428 012e FA69     		ldr	r2, [r7, #28]
 429 0130 1A60     		str	r2, [r3]
 377:..\..\..\..\..\..\uCOS-III\Source/os_task.c ****     p_tcb->StkLimitPtr   = p_stk_limit;                     /* Save the stack limit pointer        
 430              		.loc 1 377 0
 431 0132 FB68     		ldr	r3, [r7, #12]
 432 0134 7A69     		ldr	r2, [r7, #20]
 433 0136 9A60     		str	r2, [r3, #8]
 378:..\..\..\..\..\..\uCOS-III\Source/os_task.c **** 
 379:..\..\..\..\..\..\uCOS-III\Source/os_task.c ****     p_tcb->TimeQuanta    = time_quanta;                     /* Save the #ticks for time slice (0 me
 434              		.loc 1 379 0
 435 0138 FB68     		ldr	r3, [r7, #12]
 436 013a 7A6C     		ldr	r2, [r7, #68]
 437 013c 5A65     		str	r2, [r3, #84]
 380:..\..\..\..\..\..\uCOS-III\Source/os_task.c **** #if OS_CFG_SCHED_ROUND_ROBIN_EN > 0u
 381:..\..\..\..\..\..\uCOS-III\Source/os_task.c ****     if (time_quanta == (OS_TICK)0) {
 438              		.loc 1 381 0
 439 013e 7B6C     		ldr	r3, [r7, #68]
 440 0140 002B     		cmp	r3, #0
 441 0142 04D1     		bne	.L36
 382:..\..\..\..\..\..\uCOS-III\Source/os_task.c ****         p_tcb->TimeQuantaCtr = OSSchedRoundRobinDfltTimeQuanta;
 442              		.loc 1 382 0
 443 0144 2F4B     		ldr	r3, .L41+12
 444 0146 1A68     		ldr	r2, [r3]
 445 0148 FB68     		ldr	r3, [r7, #12]
 446 014a 9A65     		str	r2, [r3, #88]
 447 014c 02E0     		b	.L37
 448              	.L36:
 383:..\..\..\..\..\..\uCOS-III\Source/os_task.c ****     } else {
 384:..\..\..\..\..\..\uCOS-III\Source/os_task.c ****         p_tcb->TimeQuantaCtr = time_quanta;
 449              		.loc 1 384 0
 450 014e FB68     		ldr	r3, [r7, #12]
 451 0150 7A6C     		ldr	r2, [r7, #68]
 452 0152 9A65     		str	r2, [r3, #88]
 453              	.L37:
 385:..\..\..\..\..\..\uCOS-III\Source/os_task.c ****     }
 386:..\..\..\..\..\..\uCOS-III\Source/os_task.c **** #endif
 387:..\..\..\..\..\..\uCOS-III\Source/os_task.c ****     p_tcb->ExtPtr        = p_ext;                           /* Save pointer to TCB extension       
 454              		.loc 1 387 0
 455 0154 FB68     		ldr	r3, [r7, #12]
 456 0156 BA6C     		ldr	r2, [r7, #72]
 457 0158 5A60     		str	r2, [r3, #4]
 388:..\..\..\..\..\..\uCOS-III\Source/os_task.c ****     p_tcb->StkBasePtr    = p_stk_base;                      /* Save pointer to the base address of 
 458              		.loc 1 388 0
 459 015a FB68     		ldr	r3, [r7, #12]
 460 015c 7A6B     		ldr	r2, [r7, #52]
 461 015e 5A62     		str	r2, [r3, #36]
 389:..\..\..\..\..\..\uCOS-III\Source/os_task.c ****     p_tcb->StkSize       = stk_size;                        /* Save the stack size (in number of CP
 462              		.loc 1 389 0
 463 0160 FB68     		ldr	r3, [r7, #12]
ARM GAS  C:\Users\Aluno\AppData\Local\Temp\ccHJiRYw.s 			page 16


 464 0162 FA6B     		ldr	r2, [r7, #60]
 465 0164 9A63     		str	r2, [r3, #56]
 390:..\..\..\..\..\..\uCOS-III\Source/os_task.c ****     p_tcb->Opt           = opt;                             /* Save task options                   
 466              		.loc 1 390 0
 467 0166 FB68     		ldr	r3, [r7, #12]
 468 0168 B7F84C20 		ldrh	r2, [r7, #76]	@ movhi
 469 016c 9A87     		strh	r2, [r3, #60]	@ movhi
 391:..\..\..\..\..\..\uCOS-III\Source/os_task.c **** 
 392:..\..\..\..\..\..\uCOS-III\Source/os_task.c **** #if OS_CFG_TASK_REG_TBL_SIZE > 0u
 393:..\..\..\..\..\..\uCOS-III\Source/os_task.c ****     for (reg_nbr = 0u; reg_nbr < OS_CFG_TASK_REG_TBL_SIZE; reg_nbr++) {
 470              		.loc 1 393 0
 471 016e 0023     		movs	r3, #0
 472 0170 87F82330 		strb	r3, [r7, #35]
 473 0174 0CE0     		b	.L38
 474              	.L39:
 394:..\..\..\..\..\..\uCOS-III\Source/os_task.c ****         p_tcb->RegTbl[reg_nbr] = (OS_REG)0;
 475              		.loc 1 394 0 discriminator 3
 476 0176 97F82330 		ldrb	r3, [r7, #35]	@ zero_extendqisi2
 477 017a FA68     		ldr	r2, [r7, #12]
 478 017c 1E33     		adds	r3, r3, #30
 479 017e 9B00     		lsls	r3, r3, #2
 480 0180 1344     		add	r3, r3, r2
 481 0182 0022     		movs	r2, #0
 482 0184 5A60     		str	r2, [r3, #4]
 393:..\..\..\..\..\..\uCOS-III\Source/os_task.c ****         p_tcb->RegTbl[reg_nbr] = (OS_REG)0;
 483              		.loc 1 393 0 discriminator 3
 484 0186 97F82330 		ldrb	r3, [r7, #35]	@ zero_extendqisi2
 485 018a 0133     		adds	r3, r3, #1
 486 018c 87F82330 		strb	r3, [r7, #35]
 487              	.L38:
 393:..\..\..\..\..\..\uCOS-III\Source/os_task.c ****         p_tcb->RegTbl[reg_nbr] = (OS_REG)0;
 488              		.loc 1 393 0 is_stmt 0 discriminator 1
 489 0190 97F82330 		ldrb	r3, [r7, #35]	@ zero_extendqisi2
 490 0194 002B     		cmp	r3, #0
 491 0196 EED0     		beq	.L39
 395:..\..\..\..\..\..\uCOS-III\Source/os_task.c ****     }
 396:..\..\..\..\..\..\uCOS-III\Source/os_task.c **** #endif
 397:..\..\..\..\..\..\uCOS-III\Source/os_task.c **** 
 398:..\..\..\..\..\..\uCOS-III\Source/os_task.c **** #if OS_CFG_TASK_Q_EN > 0u
 399:..\..\..\..\..\..\uCOS-III\Source/os_task.c ****     OS_MsgQInit(&p_tcb->MsgQ,                               /* Initialize the task's message queue 
 492              		.loc 1 399 0 is_stmt 1
 493 0198 FB68     		ldr	r3, [r7, #12]
 494 019a 6433     		adds	r3, r3, #100
 495 019c B7F84020 		ldrh	r2, [r7, #64]
 496 01a0 1146     		mov	r1, r2
 497 01a2 1846     		mov	r0, r3
 498 01a4 FFF7FEFF 		bl	OS_MsgQInit
 400:..\..\..\..\..\..\uCOS-III\Source/os_task.c ****                 q_size);
 401:..\..\..\..\..\..\uCOS-III\Source/os_task.c **** #else
 402:..\..\..\..\..\..\uCOS-III\Source/os_task.c ****     (void)&q_size;
 403:..\..\..\..\..\..\uCOS-III\Source/os_task.c **** #endif
 404:..\..\..\..\..\..\uCOS-III\Source/os_task.c **** 
 405:..\..\..\..\..\..\uCOS-III\Source/os_task.c ****     OSTaskCreateHook(p_tcb);                                /* Call user defined hook              
 499              		.loc 1 405 0
 500 01a8 F868     		ldr	r0, [r7, #12]
 501 01aa FFF7FEFF 		bl	OSTaskCreateHook
 406:..\..\..\..\..\..\uCOS-III\Source/os_task.c **** 
ARM GAS  C:\Users\Aluno\AppData\Local\Temp\ccHJiRYw.s 			page 17


 407:..\..\..\..\..\..\uCOS-III\Source/os_task.c **** #if defined(OS_CFG_TLS_TBL_SIZE) && (OS_CFG_TLS_TBL_SIZE > 0u)
 408:..\..\..\..\..\..\uCOS-III\Source/os_task.c ****     for (id = 0u; id < OS_CFG_TLS_TBL_SIZE; id++) {
 409:..\..\..\..\..\..\uCOS-III\Source/os_task.c ****         p_tcb->TLS_Tbl[id] = (OS_TLS)0;
 410:..\..\..\..\..\..\uCOS-III\Source/os_task.c ****     }
 411:..\..\..\..\..\..\uCOS-III\Source/os_task.c ****     OS_TLS_TaskCreate(p_tcb);                               /* Call TLS hook                       
 412:..\..\..\..\..\..\uCOS-III\Source/os_task.c **** #endif
 413:..\..\..\..\..\..\uCOS-III\Source/os_task.c ****                                                             /* --------------- ADD TASK TO READY LI
 414:..\..\..\..\..\..\uCOS-III\Source/os_task.c ****     OS_CRITICAL_ENTER();
 502              		.loc 1 414 0
 503 01ae FFF7FEFF 		bl	CPU_SR_Save
 504 01b2 B861     		str	r0, [r7, #24]
 415:..\..\..\..\..\..\uCOS-III\Source/os_task.c ****     OS_PrioInsert(p_tcb->Prio);
 505              		.loc 1 415 0
 506 01b4 FB68     		ldr	r3, [r7, #12]
 507 01b6 93F83730 		ldrb	r3, [r3, #55]	@ zero_extendqisi2
 508 01ba 1846     		mov	r0, r3
 509 01bc FFF7FEFF 		bl	OS_PrioInsert
 416:..\..\..\..\..\..\uCOS-III\Source/os_task.c ****     OS_RdyListInsertTail(p_tcb);
 510              		.loc 1 416 0
 511 01c0 F868     		ldr	r0, [r7, #12]
 512 01c2 FFF7FEFF 		bl	OS_RdyListInsertTail
 417:..\..\..\..\..\..\uCOS-III\Source/os_task.c **** 
 418:..\..\..\..\..\..\uCOS-III\Source/os_task.c **** #if OS_CFG_DBG_EN > 0u
 419:..\..\..\..\..\..\uCOS-III\Source/os_task.c ****     OS_TaskDbgListAdd(p_tcb);
 513              		.loc 1 419 0
 514 01c6 F868     		ldr	r0, [r7, #12]
 515 01c8 FFF7FEFF 		bl	OS_TaskDbgListAdd
 420:..\..\..\..\..\..\uCOS-III\Source/os_task.c **** #endif
 421:..\..\..\..\..\..\uCOS-III\Source/os_task.c **** 
 422:..\..\..\..\..\..\uCOS-III\Source/os_task.c ****     OSTaskQty++;                                            /* Increment the #tasks counter        
 516              		.loc 1 422 0
 517 01cc 0E4B     		ldr	r3, .L41+16
 518 01ce 1B88     		ldrh	r3, [r3]
 519 01d0 0133     		adds	r3, r3, #1
 520 01d2 9AB2     		uxth	r2, r3
 521 01d4 0C4B     		ldr	r3, .L41+16
 522 01d6 1A80     		strh	r2, [r3]	@ movhi
 423:..\..\..\..\..\..\uCOS-III\Source/os_task.c **** 
 424:..\..\..\..\..\..\uCOS-III\Source/os_task.c ****     if (OSRunning != OS_STATE_OS_RUNNING) {                 /* Return if multitasking has not start
 523              		.loc 1 424 0
 524 01d8 0C4B     		ldr	r3, .L41+20
 525 01da 1B78     		ldrb	r3, [r3]	@ zero_extendqisi2
 526 01dc 012B     		cmp	r3, #1
 527 01de 03D0     		beq	.L40
 425:..\..\..\..\..\..\uCOS-III\Source/os_task.c ****         OS_CRITICAL_EXIT();
 528              		.loc 1 425 0
 529 01e0 B869     		ldr	r0, [r7, #24]
 530 01e2 FFF7FEFF 		bl	CPU_SR_Restore
 426:..\..\..\..\..\..\uCOS-III\Source/os_task.c ****         return;
 531              		.loc 1 426 0
 532 01e6 04E0     		b	.L23
 533              	.L40:
 427:..\..\..\..\..\..\uCOS-III\Source/os_task.c ****     }
 428:..\..\..\..\..\..\uCOS-III\Source/os_task.c **** 
 429:..\..\..\..\..\..\uCOS-III\Source/os_task.c ****     OS_CRITICAL_EXIT_NO_SCHED();
 534              		.loc 1 429 0
 535 01e8 B869     		ldr	r0, [r7, #24]
ARM GAS  C:\Users\Aluno\AppData\Local\Temp\ccHJiRYw.s 			page 18


 536 01ea FFF7FEFF 		bl	CPU_SR_Restore
 430:..\..\..\..\..\..\uCOS-III\Source/os_task.c **** 
 431:..\..\..\..\..\..\uCOS-III\Source/os_task.c ****     OSSched();
 537              		.loc 1 431 0
 538 01ee FFF7FEFF 		bl	OSSched
 539              	.L23:
 432:..\..\..\..\..\..\uCOS-III\Source/os_task.c **** }
 540              		.loc 1 432 0
 541 01f2 2837     		adds	r7, r7, #40
 542              		.cfi_def_cfa_offset 8
 543 01f4 BD46     		mov	sp, r7
 544              		.cfi_def_cfa_register 13
 545              		@ sp needed
 546 01f6 80BD     		pop	{r7, pc}
 547              	.L42:
 548              		.align	2
 549              	.L41:
 550 01f8 00000000 		.word	OSIntNestingCtr
 551 01fc 00000000 		.word	OSCfg_StkSizeMin
 552 0200 00000000 		.word	OSIdleTaskTCB
 553 0204 00000000 		.word	OSSchedRoundRobinDfltTimeQuanta
 554 0208 00000000 		.word	OSTaskQty
 555 020c 00000000 		.word	OSRunning
 556              		.cfi_endproc
 557              	.LFE1:
 558              		.size	OSTaskCreate, .-OSTaskCreate
 559              		.section	.text.OSTaskDel,"ax",%progbits
 560              		.align	2
 561              		.global	OSTaskDel
 562              		.thumb
 563              		.thumb_func
 564              		.type	OSTaskDel, %function
 565              	OSTaskDel:
 566              	.LFB2:
 433:..\..\..\..\..\..\uCOS-III\Source/os_task.c **** 
 434:..\..\..\..\..\..\uCOS-III\Source/os_task.c **** /*$PAGE*/
 435:..\..\..\..\..\..\uCOS-III\Source/os_task.c **** /*
 436:..\..\..\..\..\..\uCOS-III\Source/os_task.c **** ***************************************************************************************************
 437:..\..\..\..\..\..\uCOS-III\Source/os_task.c **** *                                                     DELETE A TASK
 438:..\..\..\..\..\..\uCOS-III\Source/os_task.c **** *
 439:..\..\..\..\..\..\uCOS-III\Source/os_task.c **** * Description: This function allows you to delete a task.  The calling task can delete itself by sp
 440:..\..\..\..\..\..\uCOS-III\Source/os_task.c **** *              pointer for 'p_tcb'.  The deleted task is returned to the dormant state and can be r
 441:..\..\..\..\..\..\uCOS-III\Source/os_task.c **** *              creating the deleted task again.
 442:..\..\..\..\..\..\uCOS-III\Source/os_task.c **** *
 443:..\..\..\..\..\..\uCOS-III\Source/os_task.c **** * Arguments  : p_tcb      is the TCB of the tack to delete
 444:..\..\..\..\..\..\uCOS-III\Source/os_task.c **** *
 445:..\..\..\..\..\..\uCOS-III\Source/os_task.c **** *              p_err      is a pointer to an error code returned by this function:
 446:..\..\..\..\..\..\uCOS-III\Source/os_task.c **** *
 447:..\..\..\..\..\..\uCOS-III\Source/os_task.c **** *                             OS_ERR_NONE                  if the call is successful
 448:..\..\..\..\..\..\uCOS-III\Source/os_task.c **** *                             OS_ERR_STATE_INVALID         if the state of the task is invalid
 449:..\..\..\..\..\..\uCOS-III\Source/os_task.c **** *                             OS_ERR_TASK_DEL_IDLE         if you attempted to delete uC/OS-III's i
 450:..\..\..\..\..\..\uCOS-III\Source/os_task.c **** *                             OS_ERR_TASK_DEL_INVALID      if you attempted to delete uC/OS-III's I
 451:..\..\..\..\..\..\uCOS-III\Source/os_task.c **** *                             OS_ERR_TASK_DEL_ISR          if you tried to delete a task from an IS
 452:..\..\..\..\..\..\uCOS-III\Source/os_task.c **** *
 453:..\..\..\..\..\..\uCOS-III\Source/os_task.c **** * Note(s)    : 1) 'p_err' gets set to OS_ERR_NONE before OSSched() to allow the returned error code
 454:..\..\..\..\..\..\uCOS-III\Source/os_task.c **** *                 for a task that is deleting itself. In this case, 'p_err' MUST point to a global 
 455:..\..\..\..\..\..\uCOS-III\Source/os_task.c **** *                 accessed by another task.
ARM GAS  C:\Users\Aluno\AppData\Local\Temp\ccHJiRYw.s 			page 19


 456:..\..\..\..\..\..\uCOS-III\Source/os_task.c **** ***************************************************************************************************
 457:..\..\..\..\..\..\uCOS-III\Source/os_task.c **** */
 458:..\..\..\..\..\..\uCOS-III\Source/os_task.c **** 
 459:..\..\..\..\..\..\uCOS-III\Source/os_task.c **** #if OS_CFG_TASK_DEL_EN > 0u
 460:..\..\..\..\..\..\uCOS-III\Source/os_task.c **** void  OSTaskDel (OS_TCB  *p_tcb,
 461:..\..\..\..\..\..\uCOS-III\Source/os_task.c ****                  OS_ERR  *p_err)
 462:..\..\..\..\..\..\uCOS-III\Source/os_task.c **** {
 567              		.loc 1 462 0
 568              		.cfi_startproc
 569              		@ args = 0, pretend = 0, frame = 16
 570              		@ frame_needed = 1, uses_anonymous_args = 0
 571 0000 80B5     		push	{r7, lr}
 572              		.cfi_def_cfa_offset 8
 573              		.cfi_offset 7, -8
 574              		.cfi_offset 14, -4
 575 0002 84B0     		sub	sp, sp, #16
 576              		.cfi_def_cfa_offset 24
 577 0004 00AF     		add	r7, sp, #0
 578              		.cfi_def_cfa_register 7
 579 0006 7860     		str	r0, [r7, #4]
 580 0008 3960     		str	r1, [r7]
 463:..\..\..\..\..\..\uCOS-III\Source/os_task.c ****     CPU_SR_ALLOC();
 581              		.loc 1 463 0
 582 000a 0023     		movs	r3, #0
 583 000c FB60     		str	r3, [r7, #12]
 464:..\..\..\..\..\..\uCOS-III\Source/os_task.c **** 
 465:..\..\..\..\..\..\uCOS-III\Source/os_task.c **** 
 466:..\..\..\..\..\..\uCOS-III\Source/os_task.c **** 
 467:..\..\..\..\..\..\uCOS-III\Source/os_task.c **** #ifdef OS_SAFETY_CRITICAL
 468:..\..\..\..\..\..\uCOS-III\Source/os_task.c ****     if (p_err == (OS_ERR *)0) {
 469:..\..\..\..\..\..\uCOS-III\Source/os_task.c ****         OS_SAFETY_CRITICAL_EXCEPTION();
 470:..\..\..\..\..\..\uCOS-III\Source/os_task.c ****         return;
 471:..\..\..\..\..\..\uCOS-III\Source/os_task.c ****     }
 472:..\..\..\..\..\..\uCOS-III\Source/os_task.c **** #endif
 473:..\..\..\..\..\..\uCOS-III\Source/os_task.c **** 
 474:..\..\..\..\..\..\uCOS-III\Source/os_task.c **** #if OS_CFG_CALLED_FROM_ISR_CHK_EN > 0u
 475:..\..\..\..\..\..\uCOS-III\Source/os_task.c ****     if (OSIntNestingCtr > (OS_NESTING_CTR)0) {              /* See if trying to delete from ISR    
 584              		.loc 1 475 0
 585 000e 474B     		ldr	r3, .L62
 586 0010 1B78     		ldrb	r3, [r3]	@ zero_extendqisi2
 587 0012 002B     		cmp	r3, #0
 588 0014 04D0     		beq	.L44
 476:..\..\..\..\..\..\uCOS-III\Source/os_task.c ****        *p_err = OS_ERR_TASK_DEL_ISR;
 589              		.loc 1 476 0
 590 0016 3B68     		ldr	r3, [r7]
 591 0018 47F24E12 		movw	r2, #29006
 592 001c 1A80     		strh	r2, [r3]	@ movhi
 477:..\..\..\..\..\..\uCOS-III\Source/os_task.c ****         return;
 593              		.loc 1 477 0
 594 001e 82E0     		b	.L43
 595              	.L44:
 478:..\..\..\..\..\..\uCOS-III\Source/os_task.c ****     }
 479:..\..\..\..\..\..\uCOS-III\Source/os_task.c **** #endif
 480:..\..\..\..\..\..\uCOS-III\Source/os_task.c **** 
 481:..\..\..\..\..\..\uCOS-III\Source/os_task.c ****     if (p_tcb == &OSIdleTaskTCB) {                          /* Not allowed to delete the idle task 
 596              		.loc 1 481 0
 597 0020 7B68     		ldr	r3, [r7, #4]
ARM GAS  C:\Users\Aluno\AppData\Local\Temp\ccHJiRYw.s 			page 20


 598 0022 434A     		ldr	r2, .L62+4
 599 0024 9342     		cmp	r3, r2
 600 0026 04D1     		bne	.L46
 482:..\..\..\..\..\..\uCOS-III\Source/os_task.c ****        *p_err = OS_ERR_TASK_DEL_IDLE;
 601              		.loc 1 482 0
 602 0028 3B68     		ldr	r3, [r7]
 603 002a 47F24C12 		movw	r2, #29004
 604 002e 1A80     		strh	r2, [r3]	@ movhi
 483:..\..\..\..\..\..\uCOS-III\Source/os_task.c ****         return;
 605              		.loc 1 483 0
 606 0030 79E0     		b	.L43
 607              	.L46:
 484:..\..\..\..\..\..\uCOS-III\Source/os_task.c ****     }
 485:..\..\..\..\..\..\uCOS-III\Source/os_task.c **** 
 486:..\..\..\..\..\..\uCOS-III\Source/os_task.c **** #if OS_CFG_ISR_POST_DEFERRED_EN > 0u
 487:..\..\..\..\..\..\uCOS-III\Source/os_task.c ****     if (p_tcb == &OSIntQTaskTCB) {                          /* Cannot delete the ISR handler task  
 488:..\..\..\..\..\..\uCOS-III\Source/os_task.c ****        *p_err = OS_ERR_TASK_DEL_INVALID;
 489:..\..\..\..\..\..\uCOS-III\Source/os_task.c ****         return;
 490:..\..\..\..\..\..\uCOS-III\Source/os_task.c ****     }
 491:..\..\..\..\..\..\uCOS-III\Source/os_task.c **** #endif
 492:..\..\..\..\..\..\uCOS-III\Source/os_task.c **** 
 493:..\..\..\..\..\..\uCOS-III\Source/os_task.c ****     if (p_tcb == (OS_TCB *)0) {                             /* Delete 'Self'?                      
 608              		.loc 1 493 0
 609 0032 7B68     		ldr	r3, [r7, #4]
 610 0034 002B     		cmp	r3, #0
 611 0036 08D1     		bne	.L47
 494:..\..\..\..\..\..\uCOS-III\Source/os_task.c ****         CPU_CRITICAL_ENTER();
 612              		.loc 1 494 0
 613 0038 FFF7FEFF 		bl	CPU_SR_Save
 614 003c F860     		str	r0, [r7, #12]
 495:..\..\..\..\..\..\uCOS-III\Source/os_task.c ****         p_tcb  = OSTCBCurPtr;                               /* Yes.                                
 615              		.loc 1 495 0
 616 003e 3D4B     		ldr	r3, .L62+8
 617 0040 1B68     		ldr	r3, [r3]
 618 0042 7B60     		str	r3, [r7, #4]
 496:..\..\..\..\..\..\uCOS-III\Source/os_task.c ****         CPU_CRITICAL_EXIT();
 619              		.loc 1 496 0
 620 0044 F868     		ldr	r0, [r7, #12]
 621 0046 FFF7FEFF 		bl	CPU_SR_Restore
 622              	.L47:
 497:..\..\..\..\..\..\uCOS-III\Source/os_task.c ****     }
 498:..\..\..\..\..\..\uCOS-III\Source/os_task.c **** 
 499:..\..\..\..\..\..\uCOS-III\Source/os_task.c ****     OS_CRITICAL_ENTER();
 623              		.loc 1 499 0
 624 004a FFF7FEFF 		bl	CPU_SR_Save
 625 004e F860     		str	r0, [r7, #12]
 500:..\..\..\..\..\..\uCOS-III\Source/os_task.c ****     switch (p_tcb->TaskState) {
 626              		.loc 1 500 0
 627 0050 7B68     		ldr	r3, [r7, #4]
 628 0052 93F83630 		ldrb	r3, [r3, #54]	@ zero_extendqisi2
 629 0056 072B     		cmp	r3, #7
 630 0058 3CD8     		bhi	.L48
 631 005a 01A2     		adr	r2, .L50
 632 005c 52F823F0 		ldr	pc, [r2, r3, lsl #2]
 633              		.p2align 2
 634              	.L50:
 635 0060 81000000 		.word	.L49+1
ARM GAS  C:\Users\Aluno\AppData\Local\Temp\ccHJiRYw.s 			page 21


 636 0064 89000000 		.word	.L51+1
 637 0068 91000000 		.word	.L52+1
 638 006c 91000000 		.word	.L52+1
 639 0070 E5000000 		.word	.L60+1
 640 0074 89000000 		.word	.L51+1
 641 0078 91000000 		.word	.L52+1
 642 007c 91000000 		.word	.L52+1
 643              		.p2align 1
 644              	.L49:
 501:..\..\..\..\..\..\uCOS-III\Source/os_task.c ****         case OS_TASK_STATE_RDY:
 502:..\..\..\..\..\..\uCOS-III\Source/os_task.c ****              OS_RdyListRemove(p_tcb);
 645              		.loc 1 502 0
 646 0080 7868     		ldr	r0, [r7, #4]
 647 0082 FFF7FEFF 		bl	OS_RdyListRemove
 503:..\..\..\..\..\..\uCOS-III\Source/os_task.c ****              break;
 648              		.loc 1 503 0
 649 0086 2EE0     		b	.L54
 650              	.L51:
 504:..\..\..\..\..\..\uCOS-III\Source/os_task.c **** 
 505:..\..\..\..\..\..\uCOS-III\Source/os_task.c ****         case OS_TASK_STATE_SUSPENDED:
 506:..\..\..\..\..\..\uCOS-III\Source/os_task.c ****              break;
 507:..\..\..\..\..\..\uCOS-III\Source/os_task.c **** 
 508:..\..\..\..\..\..\uCOS-III\Source/os_task.c ****         case OS_TASK_STATE_DLY:                             /* Task is only delayed, not on any wai
 509:..\..\..\..\..\..\uCOS-III\Source/os_task.c ****         case OS_TASK_STATE_DLY_SUSPENDED:
 510:..\..\..\..\..\..\uCOS-III\Source/os_task.c ****              OS_TickListRemove(p_tcb);
 651              		.loc 1 510 0
 652 0088 7868     		ldr	r0, [r7, #4]
 653 008a FFF7FEFF 		bl	OS_TickListRemove
 511:..\..\..\..\..\..\uCOS-III\Source/os_task.c ****              break;
 654              		.loc 1 511 0
 655 008e 2AE0     		b	.L54
 656              	.L52:
 512:..\..\..\..\..\..\uCOS-III\Source/os_task.c **** 
 513:..\..\..\..\..\..\uCOS-III\Source/os_task.c ****         case OS_TASK_STATE_PEND:
 514:..\..\..\..\..\..\uCOS-III\Source/os_task.c ****         case OS_TASK_STATE_PEND_SUSPENDED:
 515:..\..\..\..\..\..\uCOS-III\Source/os_task.c ****         case OS_TASK_STATE_PEND_TIMEOUT:
 516:..\..\..\..\..\..\uCOS-III\Source/os_task.c ****         case OS_TASK_STATE_PEND_TIMEOUT_SUSPENDED:
 517:..\..\..\..\..\..\uCOS-III\Source/os_task.c ****              OS_TickListRemove(p_tcb);
 657              		.loc 1 517 0
 658 0090 7868     		ldr	r0, [r7, #4]
 659 0092 FFF7FEFF 		bl	OS_TickListRemove
 518:..\..\..\..\..\..\uCOS-III\Source/os_task.c ****              switch (p_tcb->PendOn) {                       /* See what we are pending on          
 660              		.loc 1 518 0
 661 0096 7B68     		ldr	r3, [r7, #4]
 662 0098 93F83430 		ldrb	r3, [r3, #52]	@ zero_extendqisi2
 663 009c 072B     		cmp	r3, #7
 664 009e 17D8     		bhi	.L61
 665 00a0 01A2     		adr	r2, .L57
 666 00a2 52F823F0 		ldr	pc, [r2, r3, lsl #2]
 667 00a6 00BF     		.p2align 2
 668              	.L57:
 669 00a8 D1000000 		.word	.L61+1
 670 00ac C9000000 		.word	.L58+1
 671 00b0 D1000000 		.word	.L61+1
 672 00b4 C9000000 		.word	.L58+1
 673 00b8 C9000000 		.word	.L58+1
 674 00bc C9000000 		.word	.L58+1
ARM GAS  C:\Users\Aluno\AppData\Local\Temp\ccHJiRYw.s 			page 22


 675 00c0 C9000000 		.word	.L58+1
 676 00c4 D1000000 		.word	.L61+1
 677              		.p2align 1
 678              	.L58:
 519:..\..\..\..\..\..\uCOS-III\Source/os_task.c ****                  case OS_TASK_PEND_ON_NOTHING:
 520:..\..\..\..\..\..\uCOS-III\Source/os_task.c ****                  case OS_TASK_PEND_ON_TASK_Q:               /* There is no wait list for these two 
 521:..\..\..\..\..\..\uCOS-III\Source/os_task.c ****                  case OS_TASK_PEND_ON_TASK_SEM:
 522:..\..\..\..\..\..\uCOS-III\Source/os_task.c ****                       break;
 523:..\..\..\..\..\..\uCOS-III\Source/os_task.c **** 
 524:..\..\..\..\..\..\uCOS-III\Source/os_task.c ****                  case OS_TASK_PEND_ON_FLAG:                 /* Remove from wait list               
 525:..\..\..\..\..\..\uCOS-III\Source/os_task.c ****                  case OS_TASK_PEND_ON_MULTI:
 526:..\..\..\..\..\..\uCOS-III\Source/os_task.c ****                  case OS_TASK_PEND_ON_MUTEX:
 527:..\..\..\..\..\..\uCOS-III\Source/os_task.c ****                  case OS_TASK_PEND_ON_Q:
 528:..\..\..\..\..\..\uCOS-III\Source/os_task.c ****                  case OS_TASK_PEND_ON_SEM:
 529:..\..\..\..\..\..\uCOS-III\Source/os_task.c ****                       OS_PendListRemove(p_tcb);
 679              		.loc 1 529 0
 680 00c8 7868     		ldr	r0, [r7, #4]
 681 00ca FFF7FEFF 		bl	OS_PendListRemove
 530:..\..\..\..\..\..\uCOS-III\Source/os_task.c ****                       break;
 682              		.loc 1 530 0
 683 00ce 00E0     		b	.L59
 684              	.L61:
 531:..\..\..\..\..\..\uCOS-III\Source/os_task.c **** 
 532:..\..\..\..\..\..\uCOS-III\Source/os_task.c ****                  default:
 533:..\..\..\..\..\..\uCOS-III\Source/os_task.c ****                       break;
 685              		.loc 1 533 0
 686 00d0 00BF     		nop
 687              	.L59:
 534:..\..\..\..\..\..\uCOS-III\Source/os_task.c ****              }
 535:..\..\..\..\..\..\uCOS-III\Source/os_task.c ****              break;
 688              		.loc 1 535 0 discriminator 1
 689 00d2 08E0     		b	.L54
 690              	.L48:
 536:..\..\..\..\..\..\uCOS-III\Source/os_task.c **** 
 537:..\..\..\..\..\..\uCOS-III\Source/os_task.c ****         default:
 538:..\..\..\..\..\..\uCOS-III\Source/os_task.c ****             OS_CRITICAL_EXIT();
 691              		.loc 1 538 0
 692 00d4 F868     		ldr	r0, [r7, #12]
 693 00d6 FFF7FEFF 		bl	CPU_SR_Restore
 539:..\..\..\..\..\..\uCOS-III\Source/os_task.c ****            *p_err = OS_ERR_STATE_INVALID;
 694              		.loc 1 539 0
 695 00da 3B68     		ldr	r3, [r7]
 696 00dc 46F62D62 		movw	r2, #28205
 697 00e0 1A80     		strh	r2, [r3]	@ movhi
 540:..\..\..\..\..\..\uCOS-III\Source/os_task.c ****             return;
 698              		.loc 1 540 0
 699 00e2 20E0     		b	.L43
 700              	.L60:
 506:..\..\..\..\..\..\uCOS-III\Source/os_task.c **** 
 701              		.loc 1 506 0
 702 00e4 00BF     		nop
 703              	.L54:
 541:..\..\..\..\..\..\uCOS-III\Source/os_task.c ****     }
 542:..\..\..\..\..\..\uCOS-III\Source/os_task.c **** 
 543:..\..\..\..\..\..\uCOS-III\Source/os_task.c **** #if OS_CFG_TASK_Q_EN > 0u
 544:..\..\..\..\..\..\uCOS-III\Source/os_task.c ****     (void)OS_MsgQFreeAll(&p_tcb->MsgQ);                     /* Free task's message queue messages  
 704              		.loc 1 544 0
ARM GAS  C:\Users\Aluno\AppData\Local\Temp\ccHJiRYw.s 			page 23


 705 00e6 7B68     		ldr	r3, [r7, #4]
 706 00e8 6433     		adds	r3, r3, #100
 707 00ea 1846     		mov	r0, r3
 708 00ec FFF7FEFF 		bl	OS_MsgQFreeAll
 545:..\..\..\..\..\..\uCOS-III\Source/os_task.c **** #endif
 546:..\..\..\..\..\..\uCOS-III\Source/os_task.c **** 
 547:..\..\..\..\..\..\uCOS-III\Source/os_task.c ****     OSTaskDelHook(p_tcb);                                   /* Call user defined hook              
 709              		.loc 1 547 0
 710 00f0 7868     		ldr	r0, [r7, #4]
 711 00f2 FFF7FEFF 		bl	OSTaskDelHook
 548:..\..\..\..\..\..\uCOS-III\Source/os_task.c **** 
 549:..\..\..\..\..\..\uCOS-III\Source/os_task.c **** #if defined(OS_CFG_TLS_TBL_SIZE) && (OS_CFG_TLS_TBL_SIZE > 0u)
 550:..\..\..\..\..\..\uCOS-III\Source/os_task.c ****     OS_TLS_TaskDel(p_tcb);                                  /* Call TLS hook                       
 551:..\..\..\..\..\..\uCOS-III\Source/os_task.c **** #endif
 552:..\..\..\..\..\..\uCOS-III\Source/os_task.c **** 
 553:..\..\..\..\..\..\uCOS-III\Source/os_task.c **** #if OS_CFG_DBG_EN > 0u
 554:..\..\..\..\..\..\uCOS-III\Source/os_task.c ****     OS_TaskDbgListRemove(p_tcb);
 712              		.loc 1 554 0
 713 00f6 7868     		ldr	r0, [r7, #4]
 714 00f8 FFF7FEFF 		bl	OS_TaskDbgListRemove
 555:..\..\..\..\..\..\uCOS-III\Source/os_task.c **** #endif
 556:..\..\..\..\..\..\uCOS-III\Source/os_task.c ****     OSTaskQty--;                                            /* One less task being managed         
 715              		.loc 1 556 0
 716 00fc 0E4B     		ldr	r3, .L62+12
 717 00fe 1B88     		ldrh	r3, [r3]
 718 0100 013B     		subs	r3, r3, #1
 719 0102 9AB2     		uxth	r2, r3
 720 0104 0C4B     		ldr	r3, .L62+12
 721 0106 1A80     		strh	r2, [r3]	@ movhi
 557:..\..\..\..\..\..\uCOS-III\Source/os_task.c **** 
 558:..\..\..\..\..\..\uCOS-III\Source/os_task.c ****     OS_TaskInitTCB(p_tcb);                                  /* Initialize the TCB to default values
 722              		.loc 1 558 0
 723 0108 7868     		ldr	r0, [r7, #4]
 724 010a FFF7FEFF 		bl	OS_TaskInitTCB
 559:..\..\..\..\..\..\uCOS-III\Source/os_task.c ****     p_tcb->TaskState = (OS_STATE)OS_TASK_STATE_DEL;         /* Indicate that the task was deleted  
 725              		.loc 1 559 0
 726 010e 7B68     		ldr	r3, [r7, #4]
 727 0110 FF22     		movs	r2, #255
 728 0112 83F83620 		strb	r2, [r3, #54]
 560:..\..\..\..\..\..\uCOS-III\Source/os_task.c **** 
 561:..\..\..\..\..\..\uCOS-III\Source/os_task.c ****     OS_CRITICAL_EXIT_NO_SCHED();
 729              		.loc 1 561 0
 730 0116 F868     		ldr	r0, [r7, #12]
 731 0118 FFF7FEFF 		bl	CPU_SR_Restore
 562:..\..\..\..\..\..\uCOS-III\Source/os_task.c **** 
 563:..\..\..\..\..\..\uCOS-III\Source/os_task.c ****    *p_err = OS_ERR_NONE;                                    /* See Note #1.                        
 732              		.loc 1 563 0
 733 011c 3B68     		ldr	r3, [r7]
 734 011e 0022     		movs	r2, #0
 735 0120 1A80     		strh	r2, [r3]	@ movhi
 564:..\..\..\..\..\..\uCOS-III\Source/os_task.c **** 
 565:..\..\..\..\..\..\uCOS-III\Source/os_task.c ****     OSSched();                                              /* Find new highest priority task      
 736              		.loc 1 565 0
 737 0122 FFF7FEFF 		bl	OSSched
 738              	.L43:
 566:..\..\..\..\..\..\uCOS-III\Source/os_task.c **** }
 739              		.loc 1 566 0
ARM GAS  C:\Users\Aluno\AppData\Local\Temp\ccHJiRYw.s 			page 24


 740 0126 1037     		adds	r7, r7, #16
 741              		.cfi_def_cfa_offset 8
 742 0128 BD46     		mov	sp, r7
 743              		.cfi_def_cfa_register 13
 744              		@ sp needed
 745 012a 80BD     		pop	{r7, pc}
 746              	.L63:
 747              		.align	2
 748              	.L62:
 749 012c 00000000 		.word	OSIntNestingCtr
 750 0130 00000000 		.word	OSIdleTaskTCB
 751 0134 00000000 		.word	OSTCBCurPtr
 752 0138 00000000 		.word	OSTaskQty
 753              		.cfi_endproc
 754              	.LFE2:
 755              		.size	OSTaskDel, .-OSTaskDel
 756              		.section	.text.OSTaskQFlush,"ax",%progbits
 757              		.align	2
 758              		.global	OSTaskQFlush
 759              		.thumb
 760              		.thumb_func
 761              		.type	OSTaskQFlush, %function
 762              	OSTaskQFlush:
 763              	.LFB3:
 567:..\..\..\..\..\..\uCOS-III\Source/os_task.c **** #endif
 568:..\..\..\..\..\..\uCOS-III\Source/os_task.c **** 
 569:..\..\..\..\..\..\uCOS-III\Source/os_task.c **** /*$PAGE*/
 570:..\..\..\..\..\..\uCOS-III\Source/os_task.c **** /*
 571:..\..\..\..\..\..\uCOS-III\Source/os_task.c **** ***************************************************************************************************
 572:..\..\..\..\..\..\uCOS-III\Source/os_task.c **** *                                                    FLUSH TASK's QUEUE
 573:..\..\..\..\..\..\uCOS-III\Source/os_task.c **** *
 574:..\..\..\..\..\..\uCOS-III\Source/os_task.c **** * Description: This function is used to flush the task's internal message queue.
 575:..\..\..\..\..\..\uCOS-III\Source/os_task.c **** *
 576:..\..\..\..\..\..\uCOS-III\Source/os_task.c **** * Arguments  : p_tcb       is a pointer to the task's OS_TCB.  Specifying a NULL pointer indicates 
 577:..\..\..\..\..\..\uCOS-III\Source/os_task.c **** *                          flush the message queue of the calling task.
 578:..\..\..\..\..\..\uCOS-III\Source/os_task.c **** *
 579:..\..\..\..\..\..\uCOS-III\Source/os_task.c **** *              p_err       is a pointer to a variable that will contain an error code returned by t
 580:..\..\..\..\..\..\uCOS-III\Source/os_task.c **** *
 581:..\..\..\..\..\..\uCOS-III\Source/os_task.c **** *                              OS_ERR_NONE           upon success
 582:..\..\..\..\..\..\uCOS-III\Source/os_task.c **** *                              OS_ERR_FLUSH_ISR      if you called this function from an ISR
 583:..\..\..\..\..\..\uCOS-III\Source/os_task.c **** *
 584:..\..\..\..\..\..\uCOS-III\Source/os_task.c **** * Returns     : The number of entries freed from the queue
 585:..\..\..\..\..\..\uCOS-III\Source/os_task.c **** *
 586:..\..\..\..\..\..\uCOS-III\Source/os_task.c **** * Note(s)     : 1) You should use this function with great care because, when to flush the queue, y
 587:..\..\..\..\..\..\uCOS-III\Source/os_task.c **** *                  references to what the queue entries are pointing to and thus, you could cause '
 588:..\..\..\..\..\..\uCOS-III\Source/os_task.c **** *                  other words, the data you are pointing to that's being referenced by the queue e
 589:..\..\..\..\..\..\uCOS-III\Source/os_task.c **** *                  likely, need to be de-allocated (i.e. freed).
 590:..\..\..\..\..\..\uCOS-III\Source/os_task.c **** ***************************************************************************************************
 591:..\..\..\..\..\..\uCOS-III\Source/os_task.c **** */
 592:..\..\..\..\..\..\uCOS-III\Source/os_task.c **** 
 593:..\..\..\..\..\..\uCOS-III\Source/os_task.c **** #if OS_CFG_TASK_Q_EN > 0u
 594:..\..\..\..\..\..\uCOS-III\Source/os_task.c **** OS_MSG_QTY  OSTaskQFlush (OS_TCB  *p_tcb,
 595:..\..\..\..\..\..\uCOS-III\Source/os_task.c ****                           OS_ERR  *p_err)
 596:..\..\..\..\..\..\uCOS-III\Source/os_task.c **** {
 764              		.loc 1 596 0
 765              		.cfi_startproc
 766              		@ args = 0, pretend = 0, frame = 16
ARM GAS  C:\Users\Aluno\AppData\Local\Temp\ccHJiRYw.s 			page 25


 767              		@ frame_needed = 1, uses_anonymous_args = 0
 768 0000 80B5     		push	{r7, lr}
 769              		.cfi_def_cfa_offset 8
 770              		.cfi_offset 7, -8
 771              		.cfi_offset 14, -4
 772 0002 84B0     		sub	sp, sp, #16
 773              		.cfi_def_cfa_offset 24
 774 0004 00AF     		add	r7, sp, #0
 775              		.cfi_def_cfa_register 7
 776 0006 7860     		str	r0, [r7, #4]
 777 0008 3960     		str	r1, [r7]
 597:..\..\..\..\..\..\uCOS-III\Source/os_task.c ****     OS_MSG_QTY  entries;
 598:..\..\..\..\..\..\uCOS-III\Source/os_task.c ****     CPU_SR_ALLOC();
 778              		.loc 1 598 0
 779 000a 0023     		movs	r3, #0
 780 000c FB60     		str	r3, [r7, #12]
 599:..\..\..\..\..\..\uCOS-III\Source/os_task.c **** 
 600:..\..\..\..\..\..\uCOS-III\Source/os_task.c **** 
 601:..\..\..\..\..\..\uCOS-III\Source/os_task.c **** 
 602:..\..\..\..\..\..\uCOS-III\Source/os_task.c **** #ifdef OS_SAFETY_CRITICAL
 603:..\..\..\..\..\..\uCOS-III\Source/os_task.c ****     if (p_err == (OS_ERR *)0) {
 604:..\..\..\..\..\..\uCOS-III\Source/os_task.c ****         OS_SAFETY_CRITICAL_EXCEPTION();
 605:..\..\..\..\..\..\uCOS-III\Source/os_task.c ****         return ((OS_MSG_QTY)0);
 606:..\..\..\..\..\..\uCOS-III\Source/os_task.c ****     }
 607:..\..\..\..\..\..\uCOS-III\Source/os_task.c **** #endif
 608:..\..\..\..\..\..\uCOS-III\Source/os_task.c **** 
 609:..\..\..\..\..\..\uCOS-III\Source/os_task.c **** #if OS_CFG_CALLED_FROM_ISR_CHK_EN > 0u
 610:..\..\..\..\..\..\uCOS-III\Source/os_task.c ****     if (OSIntNestingCtr > (OS_NESTING_CTR)0) {              /* Can't flush a message queue from an 
 781              		.loc 1 610 0
 782 000e 154B     		ldr	r3, .L68
 783 0010 1B78     		ldrb	r3, [r3]	@ zero_extendqisi2
 784 0012 002B     		cmp	r3, #0
 785 0014 05D0     		beq	.L65
 611:..\..\..\..\..\..\uCOS-III\Source/os_task.c ****        *p_err = OS_ERR_FLUSH_ISR;
 786              		.loc 1 611 0
 787 0016 3B68     		ldr	r3, [r7]
 788 0018 4FF46C52 		mov	r2, #15104
 789 001c 1A80     		strh	r2, [r3]	@ movhi
 612:..\..\..\..\..\..\uCOS-III\Source/os_task.c ****         return ((OS_MSG_QTY)0);
 790              		.loc 1 612 0
 791 001e 0023     		movs	r3, #0
 792 0020 1CE0     		b	.L66
 793              	.L65:
 613:..\..\..\..\..\..\uCOS-III\Source/os_task.c ****     }
 614:..\..\..\..\..\..\uCOS-III\Source/os_task.c **** #endif
 615:..\..\..\..\..\..\uCOS-III\Source/os_task.c **** 
 616:..\..\..\..\..\..\uCOS-III\Source/os_task.c ****     if (p_tcb == (OS_TCB *)0) {                             /* Flush message queue of calling task?
 794              		.loc 1 616 0
 795 0022 7B68     		ldr	r3, [r7, #4]
 796 0024 002B     		cmp	r3, #0
 797 0026 08D1     		bne	.L67
 617:..\..\..\..\..\..\uCOS-III\Source/os_task.c ****         CPU_CRITICAL_ENTER();
 798              		.loc 1 617 0
 799 0028 FFF7FEFF 		bl	CPU_SR_Save
 800 002c F860     		str	r0, [r7, #12]
 618:..\..\..\..\..\..\uCOS-III\Source/os_task.c ****         p_tcb = OSTCBCurPtr;
 801              		.loc 1 618 0
ARM GAS  C:\Users\Aluno\AppData\Local\Temp\ccHJiRYw.s 			page 26


 802 002e 0E4B     		ldr	r3, .L68+4
 803 0030 1B68     		ldr	r3, [r3]
 804 0032 7B60     		str	r3, [r7, #4]
 619:..\..\..\..\..\..\uCOS-III\Source/os_task.c ****         CPU_CRITICAL_EXIT();
 805              		.loc 1 619 0
 806 0034 F868     		ldr	r0, [r7, #12]
 807 0036 FFF7FEFF 		bl	CPU_SR_Restore
 808              	.L67:
 620:..\..\..\..\..\..\uCOS-III\Source/os_task.c ****     }
 621:..\..\..\..\..\..\uCOS-III\Source/os_task.c **** 
 622:..\..\..\..\..\..\uCOS-III\Source/os_task.c ****     OS_CRITICAL_ENTER();
 809              		.loc 1 622 0
 810 003a FFF7FEFF 		bl	CPU_SR_Save
 811 003e F860     		str	r0, [r7, #12]
 623:..\..\..\..\..\..\uCOS-III\Source/os_task.c ****     entries = OS_MsgQFreeAll(&p_tcb->MsgQ);                 /* Return all OS_MSGs to the OS_MSG poo
 812              		.loc 1 623 0
 813 0040 7B68     		ldr	r3, [r7, #4]
 814 0042 6433     		adds	r3, r3, #100
 815 0044 1846     		mov	r0, r3
 816 0046 FFF7FEFF 		bl	OS_MsgQFreeAll
 817 004a 0346     		mov	r3, r0
 818 004c 7B81     		strh	r3, [r7, #10]	@ movhi
 624:..\..\..\..\..\..\uCOS-III\Source/os_task.c ****     OS_CRITICAL_EXIT();
 819              		.loc 1 624 0
 820 004e F868     		ldr	r0, [r7, #12]
 821 0050 FFF7FEFF 		bl	CPU_SR_Restore
 625:..\..\..\..\..\..\uCOS-III\Source/os_task.c ****    *p_err   = OS_ERR_NONE;
 822              		.loc 1 625 0
 823 0054 3B68     		ldr	r3, [r7]
 824 0056 0022     		movs	r2, #0
 825 0058 1A80     		strh	r2, [r3]	@ movhi
 626:..\..\..\..\..\..\uCOS-III\Source/os_task.c ****     return (entries);
 826              		.loc 1 626 0
 827 005a 7B89     		ldrh	r3, [r7, #10]
 828              	.L66:
 627:..\..\..\..\..\..\uCOS-III\Source/os_task.c **** }
 829              		.loc 1 627 0
 830 005c 1846     		mov	r0, r3
 831 005e 1037     		adds	r7, r7, #16
 832              		.cfi_def_cfa_offset 8
 833 0060 BD46     		mov	sp, r7
 834              		.cfi_def_cfa_register 13
 835              		@ sp needed
 836 0062 80BD     		pop	{r7, pc}
 837              	.L69:
 838              		.align	2
 839              	.L68:
 840 0064 00000000 		.word	OSIntNestingCtr
 841 0068 00000000 		.word	OSTCBCurPtr
 842              		.cfi_endproc
 843              	.LFE3:
 844              		.size	OSTaskQFlush, .-OSTaskQFlush
 845              		.section	.text.OSTaskQPend,"ax",%progbits
 846              		.align	2
 847              		.global	OSTaskQPend
 848              		.thumb
 849              		.thumb_func
ARM GAS  C:\Users\Aluno\AppData\Local\Temp\ccHJiRYw.s 			page 27


 850              		.type	OSTaskQPend, %function
 851              	OSTaskQPend:
 852              	.LFB4:
 628:..\..\..\..\..\..\uCOS-III\Source/os_task.c **** #endif
 629:..\..\..\..\..\..\uCOS-III\Source/os_task.c **** 
 630:..\..\..\..\..\..\uCOS-III\Source/os_task.c **** /*$PAGE*/
 631:..\..\..\..\..\..\uCOS-III\Source/os_task.c **** /*
 632:..\..\..\..\..\..\uCOS-III\Source/os_task.c **** ***************************************************************************************************
 633:..\..\..\..\..\..\uCOS-III\Source/os_task.c **** *                                                  WAIT FOR A MESSAGE
 634:..\..\..\..\..\..\uCOS-III\Source/os_task.c **** *
 635:..\..\..\..\..\..\uCOS-III\Source/os_task.c **** * Description: This function causes the current task to wait for a message to be posted to it.
 636:..\..\..\..\..\..\uCOS-III\Source/os_task.c **** *
 637:..\..\..\..\..\..\uCOS-III\Source/os_task.c **** * Arguments  : timeout       is an optional timeout period (in clock ticks).  If non-zero, your tas
 638:..\..\..\..\..\..\uCOS-III\Source/os_task.c **** *                            message to arrive up to the amount of time specified by this argument.
 639:..\..\..\..\..\..\uCOS-III\Source/os_task.c **** *                            If you specify 0, however, your task will wait forever or, until a mes
 640:..\..\..\..\..\..\uCOS-III\Source/os_task.c **** *
 641:..\..\..\..\..\..\uCOS-III\Source/os_task.c **** *              opt           determines whether the user wants to block if the task's queue is empt
 642:..\..\..\..\..\..\uCOS-III\Source/os_task.c **** *
 643:..\..\..\..\..\..\uCOS-III\Source/os_task.c **** *                                OS_OPT_PEND_BLOCKING
 644:..\..\..\..\..\..\uCOS-III\Source/os_task.c **** *                                OS_OPT_PEND_NON_BLOCKING
 645:..\..\..\..\..\..\uCOS-III\Source/os_task.c **** *
 646:..\..\..\..\..\..\uCOS-III\Source/os_task.c **** *              p_msg_size    is a pointer to a variable that will receive the size of the message
 647:..\..\..\..\..\..\uCOS-III\Source/os_task.c **** *
 648:..\..\..\..\..\..\uCOS-III\Source/os_task.c **** *              p_ts          is a pointer to a variable that will receive the timestamp of when the
 649:..\..\..\..\..\..\uCOS-III\Source/os_task.c **** *                            received.  If you pass a NULL pointer (i.e. (CPU_TS *)0) then you will
 650:..\..\..\..\..\..\uCOS-III\Source/os_task.c **** *                            timestamp.  In other words, passing a NULL pointer is valid and indica
 651:..\..\..\..\..\..\uCOS-III\Source/os_task.c **** *                            need the timestamp.
 652:..\..\..\..\..\..\uCOS-III\Source/os_task.c **** *
 653:..\..\..\..\..\..\uCOS-III\Source/os_task.c **** *              p_err         is a pointer to where an error message will be deposited.  Possible er
 654:..\..\..\..\..\..\uCOS-III\Source/os_task.c **** *                            messages are:
 655:..\..\..\..\..\..\uCOS-III\Source/os_task.c **** *
 656:..\..\..\..\..\..\uCOS-III\Source/os_task.c **** *                                OS_ERR_NONE               The call was successful and your task re
 657:..\..\..\..\..\..\uCOS-III\Source/os_task.c **** *                                OS_ERR_PEND_ABORT
 658:..\..\..\..\..\..\uCOS-III\Source/os_task.c **** *                                OS_ERR_PEND_ISR           If you called this function from an ISR 
 659:..\..\..\..\..\..\uCOS-III\Source/os_task.c **** *                                OS_ERR_PEND_WOULD_BLOCK   If you specified non-blocking but the qu
 660:..\..\..\..\..\..\uCOS-III\Source/os_task.c **** *                                OS_ERR_Q_EMPTY
 661:..\..\..\..\..\..\uCOS-III\Source/os_task.c **** *                                OS_ERR_SCHED_LOCKED       If the scheduler is locked
 662:..\..\..\..\..\..\uCOS-III\Source/os_task.c **** *                                OS_ERR_TIMEOUT            A message was not received within the sp
 663:..\..\..\..\..\..\uCOS-III\Source/os_task.c **** *                                                          would lead to a suspension.
 664:..\..\..\..\..\..\uCOS-III\Source/os_task.c **** *
 665:..\..\..\..\..\..\uCOS-III\Source/os_task.c **** * Returns    : A pointer to the message received or a NULL pointer upon error.
 666:..\..\..\..\..\..\uCOS-III\Source/os_task.c **** *
 667:..\..\..\..\..\..\uCOS-III\Source/os_task.c **** * Note(s)    : 1) It is possible to receive NULL pointers when there are no errors.
 668:..\..\..\..\..\..\uCOS-III\Source/os_task.c **** ***************************************************************************************************
 669:..\..\..\..\..\..\uCOS-III\Source/os_task.c **** */
 670:..\..\..\..\..\..\uCOS-III\Source/os_task.c **** 
 671:..\..\..\..\..\..\uCOS-III\Source/os_task.c **** #if OS_CFG_TASK_Q_EN > 0u
 672:..\..\..\..\..\..\uCOS-III\Source/os_task.c **** void  *OSTaskQPend (OS_TICK       timeout,
 673:..\..\..\..\..\..\uCOS-III\Source/os_task.c ****                     OS_OPT        opt,
 674:..\..\..\..\..\..\uCOS-III\Source/os_task.c ****                     OS_MSG_SIZE  *p_msg_size,
 675:..\..\..\..\..\..\uCOS-III\Source/os_task.c ****                     CPU_TS       *p_ts,
 676:..\..\..\..\..\..\uCOS-III\Source/os_task.c ****                     OS_ERR       *p_err)
 677:..\..\..\..\..\..\uCOS-III\Source/os_task.c **** {
 853              		.loc 1 677 0
 854              		.cfi_startproc
 855              		@ args = 4, pretend = 0, frame = 32
 856              		@ frame_needed = 1, uses_anonymous_args = 0
ARM GAS  C:\Users\Aluno\AppData\Local\Temp\ccHJiRYw.s 			page 28


 857 0000 90B5     		push	{r4, r7, lr}
 858              		.cfi_def_cfa_offset 12
 859              		.cfi_offset 4, -12
 860              		.cfi_offset 7, -8
 861              		.cfi_offset 14, -4
 862 0002 89B0     		sub	sp, sp, #36
 863              		.cfi_def_cfa_offset 48
 864 0004 00AF     		add	r7, sp, #0
 865              		.cfi_def_cfa_register 7
 866 0006 F860     		str	r0, [r7, #12]
 867 0008 7A60     		str	r2, [r7, #4]
 868 000a 3B60     		str	r3, [r7]
 869 000c 0B46     		mov	r3, r1	@ movhi
 870 000e 7B81     		strh	r3, [r7, #10]	@ movhi
 678:..\..\..\..\..\..\uCOS-III\Source/os_task.c ****     OS_MSG_Q     *p_msg_q;
 679:..\..\..\..\..\..\uCOS-III\Source/os_task.c ****     void         *p_void;
 680:..\..\..\..\..\..\uCOS-III\Source/os_task.c ****     CPU_SR_ALLOC();
 871              		.loc 1 680 0
 872 0010 0023     		movs	r3, #0
 873 0012 BB61     		str	r3, [r7, #24]
 681:..\..\..\..\..\..\uCOS-III\Source/os_task.c **** 
 682:..\..\..\..\..\..\uCOS-III\Source/os_task.c **** 
 683:..\..\..\..\..\..\uCOS-III\Source/os_task.c **** 
 684:..\..\..\..\..\..\uCOS-III\Source/os_task.c **** #ifdef OS_SAFETY_CRITICAL
 685:..\..\..\..\..\..\uCOS-III\Source/os_task.c ****     if (p_err == (OS_ERR *)0) {
 686:..\..\..\..\..\..\uCOS-III\Source/os_task.c ****         OS_SAFETY_CRITICAL_EXCEPTION();
 687:..\..\..\..\..\..\uCOS-III\Source/os_task.c ****         return ((void *)0);
 688:..\..\..\..\..\..\uCOS-III\Source/os_task.c ****     }
 689:..\..\..\..\..\..\uCOS-III\Source/os_task.c **** #endif
 690:..\..\..\..\..\..\uCOS-III\Source/os_task.c **** 
 691:..\..\..\..\..\..\uCOS-III\Source/os_task.c **** #if OS_CFG_CALLED_FROM_ISR_CHK_EN > 0u
 692:..\..\..\..\..\..\uCOS-III\Source/os_task.c ****     if (OSIntNestingCtr > (OS_NESTING_CTR)0) {              /* Can't Pend from an ISR              
 874              		.loc 1 692 0
 875 0014 6F4B     		ldr	r3, .L91
 876 0016 1B78     		ldrb	r3, [r3]	@ zero_extendqisi2
 877 0018 002B     		cmp	r3, #0
 878 001a 05D0     		beq	.L71
 693:..\..\..\..\..\..\uCOS-III\Source/os_task.c ****        *p_err = OS_ERR_PEND_ISR;
 879              		.loc 1 693 0
 880 001c 3B6B     		ldr	r3, [r7, #48]
 881 001e 46F2AE12 		movw	r2, #25006
 882 0022 1A80     		strh	r2, [r3]	@ movhi
 694:..\..\..\..\..\..\uCOS-III\Source/os_task.c ****         return ((void *)0);
 883              		.loc 1 694 0
 884 0024 0023     		movs	r3, #0
 885 0026 D1E0     		b	.L72
 886              	.L71:
 695:..\..\..\..\..\..\uCOS-III\Source/os_task.c ****     }
 696:..\..\..\..\..\..\uCOS-III\Source/os_task.c **** #endif
 697:..\..\..\..\..\..\uCOS-III\Source/os_task.c **** 
 698:..\..\..\..\..\..\uCOS-III\Source/os_task.c **** #if OS_CFG_ARG_CHK_EN > 0u                                  /* ---------------- VALIDATE ARGUMENTS 
 699:..\..\..\..\..\..\uCOS-III\Source/os_task.c ****     if (p_msg_size == (OS_MSG_SIZE *)0) {                   /* User must supply a valid destination
 887              		.loc 1 699 0
 888 0028 7B68     		ldr	r3, [r7, #4]
 889 002a 002B     		cmp	r3, #0
 890 002c 05D1     		bne	.L73
 700:..\..\..\..\..\..\uCOS-III\Source/os_task.c ****        *p_err = OS_ERR_PTR_INVALID;
ARM GAS  C:\Users\Aluno\AppData\Local\Temp\ccHJiRYw.s 			page 29


 891              		.loc 1 700 0
 892 002e 3B6B     		ldr	r3, [r7, #48]
 893 0030 46F2D522 		movw	r2, #25301
 894 0034 1A80     		strh	r2, [r3]	@ movhi
 701:..\..\..\..\..\..\uCOS-III\Source/os_task.c ****         return ((void *)0);
 895              		.loc 1 701 0
 896 0036 0023     		movs	r3, #0
 897 0038 C8E0     		b	.L72
 898              	.L73:
 702:..\..\..\..\..\..\uCOS-III\Source/os_task.c ****     }
 703:..\..\..\..\..\..\uCOS-III\Source/os_task.c ****     switch (opt) {                                          /* User must supply a valid option     
 899              		.loc 1 703 0
 900 003a 7B89     		ldrh	r3, [r7, #10]
 901 003c 002B     		cmp	r3, #0
 902 003e 08D0     		beq	.L90
 903 0040 B3F5004F 		cmp	r3, #32768
 904 0044 05D0     		beq	.L90
 704:..\..\..\..\..\..\uCOS-III\Source/os_task.c ****         case OS_OPT_PEND_BLOCKING:
 705:..\..\..\..\..\..\uCOS-III\Source/os_task.c ****         case OS_OPT_PEND_NON_BLOCKING:
 706:..\..\..\..\..\..\uCOS-III\Source/os_task.c ****              break;
 707:..\..\..\..\..\..\uCOS-III\Source/os_task.c **** 
 708:..\..\..\..\..\..\uCOS-III\Source/os_task.c ****         default:
 709:..\..\..\..\..\..\uCOS-III\Source/os_task.c ****             *p_err = OS_ERR_OPT_INVALID;
 905              		.loc 1 709 0
 906 0046 3B6B     		ldr	r3, [r7, #48]
 907 0048 45F62562 		movw	r2, #24101
 908 004c 1A80     		strh	r2, [r3]	@ movhi
 710:..\..\..\..\..\..\uCOS-III\Source/os_task.c ****              return ((void *)0);
 909              		.loc 1 710 0
 910 004e 0023     		movs	r3, #0
 911 0050 BCE0     		b	.L72
 912              	.L90:
 706:..\..\..\..\..\..\uCOS-III\Source/os_task.c **** 
 913              		.loc 1 706 0
 914 0052 00BF     		nop
 711:..\..\..\..\..\..\uCOS-III\Source/os_task.c ****     }
 712:..\..\..\..\..\..\uCOS-III\Source/os_task.c **** #endif
 713:..\..\..\..\..\..\uCOS-III\Source/os_task.c **** 
 714:..\..\..\..\..\..\uCOS-III\Source/os_task.c ****     if (p_ts != (CPU_TS *)0) {
 915              		.loc 1 714 0
 916 0054 3B68     		ldr	r3, [r7]
 917 0056 002B     		cmp	r3, #0
 918 0058 02D0     		beq	.L77
 715:..\..\..\..\..\..\uCOS-III\Source/os_task.c ****        *p_ts  = (CPU_TS  )0;                                /* Initialize the returned timestamp   
 919              		.loc 1 715 0
 920 005a 3B68     		ldr	r3, [r7]
 921 005c 0022     		movs	r2, #0
 922 005e 1A60     		str	r2, [r3]
 923              	.L77:
 716:..\..\..\..\..\..\uCOS-III\Source/os_task.c ****     }
 717:..\..\..\..\..\..\uCOS-III\Source/os_task.c **** 
 718:..\..\..\..\..\..\uCOS-III\Source/os_task.c ****     CPU_CRITICAL_ENTER();
 924              		.loc 1 718 0
 925 0060 FFF7FEFF 		bl	CPU_SR_Save
 926 0064 B861     		str	r0, [r7, #24]
 719:..\..\..\..\..\..\uCOS-III\Source/os_task.c ****     p_msg_q = &OSTCBCurPtr->MsgQ;                           /* Any message waiting in the message q
 927              		.loc 1 719 0
ARM GAS  C:\Users\Aluno\AppData\Local\Temp\ccHJiRYw.s 			page 30


 928 0066 5C4B     		ldr	r3, .L91+4
 929 0068 1B68     		ldr	r3, [r3]
 930 006a 6433     		adds	r3, r3, #100
 931 006c 7B61     		str	r3, [r7, #20]
 720:..\..\..\..\..\..\uCOS-III\Source/os_task.c ****     p_void  = OS_MsgQGet(p_msg_q,
 932              		.loc 1 720 0
 933 006e 3B6B     		ldr	r3, [r7, #48]
 934 0070 3A68     		ldr	r2, [r7]
 935 0072 7968     		ldr	r1, [r7, #4]
 936 0074 7869     		ldr	r0, [r7, #20]
 937 0076 FFF7FEFF 		bl	OS_MsgQGet
 938 007a F861     		str	r0, [r7, #28]
 721:..\..\..\..\..\..\uCOS-III\Source/os_task.c ****                          p_msg_size,
 722:..\..\..\..\..\..\uCOS-III\Source/os_task.c ****                          p_ts,
 723:..\..\..\..\..\..\uCOS-III\Source/os_task.c ****                          p_err);
 724:..\..\..\..\..\..\uCOS-III\Source/os_task.c ****     if (*p_err == OS_ERR_NONE) {
 939              		.loc 1 724 0
 940 007c 3B6B     		ldr	r3, [r7, #48]
 941 007e 1B88     		ldrh	r3, [r3]
 942 0080 002B     		cmp	r3, #0
 943 0082 1ED1     		bne	.L78
 725:..\..\..\..\..\..\uCOS-III\Source/os_task.c **** #if OS_CFG_TASK_PROFILE_EN > 0u
 726:..\..\..\..\..\..\uCOS-III\Source/os_task.c ****         if (p_ts != (CPU_TS *)0) {
 944              		.loc 1 726 0
 945 0084 3B68     		ldr	r3, [r7]
 946 0086 002B     		cmp	r3, #0
 947 0088 16D0     		beq	.L79
 727:..\..\..\..\..\..\uCOS-III\Source/os_task.c ****             OSTCBCurPtr->MsgQPendTime = OS_TS_GET() - *p_ts;
 948              		.loc 1 727 0
 949 008a 534B     		ldr	r3, .L91+4
 950 008c 1C68     		ldr	r4, [r3]
 951 008e FFF7FEFF 		bl	CPU_TS_TmrRd
 952 0092 0246     		mov	r2, r0
 953 0094 3B68     		ldr	r3, [r7]
 954 0096 1B68     		ldr	r3, [r3]
 955 0098 D31A     		subs	r3, r2, r3
 956 009a 6367     		str	r3, [r4, #116]
 728:..\..\..\..\..\..\uCOS-III\Source/os_task.c ****             if (OSTCBCurPtr->MsgQPendTimeMax < OSTCBCurPtr->MsgQPendTime) {
 957              		.loc 1 728 0
 958 009c 4E4B     		ldr	r3, .L91+4
 959 009e 1B68     		ldr	r3, [r3]
 960 00a0 9A6F     		ldr	r2, [r3, #120]
 961 00a2 4D4B     		ldr	r3, .L91+4
 962 00a4 1B68     		ldr	r3, [r3]
 963 00a6 5B6F     		ldr	r3, [r3, #116]
 964 00a8 9A42     		cmp	r2, r3
 965 00aa 05D2     		bcs	.L79
 729:..\..\..\..\..\..\uCOS-III\Source/os_task.c ****                 OSTCBCurPtr->MsgQPendTimeMax = OSTCBCurPtr->MsgQPendTime;
 966              		.loc 1 729 0
 967 00ac 4A4B     		ldr	r3, .L91+4
 968 00ae 1B68     		ldr	r3, [r3]
 969 00b0 494A     		ldr	r2, .L91+4
 970 00b2 1268     		ldr	r2, [r2]
 971 00b4 526F     		ldr	r2, [r2, #116]
 972 00b6 9A67     		str	r2, [r3, #120]
 973              	.L79:
 730:..\..\..\..\..\..\uCOS-III\Source/os_task.c ****             }
ARM GAS  C:\Users\Aluno\AppData\Local\Temp\ccHJiRYw.s 			page 31


 731:..\..\..\..\..\..\uCOS-III\Source/os_task.c ****         }
 732:..\..\..\..\..\..\uCOS-III\Source/os_task.c **** #endif
 733:..\..\..\..\..\..\uCOS-III\Source/os_task.c ****         CPU_CRITICAL_EXIT();
 974              		.loc 1 733 0
 975 00b8 B869     		ldr	r0, [r7, #24]
 976 00ba FFF7FEFF 		bl	CPU_SR_Restore
 734:..\..\..\..\..\..\uCOS-III\Source/os_task.c ****         return (p_void);                                    /* Yes, Return oldest message received 
 977              		.loc 1 734 0
 978 00be FB69     		ldr	r3, [r7, #28]
 979 00c0 84E0     		b	.L72
 980              	.L78:
 735:..\..\..\..\..\..\uCOS-III\Source/os_task.c ****     }
 736:..\..\..\..\..\..\uCOS-III\Source/os_task.c **** 
 737:..\..\..\..\..\..\uCOS-III\Source/os_task.c ****     if ((opt & OS_OPT_PEND_NON_BLOCKING) != (OS_OPT)0) {    /* Caller wants to block if not availab
 981              		.loc 1 737 0
 982 00c2 B7F90A30 		ldrsh	r3, [r7, #10]
 983 00c6 002B     		cmp	r3, #0
 984 00c8 08DA     		bge	.L80
 738:..\..\..\..\..\..\uCOS-III\Source/os_task.c ****        *p_err = OS_ERR_PEND_WOULD_BLOCK;                    /* No                                  
 985              		.loc 1 738 0
 986 00ca 3B6B     		ldr	r3, [r7, #48]
 987 00cc 46F2B012 		movw	r2, #25008
 988 00d0 1A80     		strh	r2, [r3]	@ movhi
 739:..\..\..\..\..\..\uCOS-III\Source/os_task.c ****         CPU_CRITICAL_EXIT();
 989              		.loc 1 739 0
 990 00d2 B869     		ldr	r0, [r7, #24]
 991 00d4 FFF7FEFF 		bl	CPU_SR_Restore
 740:..\..\..\..\..\..\uCOS-III\Source/os_task.c ****         return ((void *)0);
 992              		.loc 1 740 0
 993 00d8 0023     		movs	r3, #0
 994 00da 77E0     		b	.L72
 995              	.L80:
 741:..\..\..\..\..\..\uCOS-III\Source/os_task.c ****     } else {                                                /* Yes                                 
 742:..\..\..\..\..\..\uCOS-III\Source/os_task.c ****         if (OSSchedLockNestingCtr > (OS_NESTING_CTR)0) {    /*     Can't block when the scheduler i
 996              		.loc 1 742 0
 997 00dc 3F4B     		ldr	r3, .L91+8
 998 00de 1B78     		ldrb	r3, [r3]	@ zero_extendqisi2
 999 00e0 002B     		cmp	r3, #0
 1000 00e2 08D0     		beq	.L81
 743:..\..\..\..\..\..\uCOS-III\Source/os_task.c ****             CPU_CRITICAL_EXIT();
 1001              		.loc 1 743 0
 1002 00e4 B869     		ldr	r0, [r7, #24]
 1003 00e6 FFF7FEFF 		bl	CPU_SR_Restore
 744:..\..\..\..\..\..\uCOS-III\Source/os_task.c ****            *p_err = OS_ERR_SCHED_LOCKED;
 1004              		.loc 1 744 0
 1005 00ea 3B6B     		ldr	r3, [r7, #48]
 1006 00ec 46F66352 		movw	r2, #28003
 1007 00f0 1A80     		strh	r2, [r3]	@ movhi
 745:..\..\..\..\..\..\uCOS-III\Source/os_task.c ****             return ((void *)0);
 1008              		.loc 1 745 0
 1009 00f2 0023     		movs	r3, #0
 1010 00f4 6AE0     		b	.L72
 1011              	.L81:
 746:..\..\..\..\..\..\uCOS-III\Source/os_task.c ****         }
 747:..\..\..\..\..\..\uCOS-III\Source/os_task.c ****     }
 748:..\..\..\..\..\..\uCOS-III\Source/os_task.c ****                                                             /* Lock the scheduler/re-enable interru
 749:..\..\..\..\..\..\uCOS-III\Source/os_task.c ****     OS_CRITICAL_ENTER_CPU_EXIT();
ARM GAS  C:\Users\Aluno\AppData\Local\Temp\ccHJiRYw.s 			page 32


 750:..\..\..\..\..\..\uCOS-III\Source/os_task.c ****     OS_Pend((OS_PEND_DATA *)0,                              /* Block task pending on Message       
 1012              		.loc 1 750 0
 1013 00f6 FB68     		ldr	r3, [r7, #12]
 1014 00f8 0222     		movs	r2, #2
 1015 00fa 0021     		movs	r1, #0
 1016 00fc 0020     		movs	r0, #0
 1017 00fe FFF7FEFF 		bl	OS_Pend
 751:..\..\..\..\..\..\uCOS-III\Source/os_task.c ****             (OS_PEND_OBJ  *)0,
 752:..\..\..\..\..\..\uCOS-III\Source/os_task.c ****             (OS_STATE      )OS_TASK_PEND_ON_TASK_Q,
 753:..\..\..\..\..\..\uCOS-III\Source/os_task.c ****             (OS_TICK       )timeout);
 754:..\..\..\..\..\..\uCOS-III\Source/os_task.c ****     OS_CRITICAL_EXIT_NO_SCHED();
 1018              		.loc 1 754 0
 1019 0102 B869     		ldr	r0, [r7, #24]
 1020 0104 FFF7FEFF 		bl	CPU_SR_Restore
 755:..\..\..\..\..\..\uCOS-III\Source/os_task.c **** 
 756:..\..\..\..\..\..\uCOS-III\Source/os_task.c ****     OSSched();                                              /* Find the next highest priority task 
 1021              		.loc 1 756 0
 1022 0108 FFF7FEFF 		bl	OSSched
 757:..\..\..\..\..\..\uCOS-III\Source/os_task.c **** 
 758:..\..\..\..\..\..\uCOS-III\Source/os_task.c ****     CPU_CRITICAL_ENTER();
 1023              		.loc 1 758 0
 1024 010c FFF7FEFF 		bl	CPU_SR_Save
 1025 0110 B861     		str	r0, [r7, #24]
 759:..\..\..\..\..\..\uCOS-III\Source/os_task.c ****     switch (OSTCBCurPtr->PendStatus) {
 1026              		.loc 1 759 0
 1027 0112 314B     		ldr	r3, .L91+4
 1028 0114 1B68     		ldr	r3, [r3]
 1029 0116 93F83530 		ldrb	r3, [r3, #53]	@ zero_extendqisi2
 1030 011a 002B     		cmp	r3, #0
 1031 011c 02D0     		beq	.L83
 1032 011e 012B     		cmp	r3, #1
 1033 0120 2ED0     		beq	.L84
 1034 0122 3DE0     		b	.L89
 1035              	.L83:
 760:..\..\..\..\..\..\uCOS-III\Source/os_task.c ****         case OS_STATUS_PEND_OK:                             /* Extract message from TCB (Put there 
 761:..\..\..\..\..\..\uCOS-III\Source/os_task.c ****              p_void      = OSTCBCurPtr->MsgPtr;
 1036              		.loc 1 761 0
 1037 0124 2C4B     		ldr	r3, .L91+4
 1038 0126 1B68     		ldr	r3, [r3]
 1039 0128 DB6D     		ldr	r3, [r3, #92]
 1040 012a FB61     		str	r3, [r7, #28]
 762:..\..\..\..\..\..\uCOS-III\Source/os_task.c ****             *p_msg_size  = OSTCBCurPtr->MsgSize;
 1041              		.loc 1 762 0
 1042 012c 2A4B     		ldr	r3, .L91+4
 1043 012e 1B68     		ldr	r3, [r3]
 1044 0130 B3F86020 		ldrh	r2, [r3, #96]
 1045 0134 7B68     		ldr	r3, [r7, #4]
 1046 0136 1A80     		strh	r2, [r3]	@ movhi
 763:..\..\..\..\..\..\uCOS-III\Source/os_task.c ****              if (p_ts != (CPU_TS *)0) {
 1047              		.loc 1 763 0
 1048 0138 3B68     		ldr	r3, [r7]
 1049 013a 002B     		cmp	r3, #0
 1050 013c 1CD0     		beq	.L85
 764:..\..\..\..\..\..\uCOS-III\Source/os_task.c ****                 *p_ts  = OSTCBCurPtr->TS;
 1051              		.loc 1 764 0
 1052 013e 264B     		ldr	r3, .L91+4
 1053 0140 1B68     		ldr	r3, [r3]
ARM GAS  C:\Users\Aluno\AppData\Local\Temp\ccHJiRYw.s 			page 33


 1054 0142 1A6C     		ldr	r2, [r3, #64]
 1055 0144 3B68     		ldr	r3, [r7]
 1056 0146 1A60     		str	r2, [r3]
 765:..\..\..\..\..\..\uCOS-III\Source/os_task.c **** #if OS_CFG_TASK_PROFILE_EN > 0u
 766:..\..\..\..\..\..\uCOS-III\Source/os_task.c ****                 OSTCBCurPtr->MsgQPendTime = OS_TS_GET() - OSTCBCurPtr->TS;
 1057              		.loc 1 766 0
 1058 0148 234B     		ldr	r3, .L91+4
 1059 014a 1C68     		ldr	r4, [r3]
 1060 014c FFF7FEFF 		bl	CPU_TS_TmrRd
 1061 0150 0246     		mov	r2, r0
 1062 0152 214B     		ldr	r3, .L91+4
 1063 0154 1B68     		ldr	r3, [r3]
 1064 0156 1B6C     		ldr	r3, [r3, #64]
 1065 0158 D31A     		subs	r3, r2, r3
 1066 015a 6367     		str	r3, [r4, #116]
 767:..\..\..\..\..\..\uCOS-III\Source/os_task.c ****                 if (OSTCBCurPtr->MsgQPendTimeMax < OSTCBCurPtr->MsgQPendTime) {
 1067              		.loc 1 767 0
 1068 015c 1E4B     		ldr	r3, .L91+4
 1069 015e 1B68     		ldr	r3, [r3]
 1070 0160 9A6F     		ldr	r2, [r3, #120]
 1071 0162 1D4B     		ldr	r3, .L91+4
 1072 0164 1B68     		ldr	r3, [r3]
 1073 0166 5B6F     		ldr	r3, [r3, #116]
 1074 0168 9A42     		cmp	r2, r3
 1075 016a 05D2     		bcs	.L85
 768:..\..\..\..\..\..\uCOS-III\Source/os_task.c ****                     OSTCBCurPtr->MsgQPendTimeMax = OSTCBCurPtr->MsgQPendTime;
 1076              		.loc 1 768 0
 1077 016c 1A4B     		ldr	r3, .L91+4
 1078 016e 1B68     		ldr	r3, [r3]
 1079 0170 194A     		ldr	r2, .L91+4
 1080 0172 1268     		ldr	r2, [r2]
 1081 0174 526F     		ldr	r2, [r2, #116]
 1082 0176 9A67     		str	r2, [r3, #120]
 1083              	.L85:
 769:..\..\..\..\..\..\uCOS-III\Source/os_task.c ****                 }
 770:..\..\..\..\..\..\uCOS-III\Source/os_task.c **** #endif
 771:..\..\..\..\..\..\uCOS-III\Source/os_task.c ****              }
 772:..\..\..\..\..\..\uCOS-III\Source/os_task.c ****             *p_err = OS_ERR_NONE;
 1084              		.loc 1 772 0
 1085 0178 3B6B     		ldr	r3, [r7, #48]
 1086 017a 0022     		movs	r2, #0
 1087 017c 1A80     		strh	r2, [r3]	@ movhi
 773:..\..\..\..\..\..\uCOS-III\Source/os_task.c ****              break;
 1088              		.loc 1 773 0
 1089 017e 21E0     		b	.L86
 1090              	.L84:
 774:..\..\..\..\..\..\uCOS-III\Source/os_task.c **** 
 775:..\..\..\..\..\..\uCOS-III\Source/os_task.c ****         case OS_STATUS_PEND_ABORT:                          /* Indicate that we aborted            
 776:..\..\..\..\..\..\uCOS-III\Source/os_task.c ****              p_void     = (void      *)0;
 1091              		.loc 1 776 0
 1092 0180 0023     		movs	r3, #0
 1093 0182 FB61     		str	r3, [r7, #28]
 777:..\..\..\..\..\..\uCOS-III\Source/os_task.c ****             *p_msg_size = (OS_MSG_SIZE)0;
 1094              		.loc 1 777 0
 1095 0184 7B68     		ldr	r3, [r7, #4]
 1096 0186 0022     		movs	r2, #0
 1097 0188 1A80     		strh	r2, [r3]	@ movhi
ARM GAS  C:\Users\Aluno\AppData\Local\Temp\ccHJiRYw.s 			page 34


 778:..\..\..\..\..\..\uCOS-III\Source/os_task.c ****              if (p_ts  != (CPU_TS *)0) {
 1098              		.loc 1 778 0
 1099 018a 3B68     		ldr	r3, [r7]
 1100 018c 002B     		cmp	r3, #0
 1101 018e 02D0     		beq	.L87
 779:..\..\..\..\..\..\uCOS-III\Source/os_task.c ****                 *p_ts   = (CPU_TS  )0;
 1102              		.loc 1 779 0
 1103 0190 3B68     		ldr	r3, [r7]
 1104 0192 0022     		movs	r2, #0
 1105 0194 1A60     		str	r2, [r3]
 1106              	.L87:
 780:..\..\..\..\..\..\uCOS-III\Source/os_task.c ****              }
 781:..\..\..\..\..\..\uCOS-III\Source/os_task.c ****             *p_err      =  OS_ERR_PEND_ABORT;
 1107              		.loc 1 781 0
 1108 0196 3B6B     		ldr	r3, [r7, #48]
 1109 0198 46F2A912 		movw	r2, #25001
 1110 019c 1A80     		strh	r2, [r3]	@ movhi
 782:..\..\..\..\..\..\uCOS-III\Source/os_task.c ****              break;
 1111              		.loc 1 782 0
 1112 019e 11E0     		b	.L86
 1113              	.L89:
 783:..\..\..\..\..\..\uCOS-III\Source/os_task.c **** 
 784:..\..\..\..\..\..\uCOS-III\Source/os_task.c ****         case OS_STATUS_PEND_TIMEOUT:                        /* Indicate that we didn't get event wi
 785:..\..\..\..\..\..\uCOS-III\Source/os_task.c ****         default:
 786:..\..\..\..\..\..\uCOS-III\Source/os_task.c ****              p_void     = (void      *)0;
 1114              		.loc 1 786 0
 1115 01a0 0023     		movs	r3, #0
 1116 01a2 FB61     		str	r3, [r7, #28]
 787:..\..\..\..\..\..\uCOS-III\Source/os_task.c ****             *p_msg_size = (OS_MSG_SIZE)0;
 1117              		.loc 1 787 0
 1118 01a4 7B68     		ldr	r3, [r7, #4]
 1119 01a6 0022     		movs	r2, #0
 1120 01a8 1A80     		strh	r2, [r3]	@ movhi
 788:..\..\..\..\..\..\uCOS-III\Source/os_task.c ****              if (p_ts  != (CPU_TS *)0) {
 1121              		.loc 1 788 0
 1122 01aa 3B68     		ldr	r3, [r7]
 1123 01ac 002B     		cmp	r3, #0
 1124 01ae 04D0     		beq	.L88
 789:..\..\..\..\..\..\uCOS-III\Source/os_task.c ****                 *p_ts   =  OSTCBCurPtr->TS;
 1125              		.loc 1 789 0
 1126 01b0 094B     		ldr	r3, .L91+4
 1127 01b2 1B68     		ldr	r3, [r3]
 1128 01b4 1A6C     		ldr	r2, [r3, #64]
 1129 01b6 3B68     		ldr	r3, [r7]
 1130 01b8 1A60     		str	r2, [r3]
 1131              	.L88:
 790:..\..\..\..\..\..\uCOS-III\Source/os_task.c ****              }
 791:..\..\..\..\..\..\uCOS-III\Source/os_task.c ****             *p_err      =  OS_ERR_TIMEOUT;
 1132              		.loc 1 791 0
 1133 01ba 3B6B     		ldr	r3, [r7, #48]
 1134 01bc 47F2D922 		movw	r2, #29401
 1135 01c0 1A80     		strh	r2, [r3]	@ movhi
 792:..\..\..\..\..\..\uCOS-III\Source/os_task.c ****              break;
 1136              		.loc 1 792 0
 1137 01c2 00BF     		nop
 1138              	.L86:
 793:..\..\..\..\..\..\uCOS-III\Source/os_task.c ****     }
ARM GAS  C:\Users\Aluno\AppData\Local\Temp\ccHJiRYw.s 			page 35


 794:..\..\..\..\..\..\uCOS-III\Source/os_task.c ****     CPU_CRITICAL_EXIT();
 1139              		.loc 1 794 0
 1140 01c4 B869     		ldr	r0, [r7, #24]
 1141 01c6 FFF7FEFF 		bl	CPU_SR_Restore
 795:..\..\..\..\..\..\uCOS-III\Source/os_task.c ****     return (p_void);                                        /* Return received message             
 1142              		.loc 1 795 0
 1143 01ca FB69     		ldr	r3, [r7, #28]
 1144              	.L72:
 796:..\..\..\..\..\..\uCOS-III\Source/os_task.c **** }
 1145              		.loc 1 796 0
 1146 01cc 1846     		mov	r0, r3
 1147 01ce 2437     		adds	r7, r7, #36
 1148              		.cfi_def_cfa_offset 12
 1149 01d0 BD46     		mov	sp, r7
 1150              		.cfi_def_cfa_register 13
 1151              		@ sp needed
 1152 01d2 90BD     		pop	{r4, r7, pc}
 1153              	.L92:
 1154              		.align	2
 1155              	.L91:
 1156 01d4 00000000 		.word	OSIntNestingCtr
 1157 01d8 00000000 		.word	OSTCBCurPtr
 1158 01dc 00000000 		.word	OSSchedLockNestingCtr
 1159              		.cfi_endproc
 1160              	.LFE4:
 1161              		.size	OSTaskQPend, .-OSTaskQPend
 1162              		.section	.text.OSTaskQPendAbort,"ax",%progbits
 1163              		.align	2
 1164              		.global	OSTaskQPendAbort
 1165              		.thumb
 1166              		.thumb_func
 1167              		.type	OSTaskQPendAbort, %function
 1168              	OSTaskQPendAbort:
 1169              	.LFB5:
 797:..\..\..\..\..\..\uCOS-III\Source/os_task.c **** #endif
 798:..\..\..\..\..\..\uCOS-III\Source/os_task.c **** 
 799:..\..\..\..\..\..\uCOS-III\Source/os_task.c **** /*$PAGE*/
 800:..\..\..\..\..\..\uCOS-III\Source/os_task.c **** /*
 801:..\..\..\..\..\..\uCOS-III\Source/os_task.c **** ***************************************************************************************************
 802:..\..\..\..\..\..\uCOS-III\Source/os_task.c **** *                                              ABORT WAITING FOR A MESSAGE
 803:..\..\..\..\..\..\uCOS-III\Source/os_task.c **** *
 804:..\..\..\..\..\..\uCOS-III\Source/os_task.c **** * Description: This function aborts & readies the task specified.  This function should be used to 
 805:..\..\..\..\..\..\uCOS-III\Source/os_task.c **** *              for a message, rather than to normally post the message to the task via OSTaskQPost(
 806:..\..\..\..\..\..\uCOS-III\Source/os_task.c **** *
 807:..\..\..\..\..\..\uCOS-III\Source/os_task.c **** * Arguments  : p_tcb     is a pointer to the task to pend abort
 808:..\..\..\..\..\..\uCOS-III\Source/os_task.c **** *
 809:..\..\..\..\..\..\uCOS-III\Source/os_task.c **** *              opt       provides options for this function:
 810:..\..\..\..\..\..\uCOS-III\Source/os_task.c **** *
 811:..\..\..\..\..\..\uCOS-III\Source/os_task.c **** *                            OS_OPT_POST_NONE         No option specified
 812:..\..\..\..\..\..\uCOS-III\Source/os_task.c **** *                            OS_OPT_POST_NO_SCHED     Indicates that the scheduler will not be call
 813:..\..\..\..\..\..\uCOS-III\Source/os_task.c **** *
 814:..\..\..\..\..\..\uCOS-III\Source/os_task.c **** *              p_err     is a pointer to a variable that will contain an error code returned by thi
 815:..\..\..\..\..\..\uCOS-III\Source/os_task.c **** *
 816:..\..\..\..\..\..\uCOS-III\Source/os_task.c **** *                            OS_ERR_NONE              If the task was readied and informed of the a
 817:..\..\..\..\..\..\uCOS-III\Source/os_task.c **** *                            OS_ERR_PEND_ABORT_ISR    If you called this function from an ISR
 818:..\..\..\..\..\..\uCOS-III\Source/os_task.c **** *                            OS_ERR_PEND_ABORT_NONE   If task was not pending on a message and thus
 819:..\..\..\..\..\..\uCOS-III\Source/os_task.c **** *                                                     abort.
ARM GAS  C:\Users\Aluno\AppData\Local\Temp\ccHJiRYw.s 			page 36


 820:..\..\..\..\..\..\uCOS-III\Source/os_task.c **** *                            OS_ERR_PEND_ABORT_SELF   If you passed a NULL pointer for 'p_tcb'
 821:..\..\..\..\..\..\uCOS-III\Source/os_task.c **** *
 822:..\..\..\..\..\..\uCOS-III\Source/os_task.c **** * Returns    : == DEF_FALSE   if task was not waiting for a message, or upon error.
 823:..\..\..\..\..\..\uCOS-III\Source/os_task.c **** *              == DEF_TRUE    if task was waiting for a message and was readied and informed.
 824:..\..\..\..\..\..\uCOS-III\Source/os_task.c **** ***************************************************************************************************
 825:..\..\..\..\..\..\uCOS-III\Source/os_task.c **** */
 826:..\..\..\..\..\..\uCOS-III\Source/os_task.c **** 
 827:..\..\..\..\..\..\uCOS-III\Source/os_task.c **** #if (OS_CFG_TASK_Q_EN > 0u) && (OS_CFG_TASK_Q_PEND_ABORT_EN > 0u)
 828:..\..\..\..\..\..\uCOS-III\Source/os_task.c **** CPU_BOOLEAN  OSTaskQPendAbort (OS_TCB  *p_tcb,
 829:..\..\..\..\..\..\uCOS-III\Source/os_task.c ****                                OS_OPT   opt,
 830:..\..\..\..\..\..\uCOS-III\Source/os_task.c ****                                OS_ERR  *p_err)
 831:..\..\..\..\..\..\uCOS-III\Source/os_task.c **** {
 1170              		.loc 1 831 0
 1171              		.cfi_startproc
 1172              		@ args = 0, pretend = 0, frame = 24
 1173              		@ frame_needed = 1, uses_anonymous_args = 0
 1174 0000 80B5     		push	{r7, lr}
 1175              		.cfi_def_cfa_offset 8
 1176              		.cfi_offset 7, -8
 1177              		.cfi_offset 14, -4
 1178 0002 86B0     		sub	sp, sp, #24
 1179              		.cfi_def_cfa_offset 32
 1180 0004 00AF     		add	r7, sp, #0
 1181              		.cfi_def_cfa_register 7
 1182 0006 F860     		str	r0, [r7, #12]
 1183 0008 0B46     		mov	r3, r1
 1184 000a 7A60     		str	r2, [r7, #4]
 1185 000c 7B81     		strh	r3, [r7, #10]	@ movhi
 832:..\..\..\..\..\..\uCOS-III\Source/os_task.c ****     CPU_TS         ts;
 833:..\..\..\..\..\..\uCOS-III\Source/os_task.c ****     CPU_SR_ALLOC();
 1186              		.loc 1 833 0
 1187 000e 0023     		movs	r3, #0
 1188 0010 7B61     		str	r3, [r7, #20]
 834:..\..\..\..\..\..\uCOS-III\Source/os_task.c **** 
 835:..\..\..\..\..\..\uCOS-III\Source/os_task.c **** 
 836:..\..\..\..\..\..\uCOS-III\Source/os_task.c **** 
 837:..\..\..\..\..\..\uCOS-III\Source/os_task.c **** #ifdef OS_SAFETY_CRITICAL
 838:..\..\..\..\..\..\uCOS-III\Source/os_task.c ****     if (p_err == (OS_ERR *)0) {
 839:..\..\..\..\..\..\uCOS-III\Source/os_task.c ****         OS_SAFETY_CRITICAL_EXCEPTION();
 840:..\..\..\..\..\..\uCOS-III\Source/os_task.c ****         return (DEF_FALSE);
 841:..\..\..\..\..\..\uCOS-III\Source/os_task.c ****     }
 842:..\..\..\..\..\..\uCOS-III\Source/os_task.c **** #endif
 843:..\..\..\..\..\..\uCOS-III\Source/os_task.c **** 
 844:..\..\..\..\..\..\uCOS-III\Source/os_task.c **** #if OS_CFG_CALLED_FROM_ISR_CHK_EN > 0u
 845:..\..\..\..\..\..\uCOS-III\Source/os_task.c ****     if (OSIntNestingCtr > (OS_NESTING_CTR)0) {              /* See if called from ISR ...          
 1189              		.loc 1 845 0
 1190 0012 294B     		ldr	r3, .L104
 1191 0014 1B78     		ldrb	r3, [r3]	@ zero_extendqisi2
 1192 0016 002B     		cmp	r3, #0
 1193 0018 05D0     		beq	.L94
 846:..\..\..\..\..\..\uCOS-III\Source/os_task.c ****        *p_err = OS_ERR_PEND_ABORT_ISR;                      /* ... can't Pend Abort from an ISR    
 1194              		.loc 1 846 0
 1195 001a 7B68     		ldr	r3, [r7, #4]
 1196 001c 46F2AA12 		movw	r2, #25002
 1197 0020 1A80     		strh	r2, [r3]	@ movhi
 847:..\..\..\..\..\..\uCOS-III\Source/os_task.c ****         return (DEF_FALSE);
 1198              		.loc 1 847 0
ARM GAS  C:\Users\Aluno\AppData\Local\Temp\ccHJiRYw.s 			page 37


 1199 0022 0023     		movs	r3, #0
 1200 0024 43E0     		b	.L95
 1201              	.L94:
 848:..\..\..\..\..\..\uCOS-III\Source/os_task.c ****     }
 849:..\..\..\..\..\..\uCOS-III\Source/os_task.c **** #endif
 850:..\..\..\..\..\..\uCOS-III\Source/os_task.c **** 
 851:..\..\..\..\..\..\uCOS-III\Source/os_task.c **** #if OS_CFG_ARG_CHK_EN > 0u                                  /* ---------------- VALIDATE ARGUMENTS 
 852:..\..\..\..\..\..\uCOS-III\Source/os_task.c ****     switch (opt) {                                          /* User must supply a valid option     
 1202              		.loc 1 852 0
 1203 0026 7B89     		ldrh	r3, [r7, #10]
 1204 0028 002B     		cmp	r3, #0
 1205 002a 08D0     		beq	.L103
 1206 002c B3F5004F 		cmp	r3, #32768
 1207 0030 05D0     		beq	.L103
 853:..\..\..\..\..\..\uCOS-III\Source/os_task.c ****         case OS_OPT_POST_NONE:
 854:..\..\..\..\..\..\uCOS-III\Source/os_task.c ****         case OS_OPT_POST_NO_SCHED:
 855:..\..\..\..\..\..\uCOS-III\Source/os_task.c ****              break;
 856:..\..\..\..\..\..\uCOS-III\Source/os_task.c **** 
 857:..\..\..\..\..\..\uCOS-III\Source/os_task.c ****         default:
 858:..\..\..\..\..\..\uCOS-III\Source/os_task.c ****             *p_err = OS_ERR_OPT_INVALID;
 1208              		.loc 1 858 0
 1209 0032 7B68     		ldr	r3, [r7, #4]
 1210 0034 45F62562 		movw	r2, #24101
 1211 0038 1A80     		strh	r2, [r3]	@ movhi
 859:..\..\..\..\..\..\uCOS-III\Source/os_task.c ****              return (DEF_FALSE);
 1212              		.loc 1 859 0
 1213 003a 0023     		movs	r3, #0
 1214 003c 37E0     		b	.L95
 1215              	.L103:
 855:..\..\..\..\..\..\uCOS-III\Source/os_task.c **** 
 1216              		.loc 1 855 0
 1217 003e 00BF     		nop
 860:..\..\..\..\..\..\uCOS-III\Source/os_task.c ****     }
 861:..\..\..\..\..\..\uCOS-III\Source/os_task.c **** #endif
 862:..\..\..\..\..\..\uCOS-III\Source/os_task.c **** 
 863:..\..\..\..\..\..\uCOS-III\Source/os_task.c ****     CPU_CRITICAL_ENTER();
 1218              		.loc 1 863 0
 1219 0040 FFF7FEFF 		bl	CPU_SR_Save
 1220 0044 7861     		str	r0, [r7, #20]
 864:..\..\..\..\..\..\uCOS-III\Source/os_task.c **** #if OS_CFG_ARG_CHK_EN > 0u
 865:..\..\..\..\..\..\uCOS-III\Source/os_task.c ****     if ((p_tcb == (OS_TCB *)0) ||                           /* Pend abort self?                    
 1221              		.loc 1 865 0
 1222 0046 FB68     		ldr	r3, [r7, #12]
 1223 0048 002B     		cmp	r3, #0
 1224 004a 04D0     		beq	.L99
 866:..\..\..\..\..\..\uCOS-III\Source/os_task.c ****         (p_tcb == OSTCBCurPtr)) {
 1225              		.loc 1 866 0 discriminator 1
 1226 004c 1B4B     		ldr	r3, .L104+4
 1227 004e 1B68     		ldr	r3, [r3]
 865:..\..\..\..\..\..\uCOS-III\Source/os_task.c ****         (p_tcb == OSTCBCurPtr)) {
 1228              		.loc 1 865 0 discriminator 1
 1229 0050 FA68     		ldr	r2, [r7, #12]
 1230 0052 9A42     		cmp	r2, r3
 1231 0054 08D1     		bne	.L100
 1232              	.L99:
 867:..\..\..\..\..\..\uCOS-III\Source/os_task.c ****         CPU_CRITICAL_EXIT();
 1233              		.loc 1 867 0
ARM GAS  C:\Users\Aluno\AppData\Local\Temp\ccHJiRYw.s 			page 38


 1234 0056 7869     		ldr	r0, [r7, #20]
 1235 0058 FFF7FEFF 		bl	CPU_SR_Restore
 868:..\..\..\..\..\..\uCOS-III\Source/os_task.c ****        *p_err = OS_ERR_PEND_ABORT_SELF;                     /* ... doesn't make sense              
 1236              		.loc 1 868 0
 1237 005c 7B68     		ldr	r3, [r7, #4]
 1238 005e 46F2AC12 		movw	r2, #25004
 1239 0062 1A80     		strh	r2, [r3]	@ movhi
 869:..\..\..\..\..\..\uCOS-III\Source/os_task.c ****         return (DEF_FALSE);
 1240              		.loc 1 869 0
 1241 0064 0023     		movs	r3, #0
 1242 0066 22E0     		b	.L95
 1243              	.L100:
 870:..\..\..\..\..\..\uCOS-III\Source/os_task.c ****     }
 871:..\..\..\..\..\..\uCOS-III\Source/os_task.c **** #endif
 872:..\..\..\..\..\..\uCOS-III\Source/os_task.c **** 
 873:..\..\..\..\..\..\uCOS-III\Source/os_task.c ****     if (p_tcb->PendOn != OS_TASK_PEND_ON_TASK_Q) {          /* Is task waiting for a message?      
 1244              		.loc 1 873 0
 1245 0068 FB68     		ldr	r3, [r7, #12]
 1246 006a 93F83430 		ldrb	r3, [r3, #52]	@ zero_extendqisi2
 1247 006e 022B     		cmp	r3, #2
 1248 0070 08D0     		beq	.L101
 874:..\..\..\..\..\..\uCOS-III\Source/os_task.c ****         CPU_CRITICAL_EXIT();                                /* No                                  
 1249              		.loc 1 874 0
 1250 0072 7869     		ldr	r0, [r7, #20]
 1251 0074 FFF7FEFF 		bl	CPU_SR_Restore
 875:..\..\..\..\..\..\uCOS-III\Source/os_task.c ****        *p_err = OS_ERR_PEND_ABORT_NONE;
 1252              		.loc 1 875 0
 1253 0078 7B68     		ldr	r3, [r7, #4]
 1254 007a 46F2AB12 		movw	r2, #25003
 1255 007e 1A80     		strh	r2, [r3]	@ movhi
 876:..\..\..\..\..\..\uCOS-III\Source/os_task.c ****         return (DEF_FALSE);
 1256              		.loc 1 876 0
 1257 0080 0023     		movs	r3, #0
 1258 0082 14E0     		b	.L95
 1259              	.L101:
 877:..\..\..\..\..\..\uCOS-III\Source/os_task.c ****     }
 878:..\..\..\..\..\..\uCOS-III\Source/os_task.c **** 
 879:..\..\..\..\..\..\uCOS-III\Source/os_task.c ****     OS_CRITICAL_ENTER_CPU_EXIT();
 880:..\..\..\..\..\..\uCOS-III\Source/os_task.c ****     ts = OS_TS_GET();                                       /* Get timestamp of when the abort occu
 1260              		.loc 1 880 0
 1261 0084 FFF7FEFF 		bl	CPU_TS_TmrRd
 1262 0088 3861     		str	r0, [r7, #16]
 881:..\..\..\..\..\..\uCOS-III\Source/os_task.c ****     OS_PendAbort((OS_PEND_OBJ *)0,                          /* Abort the pend                      
 1263              		.loc 1 881 0
 1264 008a 3A69     		ldr	r2, [r7, #16]
 1265 008c F968     		ldr	r1, [r7, #12]
 1266 008e 0020     		movs	r0, #0
 1267 0090 FFF7FEFF 		bl	OS_PendAbort
 882:..\..\..\..\..\..\uCOS-III\Source/os_task.c ****                  p_tcb,
 883:..\..\..\..\..\..\uCOS-III\Source/os_task.c ****                  ts);
 884:..\..\..\..\..\..\uCOS-III\Source/os_task.c ****     OS_CRITICAL_EXIT_NO_SCHED();
 1268              		.loc 1 884 0
 1269 0094 7869     		ldr	r0, [r7, #20]
 1270 0096 FFF7FEFF 		bl	CPU_SR_Restore
 885:..\..\..\..\..\..\uCOS-III\Source/os_task.c ****     if ((opt & OS_OPT_POST_NO_SCHED) == (OS_OPT)0) {
 1271              		.loc 1 885 0
 1272 009a B7F90A30 		ldrsh	r3, [r7, #10]
ARM GAS  C:\Users\Aluno\AppData\Local\Temp\ccHJiRYw.s 			page 39


 1273 009e 002B     		cmp	r3, #0
 1274 00a0 01DB     		blt	.L102
 886:..\..\..\..\..\..\uCOS-III\Source/os_task.c ****         OSSched();                                          /* Run the scheduler                   
 1275              		.loc 1 886 0
 1276 00a2 FFF7FEFF 		bl	OSSched
 1277              	.L102:
 887:..\..\..\..\..\..\uCOS-III\Source/os_task.c ****     }
 888:..\..\..\..\..\..\uCOS-III\Source/os_task.c ****    *p_err = OS_ERR_NONE;
 1278              		.loc 1 888 0
 1279 00a6 7B68     		ldr	r3, [r7, #4]
 1280 00a8 0022     		movs	r2, #0
 1281 00aa 1A80     		strh	r2, [r3]	@ movhi
 889:..\..\..\..\..\..\uCOS-III\Source/os_task.c ****     return (DEF_TRUE);
 1282              		.loc 1 889 0
 1283 00ac 0123     		movs	r3, #1
 1284              	.L95:
 890:..\..\..\..\..\..\uCOS-III\Source/os_task.c **** }
 1285              		.loc 1 890 0
 1286 00ae 1846     		mov	r0, r3
 1287 00b0 1837     		adds	r7, r7, #24
 1288              		.cfi_def_cfa_offset 8
 1289 00b2 BD46     		mov	sp, r7
 1290              		.cfi_def_cfa_register 13
 1291              		@ sp needed
 1292 00b4 80BD     		pop	{r7, pc}
 1293              	.L105:
 1294 00b6 00BF     		.align	2
 1295              	.L104:
 1296 00b8 00000000 		.word	OSIntNestingCtr
 1297 00bc 00000000 		.word	OSTCBCurPtr
 1298              		.cfi_endproc
 1299              	.LFE5:
 1300              		.size	OSTaskQPendAbort, .-OSTaskQPendAbort
 1301              		.section	.text.OSTaskQPost,"ax",%progbits
 1302              		.align	2
 1303              		.global	OSTaskQPost
 1304              		.thumb
 1305              		.thumb_func
 1306              		.type	OSTaskQPost, %function
 1307              	OSTaskQPost:
 1308              	.LFB6:
 891:..\..\..\..\..\..\uCOS-III\Source/os_task.c **** #endif
 892:..\..\..\..\..\..\uCOS-III\Source/os_task.c **** 
 893:..\..\..\..\..\..\uCOS-III\Source/os_task.c **** /*$PAGE*/
 894:..\..\..\..\..\..\uCOS-III\Source/os_task.c **** /*
 895:..\..\..\..\..\..\uCOS-III\Source/os_task.c **** ***************************************************************************************************
 896:..\..\..\..\..\..\uCOS-III\Source/os_task.c **** *                                               POST MESSAGE TO A TASK
 897:..\..\..\..\..\..\uCOS-III\Source/os_task.c **** *
 898:..\..\..\..\..\..\uCOS-III\Source/os_task.c **** * Description: This function sends a message to a task
 899:..\..\..\..\..\..\uCOS-III\Source/os_task.c **** *
 900:..\..\..\..\..\..\uCOS-III\Source/os_task.c **** * Arguments  : p_tcb      is a pointer to the TCB of the task receiving a message.  If you specify 
 901:..\..\..\..\..\..\uCOS-III\Source/os_task.c **** *                         the message will be posted to the task's queue of the calling task.  In o
 902:..\..\..\..\..\..\uCOS-III\Source/os_task.c **** *                         posting a message to yourself.
 903:..\..\..\..\..\..\uCOS-III\Source/os_task.c **** *
 904:..\..\..\..\..\..\uCOS-III\Source/os_task.c **** *              p_void     is a pointer to the message to send.
 905:..\..\..\..\..\..\uCOS-III\Source/os_task.c **** *
 906:..\..\..\..\..\..\uCOS-III\Source/os_task.c **** *              msg_size   is the size of the message sent (in #bytes)
ARM GAS  C:\Users\Aluno\AppData\Local\Temp\ccHJiRYw.s 			page 40


 907:..\..\..\..\..\..\uCOS-III\Source/os_task.c **** *
 908:..\..\..\..\..\..\uCOS-III\Source/os_task.c **** *              opt        specifies whether the post will be FIFO or LIFO:
 909:..\..\..\..\..\..\uCOS-III\Source/os_task.c **** *
 910:..\..\..\..\..\..\uCOS-III\Source/os_task.c **** *                             OS_OPT_POST_FIFO       Post at the end   of the queue
 911:..\..\..\..\..\..\uCOS-III\Source/os_task.c **** *                             OS_OPT_POST_LIFO       Post at the front of the queue
 912:..\..\..\..\..\..\uCOS-III\Source/os_task.c **** *
 913:..\..\..\..\..\..\uCOS-III\Source/os_task.c **** *                             OS_OPT_POST_NO_SCHED   Do not run the scheduler after the post
 914:..\..\..\..\..\..\uCOS-III\Source/os_task.c **** *
 915:..\..\..\..\..\..\uCOS-III\Source/os_task.c **** *                          Note(s): 1) OS_OPT_POST_NO_SCHED can be added with one of the other opti
 916:..\..\..\..\..\..\uCOS-III\Source/os_task.c **** *
 917:..\..\..\..\..\..\uCOS-III\Source/os_task.c **** *
 918:..\..\..\..\..\..\uCOS-III\Source/os_task.c **** *              p_err      is a pointer to a variable that will hold the error code associated
 919:..\..\..\..\..\..\uCOS-III\Source/os_task.c **** *                         with the outcome of this call.  Errors can be:
 920:..\..\..\..\..\..\uCOS-III\Source/os_task.c **** *
 921:..\..\..\..\..\..\uCOS-III\Source/os_task.c **** *                             OS_ERR_NONE            The call was successful and the message was se
 922:..\..\..\..\..\..\uCOS-III\Source/os_task.c **** *                             OS_ERR_Q_MAX           If the queue is full
 923:..\..\..\..\..\..\uCOS-III\Source/os_task.c **** *                             OS_ERR_MSG_POOL_EMPTY  If there are no more OS_MSGs available from th
 924:..\..\..\..\..\..\uCOS-III\Source/os_task.c **** *
 925:..\..\..\..\..\..\uCOS-III\Source/os_task.c **** * Returns    : none
 926:..\..\..\..\..\..\uCOS-III\Source/os_task.c **** ***************************************************************************************************
 927:..\..\..\..\..\..\uCOS-III\Source/os_task.c **** */
 928:..\..\..\..\..\..\uCOS-III\Source/os_task.c **** 
 929:..\..\..\..\..\..\uCOS-III\Source/os_task.c **** #if OS_CFG_TASK_Q_EN > 0u
 930:..\..\..\..\..\..\uCOS-III\Source/os_task.c **** void  OSTaskQPost (OS_TCB       *p_tcb,
 931:..\..\..\..\..\..\uCOS-III\Source/os_task.c ****                    void         *p_void,
 932:..\..\..\..\..\..\uCOS-III\Source/os_task.c ****                    OS_MSG_SIZE   msg_size,
 933:..\..\..\..\..\..\uCOS-III\Source/os_task.c ****                    OS_OPT        opt,
 934:..\..\..\..\..\..\uCOS-III\Source/os_task.c ****                    OS_ERR       *p_err)
 935:..\..\..\..\..\..\uCOS-III\Source/os_task.c **** {
 1309              		.loc 1 935 0
 1310              		.cfi_startproc
 1311              		@ args = 4, pretend = 0, frame = 24
 1312              		@ frame_needed = 1, uses_anonymous_args = 0
 1313 0000 80B5     		push	{r7, lr}
 1314              		.cfi_def_cfa_offset 8
 1315              		.cfi_offset 7, -8
 1316              		.cfi_offset 14, -4
 1317 0002 88B0     		sub	sp, sp, #32
 1318              		.cfi_def_cfa_offset 40
 1319 0004 02AF     		add	r7, sp, #8
 1320              		.cfi_def_cfa 7, 32
 1321 0006 F860     		str	r0, [r7, #12]
 1322 0008 B960     		str	r1, [r7, #8]
 1323 000a 1146     		mov	r1, r2
 1324 000c 1A46     		mov	r2, r3
 1325 000e 0B46     		mov	r3, r1	@ movhi
 1326 0010 FB80     		strh	r3, [r7, #6]	@ movhi
 1327 0012 1346     		mov	r3, r2	@ movhi
 1328 0014 BB80     		strh	r3, [r7, #4]	@ movhi
 936:..\..\..\..\..\..\uCOS-III\Source/os_task.c ****     CPU_TS   ts;
 937:..\..\..\..\..\..\uCOS-III\Source/os_task.c **** 
 938:..\..\..\..\..\..\uCOS-III\Source/os_task.c **** 
 939:..\..\..\..\..\..\uCOS-III\Source/os_task.c **** 
 940:..\..\..\..\..\..\uCOS-III\Source/os_task.c **** #ifdef OS_SAFETY_CRITICAL
 941:..\..\..\..\..\..\uCOS-III\Source/os_task.c ****     if (p_err == (OS_ERR *)0) {
 942:..\..\..\..\..\..\uCOS-III\Source/os_task.c ****         OS_SAFETY_CRITICAL_EXCEPTION();
 943:..\..\..\..\..\..\uCOS-III\Source/os_task.c ****         return;
ARM GAS  C:\Users\Aluno\AppData\Local\Temp\ccHJiRYw.s 			page 41


 944:..\..\..\..\..\..\uCOS-III\Source/os_task.c ****     }
 945:..\..\..\..\..\..\uCOS-III\Source/os_task.c **** #endif
 946:..\..\..\..\..\..\uCOS-III\Source/os_task.c **** 
 947:..\..\..\..\..\..\uCOS-III\Source/os_task.c **** #if OS_CFG_ARG_CHK_EN > 0u                                  /* ---------------- VALIDATE ARGUMENTS 
 948:..\..\..\..\..\..\uCOS-III\Source/os_task.c ****     switch (opt) {                                          /* User must supply a valid option     
 1329              		.loc 1 948 0
 1330 0016 BB88     		ldrh	r3, [r7, #4]
 1331 0018 102B     		cmp	r3, #16
 1332 001a 10D0     		beq	.L112
 1333 001c 102B     		cmp	r3, #16
 1334 001e 02DC     		bgt	.L109
 1335 0020 002B     		cmp	r3, #0
 1336 0022 0CD0     		beq	.L112
 1337 0024 06E0     		b	.L107
 1338              	.L109:
 1339 0026 B3F5004F 		cmp	r3, #32768
 1340 002a 08D0     		beq	.L112
 1341 002c 48F21002 		movw	r2, #32784
 1342 0030 9342     		cmp	r3, r2
 1343 0032 04D0     		beq	.L112
 1344              	.L107:
 949:..\..\..\..\..\..\uCOS-III\Source/os_task.c ****         case OS_OPT_POST_FIFO:
 950:..\..\..\..\..\..\uCOS-III\Source/os_task.c ****         case OS_OPT_POST_LIFO:
 951:..\..\..\..\..\..\uCOS-III\Source/os_task.c ****         case OS_OPT_POST_FIFO | OS_OPT_POST_NO_SCHED:
 952:..\..\..\..\..\..\uCOS-III\Source/os_task.c ****         case OS_OPT_POST_LIFO | OS_OPT_POST_NO_SCHED:
 953:..\..\..\..\..\..\uCOS-III\Source/os_task.c ****              break;
 954:..\..\..\..\..\..\uCOS-III\Source/os_task.c **** 
 955:..\..\..\..\..\..\uCOS-III\Source/os_task.c ****         default:
 956:..\..\..\..\..\..\uCOS-III\Source/os_task.c ****             *p_err = OS_ERR_OPT_INVALID;
 1345              		.loc 1 956 0
 1346 0034 3B6A     		ldr	r3, [r7, #32]
 1347 0036 45F62562 		movw	r2, #24101
 1348 003a 1A80     		strh	r2, [r3]	@ movhi
 957:..\..\..\..\..\..\uCOS-III\Source/os_task.c ****              return;
 1349              		.loc 1 957 0
 1350 003c 0EE0     		b	.L106
 1351              	.L112:
 953:..\..\..\..\..\..\uCOS-III\Source/os_task.c **** 
 1352              		.loc 1 953 0
 1353 003e 00BF     		nop
 958:..\..\..\..\..\..\uCOS-III\Source/os_task.c ****     }
 959:..\..\..\..\..\..\uCOS-III\Source/os_task.c **** #endif
 960:..\..\..\..\..\..\uCOS-III\Source/os_task.c **** 
 961:..\..\..\..\..\..\uCOS-III\Source/os_task.c ****     ts = OS_TS_GET();                                       /* Get timestamp                       
 1354              		.loc 1 961 0
 1355 0040 FFF7FEFF 		bl	CPU_TS_TmrRd
 1356 0044 7861     		str	r0, [r7, #20]
 962:..\..\..\..\..\..\uCOS-III\Source/os_task.c **** 
 963:..\..\..\..\..\..\uCOS-III\Source/os_task.c **** #if OS_CFG_ISR_POST_DEFERRED_EN > 0u
 964:..\..\..\..\..\..\uCOS-III\Source/os_task.c ****     if (OSIntNestingCtr > (OS_NESTING_CTR)0) {
 965:..\..\..\..\..\..\uCOS-III\Source/os_task.c ****         OS_IntQPost((OS_OBJ_TYPE)OS_OBJ_TYPE_TASK_MSG,      /* Post to ISR queue                   
 966:..\..\..\..\..\..\uCOS-III\Source/os_task.c ****                     (void      *)p_tcb,
 967:..\..\..\..\..\..\uCOS-III\Source/os_task.c ****                     (void      *)p_void,
 968:..\..\..\..\..\..\uCOS-III\Source/os_task.c ****                     (OS_MSG_SIZE)msg_size,
 969:..\..\..\..\..\..\uCOS-III\Source/os_task.c ****                     (OS_FLAGS   )0,
 970:..\..\..\..\..\..\uCOS-III\Source/os_task.c ****                     (OS_OPT     )opt,
 971:..\..\..\..\..\..\uCOS-III\Source/os_task.c ****                     (CPU_TS     )ts,
ARM GAS  C:\Users\Aluno\AppData\Local\Temp\ccHJiRYw.s 			page 42


 972:..\..\..\..\..\..\uCOS-III\Source/os_task.c ****                     (OS_ERR    *)p_err);
 973:..\..\..\..\..\..\uCOS-III\Source/os_task.c ****         return;
 974:..\..\..\..\..\..\uCOS-III\Source/os_task.c ****     }
 975:..\..\..\..\..\..\uCOS-III\Source/os_task.c **** #endif
 976:..\..\..\..\..\..\uCOS-III\Source/os_task.c **** 
 977:..\..\..\..\..\..\uCOS-III\Source/os_task.c ****     OS_TaskQPost(p_tcb,
 1357              		.loc 1 977 0
 1358 0046 B988     		ldrh	r1, [r7, #4]
 1359 0048 FA88     		ldrh	r2, [r7, #6]
 1360 004a 3B6A     		ldr	r3, [r7, #32]
 1361 004c 0193     		str	r3, [sp, #4]
 1362 004e 7B69     		ldr	r3, [r7, #20]
 1363 0050 0093     		str	r3, [sp]
 1364 0052 0B46     		mov	r3, r1
 1365 0054 B968     		ldr	r1, [r7, #8]
 1366 0056 F868     		ldr	r0, [r7, #12]
 1367 0058 FFF7FEFF 		bl	OS_TaskQPost
 1368              	.L106:
 978:..\..\..\..\..\..\uCOS-III\Source/os_task.c ****                  p_void,
 979:..\..\..\..\..\..\uCOS-III\Source/os_task.c ****                  msg_size,
 980:..\..\..\..\..\..\uCOS-III\Source/os_task.c ****                  opt,
 981:..\..\..\..\..\..\uCOS-III\Source/os_task.c ****                  ts,
 982:..\..\..\..\..\..\uCOS-III\Source/os_task.c ****                  p_err);
 983:..\..\..\..\..\..\uCOS-III\Source/os_task.c **** }
 1369              		.loc 1 983 0
 1370 005c 1837     		adds	r7, r7, #24
 1371              		.cfi_def_cfa_offset 8
 1372 005e BD46     		mov	sp, r7
 1373              		.cfi_def_cfa_register 13
 1374              		@ sp needed
 1375 0060 80BD     		pop	{r7, pc}
 1376              		.cfi_endproc
 1377              	.LFE6:
 1378              		.size	OSTaskQPost, .-OSTaskQPost
 1379 0062 00BF     		.section	.text.OSTaskRegGet,"ax",%progbits
 1380              		.align	2
 1381              		.global	OSTaskRegGet
 1382              		.thumb
 1383              		.thumb_func
 1384              		.type	OSTaskRegGet, %function
 1385              	OSTaskRegGet:
 1386              	.LFB7:
 984:..\..\..\..\..\..\uCOS-III\Source/os_task.c **** #endif
 985:..\..\..\..\..\..\uCOS-III\Source/os_task.c **** 
 986:..\..\..\..\..\..\uCOS-III\Source/os_task.c **** /*$PAGE*/
 987:..\..\..\..\..\..\uCOS-III\Source/os_task.c **** /*
 988:..\..\..\..\..\..\uCOS-III\Source/os_task.c **** ***************************************************************************************************
 989:..\..\..\..\..\..\uCOS-III\Source/os_task.c **** *                                       GET THE CURRENT VALUE OF A TASK REGISTER
 990:..\..\..\..\..\..\uCOS-III\Source/os_task.c **** *
 991:..\..\..\..\..\..\uCOS-III\Source/os_task.c **** * Description: This function is called to obtain the current value of a task register.  Task regist
 992:..\..\..\..\..\..\uCOS-III\Source/os_task.c **** *              specific and can be used to store task specific values such as 'error numbers' (i.e.
 993:..\..\..\..\..\..\uCOS-III\Source/os_task.c **** *              etc.
 994:..\..\..\..\..\..\uCOS-III\Source/os_task.c **** *
 995:..\..\..\..\..\..\uCOS-III\Source/os_task.c **** * Arguments  : p_tcb     is a pointer to the OS_TCB of the task you want to read the register from.
 996:..\..\..\..\..\..\uCOS-III\Source/os_task.c **** *                        NULL pointer then you will get the register of the current task.
 997:..\..\..\..\..\..\uCOS-III\Source/os_task.c **** *
 998:..\..\..\..\..\..\uCOS-III\Source/os_task.c **** *              id        is the 'id' of the desired task variable.  Note that the 'id' must be less
ARM GAS  C:\Users\Aluno\AppData\Local\Temp\ccHJiRYw.s 			page 43


 999:..\..\..\..\..\..\uCOS-III\Source/os_task.c **** *                        OS_CFG_TASK_REG_TBL_SIZE
1000:..\..\..\..\..\..\uCOS-III\Source/os_task.c **** *
1001:..\..\..\..\..\..\uCOS-III\Source/os_task.c **** *              p_err     is a pointer to a variable that will hold an error code related to this ca
1002:..\..\..\..\..\..\uCOS-III\Source/os_task.c **** *
1003:..\..\..\..\..\..\uCOS-III\Source/os_task.c **** *                            OS_ERR_NONE            if the call was successful
1004:..\..\..\..\..\..\uCOS-III\Source/os_task.c **** *                            OS_ERR_REG_ID_INVALID  if the 'id' is not between 0 and OS_CFG_TASK_RE
1005:..\..\..\..\..\..\uCOS-III\Source/os_task.c **** *
1006:..\..\..\..\..\..\uCOS-III\Source/os_task.c **** * Returns    : The current value of the task's register or 0 if an error is detected.
1007:..\..\..\..\..\..\uCOS-III\Source/os_task.c **** ***************************************************************************************************
1008:..\..\..\..\..\..\uCOS-III\Source/os_task.c **** */
1009:..\..\..\..\..\..\uCOS-III\Source/os_task.c **** 
1010:..\..\..\..\..\..\uCOS-III\Source/os_task.c **** #if OS_CFG_TASK_REG_TBL_SIZE > 0u
1011:..\..\..\..\..\..\uCOS-III\Source/os_task.c **** OS_REG  OSTaskRegGet (OS_TCB     *p_tcb,
1012:..\..\..\..\..\..\uCOS-III\Source/os_task.c ****                       OS_REG_ID   id,
1013:..\..\..\..\..\..\uCOS-III\Source/os_task.c ****                       OS_ERR     *p_err)
1014:..\..\..\..\..\..\uCOS-III\Source/os_task.c **** {
 1387              		.loc 1 1014 0
 1388              		.cfi_startproc
 1389              		@ args = 0, pretend = 0, frame = 24
 1390              		@ frame_needed = 1, uses_anonymous_args = 0
 1391 0000 80B5     		push	{r7, lr}
 1392              		.cfi_def_cfa_offset 8
 1393              		.cfi_offset 7, -8
 1394              		.cfi_offset 14, -4
 1395 0002 86B0     		sub	sp, sp, #24
 1396              		.cfi_def_cfa_offset 32
 1397 0004 00AF     		add	r7, sp, #0
 1398              		.cfi_def_cfa_register 7
 1399 0006 F860     		str	r0, [r7, #12]
 1400 0008 0B46     		mov	r3, r1
 1401 000a 7A60     		str	r2, [r7, #4]
 1402 000c FB72     		strb	r3, [r7, #11]
1015:..\..\..\..\..\..\uCOS-III\Source/os_task.c ****     OS_REG     value;
1016:..\..\..\..\..\..\uCOS-III\Source/os_task.c ****     CPU_SR_ALLOC();
 1403              		.loc 1 1016 0
 1404 000e 0023     		movs	r3, #0
 1405 0010 7B61     		str	r3, [r7, #20]
1017:..\..\..\..\..\..\uCOS-III\Source/os_task.c **** 
1018:..\..\..\..\..\..\uCOS-III\Source/os_task.c **** 
1019:..\..\..\..\..\..\uCOS-III\Source/os_task.c **** 
1020:..\..\..\..\..\..\uCOS-III\Source/os_task.c **** #ifdef OS_SAFETY_CRITICAL
1021:..\..\..\..\..\..\uCOS-III\Source/os_task.c ****     if (p_err == (OS_ERR *)0) {
1022:..\..\..\..\..\..\uCOS-III\Source/os_task.c ****         OS_SAFETY_CRITICAL_EXCEPTION();
1023:..\..\..\..\..\..\uCOS-III\Source/os_task.c ****         return ((OS_REG)0);
1024:..\..\..\..\..\..\uCOS-III\Source/os_task.c ****     }
1025:..\..\..\..\..\..\uCOS-III\Source/os_task.c **** #endif
1026:..\..\..\..\..\..\uCOS-III\Source/os_task.c **** 
1027:..\..\..\..\..\..\uCOS-III\Source/os_task.c **** #if OS_CFG_ARG_CHK_EN > 0u
1028:..\..\..\..\..\..\uCOS-III\Source/os_task.c ****     if (id >= OS_CFG_TASK_REG_TBL_SIZE) {
 1406              		.loc 1 1028 0
 1407 0012 FB7A     		ldrb	r3, [r7, #11]	@ zero_extendqisi2
 1408 0014 002B     		cmp	r3, #0
 1409 0016 05D0     		beq	.L114
1029:..\..\..\..\..\..\uCOS-III\Source/os_task.c ****        *p_err = OS_ERR_REG_ID_INVALID;
 1410              		.loc 1 1029 0
 1411 0018 7B68     		ldr	r3, [r7, #4]
 1412 001a 46F67912 		movw	r2, #27001
ARM GAS  C:\Users\Aluno\AppData\Local\Temp\ccHJiRYw.s 			page 44


 1413 001e 1A80     		strh	r2, [r3]	@ movhi
1030:..\..\..\..\..\..\uCOS-III\Source/os_task.c ****         return ((OS_REG)0);
 1414              		.loc 1 1030 0
 1415 0020 0023     		movs	r3, #0
 1416 0022 16E0     		b	.L115
 1417              	.L114:
1031:..\..\..\..\..\..\uCOS-III\Source/os_task.c ****     }
1032:..\..\..\..\..\..\uCOS-III\Source/os_task.c **** #endif
1033:..\..\..\..\..\..\uCOS-III\Source/os_task.c **** 
1034:..\..\..\..\..\..\uCOS-III\Source/os_task.c ****     CPU_CRITICAL_ENTER();
 1418              		.loc 1 1034 0
 1419 0024 FFF7FEFF 		bl	CPU_SR_Save
 1420 0028 7861     		str	r0, [r7, #20]
1035:..\..\..\..\..\..\uCOS-III\Source/os_task.c ****     if (p_tcb == (OS_TCB *)0) {
 1421              		.loc 1 1035 0
 1422 002a FB68     		ldr	r3, [r7, #12]
 1423 002c 002B     		cmp	r3, #0
 1424 002e 02D1     		bne	.L116
1036:..\..\..\..\..\..\uCOS-III\Source/os_task.c ****         p_tcb = OSTCBCurPtr;
 1425              		.loc 1 1036 0
 1426 0030 0A4B     		ldr	r3, .L117
 1427 0032 1B68     		ldr	r3, [r3]
 1428 0034 FB60     		str	r3, [r7, #12]
 1429              	.L116:
1037:..\..\..\..\..\..\uCOS-III\Source/os_task.c ****     }
1038:..\..\..\..\..\..\uCOS-III\Source/os_task.c ****     value = p_tcb->RegTbl[id];
 1430              		.loc 1 1038 0
 1431 0036 FB7A     		ldrb	r3, [r7, #11]	@ zero_extendqisi2
 1432 0038 FA68     		ldr	r2, [r7, #12]
 1433 003a 1E33     		adds	r3, r3, #30
 1434 003c 9B00     		lsls	r3, r3, #2
 1435 003e 1344     		add	r3, r3, r2
 1436 0040 5B68     		ldr	r3, [r3, #4]
 1437 0042 3B61     		str	r3, [r7, #16]
1039:..\..\..\..\..\..\uCOS-III\Source/os_task.c ****     CPU_CRITICAL_EXIT();
 1438              		.loc 1 1039 0
 1439 0044 7869     		ldr	r0, [r7, #20]
 1440 0046 FFF7FEFF 		bl	CPU_SR_Restore
1040:..\..\..\..\..\..\uCOS-III\Source/os_task.c ****    *p_err = OS_ERR_NONE;
 1441              		.loc 1 1040 0
 1442 004a 7B68     		ldr	r3, [r7, #4]
 1443 004c 0022     		movs	r2, #0
 1444 004e 1A80     		strh	r2, [r3]	@ movhi
1041:..\..\..\..\..\..\uCOS-III\Source/os_task.c ****     return ((OS_REG)value);
 1445              		.loc 1 1041 0
 1446 0050 3B69     		ldr	r3, [r7, #16]
 1447              	.L115:
1042:..\..\..\..\..\..\uCOS-III\Source/os_task.c **** }
 1448              		.loc 1 1042 0
 1449 0052 1846     		mov	r0, r3
 1450 0054 1837     		adds	r7, r7, #24
 1451              		.cfi_def_cfa_offset 8
 1452 0056 BD46     		mov	sp, r7
 1453              		.cfi_def_cfa_register 13
 1454              		@ sp needed
 1455 0058 80BD     		pop	{r7, pc}
 1456              	.L118:
ARM GAS  C:\Users\Aluno\AppData\Local\Temp\ccHJiRYw.s 			page 45


 1457 005a 00BF     		.align	2
 1458              	.L117:
 1459 005c 00000000 		.word	OSTCBCurPtr
 1460              		.cfi_endproc
 1461              	.LFE7:
 1462              		.size	OSTaskRegGet, .-OSTaskRegGet
 1463              		.section	.text.OSTaskRegGetID,"ax",%progbits
 1464              		.align	2
 1465              		.global	OSTaskRegGetID
 1466              		.thumb
 1467              		.thumb_func
 1468              		.type	OSTaskRegGetID, %function
 1469              	OSTaskRegGetID:
 1470              	.LFB8:
1043:..\..\..\..\..\..\uCOS-III\Source/os_task.c **** #endif
1044:..\..\..\..\..\..\uCOS-III\Source/os_task.c **** 
1045:..\..\..\..\..\..\uCOS-III\Source/os_task.c **** /*$PAGE*/
1046:..\..\..\..\..\..\uCOS-III\Source/os_task.c **** /*
1047:..\..\..\..\..\..\uCOS-III\Source/os_task.c **** ***************************************************************************************************
1048:..\..\..\..\..\..\uCOS-III\Source/os_task.c **** *                                    ALLOCATE THE NEXT AVAILABLE TASK REGISTER ID
1049:..\..\..\..\..\..\uCOS-III\Source/os_task.c **** *
1050:..\..\..\..\..\..\uCOS-III\Source/os_task.c **** * Description: This function is called to obtain a task register ID.  This function thus allows tas
1051:..\..\..\..\..\..\uCOS-III\Source/os_task.c **** *              allocated dynamically instead of statically.
1052:..\..\..\..\..\..\uCOS-III\Source/os_task.c **** *
1053:..\..\..\..\..\..\uCOS-III\Source/os_task.c **** * Arguments  : p_err       is a pointer to a variable that will hold an error code related to this 
1054:..\..\..\..\..\..\uCOS-III\Source/os_task.c **** *
1055:..\..\..\..\..\..\uCOS-III\Source/os_task.c **** *                            OS_ERR_NONE               if the call was successful
1056:..\..\..\..\..\..\uCOS-III\Source/os_task.c **** *                            OS_ERR_NO_MORE_ID_AVAIL   if you are attempting to assign more task re
1057:..\..\..\..\..\..\uCOS-III\Source/os_task.c **** *                                                           have available through OS_CFG_TASK_REG_
1058:..\..\..\..\..\..\uCOS-III\Source/os_task.c **** *
1059:..\..\..\..\..\..\uCOS-III\Source/os_task.c **** * Returns    : The next available task register 'id' or OS_CFG_TASK_REG_TBL_SIZE if an error is det
1060:..\..\..\..\..\..\uCOS-III\Source/os_task.c **** ***************************************************************************************************
1061:..\..\..\..\..\..\uCOS-III\Source/os_task.c **** */
1062:..\..\..\..\..\..\uCOS-III\Source/os_task.c **** 
1063:..\..\..\..\..\..\uCOS-III\Source/os_task.c **** #if OS_CFG_TASK_REG_TBL_SIZE > 0u
1064:..\..\..\..\..\..\uCOS-III\Source/os_task.c **** OS_REG_ID  OSTaskRegGetID (OS_ERR  *p_err)
1065:..\..\..\..\..\..\uCOS-III\Source/os_task.c **** {
 1471              		.loc 1 1065 0
 1472              		.cfi_startproc
 1473              		@ args = 0, pretend = 0, frame = 16
 1474              		@ frame_needed = 1, uses_anonymous_args = 0
 1475 0000 80B5     		push	{r7, lr}
 1476              		.cfi_def_cfa_offset 8
 1477              		.cfi_offset 7, -8
 1478              		.cfi_offset 14, -4
 1479 0002 84B0     		sub	sp, sp, #16
 1480              		.cfi_def_cfa_offset 24
 1481 0004 00AF     		add	r7, sp, #0
 1482              		.cfi_def_cfa_register 7
 1483 0006 7860     		str	r0, [r7, #4]
1066:..\..\..\..\..\..\uCOS-III\Source/os_task.c ****     OS_REG_ID  id;
1067:..\..\..\..\..\..\uCOS-III\Source/os_task.c ****     CPU_SR_ALLOC();
 1484              		.loc 1 1067 0
 1485 0008 0023     		movs	r3, #0
 1486 000a FB60     		str	r3, [r7, #12]
1068:..\..\..\..\..\..\uCOS-III\Source/os_task.c **** 
1069:..\..\..\..\..\..\uCOS-III\Source/os_task.c **** 
ARM GAS  C:\Users\Aluno\AppData\Local\Temp\ccHJiRYw.s 			page 46


1070:..\..\..\..\..\..\uCOS-III\Source/os_task.c **** 
1071:..\..\..\..\..\..\uCOS-III\Source/os_task.c **** #ifdef OS_SAFETY_CRITICAL
1072:..\..\..\..\..\..\uCOS-III\Source/os_task.c ****     if (p_err == (OS_ERR *)0) {
1073:..\..\..\..\..\..\uCOS-III\Source/os_task.c ****         OS_SAFETY_CRITICAL_EXCEPTION();
1074:..\..\..\..\..\..\uCOS-III\Source/os_task.c ****         return ((OS_REG_ID)OS_CFG_TASK_REG_TBL_SIZE);
1075:..\..\..\..\..\..\uCOS-III\Source/os_task.c ****     }
1076:..\..\..\..\..\..\uCOS-III\Source/os_task.c **** #endif
1077:..\..\..\..\..\..\uCOS-III\Source/os_task.c **** 
1078:..\..\..\..\..\..\uCOS-III\Source/os_task.c ****     CPU_CRITICAL_ENTER();
 1487              		.loc 1 1078 0
 1488 000c FFF7FEFF 		bl	CPU_SR_Save
 1489 0010 F860     		str	r0, [r7, #12]
1079:..\..\..\..\..\..\uCOS-III\Source/os_task.c ****     if (OSTaskRegNextAvailID >= OS_CFG_TASK_REG_TBL_SIZE) {       /* See if we exceeded the number 
 1490              		.loc 1 1079 0
 1491 0012 104B     		ldr	r3, .L122
 1492 0014 1B78     		ldrb	r3, [r3]	@ zero_extendqisi2
 1493 0016 002B     		cmp	r3, #0
 1494 0018 08D0     		beq	.L120
1080:..\..\..\..\..\..\uCOS-III\Source/os_task.c ****        *p_err = OS_ERR_NO_MORE_ID_AVAIL;                          /* Yes, cannot allocate more task
 1495              		.loc 1 1080 0
 1496 001a 7B68     		ldr	r3, [r7, #4]
 1497 001c 45F6DA12 		movw	r2, #23002
 1498 0020 1A80     		strh	r2, [r3]	@ movhi
1081:..\..\..\..\..\..\uCOS-III\Source/os_task.c ****         CPU_CRITICAL_EXIT();
 1499              		.loc 1 1081 0
 1500 0022 F868     		ldr	r0, [r7, #12]
 1501 0024 FFF7FEFF 		bl	CPU_SR_Restore
1082:..\..\..\..\..\..\uCOS-III\Source/os_task.c ****         return ((OS_REG_ID)OS_CFG_TASK_REG_TBL_SIZE);
 1502              		.loc 1 1082 0
 1503 0028 0123     		movs	r3, #1
 1504 002a 0FE0     		b	.L121
 1505              	.L120:
1083:..\..\..\..\..\..\uCOS-III\Source/os_task.c ****     }
1084:..\..\..\..\..\..\uCOS-III\Source/os_task.c ****      
1085:..\..\..\..\..\..\uCOS-III\Source/os_task.c ****     id    = OSTaskRegNextAvailID;								  /* Assign the next available ID                     */
 1506              		.loc 1 1085 0
 1507 002c 094B     		ldr	r3, .L122
 1508 002e 1B78     		ldrb	r3, [r3]
 1509 0030 FB72     		strb	r3, [r7, #11]
1086:..\..\..\..\..\..\uCOS-III\Source/os_task.c ****     OSTaskRegNextAvailID++;										  /* Increment available ID for next request          */
 1510              		.loc 1 1086 0
 1511 0032 084B     		ldr	r3, .L122
 1512 0034 1B78     		ldrb	r3, [r3]	@ zero_extendqisi2
 1513 0036 0133     		adds	r3, r3, #1
 1514 0038 DAB2     		uxtb	r2, r3
 1515 003a 064B     		ldr	r3, .L122
 1516 003c 1A70     		strb	r2, [r3]
1087:..\..\..\..\..\..\uCOS-III\Source/os_task.c ****     CPU_CRITICAL_EXIT();
 1517              		.loc 1 1087 0
 1518 003e F868     		ldr	r0, [r7, #12]
 1519 0040 FFF7FEFF 		bl	CPU_SR_Restore
1088:..\..\..\..\..\..\uCOS-III\Source/os_task.c ****    *p_err = OS_ERR_NONE;
 1520              		.loc 1 1088 0
 1521 0044 7B68     		ldr	r3, [r7, #4]
 1522 0046 0022     		movs	r2, #0
 1523 0048 1A80     		strh	r2, [r3]	@ movhi
1089:..\..\..\..\..\..\uCOS-III\Source/os_task.c ****     return (id);
ARM GAS  C:\Users\Aluno\AppData\Local\Temp\ccHJiRYw.s 			page 47


 1524              		.loc 1 1089 0
 1525 004a FB7A     		ldrb	r3, [r7, #11]	@ zero_extendqisi2
 1526              	.L121:
1090:..\..\..\..\..\..\uCOS-III\Source/os_task.c **** }
 1527              		.loc 1 1090 0
 1528 004c 1846     		mov	r0, r3
 1529 004e 1037     		adds	r7, r7, #16
 1530              		.cfi_def_cfa_offset 8
 1531 0050 BD46     		mov	sp, r7
 1532              		.cfi_def_cfa_register 13
 1533              		@ sp needed
 1534 0052 80BD     		pop	{r7, pc}
 1535              	.L123:
 1536              		.align	2
 1537              	.L122:
 1538 0054 00000000 		.word	OSTaskRegNextAvailID
 1539              		.cfi_endproc
 1540              	.LFE8:
 1541              		.size	OSTaskRegGetID, .-OSTaskRegGetID
 1542              		.section	.text.OSTaskRegSet,"ax",%progbits
 1543              		.align	2
 1544              		.global	OSTaskRegSet
 1545              		.thumb
 1546              		.thumb_func
 1547              		.type	OSTaskRegSet, %function
 1548              	OSTaskRegSet:
 1549              	.LFB9:
1091:..\..\..\..\..\..\uCOS-III\Source/os_task.c **** #endif
1092:..\..\..\..\..\..\uCOS-III\Source/os_task.c **** 
1093:..\..\..\..\..\..\uCOS-III\Source/os_task.c **** /*$PAGE*/
1094:..\..\..\..\..\..\uCOS-III\Source/os_task.c **** /*
1095:..\..\..\..\..\..\uCOS-III\Source/os_task.c **** ***************************************************************************************************
1096:..\..\..\..\..\..\uCOS-III\Source/os_task.c **** *                                       SET THE CURRENT VALUE OF A TASK REGISTER
1097:..\..\..\..\..\..\uCOS-III\Source/os_task.c **** *
1098:..\..\..\..\..\..\uCOS-III\Source/os_task.c **** * Description: This function is called to change the current value of a task register.  Task regist
1099:..\..\..\..\..\..\uCOS-III\Source/os_task.c **** *              specific and can be used to store task specific values such as 'error numbers' (i.e.
1100:..\..\..\..\..\..\uCOS-III\Source/os_task.c **** *              etc.
1101:..\..\..\..\..\..\uCOS-III\Source/os_task.c **** *
1102:..\..\..\..\..\..\uCOS-III\Source/os_task.c **** * Arguments  : p_tcb     is a pointer to the OS_TCB of the task you want to set the register for.  
1103:..\..\..\..\..\..\uCOS-III\Source/os_task.c **** *                        pointer then you will change the register of the current task.
1104:..\..\..\..\..\..\uCOS-III\Source/os_task.c **** *
1105:..\..\..\..\..\..\uCOS-III\Source/os_task.c **** *              id        is the 'id' of the desired task register.  Note that the 'id' must be less
1106:..\..\..\..\..\..\uCOS-III\Source/os_task.c **** *                        OS_CFG_TASK_REG_TBL_SIZE
1107:..\..\..\..\..\..\uCOS-III\Source/os_task.c **** *
1108:..\..\..\..\..\..\uCOS-III\Source/os_task.c **** *              value     is the desired value for the task register.
1109:..\..\..\..\..\..\uCOS-III\Source/os_task.c **** *
1110:..\..\..\..\..\..\uCOS-III\Source/os_task.c **** *              p_err     is a pointer to a variable that will hold an error code related to this ca
1111:..\..\..\..\..\..\uCOS-III\Source/os_task.c **** *
1112:..\..\..\..\..\..\uCOS-III\Source/os_task.c **** *                            OS_ERR_NONE            if the call was successful
1113:..\..\..\..\..\..\uCOS-III\Source/os_task.c **** *                            OS_ERR_REG_ID_INVALID  if the 'id' is not between 0 and OS_CFG_TASK_RE
1114:..\..\..\..\..\..\uCOS-III\Source/os_task.c **** *
1115:..\..\..\..\..\..\uCOS-III\Source/os_task.c **** * Returns    : none
1116:..\..\..\..\..\..\uCOS-III\Source/os_task.c **** ***************************************************************************************************
1117:..\..\..\..\..\..\uCOS-III\Source/os_task.c **** */
1118:..\..\..\..\..\..\uCOS-III\Source/os_task.c **** 
1119:..\..\..\..\..\..\uCOS-III\Source/os_task.c **** #if OS_CFG_TASK_REG_TBL_SIZE > 0u
1120:..\..\..\..\..\..\uCOS-III\Source/os_task.c **** void  OSTaskRegSet (OS_TCB     *p_tcb,
ARM GAS  C:\Users\Aluno\AppData\Local\Temp\ccHJiRYw.s 			page 48


1121:..\..\..\..\..\..\uCOS-III\Source/os_task.c ****                     OS_REG_ID   id,
1122:..\..\..\..\..\..\uCOS-III\Source/os_task.c ****                     OS_REG      value,
1123:..\..\..\..\..\..\uCOS-III\Source/os_task.c ****                     OS_ERR     *p_err)
1124:..\..\..\..\..\..\uCOS-III\Source/os_task.c **** {
 1550              		.loc 1 1124 0
 1551              		.cfi_startproc
 1552              		@ args = 0, pretend = 0, frame = 24
 1553              		@ frame_needed = 1, uses_anonymous_args = 0
 1554 0000 80B5     		push	{r7, lr}
 1555              		.cfi_def_cfa_offset 8
 1556              		.cfi_offset 7, -8
 1557              		.cfi_offset 14, -4
 1558 0002 86B0     		sub	sp, sp, #24
 1559              		.cfi_def_cfa_offset 32
 1560 0004 00AF     		add	r7, sp, #0
 1561              		.cfi_def_cfa_register 7
 1562 0006 F860     		str	r0, [r7, #12]
 1563 0008 7A60     		str	r2, [r7, #4]
 1564 000a 3B60     		str	r3, [r7]
 1565 000c 0B46     		mov	r3, r1
 1566 000e FB72     		strb	r3, [r7, #11]
1125:..\..\..\..\..\..\uCOS-III\Source/os_task.c ****     CPU_SR_ALLOC();
 1567              		.loc 1 1125 0
 1568 0010 0023     		movs	r3, #0
 1569 0012 7B61     		str	r3, [r7, #20]
1126:..\..\..\..\..\..\uCOS-III\Source/os_task.c **** 
1127:..\..\..\..\..\..\uCOS-III\Source/os_task.c **** 
1128:..\..\..\..\..\..\uCOS-III\Source/os_task.c **** 
1129:..\..\..\..\..\..\uCOS-III\Source/os_task.c **** #ifdef OS_SAFETY_CRITICAL
1130:..\..\..\..\..\..\uCOS-III\Source/os_task.c ****     if (p_err == (OS_ERR *)0) {
1131:..\..\..\..\..\..\uCOS-III\Source/os_task.c ****         OS_SAFETY_CRITICAL_EXCEPTION();
1132:..\..\..\..\..\..\uCOS-III\Source/os_task.c ****         return;
1133:..\..\..\..\..\..\uCOS-III\Source/os_task.c ****     }
1134:..\..\..\..\..\..\uCOS-III\Source/os_task.c **** #endif
1135:..\..\..\..\..\..\uCOS-III\Source/os_task.c **** 
1136:..\..\..\..\..\..\uCOS-III\Source/os_task.c **** #if OS_CFG_ARG_CHK_EN > 0u
1137:..\..\..\..\..\..\uCOS-III\Source/os_task.c ****     if (id >= OS_CFG_TASK_REG_TBL_SIZE) {
 1570              		.loc 1 1137 0
 1571 0014 FB7A     		ldrb	r3, [r7, #11]	@ zero_extendqisi2
 1572 0016 002B     		cmp	r3, #0
 1573 0018 04D0     		beq	.L125
1138:..\..\..\..\..\..\uCOS-III\Source/os_task.c ****        *p_err = OS_ERR_REG_ID_INVALID;
 1574              		.loc 1 1138 0
 1575 001a 3B68     		ldr	r3, [r7]
 1576 001c 46F67912 		movw	r2, #27001
 1577 0020 1A80     		strh	r2, [r3]	@ movhi
1139:..\..\..\..\..\..\uCOS-III\Source/os_task.c ****         return;
 1578              		.loc 1 1139 0
 1579 0022 15E0     		b	.L124
 1580              	.L125:
1140:..\..\..\..\..\..\uCOS-III\Source/os_task.c ****     }
1141:..\..\..\..\..\..\uCOS-III\Source/os_task.c **** #endif
1142:..\..\..\..\..\..\uCOS-III\Source/os_task.c **** 
1143:..\..\..\..\..\..\uCOS-III\Source/os_task.c ****     CPU_CRITICAL_ENTER();
 1581              		.loc 1 1143 0
 1582 0024 FFF7FEFF 		bl	CPU_SR_Save
 1583 0028 7861     		str	r0, [r7, #20]
ARM GAS  C:\Users\Aluno\AppData\Local\Temp\ccHJiRYw.s 			page 49


1144:..\..\..\..\..\..\uCOS-III\Source/os_task.c ****     if (p_tcb == (OS_TCB *)0) {
 1584              		.loc 1 1144 0
 1585 002a FB68     		ldr	r3, [r7, #12]
 1586 002c 002B     		cmp	r3, #0
 1587 002e 02D1     		bne	.L127
1145:..\..\..\..\..\..\uCOS-III\Source/os_task.c ****         p_tcb = OSTCBCurPtr;
 1588              		.loc 1 1145 0
 1589 0030 094B     		ldr	r3, .L128
 1590 0032 1B68     		ldr	r3, [r3]
 1591 0034 FB60     		str	r3, [r7, #12]
 1592              	.L127:
1146:..\..\..\..\..\..\uCOS-III\Source/os_task.c ****     }
1147:..\..\..\..\..\..\uCOS-III\Source/os_task.c ****     p_tcb->RegTbl[id] = value;
 1593              		.loc 1 1147 0
 1594 0036 FB7A     		ldrb	r3, [r7, #11]	@ zero_extendqisi2
 1595 0038 FA68     		ldr	r2, [r7, #12]
 1596 003a 1E33     		adds	r3, r3, #30
 1597 003c 9B00     		lsls	r3, r3, #2
 1598 003e 1344     		add	r3, r3, r2
 1599 0040 7A68     		ldr	r2, [r7, #4]
 1600 0042 5A60     		str	r2, [r3, #4]
1148:..\..\..\..\..\..\uCOS-III\Source/os_task.c ****     CPU_CRITICAL_EXIT();
 1601              		.loc 1 1148 0
 1602 0044 7869     		ldr	r0, [r7, #20]
 1603 0046 FFF7FEFF 		bl	CPU_SR_Restore
1149:..\..\..\..\..\..\uCOS-III\Source/os_task.c ****    *p_err             = OS_ERR_NONE;
 1604              		.loc 1 1149 0
 1605 004a 3B68     		ldr	r3, [r7]
 1606 004c 0022     		movs	r2, #0
 1607 004e 1A80     		strh	r2, [r3]	@ movhi
 1608              	.L124:
1150:..\..\..\..\..\..\uCOS-III\Source/os_task.c **** }
 1609              		.loc 1 1150 0
 1610 0050 1837     		adds	r7, r7, #24
 1611              		.cfi_def_cfa_offset 8
 1612 0052 BD46     		mov	sp, r7
 1613              		.cfi_def_cfa_register 13
 1614              		@ sp needed
 1615 0054 80BD     		pop	{r7, pc}
 1616              	.L129:
 1617 0056 00BF     		.align	2
 1618              	.L128:
 1619 0058 00000000 		.word	OSTCBCurPtr
 1620              		.cfi_endproc
 1621              	.LFE9:
 1622              		.size	OSTaskRegSet, .-OSTaskRegSet
 1623              		.section	.text.OSTaskResume,"ax",%progbits
 1624              		.align	2
 1625              		.global	OSTaskResume
 1626              		.thumb
 1627              		.thumb_func
 1628              		.type	OSTaskResume, %function
 1629              	OSTaskResume:
 1630              	.LFB10:
1151:..\..\..\..\..\..\uCOS-III\Source/os_task.c **** #endif
1152:..\..\..\..\..\..\uCOS-III\Source/os_task.c **** 
1153:..\..\..\..\..\..\uCOS-III\Source/os_task.c **** /*$PAGE*/
ARM GAS  C:\Users\Aluno\AppData\Local\Temp\ccHJiRYw.s 			page 50


1154:..\..\..\..\..\..\uCOS-III\Source/os_task.c **** /*
1155:..\..\..\..\..\..\uCOS-III\Source/os_task.c **** ***************************************************************************************************
1156:..\..\..\..\..\..\uCOS-III\Source/os_task.c **** *                                               RESUME A SUSPENDED TASK
1157:..\..\..\..\..\..\uCOS-III\Source/os_task.c **** *
1158:..\..\..\..\..\..\uCOS-III\Source/os_task.c **** * Description: This function is called to resume a previously suspended task.  This is the only cal
1159:..\..\..\..\..\..\uCOS-III\Source/os_task.c **** *              explicit task suspension.
1160:..\..\..\..\..\..\uCOS-III\Source/os_task.c **** *
1161:..\..\..\..\..\..\uCOS-III\Source/os_task.c **** * Arguments  : p_tcb      Is a pointer to the task's OS_TCB to resume
1162:..\..\..\..\..\..\uCOS-III\Source/os_task.c **** *
1163:..\..\..\..\..\..\uCOS-III\Source/os_task.c **** *              p_err      Is a pointer to a variable that will contain an error code returned by th
1164:..\..\..\..\..\..\uCOS-III\Source/os_task.c **** *
1165:..\..\..\..\..\..\uCOS-III\Source/os_task.c **** *                             OS_ERR_NONE                  if the requested task is resumed
1166:..\..\..\..\..\..\uCOS-III\Source/os_task.c **** *                             OS_ERR_STATE_INVALID         if the task is in an invalid state
1167:..\..\..\..\..\..\uCOS-III\Source/os_task.c **** *                             OS_ERR_TASK_RESUME_ISR       if you called this function from an ISR
1168:..\..\..\..\..\..\uCOS-III\Source/os_task.c **** *                             OS_ERR_TASK_RESUME_SELF      You cannot resume 'self'
1169:..\..\..\..\..\..\uCOS-III\Source/os_task.c **** *                             OS_ERR_TASK_NOT_SUSPENDED    if the task to resume has not been suspe
1170:..\..\..\..\..\..\uCOS-III\Source/os_task.c **** *
1171:..\..\..\..\..\..\uCOS-III\Source/os_task.c **** * Returns    : none
1172:..\..\..\..\..\..\uCOS-III\Source/os_task.c **** ***************************************************************************************************
1173:..\..\..\..\..\..\uCOS-III\Source/os_task.c **** */
1174:..\..\..\..\..\..\uCOS-III\Source/os_task.c **** 
1175:..\..\..\..\..\..\uCOS-III\Source/os_task.c **** #if OS_CFG_TASK_SUSPEND_EN > 0u
1176:..\..\..\..\..\..\uCOS-III\Source/os_task.c **** void  OSTaskResume (OS_TCB  *p_tcb,
1177:..\..\..\..\..\..\uCOS-III\Source/os_task.c ****                     OS_ERR  *p_err)
1178:..\..\..\..\..\..\uCOS-III\Source/os_task.c **** {
 1631              		.loc 1 1178 0
 1632              		.cfi_startproc
 1633              		@ args = 0, pretend = 0, frame = 16
 1634              		@ frame_needed = 1, uses_anonymous_args = 0
 1635 0000 80B5     		push	{r7, lr}
 1636              		.cfi_def_cfa_offset 8
 1637              		.cfi_offset 7, -8
 1638              		.cfi_offset 14, -4
 1639 0002 84B0     		sub	sp, sp, #16
 1640              		.cfi_def_cfa_offset 24
 1641 0004 00AF     		add	r7, sp, #0
 1642              		.cfi_def_cfa_register 7
 1643 0006 7860     		str	r0, [r7, #4]
 1644 0008 3960     		str	r1, [r7]
1179:..\..\..\..\..\..\uCOS-III\Source/os_task.c ****     CPU_SR_ALLOC();
 1645              		.loc 1 1179 0
 1646 000a 0023     		movs	r3, #0
 1647 000c FB60     		str	r3, [r7, #12]
1180:..\..\..\..\..\..\uCOS-III\Source/os_task.c **** 
1181:..\..\..\..\..\..\uCOS-III\Source/os_task.c **** 
1182:..\..\..\..\..\..\uCOS-III\Source/os_task.c **** 
1183:..\..\..\..\..\..\uCOS-III\Source/os_task.c **** #ifdef OS_SAFETY_CRITICAL
1184:..\..\..\..\..\..\uCOS-III\Source/os_task.c ****     if (p_err == (OS_ERR *)0) {
1185:..\..\..\..\..\..\uCOS-III\Source/os_task.c ****         OS_SAFETY_CRITICAL_EXCEPTION();
1186:..\..\..\..\..\..\uCOS-III\Source/os_task.c ****         return;
1187:..\..\..\..\..\..\uCOS-III\Source/os_task.c ****     }
1188:..\..\..\..\..\..\uCOS-III\Source/os_task.c **** #endif
1189:..\..\..\..\..\..\uCOS-III\Source/os_task.c **** 
1190:..\..\..\..\..\..\uCOS-III\Source/os_task.c **** #if (OS_CFG_ISR_POST_DEFERRED_EN   == 0u) && \
1191:..\..\..\..\..\..\uCOS-III\Source/os_task.c ****     (OS_CFG_CALLED_FROM_ISR_CHK_EN >  0u)
1192:..\..\..\..\..\..\uCOS-III\Source/os_task.c ****     if (OSIntNestingCtr > (OS_NESTING_CTR)0) {              /* Not allowed to call from an ISR     
 1648              		.loc 1 1192 0
ARM GAS  C:\Users\Aluno\AppData\Local\Temp\ccHJiRYw.s 			page 51


 1649 000e 134B     		ldr	r3, .L135
 1650 0010 1B78     		ldrb	r3, [r3]	@ zero_extendqisi2
 1651 0012 002B     		cmp	r3, #0
 1652 0014 04D0     		beq	.L131
1193:..\..\..\..\..\..\uCOS-III\Source/os_task.c ****        *p_err = OS_ERR_TASK_RESUME_ISR;
 1653              		.loc 1 1193 0
 1654 0016 3B68     		ldr	r3, [r7]
 1655 0018 47F25512 		movw	r2, #29013
 1656 001c 1A80     		strh	r2, [r3]	@ movhi
1194:..\..\..\..\..\..\uCOS-III\Source/os_task.c ****         return;
 1657              		.loc 1 1194 0
 1658 001e 19E0     		b	.L130
 1659              	.L131:
1195:..\..\..\..\..\..\uCOS-III\Source/os_task.c ****     }
1196:..\..\..\..\..\..\uCOS-III\Source/os_task.c **** #endif
1197:..\..\..\..\..\..\uCOS-III\Source/os_task.c **** 
1198:..\..\..\..\..\..\uCOS-III\Source/os_task.c **** 
1199:..\..\..\..\..\..\uCOS-III\Source/os_task.c ****     CPU_CRITICAL_ENTER();
 1660              		.loc 1 1199 0
 1661 0020 FFF7FEFF 		bl	CPU_SR_Save
 1662 0024 F860     		str	r0, [r7, #12]
1200:..\..\..\..\..\..\uCOS-III\Source/os_task.c **** #if OS_CFG_ARG_CHK_EN > 0u
1201:..\..\..\..\..\..\uCOS-III\Source/os_task.c ****     if ((p_tcb == (OS_TCB *)0) ||                           /* We cannot resume 'self'             
 1663              		.loc 1 1201 0
 1664 0026 7B68     		ldr	r3, [r7, #4]
 1665 0028 002B     		cmp	r3, #0
 1666 002a 04D0     		beq	.L133
1202:..\..\..\..\..\..\uCOS-III\Source/os_task.c ****         (p_tcb == OSTCBCurPtr)) {
 1667              		.loc 1 1202 0 discriminator 1
 1668 002c 0C4B     		ldr	r3, .L135+4
 1669 002e 1B68     		ldr	r3, [r3]
1201:..\..\..\..\..\..\uCOS-III\Source/os_task.c ****         (p_tcb == OSTCBCurPtr)) {
 1670              		.loc 1 1201 0 discriminator 1
 1671 0030 7A68     		ldr	r2, [r7, #4]
 1672 0032 9A42     		cmp	r2, r3
 1673 0034 07D1     		bne	.L134
 1674              	.L133:
1203:..\..\..\..\..\..\uCOS-III\Source/os_task.c ****         CPU_CRITICAL_EXIT();
 1675              		.loc 1 1203 0
 1676 0036 F868     		ldr	r0, [r7, #12]
 1677 0038 FFF7FEFF 		bl	CPU_SR_Restore
1204:..\..\..\..\..\..\uCOS-III\Source/os_task.c ****        *p_err  = OS_ERR_TASK_RESUME_SELF;
 1678              		.loc 1 1204 0
 1679 003c 3B68     		ldr	r3, [r7]
 1680 003e 47F25712 		movw	r2, #29015
 1681 0042 1A80     		strh	r2, [r3]	@ movhi
1205:..\..\..\..\..\..\uCOS-III\Source/os_task.c ****         return;
 1682              		.loc 1 1205 0
 1683 0044 06E0     		b	.L130
 1684              	.L134:
1206:..\..\..\..\..\..\uCOS-III\Source/os_task.c ****     }
1207:..\..\..\..\..\..\uCOS-III\Source/os_task.c **** #endif
1208:..\..\..\..\..\..\uCOS-III\Source/os_task.c ****     CPU_CRITICAL_EXIT();
 1685              		.loc 1 1208 0
 1686 0046 F868     		ldr	r0, [r7, #12]
 1687 0048 FFF7FEFF 		bl	CPU_SR_Restore
1209:..\..\..\..\..\..\uCOS-III\Source/os_task.c **** 
ARM GAS  C:\Users\Aluno\AppData\Local\Temp\ccHJiRYw.s 			page 52


1210:..\..\..\..\..\..\uCOS-III\Source/os_task.c **** #if OS_CFG_ISR_POST_DEFERRED_EN > 0u
1211:..\..\..\..\..\..\uCOS-III\Source/os_task.c ****     if (OSIntNestingCtr > (OS_NESTING_CTR)0) {              /* See if called from an ISR           
1212:..\..\..\..\..\..\uCOS-III\Source/os_task.c ****         OS_IntQPost((OS_OBJ_TYPE)OS_OBJ_TYPE_TASK_RESUME,   /* Post to ISR queue                   
1213:..\..\..\..\..\..\uCOS-III\Source/os_task.c ****                     (void      *)p_tcb,
1214:..\..\..\..\..\..\uCOS-III\Source/os_task.c ****                     (void      *)0,
1215:..\..\..\..\..\..\uCOS-III\Source/os_task.c ****                     (OS_MSG_SIZE)0,
1216:..\..\..\..\..\..\uCOS-III\Source/os_task.c ****                     (OS_FLAGS   )0,
1217:..\..\..\..\..\..\uCOS-III\Source/os_task.c ****                     (OS_OPT     )0,
1218:..\..\..\..\..\..\uCOS-III\Source/os_task.c ****                     (CPU_TS     )0,
1219:..\..\..\..\..\..\uCOS-III\Source/os_task.c ****                     (OS_ERR    *)p_err);
1220:..\..\..\..\..\..\uCOS-III\Source/os_task.c ****         return;
1221:..\..\..\..\..\..\uCOS-III\Source/os_task.c ****     }
1222:..\..\..\..\..\..\uCOS-III\Source/os_task.c **** #endif
1223:..\..\..\..\..\..\uCOS-III\Source/os_task.c **** 
1224:..\..\..\..\..\..\uCOS-III\Source/os_task.c ****     OS_TaskResume(p_tcb, p_err);
 1688              		.loc 1 1224 0
 1689 004c 3968     		ldr	r1, [r7]
 1690 004e 7868     		ldr	r0, [r7, #4]
 1691 0050 FFF7FEFF 		bl	OS_TaskResume
 1692              	.L130:
1225:..\..\..\..\..\..\uCOS-III\Source/os_task.c **** }
 1693              		.loc 1 1225 0
 1694 0054 1037     		adds	r7, r7, #16
 1695              		.cfi_def_cfa_offset 8
 1696 0056 BD46     		mov	sp, r7
 1697              		.cfi_def_cfa_register 13
 1698              		@ sp needed
 1699 0058 80BD     		pop	{r7, pc}
 1700              	.L136:
 1701 005a 00BF     		.align	2
 1702              	.L135:
 1703 005c 00000000 		.word	OSIntNestingCtr
 1704 0060 00000000 		.word	OSTCBCurPtr
 1705              		.cfi_endproc
 1706              	.LFE10:
 1707              		.size	OSTaskResume, .-OSTaskResume
 1708              		.section	.text.OSTaskSemPend,"ax",%progbits
 1709              		.align	2
 1710              		.global	OSTaskSemPend
 1711              		.thumb
 1712              		.thumb_func
 1713              		.type	OSTaskSemPend, %function
 1714              	OSTaskSemPend:
 1715              	.LFB11:
1226:..\..\..\..\..\..\uCOS-III\Source/os_task.c **** #endif
1227:..\..\..\..\..\..\uCOS-III\Source/os_task.c **** 
1228:..\..\..\..\..\..\uCOS-III\Source/os_task.c **** /*$PAGE*/
1229:..\..\..\..\..\..\uCOS-III\Source/os_task.c **** /*
1230:..\..\..\..\..\..\uCOS-III\Source/os_task.c **** ***************************************************************************************************
1231:..\..\..\..\..\..\uCOS-III\Source/os_task.c **** *                                              WAIT FOR A TASK SEMAPHORE
1232:..\..\..\..\..\..\uCOS-III\Source/os_task.c **** *
1233:..\..\..\..\..\..\uCOS-III\Source/os_task.c **** * Description: This function is called to block the current task until a signal is sent by another 
1234:..\..\..\..\..\..\uCOS-III\Source/os_task.c **** *
1235:..\..\..\..\..\..\uCOS-III\Source/os_task.c **** * Arguments  : timeout       is the amount of time you are will to wait for the signal
1236:..\..\..\..\..\..\uCOS-III\Source/os_task.c **** *
1237:..\..\..\..\..\..\uCOS-III\Source/os_task.c **** *              opt           determines whether the user wants to block if a semaphore post was not
1238:..\..\..\..\..\..\uCOS-III\Source/os_task.c **** *
ARM GAS  C:\Users\Aluno\AppData\Local\Temp\ccHJiRYw.s 			page 53


1239:..\..\..\..\..\..\uCOS-III\Source/os_task.c **** *                                OS_OPT_PEND_BLOCKING
1240:..\..\..\..\..\..\uCOS-III\Source/os_task.c **** *                                OS_OPT_PEND_NON_BLOCKING
1241:..\..\..\..\..\..\uCOS-III\Source/os_task.c **** *
1242:..\..\..\..\..\..\uCOS-III\Source/os_task.c **** *              p_ts          is a pointer to a variable that will receive the timestamp of when the
1243:..\..\..\..\..\..\uCOS-III\Source/os_task.c **** *                            or pend aborted.  If you pass a NULL pointer (i.e. (CPU_TS *)0) then y
1244:..\..\..\..\..\..\uCOS-III\Source/os_task.c **** *                            timestamp.  In other words, passing a NULL pointer is valid and indica
1245:..\..\..\..\..\..\uCOS-III\Source/os_task.c **** *                            need the timestamp.
1246:..\..\..\..\..\..\uCOS-III\Source/os_task.c **** *
1247:..\..\..\..\..\..\uCOS-III\Source/os_task.c **** *              p_err         is a pointer to an error code that will be set by this function
1248:..\..\..\..\..\..\uCOS-III\Source/os_task.c **** *
1249:..\..\..\..\..\..\uCOS-III\Source/os_task.c **** *                                OS_ERR_NONE               The call was successful and your task re
1250:..\..\..\..\..\..\uCOS-III\Source/os_task.c **** *                                OS_ERR_PEND_ABORT
1251:..\..\..\..\..\..\uCOS-III\Source/os_task.c **** *                                OS_ERR_PEND_ISR           If you called this function from an ISR 
1252:..\..\..\..\..\..\uCOS-III\Source/os_task.c **** *                                OS_ERR_PEND_WOULD_BLOCK   If you specified non-blocking but no sig
1253:..\..\..\..\..\..\uCOS-III\Source/os_task.c **** *                                OS_ERR_SCHED_LOCKED       If the scheduler is locked
1254:..\..\..\..\..\..\uCOS-III\Source/os_task.c **** *                                OS_ERR_STATUS_INVALID     If the pend status is invalid
1255:..\..\..\..\..\..\uCOS-III\Source/os_task.c **** *                                OS_ERR_TIMEOUT            A message was not received within the sp
1256:..\..\..\..\..\..\uCOS-III\Source/os_task.c **** *                                                          would lead to a suspension.
1257:..\..\..\..\..\..\uCOS-III\Source/os_task.c **** *
1258:..\..\..\..\..\..\uCOS-III\Source/os_task.c **** * Returns    : The current count of signals the task received, 0 if none.
1259:..\..\..\..\..\..\uCOS-III\Source/os_task.c **** ***************************************************************************************************
1260:..\..\..\..\..\..\uCOS-III\Source/os_task.c **** */
1261:..\..\..\..\..\..\uCOS-III\Source/os_task.c **** 
1262:..\..\..\..\..\..\uCOS-III\Source/os_task.c **** OS_SEM_CTR  OSTaskSemPend (OS_TICK   timeout,
1263:..\..\..\..\..\..\uCOS-III\Source/os_task.c ****                            OS_OPT    opt,
1264:..\..\..\..\..\..\uCOS-III\Source/os_task.c ****                            CPU_TS   *p_ts,
1265:..\..\..\..\..\..\uCOS-III\Source/os_task.c ****                            OS_ERR   *p_err)
1266:..\..\..\..\..\..\uCOS-III\Source/os_task.c **** {
 1716              		.loc 1 1266 0
 1717              		.cfi_startproc
 1718              		@ args = 0, pretend = 0, frame = 24
 1719              		@ frame_needed = 1, uses_anonymous_args = 0
 1720 0000 90B5     		push	{r4, r7, lr}
 1721              		.cfi_def_cfa_offset 12
 1722              		.cfi_offset 4, -12
 1723              		.cfi_offset 7, -8
 1724              		.cfi_offset 14, -4
 1725 0002 87B0     		sub	sp, sp, #28
 1726              		.cfi_def_cfa_offset 40
 1727 0004 00AF     		add	r7, sp, #0
 1728              		.cfi_def_cfa_register 7
 1729 0006 F860     		str	r0, [r7, #12]
 1730 0008 7A60     		str	r2, [r7, #4]
 1731 000a 3B60     		str	r3, [r7]
 1732 000c 0B46     		mov	r3, r1	@ movhi
 1733 000e 7B81     		strh	r3, [r7, #10]	@ movhi
1267:..\..\..\..\..\..\uCOS-III\Source/os_task.c ****     OS_SEM_CTR    ctr;
1268:..\..\..\..\..\..\uCOS-III\Source/os_task.c ****     CPU_SR_ALLOC();
 1734              		.loc 1 1268 0
 1735 0010 0023     		movs	r3, #0
 1736 0012 7B61     		str	r3, [r7, #20]
1269:..\..\..\..\..\..\uCOS-III\Source/os_task.c **** 
1270:..\..\..\..\..\..\uCOS-III\Source/os_task.c **** 
1271:..\..\..\..\..\..\uCOS-III\Source/os_task.c **** 
1272:..\..\..\..\..\..\uCOS-III\Source/os_task.c **** #ifdef OS_SAFETY_CRITICAL
1273:..\..\..\..\..\..\uCOS-III\Source/os_task.c ****     if (p_err == (OS_ERR *)0) {
1274:..\..\..\..\..\..\uCOS-III\Source/os_task.c ****         OS_SAFETY_CRITICAL_EXCEPTION();
ARM GAS  C:\Users\Aluno\AppData\Local\Temp\ccHJiRYw.s 			page 54


1275:..\..\..\..\..\..\uCOS-III\Source/os_task.c ****         return ((OS_SEM_CTR)0);
1276:..\..\..\..\..\..\uCOS-III\Source/os_task.c ****     }
1277:..\..\..\..\..\..\uCOS-III\Source/os_task.c **** #endif
1278:..\..\..\..\..\..\uCOS-III\Source/os_task.c **** 
1279:..\..\..\..\..\..\uCOS-III\Source/os_task.c **** #if OS_CFG_CALLED_FROM_ISR_CHK_EN > 0u
1280:..\..\..\..\..\..\uCOS-III\Source/os_task.c ****     if (OSIntNestingCtr > (OS_NESTING_CTR)0) {              /* Not allowed to call from an ISR     
 1737              		.loc 1 1280 0
 1738 0014 6F4B     		ldr	r3, .L159
 1739 0016 1B78     		ldrb	r3, [r3]	@ zero_extendqisi2
 1740 0018 002B     		cmp	r3, #0
 1741 001a 05D0     		beq	.L138
1281:..\..\..\..\..\..\uCOS-III\Source/os_task.c ****        *p_err = OS_ERR_PEND_ISR;
 1742              		.loc 1 1281 0
 1743 001c 3B68     		ldr	r3, [r7]
 1744 001e 46F2AE12 		movw	r2, #25006
 1745 0022 1A80     		strh	r2, [r3]	@ movhi
1282:..\..\..\..\..\..\uCOS-III\Source/os_task.c ****         return ((OS_SEM_CTR)0);
 1746              		.loc 1 1282 0
 1747 0024 0023     		movs	r3, #0
 1748 0026 D0E0     		b	.L139
 1749              	.L138:
1283:..\..\..\..\..\..\uCOS-III\Source/os_task.c ****     }
1284:..\..\..\..\..\..\uCOS-III\Source/os_task.c **** #endif
1285:..\..\..\..\..\..\uCOS-III\Source/os_task.c **** 
1286:..\..\..\..\..\..\uCOS-III\Source/os_task.c **** #if OS_CFG_ARG_CHK_EN > 0u
1287:..\..\..\..\..\..\uCOS-III\Source/os_task.c ****     switch (opt) {                                          /* Validate 'opt'                      
 1750              		.loc 1 1287 0
 1751 0028 7B89     		ldrh	r3, [r7, #10]
 1752 002a 002B     		cmp	r3, #0
 1753 002c 08D0     		beq	.L158
 1754 002e B3F5004F 		cmp	r3, #32768
 1755 0032 05D0     		beq	.L158
1288:..\..\..\..\..\..\uCOS-III\Source/os_task.c ****         case OS_OPT_PEND_BLOCKING:
1289:..\..\..\..\..\..\uCOS-III\Source/os_task.c ****         case OS_OPT_PEND_NON_BLOCKING:
1290:..\..\..\..\..\..\uCOS-III\Source/os_task.c ****              break;
1291:..\..\..\..\..\..\uCOS-III\Source/os_task.c **** 
1292:..\..\..\..\..\..\uCOS-III\Source/os_task.c ****         default:
1293:..\..\..\..\..\..\uCOS-III\Source/os_task.c ****             *p_err = OS_ERR_OPT_INVALID;
 1756              		.loc 1 1293 0
 1757 0034 3B68     		ldr	r3, [r7]
 1758 0036 45F62562 		movw	r2, #24101
 1759 003a 1A80     		strh	r2, [r3]	@ movhi
1294:..\..\..\..\..\..\uCOS-III\Source/os_task.c ****              return ((OS_SEM_CTR)0);
 1760              		.loc 1 1294 0
 1761 003c 0023     		movs	r3, #0
 1762 003e C4E0     		b	.L139
 1763              	.L158:
1290:..\..\..\..\..\..\uCOS-III\Source/os_task.c **** 
 1764              		.loc 1 1290 0
 1765 0040 00BF     		nop
1295:..\..\..\..\..\..\uCOS-III\Source/os_task.c ****     }
1296:..\..\..\..\..\..\uCOS-III\Source/os_task.c **** #endif
1297:..\..\..\..\..\..\uCOS-III\Source/os_task.c **** 
1298:..\..\..\..\..\..\uCOS-III\Source/os_task.c ****     if (p_ts != (CPU_TS *)0) {
 1766              		.loc 1 1298 0
 1767 0042 7B68     		ldr	r3, [r7, #4]
 1768 0044 002B     		cmp	r3, #0
ARM GAS  C:\Users\Aluno\AppData\Local\Temp\ccHJiRYw.s 			page 55


 1769 0046 02D0     		beq	.L143
1299:..\..\..\..\..\..\uCOS-III\Source/os_task.c ****        *p_ts  = (CPU_TS  )0;                                /* Initialize the returned timestamp   
 1770              		.loc 1 1299 0
 1771 0048 7B68     		ldr	r3, [r7, #4]
 1772 004a 0022     		movs	r2, #0
 1773 004c 1A60     		str	r2, [r3]
 1774              	.L143:
1300:..\..\..\..\..\..\uCOS-III\Source/os_task.c ****     }
1301:..\..\..\..\..\..\uCOS-III\Source/os_task.c **** 
1302:..\..\..\..\..\..\uCOS-III\Source/os_task.c ****     CPU_CRITICAL_ENTER();
 1775              		.loc 1 1302 0
 1776 004e FFF7FEFF 		bl	CPU_SR_Save
 1777 0052 7861     		str	r0, [r7, #20]
1303:..\..\..\..\..\..\uCOS-III\Source/os_task.c ****     if (OSTCBCurPtr->SemCtr > (OS_SEM_CTR)0) {              /* See if task already been signaled   
 1778              		.loc 1 1303 0
 1779 0054 604B     		ldr	r3, .L159+4
 1780 0056 1B68     		ldr	r3, [r3]
 1781 0058 5B6C     		ldr	r3, [r3, #68]
 1782 005a 002B     		cmp	r3, #0
 1783 005c 35D0     		beq	.L144
1304:..\..\..\..\..\..\uCOS-III\Source/os_task.c ****         OSTCBCurPtr->SemCtr--;
 1784              		.loc 1 1304 0
 1785 005e 5E4B     		ldr	r3, .L159+4
 1786 0060 1B68     		ldr	r3, [r3]
 1787 0062 5A6C     		ldr	r2, [r3, #68]
 1788 0064 013A     		subs	r2, r2, #1
 1789 0066 5A64     		str	r2, [r3, #68]
1305:..\..\..\..\..\..\uCOS-III\Source/os_task.c ****         ctr    = OSTCBCurPtr->SemCtr;
 1790              		.loc 1 1305 0
 1791 0068 5B4B     		ldr	r3, .L159+4
 1792 006a 1B68     		ldr	r3, [r3]
 1793 006c 5B6C     		ldr	r3, [r3, #68]
 1794 006e 3B61     		str	r3, [r7, #16]
1306:..\..\..\..\..\..\uCOS-III\Source/os_task.c ****         if (p_ts != (CPU_TS *)0) {
 1795              		.loc 1 1306 0
 1796 0070 7B68     		ldr	r3, [r7, #4]
 1797 0072 002B     		cmp	r3, #0
 1798 0074 04D0     		beq	.L145
1307:..\..\..\..\..\..\uCOS-III\Source/os_task.c ****            *p_ts  = OSTCBCurPtr->TS;
 1799              		.loc 1 1307 0
 1800 0076 584B     		ldr	r3, .L159+4
 1801 0078 1B68     		ldr	r3, [r3]
 1802 007a 1A6C     		ldr	r2, [r3, #64]
 1803 007c 7B68     		ldr	r3, [r7, #4]
 1804 007e 1A60     		str	r2, [r3]
 1805              	.L145:
1308:..\..\..\..\..\..\uCOS-III\Source/os_task.c ****         }
1309:..\..\..\..\..\..\uCOS-III\Source/os_task.c **** #if OS_CFG_TASK_PROFILE_EN > 0u
1310:..\..\..\..\..\..\uCOS-III\Source/os_task.c ****         OSTCBCurPtr->SemPendTime = OS_TS_GET() - OSTCBCurPtr->TS;
 1806              		.loc 1 1310 0
 1807 0080 554B     		ldr	r3, .L159+4
 1808 0082 1C68     		ldr	r4, [r3]
 1809 0084 FFF7FEFF 		bl	CPU_TS_TmrRd
 1810 0088 0246     		mov	r2, r0
 1811 008a 534B     		ldr	r3, .L159+4
 1812 008c 1B68     		ldr	r3, [r3]
 1813 008e 1B6C     		ldr	r3, [r3, #64]
ARM GAS  C:\Users\Aluno\AppData\Local\Temp\ccHJiRYw.s 			page 56


 1814 0090 D31A     		subs	r3, r2, r3
 1815 0092 C4F8A430 		str	r3, [r4, #164]
1311:..\..\..\..\..\..\uCOS-III\Source/os_task.c ****         if (OSTCBCurPtr->SemPendTimeMax < OSTCBCurPtr->SemPendTime) {
 1816              		.loc 1 1311 0
 1817 0096 504B     		ldr	r3, .L159+4
 1818 0098 1B68     		ldr	r3, [r3]
 1819 009a D3F8A820 		ldr	r2, [r3, #168]
 1820 009e 4E4B     		ldr	r3, .L159+4
 1821 00a0 1B68     		ldr	r3, [r3]
 1822 00a2 D3F8A430 		ldr	r3, [r3, #164]
 1823 00a6 9A42     		cmp	r2, r3
 1824 00a8 07D2     		bcs	.L146
1312:..\..\..\..\..\..\uCOS-III\Source/os_task.c ****             OSTCBCurPtr->SemPendTimeMax = OSTCBCurPtr->SemPendTime;
 1825              		.loc 1 1312 0
 1826 00aa 4B4B     		ldr	r3, .L159+4
 1827 00ac 1B68     		ldr	r3, [r3]
 1828 00ae 4A4A     		ldr	r2, .L159+4
 1829 00b0 1268     		ldr	r2, [r2]
 1830 00b2 D2F8A420 		ldr	r2, [r2, #164]
 1831 00b6 C3F8A820 		str	r2, [r3, #168]
 1832              	.L146:
1313:..\..\..\..\..\..\uCOS-III\Source/os_task.c ****         }
1314:..\..\..\..\..\..\uCOS-III\Source/os_task.c **** #endif
1315:..\..\..\..\..\..\uCOS-III\Source/os_task.c ****         CPU_CRITICAL_EXIT();
 1833              		.loc 1 1315 0
 1834 00ba 7869     		ldr	r0, [r7, #20]
 1835 00bc FFF7FEFF 		bl	CPU_SR_Restore
1316:..\..\..\..\..\..\uCOS-III\Source/os_task.c ****        *p_err = OS_ERR_NONE;
 1836              		.loc 1 1316 0
 1837 00c0 3B68     		ldr	r3, [r7]
 1838 00c2 0022     		movs	r2, #0
 1839 00c4 1A80     		strh	r2, [r3]	@ movhi
1317:..\..\..\..\..\..\uCOS-III\Source/os_task.c ****         return (ctr);
 1840              		.loc 1 1317 0
 1841 00c6 3B69     		ldr	r3, [r7, #16]
 1842 00c8 7FE0     		b	.L139
 1843              	.L144:
1318:..\..\..\..\..\..\uCOS-III\Source/os_task.c ****     }
1319:..\..\..\..\..\..\uCOS-III\Source/os_task.c **** 
1320:..\..\..\..\..\..\uCOS-III\Source/os_task.c ****     if ((opt & OS_OPT_PEND_NON_BLOCKING) != (OS_OPT)0) {    /* Caller wants to block if not availab
 1844              		.loc 1 1320 0
 1845 00ca B7F90A30 		ldrsh	r3, [r7, #10]
 1846 00ce 002B     		cmp	r3, #0
 1847 00d0 08DA     		bge	.L147
1321:..\..\..\..\..\..\uCOS-III\Source/os_task.c ****         CPU_CRITICAL_EXIT();
 1848              		.loc 1 1321 0
 1849 00d2 7869     		ldr	r0, [r7, #20]
 1850 00d4 FFF7FEFF 		bl	CPU_SR_Restore
1322:..\..\..\..\..\..\uCOS-III\Source/os_task.c ****        *p_err = OS_ERR_PEND_WOULD_BLOCK;                    /* No                                  
 1851              		.loc 1 1322 0
 1852 00d8 3B68     		ldr	r3, [r7]
 1853 00da 46F2B012 		movw	r2, #25008
 1854 00de 1A80     		strh	r2, [r3]	@ movhi
1323:..\..\..\..\..\..\uCOS-III\Source/os_task.c ****         return ((OS_SEM_CTR)0);
 1855              		.loc 1 1323 0
 1856 00e0 0023     		movs	r3, #0
 1857 00e2 72E0     		b	.L139
ARM GAS  C:\Users\Aluno\AppData\Local\Temp\ccHJiRYw.s 			page 57


 1858              	.L147:
1324:..\..\..\..\..\..\uCOS-III\Source/os_task.c ****     } else {                                                /* Yes                                 
1325:..\..\..\..\..\..\uCOS-III\Source/os_task.c ****         if (OSSchedLockNestingCtr > (OS_NESTING_CTR)0) {    /* Can't pend when the scheduler is loc
 1859              		.loc 1 1325 0
 1860 00e4 3D4B     		ldr	r3, .L159+8
 1861 00e6 1B78     		ldrb	r3, [r3]	@ zero_extendqisi2
 1862 00e8 002B     		cmp	r3, #0
 1863 00ea 08D0     		beq	.L148
1326:..\..\..\..\..\..\uCOS-III\Source/os_task.c ****             CPU_CRITICAL_EXIT();
 1864              		.loc 1 1326 0
 1865 00ec 7869     		ldr	r0, [r7, #20]
 1866 00ee FFF7FEFF 		bl	CPU_SR_Restore
1327:..\..\..\..\..\..\uCOS-III\Source/os_task.c ****            *p_err = OS_ERR_SCHED_LOCKED;
 1867              		.loc 1 1327 0
 1868 00f2 3B68     		ldr	r3, [r7]
 1869 00f4 46F66352 		movw	r2, #28003
 1870 00f8 1A80     		strh	r2, [r3]	@ movhi
1328:..\..\..\..\..\..\uCOS-III\Source/os_task.c ****             return ((OS_SEM_CTR)0);
 1871              		.loc 1 1328 0
 1872 00fa 0023     		movs	r3, #0
 1873 00fc 65E0     		b	.L139
 1874              	.L148:
1329:..\..\..\..\..\..\uCOS-III\Source/os_task.c ****         }
1330:..\..\..\..\..\..\uCOS-III\Source/os_task.c ****     }
1331:..\..\..\..\..\..\uCOS-III\Source/os_task.c ****                                                             /* Lock the scheduler/re-enable interru
1332:..\..\..\..\..\..\uCOS-III\Source/os_task.c ****     OS_CRITICAL_ENTER_CPU_EXIT();                           
1333:..\..\..\..\..\..\uCOS-III\Source/os_task.c ****     OS_Pend((OS_PEND_DATA *)0,                              /* Block task pending on Signal        
 1875              		.loc 1 1333 0
 1876 00fe FB68     		ldr	r3, [r7, #12]
 1877 0100 0722     		movs	r2, #7
 1878 0102 0021     		movs	r1, #0
 1879 0104 0020     		movs	r0, #0
 1880 0106 FFF7FEFF 		bl	OS_Pend
1334:..\..\..\..\..\..\uCOS-III\Source/os_task.c ****             (OS_PEND_OBJ  *)0,
1335:..\..\..\..\..\..\uCOS-III\Source/os_task.c ****             (OS_STATE      )OS_TASK_PEND_ON_TASK_SEM,
1336:..\..\..\..\..\..\uCOS-III\Source/os_task.c ****             (OS_TICK       )timeout);
1337:..\..\..\..\..\..\uCOS-III\Source/os_task.c ****     OS_CRITICAL_EXIT_NO_SCHED();
 1881              		.loc 1 1337 0
 1882 010a 7869     		ldr	r0, [r7, #20]
 1883 010c FFF7FEFF 		bl	CPU_SR_Restore
1338:..\..\..\..\..\..\uCOS-III\Source/os_task.c **** 
1339:..\..\..\..\..\..\uCOS-III\Source/os_task.c ****     OSSched();                                              /* Find next highest priority task read
 1884              		.loc 1 1339 0
 1885 0110 FFF7FEFF 		bl	OSSched
1340:..\..\..\..\..\..\uCOS-III\Source/os_task.c **** 
1341:..\..\..\..\..\..\uCOS-III\Source/os_task.c ****     CPU_CRITICAL_ENTER();
 1886              		.loc 1 1341 0
 1887 0114 FFF7FEFF 		bl	CPU_SR_Save
 1888 0118 7861     		str	r0, [r7, #20]
1342:..\..\..\..\..\..\uCOS-III\Source/os_task.c ****     switch (OSTCBCurPtr->PendStatus) {                      /* See if we timed-out or aborted      
 1889              		.loc 1 1342 0
 1890 011a 2F4B     		ldr	r3, .L159+4
 1891 011c 1B68     		ldr	r3, [r3]
 1892 011e 93F83530 		ldrb	r3, [r3, #53]	@ zero_extendqisi2
 1893 0122 012B     		cmp	r3, #1
 1894 0124 2CD0     		beq	.L150
 1895 0126 032B     		cmp	r3, #3
ARM GAS  C:\Users\Aluno\AppData\Local\Temp\ccHJiRYw.s 			page 58


 1896 0128 37D0     		beq	.L151
 1897 012a 002B     		cmp	r3, #0
 1898 012c 40D1     		bne	.L157
1343:..\..\..\..\..\..\uCOS-III\Source/os_task.c ****         case OS_STATUS_PEND_OK:
1344:..\..\..\..\..\..\uCOS-III\Source/os_task.c ****              if (p_ts != (CPU_TS *)0) {
 1899              		.loc 1 1344 0
 1900 012e 7B68     		ldr	r3, [r7, #4]
 1901 0130 002B     		cmp	r3, #0
 1902 0132 21D0     		beq	.L153
1345:..\..\..\..\..\..\uCOS-III\Source/os_task.c ****                 *p_ts                    =  OSTCBCurPtr->TS;
 1903              		.loc 1 1345 0
 1904 0134 284B     		ldr	r3, .L159+4
 1905 0136 1B68     		ldr	r3, [r3]
 1906 0138 1A6C     		ldr	r2, [r3, #64]
 1907 013a 7B68     		ldr	r3, [r7, #4]
 1908 013c 1A60     		str	r2, [r3]
1346:..\..\..\..\..\..\uCOS-III\Source/os_task.c **** #if OS_CFG_TASK_PROFILE_EN > 0u
1347:..\..\..\..\..\..\uCOS-III\Source/os_task.c ****                 OSTCBCurPtr->SemPendTime = OS_TS_GET() - OSTCBCurPtr->TS;
 1909              		.loc 1 1347 0
 1910 013e 264B     		ldr	r3, .L159+4
 1911 0140 1C68     		ldr	r4, [r3]
 1912 0142 FFF7FEFF 		bl	CPU_TS_TmrRd
 1913 0146 0246     		mov	r2, r0
 1914 0148 234B     		ldr	r3, .L159+4
 1915 014a 1B68     		ldr	r3, [r3]
 1916 014c 1B6C     		ldr	r3, [r3, #64]
 1917 014e D31A     		subs	r3, r2, r3
 1918 0150 C4F8A430 		str	r3, [r4, #164]
1348:..\..\..\..\..\..\uCOS-III\Source/os_task.c ****                 if (OSTCBCurPtr->SemPendTimeMax < OSTCBCurPtr->SemPendTime) {
 1919              		.loc 1 1348 0
 1920 0154 204B     		ldr	r3, .L159+4
 1921 0156 1B68     		ldr	r3, [r3]
 1922 0158 D3F8A820 		ldr	r2, [r3, #168]
 1923 015c 1E4B     		ldr	r3, .L159+4
 1924 015e 1B68     		ldr	r3, [r3]
 1925 0160 D3F8A430 		ldr	r3, [r3, #164]
 1926 0164 9A42     		cmp	r2, r3
 1927 0166 07D2     		bcs	.L153
1349:..\..\..\..\..\..\uCOS-III\Source/os_task.c ****                     OSTCBCurPtr->SemPendTimeMax = OSTCBCurPtr->SemPendTime;
 1928              		.loc 1 1349 0
 1929 0168 1B4B     		ldr	r3, .L159+4
 1930 016a 1B68     		ldr	r3, [r3]
 1931 016c 1A4A     		ldr	r2, .L159+4
 1932 016e 1268     		ldr	r2, [r2]
 1933 0170 D2F8A420 		ldr	r2, [r2, #164]
 1934 0174 C3F8A820 		str	r2, [r3, #168]
 1935              	.L153:
1350:..\..\..\..\..\..\uCOS-III\Source/os_task.c ****                 }
1351:..\..\..\..\..\..\uCOS-III\Source/os_task.c **** #endif
1352:..\..\..\..\..\..\uCOS-III\Source/os_task.c ****              }
1353:..\..\..\..\..\..\uCOS-III\Source/os_task.c ****             *p_err = OS_ERR_NONE;
 1936              		.loc 1 1353 0
 1937 0178 3B68     		ldr	r3, [r7]
 1938 017a 0022     		movs	r2, #0
 1939 017c 1A80     		strh	r2, [r3]	@ movhi
1354:..\..\..\..\..\..\uCOS-III\Source/os_task.c ****              break;
 1940              		.loc 1 1354 0
ARM GAS  C:\Users\Aluno\AppData\Local\Temp\ccHJiRYw.s 			page 59


 1941 017e 1CE0     		b	.L154
 1942              	.L150:
1355:..\..\..\..\..\..\uCOS-III\Source/os_task.c **** 
1356:..\..\..\..\..\..\uCOS-III\Source/os_task.c ****         case OS_STATUS_PEND_ABORT:
1357:..\..\..\..\..\..\uCOS-III\Source/os_task.c ****              if (p_ts != (CPU_TS *)0) {
 1943              		.loc 1 1357 0
 1944 0180 7B68     		ldr	r3, [r7, #4]
 1945 0182 002B     		cmp	r3, #0
 1946 0184 04D0     		beq	.L155
1358:..\..\..\..\..\..\uCOS-III\Source/os_task.c ****                 *p_ts  =  OSTCBCurPtr->TS;
 1947              		.loc 1 1358 0
 1948 0186 144B     		ldr	r3, .L159+4
 1949 0188 1B68     		ldr	r3, [r3]
 1950 018a 1A6C     		ldr	r2, [r3, #64]
 1951 018c 7B68     		ldr	r3, [r7, #4]
 1952 018e 1A60     		str	r2, [r3]
 1953              	.L155:
1359:..\..\..\..\..\..\uCOS-III\Source/os_task.c ****              }
1360:..\..\..\..\..\..\uCOS-III\Source/os_task.c ****             *p_err = OS_ERR_PEND_ABORT;                     /* Indicate that we aborted            
 1954              		.loc 1 1360 0
 1955 0190 3B68     		ldr	r3, [r7]
 1956 0192 46F2A912 		movw	r2, #25001
 1957 0196 1A80     		strh	r2, [r3]	@ movhi
1361:..\..\..\..\..\..\uCOS-III\Source/os_task.c ****              break;
 1958              		.loc 1 1361 0
 1959 0198 0FE0     		b	.L154
 1960              	.L151:
1362:..\..\..\..\..\..\uCOS-III\Source/os_task.c **** 
1363:..\..\..\..\..\..\uCOS-III\Source/os_task.c ****         case OS_STATUS_PEND_TIMEOUT:
1364:..\..\..\..\..\..\uCOS-III\Source/os_task.c ****              if (p_ts != (CPU_TS *)0) {
 1961              		.loc 1 1364 0
 1962 019a 7B68     		ldr	r3, [r7, #4]
 1963 019c 002B     		cmp	r3, #0
 1964 019e 02D0     		beq	.L156
1365:..\..\..\..\..\..\uCOS-III\Source/os_task.c ****                 *p_ts  = (CPU_TS  )0;
 1965              		.loc 1 1365 0
 1966 01a0 7B68     		ldr	r3, [r7, #4]
 1967 01a2 0022     		movs	r2, #0
 1968 01a4 1A60     		str	r2, [r3]
 1969              	.L156:
1366:..\..\..\..\..\..\uCOS-III\Source/os_task.c ****              }
1367:..\..\..\..\..\..\uCOS-III\Source/os_task.c ****             *p_err = OS_ERR_TIMEOUT;                        /* Indicate that we didn't get event wi
 1970              		.loc 1 1367 0
 1971 01a6 3B68     		ldr	r3, [r7]
 1972 01a8 47F2D922 		movw	r2, #29401
 1973 01ac 1A80     		strh	r2, [r3]	@ movhi
1368:..\..\..\..\..\..\uCOS-III\Source/os_task.c ****              break;
 1974              		.loc 1 1368 0
 1975 01ae 04E0     		b	.L154
 1976              	.L157:
1369:..\..\..\..\..\..\uCOS-III\Source/os_task.c **** 
1370:..\..\..\..\..\..\uCOS-III\Source/os_task.c ****         default:
1371:..\..\..\..\..\..\uCOS-III\Source/os_task.c ****             *p_err = OS_ERR_STATUS_INVALID;
 1977              		.loc 1 1371 0
 1978 01b0 3B68     		ldr	r3, [r7]
 1979 01b2 46F62E62 		movw	r2, #28206
 1980 01b6 1A80     		strh	r2, [r3]	@ movhi
ARM GAS  C:\Users\Aluno\AppData\Local\Temp\ccHJiRYw.s 			page 60


1372:..\..\..\..\..\..\uCOS-III\Source/os_task.c ****              break;
 1981              		.loc 1 1372 0
 1982 01b8 00BF     		nop
 1983              	.L154:
1373:..\..\..\..\..\..\uCOS-III\Source/os_task.c ****     }
1374:..\..\..\..\..\..\uCOS-III\Source/os_task.c ****     ctr = OSTCBCurPtr->SemCtr;
 1984              		.loc 1 1374 0
 1985 01ba 074B     		ldr	r3, .L159+4
 1986 01bc 1B68     		ldr	r3, [r3]
 1987 01be 5B6C     		ldr	r3, [r3, #68]
 1988 01c0 3B61     		str	r3, [r7, #16]
1375:..\..\..\..\..\..\uCOS-III\Source/os_task.c ****     CPU_CRITICAL_EXIT();
 1989              		.loc 1 1375 0
 1990 01c2 7869     		ldr	r0, [r7, #20]
 1991 01c4 FFF7FEFF 		bl	CPU_SR_Restore
1376:..\..\..\..\..\..\uCOS-III\Source/os_task.c ****     return (ctr);
 1992              		.loc 1 1376 0
 1993 01c8 3B69     		ldr	r3, [r7, #16]
 1994              	.L139:
1377:..\..\..\..\..\..\uCOS-III\Source/os_task.c **** }
 1995              		.loc 1 1377 0
 1996 01ca 1846     		mov	r0, r3
 1997 01cc 1C37     		adds	r7, r7, #28
 1998              		.cfi_def_cfa_offset 12
 1999 01ce BD46     		mov	sp, r7
 2000              		.cfi_def_cfa_register 13
 2001              		@ sp needed
 2002 01d0 90BD     		pop	{r4, r7, pc}
 2003              	.L160:
 2004 01d2 00BF     		.align	2
 2005              	.L159:
 2006 01d4 00000000 		.word	OSIntNestingCtr
 2007 01d8 00000000 		.word	OSTCBCurPtr
 2008 01dc 00000000 		.word	OSSchedLockNestingCtr
 2009              		.cfi_endproc
 2010              	.LFE11:
 2011              		.size	OSTaskSemPend, .-OSTaskSemPend
 2012              		.section	.text.OSTaskSemPendAbort,"ax",%progbits
 2013              		.align	2
 2014              		.global	OSTaskSemPendAbort
 2015              		.thumb
 2016              		.thumb_func
 2017              		.type	OSTaskSemPendAbort, %function
 2018              	OSTaskSemPendAbort:
 2019              	.LFB12:
1378:..\..\..\..\..\..\uCOS-III\Source/os_task.c **** 
1379:..\..\..\..\..\..\uCOS-III\Source/os_task.c **** /*$PAGE*/
1380:..\..\..\..\..\..\uCOS-III\Source/os_task.c **** /*
1381:..\..\..\..\..\..\uCOS-III\Source/os_task.c **** ***************************************************************************************************
1382:..\..\..\..\..\..\uCOS-III\Source/os_task.c **** *                                               ABORT WAITING FOR A SIGNAL
1383:..\..\..\..\..\..\uCOS-III\Source/os_task.c **** *
1384:..\..\..\..\..\..\uCOS-III\Source/os_task.c **** * Description: This function aborts & readies the task specified.  This function should be used to 
1385:..\..\..\..\..\..\uCOS-III\Source/os_task.c **** *              for a signal, rather than to normally post the signal to the task via OSTaskSemPost(
1386:..\..\..\..\..\..\uCOS-III\Source/os_task.c **** *
1387:..\..\..\..\..\..\uCOS-III\Source/os_task.c **** * Arguments  : p_tcb     is a pointer to the task to pend abort
1388:..\..\..\..\..\..\uCOS-III\Source/os_task.c **** *
1389:..\..\..\..\..\..\uCOS-III\Source/os_task.c **** *              opt       provides options for this function:
ARM GAS  C:\Users\Aluno\AppData\Local\Temp\ccHJiRYw.s 			page 61


1390:..\..\..\..\..\..\uCOS-III\Source/os_task.c **** *
1391:..\..\..\..\..\..\uCOS-III\Source/os_task.c **** *                            OS_OPT_POST_NONE         No option selected
1392:..\..\..\..\..\..\uCOS-III\Source/os_task.c **** *                            OS_OPT_POST_NO_SCHED     Indicates that the scheduler will not be call
1393:..\..\..\..\..\..\uCOS-III\Source/os_task.c **** *
1394:..\..\..\..\..\..\uCOS-III\Source/os_task.c **** *              p_err     is a pointer to a variable that will contain an error code returned by thi
1395:..\..\..\..\..\..\uCOS-III\Source/os_task.c **** *
1396:..\..\..\..\..\..\uCOS-III\Source/os_task.c **** *                            OS_ERR_NONE              If the task was readied and informed of the a
1397:..\..\..\..\..\..\uCOS-III\Source/os_task.c **** *                            OS_ERR_PEND_ABORT_ISR    If you tried calling this function from an IS
1398:..\..\..\..\..\..\uCOS-III\Source/os_task.c **** *                            OS_ERR_PEND_ABORT_NONE   If the task was not waiting for a signal
1399:..\..\..\..\..\..\uCOS-III\Source/os_task.c **** *                            OS_ERR_PEND_ABORT_SELF   If you attempted to pend abort the calling ta
1400:..\..\..\..\..\..\uCOS-III\Source/os_task.c **** *                                                     possible since the calling task cannot be pen
1401:..\..\..\..\..\..\uCOS-III\Source/os_task.c **** *                                                     running.
1402:..\..\..\..\..\..\uCOS-III\Source/os_task.c **** *
1403:..\..\..\..\..\..\uCOS-III\Source/os_task.c **** * Returns    : == DEF_FALSE   if task was not waiting for a message, or upon error.
1404:..\..\..\..\..\..\uCOS-III\Source/os_task.c **** *              == DEF_TRUE    if task was waiting for a message and was readied and informed.
1405:..\..\..\..\..\..\uCOS-III\Source/os_task.c **** ***************************************************************************************************
1406:..\..\..\..\..\..\uCOS-III\Source/os_task.c **** */
1407:..\..\..\..\..\..\uCOS-III\Source/os_task.c **** 
1408:..\..\..\..\..\..\uCOS-III\Source/os_task.c **** #if OS_CFG_TASK_SEM_PEND_ABORT_EN > 0u
1409:..\..\..\..\..\..\uCOS-III\Source/os_task.c **** CPU_BOOLEAN  OSTaskSemPendAbort (OS_TCB  *p_tcb,
1410:..\..\..\..\..\..\uCOS-III\Source/os_task.c ****                                  OS_OPT   opt,
1411:..\..\..\..\..\..\uCOS-III\Source/os_task.c ****                                  OS_ERR  *p_err)
1412:..\..\..\..\..\..\uCOS-III\Source/os_task.c **** {
 2020              		.loc 1 1412 0
 2021              		.cfi_startproc
 2022              		@ args = 0, pretend = 0, frame = 24
 2023              		@ frame_needed = 1, uses_anonymous_args = 0
 2024 0000 80B5     		push	{r7, lr}
 2025              		.cfi_def_cfa_offset 8
 2026              		.cfi_offset 7, -8
 2027              		.cfi_offset 14, -4
 2028 0002 86B0     		sub	sp, sp, #24
 2029              		.cfi_def_cfa_offset 32
 2030 0004 00AF     		add	r7, sp, #0
 2031              		.cfi_def_cfa_register 7
 2032 0006 F860     		str	r0, [r7, #12]
 2033 0008 0B46     		mov	r3, r1
 2034 000a 7A60     		str	r2, [r7, #4]
 2035 000c 7B81     		strh	r3, [r7, #10]	@ movhi
1413:..\..\..\..\..\..\uCOS-III\Source/os_task.c ****     CPU_TS         ts;
1414:..\..\..\..\..\..\uCOS-III\Source/os_task.c ****     CPU_SR_ALLOC();
 2036              		.loc 1 1414 0
 2037 000e 0023     		movs	r3, #0
 2038 0010 7B61     		str	r3, [r7, #20]
1415:..\..\..\..\..\..\uCOS-III\Source/os_task.c **** 
1416:..\..\..\..\..\..\uCOS-III\Source/os_task.c **** 
1417:..\..\..\..\..\..\uCOS-III\Source/os_task.c **** 
1418:..\..\..\..\..\..\uCOS-III\Source/os_task.c **** #ifdef OS_SAFETY_CRITICAL
1419:..\..\..\..\..\..\uCOS-III\Source/os_task.c ****     if (p_err == (OS_ERR *)0) {
1420:..\..\..\..\..\..\uCOS-III\Source/os_task.c ****         OS_SAFETY_CRITICAL_EXCEPTION();
1421:..\..\..\..\..\..\uCOS-III\Source/os_task.c ****         return (DEF_FALSE);
1422:..\..\..\..\..\..\uCOS-III\Source/os_task.c ****     }
1423:..\..\..\..\..\..\uCOS-III\Source/os_task.c **** #endif
1424:..\..\..\..\..\..\uCOS-III\Source/os_task.c **** 
1425:..\..\..\..\..\..\uCOS-III\Source/os_task.c **** #if OS_CFG_CALLED_FROM_ISR_CHK_EN > 0u
1426:..\..\..\..\..\..\uCOS-III\Source/os_task.c ****     if (OSIntNestingCtr > (OS_NESTING_CTR)0) {              /* See if called from ISR ...          
 2039              		.loc 1 1426 0
ARM GAS  C:\Users\Aluno\AppData\Local\Temp\ccHJiRYw.s 			page 62


 2040 0012 2C4B     		ldr	r3, .L172
 2041 0014 1B78     		ldrb	r3, [r3]	@ zero_extendqisi2
 2042 0016 002B     		cmp	r3, #0
 2043 0018 05D0     		beq	.L162
1427:..\..\..\..\..\..\uCOS-III\Source/os_task.c ****        *p_err = OS_ERR_PEND_ABORT_ISR;                      /* ... can't Pend Abort from an ISR    
 2044              		.loc 1 1427 0
 2045 001a 7B68     		ldr	r3, [r7, #4]
 2046 001c 46F2AA12 		movw	r2, #25002
 2047 0020 1A80     		strh	r2, [r3]	@ movhi
1428:..\..\..\..\..\..\uCOS-III\Source/os_task.c ****         return (DEF_FALSE);
 2048              		.loc 1 1428 0
 2049 0022 0023     		movs	r3, #0
 2050 0024 49E0     		b	.L163
 2051              	.L162:
1429:..\..\..\..\..\..\uCOS-III\Source/os_task.c ****     }
1430:..\..\..\..\..\..\uCOS-III\Source/os_task.c **** #endif
1431:..\..\..\..\..\..\uCOS-III\Source/os_task.c **** 
1432:..\..\..\..\..\..\uCOS-III\Source/os_task.c **** #if OS_CFG_ARG_CHK_EN > 0u
1433:..\..\..\..\..\..\uCOS-III\Source/os_task.c ****     switch (opt) {                                          /* Validate 'opt'                      
 2052              		.loc 1 1433 0
 2053 0026 7B89     		ldrh	r3, [r7, #10]
 2054 0028 002B     		cmp	r3, #0
 2055 002a 08D0     		beq	.L171
 2056 002c B3F5004F 		cmp	r3, #32768
 2057 0030 05D0     		beq	.L171
1434:..\..\..\..\..\..\uCOS-III\Source/os_task.c ****         case OS_OPT_POST_NONE:
1435:..\..\..\..\..\..\uCOS-III\Source/os_task.c ****         case OS_OPT_POST_NO_SCHED:
1436:..\..\..\..\..\..\uCOS-III\Source/os_task.c ****              break;
1437:..\..\..\..\..\..\uCOS-III\Source/os_task.c **** 
1438:..\..\..\..\..\..\uCOS-III\Source/os_task.c ****         default:
1439:..\..\..\..\..\..\uCOS-III\Source/os_task.c ****             *p_err =  OS_ERR_OPT_INVALID;
 2058              		.loc 1 1439 0
 2059 0032 7B68     		ldr	r3, [r7, #4]
 2060 0034 45F62562 		movw	r2, #24101
 2061 0038 1A80     		strh	r2, [r3]	@ movhi
1440:..\..\..\..\..\..\uCOS-III\Source/os_task.c ****              return (DEF_FALSE);
 2062              		.loc 1 1440 0
 2063 003a 0023     		movs	r3, #0
 2064 003c 3DE0     		b	.L163
 2065              	.L171:
1436:..\..\..\..\..\..\uCOS-III\Source/os_task.c **** 
 2066              		.loc 1 1436 0
 2067 003e 00BF     		nop
1441:..\..\..\..\..\..\uCOS-III\Source/os_task.c ****     }
1442:..\..\..\..\..\..\uCOS-III\Source/os_task.c **** #endif
1443:..\..\..\..\..\..\uCOS-III\Source/os_task.c **** 
1444:..\..\..\..\..\..\uCOS-III\Source/os_task.c ****     CPU_CRITICAL_ENTER();
 2068              		.loc 1 1444 0
 2069 0040 FFF7FEFF 		bl	CPU_SR_Save
 2070 0044 7861     		str	r0, [r7, #20]
1445:..\..\..\..\..\..\uCOS-III\Source/os_task.c ****     if ((p_tcb == (OS_TCB *)0) ||                           /* Pend abort self?                    
 2071              		.loc 1 1445 0
 2072 0046 FB68     		ldr	r3, [r7, #12]
 2073 0048 002B     		cmp	r3, #0
 2074 004a 04D0     		beq	.L167
1446:..\..\..\..\..\..\uCOS-III\Source/os_task.c ****         (p_tcb == OSTCBCurPtr)) {
 2075              		.loc 1 1446 0 discriminator 1
ARM GAS  C:\Users\Aluno\AppData\Local\Temp\ccHJiRYw.s 			page 63


 2076 004c 1E4B     		ldr	r3, .L172+4
 2077 004e 1B68     		ldr	r3, [r3]
1445:..\..\..\..\..\..\uCOS-III\Source/os_task.c ****     if ((p_tcb == (OS_TCB *)0) ||                           /* Pend abort self?                    
 2078              		.loc 1 1445 0 discriminator 1
 2079 0050 FA68     		ldr	r2, [r7, #12]
 2080 0052 9A42     		cmp	r2, r3
 2081 0054 08D1     		bne	.L168
 2082              	.L167:
1447:..\..\..\..\..\..\uCOS-III\Source/os_task.c ****         CPU_CRITICAL_EXIT();                                /* ... doesn't make sense!             
 2083              		.loc 1 1447 0
 2084 0056 7869     		ldr	r0, [r7, #20]
 2085 0058 FFF7FEFF 		bl	CPU_SR_Restore
1448:..\..\..\..\..\..\uCOS-III\Source/os_task.c ****        *p_err = OS_ERR_PEND_ABORT_SELF;
 2086              		.loc 1 1448 0
 2087 005c 7B68     		ldr	r3, [r7, #4]
 2088 005e 46F2AC12 		movw	r2, #25004
 2089 0062 1A80     		strh	r2, [r3]	@ movhi
1449:..\..\..\..\..\..\uCOS-III\Source/os_task.c ****         return (DEF_FALSE);
 2090              		.loc 1 1449 0
 2091 0064 0023     		movs	r3, #0
 2092 0066 28E0     		b	.L163
 2093              	.L168:
1450:..\..\..\..\..\..\uCOS-III\Source/os_task.c ****     }
1451:..\..\..\..\..\..\uCOS-III\Source/os_task.c **** 
1452:..\..\..\..\..\..\uCOS-III\Source/os_task.c ****     if (p_tcb->PendOn != OS_TASK_PEND_ON_TASK_SEM) {        /* Is task waiting for a signal?       
 2094              		.loc 1 1452 0
 2095 0068 FB68     		ldr	r3, [r7, #12]
 2096 006a 93F83430 		ldrb	r3, [r3, #52]	@ zero_extendqisi2
 2097 006e 072B     		cmp	r3, #7
 2098 0070 08D0     		beq	.L169
1453:..\..\..\..\..\..\uCOS-III\Source/os_task.c ****         CPU_CRITICAL_EXIT();
 2099              		.loc 1 1453 0
 2100 0072 7869     		ldr	r0, [r7, #20]
 2101 0074 FFF7FEFF 		bl	CPU_SR_Restore
1454:..\..\..\..\..\..\uCOS-III\Source/os_task.c ****        *p_err = OS_ERR_PEND_ABORT_NONE;
 2102              		.loc 1 1454 0
 2103 0078 7B68     		ldr	r3, [r7, #4]
 2104 007a 46F2AB12 		movw	r2, #25003
 2105 007e 1A80     		strh	r2, [r3]	@ movhi
1455:..\..\..\..\..\..\uCOS-III\Source/os_task.c ****         return (DEF_FALSE);
 2106              		.loc 1 1455 0
 2107 0080 0023     		movs	r3, #0
 2108 0082 1AE0     		b	.L163
 2109              	.L169:
1456:..\..\..\..\..\..\uCOS-III\Source/os_task.c ****     }
1457:..\..\..\..\..\..\uCOS-III\Source/os_task.c ****     CPU_CRITICAL_EXIT();
 2110              		.loc 1 1457 0
 2111 0084 7869     		ldr	r0, [r7, #20]
 2112 0086 FFF7FEFF 		bl	CPU_SR_Restore
1458:..\..\..\..\..\..\uCOS-III\Source/os_task.c **** 
1459:..\..\..\..\..\..\uCOS-III\Source/os_task.c ****     OS_CRITICAL_ENTER();
 2113              		.loc 1 1459 0
 2114 008a FFF7FEFF 		bl	CPU_SR_Save
 2115 008e 7861     		str	r0, [r7, #20]
1460:..\..\..\..\..\..\uCOS-III\Source/os_task.c ****     ts = OS_TS_GET();
 2116              		.loc 1 1460 0
 2117 0090 FFF7FEFF 		bl	CPU_TS_TmrRd
ARM GAS  C:\Users\Aluno\AppData\Local\Temp\ccHJiRYw.s 			page 64


 2118 0094 3861     		str	r0, [r7, #16]
1461:..\..\..\..\..\..\uCOS-III\Source/os_task.c ****     OS_PendAbort((OS_PEND_OBJ *)0,
 2119              		.loc 1 1461 0
 2120 0096 3A69     		ldr	r2, [r7, #16]
 2121 0098 F968     		ldr	r1, [r7, #12]
 2122 009a 0020     		movs	r0, #0
 2123 009c FFF7FEFF 		bl	OS_PendAbort
1462:..\..\..\..\..\..\uCOS-III\Source/os_task.c ****                  p_tcb,
1463:..\..\..\..\..\..\uCOS-III\Source/os_task.c ****                  ts);
1464:..\..\..\..\..\..\uCOS-III\Source/os_task.c ****     OS_CRITICAL_EXIT_NO_SCHED();
 2124              		.loc 1 1464 0
 2125 00a0 7869     		ldr	r0, [r7, #20]
 2126 00a2 FFF7FEFF 		bl	CPU_SR_Restore
1465:..\..\..\..\..\..\uCOS-III\Source/os_task.c ****     if ((opt & OS_OPT_POST_NO_SCHED) == (OS_OPT)0) {
 2127              		.loc 1 1465 0
 2128 00a6 B7F90A30 		ldrsh	r3, [r7, #10]
 2129 00aa 002B     		cmp	r3, #0
 2130 00ac 01DB     		blt	.L170
1466:..\..\..\..\..\..\uCOS-III\Source/os_task.c ****         OSSched();                                          /* Run the scheduler                   
 2131              		.loc 1 1466 0
 2132 00ae FFF7FEFF 		bl	OSSched
 2133              	.L170:
1467:..\..\..\..\..\..\uCOS-III\Source/os_task.c ****     }
1468:..\..\..\..\..\..\uCOS-III\Source/os_task.c ****    *p_err = OS_ERR_NONE;
 2134              		.loc 1 1468 0
 2135 00b2 7B68     		ldr	r3, [r7, #4]
 2136 00b4 0022     		movs	r2, #0
 2137 00b6 1A80     		strh	r2, [r3]	@ movhi
1469:..\..\..\..\..\..\uCOS-III\Source/os_task.c ****     return (DEF_TRUE);
 2138              		.loc 1 1469 0
 2139 00b8 0123     		movs	r3, #1
 2140              	.L163:
1470:..\..\..\..\..\..\uCOS-III\Source/os_task.c **** }
 2141              		.loc 1 1470 0
 2142 00ba 1846     		mov	r0, r3
 2143 00bc 1837     		adds	r7, r7, #24
 2144              		.cfi_def_cfa_offset 8
 2145 00be BD46     		mov	sp, r7
 2146              		.cfi_def_cfa_register 13
 2147              		@ sp needed
 2148 00c0 80BD     		pop	{r7, pc}
 2149              	.L173:
 2150 00c2 00BF     		.align	2
 2151              	.L172:
 2152 00c4 00000000 		.word	OSIntNestingCtr
 2153 00c8 00000000 		.word	OSTCBCurPtr
 2154              		.cfi_endproc
 2155              	.LFE12:
 2156              		.size	OSTaskSemPendAbort, .-OSTaskSemPendAbort
 2157              		.section	.text.OSTaskSemPost,"ax",%progbits
 2158              		.align	2
 2159              		.global	OSTaskSemPost
 2160              		.thumb
 2161              		.thumb_func
 2162              		.type	OSTaskSemPost, %function
 2163              	OSTaskSemPost:
 2164              	.LFB13:
ARM GAS  C:\Users\Aluno\AppData\Local\Temp\ccHJiRYw.s 			page 65


1471:..\..\..\..\..\..\uCOS-III\Source/os_task.c **** #endif
1472:..\..\..\..\..\..\uCOS-III\Source/os_task.c **** 
1473:..\..\..\..\..\..\uCOS-III\Source/os_task.c **** /*$PAGE*/
1474:..\..\..\..\..\..\uCOS-III\Source/os_task.c **** /*
1475:..\..\..\..\..\..\uCOS-III\Source/os_task.c **** ***************************************************************************************************
1476:..\..\..\..\..\..\uCOS-III\Source/os_task.c **** *                                                    SIGNAL A TASK
1477:..\..\..\..\..\..\uCOS-III\Source/os_task.c **** *
1478:..\..\..\..\..\..\uCOS-III\Source/os_task.c **** * Description: This function is called to signal a task waiting for a signal.
1479:..\..\..\..\..\..\uCOS-III\Source/os_task.c **** *
1480:..\..\..\..\..\..\uCOS-III\Source/os_task.c **** * Arguments  : p_tcb     is the pointer to the TCB of the task to signal.  A NULL pointer indicates
1481:..\..\..\..\..\..\uCOS-III\Source/os_task.c **** *                        a signal to yourself.
1482:..\..\..\..\..\..\uCOS-III\Source/os_task.c **** *
1483:..\..\..\..\..\..\uCOS-III\Source/os_task.c **** *              opt       determines the type of POST performed:
1484:..\..\..\..\..\..\uCOS-III\Source/os_task.c **** *
1485:..\..\..\..\..\..\uCOS-III\Source/os_task.c **** *                             OS_OPT_POST_NONE         No option
1486:..\..\..\..\..\..\uCOS-III\Source/os_task.c **** *                             OS_OPT_POST_NO_SCHED     Do not call the scheduler
1487:..\..\..\..\..\..\uCOS-III\Source/os_task.c **** *
1488:..\..\..\..\..\..\uCOS-III\Source/os_task.c **** *              p_err     is a pointer to an error code returned by this function:
1489:..\..\..\..\..\..\uCOS-III\Source/os_task.c **** *
1490:..\..\..\..\..\..\uCOS-III\Source/os_task.c **** *                            OS_ERR_NONE              If the requested task is signaled
1491:..\..\..\..\..\..\uCOS-III\Source/os_task.c **** *                            OS_ERR_SEM_OVF           If the post would cause the semaphore count t
1492:..\..\..\..\..\..\uCOS-III\Source/os_task.c **** *
1493:..\..\..\..\..\..\uCOS-III\Source/os_task.c **** * Returns    : The current value of the task's signal counter or 0 if called from an ISR
1494:..\..\..\..\..\..\uCOS-III\Source/os_task.c **** ***************************************************************************************************
1495:..\..\..\..\..\..\uCOS-III\Source/os_task.c **** */
1496:..\..\..\..\..\..\uCOS-III\Source/os_task.c **** 
1497:..\..\..\..\..\..\uCOS-III\Source/os_task.c **** OS_SEM_CTR  OSTaskSemPost (OS_TCB  *p_tcb,
1498:..\..\..\..\..\..\uCOS-III\Source/os_task.c ****                            OS_OPT   opt,
1499:..\..\..\..\..\..\uCOS-III\Source/os_task.c ****                            OS_ERR  *p_err)
1500:..\..\..\..\..\..\uCOS-III\Source/os_task.c **** {
 2165              		.loc 1 1500 0
 2166              		.cfi_startproc
 2167              		@ args = 0, pretend = 0, frame = 24
 2168              		@ frame_needed = 1, uses_anonymous_args = 0
 2169 0000 80B5     		push	{r7, lr}
 2170              		.cfi_def_cfa_offset 8
 2171              		.cfi_offset 7, -8
 2172              		.cfi_offset 14, -4
 2173 0002 86B0     		sub	sp, sp, #24
 2174              		.cfi_def_cfa_offset 32
 2175 0004 00AF     		add	r7, sp, #0
 2176              		.cfi_def_cfa_register 7
 2177 0006 F860     		str	r0, [r7, #12]
 2178 0008 0B46     		mov	r3, r1
 2179 000a 7A60     		str	r2, [r7, #4]
 2180 000c 7B81     		strh	r3, [r7, #10]	@ movhi
1501:..\..\..\..\..\..\uCOS-III\Source/os_task.c ****     OS_SEM_CTR  ctr;
1502:..\..\..\..\..\..\uCOS-III\Source/os_task.c ****     CPU_TS      ts;
1503:..\..\..\..\..\..\uCOS-III\Source/os_task.c **** 
1504:..\..\..\..\..\..\uCOS-III\Source/os_task.c **** 
1505:..\..\..\..\..\..\uCOS-III\Source/os_task.c **** 
1506:..\..\..\..\..\..\uCOS-III\Source/os_task.c **** #ifdef OS_SAFETY_CRITICAL
1507:..\..\..\..\..\..\uCOS-III\Source/os_task.c ****     if (p_err == (OS_ERR *)0) {
1508:..\..\..\..\..\..\uCOS-III\Source/os_task.c ****         OS_SAFETY_CRITICAL_EXCEPTION();
1509:..\..\..\..\..\..\uCOS-III\Source/os_task.c ****         return ((OS_SEM_CTR)0);
1510:..\..\..\..\..\..\uCOS-III\Source/os_task.c ****     }
1511:..\..\..\..\..\..\uCOS-III\Source/os_task.c **** #endif
ARM GAS  C:\Users\Aluno\AppData\Local\Temp\ccHJiRYw.s 			page 66


1512:..\..\..\..\..\..\uCOS-III\Source/os_task.c **** 
1513:..\..\..\..\..\..\uCOS-III\Source/os_task.c **** #if OS_CFG_ARG_CHK_EN > 0u
1514:..\..\..\..\..\..\uCOS-III\Source/os_task.c ****     switch (opt) {                                          /* Validate 'opt'                      
 2181              		.loc 1 1514 0
 2182 000e 7B89     		ldrh	r3, [r7, #10]
 2183 0010 002B     		cmp	r3, #0
 2184 0012 08D0     		beq	.L179
 2185 0014 B3F5004F 		cmp	r3, #32768
 2186 0018 05D0     		beq	.L179
1515:..\..\..\..\..\..\uCOS-III\Source/os_task.c ****         case OS_OPT_POST_NONE:
1516:..\..\..\..\..\..\uCOS-III\Source/os_task.c ****         case OS_OPT_POST_NO_SCHED:
1517:..\..\..\..\..\..\uCOS-III\Source/os_task.c ****              break;
1518:..\..\..\..\..\..\uCOS-III\Source/os_task.c **** 
1519:..\..\..\..\..\..\uCOS-III\Source/os_task.c ****         default:
1520:..\..\..\..\..\..\uCOS-III\Source/os_task.c ****             *p_err =  OS_ERR_OPT_INVALID;
 2187              		.loc 1 1520 0
 2188 001a 7B68     		ldr	r3, [r7, #4]
 2189 001c 45F62562 		movw	r2, #24101
 2190 0020 1A80     		strh	r2, [r3]	@ movhi
1521:..\..\..\..\..\..\uCOS-III\Source/os_task.c ****              return ((OS_SEM_CTR)0u);
 2191              		.loc 1 1521 0
 2192 0022 0023     		movs	r3, #0
 2193 0024 0BE0     		b	.L178
 2194              	.L179:
1517:..\..\..\..\..\..\uCOS-III\Source/os_task.c **** 
 2195              		.loc 1 1517 0
 2196 0026 00BF     		nop
1522:..\..\..\..\..\..\uCOS-III\Source/os_task.c ****     }
1523:..\..\..\..\..\..\uCOS-III\Source/os_task.c **** #endif
1524:..\..\..\..\..\..\uCOS-III\Source/os_task.c **** 
1525:..\..\..\..\..\..\uCOS-III\Source/os_task.c ****     ts = OS_TS_GET();                                       /* Get timestamp                       
 2197              		.loc 1 1525 0
 2198 0028 FFF7FEFF 		bl	CPU_TS_TmrRd
 2199 002c 7861     		str	r0, [r7, #20]
1526:..\..\..\..\..\..\uCOS-III\Source/os_task.c **** 
1527:..\..\..\..\..\..\uCOS-III\Source/os_task.c **** #if OS_CFG_ISR_POST_DEFERRED_EN > 0u
1528:..\..\..\..\..\..\uCOS-III\Source/os_task.c ****     if (OSIntNestingCtr > (OS_NESTING_CTR)0) {              /* See if called from an ISR           
1529:..\..\..\..\..\..\uCOS-III\Source/os_task.c ****         OS_IntQPost((OS_OBJ_TYPE)OS_OBJ_TYPE_TASK_SIGNAL,   /* Post to ISR queue                   
1530:..\..\..\..\..\..\uCOS-III\Source/os_task.c ****                     (void      *)p_tcb,
1531:..\..\..\..\..\..\uCOS-III\Source/os_task.c ****                     (void      *)0,
1532:..\..\..\..\..\..\uCOS-III\Source/os_task.c ****                     (OS_MSG_SIZE)0,
1533:..\..\..\..\..\..\uCOS-III\Source/os_task.c ****                     (OS_FLAGS   )0,
1534:..\..\..\..\..\..\uCOS-III\Source/os_task.c ****                     (OS_OPT     )0,
1535:..\..\..\..\..\..\uCOS-III\Source/os_task.c ****                     (CPU_TS     )ts,
1536:..\..\..\..\..\..\uCOS-III\Source/os_task.c ****                     (OS_ERR    *)p_err);
1537:..\..\..\..\..\..\uCOS-III\Source/os_task.c ****         return ((OS_SEM_CTR)0);
1538:..\..\..\..\..\..\uCOS-III\Source/os_task.c ****     }
1539:..\..\..\..\..\..\uCOS-III\Source/os_task.c **** #endif
1540:..\..\..\..\..\..\uCOS-III\Source/os_task.c **** 
1541:..\..\..\..\..\..\uCOS-III\Source/os_task.c ****     ctr = OS_TaskSemPost(p_tcb,
 2200              		.loc 1 1541 0
 2201 002e 7989     		ldrh	r1, [r7, #10]
 2202 0030 7B68     		ldr	r3, [r7, #4]
 2203 0032 7A69     		ldr	r2, [r7, #20]
 2204 0034 F868     		ldr	r0, [r7, #12]
 2205 0036 FFF7FEFF 		bl	OS_TaskSemPost
 2206 003a 3861     		str	r0, [r7, #16]
ARM GAS  C:\Users\Aluno\AppData\Local\Temp\ccHJiRYw.s 			page 67


1542:..\..\..\..\..\..\uCOS-III\Source/os_task.c ****                          opt,
1543:..\..\..\..\..\..\uCOS-III\Source/os_task.c ****                          ts,
1544:..\..\..\..\..\..\uCOS-III\Source/os_task.c ****                          p_err);
1545:..\..\..\..\..\..\uCOS-III\Source/os_task.c **** 
1546:..\..\..\..\..\..\uCOS-III\Source/os_task.c ****     return (ctr);
 2207              		.loc 1 1546 0
 2208 003c 3B69     		ldr	r3, [r7, #16]
 2209              	.L178:
1547:..\..\..\..\..\..\uCOS-III\Source/os_task.c **** }
 2210              		.loc 1 1547 0
 2211 003e 1846     		mov	r0, r3
 2212 0040 1837     		adds	r7, r7, #24
 2213              		.cfi_def_cfa_offset 8
 2214 0042 BD46     		mov	sp, r7
 2215              		.cfi_def_cfa_register 13
 2216              		@ sp needed
 2217 0044 80BD     		pop	{r7, pc}
 2218              		.cfi_endproc
 2219              	.LFE13:
 2220              		.size	OSTaskSemPost, .-OSTaskSemPost
 2221 0046 00BF     		.section	.text.OSTaskSemSet,"ax",%progbits
 2222              		.align	2
 2223              		.global	OSTaskSemSet
 2224              		.thumb
 2225              		.thumb_func
 2226              		.type	OSTaskSemSet, %function
 2227              	OSTaskSemSet:
 2228              	.LFB14:
1548:..\..\..\..\..\..\uCOS-III\Source/os_task.c **** 
1549:..\..\..\..\..\..\uCOS-III\Source/os_task.c **** /*$PAGE*/
1550:..\..\..\..\..\..\uCOS-III\Source/os_task.c **** /*
1551:..\..\..\..\..\..\uCOS-III\Source/os_task.c **** ***************************************************************************************************
1552:..\..\..\..\..\..\uCOS-III\Source/os_task.c **** *                                            SET THE SIGNAL COUNTER OF A TASK
1553:..\..\..\..\..\..\uCOS-III\Source/os_task.c **** *
1554:..\..\..\..\..\..\uCOS-III\Source/os_task.c **** * Description: This function is called to clear the signal counter
1555:..\..\..\..\..\..\uCOS-III\Source/os_task.c **** *
1556:..\..\..\..\..\..\uCOS-III\Source/os_task.c **** * Arguments  : p_tcb      is the pointer to the TCB of the task to clear the counter.  If you speci
1557:..\..\..\..\..\..\uCOS-III\Source/os_task.c **** *                         then the signal counter of the current task will be cleared.
1558:..\..\..\..\..\..\uCOS-III\Source/os_task.c **** *
1559:..\..\..\..\..\..\uCOS-III\Source/os_task.c **** *              cnt        is the desired value of the semaphore counter
1560:..\..\..\..\..\..\uCOS-III\Source/os_task.c **** *
1561:..\..\..\..\..\..\uCOS-III\Source/os_task.c **** *              p_err      is a pointer to an error code returned by this function
1562:..\..\..\..\..\..\uCOS-III\Source/os_task.c **** *
1563:..\..\..\..\..\..\uCOS-III\Source/os_task.c **** *                             OS_ERR_NONE        if the signal counter of the requested task is cle
1564:..\..\..\..\..\..\uCOS-III\Source/os_task.c **** *                             OS_ERR_SET_ISR     if the function was called from an ISR
1565:..\..\..\..\..\..\uCOS-III\Source/os_task.c **** *
1566:..\..\..\..\..\..\uCOS-III\Source/os_task.c **** * Returns    : none
1567:..\..\..\..\..\..\uCOS-III\Source/os_task.c **** ***************************************************************************************************
1568:..\..\..\..\..\..\uCOS-III\Source/os_task.c **** */
1569:..\..\..\..\..\..\uCOS-III\Source/os_task.c **** 
1570:..\..\..\..\..\..\uCOS-III\Source/os_task.c **** OS_SEM_CTR  OSTaskSemSet (OS_TCB      *p_tcb,
1571:..\..\..\..\..\..\uCOS-III\Source/os_task.c ****                           OS_SEM_CTR   cnt,
1572:..\..\..\..\..\..\uCOS-III\Source/os_task.c ****                           OS_ERR      *p_err)
1573:..\..\..\..\..\..\uCOS-III\Source/os_task.c **** {
 2229              		.loc 1 1573 0
 2230              		.cfi_startproc
 2231              		@ args = 0, pretend = 0, frame = 24
ARM GAS  C:\Users\Aluno\AppData\Local\Temp\ccHJiRYw.s 			page 68


 2232              		@ frame_needed = 1, uses_anonymous_args = 0
 2233 0000 80B5     		push	{r7, lr}
 2234              		.cfi_def_cfa_offset 8
 2235              		.cfi_offset 7, -8
 2236              		.cfi_offset 14, -4
 2237 0002 86B0     		sub	sp, sp, #24
 2238              		.cfi_def_cfa_offset 32
 2239 0004 00AF     		add	r7, sp, #0
 2240              		.cfi_def_cfa_register 7
 2241 0006 F860     		str	r0, [r7, #12]
 2242 0008 B960     		str	r1, [r7, #8]
 2243 000a 7A60     		str	r2, [r7, #4]
1574:..\..\..\..\..\..\uCOS-III\Source/os_task.c ****     OS_SEM_CTR  ctr;
1575:..\..\..\..\..\..\uCOS-III\Source/os_task.c ****     CPU_SR_ALLOC();
 2244              		.loc 1 1575 0
 2245 000c 0023     		movs	r3, #0
 2246 000e 7B61     		str	r3, [r7, #20]
1576:..\..\..\..\..\..\uCOS-III\Source/os_task.c **** 
1577:..\..\..\..\..\..\uCOS-III\Source/os_task.c **** 
1578:..\..\..\..\..\..\uCOS-III\Source/os_task.c **** 
1579:..\..\..\..\..\..\uCOS-III\Source/os_task.c **** #ifdef OS_SAFETY_CRITICAL
1580:..\..\..\..\..\..\uCOS-III\Source/os_task.c ****     if (p_err == (OS_ERR *)0) {
1581:..\..\..\..\..\..\uCOS-III\Source/os_task.c ****         OS_SAFETY_CRITICAL_EXCEPTION();
1582:..\..\..\..\..\..\uCOS-III\Source/os_task.c ****         return ((OS_SEM_CTR)0);
1583:..\..\..\..\..\..\uCOS-III\Source/os_task.c ****     }
1584:..\..\..\..\..\..\uCOS-III\Source/os_task.c **** #endif
1585:..\..\..\..\..\..\uCOS-III\Source/os_task.c **** 
1586:..\..\..\..\..\..\uCOS-III\Source/os_task.c **** #if OS_CFG_CALLED_FROM_ISR_CHK_EN > 0u
1587:..\..\..\..\..\..\uCOS-III\Source/os_task.c ****     if (OSIntNestingCtr > (OS_NESTING_CTR)0) {              /* Not allowed to call from an ISR     
 2247              		.loc 1 1587 0
 2248 0010 114B     		ldr	r3, .L184
 2249 0012 1B78     		ldrb	r3, [r3]	@ zero_extendqisi2
 2250 0014 002B     		cmp	r3, #0
 2251 0016 05D0     		beq	.L181
1588:..\..\..\..\..\..\uCOS-III\Source/os_task.c ****        *p_err = OS_ERR_SET_ISR;
 2252              		.loc 1 1588 0
 2253 0018 7B68     		ldr	r3, [r7, #4]
 2254 001a 46F6C652 		movw	r2, #28102
 2255 001e 1A80     		strh	r2, [r3]	@ movhi
1589:..\..\..\..\..\..\uCOS-III\Source/os_task.c ****         return ((OS_SEM_CTR)0);
 2256              		.loc 1 1589 0
 2257 0020 0023     		movs	r3, #0
 2258 0022 15E0     		b	.L182
 2259              	.L181:
1590:..\..\..\..\..\..\uCOS-III\Source/os_task.c ****     }
1591:..\..\..\..\..\..\uCOS-III\Source/os_task.c **** #endif
1592:..\..\..\..\..\..\uCOS-III\Source/os_task.c **** 
1593:..\..\..\..\..\..\uCOS-III\Source/os_task.c ****     CPU_CRITICAL_ENTER();
 2260              		.loc 1 1593 0
 2261 0024 FFF7FEFF 		bl	CPU_SR_Save
 2262 0028 7861     		str	r0, [r7, #20]
1594:..\..\..\..\..\..\uCOS-III\Source/os_task.c ****     if (p_tcb == (OS_TCB *)0) {
 2263              		.loc 1 1594 0
 2264 002a FB68     		ldr	r3, [r7, #12]
 2265 002c 002B     		cmp	r3, #0
 2266 002e 02D1     		bne	.L183
1595:..\..\..\..\..\..\uCOS-III\Source/os_task.c ****         p_tcb = OSTCBCurPtr;
ARM GAS  C:\Users\Aluno\AppData\Local\Temp\ccHJiRYw.s 			page 69


 2267              		.loc 1 1595 0
 2268 0030 0A4B     		ldr	r3, .L184+4
 2269 0032 1B68     		ldr	r3, [r3]
 2270 0034 FB60     		str	r3, [r7, #12]
 2271              	.L183:
1596:..\..\..\..\..\..\uCOS-III\Source/os_task.c ****     }
1597:..\..\..\..\..\..\uCOS-III\Source/os_task.c ****     ctr           = p_tcb->SemCtr;
 2272              		.loc 1 1597 0
 2273 0036 FB68     		ldr	r3, [r7, #12]
 2274 0038 5B6C     		ldr	r3, [r3, #68]
 2275 003a 3B61     		str	r3, [r7, #16]
1598:..\..\..\..\..\..\uCOS-III\Source/os_task.c ****     p_tcb->SemCtr = (OS_SEM_CTR)cnt;
 2276              		.loc 1 1598 0
 2277 003c FB68     		ldr	r3, [r7, #12]
 2278 003e BA68     		ldr	r2, [r7, #8]
 2279 0040 5A64     		str	r2, [r3, #68]
1599:..\..\..\..\..\..\uCOS-III\Source/os_task.c ****     CPU_CRITICAL_EXIT();
 2280              		.loc 1 1599 0
 2281 0042 7869     		ldr	r0, [r7, #20]
 2282 0044 FFF7FEFF 		bl	CPU_SR_Restore
1600:..\..\..\..\..\..\uCOS-III\Source/os_task.c ****    *p_err         =  OS_ERR_NONE;
 2283              		.loc 1 1600 0
 2284 0048 7B68     		ldr	r3, [r7, #4]
 2285 004a 0022     		movs	r2, #0
 2286 004c 1A80     		strh	r2, [r3]	@ movhi
1601:..\..\..\..\..\..\uCOS-III\Source/os_task.c ****     return (ctr);
 2287              		.loc 1 1601 0
 2288 004e 3B69     		ldr	r3, [r7, #16]
 2289              	.L182:
1602:..\..\..\..\..\..\uCOS-III\Source/os_task.c **** }
 2290              		.loc 1 1602 0
 2291 0050 1846     		mov	r0, r3
 2292 0052 1837     		adds	r7, r7, #24
 2293              		.cfi_def_cfa_offset 8
 2294 0054 BD46     		mov	sp, r7
 2295              		.cfi_def_cfa_register 13
 2296              		@ sp needed
 2297 0056 80BD     		pop	{r7, pc}
 2298              	.L185:
 2299              		.align	2
 2300              	.L184:
 2301 0058 00000000 		.word	OSIntNestingCtr
 2302 005c 00000000 		.word	OSTCBCurPtr
 2303              		.cfi_endproc
 2304              	.LFE14:
 2305              		.size	OSTaskSemSet, .-OSTaskSemSet
 2306              		.section	.text.OSTaskStkChk,"ax",%progbits
 2307              		.align	2
 2308              		.global	OSTaskStkChk
 2309              		.thumb
 2310              		.thumb_func
 2311              		.type	OSTaskStkChk, %function
 2312              	OSTaskStkChk:
 2313              	.LFB15:
1603:..\..\..\..\..\..\uCOS-III\Source/os_task.c **** 
1604:..\..\..\..\..\..\uCOS-III\Source/os_task.c **** /*$PAGE*/
1605:..\..\..\..\..\..\uCOS-III\Source/os_task.c **** /*
ARM GAS  C:\Users\Aluno\AppData\Local\Temp\ccHJiRYw.s 			page 70


1606:..\..\..\..\..\..\uCOS-III\Source/os_task.c **** ***************************************************************************************************
1607:..\..\..\..\..\..\uCOS-III\Source/os_task.c **** *                                                    STACK CHECKING
1608:..\..\..\..\..\..\uCOS-III\Source/os_task.c **** *
1609:..\..\..\..\..\..\uCOS-III\Source/os_task.c **** * Description: This function is called to calculate the amount of free memory left on the specified
1610:..\..\..\..\..\..\uCOS-III\Source/os_task.c **** *
1611:..\..\..\..\..\..\uCOS-III\Source/os_task.c **** * Arguments  : p_tcb       is a pointer to the TCB of the task to check.  If you specify a NULL poi
1612:..\..\..\..\..\..\uCOS-III\Source/os_task.c **** *                          you are specifying that you want to check the stack of the current task.
1613:..\..\..\..\..\..\uCOS-III\Source/os_task.c **** *
1614:..\..\..\..\..\..\uCOS-III\Source/os_task.c **** *              p_free      is a pointer to a variable that will receive the number of free 'entries
1615:..\..\..\..\..\..\uCOS-III\Source/os_task.c **** *
1616:..\..\..\..\..\..\uCOS-III\Source/os_task.c **** *              p_used      is a pointer to a variable that will receive the number of used 'entries
1617:..\..\..\..\..\..\uCOS-III\Source/os_task.c **** *
1618:..\..\..\..\..\..\uCOS-III\Source/os_task.c **** *              p_err       is a pointer to a variable that will contain an error code.
1619:..\..\..\..\..\..\uCOS-III\Source/os_task.c **** *
1620:..\..\..\..\..\..\uCOS-III\Source/os_task.c **** *                              OS_ERR_NONE               upon success
1621:..\..\..\..\..\..\uCOS-III\Source/os_task.c **** *                              OS_ERR_PTR_INVALID        if either 'p_free' or 'p_used' are NULL po
1622:..\..\..\..\..\..\uCOS-III\Source/os_task.c **** *                              OS_ERR_TASK_NOT_EXIST     if the stack pointer of the task is a NULL
1623:..\..\..\..\..\..\uCOS-III\Source/os_task.c **** *                              OS_ERR_TASK_OPT           if you did NOT specified OS_OPT_TASK_STK_C
1624:..\..\..\..\..\..\uCOS-III\Source/os_task.c **** *                                                        was created
1625:..\..\..\..\..\..\uCOS-III\Source/os_task.c **** *                              OS_ERR_TASK_STK_CHK_ISR   you called this function from an ISR
1626:..\..\..\..\..\..\uCOS-III\Source/os_task.c **** ***************************************************************************************************
1627:..\..\..\..\..\..\uCOS-III\Source/os_task.c **** */
1628:..\..\..\..\..\..\uCOS-III\Source/os_task.c **** 
1629:..\..\..\..\..\..\uCOS-III\Source/os_task.c **** #if OS_CFG_STAT_TASK_STK_CHK_EN > 0u
1630:..\..\..\..\..\..\uCOS-III\Source/os_task.c **** void  OSTaskStkChk (OS_TCB        *p_tcb,
1631:..\..\..\..\..\..\uCOS-III\Source/os_task.c ****                     CPU_STK_SIZE  *p_free,
1632:..\..\..\..\..\..\uCOS-III\Source/os_task.c ****                     CPU_STK_SIZE  *p_used,
1633:..\..\..\..\..\..\uCOS-III\Source/os_task.c ****                     OS_ERR        *p_err)
1634:..\..\..\..\..\..\uCOS-III\Source/os_task.c **** {
 2314              		.loc 1 1634 0
 2315              		.cfi_startproc
 2316              		@ args = 0, pretend = 0, frame = 32
 2317              		@ frame_needed = 1, uses_anonymous_args = 0
 2318 0000 80B5     		push	{r7, lr}
 2319              		.cfi_def_cfa_offset 8
 2320              		.cfi_offset 7, -8
 2321              		.cfi_offset 14, -4
 2322 0002 88B0     		sub	sp, sp, #32
 2323              		.cfi_def_cfa_offset 40
 2324 0004 00AF     		add	r7, sp, #0
 2325              		.cfi_def_cfa_register 7
 2326 0006 F860     		str	r0, [r7, #12]
 2327 0008 B960     		str	r1, [r7, #8]
 2328 000a 7A60     		str	r2, [r7, #4]
 2329 000c 3B60     		str	r3, [r7]
1635:..\..\..\..\..\..\uCOS-III\Source/os_task.c ****     CPU_STK_SIZE  free_stk;
1636:..\..\..\..\..\..\uCOS-III\Source/os_task.c ****     CPU_STK      *p_stk;
1637:..\..\..\..\..\..\uCOS-III\Source/os_task.c ****     CPU_SR_ALLOC();
 2330              		.loc 1 1637 0
 2331 000e 0023     		movs	r3, #0
 2332 0010 7B61     		str	r3, [r7, #20]
1638:..\..\..\..\..\..\uCOS-III\Source/os_task.c **** 
1639:..\..\..\..\..\..\uCOS-III\Source/os_task.c **** 
1640:..\..\..\..\..\..\uCOS-III\Source/os_task.c **** 
1641:..\..\..\..\..\..\uCOS-III\Source/os_task.c **** #ifdef OS_SAFETY_CRITICAL
1642:..\..\..\..\..\..\uCOS-III\Source/os_task.c ****     if (p_err == (OS_ERR *)0) {
1643:..\..\..\..\..\..\uCOS-III\Source/os_task.c ****         OS_SAFETY_CRITICAL_EXCEPTION();
ARM GAS  C:\Users\Aluno\AppData\Local\Temp\ccHJiRYw.s 			page 71


1644:..\..\..\..\..\..\uCOS-III\Source/os_task.c ****         return;
1645:..\..\..\..\..\..\uCOS-III\Source/os_task.c ****     }
1646:..\..\..\..\..\..\uCOS-III\Source/os_task.c **** #endif
1647:..\..\..\..\..\..\uCOS-III\Source/os_task.c **** 
1648:..\..\..\..\..\..\uCOS-III\Source/os_task.c **** #if OS_CFG_CALLED_FROM_ISR_CHK_EN > 0u
1649:..\..\..\..\..\..\uCOS-III\Source/os_task.c ****     if (OSIntNestingCtr > (OS_NESTING_CTR)0) {              /* See if trying to check stack from IS
 2333              		.loc 1 1649 0
 2334 0012 354B     		ldr	r3, .L196
 2335 0014 1B78     		ldrb	r3, [r3]	@ zero_extendqisi2
 2336 0016 002B     		cmp	r3, #0
 2337 0018 04D0     		beq	.L187
1650:..\..\..\..\..\..\uCOS-III\Source/os_task.c ****        *p_err = OS_ERR_TASK_STK_CHK_ISR;
 2338              		.loc 1 1650 0
 2339 001a 3B68     		ldr	r3, [r7]
 2340 001c 47F25912 		movw	r2, #29017
 2341 0020 1A80     		strh	r2, [r3]	@ movhi
1651:..\..\..\..\..\..\uCOS-III\Source/os_task.c ****         return;
 2342              		.loc 1 1651 0
 2343 0022 5DE0     		b	.L186
 2344              	.L187:
1652:..\..\..\..\..\..\uCOS-III\Source/os_task.c ****     }
1653:..\..\..\..\..\..\uCOS-III\Source/os_task.c **** #endif
1654:..\..\..\..\..\..\uCOS-III\Source/os_task.c **** 
1655:..\..\..\..\..\..\uCOS-III\Source/os_task.c **** #if OS_CFG_ARG_CHK_EN > 0u
1656:..\..\..\..\..\..\uCOS-III\Source/os_task.c ****     if (p_free == (CPU_STK_SIZE*)0) {                       /* User must specify valid destinations
 2345              		.loc 1 1656 0
 2346 0024 BB68     		ldr	r3, [r7, #8]
 2347 0026 002B     		cmp	r3, #0
 2348 0028 04D1     		bne	.L189
1657:..\..\..\..\..\..\uCOS-III\Source/os_task.c ****        *p_err  = OS_ERR_PTR_INVALID;
 2349              		.loc 1 1657 0
 2350 002a 3B68     		ldr	r3, [r7]
 2351 002c 46F2D522 		movw	r2, #25301
 2352 0030 1A80     		strh	r2, [r3]	@ movhi
