ARM GAS  C:\Users\alex\AppData\Local\Temp\cciEJGxR.s 			page 1


   1              		.syntax unified
   2              		.cpu cortex-m3
   3              		.fpu softvfp
   4              		.eabi_attribute 20, 1
   5              		.eabi_attribute 21, 1
   6              		.eabi_attribute 23, 3
   7              		.eabi_attribute 24, 1
   8              		.eabi_attribute 25, 1
   9              		.eabi_attribute 26, 1
  10              		.eabi_attribute 30, 6
  11              		.eabi_attribute 34, 1
  12              		.eabi_attribute 18, 4
  13              		.thumb
  14              		.syntax unified
  15              		.file	"ProbeUART_RxISR.c"
  16              		.text
  17              	.Ltext0:
  18              		.cfi_sections	.debug_frame
  19              		.section	.text.ProbeUART_RxISR_Start,"ax",%progbits
  20              		.align	2
  21              		.global	ProbeUART_RxISR_Start
  22              		.thumb
  23              		.thumb_func
  24              		.type	ProbeUART_RxISR_Start, %function
  25              	ProbeUART_RxISR_Start:
  26              	.LFB0:
  27              		.file 1 "Generated_Source\\PSoC5\\ProbeUART_RxISR.c"
   1:Generated_Source\PSoC5/ProbeUART_RxISR.c **** /*******************************************************************************
   2:Generated_Source\PSoC5/ProbeUART_RxISR.c **** * File Name: ProbeUART_RxISR.c  
   3:Generated_Source\PSoC5/ProbeUART_RxISR.c **** * Version 1.70
   4:Generated_Source\PSoC5/ProbeUART_RxISR.c **** *
   5:Generated_Source\PSoC5/ProbeUART_RxISR.c **** *  Description:
   6:Generated_Source\PSoC5/ProbeUART_RxISR.c **** *   API for controlling the state of an interrupt.
   7:Generated_Source\PSoC5/ProbeUART_RxISR.c **** *
   8:Generated_Source\PSoC5/ProbeUART_RxISR.c **** *
   9:Generated_Source\PSoC5/ProbeUART_RxISR.c **** *  Note:
  10:Generated_Source\PSoC5/ProbeUART_RxISR.c **** *
  11:Generated_Source\PSoC5/ProbeUART_RxISR.c **** ********************************************************************************
  12:Generated_Source\PSoC5/ProbeUART_RxISR.c **** * Copyright 2008-2015, Cypress Semiconductor Corporation.  All rights reserved.
  13:Generated_Source\PSoC5/ProbeUART_RxISR.c **** * You may use this file only in accordance with the license, terms, conditions, 
  14:Generated_Source\PSoC5/ProbeUART_RxISR.c **** * disclaimers, and limitations in the end user license agreement accompanying 
  15:Generated_Source\PSoC5/ProbeUART_RxISR.c **** * the software package with which this file was provided.
  16:Generated_Source\PSoC5/ProbeUART_RxISR.c **** *******************************************************************************/
  17:Generated_Source\PSoC5/ProbeUART_RxISR.c **** 
  18:Generated_Source\PSoC5/ProbeUART_RxISR.c **** 
  19:Generated_Source\PSoC5/ProbeUART_RxISR.c **** #include <cydevice_trm.h>
  20:Generated_Source\PSoC5/ProbeUART_RxISR.c **** #include <CyLib.h>
  21:Generated_Source\PSoC5/ProbeUART_RxISR.c **** #include <ProbeUART_RxISR.h>
  22:Generated_Source\PSoC5/ProbeUART_RxISR.c **** 
  23:Generated_Source\PSoC5/ProbeUART_RxISR.c **** 
  24:Generated_Source\PSoC5/ProbeUART_RxISR.c **** #if !defined(ProbeUART_RxISR__REMOVED) /* Check for removal by optimization */
  25:Generated_Source\PSoC5/ProbeUART_RxISR.c **** 
  26:Generated_Source\PSoC5/ProbeUART_RxISR.c **** /*******************************************************************************
  27:Generated_Source\PSoC5/ProbeUART_RxISR.c **** *  Place your includes, defines and code here 
  28:Generated_Source\PSoC5/ProbeUART_RxISR.c **** ********************************************************************************/
  29:Generated_Source\PSoC5/ProbeUART_RxISR.c **** /* `#START ProbeUART_RxISR_intc` */
  30:Generated_Source\PSoC5/ProbeUART_RxISR.c **** 
ARM GAS  C:\Users\alex\AppData\Local\Temp\cciEJGxR.s 			page 2


  31:Generated_Source\PSoC5/ProbeUART_RxISR.c **** /* `#END` */
  32:Generated_Source\PSoC5/ProbeUART_RxISR.c **** 
  33:Generated_Source\PSoC5/ProbeUART_RxISR.c **** #ifndef CYINT_IRQ_BASE
  34:Generated_Source\PSoC5/ProbeUART_RxISR.c **** #define CYINT_IRQ_BASE      16
  35:Generated_Source\PSoC5/ProbeUART_RxISR.c **** #endif /* CYINT_IRQ_BASE */
  36:Generated_Source\PSoC5/ProbeUART_RxISR.c **** #ifndef CYINT_VECT_TABLE
  37:Generated_Source\PSoC5/ProbeUART_RxISR.c **** #define CYINT_VECT_TABLE    ((cyisraddress **) CYREG_NVIC_VECT_OFFSET)
  38:Generated_Source\PSoC5/ProbeUART_RxISR.c **** #endif /* CYINT_VECT_TABLE */
  39:Generated_Source\PSoC5/ProbeUART_RxISR.c **** 
  40:Generated_Source\PSoC5/ProbeUART_RxISR.c **** /* Declared in startup, used to set unused interrupts to. */
  41:Generated_Source\PSoC5/ProbeUART_RxISR.c **** CY_ISR_PROTO(IntDefaultHandler);
  42:Generated_Source\PSoC5/ProbeUART_RxISR.c **** 
  43:Generated_Source\PSoC5/ProbeUART_RxISR.c **** 
  44:Generated_Source\PSoC5/ProbeUART_RxISR.c **** /*******************************************************************************
  45:Generated_Source\PSoC5/ProbeUART_RxISR.c **** * Function Name: ProbeUART_RxISR_Start
  46:Generated_Source\PSoC5/ProbeUART_RxISR.c **** ********************************************************************************
  47:Generated_Source\PSoC5/ProbeUART_RxISR.c **** *
  48:Generated_Source\PSoC5/ProbeUART_RxISR.c **** * Summary:
  49:Generated_Source\PSoC5/ProbeUART_RxISR.c **** *  Set up the interrupt and enable it. This function disables the interrupt, 
  50:Generated_Source\PSoC5/ProbeUART_RxISR.c **** *  sets the default interrupt vector, sets the priority from the value in the
  51:Generated_Source\PSoC5/ProbeUART_RxISR.c **** *  Design Wide Resources Interrupt Editor, then enables the interrupt to the 
  52:Generated_Source\PSoC5/ProbeUART_RxISR.c **** *  interrupt controller.
  53:Generated_Source\PSoC5/ProbeUART_RxISR.c **** *
  54:Generated_Source\PSoC5/ProbeUART_RxISR.c **** * Parameters:  
  55:Generated_Source\PSoC5/ProbeUART_RxISR.c **** *   None
  56:Generated_Source\PSoC5/ProbeUART_RxISR.c **** *
  57:Generated_Source\PSoC5/ProbeUART_RxISR.c **** * Return:
  58:Generated_Source\PSoC5/ProbeUART_RxISR.c **** *   None
  59:Generated_Source\PSoC5/ProbeUART_RxISR.c **** *
  60:Generated_Source\PSoC5/ProbeUART_RxISR.c **** *******************************************************************************/
  61:Generated_Source\PSoC5/ProbeUART_RxISR.c **** void ProbeUART_RxISR_Start(void)
  62:Generated_Source\PSoC5/ProbeUART_RxISR.c **** {
  28              		.loc 1 62 0
  29              		.cfi_startproc
  30              		@ args = 0, pretend = 0, frame = 0
  31              		@ frame_needed = 1, uses_anonymous_args = 0
  32 0000 80B5     		push	{r7, lr}
  33              		.cfi_def_cfa_offset 8
  34              		.cfi_offset 7, -8
  35              		.cfi_offset 14, -4
  36 0002 00AF     		add	r7, sp, #0
  37              		.cfi_def_cfa_register 7
  63:Generated_Source\PSoC5/ProbeUART_RxISR.c ****     /* For all we know the interrupt is active. */
  64:Generated_Source\PSoC5/ProbeUART_RxISR.c ****     ProbeUART_RxISR_Disable();
  38              		.loc 1 64 0
  39 0004 FFF7FEFF 		bl	ProbeUART_RxISR_Disable
  65:Generated_Source\PSoC5/ProbeUART_RxISR.c **** 
  66:Generated_Source\PSoC5/ProbeUART_RxISR.c ****     /* Set the ISR to point to the ProbeUART_RxISR Interrupt. */
  67:Generated_Source\PSoC5/ProbeUART_RxISR.c ****     ProbeUART_RxISR_SetVector(&ProbeUART_RxISR_Interrupt);
  40              		.loc 1 67 0
  41 0008 0448     		ldr	r0, .L2
  42 000a FFF7FEFF 		bl	ProbeUART_RxISR_SetVector
  68:Generated_Source\PSoC5/ProbeUART_RxISR.c **** 
  69:Generated_Source\PSoC5/ProbeUART_RxISR.c ****     /* Set the priority. */
  70:Generated_Source\PSoC5/ProbeUART_RxISR.c ****     ProbeUART_RxISR_SetPriority((uint8)ProbeUART_RxISR_INTC_PRIOR_NUMBER);
  43              		.loc 1 70 0
  44 000e 0720     		movs	r0, #7
ARM GAS  C:\Users\alex\AppData\Local\Temp\cciEJGxR.s 			page 3


  45 0010 FFF7FEFF 		bl	ProbeUART_RxISR_SetPriority
  71:Generated_Source\PSoC5/ProbeUART_RxISR.c **** 
  72:Generated_Source\PSoC5/ProbeUART_RxISR.c ****     /* Enable it. */
  73:Generated_Source\PSoC5/ProbeUART_RxISR.c ****     ProbeUART_RxISR_Enable();
  46              		.loc 1 73 0
  47 0014 FFF7FEFF 		bl	ProbeUART_RxISR_Enable
  74:Generated_Source\PSoC5/ProbeUART_RxISR.c **** }
  48              		.loc 1 74 0
  49 0018 00BF     		nop
  50 001a 80BD     		pop	{r7, pc}
  51              	.L3:
  52              		.align	2
  53              	.L2:
  54 001c 00000000 		.word	ProbeUART_RxISR_Interrupt
  55              		.cfi_endproc
  56              	.LFE0:
  57              		.size	ProbeUART_RxISR_Start, .-ProbeUART_RxISR_Start
  58              		.section	.text.ProbeUART_RxISR_StartEx,"ax",%progbits
  59              		.align	2
  60              		.global	ProbeUART_RxISR_StartEx
  61              		.thumb
  62              		.thumb_func
  63              		.type	ProbeUART_RxISR_StartEx, %function
  64              	ProbeUART_RxISR_StartEx:
  65              	.LFB1:
  75:Generated_Source\PSoC5/ProbeUART_RxISR.c **** 
  76:Generated_Source\PSoC5/ProbeUART_RxISR.c **** 
  77:Generated_Source\PSoC5/ProbeUART_RxISR.c **** /*******************************************************************************
  78:Generated_Source\PSoC5/ProbeUART_RxISR.c **** * Function Name: ProbeUART_RxISR_StartEx
  79:Generated_Source\PSoC5/ProbeUART_RxISR.c **** ********************************************************************************
  80:Generated_Source\PSoC5/ProbeUART_RxISR.c **** *
  81:Generated_Source\PSoC5/ProbeUART_RxISR.c **** * Summary:
  82:Generated_Source\PSoC5/ProbeUART_RxISR.c **** *  Sets up the interrupt and enables it. This function disables the interrupt,
  83:Generated_Source\PSoC5/ProbeUART_RxISR.c **** *  sets the interrupt vector based on the address passed in, sets the priority 
  84:Generated_Source\PSoC5/ProbeUART_RxISR.c **** *  from the value in the Design Wide Resources Interrupt Editor, then enables 
  85:Generated_Source\PSoC5/ProbeUART_RxISR.c **** *  the interrupt to the interrupt controller.
  86:Generated_Source\PSoC5/ProbeUART_RxISR.c **** *  
  87:Generated_Source\PSoC5/ProbeUART_RxISR.c **** *  When defining ISR functions, the CY_ISR and CY_ISR_PROTO macros should be 
  88:Generated_Source\PSoC5/ProbeUART_RxISR.c **** *  used to provide consistent definition across compilers:
  89:Generated_Source\PSoC5/ProbeUART_RxISR.c **** *  
  90:Generated_Source\PSoC5/ProbeUART_RxISR.c **** *  Function definition example:
  91:Generated_Source\PSoC5/ProbeUART_RxISR.c **** *   CY_ISR(MyISR)
  92:Generated_Source\PSoC5/ProbeUART_RxISR.c **** *   {
  93:Generated_Source\PSoC5/ProbeUART_RxISR.c **** *   }
  94:Generated_Source\PSoC5/ProbeUART_RxISR.c **** *   Function prototype example:
  95:Generated_Source\PSoC5/ProbeUART_RxISR.c **** *   CY_ISR_PROTO(MyISR);
  96:Generated_Source\PSoC5/ProbeUART_RxISR.c **** *
  97:Generated_Source\PSoC5/ProbeUART_RxISR.c **** * Parameters:  
  98:Generated_Source\PSoC5/ProbeUART_RxISR.c **** *   address: Address of the ISR to set in the interrupt vector table.
  99:Generated_Source\PSoC5/ProbeUART_RxISR.c **** *
 100:Generated_Source\PSoC5/ProbeUART_RxISR.c **** * Return:
 101:Generated_Source\PSoC5/ProbeUART_RxISR.c **** *   None
 102:Generated_Source\PSoC5/ProbeUART_RxISR.c **** *
 103:Generated_Source\PSoC5/ProbeUART_RxISR.c **** *******************************************************************************/
 104:Generated_Source\PSoC5/ProbeUART_RxISR.c **** void ProbeUART_RxISR_StartEx(cyisraddress address)
 105:Generated_Source\PSoC5/ProbeUART_RxISR.c **** {
  66              		.loc 1 105 0
ARM GAS  C:\Users\alex\AppData\Local\Temp\cciEJGxR.s 			page 4


  67              		.cfi_startproc
  68              		@ args = 0, pretend = 0, frame = 8
  69              		@ frame_needed = 1, uses_anonymous_args = 0
  70 0000 80B5     		push	{r7, lr}
  71              		.cfi_def_cfa_offset 8
  72              		.cfi_offset 7, -8
  73              		.cfi_offset 14, -4
  74 0002 82B0     		sub	sp, sp, #8
  75              		.cfi_def_cfa_offset 16
  76 0004 00AF     		add	r7, sp, #0
  77              		.cfi_def_cfa_register 7
  78 0006 7860     		str	r0, [r7, #4]
 106:Generated_Source\PSoC5/ProbeUART_RxISR.c ****     /* For all we know the interrupt is active. */
 107:Generated_Source\PSoC5/ProbeUART_RxISR.c ****     ProbeUART_RxISR_Disable();
  79              		.loc 1 107 0
  80 0008 FFF7FEFF 		bl	ProbeUART_RxISR_Disable
 108:Generated_Source\PSoC5/ProbeUART_RxISR.c **** 
 109:Generated_Source\PSoC5/ProbeUART_RxISR.c ****     /* Set the ISR to point to the ProbeUART_RxISR Interrupt. */
 110:Generated_Source\PSoC5/ProbeUART_RxISR.c ****     ProbeUART_RxISR_SetVector(address);
  81              		.loc 1 110 0
  82 000c 7868     		ldr	r0, [r7, #4]
  83 000e FFF7FEFF 		bl	ProbeUART_RxISR_SetVector
 111:Generated_Source\PSoC5/ProbeUART_RxISR.c **** 
 112:Generated_Source\PSoC5/ProbeUART_RxISR.c ****     /* Set the priority. */
 113:Generated_Source\PSoC5/ProbeUART_RxISR.c ****     ProbeUART_RxISR_SetPriority((uint8)ProbeUART_RxISR_INTC_PRIOR_NUMBER);
  84              		.loc 1 113 0
  85 0012 0720     		movs	r0, #7
  86 0014 FFF7FEFF 		bl	ProbeUART_RxISR_SetPriority
 114:Generated_Source\PSoC5/ProbeUART_RxISR.c **** 
 115:Generated_Source\PSoC5/ProbeUART_RxISR.c ****     /* Enable it. */
 116:Generated_Source\PSoC5/ProbeUART_RxISR.c ****     ProbeUART_RxISR_Enable();
  87              		.loc 1 116 0
  88 0018 FFF7FEFF 		bl	ProbeUART_RxISR_Enable
 117:Generated_Source\PSoC5/ProbeUART_RxISR.c **** }
  89              		.loc 1 117 0
  90 001c 00BF     		nop
  91 001e 0837     		adds	r7, r7, #8
  92              		.cfi_def_cfa_offset 8
  93 0020 BD46     		mov	sp, r7
  94              		.cfi_def_cfa_register 13
  95              		@ sp needed
  96 0022 80BD     		pop	{r7, pc}
  97              		.cfi_endproc
  98              	.LFE1:
  99              		.size	ProbeUART_RxISR_StartEx, .-ProbeUART_RxISR_StartEx
 100              		.section	.text.ProbeUART_RxISR_Stop,"ax",%progbits
 101              		.align	2
 102              		.global	ProbeUART_RxISR_Stop
 103              		.thumb
 104              		.thumb_func
 105              		.type	ProbeUART_RxISR_Stop, %function
 106              	ProbeUART_RxISR_Stop:
 107              	.LFB2:
 118:Generated_Source\PSoC5/ProbeUART_RxISR.c **** 
 119:Generated_Source\PSoC5/ProbeUART_RxISR.c **** 
 120:Generated_Source\PSoC5/ProbeUART_RxISR.c **** /*******************************************************************************
 121:Generated_Source\PSoC5/ProbeUART_RxISR.c **** * Function Name: ProbeUART_RxISR_Stop
ARM GAS  C:\Users\alex\AppData\Local\Temp\cciEJGxR.s 			page 5


 122:Generated_Source\PSoC5/ProbeUART_RxISR.c **** ********************************************************************************
 123:Generated_Source\PSoC5/ProbeUART_RxISR.c **** *
 124:Generated_Source\PSoC5/ProbeUART_RxISR.c **** * Summary:
 125:Generated_Source\PSoC5/ProbeUART_RxISR.c **** *   Disables and removes the interrupt.
 126:Generated_Source\PSoC5/ProbeUART_RxISR.c **** *
 127:Generated_Source\PSoC5/ProbeUART_RxISR.c **** * Parameters:  
 128:Generated_Source\PSoC5/ProbeUART_RxISR.c **** *   None
 129:Generated_Source\PSoC5/ProbeUART_RxISR.c **** *
 130:Generated_Source\PSoC5/ProbeUART_RxISR.c **** * Return:
 131:Generated_Source\PSoC5/ProbeUART_RxISR.c **** *   None
 132:Generated_Source\PSoC5/ProbeUART_RxISR.c **** *
 133:Generated_Source\PSoC5/ProbeUART_RxISR.c **** *******************************************************************************/
 134:Generated_Source\PSoC5/ProbeUART_RxISR.c **** void ProbeUART_RxISR_Stop(void)
 135:Generated_Source\PSoC5/ProbeUART_RxISR.c **** {
 108              		.loc 1 135 0
 109              		.cfi_startproc
 110              		@ args = 0, pretend = 0, frame = 0
 111              		@ frame_needed = 1, uses_anonymous_args = 0
 112 0000 80B5     		push	{r7, lr}
 113              		.cfi_def_cfa_offset 8
 114              		.cfi_offset 7, -8
 115              		.cfi_offset 14, -4
 116 0002 00AF     		add	r7, sp, #0
 117              		.cfi_def_cfa_register 7
 136:Generated_Source\PSoC5/ProbeUART_RxISR.c ****     /* Disable this interrupt. */
 137:Generated_Source\PSoC5/ProbeUART_RxISR.c ****     ProbeUART_RxISR_Disable();
 118              		.loc 1 137 0
 119 0004 FFF7FEFF 		bl	ProbeUART_RxISR_Disable
 138:Generated_Source\PSoC5/ProbeUART_RxISR.c **** 
 139:Generated_Source\PSoC5/ProbeUART_RxISR.c ****     /* Set the ISR to point to the passive one. */
 140:Generated_Source\PSoC5/ProbeUART_RxISR.c ****     ProbeUART_RxISR_SetVector(&IntDefaultHandler);
 120              		.loc 1 140 0
 121 0008 0248     		ldr	r0, .L6
 122 000a FFF7FEFF 		bl	ProbeUART_RxISR_SetVector
 141:Generated_Source\PSoC5/ProbeUART_RxISR.c **** }
 123              		.loc 1 141 0
 124 000e 00BF     		nop
 125 0010 80BD     		pop	{r7, pc}
 126              	.L7:
 127 0012 00BF     		.align	2
 128              	.L6:
 129 0014 00000000 		.word	IntDefaultHandler
 130              		.cfi_endproc
 131              	.LFE2:
 132              		.size	ProbeUART_RxISR_Stop, .-ProbeUART_RxISR_Stop
 133              		.section	.text.ProbeUART_RxISR_Interrupt,"ax",%progbits
 134              		.align	2
 135              		.global	ProbeUART_RxISR_Interrupt
 136              		.thumb
 137              		.thumb_func
 138              		.type	ProbeUART_RxISR_Interrupt, %function
 139              	ProbeUART_RxISR_Interrupt:
 140              	.LFB3:
 142:Generated_Source\PSoC5/ProbeUART_RxISR.c **** 
 143:Generated_Source\PSoC5/ProbeUART_RxISR.c **** 
 144:Generated_Source\PSoC5/ProbeUART_RxISR.c **** /*******************************************************************************
 145:Generated_Source\PSoC5/ProbeUART_RxISR.c **** * Function Name: ProbeUART_RxISR_Interrupt
ARM GAS  C:\Users\alex\AppData\Local\Temp\cciEJGxR.s 			page 6


 146:Generated_Source\PSoC5/ProbeUART_RxISR.c **** ********************************************************************************
 147:Generated_Source\PSoC5/ProbeUART_RxISR.c **** *
 148:Generated_Source\PSoC5/ProbeUART_RxISR.c **** * Summary:
 149:Generated_Source\PSoC5/ProbeUART_RxISR.c **** *   The default Interrupt Service Routine for ProbeUART_RxISR.
 150:Generated_Source\PSoC5/ProbeUART_RxISR.c **** *
 151:Generated_Source\PSoC5/ProbeUART_RxISR.c **** *   Add custom code between the coments to keep the next version of this file
 152:Generated_Source\PSoC5/ProbeUART_RxISR.c **** *   from over writting your code.
 153:Generated_Source\PSoC5/ProbeUART_RxISR.c **** *
 154:Generated_Source\PSoC5/ProbeUART_RxISR.c **** * Parameters:  
 155:Generated_Source\PSoC5/ProbeUART_RxISR.c **** *
 156:Generated_Source\PSoC5/ProbeUART_RxISR.c **** * Return:
 157:Generated_Source\PSoC5/ProbeUART_RxISR.c **** *   None
 158:Generated_Source\PSoC5/ProbeUART_RxISR.c **** *
 159:Generated_Source\PSoC5/ProbeUART_RxISR.c **** *******************************************************************************/
 160:Generated_Source\PSoC5/ProbeUART_RxISR.c **** CY_ISR(ProbeUART_RxISR_Interrupt)
 161:Generated_Source\PSoC5/ProbeUART_RxISR.c **** {
 141              		.loc 1 161 0
 142              		.cfi_startproc
 143              		@ args = 0, pretend = 0, frame = 0
 144              		@ frame_needed = 1, uses_anonymous_args = 0
 145 0000 80B5     		push	{r7, lr}
 146              		.cfi_def_cfa_offset 8
 147              		.cfi_offset 7, -8
 148              		.cfi_offset 14, -4
 149 0002 00AF     		add	r7, sp, #0
 150              		.cfi_def_cfa_register 7
 162:Generated_Source\PSoC5/ProbeUART_RxISR.c ****     #ifdef ProbeUART_RxISR_INTERRUPT_INTERRUPT_CALLBACK
 163:Generated_Source\PSoC5/ProbeUART_RxISR.c ****         ProbeUART_RxISR_Interrupt_InterruptCallback();
 164:Generated_Source\PSoC5/ProbeUART_RxISR.c ****     #endif /* ProbeUART_RxISR_INTERRUPT_INTERRUPT_CALLBACK */ 
 165:Generated_Source\PSoC5/ProbeUART_RxISR.c **** 
 166:Generated_Source\PSoC5/ProbeUART_RxISR.c ****     /*  Place your Interrupt code here. */
 167:Generated_Source\PSoC5/ProbeUART_RxISR.c ****     /* `#START ProbeUART_RxISR_Interrupt` */
 168:Generated_Source\PSoC5/ProbeUART_RxISR.c ****     ProbeRS232_RxISRHandler();
 151              		.loc 1 168 0
 152 0004 FFF7FEFF 		bl	ProbeRS232_RxISRHandler
 169:Generated_Source\PSoC5/ProbeUART_RxISR.c ****     /* `#END` */
 170:Generated_Source\PSoC5/ProbeUART_RxISR.c **** }
 153              		.loc 1 170 0
 154 0008 00BF     		nop
 155 000a 80BD     		pop	{r7, pc}
 156              		.cfi_endproc
 157              	.LFE3:
 158              		.size	ProbeUART_RxISR_Interrupt, .-ProbeUART_RxISR_Interrupt
 159              		.section	.text.ProbeUART_RxISR_SetVector,"ax",%progbits
 160              		.align	2
 161              		.global	ProbeUART_RxISR_SetVector
 162              		.thumb
 163              		.thumb_func
 164              		.type	ProbeUART_RxISR_SetVector, %function
 165              	ProbeUART_RxISR_SetVector:
 166              	.LFB4:
 171:Generated_Source\PSoC5/ProbeUART_RxISR.c **** 
 172:Generated_Source\PSoC5/ProbeUART_RxISR.c **** 
 173:Generated_Source\PSoC5/ProbeUART_RxISR.c **** /*******************************************************************************
 174:Generated_Source\PSoC5/ProbeUART_RxISR.c **** * Function Name: ProbeUART_RxISR_SetVector
 175:Generated_Source\PSoC5/ProbeUART_RxISR.c **** ********************************************************************************
 176:Generated_Source\PSoC5/ProbeUART_RxISR.c **** *
ARM GAS  C:\Users\alex\AppData\Local\Temp\cciEJGxR.s 			page 7


 177:Generated_Source\PSoC5/ProbeUART_RxISR.c **** * Summary:
 178:Generated_Source\PSoC5/ProbeUART_RxISR.c **** *   Change the ISR vector for the Interrupt. Note calling ProbeUART_RxISR_Start
 179:Generated_Source\PSoC5/ProbeUART_RxISR.c **** *   will override any effect this method would have had. To set the vector 
 180:Generated_Source\PSoC5/ProbeUART_RxISR.c **** *   before the component has been started use ProbeUART_RxISR_StartEx instead.
 181:Generated_Source\PSoC5/ProbeUART_RxISR.c **** * 
 182:Generated_Source\PSoC5/ProbeUART_RxISR.c **** *   When defining ISR functions, the CY_ISR and CY_ISR_PROTO macros should be 
 183:Generated_Source\PSoC5/ProbeUART_RxISR.c **** *   used to provide consistent definition across compilers:
 184:Generated_Source\PSoC5/ProbeUART_RxISR.c **** *
 185:Generated_Source\PSoC5/ProbeUART_RxISR.c **** *   Function definition example:
 186:Generated_Source\PSoC5/ProbeUART_RxISR.c **** *   CY_ISR(MyISR)
 187:Generated_Source\PSoC5/ProbeUART_RxISR.c **** *   {
 188:Generated_Source\PSoC5/ProbeUART_RxISR.c **** *   }
 189:Generated_Source\PSoC5/ProbeUART_RxISR.c **** *
 190:Generated_Source\PSoC5/ProbeUART_RxISR.c **** *   Function prototype example:
 191:Generated_Source\PSoC5/ProbeUART_RxISR.c **** *     CY_ISR_PROTO(MyISR);
 192:Generated_Source\PSoC5/ProbeUART_RxISR.c **** *
 193:Generated_Source\PSoC5/ProbeUART_RxISR.c **** * Parameters:
 194:Generated_Source\PSoC5/ProbeUART_RxISR.c **** *   address: Address of the ISR to set in the interrupt vector table.
 195:Generated_Source\PSoC5/ProbeUART_RxISR.c **** *
 196:Generated_Source\PSoC5/ProbeUART_RxISR.c **** * Return:
 197:Generated_Source\PSoC5/ProbeUART_RxISR.c **** *   None
 198:Generated_Source\PSoC5/ProbeUART_RxISR.c **** *
 199:Generated_Source\PSoC5/ProbeUART_RxISR.c **** *******************************************************************************/
 200:Generated_Source\PSoC5/ProbeUART_RxISR.c **** void ProbeUART_RxISR_SetVector(cyisraddress address)
 201:Generated_Source\PSoC5/ProbeUART_RxISR.c **** {
 167              		.loc 1 201 0
 168              		.cfi_startproc
 169              		@ args = 0, pretend = 0, frame = 16
 170              		@ frame_needed = 1, uses_anonymous_args = 0
 171              		@ link register save eliminated.
 172 0000 80B4     		push	{r7}
 173              		.cfi_def_cfa_offset 4
 174              		.cfi_offset 7, -4
 175 0002 85B0     		sub	sp, sp, #20
 176              		.cfi_def_cfa_offset 24
 177 0004 00AF     		add	r7, sp, #0
 178              		.cfi_def_cfa_register 7
 179 0006 7860     		str	r0, [r7, #4]
 202:Generated_Source\PSoC5/ProbeUART_RxISR.c ****     cyisraddress * ramVectorTable;
 203:Generated_Source\PSoC5/ProbeUART_RxISR.c **** 
 204:Generated_Source\PSoC5/ProbeUART_RxISR.c ****     ramVectorTable = (cyisraddress *) *CYINT_VECT_TABLE;
 180              		.loc 1 204 0
 181 0008 054B     		ldr	r3, .L10
 182 000a 1B68     		ldr	r3, [r3]
 183 000c FB60     		str	r3, [r7, #12]
 205:Generated_Source\PSoC5/ProbeUART_RxISR.c **** 
 206:Generated_Source\PSoC5/ProbeUART_RxISR.c ****     ramVectorTable[CYINT_IRQ_BASE + (uint32)ProbeUART_RxISR__INTC_NUMBER] = address;
 184              		.loc 1 206 0
 185 000e FB68     		ldr	r3, [r7, #12]
 186 0010 4033     		adds	r3, r3, #64
 187 0012 7A68     		ldr	r2, [r7, #4]
 188 0014 1A60     		str	r2, [r3]
 207:Generated_Source\PSoC5/ProbeUART_RxISR.c **** }
 189              		.loc 1 207 0
 190 0016 00BF     		nop
 191 0018 1437     		adds	r7, r7, #20
 192              		.cfi_def_cfa_offset 4
ARM GAS  C:\Users\alex\AppData\Local\Temp\cciEJGxR.s 			page 8


 193 001a BD46     		mov	sp, r7
 194              		.cfi_def_cfa_register 13
 195              		@ sp needed
 196 001c 80BC     		pop	{r7}
 197              		.cfi_restore 7
 198              		.cfi_def_cfa_offset 0
 199 001e 7047     		bx	lr
 200              	.L11:
 201              		.align	2
 202              	.L10:
 203 0020 08ED00E0 		.word	-536810232
 204              		.cfi_endproc
 205              	.LFE4:
 206              		.size	ProbeUART_RxISR_SetVector, .-ProbeUART_RxISR_SetVector
 207              		.section	.text.ProbeUART_RxISR_GetVector,"ax",%progbits
 208              		.align	2
 209              		.global	ProbeUART_RxISR_GetVector
 210              		.thumb
 211              		.thumb_func
 212              		.type	ProbeUART_RxISR_GetVector, %function
 213              	ProbeUART_RxISR_GetVector:
 214              	.LFB5:
 208:Generated_Source\PSoC5/ProbeUART_RxISR.c **** 
 209:Generated_Source\PSoC5/ProbeUART_RxISR.c **** 
 210:Generated_Source\PSoC5/ProbeUART_RxISR.c **** /*******************************************************************************
 211:Generated_Source\PSoC5/ProbeUART_RxISR.c **** * Function Name: ProbeUART_RxISR_GetVector
 212:Generated_Source\PSoC5/ProbeUART_RxISR.c **** ********************************************************************************
 213:Generated_Source\PSoC5/ProbeUART_RxISR.c **** *
 214:Generated_Source\PSoC5/ProbeUART_RxISR.c **** * Summary:
 215:Generated_Source\PSoC5/ProbeUART_RxISR.c **** *   Gets the "address" of the current ISR vector for the Interrupt.
 216:Generated_Source\PSoC5/ProbeUART_RxISR.c **** *
 217:Generated_Source\PSoC5/ProbeUART_RxISR.c **** * Parameters:
 218:Generated_Source\PSoC5/ProbeUART_RxISR.c **** *   None
 219:Generated_Source\PSoC5/ProbeUART_RxISR.c **** *
 220:Generated_Source\PSoC5/ProbeUART_RxISR.c **** * Return:
 221:Generated_Source\PSoC5/ProbeUART_RxISR.c **** *   Address of the ISR in the interrupt vector table.
 222:Generated_Source\PSoC5/ProbeUART_RxISR.c **** *
 223:Generated_Source\PSoC5/ProbeUART_RxISR.c **** *******************************************************************************/
 224:Generated_Source\PSoC5/ProbeUART_RxISR.c **** cyisraddress ProbeUART_RxISR_GetVector(void)
 225:Generated_Source\PSoC5/ProbeUART_RxISR.c **** {
 215              		.loc 1 225 0
 216              		.cfi_startproc
 217              		@ args = 0, pretend = 0, frame = 8
 218              		@ frame_needed = 1, uses_anonymous_args = 0
 219              		@ link register save eliminated.
 220 0000 80B4     		push	{r7}
 221              		.cfi_def_cfa_offset 4
 222              		.cfi_offset 7, -4
 223 0002 83B0     		sub	sp, sp, #12
 224              		.cfi_def_cfa_offset 16
 225 0004 00AF     		add	r7, sp, #0
 226              		.cfi_def_cfa_register 7
 226:Generated_Source\PSoC5/ProbeUART_RxISR.c ****     cyisraddress * ramVectorTable;
 227:Generated_Source\PSoC5/ProbeUART_RxISR.c **** 
 228:Generated_Source\PSoC5/ProbeUART_RxISR.c ****     ramVectorTable = (cyisraddress *) *CYINT_VECT_TABLE;
 227              		.loc 1 228 0
 228 0006 054B     		ldr	r3, .L14
ARM GAS  C:\Users\alex\AppData\Local\Temp\cciEJGxR.s 			page 9


 229 0008 1B68     		ldr	r3, [r3]
 230 000a 7B60     		str	r3, [r7, #4]
 229:Generated_Source\PSoC5/ProbeUART_RxISR.c **** 
 230:Generated_Source\PSoC5/ProbeUART_RxISR.c ****     return ramVectorTable[CYINT_IRQ_BASE + (uint32)ProbeUART_RxISR__INTC_NUMBER];
 231              		.loc 1 230 0
 232 000c 7B68     		ldr	r3, [r7, #4]
 233 000e 1B6C     		ldr	r3, [r3, #64]
 231:Generated_Source\PSoC5/ProbeUART_RxISR.c **** }
 234              		.loc 1 231 0
 235 0010 1846     		mov	r0, r3
 236 0012 0C37     		adds	r7, r7, #12
 237              		.cfi_def_cfa_offset 4
 238 0014 BD46     		mov	sp, r7
 239              		.cfi_def_cfa_register 13
 240              		@ sp needed
 241 0016 80BC     		pop	{r7}
 242              		.cfi_restore 7
 243              		.cfi_def_cfa_offset 0
 244 0018 7047     		bx	lr
 245              	.L15:
 246 001a 00BF     		.align	2
 247              	.L14:
 248 001c 08ED00E0 		.word	-536810232
 249              		.cfi_endproc
 250              	.LFE5:
 251              		.size	ProbeUART_RxISR_GetVector, .-ProbeUART_RxISR_GetVector
 252              		.section	.text.ProbeUART_RxISR_SetPriority,"ax",%progbits
 253              		.align	2
 254              		.global	ProbeUART_RxISR_SetPriority
 255              		.thumb
 256              		.thumb_func
 257              		.type	ProbeUART_RxISR_SetPriority, %function
 258              	ProbeUART_RxISR_SetPriority:
 259              	.LFB6:
 232:Generated_Source\PSoC5/ProbeUART_RxISR.c **** 
 233:Generated_Source\PSoC5/ProbeUART_RxISR.c **** 
 234:Generated_Source\PSoC5/ProbeUART_RxISR.c **** /*******************************************************************************
 235:Generated_Source\PSoC5/ProbeUART_RxISR.c **** * Function Name: ProbeUART_RxISR_SetPriority
 236:Generated_Source\PSoC5/ProbeUART_RxISR.c **** ********************************************************************************
 237:Generated_Source\PSoC5/ProbeUART_RxISR.c **** *
 238:Generated_Source\PSoC5/ProbeUART_RxISR.c **** * Summary:
 239:Generated_Source\PSoC5/ProbeUART_RxISR.c **** *   Sets the Priority of the Interrupt. 
 240:Generated_Source\PSoC5/ProbeUART_RxISR.c **** *
 241:Generated_Source\PSoC5/ProbeUART_RxISR.c **** *   Note calling ProbeUART_RxISR_Start or ProbeUART_RxISR_StartEx will 
 242:Generated_Source\PSoC5/ProbeUART_RxISR.c **** *   override any effect this API would have had. This API should only be called
 243:Generated_Source\PSoC5/ProbeUART_RxISR.c **** *   after ProbeUART_RxISR_Start or ProbeUART_RxISR_StartEx has been called. 
 244:Generated_Source\PSoC5/ProbeUART_RxISR.c **** *   To set the initial priority for the component, use the Design-Wide Resources
 245:Generated_Source\PSoC5/ProbeUART_RxISR.c **** *   Interrupt Editor.
 246:Generated_Source\PSoC5/ProbeUART_RxISR.c **** *
 247:Generated_Source\PSoC5/ProbeUART_RxISR.c **** *   Note This API has no effect on Non-maskable interrupt NMI).
 248:Generated_Source\PSoC5/ProbeUART_RxISR.c **** *
 249:Generated_Source\PSoC5/ProbeUART_RxISR.c **** * Parameters:
 250:Generated_Source\PSoC5/ProbeUART_RxISR.c **** *   priority: Priority of the interrupt, 0 being the highest priority
 251:Generated_Source\PSoC5/ProbeUART_RxISR.c **** *             PSoC 3 and PSoC 5LP: Priority is from 0 to 7.
 252:Generated_Source\PSoC5/ProbeUART_RxISR.c **** *             PSoC 4: Priority is from 0 to 3.
 253:Generated_Source\PSoC5/ProbeUART_RxISR.c **** *
 254:Generated_Source\PSoC5/ProbeUART_RxISR.c **** * Return:
ARM GAS  C:\Users\alex\AppData\Local\Temp\cciEJGxR.s 			page 10


 255:Generated_Source\PSoC5/ProbeUART_RxISR.c **** *   None
 256:Generated_Source\PSoC5/ProbeUART_RxISR.c **** *
 257:Generated_Source\PSoC5/ProbeUART_RxISR.c **** *******************************************************************************/
 258:Generated_Source\PSoC5/ProbeUART_RxISR.c **** void ProbeUART_RxISR_SetPriority(uint8 priority)
 259:Generated_Source\PSoC5/ProbeUART_RxISR.c **** {
 260              		.loc 1 259 0
 261              		.cfi_startproc
 262              		@ args = 0, pretend = 0, frame = 8
 263              		@ frame_needed = 1, uses_anonymous_args = 0
 264              		@ link register save eliminated.
 265 0000 80B4     		push	{r7}
 266              		.cfi_def_cfa_offset 4
 267              		.cfi_offset 7, -4
 268 0002 83B0     		sub	sp, sp, #12
 269              		.cfi_def_cfa_offset 16
 270 0004 00AF     		add	r7, sp, #0
 271              		.cfi_def_cfa_register 7
 272 0006 0346     		mov	r3, r0
 273 0008 FB71     		strb	r3, [r7, #7]
 260:Generated_Source\PSoC5/ProbeUART_RxISR.c ****     *ProbeUART_RxISR_INTC_PRIOR = priority << 5;
 274              		.loc 1 260 0
 275 000a 054A     		ldr	r2, .L17
 276 000c FB79     		ldrb	r3, [r7, #7]
 277 000e 5B01     		lsls	r3, r3, #5
 278 0010 DBB2     		uxtb	r3, r3
 279 0012 1370     		strb	r3, [r2]
 261:Generated_Source\PSoC5/ProbeUART_RxISR.c **** }
 280              		.loc 1 261 0
 281 0014 00BF     		nop
 282 0016 0C37     		adds	r7, r7, #12
 283              		.cfi_def_cfa_offset 4
 284 0018 BD46     		mov	sp, r7
 285              		.cfi_def_cfa_register 13
 286              		@ sp needed
 287 001a 80BC     		pop	{r7}
 288              		.cfi_restore 7
 289              		.cfi_def_cfa_offset 0
 290 001c 7047     		bx	lr
 291              	.L18:
 292 001e 00BF     		.align	2
 293              	.L17:
 294 0020 00E400E0 		.word	-536812544
 295              		.cfi_endproc
 296              	.LFE6:
 297              		.size	ProbeUART_RxISR_SetPriority, .-ProbeUART_RxISR_SetPriority
 298              		.section	.text.ProbeUART_RxISR_GetPriority,"ax",%progbits
 299              		.align	2
 300              		.global	ProbeUART_RxISR_GetPriority
 301              		.thumb
 302              		.thumb_func
 303              		.type	ProbeUART_RxISR_GetPriority, %function
 304              	ProbeUART_RxISR_GetPriority:
 305              	.LFB7:
 262:Generated_Source\PSoC5/ProbeUART_RxISR.c **** 
 263:Generated_Source\PSoC5/ProbeUART_RxISR.c **** 
 264:Generated_Source\PSoC5/ProbeUART_RxISR.c **** /*******************************************************************************
 265:Generated_Source\PSoC5/ProbeUART_RxISR.c **** * Function Name: ProbeUART_RxISR_GetPriority
ARM GAS  C:\Users\alex\AppData\Local\Temp\cciEJGxR.s 			page 11


 266:Generated_Source\PSoC5/ProbeUART_RxISR.c **** ********************************************************************************
 267:Generated_Source\PSoC5/ProbeUART_RxISR.c **** *
 268:Generated_Source\PSoC5/ProbeUART_RxISR.c **** * Summary:
 269:Generated_Source\PSoC5/ProbeUART_RxISR.c **** *   Gets the Priority of the Interrupt.
 270:Generated_Source\PSoC5/ProbeUART_RxISR.c **** *
 271:Generated_Source\PSoC5/ProbeUART_RxISR.c **** * Parameters:
 272:Generated_Source\PSoC5/ProbeUART_RxISR.c **** *   None
 273:Generated_Source\PSoC5/ProbeUART_RxISR.c **** *
 274:Generated_Source\PSoC5/ProbeUART_RxISR.c **** * Return:
 275:Generated_Source\PSoC5/ProbeUART_RxISR.c **** *   Priority of the interrupt, 0 being the highest priority
 276:Generated_Source\PSoC5/ProbeUART_RxISR.c **** *    PSoC 3 and PSoC 5LP: Priority is from 0 to 7.
 277:Generated_Source\PSoC5/ProbeUART_RxISR.c **** *    PSoC 4: Priority is from 0 to 3.
 278:Generated_Source\PSoC5/ProbeUART_RxISR.c **** *
 279:Generated_Source\PSoC5/ProbeUART_RxISR.c **** *******************************************************************************/
 280:Generated_Source\PSoC5/ProbeUART_RxISR.c **** uint8 ProbeUART_RxISR_GetPriority(void)
 281:Generated_Source\PSoC5/ProbeUART_RxISR.c **** {
 306              		.loc 1 281 0
 307              		.cfi_startproc
 308              		@ args = 0, pretend = 0, frame = 8
 309              		@ frame_needed = 1, uses_anonymous_args = 0
 310              		@ link register save eliminated.
 311 0000 80B4     		push	{r7}
 312              		.cfi_def_cfa_offset 4
 313              		.cfi_offset 7, -4
 314 0002 83B0     		sub	sp, sp, #12
 315              		.cfi_def_cfa_offset 16
 316 0004 00AF     		add	r7, sp, #0
 317              		.cfi_def_cfa_register 7
 282:Generated_Source\PSoC5/ProbeUART_RxISR.c ****     uint8 priority;
 283:Generated_Source\PSoC5/ProbeUART_RxISR.c **** 
 284:Generated_Source\PSoC5/ProbeUART_RxISR.c **** 
 285:Generated_Source\PSoC5/ProbeUART_RxISR.c ****     priority = *ProbeUART_RxISR_INTC_PRIOR >> 5;
 318              		.loc 1 285 0
 319 0006 054B     		ldr	r3, .L21
 320 0008 1B78     		ldrb	r3, [r3]
 321 000a DBB2     		uxtb	r3, r3
 322 000c 5B09     		lsrs	r3, r3, #5
 323 000e FB71     		strb	r3, [r7, #7]
 286:Generated_Source\PSoC5/ProbeUART_RxISR.c **** 
 287:Generated_Source\PSoC5/ProbeUART_RxISR.c ****     return priority;
 324              		.loc 1 287 0
 325 0010 FB79     		ldrb	r3, [r7, #7]	@ zero_extendqisi2
 288:Generated_Source\PSoC5/ProbeUART_RxISR.c **** }
 326              		.loc 1 288 0
 327 0012 1846     		mov	r0, r3
 328 0014 0C37     		adds	r7, r7, #12
 329              		.cfi_def_cfa_offset 4
 330 0016 BD46     		mov	sp, r7
 331              		.cfi_def_cfa_register 13
 332              		@ sp needed
 333 0018 80BC     		pop	{r7}
 334              		.cfi_restore 7
 335              		.cfi_def_cfa_offset 0
 336 001a 7047     		bx	lr
 337              	.L22:
 338              		.align	2
 339              	.L21:
ARM GAS  C:\Users\alex\AppData\Local\Temp\cciEJGxR.s 			page 12


 340 001c 00E400E0 		.word	-536812544
 341              		.cfi_endproc
 342              	.LFE7:
 343              		.size	ProbeUART_RxISR_GetPriority, .-ProbeUART_RxISR_GetPriority
 344              		.section	.text.ProbeUART_RxISR_Enable,"ax",%progbits
 345              		.align	2
 346              		.global	ProbeUART_RxISR_Enable
 347              		.thumb
 348              		.thumb_func
 349              		.type	ProbeUART_RxISR_Enable, %function
 350              	ProbeUART_RxISR_Enable:
 351              	.LFB8:
 289:Generated_Source\PSoC5/ProbeUART_RxISR.c **** 
 290:Generated_Source\PSoC5/ProbeUART_RxISR.c **** 
 291:Generated_Source\PSoC5/ProbeUART_RxISR.c **** /*******************************************************************************
 292:Generated_Source\PSoC5/ProbeUART_RxISR.c **** * Function Name: ProbeUART_RxISR_Enable
 293:Generated_Source\PSoC5/ProbeUART_RxISR.c **** ********************************************************************************
 294:Generated_Source\PSoC5/ProbeUART_RxISR.c **** *
 295:Generated_Source\PSoC5/ProbeUART_RxISR.c **** * Summary:
 296:Generated_Source\PSoC5/ProbeUART_RxISR.c **** *   Enables the interrupt to the interrupt controller. Do not call this function
 297:Generated_Source\PSoC5/ProbeUART_RxISR.c **** *   unless ISR_Start() has been called or the functionality of the ISR_Start() 
 298:Generated_Source\PSoC5/ProbeUART_RxISR.c **** *   function, which sets the vector and the priority, has been called.
 299:Generated_Source\PSoC5/ProbeUART_RxISR.c **** *
 300:Generated_Source\PSoC5/ProbeUART_RxISR.c **** * Parameters:
 301:Generated_Source\PSoC5/ProbeUART_RxISR.c **** *   None
 302:Generated_Source\PSoC5/ProbeUART_RxISR.c **** *
 303:Generated_Source\PSoC5/ProbeUART_RxISR.c **** * Return:
 304:Generated_Source\PSoC5/ProbeUART_RxISR.c **** *   None
 305:Generated_Source\PSoC5/ProbeUART_RxISR.c **** *
 306:Generated_Source\PSoC5/ProbeUART_RxISR.c **** *******************************************************************************/
 307:Generated_Source\PSoC5/ProbeUART_RxISR.c **** void ProbeUART_RxISR_Enable(void)
 308:Generated_Source\PSoC5/ProbeUART_RxISR.c **** {
 352              		.loc 1 308 0
 353              		.cfi_startproc
 354              		@ args = 0, pretend = 0, frame = 0
 355              		@ frame_needed = 1, uses_anonymous_args = 0
 356              		@ link register save eliminated.
 357 0000 80B4     		push	{r7}
 358              		.cfi_def_cfa_offset 4
 359              		.cfi_offset 7, -4
 360 0002 00AF     		add	r7, sp, #0
 361              		.cfi_def_cfa_register 7
 309:Generated_Source\PSoC5/ProbeUART_RxISR.c ****     /* Enable the general interrupt. */
 310:Generated_Source\PSoC5/ProbeUART_RxISR.c ****     *ProbeUART_RxISR_INTC_SET_EN = ProbeUART_RxISR__INTC_MASK;
 362              		.loc 1 310 0
 363 0004 034B     		ldr	r3, .L24
 364 0006 0122     		movs	r2, #1
 365 0008 1A60     		str	r2, [r3]
 311:Generated_Source\PSoC5/ProbeUART_RxISR.c **** }
 366              		.loc 1 311 0
 367 000a 00BF     		nop
 368 000c BD46     		mov	sp, r7
 369              		.cfi_def_cfa_register 13
 370              		@ sp needed
 371 000e 80BC     		pop	{r7}
 372              		.cfi_restore 7
 373              		.cfi_def_cfa_offset 0
ARM GAS  C:\Users\alex\AppData\Local\Temp\cciEJGxR.s 			page 13


 374 0010 7047     		bx	lr
 375              	.L25:
 376 0012 00BF     		.align	2
 377              	.L24:
 378 0014 00E100E0 		.word	-536813312
 379              		.cfi_endproc
 380              	.LFE8:
 381              		.size	ProbeUART_RxISR_Enable, .-ProbeUART_RxISR_Enable
 382              		.section	.text.ProbeUART_RxISR_GetState,"ax",%progbits
 383              		.align	2
 384              		.global	ProbeUART_RxISR_GetState
 385              		.thumb
 386              		.thumb_func
 387              		.type	ProbeUART_RxISR_GetState, %function
 388              	ProbeUART_RxISR_GetState:
 389              	.LFB9:
 312:Generated_Source\PSoC5/ProbeUART_RxISR.c **** 
 313:Generated_Source\PSoC5/ProbeUART_RxISR.c **** 
 314:Generated_Source\PSoC5/ProbeUART_RxISR.c **** /*******************************************************************************
 315:Generated_Source\PSoC5/ProbeUART_RxISR.c **** * Function Name: ProbeUART_RxISR_GetState
 316:Generated_Source\PSoC5/ProbeUART_RxISR.c **** ********************************************************************************
 317:Generated_Source\PSoC5/ProbeUART_RxISR.c **** *
 318:Generated_Source\PSoC5/ProbeUART_RxISR.c **** * Summary:
 319:Generated_Source\PSoC5/ProbeUART_RxISR.c **** *   Gets the state (enabled, disabled) of the Interrupt.
 320:Generated_Source\PSoC5/ProbeUART_RxISR.c **** *
 321:Generated_Source\PSoC5/ProbeUART_RxISR.c **** * Parameters:
 322:Generated_Source\PSoC5/ProbeUART_RxISR.c **** *   None
 323:Generated_Source\PSoC5/ProbeUART_RxISR.c **** *
 324:Generated_Source\PSoC5/ProbeUART_RxISR.c **** * Return:
 325:Generated_Source\PSoC5/ProbeUART_RxISR.c **** *   1 if enabled, 0 if disabled.
 326:Generated_Source\PSoC5/ProbeUART_RxISR.c **** *
 327:Generated_Source\PSoC5/ProbeUART_RxISR.c **** *******************************************************************************/
 328:Generated_Source\PSoC5/ProbeUART_RxISR.c **** uint8 ProbeUART_RxISR_GetState(void)
 329:Generated_Source\PSoC5/ProbeUART_RxISR.c **** {
 390              		.loc 1 329 0
 391              		.cfi_startproc
 392              		@ args = 0, pretend = 0, frame = 0
 393              		@ frame_needed = 1, uses_anonymous_args = 0
 394              		@ link register save eliminated.
 395 0000 80B4     		push	{r7}
 396              		.cfi_def_cfa_offset 4
 397              		.cfi_offset 7, -4
 398 0002 00AF     		add	r7, sp, #0
 399              		.cfi_def_cfa_register 7
 330:Generated_Source\PSoC5/ProbeUART_RxISR.c ****     /* Get the state of the general interrupt. */
 331:Generated_Source\PSoC5/ProbeUART_RxISR.c ****     return ((*ProbeUART_RxISR_INTC_SET_EN & (uint32)ProbeUART_RxISR__INTC_MASK) != 0u) ? 1u:0u;
 400              		.loc 1 331 0
 401 0004 044B     		ldr	r3, .L28
 402 0006 1B68     		ldr	r3, [r3]
 403 0008 DBB2     		uxtb	r3, r3
 404 000a 03F00103 		and	r3, r3, #1
 405 000e DBB2     		uxtb	r3, r3
 332:Generated_Source\PSoC5/ProbeUART_RxISR.c **** }
 406              		.loc 1 332 0
 407 0010 1846     		mov	r0, r3
 408 0012 BD46     		mov	sp, r7
 409              		.cfi_def_cfa_register 13
ARM GAS  C:\Users\alex\AppData\Local\Temp\cciEJGxR.s 			page 14


 410              		@ sp needed
 411 0014 80BC     		pop	{r7}
 412              		.cfi_restore 7
 413              		.cfi_def_cfa_offset 0
 414 0016 7047     		bx	lr
 415              	.L29:
 416              		.align	2
 417              	.L28:
 418 0018 00E100E0 		.word	-536813312
 419              		.cfi_endproc
 420              	.LFE9:
 421              		.size	ProbeUART_RxISR_GetState, .-ProbeUART_RxISR_GetState
 422              		.section	.text.ProbeUART_RxISR_Disable,"ax",%progbits
 423              		.align	2
 424              		.global	ProbeUART_RxISR_Disable
 425              		.thumb
 426              		.thumb_func
 427              		.type	ProbeUART_RxISR_Disable, %function
 428              	ProbeUART_RxISR_Disable:
 429              	.LFB10:
 333:Generated_Source\PSoC5/ProbeUART_RxISR.c **** 
 334:Generated_Source\PSoC5/ProbeUART_RxISR.c **** 
 335:Generated_Source\PSoC5/ProbeUART_RxISR.c **** /*******************************************************************************
 336:Generated_Source\PSoC5/ProbeUART_RxISR.c **** * Function Name: ProbeUART_RxISR_Disable
 337:Generated_Source\PSoC5/ProbeUART_RxISR.c **** ********************************************************************************
 338:Generated_Source\PSoC5/ProbeUART_RxISR.c **** *
 339:Generated_Source\PSoC5/ProbeUART_RxISR.c **** * Summary:
 340:Generated_Source\PSoC5/ProbeUART_RxISR.c **** *   Disables the Interrupt in the interrupt controller.
 341:Generated_Source\PSoC5/ProbeUART_RxISR.c **** *
 342:Generated_Source\PSoC5/ProbeUART_RxISR.c **** * Parameters:
 343:Generated_Source\PSoC5/ProbeUART_RxISR.c **** *   None
 344:Generated_Source\PSoC5/ProbeUART_RxISR.c **** *
 345:Generated_Source\PSoC5/ProbeUART_RxISR.c **** * Return:
 346:Generated_Source\PSoC5/ProbeUART_RxISR.c **** *   None
 347:Generated_Source\PSoC5/ProbeUART_RxISR.c **** *
 348:Generated_Source\PSoC5/ProbeUART_RxISR.c **** *******************************************************************************/
 349:Generated_Source\PSoC5/ProbeUART_RxISR.c **** void ProbeUART_RxISR_Disable(void)
 350:Generated_Source\PSoC5/ProbeUART_RxISR.c **** {
 430              		.loc 1 350 0
 431              		.cfi_startproc
 432              		@ args = 0, pretend = 0, frame = 0
 433              		@ frame_needed = 1, uses_anonymous_args = 0
 434              		@ link register save eliminated.
 435 0000 80B4     		push	{r7}
 436              		.cfi_def_cfa_offset 4
 437              		.cfi_offset 7, -4
 438 0002 00AF     		add	r7, sp, #0
 439              		.cfi_def_cfa_register 7
 351:Generated_Source\PSoC5/ProbeUART_RxISR.c ****     /* Disable the general interrupt. */
 352:Generated_Source\PSoC5/ProbeUART_RxISR.c ****     *ProbeUART_RxISR_INTC_CLR_EN = ProbeUART_RxISR__INTC_MASK;
 440              		.loc 1 352 0
 441 0004 034B     		ldr	r3, .L31
 442 0006 0122     		movs	r2, #1
 443 0008 1A60     		str	r2, [r3]
 353:Generated_Source\PSoC5/ProbeUART_RxISR.c **** }
 444              		.loc 1 353 0
 445 000a 00BF     		nop
ARM GAS  C:\Users\alex\AppData\Local\Temp\cciEJGxR.s 			page 15


 446 000c BD46     		mov	sp, r7
 447              		.cfi_def_cfa_register 13
 448              		@ sp needed
 449 000e 80BC     		pop	{r7}
 450              		.cfi_restore 7
 451              		.cfi_def_cfa_offset 0
 452 0010 7047     		bx	lr
 453              	.L32:
 454 0012 00BF     		.align	2
 455              	.L31:
 456 0014 80E100E0 		.word	-536813184
 457              		.cfi_endproc
 458              	.LFE10:
 459              		.size	ProbeUART_RxISR_Disable, .-ProbeUART_RxISR_Disable
 460              		.section	.text.ProbeUART_RxISR_SetPending,"ax",%progbits
 461              		.align	2
 462              		.global	ProbeUART_RxISR_SetPending
 463              		.thumb
 464              		.thumb_func
 465              		.type	ProbeUART_RxISR_SetPending, %function
 466              	ProbeUART_RxISR_SetPending:
 467              	.LFB11:
 354:Generated_Source\PSoC5/ProbeUART_RxISR.c **** 
 355:Generated_Source\PSoC5/ProbeUART_RxISR.c **** 
 356:Generated_Source\PSoC5/ProbeUART_RxISR.c **** /*******************************************************************************
 357:Generated_Source\PSoC5/ProbeUART_RxISR.c **** * Function Name: ProbeUART_RxISR_SetPending
 358:Generated_Source\PSoC5/ProbeUART_RxISR.c **** ********************************************************************************
 359:Generated_Source\PSoC5/ProbeUART_RxISR.c **** *
 360:Generated_Source\PSoC5/ProbeUART_RxISR.c **** * Summary:
 361:Generated_Source\PSoC5/ProbeUART_RxISR.c **** *   Causes the Interrupt to enter the pending state, a software method of
 362:Generated_Source\PSoC5/ProbeUART_RxISR.c **** *   generating the interrupt.
 363:Generated_Source\PSoC5/ProbeUART_RxISR.c **** *
 364:Generated_Source\PSoC5/ProbeUART_RxISR.c **** * Parameters:
 365:Generated_Source\PSoC5/ProbeUART_RxISR.c **** *   None
 366:Generated_Source\PSoC5/ProbeUART_RxISR.c **** *
 367:Generated_Source\PSoC5/ProbeUART_RxISR.c **** * Return:
 368:Generated_Source\PSoC5/ProbeUART_RxISR.c **** *   None
 369:Generated_Source\PSoC5/ProbeUART_RxISR.c **** *
 370:Generated_Source\PSoC5/ProbeUART_RxISR.c **** * Side Effects:
 371:Generated_Source\PSoC5/ProbeUART_RxISR.c **** *   If interrupts are enabled and the interrupt is set up properly, the ISR is
 372:Generated_Source\PSoC5/ProbeUART_RxISR.c **** *   entered (depending on the priority of this interrupt and other pending 
 373:Generated_Source\PSoC5/ProbeUART_RxISR.c **** *   interrupts).
 374:Generated_Source\PSoC5/ProbeUART_RxISR.c **** *
 375:Generated_Source\PSoC5/ProbeUART_RxISR.c **** *******************************************************************************/
 376:Generated_Source\PSoC5/ProbeUART_RxISR.c **** void ProbeUART_RxISR_SetPending(void)
 377:Generated_Source\PSoC5/ProbeUART_RxISR.c **** {
 468              		.loc 1 377 0
 469              		.cfi_startproc
 470              		@ args = 0, pretend = 0, frame = 0
 471              		@ frame_needed = 1, uses_anonymous_args = 0
 472              		@ link register save eliminated.
 473 0000 80B4     		push	{r7}
 474              		.cfi_def_cfa_offset 4
 475              		.cfi_offset 7, -4
 476 0002 00AF     		add	r7, sp, #0
 477              		.cfi_def_cfa_register 7
 378:Generated_Source\PSoC5/ProbeUART_RxISR.c ****     *ProbeUART_RxISR_INTC_SET_PD = ProbeUART_RxISR__INTC_MASK;
ARM GAS  C:\Users\alex\AppData\Local\Temp\cciEJGxR.s 			page 16


 478              		.loc 1 378 0
 479 0004 034B     		ldr	r3, .L34
 480 0006 0122     		movs	r2, #1
 481 0008 1A60     		str	r2, [r3]
 379:Generated_Source\PSoC5/ProbeUART_RxISR.c **** }
 482              		.loc 1 379 0
 483 000a 00BF     		nop
 484 000c BD46     		mov	sp, r7
 485              		.cfi_def_cfa_register 13
 486              		@ sp needed
 487 000e 80BC     		pop	{r7}
 488              		.cfi_restore 7
 489              		.cfi_def_cfa_offset 0
 490 0010 7047     		bx	lr
 491              	.L35:
 492 0012 00BF     		.align	2
 493              	.L34:
 494 0014 00E200E0 		.word	-536813056
 495              		.cfi_endproc
 496              	.LFE11:
 497              		.size	ProbeUART_RxISR_SetPending, .-ProbeUART_RxISR_SetPending
 498              		.section	.text.ProbeUART_RxISR_ClearPending,"ax",%progbits
 499              		.align	2
 500              		.global	ProbeUART_RxISR_ClearPending
 501              		.thumb
 502              		.thumb_func
 503              		.type	ProbeUART_RxISR_ClearPending, %function
 504              	ProbeUART_RxISR_ClearPending:
 505              	.LFB12:
 380:Generated_Source\PSoC5/ProbeUART_RxISR.c **** 
 381:Generated_Source\PSoC5/ProbeUART_RxISR.c **** 
 382:Generated_Source\PSoC5/ProbeUART_RxISR.c **** /*******************************************************************************
 383:Generated_Source\PSoC5/ProbeUART_RxISR.c **** * Function Name: ProbeUART_RxISR_ClearPending
 384:Generated_Source\PSoC5/ProbeUART_RxISR.c **** ********************************************************************************
 385:Generated_Source\PSoC5/ProbeUART_RxISR.c **** *
 386:Generated_Source\PSoC5/ProbeUART_RxISR.c **** * Summary:
 387:Generated_Source\PSoC5/ProbeUART_RxISR.c **** *   Clears a pending interrupt in the interrupt controller.
 388:Generated_Source\PSoC5/ProbeUART_RxISR.c **** *
 389:Generated_Source\PSoC5/ProbeUART_RxISR.c **** *   Note Some interrupt sources are clear-on-read and require the block 
 390:Generated_Source\PSoC5/ProbeUART_RxISR.c **** *   interrupt/status register to be read/cleared with the appropriate block API 
 391:Generated_Source\PSoC5/ProbeUART_RxISR.c **** *   (GPIO, UART, and so on). Otherwise the ISR will continue to remain in 
 392:Generated_Source\PSoC5/ProbeUART_RxISR.c **** *   pending state even though the interrupt itself is cleared using this API.
 393:Generated_Source\PSoC5/ProbeUART_RxISR.c **** *
 394:Generated_Source\PSoC5/ProbeUART_RxISR.c **** * Parameters:
 395:Generated_Source\PSoC5/ProbeUART_RxISR.c **** *   None
 396:Generated_Source\PSoC5/ProbeUART_RxISR.c **** *
 397:Generated_Source\PSoC5/ProbeUART_RxISR.c **** * Return:
 398:Generated_Source\PSoC5/ProbeUART_RxISR.c **** *   None
 399:Generated_Source\PSoC5/ProbeUART_RxISR.c **** *
 400:Generated_Source\PSoC5/ProbeUART_RxISR.c **** *******************************************************************************/
 401:Generated_Source\PSoC5/ProbeUART_RxISR.c **** void ProbeUART_RxISR_ClearPending(void)
 402:Generated_Source\PSoC5/ProbeUART_RxISR.c **** {
 506              		.loc 1 402 0
 507              		.cfi_startproc
 508              		@ args = 0, pretend = 0, frame = 0
 509              		@ frame_needed = 1, uses_anonymous_args = 0
 510              		@ link register save eliminated.
ARM GAS  C:\Users\alex\AppData\Local\Temp\cciEJGxR.s 			page 17


 511 0000 80B4     		push	{r7}
 512              		.cfi_def_cfa_offset 4
 513              		.cfi_offset 7, -4
 514 0002 00AF     		add	r7, sp, #0
 515              		.cfi_def_cfa_register 7
 403:Generated_Source\PSoC5/ProbeUART_RxISR.c ****     *ProbeUART_RxISR_INTC_CLR_PD = ProbeUART_RxISR__INTC_MASK;
 516              		.loc 1 403 0
 517 0004 034B     		ldr	r3, .L37
 518 0006 0122     		movs	r2, #1
 519 0008 1A60     		str	r2, [r3]
 404:Generated_Source\PSoC5/ProbeUART_RxISR.c **** }
 520              		.loc 1 404 0
 521 000a 00BF     		nop
 522 000c BD46     		mov	sp, r7
 523              		.cfi_def_cfa_register 13
 524              		@ sp needed
 525 000e 80BC     		pop	{r7}
 526              		.cfi_restore 7
 527              		.cfi_def_cfa_offset 0
 528 0010 7047     		bx	lr
 529              	.L38:
 530 0012 00BF     		.align	2
 531              	.L37:
 532 0014 80E200E0 		.word	-536812928
 533              		.cfi_endproc
 534              	.LFE12:
 535              		.size	ProbeUART_RxISR_ClearPending, .-ProbeUART_RxISR_ClearPending
 536              		.text
 537              	.Letext0:
 538              		.file 2 "Generated_Source\\PSoC5/cytypes.h"